ARM GAS  C:\Users\gjl\AppData\Local\Temp\cc4FFmYA.s 			page 1


   1              		.syntax unified
   2              		.cpu cortex-m4
   3              		.eabi_attribute 27, 1
   4              		.fpu fpv4-sp-d16
   5              		.eabi_attribute 20, 1
   6              		.eabi_attribute 21, 1
   7              		.eabi_attribute 23, 3
   8              		.eabi_attribute 24, 1
   9              		.eabi_attribute 25, 1
  10              		.eabi_attribute 26, 1
  11              		.eabi_attribute 30, 1
  12              		.eabi_attribute 34, 1
  13              		.eabi_attribute 18, 4
  14              		.thumb
  15              		.syntax unified
  16              		.file	"list.c"
  17              		.text
  18              	.Ltext0:
  19              		.cfi_sections	.debug_frame
  20              		.section	.text.vListInitialise,"ax",%progbits
  21              		.align	2
  22              		.global	vListInitialise
  23              		.thumb
  24              		.thumb_func
  25              		.type	vListInitialise, %function
  26              	vListInitialise:
  27              	.LFB129:
  28              		.file 1 "Generated_Source\\PSoC6\\pdl\\rtos\\FreeRTOS\\9.0.0\\Source\\list.c"
   1:Generated_Source\PSoC6\pdl\rtos\FreeRTOS\9.0.0\Source/list.c **** /*
   2:Generated_Source\PSoC6\pdl\rtos\FreeRTOS\9.0.0\Source/list.c ****     FreeRTOS V9.0.0 - Copyright (C) 2016 Real Time Engineers Ltd.
   3:Generated_Source\PSoC6\pdl\rtos\FreeRTOS\9.0.0\Source/list.c ****     All rights reserved
   4:Generated_Source\PSoC6\pdl\rtos\FreeRTOS\9.0.0\Source/list.c **** 
   5:Generated_Source\PSoC6\pdl\rtos\FreeRTOS\9.0.0\Source/list.c ****     VISIT http://www.FreeRTOS.org TO ENSURE YOU ARE USING THE LATEST VERSION.
   6:Generated_Source\PSoC6\pdl\rtos\FreeRTOS\9.0.0\Source/list.c **** 
   7:Generated_Source\PSoC6\pdl\rtos\FreeRTOS\9.0.0\Source/list.c ****     This file is part of the FreeRTOS distribution.
   8:Generated_Source\PSoC6\pdl\rtos\FreeRTOS\9.0.0\Source/list.c **** 
   9:Generated_Source\PSoC6\pdl\rtos\FreeRTOS\9.0.0\Source/list.c ****     FreeRTOS is free software; you can redistribute it and/or modify it under
  10:Generated_Source\PSoC6\pdl\rtos\FreeRTOS\9.0.0\Source/list.c ****     the terms of the GNU General Public License (version 2) as published by the
  11:Generated_Source\PSoC6\pdl\rtos\FreeRTOS\9.0.0\Source/list.c ****     Free Software Foundation >>>> AND MODIFIED BY <<<< the FreeRTOS exception.
  12:Generated_Source\PSoC6\pdl\rtos\FreeRTOS\9.0.0\Source/list.c **** 
  13:Generated_Source\PSoC6\pdl\rtos\FreeRTOS\9.0.0\Source/list.c ****     ***************************************************************************
  14:Generated_Source\PSoC6\pdl\rtos\FreeRTOS\9.0.0\Source/list.c ****     >>!   NOTE: The modification to the GPL is included to allow you to     !<<
  15:Generated_Source\PSoC6\pdl\rtos\FreeRTOS\9.0.0\Source/list.c ****     >>!   distribute a combined work that includes FreeRTOS without being   !<<
  16:Generated_Source\PSoC6\pdl\rtos\FreeRTOS\9.0.0\Source/list.c ****     >>!   obliged to provide the source code for proprietary components     !<<
  17:Generated_Source\PSoC6\pdl\rtos\FreeRTOS\9.0.0\Source/list.c ****     >>!   outside of the FreeRTOS kernel.                                   !<<
  18:Generated_Source\PSoC6\pdl\rtos\FreeRTOS\9.0.0\Source/list.c ****     ***************************************************************************
  19:Generated_Source\PSoC6\pdl\rtos\FreeRTOS\9.0.0\Source/list.c **** 
  20:Generated_Source\PSoC6\pdl\rtos\FreeRTOS\9.0.0\Source/list.c ****     FreeRTOS is distributed in the hope that it will be useful, but WITHOUT ANY
  21:Generated_Source\PSoC6\pdl\rtos\FreeRTOS\9.0.0\Source/list.c ****     WARRANTY; without even the implied warranty of MERCHANTABILITY or FITNESS
  22:Generated_Source\PSoC6\pdl\rtos\FreeRTOS\9.0.0\Source/list.c ****     FOR A PARTICULAR PURPOSE.  Full license text is available on the following
  23:Generated_Source\PSoC6\pdl\rtos\FreeRTOS\9.0.0\Source/list.c ****     link: http://www.freertos.org/a00114.html
  24:Generated_Source\PSoC6\pdl\rtos\FreeRTOS\9.0.0\Source/list.c **** 
  25:Generated_Source\PSoC6\pdl\rtos\FreeRTOS\9.0.0\Source/list.c ****     ***************************************************************************
  26:Generated_Source\PSoC6\pdl\rtos\FreeRTOS\9.0.0\Source/list.c ****      *                                                                       *
  27:Generated_Source\PSoC6\pdl\rtos\FreeRTOS\9.0.0\Source/list.c ****      *    FreeRTOS provides completely free yet professionally developed,    *
  28:Generated_Source\PSoC6\pdl\rtos\FreeRTOS\9.0.0\Source/list.c ****      *    robust, strictly quality controlled, supported, and cross          *
  29:Generated_Source\PSoC6\pdl\rtos\FreeRTOS\9.0.0\Source/list.c ****      *    platform software that is more than just the market leader, it     *
ARM GAS  C:\Users\gjl\AppData\Local\Temp\cc4FFmYA.s 			page 2


  30:Generated_Source\PSoC6\pdl\rtos\FreeRTOS\9.0.0\Source/list.c ****      *    is the industry's de facto standard.                               *
  31:Generated_Source\PSoC6\pdl\rtos\FreeRTOS\9.0.0\Source/list.c ****      *                                                                       *
  32:Generated_Source\PSoC6\pdl\rtos\FreeRTOS\9.0.0\Source/list.c ****      *    Help yourself get started quickly while simultaneously helping     *
  33:Generated_Source\PSoC6\pdl\rtos\FreeRTOS\9.0.0\Source/list.c ****      *    to support the FreeRTOS project by purchasing a FreeRTOS           *
  34:Generated_Source\PSoC6\pdl\rtos\FreeRTOS\9.0.0\Source/list.c ****      *    tutorial book, reference manual, or both:                          *
  35:Generated_Source\PSoC6\pdl\rtos\FreeRTOS\9.0.0\Source/list.c ****      *    http://www.FreeRTOS.org/Documentation                              *
  36:Generated_Source\PSoC6\pdl\rtos\FreeRTOS\9.0.0\Source/list.c ****      *                                                                       *
  37:Generated_Source\PSoC6\pdl\rtos\FreeRTOS\9.0.0\Source/list.c ****     ***************************************************************************
  38:Generated_Source\PSoC6\pdl\rtos\FreeRTOS\9.0.0\Source/list.c **** 
  39:Generated_Source\PSoC6\pdl\rtos\FreeRTOS\9.0.0\Source/list.c ****     http://www.FreeRTOS.org/FAQHelp.html - Having a problem?  Start by reading
  40:Generated_Source\PSoC6\pdl\rtos\FreeRTOS\9.0.0\Source/list.c ****     the FAQ page "My application does not run, what could be wrong?".  Have you
  41:Generated_Source\PSoC6\pdl\rtos\FreeRTOS\9.0.0\Source/list.c ****     defined configASSERT()?
  42:Generated_Source\PSoC6\pdl\rtos\FreeRTOS\9.0.0\Source/list.c **** 
  43:Generated_Source\PSoC6\pdl\rtos\FreeRTOS\9.0.0\Source/list.c ****     http://www.FreeRTOS.org/support - In return for receiving this top quality
  44:Generated_Source\PSoC6\pdl\rtos\FreeRTOS\9.0.0\Source/list.c ****     embedded software for free we request you assist our global community by
  45:Generated_Source\PSoC6\pdl\rtos\FreeRTOS\9.0.0\Source/list.c ****     participating in the support forum.
  46:Generated_Source\PSoC6\pdl\rtos\FreeRTOS\9.0.0\Source/list.c **** 
  47:Generated_Source\PSoC6\pdl\rtos\FreeRTOS\9.0.0\Source/list.c ****     http://www.FreeRTOS.org/training - Investing in training allows your team to
  48:Generated_Source\PSoC6\pdl\rtos\FreeRTOS\9.0.0\Source/list.c ****     be as productive as possible as early as possible.  Now you can receive
  49:Generated_Source\PSoC6\pdl\rtos\FreeRTOS\9.0.0\Source/list.c ****     FreeRTOS training directly from Richard Barry, CEO of Real Time Engineers
  50:Generated_Source\PSoC6\pdl\rtos\FreeRTOS\9.0.0\Source/list.c ****     Ltd, and the world's leading authority on the world's leading RTOS.
  51:Generated_Source\PSoC6\pdl\rtos\FreeRTOS\9.0.0\Source/list.c **** 
  52:Generated_Source\PSoC6\pdl\rtos\FreeRTOS\9.0.0\Source/list.c ****     http://www.FreeRTOS.org/plus - A selection of FreeRTOS ecosystem products,
  53:Generated_Source\PSoC6\pdl\rtos\FreeRTOS\9.0.0\Source/list.c ****     including FreeRTOS+Trace - an indispensable productivity tool, a DOS
  54:Generated_Source\PSoC6\pdl\rtos\FreeRTOS\9.0.0\Source/list.c ****     compatible FAT file system, and our tiny thread aware UDP/IP stack.
  55:Generated_Source\PSoC6\pdl\rtos\FreeRTOS\9.0.0\Source/list.c **** 
  56:Generated_Source\PSoC6\pdl\rtos\FreeRTOS\9.0.0\Source/list.c ****     http://www.FreeRTOS.org/labs - Where new FreeRTOS products go to incubate.
  57:Generated_Source\PSoC6\pdl\rtos\FreeRTOS\9.0.0\Source/list.c ****     Come and try FreeRTOS+TCP, our new open source TCP/IP stack for FreeRTOS.
  58:Generated_Source\PSoC6\pdl\rtos\FreeRTOS\9.0.0\Source/list.c **** 
  59:Generated_Source\PSoC6\pdl\rtos\FreeRTOS\9.0.0\Source/list.c ****     http://www.OpenRTOS.com - Real Time Engineers ltd. license FreeRTOS to High
  60:Generated_Source\PSoC6\pdl\rtos\FreeRTOS\9.0.0\Source/list.c ****     Integrity Systems ltd. to sell under the OpenRTOS brand.  Low cost OpenRTOS
  61:Generated_Source\PSoC6\pdl\rtos\FreeRTOS\9.0.0\Source/list.c ****     licenses offer ticketed support, indemnification and commercial middleware.
  62:Generated_Source\PSoC6\pdl\rtos\FreeRTOS\9.0.0\Source/list.c **** 
  63:Generated_Source\PSoC6\pdl\rtos\FreeRTOS\9.0.0\Source/list.c ****     http://www.SafeRTOS.com - High Integrity Systems also provide a safety
  64:Generated_Source\PSoC6\pdl\rtos\FreeRTOS\9.0.0\Source/list.c ****     engineered and independently SIL3 certified version for use in safety and
  65:Generated_Source\PSoC6\pdl\rtos\FreeRTOS\9.0.0\Source/list.c ****     mission critical applications that require provable dependability.
  66:Generated_Source\PSoC6\pdl\rtos\FreeRTOS\9.0.0\Source/list.c **** 
  67:Generated_Source\PSoC6\pdl\rtos\FreeRTOS\9.0.0\Source/list.c ****     1 tab == 4 spaces!
  68:Generated_Source\PSoC6\pdl\rtos\FreeRTOS\9.0.0\Source/list.c **** */
  69:Generated_Source\PSoC6\pdl\rtos\FreeRTOS\9.0.0\Source/list.c **** 
  70:Generated_Source\PSoC6\pdl\rtos\FreeRTOS\9.0.0\Source/list.c **** 
  71:Generated_Source\PSoC6\pdl\rtos\FreeRTOS\9.0.0\Source/list.c **** #include <stdlib.h>
  72:Generated_Source\PSoC6\pdl\rtos\FreeRTOS\9.0.0\Source/list.c **** #include "FreeRTOS.h"
  73:Generated_Source\PSoC6\pdl\rtos\FreeRTOS\9.0.0\Source/list.c **** #include "list.h"
  74:Generated_Source\PSoC6\pdl\rtos\FreeRTOS\9.0.0\Source/list.c **** 
  75:Generated_Source\PSoC6\pdl\rtos\FreeRTOS\9.0.0\Source/list.c **** /*-----------------------------------------------------------
  76:Generated_Source\PSoC6\pdl\rtos\FreeRTOS\9.0.0\Source/list.c ****  * PUBLIC LIST API documented in list.h
  77:Generated_Source\PSoC6\pdl\rtos\FreeRTOS\9.0.0\Source/list.c ****  *----------------------------------------------------------*/
  78:Generated_Source\PSoC6\pdl\rtos\FreeRTOS\9.0.0\Source/list.c **** 
  79:Generated_Source\PSoC6\pdl\rtos\FreeRTOS\9.0.0\Source/list.c **** void vListInitialise( List_t * const pxList )
  80:Generated_Source\PSoC6\pdl\rtos\FreeRTOS\9.0.0\Source/list.c **** {
  29              		.loc 1 80 0
  30              		.cfi_startproc
  31              		@ args = 0, pretend = 0, frame = 0
  32              		@ frame_needed = 0, uses_anonymous_args = 0
  33              		@ link register save eliminated.
  34              	.LVL0:
ARM GAS  C:\Users\gjl\AppData\Local\Temp\cc4FFmYA.s 			page 3


  81:Generated_Source\PSoC6\pdl\rtos\FreeRTOS\9.0.0\Source/list.c **** 	/* The list structure contains a list item which is used to mark the
  82:Generated_Source\PSoC6\pdl\rtos\FreeRTOS\9.0.0\Source/list.c **** 	end of the list.  To initialise the list the list end is inserted
  83:Generated_Source\PSoC6\pdl\rtos\FreeRTOS\9.0.0\Source/list.c **** 	as the only list entry. */
  84:Generated_Source\PSoC6\pdl\rtos\FreeRTOS\9.0.0\Source/list.c **** 	pxList->pxIndex = ( ListItem_t * ) &( pxList->xListEnd );			/*lint !e826 !e740 The mini list struc
  35              		.loc 1 84 0
  36 0000 00F10803 		add	r3, r0, #8
  37 0004 4360     		str	r3, [r0, #4]
  85:Generated_Source\PSoC6\pdl\rtos\FreeRTOS\9.0.0\Source/list.c **** 
  86:Generated_Source\PSoC6\pdl\rtos\FreeRTOS\9.0.0\Source/list.c **** 	/* The list end value is the highest possible value in the list to
  87:Generated_Source\PSoC6\pdl\rtos\FreeRTOS\9.0.0\Source/list.c **** 	ensure it remains at the end of the list. */
  88:Generated_Source\PSoC6\pdl\rtos\FreeRTOS\9.0.0\Source/list.c **** 	pxList->xListEnd.xItemValue = portMAX_DELAY;
  38              		.loc 1 88 0
  39 0006 4FF0FF32 		mov	r2, #-1
  40 000a 8260     		str	r2, [r0, #8]
  89:Generated_Source\PSoC6\pdl\rtos\FreeRTOS\9.0.0\Source/list.c **** 
  90:Generated_Source\PSoC6\pdl\rtos\FreeRTOS\9.0.0\Source/list.c **** 	/* The list end next and previous pointers point to itself so we know
  91:Generated_Source\PSoC6\pdl\rtos\FreeRTOS\9.0.0\Source/list.c **** 	when the list is empty. */
  92:Generated_Source\PSoC6\pdl\rtos\FreeRTOS\9.0.0\Source/list.c **** 	pxList->xListEnd.pxNext = ( ListItem_t * ) &( pxList->xListEnd );	/*lint !e826 !e740 The mini list
  41              		.loc 1 92 0
  42 000c C360     		str	r3, [r0, #12]
  93:Generated_Source\PSoC6\pdl\rtos\FreeRTOS\9.0.0\Source/list.c **** 	pxList->xListEnd.pxPrevious = ( ListItem_t * ) &( pxList->xListEnd );/*lint !e826 !e740 The mini l
  43              		.loc 1 93 0
  44 000e 0361     		str	r3, [r0, #16]
  94:Generated_Source\PSoC6\pdl\rtos\FreeRTOS\9.0.0\Source/list.c **** 
  95:Generated_Source\PSoC6\pdl\rtos\FreeRTOS\9.0.0\Source/list.c **** 	pxList->uxNumberOfItems = ( UBaseType_t ) 0U;
  45              		.loc 1 95 0
  46 0010 0023     		movs	r3, #0
  47 0012 0360     		str	r3, [r0]
  48 0014 7047     		bx	lr
  49              		.cfi_endproc
  50              	.LFE129:
  51              		.size	vListInitialise, .-vListInitialise
  52 0016 00BF     		.section	.text.vListInitialiseItem,"ax",%progbits
  53              		.align	2
  54              		.global	vListInitialiseItem
  55              		.thumb
  56              		.thumb_func
  57              		.type	vListInitialiseItem, %function
  58              	vListInitialiseItem:
  59              	.LFB130:
  96:Generated_Source\PSoC6\pdl\rtos\FreeRTOS\9.0.0\Source/list.c **** 
  97:Generated_Source\PSoC6\pdl\rtos\FreeRTOS\9.0.0\Source/list.c **** 	/* Write known values into the list if
  98:Generated_Source\PSoC6\pdl\rtos\FreeRTOS\9.0.0\Source/list.c **** 	configUSE_LIST_DATA_INTEGRITY_CHECK_BYTES is set to 1. */
  99:Generated_Source\PSoC6\pdl\rtos\FreeRTOS\9.0.0\Source/list.c **** 	listSET_LIST_INTEGRITY_CHECK_1_VALUE( pxList );
 100:Generated_Source\PSoC6\pdl\rtos\FreeRTOS\9.0.0\Source/list.c **** 	listSET_LIST_INTEGRITY_CHECK_2_VALUE( pxList );
 101:Generated_Source\PSoC6\pdl\rtos\FreeRTOS\9.0.0\Source/list.c **** }
 102:Generated_Source\PSoC6\pdl\rtos\FreeRTOS\9.0.0\Source/list.c **** /*-----------------------------------------------------------*/
 103:Generated_Source\PSoC6\pdl\rtos\FreeRTOS\9.0.0\Source/list.c **** 
 104:Generated_Source\PSoC6\pdl\rtos\FreeRTOS\9.0.0\Source/list.c **** void vListInitialiseItem( ListItem_t * const pxItem )
 105:Generated_Source\PSoC6\pdl\rtos\FreeRTOS\9.0.0\Source/list.c **** {
  60              		.loc 1 105 0
  61              		.cfi_startproc
  62              		@ args = 0, pretend = 0, frame = 0
  63              		@ frame_needed = 0, uses_anonymous_args = 0
  64              		@ link register save eliminated.
  65              	.LVL1:
 106:Generated_Source\PSoC6\pdl\rtos\FreeRTOS\9.0.0\Source/list.c **** 	/* Make sure the list item is not recorded as being on a list. */
ARM GAS  C:\Users\gjl\AppData\Local\Temp\cc4FFmYA.s 			page 4


 107:Generated_Source\PSoC6\pdl\rtos\FreeRTOS\9.0.0\Source/list.c **** 	pxItem->pvContainer = NULL;
  66              		.loc 1 107 0
  67 0000 0023     		movs	r3, #0
  68 0002 0361     		str	r3, [r0, #16]
  69 0004 7047     		bx	lr
  70              		.cfi_endproc
  71              	.LFE130:
  72              		.size	vListInitialiseItem, .-vListInitialiseItem
  73 0006 00BF     		.section	.text.vListInsertEnd,"ax",%progbits
  74              		.align	2
  75              		.global	vListInsertEnd
  76              		.thumb
  77              		.thumb_func
  78              		.type	vListInsertEnd, %function
  79              	vListInsertEnd:
  80              	.LFB131:
 108:Generated_Source\PSoC6\pdl\rtos\FreeRTOS\9.0.0\Source/list.c **** 
 109:Generated_Source\PSoC6\pdl\rtos\FreeRTOS\9.0.0\Source/list.c **** 	/* Write known values into the list item if
 110:Generated_Source\PSoC6\pdl\rtos\FreeRTOS\9.0.0\Source/list.c **** 	configUSE_LIST_DATA_INTEGRITY_CHECK_BYTES is set to 1. */
 111:Generated_Source\PSoC6\pdl\rtos\FreeRTOS\9.0.0\Source/list.c **** 	listSET_FIRST_LIST_ITEM_INTEGRITY_CHECK_VALUE( pxItem );
 112:Generated_Source\PSoC6\pdl\rtos\FreeRTOS\9.0.0\Source/list.c **** 	listSET_SECOND_LIST_ITEM_INTEGRITY_CHECK_VALUE( pxItem );
 113:Generated_Source\PSoC6\pdl\rtos\FreeRTOS\9.0.0\Source/list.c **** }
 114:Generated_Source\PSoC6\pdl\rtos\FreeRTOS\9.0.0\Source/list.c **** /*-----------------------------------------------------------*/
 115:Generated_Source\PSoC6\pdl\rtos\FreeRTOS\9.0.0\Source/list.c **** 
 116:Generated_Source\PSoC6\pdl\rtos\FreeRTOS\9.0.0\Source/list.c **** void vListInsertEnd( List_t * const pxList, ListItem_t * const pxNewListItem )
 117:Generated_Source\PSoC6\pdl\rtos\FreeRTOS\9.0.0\Source/list.c **** {
  81              		.loc 1 117 0
  82              		.cfi_startproc
  83              		@ args = 0, pretend = 0, frame = 0
  84              		@ frame_needed = 0, uses_anonymous_args = 0
  85              		@ link register save eliminated.
  86              	.LVL2:
 118:Generated_Source\PSoC6\pdl\rtos\FreeRTOS\9.0.0\Source/list.c **** ListItem_t * const pxIndex = pxList->pxIndex;
  87              		.loc 1 118 0
  88 0000 4368     		ldr	r3, [r0, #4]
  89              	.LVL3:
 119:Generated_Source\PSoC6\pdl\rtos\FreeRTOS\9.0.0\Source/list.c **** 
 120:Generated_Source\PSoC6\pdl\rtos\FreeRTOS\9.0.0\Source/list.c **** 	/* Only effective when configASSERT() is also defined, these tests may catch
 121:Generated_Source\PSoC6\pdl\rtos\FreeRTOS\9.0.0\Source/list.c **** 	the list data structures being overwritten in memory.  They will not catch
 122:Generated_Source\PSoC6\pdl\rtos\FreeRTOS\9.0.0\Source/list.c **** 	data errors caused by incorrect configuration or use of FreeRTOS. */
 123:Generated_Source\PSoC6\pdl\rtos\FreeRTOS\9.0.0\Source/list.c **** 	listTEST_LIST_INTEGRITY( pxList );
 124:Generated_Source\PSoC6\pdl\rtos\FreeRTOS\9.0.0\Source/list.c **** 	listTEST_LIST_ITEM_INTEGRITY( pxNewListItem );
 125:Generated_Source\PSoC6\pdl\rtos\FreeRTOS\9.0.0\Source/list.c **** 
 126:Generated_Source\PSoC6\pdl\rtos\FreeRTOS\9.0.0\Source/list.c **** 	/* Insert a new list item into pxList, but rather than sort the list,
 127:Generated_Source\PSoC6\pdl\rtos\FreeRTOS\9.0.0\Source/list.c **** 	makes the new list item the last item to be removed by a call to
 128:Generated_Source\PSoC6\pdl\rtos\FreeRTOS\9.0.0\Source/list.c **** 	listGET_OWNER_OF_NEXT_ENTRY(). */
 129:Generated_Source\PSoC6\pdl\rtos\FreeRTOS\9.0.0\Source/list.c **** 	pxNewListItem->pxNext = pxIndex;
  90              		.loc 1 129 0
  91 0002 4B60     		str	r3, [r1, #4]
 130:Generated_Source\PSoC6\pdl\rtos\FreeRTOS\9.0.0\Source/list.c **** 	pxNewListItem->pxPrevious = pxIndex->pxPrevious;
  92              		.loc 1 130 0
  93 0004 9A68     		ldr	r2, [r3, #8]
  94 0006 8A60     		str	r2, [r1, #8]
 131:Generated_Source\PSoC6\pdl\rtos\FreeRTOS\9.0.0\Source/list.c **** 
 132:Generated_Source\PSoC6\pdl\rtos\FreeRTOS\9.0.0\Source/list.c **** 	/* Only used during decision coverage testing. */
 133:Generated_Source\PSoC6\pdl\rtos\FreeRTOS\9.0.0\Source/list.c **** 	mtCOVERAGE_TEST_DELAY();
 134:Generated_Source\PSoC6\pdl\rtos\FreeRTOS\9.0.0\Source/list.c **** 
ARM GAS  C:\Users\gjl\AppData\Local\Temp\cc4FFmYA.s 			page 5


 135:Generated_Source\PSoC6\pdl\rtos\FreeRTOS\9.0.0\Source/list.c **** 	pxIndex->pxPrevious->pxNext = pxNewListItem;
  95              		.loc 1 135 0
  96 0008 9A68     		ldr	r2, [r3, #8]
  97 000a 5160     		str	r1, [r2, #4]
 136:Generated_Source\PSoC6\pdl\rtos\FreeRTOS\9.0.0\Source/list.c **** 	pxIndex->pxPrevious = pxNewListItem;
  98              		.loc 1 136 0
  99 000c 9960     		str	r1, [r3, #8]
 137:Generated_Source\PSoC6\pdl\rtos\FreeRTOS\9.0.0\Source/list.c **** 
 138:Generated_Source\PSoC6\pdl\rtos\FreeRTOS\9.0.0\Source/list.c **** 	/* Remember which list the item is in. */
 139:Generated_Source\PSoC6\pdl\rtos\FreeRTOS\9.0.0\Source/list.c **** 	pxNewListItem->pvContainer = ( void * ) pxList;
 100              		.loc 1 139 0
 101 000e 0861     		str	r0, [r1, #16]
 140:Generated_Source\PSoC6\pdl\rtos\FreeRTOS\9.0.0\Source/list.c **** 
 141:Generated_Source\PSoC6\pdl\rtos\FreeRTOS\9.0.0\Source/list.c **** 	( pxList->uxNumberOfItems )++;
 102              		.loc 1 141 0
 103 0010 0368     		ldr	r3, [r0]
 104              	.LVL4:
 105 0012 0133     		adds	r3, r3, #1
 106 0014 0360     		str	r3, [r0]
 107 0016 7047     		bx	lr
 108              		.cfi_endproc
 109              	.LFE131:
 110              		.size	vListInsertEnd, .-vListInsertEnd
 111              		.section	.text.vListInsert,"ax",%progbits
 112              		.align	2
 113              		.global	vListInsert
 114              		.thumb
 115              		.thumb_func
 116              		.type	vListInsert, %function
 117              	vListInsert:
 118              	.LFB132:
 142:Generated_Source\PSoC6\pdl\rtos\FreeRTOS\9.0.0\Source/list.c **** }
 143:Generated_Source\PSoC6\pdl\rtos\FreeRTOS\9.0.0\Source/list.c **** /*-----------------------------------------------------------*/
 144:Generated_Source\PSoC6\pdl\rtos\FreeRTOS\9.0.0\Source/list.c **** 
 145:Generated_Source\PSoC6\pdl\rtos\FreeRTOS\9.0.0\Source/list.c **** void vListInsert( List_t * const pxList, ListItem_t * const pxNewListItem )
 146:Generated_Source\PSoC6\pdl\rtos\FreeRTOS\9.0.0\Source/list.c **** {
 119              		.loc 1 146 0
 120              		.cfi_startproc
 121              		@ args = 0, pretend = 0, frame = 0
 122              		@ frame_needed = 0, uses_anonymous_args = 0
 123              		@ link register save eliminated.
 124              	.LVL5:
 125 0000 30B4     		push	{r4, r5}
 126              		.cfi_def_cfa_offset 8
 127              		.cfi_offset 4, -8
 128              		.cfi_offset 5, -4
 147:Generated_Source\PSoC6\pdl\rtos\FreeRTOS\9.0.0\Source/list.c **** ListItem_t *pxIterator;
 148:Generated_Source\PSoC6\pdl\rtos\FreeRTOS\9.0.0\Source/list.c **** const TickType_t xValueOfInsertion = pxNewListItem->xItemValue;
 129              		.loc 1 148 0
 130 0002 0D68     		ldr	r5, [r1]
 131              	.LVL6:
 149:Generated_Source\PSoC6\pdl\rtos\FreeRTOS\9.0.0\Source/list.c **** 
 150:Generated_Source\PSoC6\pdl\rtos\FreeRTOS\9.0.0\Source/list.c **** 	/* Only effective when configASSERT() is also defined, these tests may catch
 151:Generated_Source\PSoC6\pdl\rtos\FreeRTOS\9.0.0\Source/list.c **** 	the list data structures being overwritten in memory.  They will not catch
 152:Generated_Source\PSoC6\pdl\rtos\FreeRTOS\9.0.0\Source/list.c **** 	data errors caused by incorrect configuration or use of FreeRTOS. */
 153:Generated_Source\PSoC6\pdl\rtos\FreeRTOS\9.0.0\Source/list.c **** 	listTEST_LIST_INTEGRITY( pxList );
 154:Generated_Source\PSoC6\pdl\rtos\FreeRTOS\9.0.0\Source/list.c **** 	listTEST_LIST_ITEM_INTEGRITY( pxNewListItem );
ARM GAS  C:\Users\gjl\AppData\Local\Temp\cc4FFmYA.s 			page 6


 155:Generated_Source\PSoC6\pdl\rtos\FreeRTOS\9.0.0\Source/list.c **** 
 156:Generated_Source\PSoC6\pdl\rtos\FreeRTOS\9.0.0\Source/list.c **** 	/* Insert the new list item into the list, sorted in xItemValue order.
 157:Generated_Source\PSoC6\pdl\rtos\FreeRTOS\9.0.0\Source/list.c **** 
 158:Generated_Source\PSoC6\pdl\rtos\FreeRTOS\9.0.0\Source/list.c **** 	If the list already contains a list item with the same item value then the
 159:Generated_Source\PSoC6\pdl\rtos\FreeRTOS\9.0.0\Source/list.c **** 	new list item should be placed after it.  This ensures that TCB's which are
 160:Generated_Source\PSoC6\pdl\rtos\FreeRTOS\9.0.0\Source/list.c **** 	stored in ready lists (all of which have the same xItemValue value) get a
 161:Generated_Source\PSoC6\pdl\rtos\FreeRTOS\9.0.0\Source/list.c **** 	share of the CPU.  However, if the xItemValue is the same as the back marker
 162:Generated_Source\PSoC6\pdl\rtos\FreeRTOS\9.0.0\Source/list.c **** 	the iteration loop below will not end.  Therefore the value is checked
 163:Generated_Source\PSoC6\pdl\rtos\FreeRTOS\9.0.0\Source/list.c **** 	first, and the algorithm slightly modified if necessary. */
 164:Generated_Source\PSoC6\pdl\rtos\FreeRTOS\9.0.0\Source/list.c **** 	if( xValueOfInsertion == portMAX_DELAY )
 132              		.loc 1 164 0
 133 0004 B5F1FF3F 		cmp	r5, #-1
 134 0008 01D1     		bne	.L5
 165:Generated_Source\PSoC6\pdl\rtos\FreeRTOS\9.0.0\Source/list.c **** 	{
 166:Generated_Source\PSoC6\pdl\rtos\FreeRTOS\9.0.0\Source/list.c **** 		pxIterator = pxList->xListEnd.pxPrevious;
 135              		.loc 1 166 0
 136 000a 0269     		ldr	r2, [r0, #16]
 137              	.LVL7:
 138 000c 07E0     		b	.L6
 139              	.LVL8:
 140              	.L5:
 167:Generated_Source\PSoC6\pdl\rtos\FreeRTOS\9.0.0\Source/list.c **** 	}
 168:Generated_Source\PSoC6\pdl\rtos\FreeRTOS\9.0.0\Source/list.c **** 	else
 169:Generated_Source\PSoC6\pdl\rtos\FreeRTOS\9.0.0\Source/list.c **** 	{
 170:Generated_Source\PSoC6\pdl\rtos\FreeRTOS\9.0.0\Source/list.c **** 		/* *** NOTE ***********************************************************
 171:Generated_Source\PSoC6\pdl\rtos\FreeRTOS\9.0.0\Source/list.c **** 		If you find your application is crashing here then likely causes are
 172:Generated_Source\PSoC6\pdl\rtos\FreeRTOS\9.0.0\Source/list.c **** 		listed below.  In addition see http://www.freertos.org/FAQHelp.html for
 173:Generated_Source\PSoC6\pdl\rtos\FreeRTOS\9.0.0\Source/list.c **** 		more tips, and ensure configASSERT() is defined!
 174:Generated_Source\PSoC6\pdl\rtos\FreeRTOS\9.0.0\Source/list.c **** 		http://www.freertos.org/a00110.html#configASSERT
 175:Generated_Source\PSoC6\pdl\rtos\FreeRTOS\9.0.0\Source/list.c **** 
 176:Generated_Source\PSoC6\pdl\rtos\FreeRTOS\9.0.0\Source/list.c **** 			1) Stack overflow -
 177:Generated_Source\PSoC6\pdl\rtos\FreeRTOS\9.0.0\Source/list.c **** 			   see http://www.freertos.org/Stacks-and-stack-overflow-checking.html
 178:Generated_Source\PSoC6\pdl\rtos\FreeRTOS\9.0.0\Source/list.c **** 			2) Incorrect interrupt priority assignment, especially on Cortex-M
 179:Generated_Source\PSoC6\pdl\rtos\FreeRTOS\9.0.0\Source/list.c **** 			   parts where numerically high priority values denote low actual
 180:Generated_Source\PSoC6\pdl\rtos\FreeRTOS\9.0.0\Source/list.c **** 			   interrupt priorities, which can seem counter intuitive.  See
 181:Generated_Source\PSoC6\pdl\rtos\FreeRTOS\9.0.0\Source/list.c **** 			   http://www.freertos.org/RTOS-Cortex-M3-M4.html and the definition
 182:Generated_Source\PSoC6\pdl\rtos\FreeRTOS\9.0.0\Source/list.c **** 			   of configMAX_SYSCALL_INTERRUPT_PRIORITY on
 183:Generated_Source\PSoC6\pdl\rtos\FreeRTOS\9.0.0\Source/list.c **** 			   http://www.freertos.org/a00110.html
 184:Generated_Source\PSoC6\pdl\rtos\FreeRTOS\9.0.0\Source/list.c **** 			3) Calling an API function from within a critical section or when
 185:Generated_Source\PSoC6\pdl\rtos\FreeRTOS\9.0.0\Source/list.c **** 			   the scheduler is suspended, or calling an API function that does
 186:Generated_Source\PSoC6\pdl\rtos\FreeRTOS\9.0.0\Source/list.c **** 			   not end in "FromISR" from an interrupt.
 187:Generated_Source\PSoC6\pdl\rtos\FreeRTOS\9.0.0\Source/list.c **** 			4) Using a queue or semaphore before it has been initialised or
 188:Generated_Source\PSoC6\pdl\rtos\FreeRTOS\9.0.0\Source/list.c **** 			   before the scheduler has been started (are interrupts firing
 189:Generated_Source\PSoC6\pdl\rtos\FreeRTOS\9.0.0\Source/list.c **** 			   before vTaskStartScheduler() has been called?).
 190:Generated_Source\PSoC6\pdl\rtos\FreeRTOS\9.0.0\Source/list.c **** 		**********************************************************************/
 191:Generated_Source\PSoC6\pdl\rtos\FreeRTOS\9.0.0\Source/list.c **** 
 192:Generated_Source\PSoC6\pdl\rtos\FreeRTOS\9.0.0\Source/list.c **** 		for( pxIterator = ( ListItem_t * ) &( pxList->xListEnd ); pxIterator->pxNext->xItemValue <= xValu
 141              		.loc 1 192 0
 142 000e 00F10802 		add	r2, r0, #8
 143              	.LVL9:
 144 0012 00E0     		b	.L7
 145              	.L8:
 146 0014 1A46     		mov	r2, r3
 147              	.LVL10:
 148              	.L7:
 149              		.loc 1 192 0 is_stmt 0 discriminator 1
 150 0016 5368     		ldr	r3, [r2, #4]
ARM GAS  C:\Users\gjl\AppData\Local\Temp\cc4FFmYA.s 			page 7


 151 0018 1C68     		ldr	r4, [r3]
 152 001a A542     		cmp	r5, r4
 153 001c FAD2     		bcs	.L8
 154              	.L6:
 193:Generated_Source\PSoC6\pdl\rtos\FreeRTOS\9.0.0\Source/list.c **** 		{
 194:Generated_Source\PSoC6\pdl\rtos\FreeRTOS\9.0.0\Source/list.c **** 			/* There is nothing to do here, just iterating to the wanted
 195:Generated_Source\PSoC6\pdl\rtos\FreeRTOS\9.0.0\Source/list.c **** 			insertion position. */
 196:Generated_Source\PSoC6\pdl\rtos\FreeRTOS\9.0.0\Source/list.c **** 		}
 197:Generated_Source\PSoC6\pdl\rtos\FreeRTOS\9.0.0\Source/list.c **** 	}
 198:Generated_Source\PSoC6\pdl\rtos\FreeRTOS\9.0.0\Source/list.c **** 
 199:Generated_Source\PSoC6\pdl\rtos\FreeRTOS\9.0.0\Source/list.c **** 	pxNewListItem->pxNext = pxIterator->pxNext;
 155              		.loc 1 199 0 is_stmt 1
 156 001e 5368     		ldr	r3, [r2, #4]
 157 0020 4B60     		str	r3, [r1, #4]
 200:Generated_Source\PSoC6\pdl\rtos\FreeRTOS\9.0.0\Source/list.c **** 	pxNewListItem->pxNext->pxPrevious = pxNewListItem;
 158              		.loc 1 200 0
 159 0022 9960     		str	r1, [r3, #8]
 201:Generated_Source\PSoC6\pdl\rtos\FreeRTOS\9.0.0\Source/list.c **** 	pxNewListItem->pxPrevious = pxIterator;
 160              		.loc 1 201 0
 161 0024 8A60     		str	r2, [r1, #8]
 202:Generated_Source\PSoC6\pdl\rtos\FreeRTOS\9.0.0\Source/list.c **** 	pxIterator->pxNext = pxNewListItem;
 162              		.loc 1 202 0
 163 0026 5160     		str	r1, [r2, #4]
 203:Generated_Source\PSoC6\pdl\rtos\FreeRTOS\9.0.0\Source/list.c **** 
 204:Generated_Source\PSoC6\pdl\rtos\FreeRTOS\9.0.0\Source/list.c **** 	/* Remember which list the item is in.  This allows fast removal of the
 205:Generated_Source\PSoC6\pdl\rtos\FreeRTOS\9.0.0\Source/list.c **** 	item later. */
 206:Generated_Source\PSoC6\pdl\rtos\FreeRTOS\9.0.0\Source/list.c **** 	pxNewListItem->pvContainer = ( void * ) pxList;
 164              		.loc 1 206 0
 165 0028 0861     		str	r0, [r1, #16]
 207:Generated_Source\PSoC6\pdl\rtos\FreeRTOS\9.0.0\Source/list.c **** 
 208:Generated_Source\PSoC6\pdl\rtos\FreeRTOS\9.0.0\Source/list.c **** 	( pxList->uxNumberOfItems )++;
 166              		.loc 1 208 0
 167 002a 0368     		ldr	r3, [r0]
 168 002c 0133     		adds	r3, r3, #1
 169 002e 0360     		str	r3, [r0]
 209:Generated_Source\PSoC6\pdl\rtos\FreeRTOS\9.0.0\Source/list.c **** }
 170              		.loc 1 209 0
 171 0030 30BC     		pop	{r4, r5}
 172              		.cfi_restore 5
 173              		.cfi_restore 4
 174              		.cfi_def_cfa_offset 0
 175              	.LVL11:
 176 0032 7047     		bx	lr
 177              		.cfi_endproc
 178              	.LFE132:
 179              		.size	vListInsert, .-vListInsert
 180              		.section	.text.uxListRemove,"ax",%progbits
 181              		.align	2
 182              		.global	uxListRemove
 183              		.thumb
 184              		.thumb_func
 185              		.type	uxListRemove, %function
 186              	uxListRemove:
 187              	.LFB133:
 210:Generated_Source\PSoC6\pdl\rtos\FreeRTOS\9.0.0\Source/list.c **** /*-----------------------------------------------------------*/
 211:Generated_Source\PSoC6\pdl\rtos\FreeRTOS\9.0.0\Source/list.c **** 
 212:Generated_Source\PSoC6\pdl\rtos\FreeRTOS\9.0.0\Source/list.c **** UBaseType_t uxListRemove( ListItem_t * const pxItemToRemove )
ARM GAS  C:\Users\gjl\AppData\Local\Temp\cc4FFmYA.s 			page 8


 213:Generated_Source\PSoC6\pdl\rtos\FreeRTOS\9.0.0\Source/list.c **** {
 188              		.loc 1 213 0
 189              		.cfi_startproc
 190              		@ args = 0, pretend = 0, frame = 0
 191              		@ frame_needed = 0, uses_anonymous_args = 0
 192              		@ link register save eliminated.
 193              	.LVL12:
 214:Generated_Source\PSoC6\pdl\rtos\FreeRTOS\9.0.0\Source/list.c **** /* The list item knows which list it is in.  Obtain the list from the list
 215:Generated_Source\PSoC6\pdl\rtos\FreeRTOS\9.0.0\Source/list.c **** item. */
 216:Generated_Source\PSoC6\pdl\rtos\FreeRTOS\9.0.0\Source/list.c **** List_t * const pxList = ( List_t * ) pxItemToRemove->pvContainer;
 194              		.loc 1 216 0
 195 0000 0369     		ldr	r3, [r0, #16]
 196              	.LVL13:
 217:Generated_Source\PSoC6\pdl\rtos\FreeRTOS\9.0.0\Source/list.c **** 
 218:Generated_Source\PSoC6\pdl\rtos\FreeRTOS\9.0.0\Source/list.c **** 	pxItemToRemove->pxNext->pxPrevious = pxItemToRemove->pxPrevious;
 197              		.loc 1 218 0
 198 0002 4268     		ldr	r2, [r0, #4]
 199 0004 8168     		ldr	r1, [r0, #8]
 200 0006 9160     		str	r1, [r2, #8]
 219:Generated_Source\PSoC6\pdl\rtos\FreeRTOS\9.0.0\Source/list.c **** 	pxItemToRemove->pxPrevious->pxNext = pxItemToRemove->pxNext;
 201              		.loc 1 219 0
 202 0008 8268     		ldr	r2, [r0, #8]
 203 000a 4168     		ldr	r1, [r0, #4]
 204 000c 5160     		str	r1, [r2, #4]
 220:Generated_Source\PSoC6\pdl\rtos\FreeRTOS\9.0.0\Source/list.c **** 
 221:Generated_Source\PSoC6\pdl\rtos\FreeRTOS\9.0.0\Source/list.c **** 	/* Only used during decision coverage testing. */
 222:Generated_Source\PSoC6\pdl\rtos\FreeRTOS\9.0.0\Source/list.c **** 	mtCOVERAGE_TEST_DELAY();
 223:Generated_Source\PSoC6\pdl\rtos\FreeRTOS\9.0.0\Source/list.c **** 
 224:Generated_Source\PSoC6\pdl\rtos\FreeRTOS\9.0.0\Source/list.c **** 	/* Make sure the index is left pointing to a valid item. */
 225:Generated_Source\PSoC6\pdl\rtos\FreeRTOS\9.0.0\Source/list.c **** 	if( pxList->pxIndex == pxItemToRemove )
 205              		.loc 1 225 0
 206 000e 5A68     		ldr	r2, [r3, #4]
 207 0010 9042     		cmp	r0, r2
 208 0012 01D1     		bne	.L11
 226:Generated_Source\PSoC6\pdl\rtos\FreeRTOS\9.0.0\Source/list.c **** 	{
 227:Generated_Source\PSoC6\pdl\rtos\FreeRTOS\9.0.0\Source/list.c **** 		pxList->pxIndex = pxItemToRemove->pxPrevious;
 209              		.loc 1 227 0
 210 0014 8268     		ldr	r2, [r0, #8]
 211 0016 5A60     		str	r2, [r3, #4]
 212              	.L11:
 228:Generated_Source\PSoC6\pdl\rtos\FreeRTOS\9.0.0\Source/list.c **** 	}
 229:Generated_Source\PSoC6\pdl\rtos\FreeRTOS\9.0.0\Source/list.c **** 	else
 230:Generated_Source\PSoC6\pdl\rtos\FreeRTOS\9.0.0\Source/list.c **** 	{
 231:Generated_Source\PSoC6\pdl\rtos\FreeRTOS\9.0.0\Source/list.c **** 		mtCOVERAGE_TEST_MARKER();
 232:Generated_Source\PSoC6\pdl\rtos\FreeRTOS\9.0.0\Source/list.c **** 	}
 233:Generated_Source\PSoC6\pdl\rtos\FreeRTOS\9.0.0\Source/list.c **** 
 234:Generated_Source\PSoC6\pdl\rtos\FreeRTOS\9.0.0\Source/list.c **** 	pxItemToRemove->pvContainer = NULL;
 213              		.loc 1 234 0
 214 0018 0022     		movs	r2, #0
 215 001a 0261     		str	r2, [r0, #16]
 235:Generated_Source\PSoC6\pdl\rtos\FreeRTOS\9.0.0\Source/list.c **** 	( pxList->uxNumberOfItems )--;
 216              		.loc 1 235 0
 217 001c 1868     		ldr	r0, [r3]
 218              	.LVL14:
 219 001e 0138     		subs	r0, r0, #1
 220 0020 1860     		str	r0, [r3]
 236:Generated_Source\PSoC6\pdl\rtos\FreeRTOS\9.0.0\Source/list.c **** 
ARM GAS  C:\Users\gjl\AppData\Local\Temp\cc4FFmYA.s 			page 9


 237:Generated_Source\PSoC6\pdl\rtos\FreeRTOS\9.0.0\Source/list.c **** 	return pxList->uxNumberOfItems;
 238:Generated_Source\PSoC6\pdl\rtos\FreeRTOS\9.0.0\Source/list.c **** }
 221              		.loc 1 238 0
 222 0022 7047     		bx	lr
 223              		.cfi_endproc
 224              	.LFE133:
 225              		.size	uxListRemove, .-uxListRemove
 226              		.text
 227              	.Letext0:
 228              		.file 2 "c:\\program files (x86)\\cypress\\psoc creator\\4.2\\psoc creator\\import\\gnu\\arm\\5.4.
 229              		.file 3 "c:\\program files (x86)\\cypress\\psoc creator\\4.2\\psoc creator\\import\\gnu\\arm\\5.4.
 230              		.file 4 "Generated_Source\\PSoC6\\pdl\\rtos/FreeRTOS/9.0.0/Source/portable/GCC/CM4F/portmacro.h"
 231              		.file 5 "Generated_Source\\PSoC6\\pdl\\rtos/FreeRTOS/9.0.0/Source/include/list.h"
 232              		.file 6 "Generated_Source\\PSoC6\\pdl\\cmsis/include/core_cm4.h"