ARM GAS  C:\Users\gjl\AppData\Local\Temp\ccftWUNf.s 			page 1


   1              		.syntax unified
   2              		.cpu cortex-m4
   3              		.eabi_attribute 27, 1
   4              		.fpu fpv4-sp-d16
   5              		.eabi_attribute 20, 1
   6              		.eabi_attribute 21, 1
   7              		.eabi_attribute 23, 3
   8              		.eabi_attribute 24, 1
   9              		.eabi_attribute 25, 1
  10              		.eabi_attribute 26, 1
  11              		.eabi_attribute 30, 1
  12              		.eabi_attribute 34, 1
  13              		.eabi_attribute 18, 4
  14              		.thumb
  15              		.syntax unified
  16              		.file	"cy_ipc_config.c"
  17              		.text
  18              	.Ltext0:
  19              		.cfi_sections	.debug_frame
  20              		.section	.text.cpuss_interrupts_ipc_4_IRQHandler,"ax",%progbits
  21              		.align	2
  22              		.global	cpuss_interrupts_ipc_4_IRQHandler
  23              		.thumb
  24              		.thumb_func
  25              		.type	cpuss_interrupts_ipc_4_IRQHandler, %function
  26              	cpuss_interrupts_ipc_4_IRQHandler:
  27              	.LFB149:
  28              		.file 1 "cy_ipc_config.c"
   1:cy_ipc_config.c **** /***************************************************************************//**
   2:cy_ipc_config.c **** * \file cy_ipc_config.c
   3:cy_ipc_config.c **** * \version 1.10.1
   4:cy_ipc_config.c **** *
   5:cy_ipc_config.c **** *  Description:
   6:cy_ipc_config.c **** *  This C file is not intended to be part of the IPC driver. It is the code
   7:cy_ipc_config.c **** *  required to configure the device specific IPC channels for semaphores
   8:cy_ipc_config.c **** *  and pipes.
   9:cy_ipc_config.c **** *
  10:cy_ipc_config.c **** ********************************************************************************
  11:cy_ipc_config.c **** * Copyright 2016-2018, Cypress Semiconductor Corporation.  All rights reserved.
  12:cy_ipc_config.c **** * You may use this file only in accordance with the license, terms, conditions,
  13:cy_ipc_config.c **** * disclaimers, and limitations in the end user license agreement accompanying
  14:cy_ipc_config.c **** * the software package with which this file was provided.
  15:cy_ipc_config.c **** *******************************************************************************/
  16:cy_ipc_config.c **** 
  17:cy_ipc_config.c **** #include "ipc/cy_ipc_drv.h"
  18:cy_ipc_config.c **** #include "ipc/cy_ipc_pipe.h"
  19:cy_ipc_config.c **** #include "ipc/cy_ipc_sema.h"
  20:cy_ipc_config.c **** 
  21:cy_ipc_config.c **** #include "cy_ipc_config.h"
  22:cy_ipc_config.c **** 
  23:cy_ipc_config.c **** /* Create an array of endpoint structures */
  24:cy_ipc_config.c **** static cy_stc_ipc_pipe_ep_t        cy_ipc_pipe_sysEpArray[CY_IPC_MAX_ENDPOINTS];
  25:cy_ipc_config.c **** 
  26:cy_ipc_config.c **** #define CY_CYPIPE_DEFAULT_CONFIG    \
  27:cy_ipc_config.c **** {\
  28:cy_ipc_config.c ****     /* .ep0ConfigData */ {\
  29:cy_ipc_config.c ****         /* .ipcNotifierNumber    */  CY_IPC_INTR_CYPIPE_EP0,\
ARM GAS  C:\Users\gjl\AppData\Local\Temp\ccftWUNf.s 			page 2


  30:cy_ipc_config.c ****         /* .ipcNotifierPriority  */  CY_IPC_INTR_CYPIPE_PRIOR_EP0,\
  31:cy_ipc_config.c ****         /* .ipcNotifierMuxNumber */  CY_IPC_INTR_CYPIPE_MUX_EP0,\
  32:cy_ipc_config.c ****         /* .epAddress            */  CY_IPC_EP_CYPIPE_CM0_ADDR,\
  33:cy_ipc_config.c ****         /* .epConfig             */  CY_IPC_CYPIPE_CONFIG_EP0\
  34:cy_ipc_config.c ****     },\
  35:cy_ipc_config.c ****     /* .ep1ConfigData */ {\
  36:cy_ipc_config.c ****         /* .ipcNotifierNumber    */  CY_IPC_INTR_CYPIPE_EP1,\
  37:cy_ipc_config.c ****         /* .ipcNotifierPriority  */  CY_IPC_INTR_CYPIPE_PRIOR_EP1,\
  38:cy_ipc_config.c ****         /* .ipcNotifierMuxNumber */  0u,\
  39:cy_ipc_config.c ****         /* .epAddress            */  CY_IPC_EP_CYPIPE_CM4_ADDR,\
  40:cy_ipc_config.c ****         /* .epConfig             */  CY_IPC_CYPIPE_CONFIG_EP1\
  41:cy_ipc_config.c ****     },\
  42:cy_ipc_config.c ****     /* .endpointClientsCount     */  CY_IPC_CYPIPE_CLIENT_CNT,\
  43:cy_ipc_config.c ****     /* .endpointsCallbacksArray  */  cy_ipc_pipe_sysCbArray,\
  44:cy_ipc_config.c ****     /* .userPipeIsrHandler       */  &Cy_IPC_SystemPipeIsr\
  45:cy_ipc_config.c **** }
  46:cy_ipc_config.c **** 
  47:cy_ipc_config.c **** /*******************************************************************************
  48:cy_ipc_config.c **** * Function Name: Cy_IPC_SystemSemaInit
  49:cy_ipc_config.c **** ****************************************************************************//**
  50:cy_ipc_config.c **** *
  51:cy_ipc_config.c **** * Initializes the system semaphores. The system semaphores are used by Flash.
  52:cy_ipc_config.c **** *
  53:cy_ipc_config.c **** * This function is called in the SystemInit() function. If the default startup
  54:cy_ipc_config.c **** * file is not used, or SystemInit() is not called in your project,
  55:cy_ipc_config.c **** * call the following three functions prior to executing any flash or EmEEPROM
  56:cy_ipc_config.c **** * write or erase operation:
  57:cy_ipc_config.c **** *  -# Cy_IPC_SystemSemaInit()
  58:cy_ipc_config.c **** *  -# Cy_IPC_SystemPipeInit()
  59:cy_ipc_config.c **** *  -# Cy_Flash_Init()
  60:cy_ipc_config.c **** *
  61:cy_ipc_config.c **** *******************************************************************************/
  62:cy_ipc_config.c **** void Cy_IPC_SystemSemaInit(void)
  63:cy_ipc_config.c **** {
  64:cy_ipc_config.c **** /* Create array used for semaphores */
  65:cy_ipc_config.c **** #if !(CY_CPU_CORTEX_M0P)
  66:cy_ipc_config.c ****     (void) Cy_IPC_Sema_Init(CY_IPC_CHAN_SEMA, 0ul, NULL);
  67:cy_ipc_config.c **** #else
  68:cy_ipc_config.c ****     static uint32_t ipcSemaArray[CY_IPC_SEMA_COUNT / CY_IPC_SEMA_PER_WORD];
  69:cy_ipc_config.c ****     (void) Cy_IPC_Sema_Init(CY_IPC_CHAN_SEMA, CY_IPC_SEMA_COUNT, ipcSemaArray);
  70:cy_ipc_config.c **** #endif
  71:cy_ipc_config.c **** }
  72:cy_ipc_config.c **** 
  73:cy_ipc_config.c **** /*******************************************************************************
  74:cy_ipc_config.c **** * Function Name: Cy_IPC_SystemPipeInit
  75:cy_ipc_config.c **** ****************************************************************************//**
  76:cy_ipc_config.c **** *
  77:cy_ipc_config.c **** * Initializes the system pipes. The system pipes are used by BLE and Flash.
  78:cy_ipc_config.c **** * \note The function should be called on all CPUs.
  79:cy_ipc_config.c **** *
  80:cy_ipc_config.c **** * This function is called in the SystemInit() function. If the default startup
  81:cy_ipc_config.c **** * file is not used, or SystemInit() is not called in your project,
  82:cy_ipc_config.c **** * call the following three functions prior to executing any flash or EmEEPROM
  83:cy_ipc_config.c **** * write or erase operation:
  84:cy_ipc_config.c **** *  -# Cy_IPC_SystemSemaInit()
  85:cy_ipc_config.c **** *  -# Cy_IPC_SystemPipeInit()
  86:cy_ipc_config.c **** *  -# Cy_Flash_Init()
ARM GAS  C:\Users\gjl\AppData\Local\Temp\ccftWUNf.s 			page 3


  87:cy_ipc_config.c **** *
  88:cy_ipc_config.c **** * Also this function is called to support BLE host/controller communication.
  89:cy_ipc_config.c **** *
  90:cy_ipc_config.c **** *******************************************************************************/
  91:cy_ipc_config.c **** void Cy_IPC_SystemPipeInit(void)
  92:cy_ipc_config.c **** {
  93:cy_ipc_config.c ****     uint32_t intr;
  94:cy_ipc_config.c **** 
  95:cy_ipc_config.c ****     intr = Cy_SysLib_EnterCriticalSection();
  96:cy_ipc_config.c **** 
  97:cy_ipc_config.c ****     static cy_ipc_pipe_callback_ptr_t cy_ipc_pipe_sysCbArray[CY_IPC_CYPIPE_CLIENT_CNT];
  98:cy_ipc_config.c **** 
  99:cy_ipc_config.c ****     static const cy_stc_ipc_pipe_config_t systemPipeConfig = CY_CYPIPE_DEFAULT_CONFIG;
 100:cy_ipc_config.c **** 
 101:cy_ipc_config.c ****     Cy_IPC_Pipe_Config(cy_ipc_pipe_sysEpArray);
 102:cy_ipc_config.c **** 
 103:cy_ipc_config.c ****     Cy_IPC_Pipe_Init(&systemPipeConfig);
 104:cy_ipc_config.c **** 
 105:cy_ipc_config.c ****     Cy_SysLib_ExitCriticalSection(intr);
 106:cy_ipc_config.c **** }
 107:cy_ipc_config.c **** 
 108:cy_ipc_config.c **** /*******************************************************************************
 109:cy_ipc_config.c **** * Function Name: Cy_IPC_SystemPipeIsr
 110:cy_ipc_config.c **** ****************************************************************************//**
 111:cy_ipc_config.c **** *
 112:cy_ipc_config.c **** * This is the interrupt service routine for the system pipe.
 113:cy_ipc_config.c **** *
 114:cy_ipc_config.c **** *******************************************************************************/
 115:cy_ipc_config.c **** void Cy_IPC_SystemPipeIsr(void)
 116:cy_ipc_config.c **** {
  29              		.loc 1 116 0
  30              		.cfi_startproc
  31              		@ args = 0, pretend = 0, frame = 0
  32              		@ frame_needed = 0, uses_anonymous_args = 0
  33 0000 08B5     		push	{r3, lr}
  34              		.cfi_def_cfa_offset 8
  35              		.cfi_offset 3, -8
  36              		.cfi_offset 14, -4
 117:cy_ipc_config.c ****     Cy_IPC_Pipe_ExecCallback(&cy_ipc_pipe_sysEpArray[CY_IPC_EP_CYPIPE_ADDR]);
  37              		.loc 1 117 0
  38 0002 0248     		ldr	r0, .L3
  39 0004 FFF7FEFF 		bl	Cy_IPC_Pipe_ExecCallback
  40              	.LVL0:
  41 0008 08BD     		pop	{r3, pc}
  42              	.L4:
  43 000a 00BF     		.align	2
  44              	.L3:
  45 000c 2C000000 		.word	.LANCHOR0+44
  46              		.cfi_endproc
  47              	.LFE149:
  48              		.size	cpuss_interrupts_ipc_4_IRQHandler, .-cpuss_interrupts_ipc_4_IRQHandler
  49              		.section	.text.Cy_IPC_SystemSemaInit,"ax",%progbits
  50              		.align	2
  51              		.global	Cy_IPC_SystemSemaInit
  52              		.thumb
  53              		.thumb_func
  54              		.type	Cy_IPC_SystemSemaInit, %function
ARM GAS  C:\Users\gjl\AppData\Local\Temp\ccftWUNf.s 			page 4


  55              	Cy_IPC_SystemSemaInit:
  56              	.LFB147:
  63:cy_ipc_config.c **** /* Create array used for semaphores */
  57              		.loc 1 63 0
  58              		.cfi_startproc
  59              		@ args = 0, pretend = 0, frame = 0
  60              		@ frame_needed = 0, uses_anonymous_args = 0
  61 0000 08B5     		push	{r3, lr}
  62              		.cfi_def_cfa_offset 8
  63              		.cfi_offset 3, -8
  64              		.cfi_offset 14, -4
  66:cy_ipc_config.c **** #else
  65              		.loc 1 66 0
  66 0002 0022     		movs	r2, #0
  67 0004 1146     		mov	r1, r2
  68 0006 0420     		movs	r0, #4
  69 0008 FFF7FEFF 		bl	Cy_IPC_Sema_Init
  70              	.LVL1:
  71 000c 08BD     		pop	{r3, pc}
  72              		.cfi_endproc
  73              	.LFE147:
  74              		.size	Cy_IPC_SystemSemaInit, .-Cy_IPC_SystemSemaInit
  75 000e 00BF     		.section	.text.Cy_IPC_SystemPipeInit,"ax",%progbits
  76              		.align	2
  77              		.global	Cy_IPC_SystemPipeInit
  78              		.thumb
  79              		.thumb_func
  80              		.type	Cy_IPC_SystemPipeInit, %function
  81              	Cy_IPC_SystemPipeInit:
  82              	.LFB148:
  92:cy_ipc_config.c ****     uint32_t intr;
  83              		.loc 1 92 0
  84              		.cfi_startproc
  85              		@ args = 0, pretend = 0, frame = 0
  86              		@ frame_needed = 0, uses_anonymous_args = 0
  87 0000 10B5     		push	{r4, lr}
  88              		.cfi_def_cfa_offset 8
  89              		.cfi_offset 4, -8
  90              		.cfi_offset 14, -4
  95:cy_ipc_config.c **** 
  91              		.loc 1 95 0
  92 0002 FFF7FEFF 		bl	Cy_SysLib_EnterCriticalSection
  93              	.LVL2:
  94 0006 0446     		mov	r4, r0
  95              	.LVL3:
 101:cy_ipc_config.c **** 
  96              		.loc 1 101 0
  97 0008 0448     		ldr	r0, .L9
  98              	.LVL4:
  99 000a FFF7FEFF 		bl	Cy_IPC_Pipe_Config
 100              	.LVL5:
 103:cy_ipc_config.c **** 
 101              		.loc 1 103 0
 102 000e 0448     		ldr	r0, .L9+4
 103 0010 FFF7FEFF 		bl	Cy_IPC_Pipe_Init
 104              	.LVL6:
 105:cy_ipc_config.c **** }
ARM GAS  C:\Users\gjl\AppData\Local\Temp\ccftWUNf.s 			page 5


 105              		.loc 1 105 0
 106 0014 2046     		mov	r0, r4
 107 0016 FFF7FEFF 		bl	Cy_SysLib_ExitCriticalSection
 108              	.LVL7:
 109 001a 10BD     		pop	{r4, pc}
 110              	.LVL8:
 111              	.L10:
 112              		.align	2
 113              	.L9:
 114 001c 00000000 		.word	.LANCHOR0
 115 0020 00000000 		.word	.LANCHOR1
 116              		.cfi_endproc
 117              	.LFE148:
 118              		.size	Cy_IPC_SystemPipeInit, .-Cy_IPC_SystemPipeInit
 119              		.section	.rodata
 120              		.align	2
 121              		.set	.LANCHOR1,. + 0
 122              		.type	systemPipeConfig.9968, %object
 123              		.size	systemPipeConfig.9968, 52
 124              	systemPipeConfig.9968:
 125 0000 03000000 		.word	3
 126 0004 01000000 		.word	1
 127 0008 01000000 		.word	1
 128 000c 00000000 		.word	0
 129 0010 05036000 		.word	6292229
 130 0014 04000000 		.word	4
 131 0018 01000000 		.word	1
 132 001c 00000000 		.word	0
 133 0020 01000000 		.word	1
 134 0024 06046000 		.word	6292486
 135 0028 08000000 		.word	8
 136 002c 60010000 		.word	cy_ipc_pipe_sysCbArray.9967
 137 0030 00000000 		.word	cpuss_interrupts_ipc_4_IRQHandler
 138              		.bss
 139              		.align	2
 140              		.set	.LANCHOR0,. + 0
 141              		.type	cy_ipc_pipe_sysEpArray, %object
 142              		.size	cy_ipc_pipe_sysEpArray, 352
 143              	cy_ipc_pipe_sysEpArray:
 144 0000 00000000 		.space	352
 144      00000000 
 144      00000000 
 144      00000000 
 144      00000000 
 145              		.type	cy_ipc_pipe_sysCbArray.9967, %object
 146              		.size	cy_ipc_pipe_sysCbArray.9967, 32
 147              	cy_ipc_pipe_sysCbArray.9967:
 148 0160 00000000 		.space	32
 148      00000000 
 148      00000000 
 148      00000000 
 148      00000000 
 149              		.text
 150              	.Letext0:
 151              		.file 2 "c:\\program files (x86)\\cypress\\psoc creator\\4.2\\psoc creator\\import\\gnu\\arm\\5.4.
 152              		.file 3 "c:\\program files (x86)\\cypress\\psoc creator\\4.2\\psoc creator\\import\\gnu\\arm\\5.4.
 153              		.file 4 "Generated_Source\\PSoC6\\pdl\\devices/psoc6/psoc63/include/cy8c6347bzi_bld53.h"
ARM GAS  C:\Users\gjl\AppData\Local\Temp\ccftWUNf.s 			page 6


 154              		.file 5 "Generated_Source\\PSoC6\\pdl\\devices/psoc6/ip/cyip_ipc.h"
 155              		.file 6 "Generated_Source\\PSoC6\\pdl\\drivers/peripheral/syslib/cy_syslib.h"
 156              		.file 7 "Generated_Source\\PSoC6\\pdl\\drivers/peripheral/ipc/cy_ipc_pipe.h"
 157              		.file 8 "Generated_Source\\PSoC6\\pdl\\drivers/peripheral/ipc/cy_ipc_sema.h"
 158              		.file 9 "Generated_Source\\PSoC6\\pdl\\cmsis/include/core_cm4.h"