ARM GAS  C:\Users\gjl\AppData\Local\Temp\cc4ngvX1.s 			page 1


   1              		.syntax unified
   2              		.cpu cortex-m4
   3              		.eabi_attribute 27, 1
   4              		.fpu fpv4-sp-d16
   5              		.eabi_attribute 20, 1
   6              		.eabi_attribute 21, 1
   7              		.eabi_attribute 23, 3
   8              		.eabi_attribute 24, 1
   9              		.eabi_attribute 25, 1
  10              		.eabi_attribute 26, 1
  11              		.eabi_attribute 30, 1
  12              		.eabi_attribute 34, 1
  13              		.eabi_attribute 18, 4
  14              		.thumb
  15              		.syntax unified
  16              		.file	"system_psoc63_cm4.c"
  17              		.text
  18              	.Ltext0:
  19              		.cfi_sections	.debug_frame
  20              		.section	.text.Cy_SystemInit,"ax",%progbits
  21              		.align	2
  22              		.weak	Cy_SystemInit
  23              		.thumb
  24              		.thumb_func
  25              		.type	Cy_SystemInit, %function
  26              	Cy_SystemInit:
  27              	.LFB145:
  28              		.file 1 "system_psoc63_cm4.c"
   1:system_psoc63_cm4.c **** /***************************************************************************//**
   2:system_psoc63_cm4.c **** * \file system_psoc63_cm4.c
   3:system_psoc63_cm4.c **** * \version 2.10
   4:system_psoc63_cm4.c **** *
   5:system_psoc63_cm4.c **** * The device system-source file.
   6:system_psoc63_cm4.c **** *
   7:system_psoc63_cm4.c **** ********************************************************************************
   8:system_psoc63_cm4.c **** * \copyright
   9:system_psoc63_cm4.c **** * Copyright 2016-2018, Cypress Semiconductor Corporation.  All rights reserved.
  10:system_psoc63_cm4.c **** * You may use this file only in accordance with the license, terms, conditions,
  11:system_psoc63_cm4.c **** * disclaimers, and limitations in the end user license agreement accompanying
  12:system_psoc63_cm4.c **** * the software package with which this file was provided.
  13:system_psoc63_cm4.c **** *******************************************************************************/
  14:system_psoc63_cm4.c **** 
  15:system_psoc63_cm4.c **** #include <stdint.h>
  16:system_psoc63_cm4.c **** #include <stdbool.h>
  17:system_psoc63_cm4.c **** #include "system_psoc63.h"
  18:system_psoc63_cm4.c **** #include "cy_device_headers.h"
  19:system_psoc63_cm4.c **** 
  20:system_psoc63_cm4.c **** #if defined(CY_DEVICE_PSOC6ABLE2) && !defined(CY_IPC_DEFAULT_CFG_DISABLE)
  21:system_psoc63_cm4.c ****     #include "ipc/cy_ipc_drv.h"
  22:system_psoc63_cm4.c ****     #include "flash/cy_flash.h"
  23:system_psoc63_cm4.c **** #endif /* defined(CY_DEVICE_PSOC6ABLE2) && !defined(CY_IPC_DEFAULT_CFG_DISABLE) */
  24:system_psoc63_cm4.c **** 
  25:system_psoc63_cm4.c **** 
  26:system_psoc63_cm4.c **** /*******************************************************************************
  27:system_psoc63_cm4.c **** * SystemCoreClockUpdate()
  28:system_psoc63_cm4.c **** *******************************************************************************/
  29:system_psoc63_cm4.c **** 
ARM GAS  C:\Users\gjl\AppData\Local\Temp\cc4ngvX1.s 			page 2


  30:system_psoc63_cm4.c **** /** Default HFClk frequency in Hz */
  31:system_psoc63_cm4.c **** #define CY_CLK_HFCLK0_FREQ_HZ_DEFAULT       ( 8000000UL)
  32:system_psoc63_cm4.c **** 
  33:system_psoc63_cm4.c **** /** Default PeriClk frequency in Hz */
  34:system_psoc63_cm4.c **** #define CY_CLK_PERICLK_FREQ_HZ_DEFAULT      (4000000UL)
  35:system_psoc63_cm4.c **** 
  36:system_psoc63_cm4.c **** /** Default SlowClk system core frequency in Hz */
  37:system_psoc63_cm4.c **** #define CY_CLK_SYSTEM_FREQ_HZ_DEFAULT       (8000000UL)
  38:system_psoc63_cm4.c **** 
  39:system_psoc63_cm4.c **** /** IMO frequency in Hz */
  40:system_psoc63_cm4.c **** #define CY_CLK_IMO_FREQ_HZ                  (8000000UL)
  41:system_psoc63_cm4.c **** 
  42:system_psoc63_cm4.c **** /** HVILO frequency in Hz */
  43:system_psoc63_cm4.c **** #define CY_CLK_HVILO_FREQ_HZ                  (32000UL)
  44:system_psoc63_cm4.c **** 
  45:system_psoc63_cm4.c **** #if (SRSS_PILO_PRESENT == 1U) || defined(CY_DOXYGEN)
  46:system_psoc63_cm4.c ****     /** PILO frequency in Hz */
  47:system_psoc63_cm4.c ****     #define CY_CLK_PILO_FREQ_HZ              (32768UL)
  48:system_psoc63_cm4.c **** #endif /* (SRSS_PILO_PRESENT == 1U) || defined(CY_DOXYGEN) */
  49:system_psoc63_cm4.c **** 
  50:system_psoc63_cm4.c **** /** WCO frequency in Hz */
  51:system_psoc63_cm4.c **** #define CY_CLK_WCO_FREQ_HZ                   (32768UL)
  52:system_psoc63_cm4.c **** 
  53:system_psoc63_cm4.c **** #if (SRSS_ALTLF_PRESENT == 1U) || defined(CY_DOXYGEN)
  54:system_psoc63_cm4.c ****     /** ALTLF frequency in Hz */
  55:system_psoc63_cm4.c ****     #define CY_CLK_ALTLF_FREQ_HZ             (32768UL)
  56:system_psoc63_cm4.c **** #endif /* (SRSS_ALTLF_PRESENT == 1U) || defined(CY_DOXYGEN) */
  57:system_psoc63_cm4.c **** 
  58:system_psoc63_cm4.c **** 
  59:system_psoc63_cm4.c **** /*
  60:system_psoc63_cm4.c **** * Holds the FastClk system core clock, which is the system clock frequency 
  61:system_psoc63_cm4.c **** * supplied to the SysTick timer and the processor core clock.
  62:system_psoc63_cm4.c **** * This variable implements CMSIS Core global variable.
  63:system_psoc63_cm4.c **** * Refer to the [CMSIS documentation]
  64:system_psoc63_cm4.c **** * (http://www.keil.com/pack/doc/CMSIS/Core/html/group__system__init__gr.html "System and Clock Conf
  65:system_psoc63_cm4.c **** * for more details.
  66:system_psoc63_cm4.c **** * This variable can be used by debuggers to query the frequency 
  67:system_psoc63_cm4.c **** * of the debug timer or to configure the trace clock speed.
  68:system_psoc63_cm4.c **** *
  69:system_psoc63_cm4.c **** * \attention Compilers must be configured to avoid removing this variable in case
  70:system_psoc63_cm4.c **** * the application program is not using it. Debugging systems require the variable
  71:system_psoc63_cm4.c **** * to be physically present in memory so that it can be examined to configure the debugger. */
  72:system_psoc63_cm4.c **** uint32_t SystemCoreClock = CY_CLK_SYSTEM_FREQ_HZ_DEFAULT;
  73:system_psoc63_cm4.c **** 
  74:system_psoc63_cm4.c **** /** Holds the HFClk0 clock frequency. Updated by \ref SystemCoreClockUpdate(). */
  75:system_psoc63_cm4.c **** uint32_t cy_Hfclk0FreqHz  = CY_CLK_HFCLK0_FREQ_HZ_DEFAULT;
  76:system_psoc63_cm4.c **** 
  77:system_psoc63_cm4.c **** /** Holds the PeriClk clock frequency. Updated by \ref SystemCoreClockUpdate(). */
  78:system_psoc63_cm4.c **** uint32_t cy_PeriClkFreqHz = CY_CLK_PERICLK_FREQ_HZ_DEFAULT;
  79:system_psoc63_cm4.c **** 
  80:system_psoc63_cm4.c **** #if (defined (CY_IP_MXBLESS) && (CY_IP_MXBLESS == 1UL)) || defined (CY_DOXYGEN)
  81:system_psoc63_cm4.c ****     /** Holds the Alternate high frequency clock in Hz. Updated by \ref SystemCoreClockUpdate(). */
  82:system_psoc63_cm4.c ****     uint32_t cy_BleEcoClockFreqHz = CY_CLK_ALTHF_FREQ_HZ;
  83:system_psoc63_cm4.c **** #endif /* (defined (CY_IP_MXBLESS) && (CY_IP_MXBLESS == 1UL)) || defined (CY_DOXYGEN) */
  84:system_psoc63_cm4.c **** 
  85:system_psoc63_cm4.c **** 
  86:system_psoc63_cm4.c **** /* SCB->CPACR */
ARM GAS  C:\Users\gjl\AppData\Local\Temp\cc4ngvX1.s 			page 3


  87:system_psoc63_cm4.c **** #define SCB_CPACR_CP10_CP11_ENABLE      (0xFUL << 20u)
  88:system_psoc63_cm4.c **** 
  89:system_psoc63_cm4.c **** 
  90:system_psoc63_cm4.c **** /*******************************************************************************
  91:system_psoc63_cm4.c **** * SystemInit()
  92:system_psoc63_cm4.c **** *******************************************************************************/
  93:system_psoc63_cm4.c **** /* WDT lock bits */
  94:system_psoc63_cm4.c **** #define CY_WDT_LOCK_BIT0                ((uint32_t)0x01u << 30u)
  95:system_psoc63_cm4.c **** #define CY_WDT_LOCK_BIT1                ((uint32_t)0x01u << 31u)
  96:system_psoc63_cm4.c **** 
  97:system_psoc63_cm4.c **** #if (__CM0P_PRESENT == 0)
  98:system_psoc63_cm4.c ****     /* CLK_FLL_CONFIG default values */
  99:system_psoc63_cm4.c ****     #define CY_FB_CLK_FLL_CONFIG_VALUE      (0x01000000u)
 100:system_psoc63_cm4.c ****     #define CY_FB_CLK_FLL_CONFIG2_VALUE     (0x00020001u)
 101:system_psoc63_cm4.c ****     #define CY_FB_CLK_FLL_CONFIG3_VALUE     (0x00002800u)
 102:system_psoc63_cm4.c ****     #define CY_FB_CLK_FLL_CONFIG4_VALUE     (0x000000FFu)
 103:system_psoc63_cm4.c **** #endif /* (__CM0P_PRESENT == 0) */
 104:system_psoc63_cm4.c **** 
 105:system_psoc63_cm4.c **** 
 106:system_psoc63_cm4.c **** /*******************************************************************************
 107:system_psoc63_cm4.c **** * SystemCoreClockUpdate (void)
 108:system_psoc63_cm4.c **** *******************************************************************************/
 109:system_psoc63_cm4.c **** /* Do not use these definitions directly in your application */
 110:system_psoc63_cm4.c **** #define CY_DELAY_MS_OVERFLOW_THRESHOLD  (0x8000u)
 111:system_psoc63_cm4.c **** #define CY_DELAY_1K_THRESHOLD           (1000u)
 112:system_psoc63_cm4.c **** #define CY_DELAY_1K_MINUS_1_THRESHOLD   (CY_DELAY_1K_THRESHOLD - 1u)
 113:system_psoc63_cm4.c **** #define CY_DELAY_1M_THRESHOLD           (1000000u)
 114:system_psoc63_cm4.c **** #define CY_DELAY_1M_MINUS_1_THRESHOLD   (CY_DELAY_1M_THRESHOLD - 1u)
 115:system_psoc63_cm4.c **** uint32_t cy_delayFreqHz   = CY_CLK_SYSTEM_FREQ_HZ_DEFAULT;
 116:system_psoc63_cm4.c **** 
 117:system_psoc63_cm4.c **** uint32_t cy_delayFreqKhz  = (CY_CLK_SYSTEM_FREQ_HZ_DEFAULT + CY_DELAY_1K_MINUS_1_THRESHOLD) /
 118:system_psoc63_cm4.c ****                             CY_DELAY_1K_THRESHOLD;
 119:system_psoc63_cm4.c **** 
 120:system_psoc63_cm4.c **** uint8_t cy_delayFreqMhz  = (uint8_t)((CY_CLK_SYSTEM_FREQ_HZ_DEFAULT + CY_DELAY_1M_MINUS_1_THRESHOLD
 121:system_psoc63_cm4.c ****                             CY_DELAY_1M_THRESHOLD);
 122:system_psoc63_cm4.c **** 
 123:system_psoc63_cm4.c **** uint32_t cy_delay32kMs    = CY_DELAY_MS_OVERFLOW_THRESHOLD *
 124:system_psoc63_cm4.c ****                             ((CY_CLK_SYSTEM_FREQ_HZ_DEFAULT + CY_DELAY_1K_MINUS_1_THRESHOLD) / CY_D
 125:system_psoc63_cm4.c **** 
 126:system_psoc63_cm4.c **** #define CY_ROOT_PATH_SRC_IMO                (0UL)
 127:system_psoc63_cm4.c **** #define CY_ROOT_PATH_SRC_EXT                (1UL)
 128:system_psoc63_cm4.c **** #if (SRSS_ECO_PRESENT == 1U)
 129:system_psoc63_cm4.c ****     #define CY_ROOT_PATH_SRC_ECO            (2UL)
 130:system_psoc63_cm4.c **** #endif /* (SRSS_ECO_PRESENT == 1U) */
 131:system_psoc63_cm4.c **** #if (SRSS_ALTHF_PRESENT == 1U)
 132:system_psoc63_cm4.c ****     #define CY_ROOT_PATH_SRC_ALTHF          (3UL)
 133:system_psoc63_cm4.c **** #endif /* (SRSS_ALTHF_PRESENT == 1U) */
 134:system_psoc63_cm4.c **** #define CY_ROOT_PATH_SRC_DSI_MUX            (4UL)
 135:system_psoc63_cm4.c **** #define CY_ROOT_PATH_SRC_DSI_MUX_HVILO      (16UL)
 136:system_psoc63_cm4.c **** #define CY_ROOT_PATH_SRC_DSI_MUX_WCO        (17UL)
 137:system_psoc63_cm4.c **** #if (SRSS_ALTLF_PRESENT == 1U)
 138:system_psoc63_cm4.c ****     #define CY_ROOT_PATH_SRC_DSI_MUX_ALTLF  (18UL)
 139:system_psoc63_cm4.c **** #endif /* (SRSS_ALTLF_PRESENT == 1U) */
 140:system_psoc63_cm4.c **** #if (SRSS_PILO_PRESENT == 1U)
 141:system_psoc63_cm4.c ****     #define CY_ROOT_PATH_SRC_DSI_MUX_PILO   (19UL)
 142:system_psoc63_cm4.c **** #endif /* (SRSS_PILO_PRESENT == 1U) */
 143:system_psoc63_cm4.c **** 
ARM GAS  C:\Users\gjl\AppData\Local\Temp\cc4ngvX1.s 			page 4


 144:system_psoc63_cm4.c **** 
 145:system_psoc63_cm4.c **** /*******************************************************************************
 146:system_psoc63_cm4.c **** * Function Name: SystemInit
 147:system_psoc63_cm4.c **** ****************************************************************************//**
 148:system_psoc63_cm4.c **** * \cond
 149:system_psoc63_cm4.c **** * Initializes the system:
 150:system_psoc63_cm4.c **** * - Restores FLL registers to the default state for single core devices.
 151:system_psoc63_cm4.c **** * - Unlocks and disables WDT.
 152:system_psoc63_cm4.c **** * - Calls the Cy_SystemInit() function, if compiled from PSoC Creator.
 153:system_psoc63_cm4.c **** * - Calls \ref SystemCoreClockUpdate().
 154:system_psoc63_cm4.c **** * \endcond
 155:system_psoc63_cm4.c **** *******************************************************************************/
 156:system_psoc63_cm4.c **** void SystemInit(void)
 157:system_psoc63_cm4.c **** {
 158:system_psoc63_cm4.c **** #if (__CM0P_PRESENT == 0)
 159:system_psoc63_cm4.c ****     /* Restore FLL registers to the default state as they are not restored by the ROM code */
 160:system_psoc63_cm4.c ****     uint32_t copy = SRSS->CLK_FLL_CONFIG;
 161:system_psoc63_cm4.c ****     copy &= ~SRSS_CLK_FLL_CONFIG_FLL_ENABLE_Msk;
 162:system_psoc63_cm4.c ****     SRSS->CLK_FLL_CONFIG = copy;
 163:system_psoc63_cm4.c **** 
 164:system_psoc63_cm4.c ****     copy = SRSS->CLK_ROOT_SELECT[0u];
 165:system_psoc63_cm4.c ****     copy &= ~SRSS_CLK_ROOT_SELECT_ROOT_DIV_Msk; /* Set ROOT_DIV = 0*/
 166:system_psoc63_cm4.c ****     SRSS->CLK_ROOT_SELECT[0u] = copy;
 167:system_psoc63_cm4.c **** 
 168:system_psoc63_cm4.c ****     SRSS->CLK_FLL_CONFIG  = CY_FB_CLK_FLL_CONFIG_VALUE;
 169:system_psoc63_cm4.c ****     SRSS->CLK_FLL_CONFIG2 = CY_FB_CLK_FLL_CONFIG2_VALUE;
 170:system_psoc63_cm4.c ****     SRSS->CLK_FLL_CONFIG3 = CY_FB_CLK_FLL_CONFIG3_VALUE;
 171:system_psoc63_cm4.c ****     SRSS->CLK_FLL_CONFIG4 = CY_FB_CLK_FLL_CONFIG4_VALUE;
 172:system_psoc63_cm4.c **** #endif /* (__CM0P_PRESENT == 0) */
 173:system_psoc63_cm4.c **** 
 174:system_psoc63_cm4.c ****     /* Unlock and disable WDT */
 175:system_psoc63_cm4.c ****     SRSS->WDT_CTL = ((SRSS->WDT_CTL & (uint32_t)(~SRSS_WDT_CTL_WDT_LOCK_Msk)) | CY_WDT_LOCK_BIT0);
 176:system_psoc63_cm4.c ****     SRSS->WDT_CTL = (SRSS->WDT_CTL | CY_WDT_LOCK_BIT1);
 177:system_psoc63_cm4.c ****     SRSS->WDT_CTL &= (~ (uint32_t) SRSS_WDT_CTL_WDT_EN_Msk);
 178:system_psoc63_cm4.c **** 
 179:system_psoc63_cm4.c ****     Cy_SystemInit();
 180:system_psoc63_cm4.c ****     SystemCoreClockUpdate();
 181:system_psoc63_cm4.c **** 
 182:system_psoc63_cm4.c **** #if defined(CY_DEVICE_PSOC6ABLE2) && !defined(CY_IPC_DEFAULT_CFG_DISABLE)
 183:system_psoc63_cm4.c ****     /* Allocate and initialize semaphores for the system operations. */
 184:system_psoc63_cm4.c ****     Cy_IPC_SystemSemaInit();
 185:system_psoc63_cm4.c ****     Cy_IPC_SystemPipeInit();
 186:system_psoc63_cm4.c ****     Cy_Flash_Init();
 187:system_psoc63_cm4.c **** #endif /* defined(CY_DEVICE_PSOC6ABLE2) && !defined(CY_IPC_DEFAULT_CFG_DISABLE) */
 188:system_psoc63_cm4.c **** }
 189:system_psoc63_cm4.c **** 
 190:system_psoc63_cm4.c **** 
 191:system_psoc63_cm4.c **** /*******************************************************************************
 192:system_psoc63_cm4.c **** * Function Name: Cy_SystemInit
 193:system_psoc63_cm4.c **** ****************************************************************************//**
 194:system_psoc63_cm4.c **** *
 195:system_psoc63_cm4.c **** * The function is called during device startup. Once project compiled as part of
 196:system_psoc63_cm4.c **** * the PSoC Creator project, the Cy_SystemInit() function is generated by the
 197:system_psoc63_cm4.c **** * PSoC Creator.
 198:system_psoc63_cm4.c **** *
 199:system_psoc63_cm4.c **** * The function generated by PSoC Creator performs all of the necessary device
 200:system_psoc63_cm4.c **** * configuration based on the design settings.  This includes settings from the
ARM GAS  C:\Users\gjl\AppData\Local\Temp\cc4ngvX1.s 			page 5


 201:system_psoc63_cm4.c **** * Design Wide Resources (DWR) such as Clocks and Pins as well as any component
 202:system_psoc63_cm4.c **** * configuration that is necessary.
 203:system_psoc63_cm4.c **** *
 204:system_psoc63_cm4.c **** *******************************************************************************/
 205:system_psoc63_cm4.c **** __WEAK void Cy_SystemInit(void)
 206:system_psoc63_cm4.c **** {
  29              		.loc 1 206 0
  30              		.cfi_startproc
  31              		@ args = 0, pretend = 0, frame = 0
  32              		@ frame_needed = 0, uses_anonymous_args = 0
  33              		@ link register save eliminated.
  34 0000 7047     		bx	lr
  35              		.cfi_endproc
  36              	.LFE145:
  37              		.size	Cy_SystemInit, .-Cy_SystemInit
  38 0002 00BF     		.section	.text.SystemCoreClockUpdate,"ax",%progbits
  39              		.align	2
  40              		.global	SystemCoreClockUpdate
  41              		.thumb
  42              		.thumb_func
  43              		.type	SystemCoreClockUpdate, %function
  44              	SystemCoreClockUpdate:
  45              	.LFB146:
 207:system_psoc63_cm4.c ****      /* Empty weak function. The actual implementation to be in the PSoC Creator
 208:system_psoc63_cm4.c ****       * generated strong function.
 209:system_psoc63_cm4.c ****      */
 210:system_psoc63_cm4.c **** }
 211:system_psoc63_cm4.c **** 
 212:system_psoc63_cm4.c **** 
 213:system_psoc63_cm4.c **** /*******************************************************************************
 214:system_psoc63_cm4.c **** * Function Name: SystemCoreClockUpdate
 215:system_psoc63_cm4.c **** ****************************************************************************//**
 216:system_psoc63_cm4.c **** *
 217:system_psoc63_cm4.c **** * Gets core clock frequency and updates \ref SystemCoreClock, \ref
 218:system_psoc63_cm4.c **** * cy_Hfclk0FreqHz, and \ref cy_PeriClkFreqHz.
 219:system_psoc63_cm4.c **** *
 220:system_psoc63_cm4.c **** * Updates global variables used by the \ref Cy_SysLib_Delay(), \ref
 221:system_psoc63_cm4.c **** * Cy_SysLib_DelayUs(), and \ref Cy_SysLib_DelayCycles().
 222:system_psoc63_cm4.c **** *
 223:system_psoc63_cm4.c **** *******************************************************************************/
 224:system_psoc63_cm4.c **** void SystemCoreClockUpdate (void)
 225:system_psoc63_cm4.c **** {
  46              		.loc 1 225 0
  47              		.cfi_startproc
  48              		@ args = 0, pretend = 0, frame = 0
  49              		@ frame_needed = 0, uses_anonymous_args = 0
  50              		@ link register save eliminated.
 226:system_psoc63_cm4.c ****     uint32_t srcFreqHz;
 227:system_psoc63_cm4.c ****     uint32_t pathFreqHz;
 228:system_psoc63_cm4.c ****     uint32_t fastClkDiv;
 229:system_psoc63_cm4.c ****     uint32_t periClkDiv;
 230:system_psoc63_cm4.c ****     uint32_t rootPath;
 231:system_psoc63_cm4.c ****     uint32_t srcClk;
 232:system_psoc63_cm4.c **** 
 233:system_psoc63_cm4.c ****     /* Get root path clock for the high-frequency clock # 0 */
 234:system_psoc63_cm4.c ****     rootPath = _FLD2VAL(SRSS_CLK_ROOT_SELECT_ROOT_MUX, SRSS->CLK_ROOT_SELECT[0u]);
  51              		.loc 1 234 0
ARM GAS  C:\Users\gjl\AppData\Local\Temp\cc4ngvX1.s 			page 6


  52 0000 5C4A     		ldr	r2, .L23
  53 0002 D2F88033 		ldr	r3, [r2, #896]
  54 0006 03F00F03 		and	r3, r3, #15
  55              	.LVL0:
 235:system_psoc63_cm4.c **** 
 236:system_psoc63_cm4.c ****     /* Get source of the root path clock */
 237:system_psoc63_cm4.c ****     srcClk = _FLD2VAL(SRSS_CLK_PATH_SELECT_PATH_MUX, SRSS->CLK_PATH_SELECT[rootPath]);
  56              		.loc 1 237 0
  57 000a 03F1D001 		add	r1, r3, #208
  58 000e 52F82120 		ldr	r2, [r2, r1, lsl #2]
  59 0012 02F00702 		and	r2, r2, #7
  60              	.LVL1:
 238:system_psoc63_cm4.c **** 
 239:system_psoc63_cm4.c ****     /* Get frequency of the source */
 240:system_psoc63_cm4.c ****     switch (srcClk)
  61              		.loc 1 240 0
  62 0016 032A     		cmp	r2, #3
  63 0018 04D0     		beq	.L4
  64 001a 042A     		cmp	r2, #4
  65 001c 05D0     		beq	.L5
  66 001e 92B9     		cbnz	r2, .L22
 241:system_psoc63_cm4.c ****     {
 242:system_psoc63_cm4.c ****     case CY_ROOT_PATH_SRC_IMO:
 243:system_psoc63_cm4.c ****         srcFreqHz = CY_CLK_IMO_FREQ_HZ;
  67              		.loc 1 243 0
  68 0020 5549     		ldr	r1, .L23+4
  69 0022 14E0     		b	.L3
  70              	.L4:
 244:system_psoc63_cm4.c ****     break;
 245:system_psoc63_cm4.c **** 
 246:system_psoc63_cm4.c ****     case CY_ROOT_PATH_SRC_EXT:
 247:system_psoc63_cm4.c ****         srcFreqHz = CY_CLK_EXT_FREQ_HZ;
 248:system_psoc63_cm4.c ****     break;
 249:system_psoc63_cm4.c **** 
 250:system_psoc63_cm4.c ****     #if (SRSS_ECO_PRESENT == 1U)
 251:system_psoc63_cm4.c ****         case CY_ROOT_PATH_SRC_ECO:
 252:system_psoc63_cm4.c ****             srcFreqHz = CY_CLK_ECO_FREQ_HZ;
 253:system_psoc63_cm4.c ****         break;
 254:system_psoc63_cm4.c ****     #endif /* (SRSS_ECO_PRESENT == 1U) */
 255:system_psoc63_cm4.c **** 
 256:system_psoc63_cm4.c **** #if defined (CY_IP_MXBLESS) && (CY_IP_MXBLESS == 1UL) && (SRSS_ALTHF_PRESENT == 1U)
 257:system_psoc63_cm4.c ****     case CY_ROOT_PATH_SRC_ALTHF:
 258:system_psoc63_cm4.c ****         srcFreqHz = cy_BleEcoClockFreqHz;
  71              		.loc 1 258 0
  72 0024 554A     		ldr	r2, .L23+8
  73              	.LVL2:
  74 0026 1168     		ldr	r1, [r2]
  75              	.LVL3:
 259:system_psoc63_cm4.c ****     break;
  76              		.loc 1 259 0
  77 0028 11E0     		b	.L3
  78              	.LVL4:
  79              	.L5:
  80              	.LBB6:
 260:system_psoc63_cm4.c **** #endif /* defined (CY_IP_MXBLESS) && (CY_IP_MXBLESS == 1UL) && (SRSS_ALTHF_PRESENT == 1U) */
 261:system_psoc63_cm4.c **** 
 262:system_psoc63_cm4.c ****     case CY_ROOT_PATH_SRC_DSI_MUX:
ARM GAS  C:\Users\gjl\AppData\Local\Temp\cc4ngvX1.s 			page 7


 263:system_psoc63_cm4.c ****     {
 264:system_psoc63_cm4.c ****         uint32_t dsi_src;
 265:system_psoc63_cm4.c ****         dsi_src = _FLD2VAL(SRSS_CLK_DSI_SELECT_DSI_MUX,  SRSS->CLK_DSI_SELECT[rootPath]);
  81              		.loc 1 265 0
  82 002a 03F1C002 		add	r2, r3, #192
  83              	.LVL5:
  84 002e 5149     		ldr	r1, .L23
  85 0030 51F82220 		ldr	r2, [r1, r2, lsl #2]
  86 0034 02F01F02 		and	r2, r2, #31
  87              	.LVL6:
 266:system_psoc63_cm4.c ****         switch (dsi_src)
  88              		.loc 1 266 0
  89 0038 112A     		cmp	r2, #17
  90 003a 06D0     		beq	.L17
  91 003c 132A     		cmp	r2, #19
  92 003e 04D0     		beq	.L17
 267:system_psoc63_cm4.c ****         {
 268:system_psoc63_cm4.c ****         case CY_ROOT_PATH_SRC_DSI_MUX_HVILO:
 269:system_psoc63_cm4.c ****             srcFreqHz = CY_CLK_HVILO_FREQ_HZ;
  93              		.loc 1 269 0
  94 0040 4FF4FA41 		mov	r1, #32000
  95 0044 03E0     		b	.L3
  96              	.LVL7:
  97              	.L22:
  98              	.LBE6:
 247:system_psoc63_cm4.c ****     break;
  99              		.loc 1 247 0
 100 0046 4E49     		ldr	r1, .L23+12
 101 0048 01E0     		b	.L3
 102              	.LVL8:
 103              	.L17:
 104              	.LBB7:
 270:system_psoc63_cm4.c ****         break;
 271:system_psoc63_cm4.c **** 
 272:system_psoc63_cm4.c ****         case CY_ROOT_PATH_SRC_DSI_MUX_WCO:
 273:system_psoc63_cm4.c ****             srcFreqHz = CY_CLK_WCO_FREQ_HZ;
 105              		.loc 1 273 0
 106 004a 4FF40041 		mov	r1, #32768
 107              	.LVL9:
 108              	.L3:
 109              	.LBE7:
 274:system_psoc63_cm4.c ****         break;
 275:system_psoc63_cm4.c **** 
 276:system_psoc63_cm4.c ****         #if (SRSS_ALTLF_PRESENT == 1U)
 277:system_psoc63_cm4.c ****             case CY_ROOT_PATH_SRC_DSI_MUX_ALTLF:
 278:system_psoc63_cm4.c ****                 srcFreqHz = CY_CLK_ALTLF_FREQ_HZ;
 279:system_psoc63_cm4.c ****             break;
 280:system_psoc63_cm4.c ****         #endif /* (SRSS_ALTLF_PRESENT == 1U) */
 281:system_psoc63_cm4.c **** 
 282:system_psoc63_cm4.c ****         #if (SRSS_PILO_PRESENT == 1U)
 283:system_psoc63_cm4.c ****             case CY_ROOT_PATH_SRC_DSI_MUX_PILO:
 284:system_psoc63_cm4.c ****                 srcFreqHz = CY_CLK_PILO_FREQ_HZ;
 285:system_psoc63_cm4.c ****             break;
 286:system_psoc63_cm4.c ****         #endif /* (SRSS_PILO_PRESENT == 1U) */
 287:system_psoc63_cm4.c **** 
 288:system_psoc63_cm4.c ****         default:
 289:system_psoc63_cm4.c ****             srcFreqHz = CY_CLK_HVILO_FREQ_HZ;
ARM GAS  C:\Users\gjl\AppData\Local\Temp\cc4ngvX1.s 			page 8


 290:system_psoc63_cm4.c ****         break;
 291:system_psoc63_cm4.c ****         }
 292:system_psoc63_cm4.c ****     }
 293:system_psoc63_cm4.c ****     break;
 294:system_psoc63_cm4.c **** 
 295:system_psoc63_cm4.c ****     default:
 296:system_psoc63_cm4.c ****         srcFreqHz = CY_CLK_EXT_FREQ_HZ;
 297:system_psoc63_cm4.c ****     break;
 298:system_psoc63_cm4.c ****     }
 299:system_psoc63_cm4.c **** 
 300:system_psoc63_cm4.c ****     if (rootPath == 0UL)
 110              		.loc 1 300 0
 111 004e 8BBB     		cbnz	r3, .L8
 112              	.LBB8:
 301:system_psoc63_cm4.c ****     {
 302:system_psoc63_cm4.c ****         /* FLL */
 303:system_psoc63_cm4.c ****         bool fllLocked       = ( 0UL != _FLD2VAL(SRSS_CLK_FLL_STATUS_LOCKED, SRSS->CLK_FLL_STATUS))
 113              		.loc 1 303 0
 114 0050 484B     		ldr	r3, .L23
 115              	.LVL10:
 116 0052 D3F89025 		ldr	r2, [r3, #1424]
 117 0056 02F00100 		and	r0, r2, #1
 118              	.LVL11:
 304:system_psoc63_cm4.c ****         bool fllOutputOutput = ( 3UL == _FLD2VAL(SRSS_CLK_FLL_CONFIG3_BYPASS_SEL, SRSS->CLK_FLL_CON
 119              		.loc 1 304 0
 120 005a D3F88825 		ldr	r2, [r3, #1416]
 121 005e C2F30172 		ubfx	r2, r2, #28, #2
 122              	.LVL12:
 305:system_psoc63_cm4.c ****         bool fllOutputAuto   = ((0UL == _FLD2VAL(SRSS_CLK_FLL_CONFIG3_BYPASS_SEL, SRSS->CLK_FLL_CON
 123              		.loc 1 305 0
 124 0062 D3F88835 		ldr	r3, [r3, #1416]
 125 0066 13F0405F 		tst	r3, #805306368
 126 006a 07D0     		beq	.L18
 306:system_psoc63_cm4.c ****                                 (1UL == _FLD2VAL(SRSS_CLK_FLL_CONFIG3_BYPASS_SEL, SRSS->CLK_FLL_CON
 127              		.loc 1 306 0 discriminator 2
 128 006c 414B     		ldr	r3, .L23
 129 006e D3F88835 		ldr	r3, [r3, #1416]
 130 0072 C3F30173 		ubfx	r3, r3, #28, #2
 305:system_psoc63_cm4.c ****         bool fllOutputAuto   = ((0UL == _FLD2VAL(SRSS_CLK_FLL_CONFIG3_BYPASS_SEL, SRSS->CLK_FLL_CON
 131              		.loc 1 305 0 discriminator 2
 132 0076 012B     		cmp	r3, #1
 133 0078 02D1     		bne	.L19
 134 007a 02E0     		b	.L9
 135              	.L18:
 305:system_psoc63_cm4.c ****         bool fllOutputAuto   = ((0UL == _FLD2VAL(SRSS_CLK_FLL_CONFIG3_BYPASS_SEL, SRSS->CLK_FLL_CON
 136              		.loc 1 305 0 is_stmt 0
 137 007c 0123     		movs	r3, #1
 138 007e 00E0     		b	.L9
 139              	.L19:
 140 0080 0023     		movs	r3, #0
 141              	.L9:
 142              	.LVL13:
 307:system_psoc63_cm4.c ****         if ((fllOutputAuto && fllLocked) || fllOutputOutput)
 143              		.loc 1 307 0 is_stmt 1 discriminator 6
 144 0082 03B1     		cbz	r3, .L10
 145              		.loc 1 307 0 is_stmt 0 discriminator 1
 146 0084 08B9     		cbnz	r0, .L11
ARM GAS  C:\Users\gjl\AppData\Local\Temp\cc4ngvX1.s 			page 9


 147              	.L10:
 148              		.loc 1 307 0 discriminator 3
 149 0086 032A     		cmp	r2, #3
 150 0088 46D1     		bne	.L12
 151              	.L11:
 152              	.LBB9:
 308:system_psoc63_cm4.c ****         {
 309:system_psoc63_cm4.c ****             uint32_t fllMult;
 310:system_psoc63_cm4.c ****             uint32_t refDiv;
 311:system_psoc63_cm4.c ****             uint32_t outputDiv;
 312:system_psoc63_cm4.c **** 
 313:system_psoc63_cm4.c ****             fllMult = _FLD2VAL(SRSS_CLK_FLL_CONFIG_FLL_MULT, SRSS->CLK_FLL_CONFIG);
 153              		.loc 1 313 0 is_stmt 1
 154 008a 3A48     		ldr	r0, .L23
 155              	.LVL14:
 156 008c D0F88025 		ldr	r2, [r0, #1408]
 157              	.LVL15:
 158 0090 C2F31103 		ubfx	r3, r2, #0, #18
 159              	.LVL16:
 314:system_psoc63_cm4.c ****             refDiv  = _FLD2VAL(SRSS_CLK_FLL_CONFIG2_FLL_REF_DIV, SRSS->CLK_FLL_CONFIG2);
 160              		.loc 1 314 0
 161 0094 D0F88425 		ldr	r2, [r0, #1412]
 162 0098 C2F30C02 		ubfx	r2, r2, #0, #13
 163              	.LVL17:
 315:system_psoc63_cm4.c ****             outputDiv = _FLD2VAL(SRSS_CLK_FLL_CONFIG_FLL_OUTPUT_DIV, SRSS->CLK_FLL_CONFIG) + 1UL;
 164              		.loc 1 315 0
 165 009c D0F88005 		ldr	r0, [r0, #1408]
 166 00a0 C0F30060 		ubfx	r0, r0, #24, #1
 167 00a4 0130     		adds	r0, r0, #1
 168              	.LVL18:
 316:system_psoc63_cm4.c **** 
 317:system_psoc63_cm4.c ****             pathFreqHz = ((srcFreqHz / refDiv) * fllMult) / outputDiv;
 169              		.loc 1 317 0
 170 00a6 B1FBF2F2 		udiv	r2, r1, r2
 171              	.LVL19:
 172 00aa 02FB03F2 		mul	r2, r2, r3
 173 00ae B2FBF0F1 		udiv	r1, r2, r0
 174              	.LVL20:
 175              	.LBE9:
 308:system_psoc63_cm4.c ****             uint32_t fllMult;
 176              		.loc 1 308 0
 177 00b2 31E0     		b	.L12
 178              	.LVL21:
 179              	.L8:
 180              	.LBE8:
 318:system_psoc63_cm4.c ****         }
 319:system_psoc63_cm4.c ****         else
 320:system_psoc63_cm4.c ****         {
 321:system_psoc63_cm4.c ****             pathFreqHz = srcFreqHz;
 322:system_psoc63_cm4.c ****         }
 323:system_psoc63_cm4.c ****     }
 324:system_psoc63_cm4.c ****     else if (rootPath == 1UL)
 181              		.loc 1 324 0
 182 00b4 012B     		cmp	r3, #1
 183 00b6 2FD1     		bne	.L12
 184              	.LBB10:
 325:system_psoc63_cm4.c ****     {
ARM GAS  C:\Users\gjl\AppData\Local\Temp\cc4ngvX1.s 			page 10


 326:system_psoc63_cm4.c ****         /* PLL */
 327:system_psoc63_cm4.c ****         bool pllLocked       = ( 0UL != _FLD2VAL(SRSS_CLK_PLL_STATUS_LOCKED,     SRSS->CLK_PLL_STAT
 185              		.loc 1 327 0
 186 00b8 2E4B     		ldr	r3, .L23
 187              	.LVL22:
 188 00ba D3F84026 		ldr	r2, [r3, #1600]
 189 00be 02F00100 		and	r0, r2, #1
 190              	.LVL23:
 328:system_psoc63_cm4.c ****         bool pllOutputOutput = ( 3UL == _FLD2VAL(SRSS_CLK_PLL_CONFIG_BYPASS_SEL, SRSS->CLK_PLL_CONF
 191              		.loc 1 328 0
 192 00c2 D3F80026 		ldr	r2, [r3, #1536]
 193 00c6 C2F30172 		ubfx	r2, r2, #28, #2
 194              	.LVL24:
 329:system_psoc63_cm4.c ****         bool pllOutputAuto   = ((0UL == _FLD2VAL(SRSS_CLK_PLL_CONFIG_BYPASS_SEL, SRSS->CLK_PLL_CONF
 195              		.loc 1 329 0
 196 00ca D3F80036 		ldr	r3, [r3, #1536]
 197 00ce 13F0405F 		tst	r3, #805306368
 198 00d2 07D0     		beq	.L20
 330:system_psoc63_cm4.c ****                                 (1UL == _FLD2VAL(SRSS_CLK_PLL_CONFIG_BYPASS_SEL, SRSS->CLK_PLL_CONF
 199              		.loc 1 330 0 discriminator 2
 200 00d4 274B     		ldr	r3, .L23
 201 00d6 D3F80036 		ldr	r3, [r3, #1536]
 202 00da C3F30173 		ubfx	r3, r3, #28, #2
 329:system_psoc63_cm4.c ****         bool pllOutputAuto   = ((0UL == _FLD2VAL(SRSS_CLK_PLL_CONFIG_BYPASS_SEL, SRSS->CLK_PLL_CONF
 203              		.loc 1 329 0 discriminator 2
 204 00de 012B     		cmp	r3, #1
 205 00e0 02D1     		bne	.L21
 206 00e2 02E0     		b	.L13
 207              	.L20:
 329:system_psoc63_cm4.c ****         bool pllOutputAuto   = ((0UL == _FLD2VAL(SRSS_CLK_PLL_CONFIG_BYPASS_SEL, SRSS->CLK_PLL_CONF
 208              		.loc 1 329 0 is_stmt 0
 209 00e4 0123     		movs	r3, #1
 210 00e6 00E0     		b	.L13
 211              	.L21:
 212 00e8 0023     		movs	r3, #0
 213              	.L13:
 214              	.LVL25:
 331:system_psoc63_cm4.c ****         if ((pllOutputAuto && pllLocked) || pllOutputOutput)
 215              		.loc 1 331 0 is_stmt 1 discriminator 6
 216 00ea 03B1     		cbz	r3, .L14
 217              		.loc 1 331 0 is_stmt 0 discriminator 1
 218 00ec 08B9     		cbnz	r0, .L15
 219              	.L14:
 220              		.loc 1 331 0 discriminator 3
 221 00ee 032A     		cmp	r2, #3
 222 00f0 12D1     		bne	.L12
 223              	.L15:
 224              	.LBB11:
 332:system_psoc63_cm4.c ****         {
 333:system_psoc63_cm4.c ****             uint32_t feedbackDiv;
 334:system_psoc63_cm4.c ****             uint32_t referenceDiv;
 335:system_psoc63_cm4.c ****             uint32_t outputDiv;
 336:system_psoc63_cm4.c **** 
 337:system_psoc63_cm4.c ****             feedbackDiv  = _FLD2VAL(SRSS_CLK_PLL_CONFIG_FEEDBACK_DIV,  SRSS->CLK_PLL_CONFIG[0UL]);
 225              		.loc 1 337 0 is_stmt 1
 226 00f2 2048     		ldr	r0, .L23
 227              	.LVL26:
ARM GAS  C:\Users\gjl\AppData\Local\Temp\cc4ngvX1.s 			page 11


 228 00f4 D0F80026 		ldr	r2, [r0, #1536]
 229              	.LVL27:
 230 00f8 02F07F02 		and	r2, r2, #127
 231              	.LVL28:
 338:system_psoc63_cm4.c ****             referenceDiv = _FLD2VAL(SRSS_CLK_PLL_CONFIG_REFERENCE_DIV, SRSS->CLK_PLL_CONFIG[0UL]);
 232              		.loc 1 338 0
 233 00fc D0F80036 		ldr	r3, [r0, #1536]
 234              	.LVL29:
 235 0100 C3F30423 		ubfx	r3, r3, #8, #5
 236              	.LVL30:
 339:system_psoc63_cm4.c ****             outputDiv    = _FLD2VAL(SRSS_CLK_PLL_CONFIG_OUTPUT_DIV,    SRSS->CLK_PLL_CONFIG[0UL]);
 237              		.loc 1 339 0
 238 0104 D0F80006 		ldr	r0, [r0, #1536]
 239 0108 C0F30440 		ubfx	r0, r0, #16, #5
 240              	.LVL31:
 340:system_psoc63_cm4.c **** 
 341:system_psoc63_cm4.c ****             pathFreqHz = ((srcFreqHz * feedbackDiv) / referenceDiv) / outputDiv;
 241              		.loc 1 341 0
 242 010c 02FB01F2 		mul	r2, r2, r1
 243              	.LVL32:
 244 0110 B2FBF3F2 		udiv	r2, r2, r3
 245 0114 B2FBF0F1 		udiv	r1, r2, r0
 246              	.LVL33:
 247              	.L12:
 248              	.LBE11:
 249              	.LBE10:
 342:system_psoc63_cm4.c **** 
 343:system_psoc63_cm4.c ****         }
 344:system_psoc63_cm4.c ****         else
 345:system_psoc63_cm4.c ****         {
 346:system_psoc63_cm4.c ****             pathFreqHz = srcFreqHz;
 347:system_psoc63_cm4.c ****         }
 348:system_psoc63_cm4.c ****     }
 349:system_psoc63_cm4.c ****     else
 350:system_psoc63_cm4.c ****     {
 351:system_psoc63_cm4.c ****         /* Direct */
 352:system_psoc63_cm4.c ****         pathFreqHz = srcFreqHz;
 353:system_psoc63_cm4.c ****     }
 354:system_psoc63_cm4.c **** 
 355:system_psoc63_cm4.c ****     /* Get frequency after hf_clk pre-divider */
 356:system_psoc63_cm4.c ****     pathFreqHz = pathFreqHz >> _FLD2VAL(SRSS_CLK_ROOT_SELECT_ROOT_DIV, SRSS->CLK_ROOT_SELECT[0u]);
 250              		.loc 1 356 0
 251 0118 164B     		ldr	r3, .L23
 252 011a D3F88033 		ldr	r3, [r3, #896]
 253 011e C3F30113 		ubfx	r3, r3, #4, #2
 254 0122 21FA03F2 		lsr	r2, r1, r3
 255              	.LVL34:
 357:system_psoc63_cm4.c ****     cy_Hfclk0FreqHz = pathFreqHz;
 256              		.loc 1 357 0
 257 0126 1549     		ldr	r1, .L23+8
 258 0128 4A60     		str	r2, [r1, #4]
 358:system_psoc63_cm4.c **** 
 359:system_psoc63_cm4.c ****     /* Fast Clock Divider */
 360:system_psoc63_cm4.c ****     fastClkDiv = 1u + _FLD2VAL(CPUSS_CM4_CLOCK_CTL_FAST_INT_DIV, CPUSS->CM4_CLOCK_CTL);
 259              		.loc 1 360 0
 260 012a 1648     		ldr	r0, .L23+16
 261 012c D0F89030 		ldr	r3, [r0, #144]
ARM GAS  C:\Users\gjl\AppData\Local\Temp\cc4ngvX1.s 			page 12


 262 0130 C3F30723 		ubfx	r3, r3, #8, #8
 263 0134 0133     		adds	r3, r3, #1
 264              	.LVL35:
 361:system_psoc63_cm4.c **** 
 362:system_psoc63_cm4.c ****     /* Peripheral Clock Divider */
 363:system_psoc63_cm4.c ****     periClkDiv = 1u + _FLD2VAL(CPUSS_CM0_CLOCK_CTL_PERI_INT_DIV, CPUSS->CM0_CLOCK_CTL);
 265              		.loc 1 363 0
 266 0136 0069     		ldr	r0, [r0, #16]
 267 0138 000E     		lsrs	r0, r0, #24
 268 013a 0130     		adds	r0, r0, #1
 269              	.LVL36:
 364:system_psoc63_cm4.c ****     cy_PeriClkFreqHz = pathFreqHz / periClkDiv;
 270              		.loc 1 364 0
 271 013c B2FBF0F0 		udiv	r0, r2, r0
 272              	.LVL37:
 273 0140 8860     		str	r0, [r1, #8]
 365:system_psoc63_cm4.c **** 
 366:system_psoc63_cm4.c ****     pathFreqHz = pathFreqHz / fastClkDiv;
 274              		.loc 1 366 0
 275 0142 B2FBF3F3 		udiv	r3, r2, r3
 276              	.LVL38:
 367:system_psoc63_cm4.c ****     SystemCoreClock = pathFreqHz;
 277              		.loc 1 367 0
 278 0146 CB60     		str	r3, [r1, #12]
 368:system_psoc63_cm4.c **** 
 369:system_psoc63_cm4.c ****     /* Sets clock frequency for Delay API */
 370:system_psoc63_cm4.c ****     cy_delayFreqHz = SystemCoreClock;
 279              		.loc 1 370 0
 280 0148 0B61     		str	r3, [r1, #16]
 371:system_psoc63_cm4.c ****     cy_delayFreqMhz = (uint8_t)((cy_delayFreqHz + CY_DELAY_1M_MINUS_1_THRESHOLD) / CY_DELAY_1M_THRE
 281              		.loc 1 371 0
 282 014a 03F57422 		add	r2, r3, #999424
 283 014e 02F23F22 		addw	r2, r2, #575
 284 0152 0D48     		ldr	r0, .L23+20
 285 0154 A0FB0202 		umull	r0, r2, r0, r2
 286 0158 C2F38742 		ubfx	r2, r2, #18, #8
 287 015c 0A75     		strb	r2, [r1, #20]
 372:system_psoc63_cm4.c ****     cy_delayFreqKhz = (cy_delayFreqHz + CY_DELAY_1K_MINUS_1_THRESHOLD) / CY_DELAY_1K_THRESHOLD;
 288              		.loc 1 372 0
 289 015e 03F2E733 		addw	r3, r3, #999
 290              	.LVL39:
 291 0162 0A4A     		ldr	r2, .L23+24
 292 0164 A2FB0323 		umull	r2, r3, r2, r3
 293 0168 9B09     		lsrs	r3, r3, #6
 294 016a 8B61     		str	r3, [r1, #24]
 373:system_psoc63_cm4.c ****     cy_delay32kMs   = CY_DELAY_MS_OVERFLOW_THRESHOLD * cy_delayFreqKhz;
 295              		.loc 1 373 0
 296 016c DB03     		lsls	r3, r3, #15
 297 016e CB61     		str	r3, [r1, #28]
 298 0170 7047     		bx	lr
 299              	.L24:
 300 0172 00BF     		.align	2
 301              	.L23:
 302 0174 00002640 		.word	1076232192
 303 0178 00127A00 		.word	8000000
 304 017c 00000000 		.word	.LANCHOR0
 305 0180 00366E01 		.word	24000000
ARM GAS  C:\Users\gjl\AppData\Local\Temp\cc4ngvX1.s 			page 13


 306 0184 00002140 		.word	1075904512
 307 0188 83DE1B43 		.word	1125899907
 308 018c D34D6210 		.word	274877907
 309              		.cfi_endproc
 310              	.LFE146:
 311              		.size	SystemCoreClockUpdate, .-SystemCoreClockUpdate
 312              		.section	.text.SystemInit,"ax",%progbits
 313              		.align	2
 314              		.global	SystemInit
 315              		.thumb
 316              		.thumb_func
 317              		.type	SystemInit, %function
 318              	SystemInit:
 319              	.LFB144:
 157:system_psoc63_cm4.c **** #if (__CM0P_PRESENT == 0)
 320              		.loc 1 157 0
 321              		.cfi_startproc
 322              		@ args = 0, pretend = 0, frame = 0
 323              		@ frame_needed = 0, uses_anonymous_args = 0
 324 0000 08B5     		push	{r3, lr}
 325              		.cfi_def_cfa_offset 8
 326              		.cfi_offset 3, -8
 327              		.cfi_offset 14, -4
 175:system_psoc63_cm4.c ****     SRSS->WDT_CTL = (SRSS->WDT_CTL | CY_WDT_LOCK_BIT1);
 328              		.loc 1 175 0
 329 0002 104B     		ldr	r3, .L27
 330 0004 D3F88021 		ldr	r2, [r3, #384]
 331 0008 22F04042 		bic	r2, r2, #-1073741824
 332 000c 42F08042 		orr	r2, r2, #1073741824
 333 0010 C3F88021 		str	r2, [r3, #384]
 176:system_psoc63_cm4.c ****     SRSS->WDT_CTL &= (~ (uint32_t) SRSS_WDT_CTL_WDT_EN_Msk);
 334              		.loc 1 176 0
 335 0014 D3F88021 		ldr	r2, [r3, #384]
 336 0018 42F00042 		orr	r2, r2, #-2147483648
 337 001c C3F88021 		str	r2, [r3, #384]
 177:system_psoc63_cm4.c **** 
 338              		.loc 1 177 0
 339 0020 D3F88021 		ldr	r2, [r3, #384]
 340 0024 22F00102 		bic	r2, r2, #1
 341 0028 C3F88021 		str	r2, [r3, #384]
 179:system_psoc63_cm4.c ****     SystemCoreClockUpdate();
 342              		.loc 1 179 0
 343 002c FFF7FEFF 		bl	Cy_SystemInit
 344              	.LVL40:
 180:system_psoc63_cm4.c **** 
 345              		.loc 1 180 0
 346 0030 FFF7FEFF 		bl	SystemCoreClockUpdate
 347              	.LVL41:
 184:system_psoc63_cm4.c ****     Cy_IPC_SystemPipeInit();
 348              		.loc 1 184 0
 349 0034 FFF7FEFF 		bl	Cy_IPC_SystemSemaInit
 350              	.LVL42:
 185:system_psoc63_cm4.c ****     Cy_Flash_Init();
 351              		.loc 1 185 0
 352 0038 FFF7FEFF 		bl	Cy_IPC_SystemPipeInit
 353              	.LVL43:
 186:system_psoc63_cm4.c **** #endif /* defined(CY_DEVICE_PSOC6ABLE2) && !defined(CY_IPC_DEFAULT_CFG_DISABLE) */
ARM GAS  C:\Users\gjl\AppData\Local\Temp\cc4ngvX1.s 			page 14


 354              		.loc 1 186 0
 355 003c FFF7FEFF 		bl	Cy_Flash_Init
 356              	.LVL44:
 357 0040 08BD     		pop	{r3, pc}
 358              	.L28:
 359 0042 00BF     		.align	2
 360              	.L27:
 361 0044 00002640 		.word	1076232192
 362              		.cfi_endproc
 363              	.LFE144:
 364              		.size	SystemInit, .-SystemInit
 365              		.section	.text.Cy_SystemInitFpuEnable,"ax",%progbits
 366              		.align	2
 367              		.global	Cy_SystemInitFpuEnable
 368              		.thumb
 369              		.thumb_func
 370              		.type	Cy_SystemInitFpuEnable, %function
 371              	Cy_SystemInitFpuEnable:
 372              	.LFB147:
 374:system_psoc63_cm4.c **** }
 375:system_psoc63_cm4.c **** 
 376:system_psoc63_cm4.c **** 
 377:system_psoc63_cm4.c **** /*******************************************************************************
 378:system_psoc63_cm4.c **** * Function Name: Cy_SystemInitFpuEnable
 379:system_psoc63_cm4.c **** ****************************************************************************//**
 380:system_psoc63_cm4.c **** *
 381:system_psoc63_cm4.c **** * Enables the FPU if it is used. The function is called from the startup file.
 382:system_psoc63_cm4.c **** *
 383:system_psoc63_cm4.c **** *******************************************************************************/
 384:system_psoc63_cm4.c **** void Cy_SystemInitFpuEnable(void)
 385:system_psoc63_cm4.c **** {
 373              		.loc 1 385 0
 374              		.cfi_startproc
 375              		@ args = 0, pretend = 0, frame = 0
 376              		@ frame_needed = 0, uses_anonymous_args = 0
 377 0000 08B5     		push	{r3, lr}
 378              		.cfi_def_cfa_offset 8
 379              		.cfi_offset 3, -8
 380              		.cfi_offset 14, -4
 386:system_psoc63_cm4.c ****     #if defined (__FPU_USED) && (__FPU_USED == 1U)
 387:system_psoc63_cm4.c ****         uint32_t  interruptState;
 388:system_psoc63_cm4.c ****         interruptState = Cy_SaveIRQ();
 381              		.loc 1 388 0
 382 0002 FFF7FEFF 		bl	Cy_SaveIRQ
 383              	.LVL45:
 389:system_psoc63_cm4.c ****         SCB->CPACR |= SCB_CPACR_CP10_CP11_ENABLE;
 384              		.loc 1 389 0
 385 0006 074A     		ldr	r2, .L31
 386 0008 D2F88830 		ldr	r3, [r2, #136]
 387 000c 43F47003 		orr	r3, r3, #15728640
 388 0010 C2F88830 		str	r3, [r2, #136]
 389              	.LBB12:
 390              	.LBB13:
 391              		.file 2 "Generated_Source\\PSoC6\\pdl\\cmsis/include/cmsis_gcc.h"
   1:Generated_Source\PSoC6\pdl\cmsis/include/cmsis_gcc.h **** /**************************************************************************//**
   2:Generated_Source\PSoC6\pdl\cmsis/include/cmsis_gcc.h ****  * @file     cmsis_gcc.h
   3:Generated_Source\PSoC6\pdl\cmsis/include/cmsis_gcc.h ****  * @brief    CMSIS compiler GCC header file
ARM GAS  C:\Users\gjl\AppData\Local\Temp\cc4ngvX1.s 			page 15


   4:Generated_Source\PSoC6\pdl\cmsis/include/cmsis_gcc.h ****  * @version  V5.0.1
   5:Generated_Source\PSoC6\pdl\cmsis/include/cmsis_gcc.h ****  * @date     02. February 2017
   6:Generated_Source\PSoC6\pdl\cmsis/include/cmsis_gcc.h ****  ******************************************************************************/
   7:Generated_Source\PSoC6\pdl\cmsis/include/cmsis_gcc.h **** /*
   8:Generated_Source\PSoC6\pdl\cmsis/include/cmsis_gcc.h ****  * Copyright (c) 2009-2017 ARM Limited. All rights reserved.
   9:Generated_Source\PSoC6\pdl\cmsis/include/cmsis_gcc.h ****  *
  10:Generated_Source\PSoC6\pdl\cmsis/include/cmsis_gcc.h ****  * SPDX-License-Identifier: Apache-2.0
  11:Generated_Source\PSoC6\pdl\cmsis/include/cmsis_gcc.h ****  *
  12:Generated_Source\PSoC6\pdl\cmsis/include/cmsis_gcc.h ****  * Licensed under the Apache License, Version 2.0 (the License); you may
  13:Generated_Source\PSoC6\pdl\cmsis/include/cmsis_gcc.h ****  * not use this file except in compliance with the License.
  14:Generated_Source\PSoC6\pdl\cmsis/include/cmsis_gcc.h ****  * You may obtain a copy of the License at
  15:Generated_Source\PSoC6\pdl\cmsis/include/cmsis_gcc.h ****  *
  16:Generated_Source\PSoC6\pdl\cmsis/include/cmsis_gcc.h ****  * www.apache.org/licenses/LICENSE-2.0
  17:Generated_Source\PSoC6\pdl\cmsis/include/cmsis_gcc.h ****  *
  18:Generated_Source\PSoC6\pdl\cmsis/include/cmsis_gcc.h ****  * Unless required by applicable law or agreed to in writing, software
  19:Generated_Source\PSoC6\pdl\cmsis/include/cmsis_gcc.h ****  * distributed under the License is distributed on an AS IS BASIS, WITHOUT
  20:Generated_Source\PSoC6\pdl\cmsis/include/cmsis_gcc.h ****  * WARRANTIES OR CONDITIONS OF ANY KIND, either express or implied.
  21:Generated_Source\PSoC6\pdl\cmsis/include/cmsis_gcc.h ****  * See the License for the specific language governing permissions and
  22:Generated_Source\PSoC6\pdl\cmsis/include/cmsis_gcc.h ****  * limitations under the License.
  23:Generated_Source\PSoC6\pdl\cmsis/include/cmsis_gcc.h ****  */
  24:Generated_Source\PSoC6\pdl\cmsis/include/cmsis_gcc.h **** 
  25:Generated_Source\PSoC6\pdl\cmsis/include/cmsis_gcc.h **** #ifndef __CMSIS_GCC_H
  26:Generated_Source\PSoC6\pdl\cmsis/include/cmsis_gcc.h **** #define __CMSIS_GCC_H
  27:Generated_Source\PSoC6\pdl\cmsis/include/cmsis_gcc.h **** 
  28:Generated_Source\PSoC6\pdl\cmsis/include/cmsis_gcc.h **** /* ignore some GCC warnings */
  29:Generated_Source\PSoC6\pdl\cmsis/include/cmsis_gcc.h **** #pragma GCC diagnostic push
  30:Generated_Source\PSoC6\pdl\cmsis/include/cmsis_gcc.h **** #pragma GCC diagnostic ignored "-Wsign-conversion"
  31:Generated_Source\PSoC6\pdl\cmsis/include/cmsis_gcc.h **** #pragma GCC diagnostic ignored "-Wconversion"
  32:Generated_Source\PSoC6\pdl\cmsis/include/cmsis_gcc.h **** #pragma GCC diagnostic ignored "-Wunused-parameter"
  33:Generated_Source\PSoC6\pdl\cmsis/include/cmsis_gcc.h **** 
  34:Generated_Source\PSoC6\pdl\cmsis/include/cmsis_gcc.h **** /* CMSIS compiler specific defines */
  35:Generated_Source\PSoC6\pdl\cmsis/include/cmsis_gcc.h **** #ifndef   __ASM
  36:Generated_Source\PSoC6\pdl\cmsis/include/cmsis_gcc.h ****   #define __ASM                     __asm
  37:Generated_Source\PSoC6\pdl\cmsis/include/cmsis_gcc.h **** #endif
  38:Generated_Source\PSoC6\pdl\cmsis/include/cmsis_gcc.h **** #ifndef   __INLINE
  39:Generated_Source\PSoC6\pdl\cmsis/include/cmsis_gcc.h ****   #define __INLINE                  inline
  40:Generated_Source\PSoC6\pdl\cmsis/include/cmsis_gcc.h **** #endif
  41:Generated_Source\PSoC6\pdl\cmsis/include/cmsis_gcc.h **** #ifndef   __STATIC_INLINE
  42:Generated_Source\PSoC6\pdl\cmsis/include/cmsis_gcc.h ****   #define __STATIC_INLINE           static inline
  43:Generated_Source\PSoC6\pdl\cmsis/include/cmsis_gcc.h **** #endif
  44:Generated_Source\PSoC6\pdl\cmsis/include/cmsis_gcc.h **** #ifndef   __NO_RETURN
  45:Generated_Source\PSoC6\pdl\cmsis/include/cmsis_gcc.h ****   #define __NO_RETURN               __attribute__((noreturn))
  46:Generated_Source\PSoC6\pdl\cmsis/include/cmsis_gcc.h **** #endif
  47:Generated_Source\PSoC6\pdl\cmsis/include/cmsis_gcc.h **** #ifndef   __USED
  48:Generated_Source\PSoC6\pdl\cmsis/include/cmsis_gcc.h ****   #define __USED                    __attribute__((used))
  49:Generated_Source\PSoC6\pdl\cmsis/include/cmsis_gcc.h **** #endif
  50:Generated_Source\PSoC6\pdl\cmsis/include/cmsis_gcc.h **** #ifndef   __WEAK
  51:Generated_Source\PSoC6\pdl\cmsis/include/cmsis_gcc.h ****   #define __WEAK                    __attribute__((weak))
  52:Generated_Source\PSoC6\pdl\cmsis/include/cmsis_gcc.h **** #endif
  53:Generated_Source\PSoC6\pdl\cmsis/include/cmsis_gcc.h **** #ifndef   __UNALIGNED_UINT32
  54:Generated_Source\PSoC6\pdl\cmsis/include/cmsis_gcc.h **** #pragma GCC diagnostic push
  55:Generated_Source\PSoC6\pdl\cmsis/include/cmsis_gcc.h **** #pragma GCC diagnostic ignored "-Wpacked"
  56:Generated_Source\PSoC6\pdl\cmsis/include/cmsis_gcc.h **** #pragma GCC diagnostic ignored "-Wattributes"
  57:Generated_Source\PSoC6\pdl\cmsis/include/cmsis_gcc.h ****   struct __attribute__((packed)) T_UINT32 { uint32_t v; };
  58:Generated_Source\PSoC6\pdl\cmsis/include/cmsis_gcc.h **** #pragma GCC diagnostic pop
  59:Generated_Source\PSoC6\pdl\cmsis/include/cmsis_gcc.h ****   #define __UNALIGNED_UINT32(x)     (((struct T_UINT32 *)(x))->v)
  60:Generated_Source\PSoC6\pdl\cmsis/include/cmsis_gcc.h **** #endif
ARM GAS  C:\Users\gjl\AppData\Local\Temp\cc4ngvX1.s 			page 16


  61:Generated_Source\PSoC6\pdl\cmsis/include/cmsis_gcc.h **** #ifndef   __ALIGNED
  62:Generated_Source\PSoC6\pdl\cmsis/include/cmsis_gcc.h ****   #define __ALIGNED(x)              __attribute__((aligned(x)))
  63:Generated_Source\PSoC6\pdl\cmsis/include/cmsis_gcc.h **** #endif
  64:Generated_Source\PSoC6\pdl\cmsis/include/cmsis_gcc.h **** #ifndef   __PACKED
  65:Generated_Source\PSoC6\pdl\cmsis/include/cmsis_gcc.h ****   #define __PACKED                  __attribute__((packed, aligned(1)))
  66:Generated_Source\PSoC6\pdl\cmsis/include/cmsis_gcc.h **** #endif
  67:Generated_Source\PSoC6\pdl\cmsis/include/cmsis_gcc.h **** #ifndef   __PACKED_STRUCT
  68:Generated_Source\PSoC6\pdl\cmsis/include/cmsis_gcc.h ****   #define __PACKED_STRUCT           struct __attribute__((packed, aligned(1)))
  69:Generated_Source\PSoC6\pdl\cmsis/include/cmsis_gcc.h **** #endif
  70:Generated_Source\PSoC6\pdl\cmsis/include/cmsis_gcc.h **** 
  71:Generated_Source\PSoC6\pdl\cmsis/include/cmsis_gcc.h **** 
  72:Generated_Source\PSoC6\pdl\cmsis/include/cmsis_gcc.h **** /* ###########################  Core Function Access  ########################### */
  73:Generated_Source\PSoC6\pdl\cmsis/include/cmsis_gcc.h **** /** \ingroup  CMSIS_Core_FunctionInterface
  74:Generated_Source\PSoC6\pdl\cmsis/include/cmsis_gcc.h ****     \defgroup CMSIS_Core_RegAccFunctions CMSIS Core Register Access Functions
  75:Generated_Source\PSoC6\pdl\cmsis/include/cmsis_gcc.h ****   @{
  76:Generated_Source\PSoC6\pdl\cmsis/include/cmsis_gcc.h ****  */
  77:Generated_Source\PSoC6\pdl\cmsis/include/cmsis_gcc.h **** 
  78:Generated_Source\PSoC6\pdl\cmsis/include/cmsis_gcc.h **** /**
  79:Generated_Source\PSoC6\pdl\cmsis/include/cmsis_gcc.h ****   \brief   Enable IRQ Interrupts
  80:Generated_Source\PSoC6\pdl\cmsis/include/cmsis_gcc.h ****   \details Enables IRQ interrupts by clearing the I-bit in the CPSR.
  81:Generated_Source\PSoC6\pdl\cmsis/include/cmsis_gcc.h ****            Can only be executed in Privileged modes.
  82:Generated_Source\PSoC6\pdl\cmsis/include/cmsis_gcc.h ****  */
  83:Generated_Source\PSoC6\pdl\cmsis/include/cmsis_gcc.h **** __attribute__((always_inline)) __STATIC_INLINE void __enable_irq(void)
  84:Generated_Source\PSoC6\pdl\cmsis/include/cmsis_gcc.h **** {
  85:Generated_Source\PSoC6\pdl\cmsis/include/cmsis_gcc.h ****   __ASM volatile ("cpsie i" : : : "memory");
  86:Generated_Source\PSoC6\pdl\cmsis/include/cmsis_gcc.h **** }
  87:Generated_Source\PSoC6\pdl\cmsis/include/cmsis_gcc.h **** 
  88:Generated_Source\PSoC6\pdl\cmsis/include/cmsis_gcc.h **** 
  89:Generated_Source\PSoC6\pdl\cmsis/include/cmsis_gcc.h **** /**
  90:Generated_Source\PSoC6\pdl\cmsis/include/cmsis_gcc.h ****   \brief   Disable IRQ Interrupts
  91:Generated_Source\PSoC6\pdl\cmsis/include/cmsis_gcc.h ****   \details Disables IRQ interrupts by setting the I-bit in the CPSR.
  92:Generated_Source\PSoC6\pdl\cmsis/include/cmsis_gcc.h ****            Can only be executed in Privileged modes.
  93:Generated_Source\PSoC6\pdl\cmsis/include/cmsis_gcc.h ****  */
  94:Generated_Source\PSoC6\pdl\cmsis/include/cmsis_gcc.h **** __attribute__((always_inline)) __STATIC_INLINE void __disable_irq(void)
  95:Generated_Source\PSoC6\pdl\cmsis/include/cmsis_gcc.h **** {
  96:Generated_Source\PSoC6\pdl\cmsis/include/cmsis_gcc.h ****   __ASM volatile ("cpsid i" : : : "memory");
  97:Generated_Source\PSoC6\pdl\cmsis/include/cmsis_gcc.h **** }
  98:Generated_Source\PSoC6\pdl\cmsis/include/cmsis_gcc.h **** 
  99:Generated_Source\PSoC6\pdl\cmsis/include/cmsis_gcc.h **** 
 100:Generated_Source\PSoC6\pdl\cmsis/include/cmsis_gcc.h **** /**
 101:Generated_Source\PSoC6\pdl\cmsis/include/cmsis_gcc.h ****   \brief   Get Control Register
 102:Generated_Source\PSoC6\pdl\cmsis/include/cmsis_gcc.h ****   \details Returns the content of the Control Register.
 103:Generated_Source\PSoC6\pdl\cmsis/include/cmsis_gcc.h ****   \return               Control Register value
 104:Generated_Source\PSoC6\pdl\cmsis/include/cmsis_gcc.h ****  */
 105:Generated_Source\PSoC6\pdl\cmsis/include/cmsis_gcc.h **** __attribute__((always_inline)) __STATIC_INLINE uint32_t __get_CONTROL(void)
 106:Generated_Source\PSoC6\pdl\cmsis/include/cmsis_gcc.h **** {
 107:Generated_Source\PSoC6\pdl\cmsis/include/cmsis_gcc.h ****   uint32_t result;
 108:Generated_Source\PSoC6\pdl\cmsis/include/cmsis_gcc.h **** 
 109:Generated_Source\PSoC6\pdl\cmsis/include/cmsis_gcc.h ****   __ASM volatile ("MRS %0, control" : "=r" (result) );
 110:Generated_Source\PSoC6\pdl\cmsis/include/cmsis_gcc.h ****   return(result);
 111:Generated_Source\PSoC6\pdl\cmsis/include/cmsis_gcc.h **** }
 112:Generated_Source\PSoC6\pdl\cmsis/include/cmsis_gcc.h **** 
 113:Generated_Source\PSoC6\pdl\cmsis/include/cmsis_gcc.h **** 
 114:Generated_Source\PSoC6\pdl\cmsis/include/cmsis_gcc.h **** #if (defined (__ARM_FEATURE_CMSE ) && (__ARM_FEATURE_CMSE == 3))
 115:Generated_Source\PSoC6\pdl\cmsis/include/cmsis_gcc.h **** /**
 116:Generated_Source\PSoC6\pdl\cmsis/include/cmsis_gcc.h ****   \brief   Get Control Register (non-secure)
 117:Generated_Source\PSoC6\pdl\cmsis/include/cmsis_gcc.h ****   \details Returns the content of the non-secure Control Register when in secure mode.
ARM GAS  C:\Users\gjl\AppData\Local\Temp\cc4ngvX1.s 			page 17


 118:Generated_Source\PSoC6\pdl\cmsis/include/cmsis_gcc.h ****   \return               non-secure Control Register value
 119:Generated_Source\PSoC6\pdl\cmsis/include/cmsis_gcc.h ****  */
 120:Generated_Source\PSoC6\pdl\cmsis/include/cmsis_gcc.h **** __attribute__((always_inline)) __STATIC_INLINE uint32_t __TZ_get_CONTROL_NS(void)
 121:Generated_Source\PSoC6\pdl\cmsis/include/cmsis_gcc.h **** {
 122:Generated_Source\PSoC6\pdl\cmsis/include/cmsis_gcc.h ****   uint32_t result;
 123:Generated_Source\PSoC6\pdl\cmsis/include/cmsis_gcc.h **** 
 124:Generated_Source\PSoC6\pdl\cmsis/include/cmsis_gcc.h ****   __ASM volatile ("MRS %0, control_ns" : "=r" (result) );
 125:Generated_Source\PSoC6\pdl\cmsis/include/cmsis_gcc.h ****   return(result);
 126:Generated_Source\PSoC6\pdl\cmsis/include/cmsis_gcc.h **** }
 127:Generated_Source\PSoC6\pdl\cmsis/include/cmsis_gcc.h **** #endif
 128:Generated_Source\PSoC6\pdl\cmsis/include/cmsis_gcc.h **** 
 129:Generated_Source\PSoC6\pdl\cmsis/include/cmsis_gcc.h **** 
 130:Generated_Source\PSoC6\pdl\cmsis/include/cmsis_gcc.h **** /**
 131:Generated_Source\PSoC6\pdl\cmsis/include/cmsis_gcc.h ****   \brief   Set Control Register
 132:Generated_Source\PSoC6\pdl\cmsis/include/cmsis_gcc.h ****   \details Writes the given value to the Control Register.
 133:Generated_Source\PSoC6\pdl\cmsis/include/cmsis_gcc.h ****   \param [in]    control  Control Register value to set
 134:Generated_Source\PSoC6\pdl\cmsis/include/cmsis_gcc.h ****  */
 135:Generated_Source\PSoC6\pdl\cmsis/include/cmsis_gcc.h **** __attribute__((always_inline)) __STATIC_INLINE void __set_CONTROL(uint32_t control)
 136:Generated_Source\PSoC6\pdl\cmsis/include/cmsis_gcc.h **** {
 137:Generated_Source\PSoC6\pdl\cmsis/include/cmsis_gcc.h ****   __ASM volatile ("MSR control, %0" : : "r" (control) : "memory");
 138:Generated_Source\PSoC6\pdl\cmsis/include/cmsis_gcc.h **** }
 139:Generated_Source\PSoC6\pdl\cmsis/include/cmsis_gcc.h **** 
 140:Generated_Source\PSoC6\pdl\cmsis/include/cmsis_gcc.h **** 
 141:Generated_Source\PSoC6\pdl\cmsis/include/cmsis_gcc.h **** #if (defined (__ARM_FEATURE_CMSE ) && (__ARM_FEATURE_CMSE == 3))
 142:Generated_Source\PSoC6\pdl\cmsis/include/cmsis_gcc.h **** /**
 143:Generated_Source\PSoC6\pdl\cmsis/include/cmsis_gcc.h ****   \brief   Set Control Register (non-secure)
 144:Generated_Source\PSoC6\pdl\cmsis/include/cmsis_gcc.h ****   \details Writes the given value to the non-secure Control Register when in secure state.
 145:Generated_Source\PSoC6\pdl\cmsis/include/cmsis_gcc.h ****   \param [in]    control  Control Register value to set
 146:Generated_Source\PSoC6\pdl\cmsis/include/cmsis_gcc.h ****  */
 147:Generated_Source\PSoC6\pdl\cmsis/include/cmsis_gcc.h **** __attribute__((always_inline)) __STATIC_INLINE void __TZ_set_CONTROL_NS(uint32_t control)
 148:Generated_Source\PSoC6\pdl\cmsis/include/cmsis_gcc.h **** {
 149:Generated_Source\PSoC6\pdl\cmsis/include/cmsis_gcc.h ****   __ASM volatile ("MSR control_ns, %0" : : "r" (control) : "memory");
 150:Generated_Source\PSoC6\pdl\cmsis/include/cmsis_gcc.h **** }
 151:Generated_Source\PSoC6\pdl\cmsis/include/cmsis_gcc.h **** #endif
 152:Generated_Source\PSoC6\pdl\cmsis/include/cmsis_gcc.h **** 
 153:Generated_Source\PSoC6\pdl\cmsis/include/cmsis_gcc.h **** 
 154:Generated_Source\PSoC6\pdl\cmsis/include/cmsis_gcc.h **** /**
 155:Generated_Source\PSoC6\pdl\cmsis/include/cmsis_gcc.h ****   \brief   Get IPSR Register
 156:Generated_Source\PSoC6\pdl\cmsis/include/cmsis_gcc.h ****   \details Returns the content of the IPSR Register.
 157:Generated_Source\PSoC6\pdl\cmsis/include/cmsis_gcc.h ****   \return               IPSR Register value
 158:Generated_Source\PSoC6\pdl\cmsis/include/cmsis_gcc.h ****  */
 159:Generated_Source\PSoC6\pdl\cmsis/include/cmsis_gcc.h **** __attribute__((always_inline)) __STATIC_INLINE uint32_t __get_IPSR(void)
 160:Generated_Source\PSoC6\pdl\cmsis/include/cmsis_gcc.h **** {
 161:Generated_Source\PSoC6\pdl\cmsis/include/cmsis_gcc.h ****   uint32_t result;
 162:Generated_Source\PSoC6\pdl\cmsis/include/cmsis_gcc.h **** 
 163:Generated_Source\PSoC6\pdl\cmsis/include/cmsis_gcc.h ****   __ASM volatile ("MRS %0, ipsr" : "=r" (result) );
 164:Generated_Source\PSoC6\pdl\cmsis/include/cmsis_gcc.h ****   return(result);
 165:Generated_Source\PSoC6\pdl\cmsis/include/cmsis_gcc.h **** }
 166:Generated_Source\PSoC6\pdl\cmsis/include/cmsis_gcc.h **** 
 167:Generated_Source\PSoC6\pdl\cmsis/include/cmsis_gcc.h **** 
 168:Generated_Source\PSoC6\pdl\cmsis/include/cmsis_gcc.h **** /**
 169:Generated_Source\PSoC6\pdl\cmsis/include/cmsis_gcc.h ****   \brief   Get APSR Register
 170:Generated_Source\PSoC6\pdl\cmsis/include/cmsis_gcc.h ****   \details Returns the content of the APSR Register.
 171:Generated_Source\PSoC6\pdl\cmsis/include/cmsis_gcc.h ****   \return               APSR Register value
 172:Generated_Source\PSoC6\pdl\cmsis/include/cmsis_gcc.h ****  */
 173:Generated_Source\PSoC6\pdl\cmsis/include/cmsis_gcc.h **** __attribute__((always_inline)) __STATIC_INLINE uint32_t __get_APSR(void)
 174:Generated_Source\PSoC6\pdl\cmsis/include/cmsis_gcc.h **** {
ARM GAS  C:\Users\gjl\AppData\Local\Temp\cc4ngvX1.s 			page 18


 175:Generated_Source\PSoC6\pdl\cmsis/include/cmsis_gcc.h ****   uint32_t result;
 176:Generated_Source\PSoC6\pdl\cmsis/include/cmsis_gcc.h **** 
 177:Generated_Source\PSoC6\pdl\cmsis/include/cmsis_gcc.h ****   __ASM volatile ("MRS %0, apsr" : "=r" (result) );
 178:Generated_Source\PSoC6\pdl\cmsis/include/cmsis_gcc.h ****   return(result);
 179:Generated_Source\PSoC6\pdl\cmsis/include/cmsis_gcc.h **** }
 180:Generated_Source\PSoC6\pdl\cmsis/include/cmsis_gcc.h **** 
 181:Generated_Source\PSoC6\pdl\cmsis/include/cmsis_gcc.h **** 
 182:Generated_Source\PSoC6\pdl\cmsis/include/cmsis_gcc.h **** /**
 183:Generated_Source\PSoC6\pdl\cmsis/include/cmsis_gcc.h ****   \brief   Get xPSR Register
 184:Generated_Source\PSoC6\pdl\cmsis/include/cmsis_gcc.h ****   \details Returns the content of the xPSR Register.
 185:Generated_Source\PSoC6\pdl\cmsis/include/cmsis_gcc.h ****   \return               xPSR Register value
 186:Generated_Source\PSoC6\pdl\cmsis/include/cmsis_gcc.h ****  */
 187:Generated_Source\PSoC6\pdl\cmsis/include/cmsis_gcc.h **** __attribute__((always_inline)) __STATIC_INLINE uint32_t __get_xPSR(void)
 188:Generated_Source\PSoC6\pdl\cmsis/include/cmsis_gcc.h **** {
 189:Generated_Source\PSoC6\pdl\cmsis/include/cmsis_gcc.h ****   uint32_t result;
 190:Generated_Source\PSoC6\pdl\cmsis/include/cmsis_gcc.h **** 
 191:Generated_Source\PSoC6\pdl\cmsis/include/cmsis_gcc.h ****   __ASM volatile ("MRS %0, xpsr" : "=r" (result) );
 192:Generated_Source\PSoC6\pdl\cmsis/include/cmsis_gcc.h ****   return(result);
 193:Generated_Source\PSoC6\pdl\cmsis/include/cmsis_gcc.h **** }
 194:Generated_Source\PSoC6\pdl\cmsis/include/cmsis_gcc.h **** 
 195:Generated_Source\PSoC6\pdl\cmsis/include/cmsis_gcc.h **** 
 196:Generated_Source\PSoC6\pdl\cmsis/include/cmsis_gcc.h **** /**
 197:Generated_Source\PSoC6\pdl\cmsis/include/cmsis_gcc.h ****   \brief   Get Process Stack Pointer
 198:Generated_Source\PSoC6\pdl\cmsis/include/cmsis_gcc.h ****   \details Returns the current value of the Process Stack Pointer (PSP).
 199:Generated_Source\PSoC6\pdl\cmsis/include/cmsis_gcc.h ****   \return               PSP Register value
 200:Generated_Source\PSoC6\pdl\cmsis/include/cmsis_gcc.h ****  */
 201:Generated_Source\PSoC6\pdl\cmsis/include/cmsis_gcc.h **** __attribute__((always_inline)) __STATIC_INLINE uint32_t __get_PSP(void)
 202:Generated_Source\PSoC6\pdl\cmsis/include/cmsis_gcc.h **** {
 203:Generated_Source\PSoC6\pdl\cmsis/include/cmsis_gcc.h ****   register uint32_t result;
 204:Generated_Source\PSoC6\pdl\cmsis/include/cmsis_gcc.h **** 
 205:Generated_Source\PSoC6\pdl\cmsis/include/cmsis_gcc.h ****   __ASM volatile ("MRS %0, psp"  : "=r" (result) );
 206:Generated_Source\PSoC6\pdl\cmsis/include/cmsis_gcc.h ****   return(result);
 207:Generated_Source\PSoC6\pdl\cmsis/include/cmsis_gcc.h **** }
 208:Generated_Source\PSoC6\pdl\cmsis/include/cmsis_gcc.h **** 
 209:Generated_Source\PSoC6\pdl\cmsis/include/cmsis_gcc.h **** 
 210:Generated_Source\PSoC6\pdl\cmsis/include/cmsis_gcc.h **** #if (defined (__ARM_FEATURE_CMSE ) && (__ARM_FEATURE_CMSE == 3))
 211:Generated_Source\PSoC6\pdl\cmsis/include/cmsis_gcc.h **** /**
 212:Generated_Source\PSoC6\pdl\cmsis/include/cmsis_gcc.h ****   \brief   Get Process Stack Pointer (non-secure)
 213:Generated_Source\PSoC6\pdl\cmsis/include/cmsis_gcc.h ****   \details Returns the current value of the non-secure Process Stack Pointer (PSP) when in secure s
 214:Generated_Source\PSoC6\pdl\cmsis/include/cmsis_gcc.h ****   \return               PSP Register value
 215:Generated_Source\PSoC6\pdl\cmsis/include/cmsis_gcc.h ****  */
 216:Generated_Source\PSoC6\pdl\cmsis/include/cmsis_gcc.h **** __attribute__((always_inline)) __STATIC_INLINE uint32_t __TZ_get_PSP_NS(void)
 217:Generated_Source\PSoC6\pdl\cmsis/include/cmsis_gcc.h **** {
 218:Generated_Source\PSoC6\pdl\cmsis/include/cmsis_gcc.h ****   register uint32_t result;
 219:Generated_Source\PSoC6\pdl\cmsis/include/cmsis_gcc.h **** 
 220:Generated_Source\PSoC6\pdl\cmsis/include/cmsis_gcc.h ****   __ASM volatile ("MRS %0, psp_ns"  : "=r" (result) );
 221:Generated_Source\PSoC6\pdl\cmsis/include/cmsis_gcc.h ****   return(result);
 222:Generated_Source\PSoC6\pdl\cmsis/include/cmsis_gcc.h **** }
 223:Generated_Source\PSoC6\pdl\cmsis/include/cmsis_gcc.h **** #endif
 224:Generated_Source\PSoC6\pdl\cmsis/include/cmsis_gcc.h **** 
 225:Generated_Source\PSoC6\pdl\cmsis/include/cmsis_gcc.h **** 
 226:Generated_Source\PSoC6\pdl\cmsis/include/cmsis_gcc.h **** /**
 227:Generated_Source\PSoC6\pdl\cmsis/include/cmsis_gcc.h ****   \brief   Set Process Stack Pointer
 228:Generated_Source\PSoC6\pdl\cmsis/include/cmsis_gcc.h ****   \details Assigns the given value to the Process Stack Pointer (PSP).
 229:Generated_Source\PSoC6\pdl\cmsis/include/cmsis_gcc.h ****   \param [in]    topOfProcStack  Process Stack Pointer value to set
 230:Generated_Source\PSoC6\pdl\cmsis/include/cmsis_gcc.h ****  */
 231:Generated_Source\PSoC6\pdl\cmsis/include/cmsis_gcc.h **** __attribute__((always_inline)) __STATIC_INLINE void __set_PSP(uint32_t topOfProcStack)
ARM GAS  C:\Users\gjl\AppData\Local\Temp\cc4ngvX1.s 			page 19


 232:Generated_Source\PSoC6\pdl\cmsis/include/cmsis_gcc.h **** {
 233:Generated_Source\PSoC6\pdl\cmsis/include/cmsis_gcc.h ****   __ASM volatile ("MSR psp, %0" : : "r" (topOfProcStack) : );
 234:Generated_Source\PSoC6\pdl\cmsis/include/cmsis_gcc.h **** }
 235:Generated_Source\PSoC6\pdl\cmsis/include/cmsis_gcc.h **** 
 236:Generated_Source\PSoC6\pdl\cmsis/include/cmsis_gcc.h **** 
 237:Generated_Source\PSoC6\pdl\cmsis/include/cmsis_gcc.h **** #if (defined (__ARM_FEATURE_CMSE ) && (__ARM_FEATURE_CMSE == 3))
 238:Generated_Source\PSoC6\pdl\cmsis/include/cmsis_gcc.h **** /**
 239:Generated_Source\PSoC6\pdl\cmsis/include/cmsis_gcc.h ****   \brief   Set Process Stack Pointer (non-secure)
 240:Generated_Source\PSoC6\pdl\cmsis/include/cmsis_gcc.h ****   \details Assigns the given value to the non-secure Process Stack Pointer (PSP) when in secure sta
 241:Generated_Source\PSoC6\pdl\cmsis/include/cmsis_gcc.h ****   \param [in]    topOfProcStack  Process Stack Pointer value to set
 242:Generated_Source\PSoC6\pdl\cmsis/include/cmsis_gcc.h ****  */
 243:Generated_Source\PSoC6\pdl\cmsis/include/cmsis_gcc.h **** __attribute__((always_inline)) __STATIC_INLINE void __TZ_set_PSP_NS(uint32_t topOfProcStack)
 244:Generated_Source\PSoC6\pdl\cmsis/include/cmsis_gcc.h **** {
 245:Generated_Source\PSoC6\pdl\cmsis/include/cmsis_gcc.h ****   __ASM volatile ("MSR psp_ns, %0" : : "r" (topOfProcStack) : );
 246:Generated_Source\PSoC6\pdl\cmsis/include/cmsis_gcc.h **** }
 247:Generated_Source\PSoC6\pdl\cmsis/include/cmsis_gcc.h **** #endif
 248:Generated_Source\PSoC6\pdl\cmsis/include/cmsis_gcc.h **** 
 249:Generated_Source\PSoC6\pdl\cmsis/include/cmsis_gcc.h **** 
 250:Generated_Source\PSoC6\pdl\cmsis/include/cmsis_gcc.h **** /**
 251:Generated_Source\PSoC6\pdl\cmsis/include/cmsis_gcc.h ****   \brief   Get Main Stack Pointer
 252:Generated_Source\PSoC6\pdl\cmsis/include/cmsis_gcc.h ****   \details Returns the current value of the Main Stack Pointer (MSP).
 253:Generated_Source\PSoC6\pdl\cmsis/include/cmsis_gcc.h ****   \return               MSP Register value
 254:Generated_Source\PSoC6\pdl\cmsis/include/cmsis_gcc.h ****  */
 255:Generated_Source\PSoC6\pdl\cmsis/include/cmsis_gcc.h **** __attribute__((always_inline)) __STATIC_INLINE uint32_t __get_MSP(void)
 256:Generated_Source\PSoC6\pdl\cmsis/include/cmsis_gcc.h **** {
 257:Generated_Source\PSoC6\pdl\cmsis/include/cmsis_gcc.h ****   register uint32_t result;
 258:Generated_Source\PSoC6\pdl\cmsis/include/cmsis_gcc.h **** 
 259:Generated_Source\PSoC6\pdl\cmsis/include/cmsis_gcc.h ****   __ASM volatile ("MRS %0, msp" : "=r" (result) );
 260:Generated_Source\PSoC6\pdl\cmsis/include/cmsis_gcc.h ****   return(result);
 261:Generated_Source\PSoC6\pdl\cmsis/include/cmsis_gcc.h **** }
 262:Generated_Source\PSoC6\pdl\cmsis/include/cmsis_gcc.h **** 
 263:Generated_Source\PSoC6\pdl\cmsis/include/cmsis_gcc.h **** 
 264:Generated_Source\PSoC6\pdl\cmsis/include/cmsis_gcc.h **** #if (defined (__ARM_FEATURE_CMSE ) && (__ARM_FEATURE_CMSE == 3))
 265:Generated_Source\PSoC6\pdl\cmsis/include/cmsis_gcc.h **** /**
 266:Generated_Source\PSoC6\pdl\cmsis/include/cmsis_gcc.h ****   \brief   Get Main Stack Pointer (non-secure)
 267:Generated_Source\PSoC6\pdl\cmsis/include/cmsis_gcc.h ****   \details Returns the current value of the non-secure Main Stack Pointer (MSP) when in secure stat
 268:Generated_Source\PSoC6\pdl\cmsis/include/cmsis_gcc.h ****   \return               MSP Register value
 269:Generated_Source\PSoC6\pdl\cmsis/include/cmsis_gcc.h ****  */
 270:Generated_Source\PSoC6\pdl\cmsis/include/cmsis_gcc.h **** __attribute__((always_inline)) __STATIC_INLINE uint32_t __TZ_get_MSP_NS(void)
 271:Generated_Source\PSoC6\pdl\cmsis/include/cmsis_gcc.h **** {
 272:Generated_Source\PSoC6\pdl\cmsis/include/cmsis_gcc.h ****   register uint32_t result;
 273:Generated_Source\PSoC6\pdl\cmsis/include/cmsis_gcc.h **** 
 274:Generated_Source\PSoC6\pdl\cmsis/include/cmsis_gcc.h ****   __ASM volatile ("MRS %0, msp_ns" : "=r" (result) );
 275:Generated_Source\PSoC6\pdl\cmsis/include/cmsis_gcc.h ****   return(result);
 276:Generated_Source\PSoC6\pdl\cmsis/include/cmsis_gcc.h **** }
 277:Generated_Source\PSoC6\pdl\cmsis/include/cmsis_gcc.h **** #endif
 278:Generated_Source\PSoC6\pdl\cmsis/include/cmsis_gcc.h **** 
 279:Generated_Source\PSoC6\pdl\cmsis/include/cmsis_gcc.h **** 
 280:Generated_Source\PSoC6\pdl\cmsis/include/cmsis_gcc.h **** /**
 281:Generated_Source\PSoC6\pdl\cmsis/include/cmsis_gcc.h ****   \brief   Set Main Stack Pointer
 282:Generated_Source\PSoC6\pdl\cmsis/include/cmsis_gcc.h ****   \details Assigns the given value to the Main Stack Pointer (MSP).
 283:Generated_Source\PSoC6\pdl\cmsis/include/cmsis_gcc.h ****   \param [in]    topOfMainStack  Main Stack Pointer value to set
 284:Generated_Source\PSoC6\pdl\cmsis/include/cmsis_gcc.h ****  */
 285:Generated_Source\PSoC6\pdl\cmsis/include/cmsis_gcc.h **** __attribute__((always_inline)) __STATIC_INLINE void __set_MSP(uint32_t topOfMainStack)
 286:Generated_Source\PSoC6\pdl\cmsis/include/cmsis_gcc.h **** {
 287:Generated_Source\PSoC6\pdl\cmsis/include/cmsis_gcc.h ****   __ASM volatile ("MSR msp, %0" : : "r" (topOfMainStack) : );
 288:Generated_Source\PSoC6\pdl\cmsis/include/cmsis_gcc.h **** }
ARM GAS  C:\Users\gjl\AppData\Local\Temp\cc4ngvX1.s 			page 20


 289:Generated_Source\PSoC6\pdl\cmsis/include/cmsis_gcc.h **** 
 290:Generated_Source\PSoC6\pdl\cmsis/include/cmsis_gcc.h **** 
 291:Generated_Source\PSoC6\pdl\cmsis/include/cmsis_gcc.h **** #if (defined (__ARM_FEATURE_CMSE ) && (__ARM_FEATURE_CMSE == 3))
 292:Generated_Source\PSoC6\pdl\cmsis/include/cmsis_gcc.h **** /**
 293:Generated_Source\PSoC6\pdl\cmsis/include/cmsis_gcc.h ****   \brief   Set Main Stack Pointer (non-secure)
 294:Generated_Source\PSoC6\pdl\cmsis/include/cmsis_gcc.h ****   \details Assigns the given value to the non-secure Main Stack Pointer (MSP) when in secure state.
 295:Generated_Source\PSoC6\pdl\cmsis/include/cmsis_gcc.h ****   \param [in]    topOfMainStack  Main Stack Pointer value to set
 296:Generated_Source\PSoC6\pdl\cmsis/include/cmsis_gcc.h ****  */
 297:Generated_Source\PSoC6\pdl\cmsis/include/cmsis_gcc.h **** __attribute__((always_inline)) __STATIC_INLINE void __TZ_set_MSP_NS(uint32_t topOfMainStack)
 298:Generated_Source\PSoC6\pdl\cmsis/include/cmsis_gcc.h **** {
 299:Generated_Source\PSoC6\pdl\cmsis/include/cmsis_gcc.h ****   __ASM volatile ("MSR msp_ns, %0" : : "r" (topOfMainStack) : );
 300:Generated_Source\PSoC6\pdl\cmsis/include/cmsis_gcc.h **** }
 301:Generated_Source\PSoC6\pdl\cmsis/include/cmsis_gcc.h **** #endif
 302:Generated_Source\PSoC6\pdl\cmsis/include/cmsis_gcc.h **** 
 303:Generated_Source\PSoC6\pdl\cmsis/include/cmsis_gcc.h **** 
 304:Generated_Source\PSoC6\pdl\cmsis/include/cmsis_gcc.h **** /**
 305:Generated_Source\PSoC6\pdl\cmsis/include/cmsis_gcc.h ****   \brief   Get Priority Mask
 306:Generated_Source\PSoC6\pdl\cmsis/include/cmsis_gcc.h ****   \details Returns the current state of the priority mask bit from the Priority Mask Register.
 307:Generated_Source\PSoC6\pdl\cmsis/include/cmsis_gcc.h ****   \return               Priority Mask value
 308:Generated_Source\PSoC6\pdl\cmsis/include/cmsis_gcc.h ****  */
 309:Generated_Source\PSoC6\pdl\cmsis/include/cmsis_gcc.h **** __attribute__((always_inline)) __STATIC_INLINE uint32_t __get_PRIMASK(void)
 310:Generated_Source\PSoC6\pdl\cmsis/include/cmsis_gcc.h **** {
 311:Generated_Source\PSoC6\pdl\cmsis/include/cmsis_gcc.h ****   uint32_t result;
 312:Generated_Source\PSoC6\pdl\cmsis/include/cmsis_gcc.h **** 
 313:Generated_Source\PSoC6\pdl\cmsis/include/cmsis_gcc.h ****   __ASM volatile ("MRS %0, primask" : "=r" (result) );
 314:Generated_Source\PSoC6\pdl\cmsis/include/cmsis_gcc.h ****   return(result);
 315:Generated_Source\PSoC6\pdl\cmsis/include/cmsis_gcc.h **** }
 316:Generated_Source\PSoC6\pdl\cmsis/include/cmsis_gcc.h **** 
 317:Generated_Source\PSoC6\pdl\cmsis/include/cmsis_gcc.h **** 
 318:Generated_Source\PSoC6\pdl\cmsis/include/cmsis_gcc.h **** #if (defined (__ARM_FEATURE_CMSE ) && (__ARM_FEATURE_CMSE == 3))
 319:Generated_Source\PSoC6\pdl\cmsis/include/cmsis_gcc.h **** /**
 320:Generated_Source\PSoC6\pdl\cmsis/include/cmsis_gcc.h ****   \brief   Get Priority Mask (non-secure)
 321:Generated_Source\PSoC6\pdl\cmsis/include/cmsis_gcc.h ****   \details Returns the current state of the non-secure priority mask bit from the Priority Mask Reg
 322:Generated_Source\PSoC6\pdl\cmsis/include/cmsis_gcc.h ****   \return               Priority Mask value
 323:Generated_Source\PSoC6\pdl\cmsis/include/cmsis_gcc.h ****  */
 324:Generated_Source\PSoC6\pdl\cmsis/include/cmsis_gcc.h **** __attribute__((always_inline)) __STATIC_INLINE uint32_t __TZ_get_PRIMASK_NS(void)
 325:Generated_Source\PSoC6\pdl\cmsis/include/cmsis_gcc.h **** {
 326:Generated_Source\PSoC6\pdl\cmsis/include/cmsis_gcc.h ****   uint32_t result;
 327:Generated_Source\PSoC6\pdl\cmsis/include/cmsis_gcc.h **** 
 328:Generated_Source\PSoC6\pdl\cmsis/include/cmsis_gcc.h ****   __ASM volatile ("MRS %0, primask_ns" : "=r" (result) );
 329:Generated_Source\PSoC6\pdl\cmsis/include/cmsis_gcc.h ****   return(result);
 330:Generated_Source\PSoC6\pdl\cmsis/include/cmsis_gcc.h **** }
 331:Generated_Source\PSoC6\pdl\cmsis/include/cmsis_gcc.h **** #endif
 332:Generated_Source\PSoC6\pdl\cmsis/include/cmsis_gcc.h **** 
 333:Generated_Source\PSoC6\pdl\cmsis/include/cmsis_gcc.h **** 
 334:Generated_Source\PSoC6\pdl\cmsis/include/cmsis_gcc.h **** /**
 335:Generated_Source\PSoC6\pdl\cmsis/include/cmsis_gcc.h ****   \brief   Set Priority Mask
 336:Generated_Source\PSoC6\pdl\cmsis/include/cmsis_gcc.h ****   \details Assigns the given value to the Priority Mask Register.
 337:Generated_Source\PSoC6\pdl\cmsis/include/cmsis_gcc.h ****   \param [in]    priMask  Priority Mask
 338:Generated_Source\PSoC6\pdl\cmsis/include/cmsis_gcc.h ****  */
 339:Generated_Source\PSoC6\pdl\cmsis/include/cmsis_gcc.h **** __attribute__((always_inline)) __STATIC_INLINE void __set_PRIMASK(uint32_t priMask)
 340:Generated_Source\PSoC6\pdl\cmsis/include/cmsis_gcc.h **** {
 341:Generated_Source\PSoC6\pdl\cmsis/include/cmsis_gcc.h ****   __ASM volatile ("MSR primask, %0" : : "r" (priMask) : "memory");
 342:Generated_Source\PSoC6\pdl\cmsis/include/cmsis_gcc.h **** }
 343:Generated_Source\PSoC6\pdl\cmsis/include/cmsis_gcc.h **** 
 344:Generated_Source\PSoC6\pdl\cmsis/include/cmsis_gcc.h **** 
 345:Generated_Source\PSoC6\pdl\cmsis/include/cmsis_gcc.h **** #if (defined (__ARM_FEATURE_CMSE ) && (__ARM_FEATURE_CMSE == 3))
ARM GAS  C:\Users\gjl\AppData\Local\Temp\cc4ngvX1.s 			page 21


 346:Generated_Source\PSoC6\pdl\cmsis/include/cmsis_gcc.h **** /**
 347:Generated_Source\PSoC6\pdl\cmsis/include/cmsis_gcc.h ****   \brief   Set Priority Mask (non-secure)
 348:Generated_Source\PSoC6\pdl\cmsis/include/cmsis_gcc.h ****   \details Assigns the given value to the non-secure Priority Mask Register when in secure state.
 349:Generated_Source\PSoC6\pdl\cmsis/include/cmsis_gcc.h ****   \param [in]    priMask  Priority Mask
 350:Generated_Source\PSoC6\pdl\cmsis/include/cmsis_gcc.h ****  */
 351:Generated_Source\PSoC6\pdl\cmsis/include/cmsis_gcc.h **** __attribute__((always_inline)) __STATIC_INLINE void __TZ_set_PRIMASK_NS(uint32_t priMask)
 352:Generated_Source\PSoC6\pdl\cmsis/include/cmsis_gcc.h **** {
 353:Generated_Source\PSoC6\pdl\cmsis/include/cmsis_gcc.h ****   __ASM volatile ("MSR primask_ns, %0" : : "r" (priMask) : "memory");
 354:Generated_Source\PSoC6\pdl\cmsis/include/cmsis_gcc.h **** }
 355:Generated_Source\PSoC6\pdl\cmsis/include/cmsis_gcc.h **** #endif
 356:Generated_Source\PSoC6\pdl\cmsis/include/cmsis_gcc.h **** 
 357:Generated_Source\PSoC6\pdl\cmsis/include/cmsis_gcc.h **** 
 358:Generated_Source\PSoC6\pdl\cmsis/include/cmsis_gcc.h **** #if ((defined (__ARM_ARCH_7M__      ) && (__ARM_ARCH_7M__      == 1)) || \
 359:Generated_Source\PSoC6\pdl\cmsis/include/cmsis_gcc.h ****      (defined (__ARM_ARCH_7EM__     ) && (__ARM_ARCH_7EM__     == 1)) || \
 360:Generated_Source\PSoC6\pdl\cmsis/include/cmsis_gcc.h ****      (defined (__ARM_ARCH_8M_MAIN__ ) && (__ARM_ARCH_8M_MAIN__ == 1))    )
 361:Generated_Source\PSoC6\pdl\cmsis/include/cmsis_gcc.h **** /**
 362:Generated_Source\PSoC6\pdl\cmsis/include/cmsis_gcc.h ****   \brief   Enable FIQ
 363:Generated_Source\PSoC6\pdl\cmsis/include/cmsis_gcc.h ****   \details Enables FIQ interrupts by clearing the F-bit in the CPSR.
 364:Generated_Source\PSoC6\pdl\cmsis/include/cmsis_gcc.h ****            Can only be executed in Privileged modes.
 365:Generated_Source\PSoC6\pdl\cmsis/include/cmsis_gcc.h ****  */
 366:Generated_Source\PSoC6\pdl\cmsis/include/cmsis_gcc.h **** __attribute__((always_inline)) __STATIC_INLINE void __enable_fault_irq(void)
 367:Generated_Source\PSoC6\pdl\cmsis/include/cmsis_gcc.h **** {
 368:Generated_Source\PSoC6\pdl\cmsis/include/cmsis_gcc.h ****   __ASM volatile ("cpsie f" : : : "memory");
 369:Generated_Source\PSoC6\pdl\cmsis/include/cmsis_gcc.h **** }
 370:Generated_Source\PSoC6\pdl\cmsis/include/cmsis_gcc.h **** 
 371:Generated_Source\PSoC6\pdl\cmsis/include/cmsis_gcc.h **** 
 372:Generated_Source\PSoC6\pdl\cmsis/include/cmsis_gcc.h **** /**
 373:Generated_Source\PSoC6\pdl\cmsis/include/cmsis_gcc.h ****   \brief   Disable FIQ
 374:Generated_Source\PSoC6\pdl\cmsis/include/cmsis_gcc.h ****   \details Disables FIQ interrupts by setting the F-bit in the CPSR.
 375:Generated_Source\PSoC6\pdl\cmsis/include/cmsis_gcc.h ****            Can only be executed in Privileged modes.
 376:Generated_Source\PSoC6\pdl\cmsis/include/cmsis_gcc.h ****  */
 377:Generated_Source\PSoC6\pdl\cmsis/include/cmsis_gcc.h **** __attribute__((always_inline)) __STATIC_INLINE void __disable_fault_irq(void)
 378:Generated_Source\PSoC6\pdl\cmsis/include/cmsis_gcc.h **** {
 379:Generated_Source\PSoC6\pdl\cmsis/include/cmsis_gcc.h ****   __ASM volatile ("cpsid f" : : : "memory");
 380:Generated_Source\PSoC6\pdl\cmsis/include/cmsis_gcc.h **** }
 381:Generated_Source\PSoC6\pdl\cmsis/include/cmsis_gcc.h **** 
 382:Generated_Source\PSoC6\pdl\cmsis/include/cmsis_gcc.h **** 
 383:Generated_Source\PSoC6\pdl\cmsis/include/cmsis_gcc.h **** /**
 384:Generated_Source\PSoC6\pdl\cmsis/include/cmsis_gcc.h ****   \brief   Get Base Priority
 385:Generated_Source\PSoC6\pdl\cmsis/include/cmsis_gcc.h ****   \details Returns the current value of the Base Priority register.
 386:Generated_Source\PSoC6\pdl\cmsis/include/cmsis_gcc.h ****   \return               Base Priority register value
 387:Generated_Source\PSoC6\pdl\cmsis/include/cmsis_gcc.h ****  */
 388:Generated_Source\PSoC6\pdl\cmsis/include/cmsis_gcc.h **** __attribute__((always_inline)) __STATIC_INLINE uint32_t __get_BASEPRI(void)
 389:Generated_Source\PSoC6\pdl\cmsis/include/cmsis_gcc.h **** {
 390:Generated_Source\PSoC6\pdl\cmsis/include/cmsis_gcc.h ****   uint32_t result;
 391:Generated_Source\PSoC6\pdl\cmsis/include/cmsis_gcc.h **** 
 392:Generated_Source\PSoC6\pdl\cmsis/include/cmsis_gcc.h ****   __ASM volatile ("MRS %0, basepri" : "=r" (result) );
 393:Generated_Source\PSoC6\pdl\cmsis/include/cmsis_gcc.h ****   return(result);
 394:Generated_Source\PSoC6\pdl\cmsis/include/cmsis_gcc.h **** }
 395:Generated_Source\PSoC6\pdl\cmsis/include/cmsis_gcc.h **** 
 396:Generated_Source\PSoC6\pdl\cmsis/include/cmsis_gcc.h **** 
 397:Generated_Source\PSoC6\pdl\cmsis/include/cmsis_gcc.h **** #if (defined (__ARM_FEATURE_CMSE ) && (__ARM_FEATURE_CMSE == 3))
 398:Generated_Source\PSoC6\pdl\cmsis/include/cmsis_gcc.h **** /**
 399:Generated_Source\PSoC6\pdl\cmsis/include/cmsis_gcc.h ****   \brief   Get Base Priority (non-secure)
 400:Generated_Source\PSoC6\pdl\cmsis/include/cmsis_gcc.h ****   \details Returns the current value of the non-secure Base Priority register when in secure state.
 401:Generated_Source\PSoC6\pdl\cmsis/include/cmsis_gcc.h ****   \return               Base Priority register value
 402:Generated_Source\PSoC6\pdl\cmsis/include/cmsis_gcc.h ****  */
ARM GAS  C:\Users\gjl\AppData\Local\Temp\cc4ngvX1.s 			page 22


 403:Generated_Source\PSoC6\pdl\cmsis/include/cmsis_gcc.h **** __attribute__((always_inline)) __STATIC_INLINE uint32_t __TZ_get_BASEPRI_NS(void)
 404:Generated_Source\PSoC6\pdl\cmsis/include/cmsis_gcc.h **** {
 405:Generated_Source\PSoC6\pdl\cmsis/include/cmsis_gcc.h ****   uint32_t result;
 406:Generated_Source\PSoC6\pdl\cmsis/include/cmsis_gcc.h **** 
 407:Generated_Source\PSoC6\pdl\cmsis/include/cmsis_gcc.h ****   __ASM volatile ("MRS %0, basepri_ns" : "=r" (result) );
 408:Generated_Source\PSoC6\pdl\cmsis/include/cmsis_gcc.h ****   return(result);
 409:Generated_Source\PSoC6\pdl\cmsis/include/cmsis_gcc.h **** }
 410:Generated_Source\PSoC6\pdl\cmsis/include/cmsis_gcc.h **** #endif
 411:Generated_Source\PSoC6\pdl\cmsis/include/cmsis_gcc.h **** 
 412:Generated_Source\PSoC6\pdl\cmsis/include/cmsis_gcc.h **** 
 413:Generated_Source\PSoC6\pdl\cmsis/include/cmsis_gcc.h **** /**
 414:Generated_Source\PSoC6\pdl\cmsis/include/cmsis_gcc.h ****   \brief   Set Base Priority
 415:Generated_Source\PSoC6\pdl\cmsis/include/cmsis_gcc.h ****   \details Assigns the given value to the Base Priority register.
 416:Generated_Source\PSoC6\pdl\cmsis/include/cmsis_gcc.h ****   \param [in]    basePri  Base Priority value to set
 417:Generated_Source\PSoC6\pdl\cmsis/include/cmsis_gcc.h ****  */
 418:Generated_Source\PSoC6\pdl\cmsis/include/cmsis_gcc.h **** __attribute__((always_inline)) __STATIC_INLINE void __set_BASEPRI(uint32_t basePri)
 419:Generated_Source\PSoC6\pdl\cmsis/include/cmsis_gcc.h **** {
 420:Generated_Source\PSoC6\pdl\cmsis/include/cmsis_gcc.h ****   __ASM volatile ("MSR basepri, %0" : : "r" (basePri) : "memory");
 421:Generated_Source\PSoC6\pdl\cmsis/include/cmsis_gcc.h **** }
 422:Generated_Source\PSoC6\pdl\cmsis/include/cmsis_gcc.h **** 
 423:Generated_Source\PSoC6\pdl\cmsis/include/cmsis_gcc.h **** 
 424:Generated_Source\PSoC6\pdl\cmsis/include/cmsis_gcc.h **** #if (defined (__ARM_FEATURE_CMSE ) && (__ARM_FEATURE_CMSE == 3))
 425:Generated_Source\PSoC6\pdl\cmsis/include/cmsis_gcc.h **** /**
 426:Generated_Source\PSoC6\pdl\cmsis/include/cmsis_gcc.h ****   \brief   Set Base Priority (non-secure)
 427:Generated_Source\PSoC6\pdl\cmsis/include/cmsis_gcc.h ****   \details Assigns the given value to the non-secure Base Priority register when in secure state.
 428:Generated_Source\PSoC6\pdl\cmsis/include/cmsis_gcc.h ****   \param [in]    basePri  Base Priority value to set
 429:Generated_Source\PSoC6\pdl\cmsis/include/cmsis_gcc.h ****  */
 430:Generated_Source\PSoC6\pdl\cmsis/include/cmsis_gcc.h **** __attribute__((always_inline)) __STATIC_INLINE void __TZ_set_BASEPRI_NS(uint32_t basePri)
 431:Generated_Source\PSoC6\pdl\cmsis/include/cmsis_gcc.h **** {
 432:Generated_Source\PSoC6\pdl\cmsis/include/cmsis_gcc.h ****   __ASM volatile ("MSR basepri_ns, %0" : : "r" (basePri) : "memory");
 433:Generated_Source\PSoC6\pdl\cmsis/include/cmsis_gcc.h **** }
 434:Generated_Source\PSoC6\pdl\cmsis/include/cmsis_gcc.h **** #endif
 435:Generated_Source\PSoC6\pdl\cmsis/include/cmsis_gcc.h **** 
 436:Generated_Source\PSoC6\pdl\cmsis/include/cmsis_gcc.h **** 
 437:Generated_Source\PSoC6\pdl\cmsis/include/cmsis_gcc.h **** /**
 438:Generated_Source\PSoC6\pdl\cmsis/include/cmsis_gcc.h ****   \brief   Set Base Priority with condition
 439:Generated_Source\PSoC6\pdl\cmsis/include/cmsis_gcc.h ****   \details Assigns the given value to the Base Priority register only if BASEPRI masking is disable
 440:Generated_Source\PSoC6\pdl\cmsis/include/cmsis_gcc.h ****            or the new value increases the BASEPRI priority level.
 441:Generated_Source\PSoC6\pdl\cmsis/include/cmsis_gcc.h ****   \param [in]    basePri  Base Priority value to set
 442:Generated_Source\PSoC6\pdl\cmsis/include/cmsis_gcc.h ****  */
 443:Generated_Source\PSoC6\pdl\cmsis/include/cmsis_gcc.h **** __attribute__((always_inline)) __STATIC_INLINE void __set_BASEPRI_MAX(uint32_t basePri)
 444:Generated_Source\PSoC6\pdl\cmsis/include/cmsis_gcc.h **** {
 445:Generated_Source\PSoC6\pdl\cmsis/include/cmsis_gcc.h ****   __ASM volatile ("MSR basepri_max, %0" : : "r" (basePri) : "memory");
 446:Generated_Source\PSoC6\pdl\cmsis/include/cmsis_gcc.h **** }
 447:Generated_Source\PSoC6\pdl\cmsis/include/cmsis_gcc.h **** 
 448:Generated_Source\PSoC6\pdl\cmsis/include/cmsis_gcc.h **** 
 449:Generated_Source\PSoC6\pdl\cmsis/include/cmsis_gcc.h **** /**
 450:Generated_Source\PSoC6\pdl\cmsis/include/cmsis_gcc.h ****   \brief   Get Fault Mask
 451:Generated_Source\PSoC6\pdl\cmsis/include/cmsis_gcc.h ****   \details Returns the current value of the Fault Mask register.
 452:Generated_Source\PSoC6\pdl\cmsis/include/cmsis_gcc.h ****   \return               Fault Mask register value
 453:Generated_Source\PSoC6\pdl\cmsis/include/cmsis_gcc.h ****  */
 454:Generated_Source\PSoC6\pdl\cmsis/include/cmsis_gcc.h **** __attribute__((always_inline)) __STATIC_INLINE uint32_t __get_FAULTMASK(void)
 455:Generated_Source\PSoC6\pdl\cmsis/include/cmsis_gcc.h **** {
 456:Generated_Source\PSoC6\pdl\cmsis/include/cmsis_gcc.h ****   uint32_t result;
 457:Generated_Source\PSoC6\pdl\cmsis/include/cmsis_gcc.h **** 
 458:Generated_Source\PSoC6\pdl\cmsis/include/cmsis_gcc.h ****   __ASM volatile ("MRS %0, faultmask" : "=r" (result) );
 459:Generated_Source\PSoC6\pdl\cmsis/include/cmsis_gcc.h ****   return(result);
ARM GAS  C:\Users\gjl\AppData\Local\Temp\cc4ngvX1.s 			page 23


 460:Generated_Source\PSoC6\pdl\cmsis/include/cmsis_gcc.h **** }
 461:Generated_Source\PSoC6\pdl\cmsis/include/cmsis_gcc.h **** 
 462:Generated_Source\PSoC6\pdl\cmsis/include/cmsis_gcc.h **** 
 463:Generated_Source\PSoC6\pdl\cmsis/include/cmsis_gcc.h **** #if (defined (__ARM_FEATURE_CMSE ) && (__ARM_FEATURE_CMSE == 3))
 464:Generated_Source\PSoC6\pdl\cmsis/include/cmsis_gcc.h **** /**
 465:Generated_Source\PSoC6\pdl\cmsis/include/cmsis_gcc.h ****   \brief   Get Fault Mask (non-secure)
 466:Generated_Source\PSoC6\pdl\cmsis/include/cmsis_gcc.h ****   \details Returns the current value of the non-secure Fault Mask register when in secure state.
 467:Generated_Source\PSoC6\pdl\cmsis/include/cmsis_gcc.h ****   \return               Fault Mask register value
 468:Generated_Source\PSoC6\pdl\cmsis/include/cmsis_gcc.h ****  */
 469:Generated_Source\PSoC6\pdl\cmsis/include/cmsis_gcc.h **** __attribute__((always_inline)) __STATIC_INLINE uint32_t __TZ_get_FAULTMASK_NS(void)
 470:Generated_Source\PSoC6\pdl\cmsis/include/cmsis_gcc.h **** {
 471:Generated_Source\PSoC6\pdl\cmsis/include/cmsis_gcc.h ****   uint32_t result;
 472:Generated_Source\PSoC6\pdl\cmsis/include/cmsis_gcc.h **** 
 473:Generated_Source\PSoC6\pdl\cmsis/include/cmsis_gcc.h ****   __ASM volatile ("MRS %0, faultmask_ns" : "=r" (result) );
 474:Generated_Source\PSoC6\pdl\cmsis/include/cmsis_gcc.h ****   return(result);
 475:Generated_Source\PSoC6\pdl\cmsis/include/cmsis_gcc.h **** }
 476:Generated_Source\PSoC6\pdl\cmsis/include/cmsis_gcc.h **** #endif
 477:Generated_Source\PSoC6\pdl\cmsis/include/cmsis_gcc.h **** 
 478:Generated_Source\PSoC6\pdl\cmsis/include/cmsis_gcc.h **** 
 479:Generated_Source\PSoC6\pdl\cmsis/include/cmsis_gcc.h **** /**
 480:Generated_Source\PSoC6\pdl\cmsis/include/cmsis_gcc.h ****   \brief   Set Fault Mask
 481:Generated_Source\PSoC6\pdl\cmsis/include/cmsis_gcc.h ****   \details Assigns the given value to the Fault Mask register.
 482:Generated_Source\PSoC6\pdl\cmsis/include/cmsis_gcc.h ****   \param [in]    faultMask  Fault Mask value to set
 483:Generated_Source\PSoC6\pdl\cmsis/include/cmsis_gcc.h ****  */
 484:Generated_Source\PSoC6\pdl\cmsis/include/cmsis_gcc.h **** __attribute__((always_inline)) __STATIC_INLINE void __set_FAULTMASK(uint32_t faultMask)
 485:Generated_Source\PSoC6\pdl\cmsis/include/cmsis_gcc.h **** {
 486:Generated_Source\PSoC6\pdl\cmsis/include/cmsis_gcc.h ****   __ASM volatile ("MSR faultmask, %0" : : "r" (faultMask) : "memory");
 487:Generated_Source\PSoC6\pdl\cmsis/include/cmsis_gcc.h **** }
 488:Generated_Source\PSoC6\pdl\cmsis/include/cmsis_gcc.h **** 
 489:Generated_Source\PSoC6\pdl\cmsis/include/cmsis_gcc.h **** 
 490:Generated_Source\PSoC6\pdl\cmsis/include/cmsis_gcc.h **** #if (defined (__ARM_FEATURE_CMSE ) && (__ARM_FEATURE_CMSE == 3))
 491:Generated_Source\PSoC6\pdl\cmsis/include/cmsis_gcc.h **** /**
 492:Generated_Source\PSoC6\pdl\cmsis/include/cmsis_gcc.h ****   \brief   Set Fault Mask (non-secure)
 493:Generated_Source\PSoC6\pdl\cmsis/include/cmsis_gcc.h ****   \details Assigns the given value to the non-secure Fault Mask register when in secure state.
 494:Generated_Source\PSoC6\pdl\cmsis/include/cmsis_gcc.h ****   \param [in]    faultMask  Fault Mask value to set
 495:Generated_Source\PSoC6\pdl\cmsis/include/cmsis_gcc.h ****  */
 496:Generated_Source\PSoC6\pdl\cmsis/include/cmsis_gcc.h **** __attribute__((always_inline)) __STATIC_INLINE void __TZ_set_FAULTMASK_NS(uint32_t faultMask)
 497:Generated_Source\PSoC6\pdl\cmsis/include/cmsis_gcc.h **** {
 498:Generated_Source\PSoC6\pdl\cmsis/include/cmsis_gcc.h ****   __ASM volatile ("MSR faultmask_ns, %0" : : "r" (faultMask) : "memory");
 499:Generated_Source\PSoC6\pdl\cmsis/include/cmsis_gcc.h **** }
 500:Generated_Source\PSoC6\pdl\cmsis/include/cmsis_gcc.h **** #endif
 501:Generated_Source\PSoC6\pdl\cmsis/include/cmsis_gcc.h **** 
 502:Generated_Source\PSoC6\pdl\cmsis/include/cmsis_gcc.h **** #endif /* ((defined (__ARM_ARCH_7M__      ) && (__ARM_ARCH_7M__      == 1)) || \
 503:Generated_Source\PSoC6\pdl\cmsis/include/cmsis_gcc.h ****            (defined (__ARM_ARCH_7EM__     ) && (__ARM_ARCH_7EM__     == 1)) || \
 504:Generated_Source\PSoC6\pdl\cmsis/include/cmsis_gcc.h ****            (defined (__ARM_ARCH_8M_MAIN__ ) && (__ARM_ARCH_8M_MAIN__ == 1))    ) */
 505:Generated_Source\PSoC6\pdl\cmsis/include/cmsis_gcc.h **** 
 506:Generated_Source\PSoC6\pdl\cmsis/include/cmsis_gcc.h **** 
 507:Generated_Source\PSoC6\pdl\cmsis/include/cmsis_gcc.h **** #if ((defined (__ARM_ARCH_8M_MAIN__ ) && (__ARM_ARCH_8M_MAIN__ == 1)) || \
 508:Generated_Source\PSoC6\pdl\cmsis/include/cmsis_gcc.h ****      (defined (__ARM_ARCH_8M_BASE__ ) && (__ARM_ARCH_8M_BASE__ == 1))    )
 509:Generated_Source\PSoC6\pdl\cmsis/include/cmsis_gcc.h **** 
 510:Generated_Source\PSoC6\pdl\cmsis/include/cmsis_gcc.h **** /**
 511:Generated_Source\PSoC6\pdl\cmsis/include/cmsis_gcc.h ****   \brief   Get Process Stack Pointer Limit
 512:Generated_Source\PSoC6\pdl\cmsis/include/cmsis_gcc.h ****   \details Returns the current value of the Process Stack Pointer Limit (PSPLIM).
 513:Generated_Source\PSoC6\pdl\cmsis/include/cmsis_gcc.h ****   \return               PSPLIM Register value
 514:Generated_Source\PSoC6\pdl\cmsis/include/cmsis_gcc.h ****  */
 515:Generated_Source\PSoC6\pdl\cmsis/include/cmsis_gcc.h **** __attribute__((always_inline)) __STATIC_INLINE uint32_t __get_PSPLIM(void)
 516:Generated_Source\PSoC6\pdl\cmsis/include/cmsis_gcc.h **** {
ARM GAS  C:\Users\gjl\AppData\Local\Temp\cc4ngvX1.s 			page 24


 517:Generated_Source\PSoC6\pdl\cmsis/include/cmsis_gcc.h ****   register uint32_t result;
 518:Generated_Source\PSoC6\pdl\cmsis/include/cmsis_gcc.h **** 
 519:Generated_Source\PSoC6\pdl\cmsis/include/cmsis_gcc.h ****   __ASM volatile ("MRS %0, psplim"  : "=r" (result) );
 520:Generated_Source\PSoC6\pdl\cmsis/include/cmsis_gcc.h ****   return(result);
 521:Generated_Source\PSoC6\pdl\cmsis/include/cmsis_gcc.h **** }
 522:Generated_Source\PSoC6\pdl\cmsis/include/cmsis_gcc.h **** 
 523:Generated_Source\PSoC6\pdl\cmsis/include/cmsis_gcc.h **** 
 524:Generated_Source\PSoC6\pdl\cmsis/include/cmsis_gcc.h **** #if ((defined (__ARM_FEATURE_CMSE  ) && (__ARM_FEATURE_CMSE   == 3)) && \
 525:Generated_Source\PSoC6\pdl\cmsis/include/cmsis_gcc.h ****      (defined (__ARM_ARCH_8M_MAIN__) && (__ARM_ARCH_8M_MAIN__ == 1))    )
 526:Generated_Source\PSoC6\pdl\cmsis/include/cmsis_gcc.h **** /**
 527:Generated_Source\PSoC6\pdl\cmsis/include/cmsis_gcc.h ****   \brief   Get Process Stack Pointer Limit (non-secure)
 528:Generated_Source\PSoC6\pdl\cmsis/include/cmsis_gcc.h ****   \details Returns the current value of the non-secure Process Stack Pointer Limit (PSPLIM) when in
 529:Generated_Source\PSoC6\pdl\cmsis/include/cmsis_gcc.h ****   \return               PSPLIM Register value
 530:Generated_Source\PSoC6\pdl\cmsis/include/cmsis_gcc.h ****  */
 531:Generated_Source\PSoC6\pdl\cmsis/include/cmsis_gcc.h **** __attribute__((always_inline)) __STATIC_INLINE uint32_t __TZ_get_PSPLIM_NS(void)
 532:Generated_Source\PSoC6\pdl\cmsis/include/cmsis_gcc.h **** {
 533:Generated_Source\PSoC6\pdl\cmsis/include/cmsis_gcc.h ****   register uint32_t result;
 534:Generated_Source\PSoC6\pdl\cmsis/include/cmsis_gcc.h **** 
 535:Generated_Source\PSoC6\pdl\cmsis/include/cmsis_gcc.h ****   __ASM volatile ("MRS %0, psplim_ns"  : "=r" (result) );
 536:Generated_Source\PSoC6\pdl\cmsis/include/cmsis_gcc.h ****   return(result);
 537:Generated_Source\PSoC6\pdl\cmsis/include/cmsis_gcc.h **** }
 538:Generated_Source\PSoC6\pdl\cmsis/include/cmsis_gcc.h **** #endif
 539:Generated_Source\PSoC6\pdl\cmsis/include/cmsis_gcc.h **** 
 540:Generated_Source\PSoC6\pdl\cmsis/include/cmsis_gcc.h **** 
 541:Generated_Source\PSoC6\pdl\cmsis/include/cmsis_gcc.h **** /**
 542:Generated_Source\PSoC6\pdl\cmsis/include/cmsis_gcc.h ****   \brief   Set Process Stack Pointer Limit
 543:Generated_Source\PSoC6\pdl\cmsis/include/cmsis_gcc.h ****   \details Assigns the given value to the Process Stack Pointer Limit (PSPLIM).
 544:Generated_Source\PSoC6\pdl\cmsis/include/cmsis_gcc.h ****   \param [in]    ProcStackPtrLimit  Process Stack Pointer Limit value to set
 545:Generated_Source\PSoC6\pdl\cmsis/include/cmsis_gcc.h ****  */
 546:Generated_Source\PSoC6\pdl\cmsis/include/cmsis_gcc.h **** __attribute__((always_inline)) __STATIC_INLINE void __set_PSPLIM(uint32_t ProcStackPtrLimit)
 547:Generated_Source\PSoC6\pdl\cmsis/include/cmsis_gcc.h **** {
 548:Generated_Source\PSoC6\pdl\cmsis/include/cmsis_gcc.h ****   __ASM volatile ("MSR psplim, %0" : : "r" (ProcStackPtrLimit));
 549:Generated_Source\PSoC6\pdl\cmsis/include/cmsis_gcc.h **** }
 550:Generated_Source\PSoC6\pdl\cmsis/include/cmsis_gcc.h **** 
 551:Generated_Source\PSoC6\pdl\cmsis/include/cmsis_gcc.h **** 
 552:Generated_Source\PSoC6\pdl\cmsis/include/cmsis_gcc.h **** #if ((defined (__ARM_FEATURE_CMSE  ) && (__ARM_FEATURE_CMSE   == 3)) && \
 553:Generated_Source\PSoC6\pdl\cmsis/include/cmsis_gcc.h ****      (defined (__ARM_ARCH_8M_MAIN__) && (__ARM_ARCH_8M_MAIN__ == 1))    )
 554:Generated_Source\PSoC6\pdl\cmsis/include/cmsis_gcc.h **** /**
 555:Generated_Source\PSoC6\pdl\cmsis/include/cmsis_gcc.h ****   \brief   Set Process Stack Pointer (non-secure)
 556:Generated_Source\PSoC6\pdl\cmsis/include/cmsis_gcc.h ****   \details Assigns the given value to the non-secure Process Stack Pointer Limit (PSPLIM) when in s
 557:Generated_Source\PSoC6\pdl\cmsis/include/cmsis_gcc.h ****   \param [in]    ProcStackPtrLimit  Process Stack Pointer Limit value to set
 558:Generated_Source\PSoC6\pdl\cmsis/include/cmsis_gcc.h ****  */
 559:Generated_Source\PSoC6\pdl\cmsis/include/cmsis_gcc.h **** __attribute__((always_inline)) __STATIC_INLINE void __TZ_set_PSPLIM_NS(uint32_t ProcStackPtrLimit)
 560:Generated_Source\PSoC6\pdl\cmsis/include/cmsis_gcc.h **** {
 561:Generated_Source\PSoC6\pdl\cmsis/include/cmsis_gcc.h ****   __ASM volatile ("MSR psplim_ns, %0\n" : : "r" (ProcStackPtrLimit));
 562:Generated_Source\PSoC6\pdl\cmsis/include/cmsis_gcc.h **** }
 563:Generated_Source\PSoC6\pdl\cmsis/include/cmsis_gcc.h **** #endif
 564:Generated_Source\PSoC6\pdl\cmsis/include/cmsis_gcc.h **** 
 565:Generated_Source\PSoC6\pdl\cmsis/include/cmsis_gcc.h **** 
 566:Generated_Source\PSoC6\pdl\cmsis/include/cmsis_gcc.h **** /**
 567:Generated_Source\PSoC6\pdl\cmsis/include/cmsis_gcc.h ****   \brief   Get Main Stack Pointer Limit
 568:Generated_Source\PSoC6\pdl\cmsis/include/cmsis_gcc.h ****   \details Returns the current value of the Main Stack Pointer Limit (MSPLIM).
 569:Generated_Source\PSoC6\pdl\cmsis/include/cmsis_gcc.h ****   \return               MSPLIM Register value
 570:Generated_Source\PSoC6\pdl\cmsis/include/cmsis_gcc.h ****  */
 571:Generated_Source\PSoC6\pdl\cmsis/include/cmsis_gcc.h **** __attribute__((always_inline)) __STATIC_INLINE uint32_t __get_MSPLIM(void)
 572:Generated_Source\PSoC6\pdl\cmsis/include/cmsis_gcc.h **** {
 573:Generated_Source\PSoC6\pdl\cmsis/include/cmsis_gcc.h ****   register uint32_t result;
ARM GAS  C:\Users\gjl\AppData\Local\Temp\cc4ngvX1.s 			page 25


 574:Generated_Source\PSoC6\pdl\cmsis/include/cmsis_gcc.h **** 
 575:Generated_Source\PSoC6\pdl\cmsis/include/cmsis_gcc.h ****   __ASM volatile ("MRS %0, msplim" : "=r" (result) );
 576:Generated_Source\PSoC6\pdl\cmsis/include/cmsis_gcc.h **** 
 577:Generated_Source\PSoC6\pdl\cmsis/include/cmsis_gcc.h ****   return(result);
 578:Generated_Source\PSoC6\pdl\cmsis/include/cmsis_gcc.h **** }
 579:Generated_Source\PSoC6\pdl\cmsis/include/cmsis_gcc.h **** 
 580:Generated_Source\PSoC6\pdl\cmsis/include/cmsis_gcc.h **** 
 581:Generated_Source\PSoC6\pdl\cmsis/include/cmsis_gcc.h **** #if ((defined (__ARM_FEATURE_CMSE  ) && (__ARM_FEATURE_CMSE   == 3)) && \
 582:Generated_Source\PSoC6\pdl\cmsis/include/cmsis_gcc.h ****      (defined (__ARM_ARCH_8M_MAIN__) && (__ARM_ARCH_8M_MAIN__ == 1))    )
 583:Generated_Source\PSoC6\pdl\cmsis/include/cmsis_gcc.h **** /**
 584:Generated_Source\PSoC6\pdl\cmsis/include/cmsis_gcc.h ****   \brief   Get Main Stack Pointer Limit (non-secure)
 585:Generated_Source\PSoC6\pdl\cmsis/include/cmsis_gcc.h ****   \details Returns the current value of the non-secure Main Stack Pointer Limit(MSPLIM) when in sec
 586:Generated_Source\PSoC6\pdl\cmsis/include/cmsis_gcc.h ****   \return               MSPLIM Register value
 587:Generated_Source\PSoC6\pdl\cmsis/include/cmsis_gcc.h ****  */
 588:Generated_Source\PSoC6\pdl\cmsis/include/cmsis_gcc.h **** __attribute__((always_inline)) __STATIC_INLINE uint32_t __TZ_get_MSPLIM_NS(void)
 589:Generated_Source\PSoC6\pdl\cmsis/include/cmsis_gcc.h **** {
 590:Generated_Source\PSoC6\pdl\cmsis/include/cmsis_gcc.h ****   register uint32_t result;
 591:Generated_Source\PSoC6\pdl\cmsis/include/cmsis_gcc.h **** 
 592:Generated_Source\PSoC6\pdl\cmsis/include/cmsis_gcc.h ****   __ASM volatile ("MRS %0, msplim_ns" : "=r" (result) );
 593:Generated_Source\PSoC6\pdl\cmsis/include/cmsis_gcc.h ****   return(result);
 594:Generated_Source\PSoC6\pdl\cmsis/include/cmsis_gcc.h **** }
 595:Generated_Source\PSoC6\pdl\cmsis/include/cmsis_gcc.h **** #endif
 596:Generated_Source\PSoC6\pdl\cmsis/include/cmsis_gcc.h **** 
 597:Generated_Source\PSoC6\pdl\cmsis/include/cmsis_gcc.h **** 
 598:Generated_Source\PSoC6\pdl\cmsis/include/cmsis_gcc.h **** /**
 599:Generated_Source\PSoC6\pdl\cmsis/include/cmsis_gcc.h ****   \brief   Set Main Stack Pointer Limit
 600:Generated_Source\PSoC6\pdl\cmsis/include/cmsis_gcc.h ****   \details Assigns the given value to the Main Stack Pointer Limit (MSPLIM).
 601:Generated_Source\PSoC6\pdl\cmsis/include/cmsis_gcc.h ****   \param [in]    MainStackPtrLimit  Main Stack Pointer Limit value to set
 602:Generated_Source\PSoC6\pdl\cmsis/include/cmsis_gcc.h ****  */
 603:Generated_Source\PSoC6\pdl\cmsis/include/cmsis_gcc.h **** __attribute__((always_inline)) __STATIC_INLINE void __set_MSPLIM(uint32_t MainStackPtrLimit)
 604:Generated_Source\PSoC6\pdl\cmsis/include/cmsis_gcc.h **** {
 605:Generated_Source\PSoC6\pdl\cmsis/include/cmsis_gcc.h ****   __ASM volatile ("MSR msplim, %0" : : "r" (MainStackPtrLimit));
 606:Generated_Source\PSoC6\pdl\cmsis/include/cmsis_gcc.h **** }
 607:Generated_Source\PSoC6\pdl\cmsis/include/cmsis_gcc.h **** 
 608:Generated_Source\PSoC6\pdl\cmsis/include/cmsis_gcc.h **** 
 609:Generated_Source\PSoC6\pdl\cmsis/include/cmsis_gcc.h **** #if ((defined (__ARM_FEATURE_CMSE  ) && (__ARM_FEATURE_CMSE   == 3)) && \
 610:Generated_Source\PSoC6\pdl\cmsis/include/cmsis_gcc.h ****      (defined (__ARM_ARCH_8M_MAIN__) && (__ARM_ARCH_8M_MAIN__ == 1))    )
 611:Generated_Source\PSoC6\pdl\cmsis/include/cmsis_gcc.h **** /**
 612:Generated_Source\PSoC6\pdl\cmsis/include/cmsis_gcc.h ****   \brief   Set Main Stack Pointer Limit (non-secure)
 613:Generated_Source\PSoC6\pdl\cmsis/include/cmsis_gcc.h ****   \details Assigns the given value to the non-secure Main Stack Pointer Limit (MSPLIM) when in secu
 614:Generated_Source\PSoC6\pdl\cmsis/include/cmsis_gcc.h ****   \param [in]    MainStackPtrLimit  Main Stack Pointer value to set
 615:Generated_Source\PSoC6\pdl\cmsis/include/cmsis_gcc.h ****  */
 616:Generated_Source\PSoC6\pdl\cmsis/include/cmsis_gcc.h **** __attribute__((always_inline)) __STATIC_INLINE void __TZ_set_MSPLIM_NS(uint32_t MainStackPtrLimit)
 617:Generated_Source\PSoC6\pdl\cmsis/include/cmsis_gcc.h **** {
 618:Generated_Source\PSoC6\pdl\cmsis/include/cmsis_gcc.h ****   __ASM volatile ("MSR msplim_ns, %0" : : "r" (MainStackPtrLimit));
 619:Generated_Source\PSoC6\pdl\cmsis/include/cmsis_gcc.h **** }
 620:Generated_Source\PSoC6\pdl\cmsis/include/cmsis_gcc.h **** #endif
 621:Generated_Source\PSoC6\pdl\cmsis/include/cmsis_gcc.h **** 
 622:Generated_Source\PSoC6\pdl\cmsis/include/cmsis_gcc.h **** #endif /* ((defined (__ARM_ARCH_8M_MAIN__ ) && (__ARM_ARCH_8M_MAIN__ == 1)) || \
 623:Generated_Source\PSoC6\pdl\cmsis/include/cmsis_gcc.h ****            (defined (__ARM_ARCH_8M_BASE__ ) && (__ARM_ARCH_8M_BASE__ == 1))    ) */
 624:Generated_Source\PSoC6\pdl\cmsis/include/cmsis_gcc.h **** 
 625:Generated_Source\PSoC6\pdl\cmsis/include/cmsis_gcc.h **** 
 626:Generated_Source\PSoC6\pdl\cmsis/include/cmsis_gcc.h **** #if ((defined (__ARM_ARCH_7EM__     ) && (__ARM_ARCH_7EM__     == 1)) || \
 627:Generated_Source\PSoC6\pdl\cmsis/include/cmsis_gcc.h ****      (defined (__ARM_ARCH_8M_MAIN__ ) && (__ARM_ARCH_8M_MAIN__ == 1))    )
 628:Generated_Source\PSoC6\pdl\cmsis/include/cmsis_gcc.h **** 
 629:Generated_Source\PSoC6\pdl\cmsis/include/cmsis_gcc.h **** /**
 630:Generated_Source\PSoC6\pdl\cmsis/include/cmsis_gcc.h ****   \brief   Get FPSCR
ARM GAS  C:\Users\gjl\AppData\Local\Temp\cc4ngvX1.s 			page 26


 631:Generated_Source\PSoC6\pdl\cmsis/include/cmsis_gcc.h ****   \details Returns the current value of the Floating Point Status/Control register.
 632:Generated_Source\PSoC6\pdl\cmsis/include/cmsis_gcc.h ****   \return               Floating Point Status/Control register value
 633:Generated_Source\PSoC6\pdl\cmsis/include/cmsis_gcc.h ****  */
 634:Generated_Source\PSoC6\pdl\cmsis/include/cmsis_gcc.h **** __attribute__((always_inline)) __STATIC_INLINE uint32_t __get_FPSCR(void)
 635:Generated_Source\PSoC6\pdl\cmsis/include/cmsis_gcc.h **** {
 636:Generated_Source\PSoC6\pdl\cmsis/include/cmsis_gcc.h **** #if ((defined (__FPU_PRESENT) && (__FPU_PRESENT == 1U)) && \
 637:Generated_Source\PSoC6\pdl\cmsis/include/cmsis_gcc.h ****      (defined (__FPU_USED   ) && (__FPU_USED    == 1U))     )
 638:Generated_Source\PSoC6\pdl\cmsis/include/cmsis_gcc.h ****   uint32_t result;
 639:Generated_Source\PSoC6\pdl\cmsis/include/cmsis_gcc.h **** 
 640:Generated_Source\PSoC6\pdl\cmsis/include/cmsis_gcc.h ****   __ASM volatile ("VMRS %0, fpscr" : "=r" (result) );
 641:Generated_Source\PSoC6\pdl\cmsis/include/cmsis_gcc.h ****   return(result);
 642:Generated_Source\PSoC6\pdl\cmsis/include/cmsis_gcc.h **** #else
 643:Generated_Source\PSoC6\pdl\cmsis/include/cmsis_gcc.h ****    return(0U);
 644:Generated_Source\PSoC6\pdl\cmsis/include/cmsis_gcc.h **** #endif
 645:Generated_Source\PSoC6\pdl\cmsis/include/cmsis_gcc.h **** }
 646:Generated_Source\PSoC6\pdl\cmsis/include/cmsis_gcc.h **** 
 647:Generated_Source\PSoC6\pdl\cmsis/include/cmsis_gcc.h **** 
 648:Generated_Source\PSoC6\pdl\cmsis/include/cmsis_gcc.h **** /**
 649:Generated_Source\PSoC6\pdl\cmsis/include/cmsis_gcc.h ****   \brief   Set FPSCR
 650:Generated_Source\PSoC6\pdl\cmsis/include/cmsis_gcc.h ****   \details Assigns the given value to the Floating Point Status/Control register.
 651:Generated_Source\PSoC6\pdl\cmsis/include/cmsis_gcc.h ****   \param [in]    fpscr  Floating Point Status/Control value to set
 652:Generated_Source\PSoC6\pdl\cmsis/include/cmsis_gcc.h ****  */
 653:Generated_Source\PSoC6\pdl\cmsis/include/cmsis_gcc.h **** __attribute__((always_inline)) __STATIC_INLINE void __set_FPSCR(uint32_t fpscr)
 654:Generated_Source\PSoC6\pdl\cmsis/include/cmsis_gcc.h **** {
 655:Generated_Source\PSoC6\pdl\cmsis/include/cmsis_gcc.h **** #if ((defined (__FPU_PRESENT) && (__FPU_PRESENT == 1U)) && \
 656:Generated_Source\PSoC6\pdl\cmsis/include/cmsis_gcc.h ****      (defined (__FPU_USED   ) && (__FPU_USED    == 1U))     )
 657:Generated_Source\PSoC6\pdl\cmsis/include/cmsis_gcc.h ****   __ASM volatile ("VMSR fpscr, %0" : : "r" (fpscr) : "vfpcc", "memory");
 658:Generated_Source\PSoC6\pdl\cmsis/include/cmsis_gcc.h **** #else
 659:Generated_Source\PSoC6\pdl\cmsis/include/cmsis_gcc.h ****   (void)fpscr;
 660:Generated_Source\PSoC6\pdl\cmsis/include/cmsis_gcc.h **** #endif
 661:Generated_Source\PSoC6\pdl\cmsis/include/cmsis_gcc.h **** }
 662:Generated_Source\PSoC6\pdl\cmsis/include/cmsis_gcc.h **** 
 663:Generated_Source\PSoC6\pdl\cmsis/include/cmsis_gcc.h **** #endif /* ((defined (__ARM_ARCH_7EM__     ) && (__ARM_ARCH_7EM__     == 1)) || \
 664:Generated_Source\PSoC6\pdl\cmsis/include/cmsis_gcc.h ****            (defined (__ARM_ARCH_8M_MAIN__ ) && (__ARM_ARCH_8M_MAIN__ == 1))    ) */
 665:Generated_Source\PSoC6\pdl\cmsis/include/cmsis_gcc.h **** 
 666:Generated_Source\PSoC6\pdl\cmsis/include/cmsis_gcc.h **** 
 667:Generated_Source\PSoC6\pdl\cmsis/include/cmsis_gcc.h **** 
 668:Generated_Source\PSoC6\pdl\cmsis/include/cmsis_gcc.h **** /*@} end of CMSIS_Core_RegAccFunctions */
 669:Generated_Source\PSoC6\pdl\cmsis/include/cmsis_gcc.h **** 
 670:Generated_Source\PSoC6\pdl\cmsis/include/cmsis_gcc.h **** 
 671:Generated_Source\PSoC6\pdl\cmsis/include/cmsis_gcc.h **** /* ##########################  Core Instruction Access  ######################### */
 672:Generated_Source\PSoC6\pdl\cmsis/include/cmsis_gcc.h **** /** \defgroup CMSIS_Core_InstructionInterface CMSIS Core Instruction Interface
 673:Generated_Source\PSoC6\pdl\cmsis/include/cmsis_gcc.h ****   Access to dedicated instructions
 674:Generated_Source\PSoC6\pdl\cmsis/include/cmsis_gcc.h ****   @{
 675:Generated_Source\PSoC6\pdl\cmsis/include/cmsis_gcc.h **** */
 676:Generated_Source\PSoC6\pdl\cmsis/include/cmsis_gcc.h **** 
 677:Generated_Source\PSoC6\pdl\cmsis/include/cmsis_gcc.h **** /* Define macros for porting to both thumb1 and thumb2.
 678:Generated_Source\PSoC6\pdl\cmsis/include/cmsis_gcc.h ****  * For thumb1, use low register (r0-r7), specified by constraint "l"
 679:Generated_Source\PSoC6\pdl\cmsis/include/cmsis_gcc.h ****  * Otherwise, use general registers, specified by constraint "r" */
 680:Generated_Source\PSoC6\pdl\cmsis/include/cmsis_gcc.h **** #if defined (__thumb__) && !defined (__thumb2__)
 681:Generated_Source\PSoC6\pdl\cmsis/include/cmsis_gcc.h **** #define __CMSIS_GCC_OUT_REG(r) "=l" (r)
 682:Generated_Source\PSoC6\pdl\cmsis/include/cmsis_gcc.h **** #define __CMSIS_GCC_RW_REG(r) "+l" (r)
 683:Generated_Source\PSoC6\pdl\cmsis/include/cmsis_gcc.h **** #define __CMSIS_GCC_USE_REG(r) "l" (r)
 684:Generated_Source\PSoC6\pdl\cmsis/include/cmsis_gcc.h **** #else
 685:Generated_Source\PSoC6\pdl\cmsis/include/cmsis_gcc.h **** #define __CMSIS_GCC_OUT_REG(r) "=r" (r)
 686:Generated_Source\PSoC6\pdl\cmsis/include/cmsis_gcc.h **** #define __CMSIS_GCC_RW_REG(r) "+r" (r)
 687:Generated_Source\PSoC6\pdl\cmsis/include/cmsis_gcc.h **** #define __CMSIS_GCC_USE_REG(r) "r" (r)
ARM GAS  C:\Users\gjl\AppData\Local\Temp\cc4ngvX1.s 			page 27


 688:Generated_Source\PSoC6\pdl\cmsis/include/cmsis_gcc.h **** #endif
 689:Generated_Source\PSoC6\pdl\cmsis/include/cmsis_gcc.h **** 
 690:Generated_Source\PSoC6\pdl\cmsis/include/cmsis_gcc.h **** /**
 691:Generated_Source\PSoC6\pdl\cmsis/include/cmsis_gcc.h ****   \brief   No Operation
 692:Generated_Source\PSoC6\pdl\cmsis/include/cmsis_gcc.h ****   \details No Operation does nothing. This instruction can be used for code alignment purposes.
 693:Generated_Source\PSoC6\pdl\cmsis/include/cmsis_gcc.h ****  */
 694:Generated_Source\PSoC6\pdl\cmsis/include/cmsis_gcc.h **** //__attribute__((always_inline)) __STATIC_INLINE void __NOP(void)
 695:Generated_Source\PSoC6\pdl\cmsis/include/cmsis_gcc.h **** //{
 696:Generated_Source\PSoC6\pdl\cmsis/include/cmsis_gcc.h **** //  __ASM volatile ("nop");
 697:Generated_Source\PSoC6\pdl\cmsis/include/cmsis_gcc.h **** //}
 698:Generated_Source\PSoC6\pdl\cmsis/include/cmsis_gcc.h **** #define __NOP()                             __ASM volatile ("nop")       /* This implementation gen
 699:Generated_Source\PSoC6\pdl\cmsis/include/cmsis_gcc.h **** 
 700:Generated_Source\PSoC6\pdl\cmsis/include/cmsis_gcc.h **** /**
 701:Generated_Source\PSoC6\pdl\cmsis/include/cmsis_gcc.h ****   \brief   Wait For Interrupt
 702:Generated_Source\PSoC6\pdl\cmsis/include/cmsis_gcc.h ****   \details Wait For Interrupt is a hint instruction that suspends execution until one of a number o
 703:Generated_Source\PSoC6\pdl\cmsis/include/cmsis_gcc.h ****  */
 704:Generated_Source\PSoC6\pdl\cmsis/include/cmsis_gcc.h **** //__attribute__((always_inline)) __STATIC_INLINE void __WFI(void)
 705:Generated_Source\PSoC6\pdl\cmsis/include/cmsis_gcc.h **** //{
 706:Generated_Source\PSoC6\pdl\cmsis/include/cmsis_gcc.h **** //  __ASM volatile ("wfi");
 707:Generated_Source\PSoC6\pdl\cmsis/include/cmsis_gcc.h **** //}
 708:Generated_Source\PSoC6\pdl\cmsis/include/cmsis_gcc.h **** #define __WFI()                             __ASM volatile ("wfi")       /* This implementation gen
 709:Generated_Source\PSoC6\pdl\cmsis/include/cmsis_gcc.h **** 
 710:Generated_Source\PSoC6\pdl\cmsis/include/cmsis_gcc.h **** 
 711:Generated_Source\PSoC6\pdl\cmsis/include/cmsis_gcc.h **** /**
 712:Generated_Source\PSoC6\pdl\cmsis/include/cmsis_gcc.h ****   \brief   Wait For Event
 713:Generated_Source\PSoC6\pdl\cmsis/include/cmsis_gcc.h ****   \details Wait For Event is a hint instruction that permits the processor to enter
 714:Generated_Source\PSoC6\pdl\cmsis/include/cmsis_gcc.h ****            a low-power state until one of a number of events occurs.
 715:Generated_Source\PSoC6\pdl\cmsis/include/cmsis_gcc.h ****  */
 716:Generated_Source\PSoC6\pdl\cmsis/include/cmsis_gcc.h **** //__attribute__((always_inline)) __STATIC_INLINE void __WFE(void)
 717:Generated_Source\PSoC6\pdl\cmsis/include/cmsis_gcc.h **** //{
 718:Generated_Source\PSoC6\pdl\cmsis/include/cmsis_gcc.h **** //  __ASM volatile ("wfe");
 719:Generated_Source\PSoC6\pdl\cmsis/include/cmsis_gcc.h **** //}
 720:Generated_Source\PSoC6\pdl\cmsis/include/cmsis_gcc.h **** #define __WFE()                             __ASM volatile ("wfe")       /* This implementation gen
 721:Generated_Source\PSoC6\pdl\cmsis/include/cmsis_gcc.h **** 
 722:Generated_Source\PSoC6\pdl\cmsis/include/cmsis_gcc.h **** 
 723:Generated_Source\PSoC6\pdl\cmsis/include/cmsis_gcc.h **** /**
 724:Generated_Source\PSoC6\pdl\cmsis/include/cmsis_gcc.h ****   \brief   Send Event
 725:Generated_Source\PSoC6\pdl\cmsis/include/cmsis_gcc.h ****   \details Send Event is a hint instruction. It causes an event to be signaled to the CPU.
 726:Generated_Source\PSoC6\pdl\cmsis/include/cmsis_gcc.h ****  */
 727:Generated_Source\PSoC6\pdl\cmsis/include/cmsis_gcc.h **** //__attribute__((always_inline)) __STATIC_INLINE void __SEV(void)
 728:Generated_Source\PSoC6\pdl\cmsis/include/cmsis_gcc.h **** //{
 729:Generated_Source\PSoC6\pdl\cmsis/include/cmsis_gcc.h **** //  __ASM volatile ("sev");
 730:Generated_Source\PSoC6\pdl\cmsis/include/cmsis_gcc.h **** //}
 731:Generated_Source\PSoC6\pdl\cmsis/include/cmsis_gcc.h **** #define __SEV()                             __ASM volatile ("sev")       /* This implementation gen
 732:Generated_Source\PSoC6\pdl\cmsis/include/cmsis_gcc.h **** 
 733:Generated_Source\PSoC6\pdl\cmsis/include/cmsis_gcc.h **** 
 734:Generated_Source\PSoC6\pdl\cmsis/include/cmsis_gcc.h **** /**
 735:Generated_Source\PSoC6\pdl\cmsis/include/cmsis_gcc.h ****   \brief   Instruction Synchronization Barrier
 736:Generated_Source\PSoC6\pdl\cmsis/include/cmsis_gcc.h ****   \details Instruction Synchronization Barrier flushes the pipeline in the processor,
 737:Generated_Source\PSoC6\pdl\cmsis/include/cmsis_gcc.h ****            so that all instructions following the ISB are fetched from cache or memory,
 738:Generated_Source\PSoC6\pdl\cmsis/include/cmsis_gcc.h ****            after the instruction has been completed.
 739:Generated_Source\PSoC6\pdl\cmsis/include/cmsis_gcc.h ****  */
 740:Generated_Source\PSoC6\pdl\cmsis/include/cmsis_gcc.h **** __attribute__((always_inline)) __STATIC_INLINE void __ISB(void)
 741:Generated_Source\PSoC6\pdl\cmsis/include/cmsis_gcc.h **** {
 742:Generated_Source\PSoC6\pdl\cmsis/include/cmsis_gcc.h ****   __ASM volatile ("isb 0xF":::"memory");
 743:Generated_Source\PSoC6\pdl\cmsis/include/cmsis_gcc.h **** }
 744:Generated_Source\PSoC6\pdl\cmsis/include/cmsis_gcc.h **** 
ARM GAS  C:\Users\gjl\AppData\Local\Temp\cc4ngvX1.s 			page 28


 745:Generated_Source\PSoC6\pdl\cmsis/include/cmsis_gcc.h **** 
 746:Generated_Source\PSoC6\pdl\cmsis/include/cmsis_gcc.h **** /**
 747:Generated_Source\PSoC6\pdl\cmsis/include/cmsis_gcc.h ****   \brief   Data Synchronization Barrier
 748:Generated_Source\PSoC6\pdl\cmsis/include/cmsis_gcc.h ****   \details Acts as a special kind of Data Memory Barrier.
 749:Generated_Source\PSoC6\pdl\cmsis/include/cmsis_gcc.h ****            It completes when all explicit memory accesses before this instruction complete.
 750:Generated_Source\PSoC6\pdl\cmsis/include/cmsis_gcc.h ****  */
 751:Generated_Source\PSoC6\pdl\cmsis/include/cmsis_gcc.h **** __attribute__((always_inline)) __STATIC_INLINE void __DSB(void)
 752:Generated_Source\PSoC6\pdl\cmsis/include/cmsis_gcc.h **** {
 753:Generated_Source\PSoC6\pdl\cmsis/include/cmsis_gcc.h ****   __ASM volatile ("dsb 0xF":::"memory");
 392              		.loc 2 753 0
 393              		.syntax unified
 394              	@ 753 "Generated_Source\PSoC6\pdl\cmsis/include/cmsis_gcc.h" 1
 395 0014 BFF34F8F 		dsb 0xF
 396              	@ 0 "" 2
 397              		.thumb
 398              		.syntax unified
 399              	.LBE13:
 400              	.LBE12:
 401              	.LBB14:
 402              	.LBB15:
 742:Generated_Source\PSoC6\pdl\cmsis/include/cmsis_gcc.h **** }
 403              		.loc 2 742 0
 404              		.syntax unified
 405              	@ 742 "Generated_Source\PSoC6\pdl\cmsis/include/cmsis_gcc.h" 1
 406 0018 BFF36F8F 		isb 0xF
 407              	@ 0 "" 2
 408              		.thumb
 409              		.syntax unified
 410              	.LBE15:
 411              	.LBE14:
 390:system_psoc63_cm4.c ****         __DSB();
 391:system_psoc63_cm4.c ****         __ISB();
 392:system_psoc63_cm4.c ****         Cy_RestoreIRQ(interruptState);
 412              		.loc 1 392 0
 413 001c FFF7FEFF 		bl	Cy_RestoreIRQ
 414              	.LVL46:
 415 0020 08BD     		pop	{r3, pc}
 416              	.L32:
 417 0022 00BF     		.align	2
 418              	.L31:
 419 0024 00ED00E0 		.word	-536810240
 420              		.cfi_endproc
 421              	.LFE147:
 422              		.size	Cy_SystemInitFpuEnable, .-Cy_SystemInitFpuEnable
 423              		.global	cy_delay32kMs
 424              		.global	cy_delayFreqMhz
 425              		.global	cy_delayFreqKhz
 426              		.global	cy_delayFreqHz
 427              		.global	cy_BleEcoClockFreqHz
 428              		.global	cy_PeriClkFreqHz
 429              		.global	cy_Hfclk0FreqHz
 430              		.global	SystemCoreClock
 431              		.data
 432              		.align	2
 433              		.set	.LANCHOR0,. + 0
 434              		.type	cy_BleEcoClockFreqHz, %object
 435              		.size	cy_BleEcoClockFreqHz, 4
ARM GAS  C:\Users\gjl\AppData\Local\Temp\cc4ngvX1.s 			page 29


 436              	cy_BleEcoClockFreqHz:
 437 0000 0048E801 		.word	32000000
 438              		.type	cy_Hfclk0FreqHz, %object
 439              		.size	cy_Hfclk0FreqHz, 4
 440              	cy_Hfclk0FreqHz:
 441 0004 00127A00 		.word	8000000
 442              		.type	cy_PeriClkFreqHz, %object
 443              		.size	cy_PeriClkFreqHz, 4
 444              	cy_PeriClkFreqHz:
 445 0008 00093D00 		.word	4000000
 446              		.type	SystemCoreClock, %object
 447              		.size	SystemCoreClock, 4
 448              	SystemCoreClock:
 449 000c 00127A00 		.word	8000000
 450              		.type	cy_delayFreqHz, %object
 451              		.size	cy_delayFreqHz, 4
 452              	cy_delayFreqHz:
 453 0010 00127A00 		.word	8000000
 454              		.type	cy_delayFreqMhz, %object
 455              		.size	cy_delayFreqMhz, 1
 456              	cy_delayFreqMhz:
 457 0014 08       		.byte	8
 458 0015 000000   		.space	3
 459              		.type	cy_delayFreqKhz, %object
 460              		.size	cy_delayFreqKhz, 4
 461              	cy_delayFreqKhz:
 462 0018 401F0000 		.word	8000
 463              		.type	cy_delay32kMs, %object
 464              		.size	cy_delay32kMs, 4
 465              	cy_delay32kMs:
 466 001c 0000A00F 		.word	262144000
 467              		.text
 468              	.Letext0:
 469              		.file 3 "c:\\program files (x86)\\cypress\\psoc creator\\4.2\\psoc creator\\import\\gnu\\arm\\5.4.
 470              		.file 4 "c:\\program files (x86)\\cypress\\psoc creator\\4.2\\psoc creator\\import\\gnu\\arm\\5.4.
 471              		.file 5 "Generated_Source\\PSoC6\\pdl\\cmsis/include/core_cm4.h"
 472              		.file 6 "Generated_Source\\PSoC6\\pdl\\devices/psoc6/ip/cyip_cpuss.h"
 473              		.file 7 "Generated_Source\\PSoC6\\pdl\\devices/psoc6/ip/cyip_srss.h"
 474              		.file 8 "./cy_ipc_config.h"
 475              		.file 9 "Generated_Source\\PSoC6\\pdl\\drivers/peripheral/flash/cy_flash.h"
 476              		.file 10 "system_psoc63.h"