ARM GAS  C:\Users\gjl\AppData\Local\Temp\ccQwB3Zr.s 			page 1


   1              		.syntax unified
   2              		.cpu cortex-m0plus
   3              		.fpu softvfp
   4              		.eabi_attribute 20, 1
   5              		.eabi_attribute 21, 1
   6              		.eabi_attribute 23, 3
   7              		.eabi_attribute 24, 1
   8              		.eabi_attribute 25, 1
   9              		.eabi_attribute 26, 1
  10              		.eabi_attribute 30, 1
  11              		.eabi_attribute 34, 0
  12              		.eabi_attribute 18, 4
  13              		.thumb
  14              		.syntax unified
  15              		.file	"cy_ipc_config.c"
  16              		.text
  17              	.Ltext0:
  18              		.cfi_sections	.debug_frame
  19              		.section	.text.NvicMux1_IRQHandler,"ax",%progbits
  20              		.align	2
  21              		.global	NvicMux1_IRQHandler
  22              		.code	16
  23              		.thumb_func
  24              		.type	NvicMux1_IRQHandler, %function
  25              	NvicMux1_IRQHandler:
  26              	.LFB59:
  27              		.file 1 "cy_ipc_config.c"
   1:cy_ipc_config.c **** /***************************************************************************//**
   2:cy_ipc_config.c **** * \file cy_ipc_config.c
   3:cy_ipc_config.c **** * \version 1.10.1
   4:cy_ipc_config.c **** *
   5:cy_ipc_config.c **** *  Description:
   6:cy_ipc_config.c **** *  This C file is not intended to be part of the IPC driver. It is the code
   7:cy_ipc_config.c **** *  required to configure the device specific IPC channels for semaphores
   8:cy_ipc_config.c **** *  and pipes.
   9:cy_ipc_config.c **** *
  10:cy_ipc_config.c **** ********************************************************************************
  11:cy_ipc_config.c **** * Copyright 2016-2018, Cypress Semiconductor Corporation.  All rights reserved.
  12:cy_ipc_config.c **** * You may use this file only in accordance with the license, terms, conditions,
  13:cy_ipc_config.c **** * disclaimers, and limitations in the end user license agreement accompanying
  14:cy_ipc_config.c **** * the software package with which this file was provided.
  15:cy_ipc_config.c **** *******************************************************************************/
  16:cy_ipc_config.c **** 
  17:cy_ipc_config.c **** #include "ipc/cy_ipc_drv.h"
  18:cy_ipc_config.c **** #include "ipc/cy_ipc_pipe.h"
  19:cy_ipc_config.c **** #include "ipc/cy_ipc_sema.h"
  20:cy_ipc_config.c **** 
  21:cy_ipc_config.c **** #include "cy_ipc_config.h"
  22:cy_ipc_config.c **** 
  23:cy_ipc_config.c **** /* Create an array of endpoint structures */
  24:cy_ipc_config.c **** static cy_stc_ipc_pipe_ep_t        cy_ipc_pipe_sysEpArray[CY_IPC_MAX_ENDPOINTS];
  25:cy_ipc_config.c **** 
  26:cy_ipc_config.c **** #define CY_CYPIPE_DEFAULT_CONFIG    \
  27:cy_ipc_config.c **** {\
  28:cy_ipc_config.c ****     /* .ep0ConfigData */ {\
  29:cy_ipc_config.c ****         /* .ipcNotifierNumber    */  CY_IPC_INTR_CYPIPE_EP0,\
  30:cy_ipc_config.c ****         /* .ipcNotifierPriority  */  CY_IPC_INTR_CYPIPE_PRIOR_EP0,\
ARM GAS  C:\Users\gjl\AppData\Local\Temp\ccQwB3Zr.s 			page 2


  31:cy_ipc_config.c ****         /* .ipcNotifierMuxNumber */  CY_IPC_INTR_CYPIPE_MUX_EP0,\
  32:cy_ipc_config.c ****         /* .epAddress            */  CY_IPC_EP_CYPIPE_CM0_ADDR,\
  33:cy_ipc_config.c ****         /* .epConfig             */  CY_IPC_CYPIPE_CONFIG_EP0\
  34:cy_ipc_config.c ****     },\
  35:cy_ipc_config.c ****     /* .ep1ConfigData */ {\
  36:cy_ipc_config.c ****         /* .ipcNotifierNumber    */  CY_IPC_INTR_CYPIPE_EP1,\
  37:cy_ipc_config.c ****         /* .ipcNotifierPriority  */  CY_IPC_INTR_CYPIPE_PRIOR_EP1,\
  38:cy_ipc_config.c ****         /* .ipcNotifierMuxNumber */  0u,\
  39:cy_ipc_config.c ****         /* .epAddress            */  CY_IPC_EP_CYPIPE_CM4_ADDR,\
  40:cy_ipc_config.c ****         /* .epConfig             */  CY_IPC_CYPIPE_CONFIG_EP1\
  41:cy_ipc_config.c ****     },\
  42:cy_ipc_config.c ****     /* .endpointClientsCount     */  CY_IPC_CYPIPE_CLIENT_CNT,\
  43:cy_ipc_config.c ****     /* .endpointsCallbacksArray  */  cy_ipc_pipe_sysCbArray,\
  44:cy_ipc_config.c ****     /* .userPipeIsrHandler       */  &Cy_IPC_SystemPipeIsr\
  45:cy_ipc_config.c **** }
  46:cy_ipc_config.c **** 
  47:cy_ipc_config.c **** /*******************************************************************************
  48:cy_ipc_config.c **** * Function Name: Cy_IPC_SystemSemaInit
  49:cy_ipc_config.c **** ****************************************************************************//**
  50:cy_ipc_config.c **** *
  51:cy_ipc_config.c **** * Initializes the system semaphores. The system semaphores are used by Flash.
  52:cy_ipc_config.c **** *
  53:cy_ipc_config.c **** * This function is called in the SystemInit() function. If the default startup
  54:cy_ipc_config.c **** * file is not used, or SystemInit() is not called in your project,
  55:cy_ipc_config.c **** * call the following three functions prior to executing any flash or EmEEPROM
  56:cy_ipc_config.c **** * write or erase operation:
  57:cy_ipc_config.c **** *  -# Cy_IPC_SystemSemaInit()
  58:cy_ipc_config.c **** *  -# Cy_IPC_SystemPipeInit()
  59:cy_ipc_config.c **** *  -# Cy_Flash_Init()
  60:cy_ipc_config.c **** *
  61:cy_ipc_config.c **** *******************************************************************************/
  62:cy_ipc_config.c **** void Cy_IPC_SystemSemaInit(void)
  63:cy_ipc_config.c **** {
  64:cy_ipc_config.c **** /* Create array used for semaphores */
  65:cy_ipc_config.c **** #if !(CY_CPU_CORTEX_M0P)
  66:cy_ipc_config.c ****     (void) Cy_IPC_Sema_Init(CY_IPC_CHAN_SEMA, 0ul, NULL);
  67:cy_ipc_config.c **** #else
  68:cy_ipc_config.c ****     static uint32_t ipcSemaArray[CY_IPC_SEMA_COUNT / CY_IPC_SEMA_PER_WORD];
  69:cy_ipc_config.c ****     (void) Cy_IPC_Sema_Init(CY_IPC_CHAN_SEMA, CY_IPC_SEMA_COUNT, ipcSemaArray);
  70:cy_ipc_config.c **** #endif
  71:cy_ipc_config.c **** }
  72:cy_ipc_config.c **** 
  73:cy_ipc_config.c **** /*******************************************************************************
  74:cy_ipc_config.c **** * Function Name: Cy_IPC_SystemPipeInit
  75:cy_ipc_config.c **** ****************************************************************************//**
  76:cy_ipc_config.c **** *
  77:cy_ipc_config.c **** * Initializes the system pipes. The system pipes are used by BLE and Flash.
  78:cy_ipc_config.c **** * \note The function should be called on all CPUs.
  79:cy_ipc_config.c **** *
  80:cy_ipc_config.c **** * This function is called in the SystemInit() function. If the default startup
  81:cy_ipc_config.c **** * file is not used, or SystemInit() is not called in your project,
  82:cy_ipc_config.c **** * call the following three functions prior to executing any flash or EmEEPROM
  83:cy_ipc_config.c **** * write or erase operation:
  84:cy_ipc_config.c **** *  -# Cy_IPC_SystemSemaInit()
  85:cy_ipc_config.c **** *  -# Cy_IPC_SystemPipeInit()
  86:cy_ipc_config.c **** *  -# Cy_Flash_Init()
  87:cy_ipc_config.c **** *
ARM GAS  C:\Users\gjl\AppData\Local\Temp\ccQwB3Zr.s 			page 3


  88:cy_ipc_config.c **** * Also this function is called to support BLE host/controller communication.
  89:cy_ipc_config.c **** *
  90:cy_ipc_config.c **** *******************************************************************************/
  91:cy_ipc_config.c **** void Cy_IPC_SystemPipeInit(void)
  92:cy_ipc_config.c **** {
  93:cy_ipc_config.c ****     uint32_t intr;
  94:cy_ipc_config.c **** 
  95:cy_ipc_config.c ****     intr = Cy_SysLib_EnterCriticalSection();
  96:cy_ipc_config.c **** 
  97:cy_ipc_config.c ****     static cy_ipc_pipe_callback_ptr_t cy_ipc_pipe_sysCbArray[CY_IPC_CYPIPE_CLIENT_CNT];
  98:cy_ipc_config.c **** 
  99:cy_ipc_config.c ****     static const cy_stc_ipc_pipe_config_t systemPipeConfig = CY_CYPIPE_DEFAULT_CONFIG;
 100:cy_ipc_config.c **** 
 101:cy_ipc_config.c ****     Cy_IPC_Pipe_Config(cy_ipc_pipe_sysEpArray);
 102:cy_ipc_config.c **** 
 103:cy_ipc_config.c ****     Cy_IPC_Pipe_Init(&systemPipeConfig);
 104:cy_ipc_config.c **** 
 105:cy_ipc_config.c ****     Cy_SysLib_ExitCriticalSection(intr);
 106:cy_ipc_config.c **** }
 107:cy_ipc_config.c **** 
 108:cy_ipc_config.c **** /*******************************************************************************
 109:cy_ipc_config.c **** * Function Name: Cy_IPC_SystemPipeIsr
 110:cy_ipc_config.c **** ****************************************************************************//**
 111:cy_ipc_config.c **** *
 112:cy_ipc_config.c **** * This is the interrupt service routine for the system pipe.
 113:cy_ipc_config.c **** *
 114:cy_ipc_config.c **** *******************************************************************************/
 115:cy_ipc_config.c **** void Cy_IPC_SystemPipeIsr(void)
 116:cy_ipc_config.c **** {
  28              		.loc 1 116 0
  29              		.cfi_startproc
  30              		@ args = 0, pretend = 0, frame = 0
  31              		@ frame_needed = 0, uses_anonymous_args = 0
  32 0000 10B5     		push	{r4, lr}
  33              		.cfi_def_cfa_offset 8
  34              		.cfi_offset 4, -8
  35              		.cfi_offset 14, -4
 117:cy_ipc_config.c ****     Cy_IPC_Pipe_ExecCallback(&cy_ipc_pipe_sysEpArray[CY_IPC_EP_CYPIPE_ADDR]);
  36              		.loc 1 117 0
  37 0002 0248     		ldr	r0, .L2
  38 0004 FFF7FEFF 		bl	Cy_IPC_Pipe_ExecCallback
  39              	.LVL0:
 118:cy_ipc_config.c **** }
  40              		.loc 1 118 0
  41              		@ sp needed
  42 0008 10BD     		pop	{r4, pc}
  43              	.L3:
  44 000a C046     		.align	2
  45              	.L2:
  46 000c 00000000 		.word	.LANCHOR0
  47              		.cfi_endproc
  48              	.LFE59:
  49              		.size	NvicMux1_IRQHandler, .-NvicMux1_IRQHandler
  50              		.section	.text.Cy_IPC_SystemSemaInit,"ax",%progbits
  51              		.align	2
  52              		.global	Cy_IPC_SystemSemaInit
  53              		.code	16
ARM GAS  C:\Users\gjl\AppData\Local\Temp\ccQwB3Zr.s 			page 4


  54              		.thumb_func
  55              		.type	Cy_IPC_SystemSemaInit, %function
  56              	Cy_IPC_SystemSemaInit:
  57              	.LFB57:
  63:cy_ipc_config.c **** /* Create array used for semaphores */
  58              		.loc 1 63 0
  59              		.cfi_startproc
  60              		@ args = 0, pretend = 0, frame = 0
  61              		@ frame_needed = 0, uses_anonymous_args = 0
  62 0000 10B5     		push	{r4, lr}
  63              		.cfi_def_cfa_offset 8
  64              		.cfi_offset 4, -8
  65              		.cfi_offset 14, -4
  69:cy_ipc_config.c **** #endif
  66              		.loc 1 69 0
  67 0002 034A     		ldr	r2, .L5
  68 0004 6032     		adds	r2, r2, #96
  69 0006 8021     		movs	r1, #128
  70 0008 0420     		movs	r0, #4
  71 000a FFF7FEFF 		bl	Cy_IPC_Sema_Init
  72              	.LVL1:
  71:cy_ipc_config.c **** 
  73              		.loc 1 71 0
  74              		@ sp needed
  75 000e 10BD     		pop	{r4, pc}
  76              	.L6:
  77              		.align	2
  78              	.L5:
  79 0010 00010000 		.word	.LANCHOR1
  80              		.cfi_endproc
  81              	.LFE57:
  82              		.size	Cy_IPC_SystemSemaInit, .-Cy_IPC_SystemSemaInit
  83              		.section	.text.Cy_IPC_SystemPipeInit,"ax",%progbits
  84              		.align	2
  85              		.global	Cy_IPC_SystemPipeInit
  86              		.code	16
  87              		.thumb_func
  88              		.type	Cy_IPC_SystemPipeInit, %function
  89              	Cy_IPC_SystemPipeInit:
  90              	.LFB58:
  92:cy_ipc_config.c ****     uint32_t intr;
  91              		.loc 1 92 0
  92              		.cfi_startproc
  93              		@ args = 0, pretend = 0, frame = 0
  94              		@ frame_needed = 0, uses_anonymous_args = 0
  95 0000 10B5     		push	{r4, lr}
  96              		.cfi_def_cfa_offset 8
  97              		.cfi_offset 4, -8
  98              		.cfi_offset 14, -4
  95:cy_ipc_config.c **** 
  99              		.loc 1 95 0
 100 0002 FFF7FEFF 		bl	Cy_SysLib_EnterCriticalSection
 101              	.LVL2:
 102 0006 0400     		movs	r4, r0
 103              	.LVL3:
 101:cy_ipc_config.c **** 
 104              		.loc 1 101 0
ARM GAS  C:\Users\gjl\AppData\Local\Temp\ccQwB3Zr.s 			page 5


 105 0008 0448     		ldr	r0, .L8
 106              	.LVL4:
 107 000a FFF7FEFF 		bl	Cy_IPC_Pipe_Config
 108              	.LVL5:
 103:cy_ipc_config.c **** 
 109              		.loc 1 103 0
 110 000e 0448     		ldr	r0, .L8+4
 111 0010 FFF7FEFF 		bl	Cy_IPC_Pipe_Init
 112              	.LVL6:
 105:cy_ipc_config.c **** }
 113              		.loc 1 105 0
 114 0014 2000     		movs	r0, r4
 115 0016 FFF7FEFF 		bl	Cy_SysLib_ExitCriticalSection
 116              	.LVL7:
 106:cy_ipc_config.c **** 
 117              		.loc 1 106 0
 118              		@ sp needed
 119              	.LVL8:
 120 001a 10BD     		pop	{r4, pc}
 121              	.L9:
 122              		.align	2
 123              	.L8:
 124 001c 00000000 		.word	.LANCHOR0
 125 0020 00000000 		.word	.LANCHOR2
 126              		.cfi_endproc
 127              	.LFE58:
 128              		.size	Cy_IPC_SystemPipeInit, .-Cy_IPC_SystemPipeInit
 129              		.section	.rodata
 130              		.align	2
 131              		.set	.LANCHOR2,. + 0
 132              		.type	systemPipeConfig.9345, %object
 133              		.size	systemPipeConfig.9345, 52
 134              	systemPipeConfig.9345:
 135 0000 03000000 		.word	3
 136 0004 01000000 		.word	1
 137 0008 01000000 		.word	1
 138 000c 00000000 		.word	0
 139 0010 05036000 		.word	6292229
 140 0014 04000000 		.word	4
 141 0018 01000000 		.word	1
 142 001c 00000000 		.word	0
 143 0020 01000000 		.word	1
 144 0024 06046000 		.word	6292486
 145 0028 08000000 		.word	8
 146 002c 70010000 		.word	cy_ipc_pipe_sysCbArray.9344
 147 0030 00000000 		.word	NvicMux1_IRQHandler
 148              		.bss
 149              		.align	2
 150              		.set	.LANCHOR0,. + 0
 151              		.set	.LANCHOR1,. + 256
 152              		.type	cy_ipc_pipe_sysEpArray, %object
 153              		.size	cy_ipc_pipe_sysEpArray, 352
 154              	cy_ipc_pipe_sysEpArray:
 155 0000 00000000 		.space	352
 155      00000000 
 155      00000000 
 155      00000000 
ARM GAS  C:\Users\gjl\AppData\Local\Temp\ccQwB3Zr.s 			page 6


 155      00000000 
 156              		.type	ipcSemaArray.9339, %object
 157              		.size	ipcSemaArray.9339, 16
 158              	ipcSemaArray.9339:
 159 0160 00000000 		.space	16
 159      00000000 
 159      00000000 
 159      00000000 
 160              		.type	cy_ipc_pipe_sysCbArray.9344, %object
 161              		.size	cy_ipc_pipe_sysCbArray.9344, 32
 162              	cy_ipc_pipe_sysCbArray.9344:
 163 0170 00000000 		.space	32
 163      00000000 
 163      00000000 
 163      00000000 
 163      00000000 
 164              		.text
 165              	.Letext0:
 166              		.file 2 "c:\\program files (x86)\\cypress\\psoc creator\\4.2\\psoc creator\\import\\gnu\\arm\\5.4.
 167              		.file 3 "c:\\program files (x86)\\cypress\\psoc creator\\4.2\\psoc creator\\import\\gnu\\arm\\5.4.
 168              		.file 4 "Generated_Source\\PSoC6\\pdl\\devices/psoc6/psoc63/include/cy8c6347bzi_bld53.h"
 169              		.file 5 "Generated_Source\\PSoC6\\pdl\\devices/psoc6/ip/cyip_ipc.h"
 170              		.file 6 "Generated_Source\\PSoC6\\pdl\\drivers/peripheral/syslib/cy_syslib.h"
 171              		.file 7 "Generated_Source\\PSoC6\\pdl\\drivers/peripheral/ipc/cy_ipc_pipe.h"
 172              		.file 8 "Generated_Source\\PSoC6\\pdl\\drivers/peripheral/ipc/cy_ipc_sema.h"