ARM GAS  C:\Users\gjl\AppData\Local\Temp\ccwur0T6.s 			page 1


   1              		.syntax unified
   2              		.cpu cortex-m0plus
   3              		.fpu softvfp
   4              		.eabi_attribute 20, 1
   5              		.eabi_attribute 21, 1
   6              		.eabi_attribute 23, 3
   7              		.eabi_attribute 24, 1
   8              		.eabi_attribute 25, 1
   9              		.eabi_attribute 26, 1
  10              		.eabi_attribute 30, 1
  11              		.eabi_attribute 34, 0
  12              		.eabi_attribute 18, 4
  13              		.thumb
  14              		.syntax unified
  15              		.file	"cy_tcpwm_pwm.c"
  16              		.text
  17              	.Ltext0:
  18              		.cfi_sections	.debug_frame
  19              		.section	.text.Cy_TCPWM_PWM_Init,"ax",%progbits
  20              		.align	2
  21              		.global	Cy_TCPWM_PWM_Init
  22              		.code	16
  23              		.thumb_func
  24              		.type	Cy_TCPWM_PWM_Init, %function
  25              	Cy_TCPWM_PWM_Init:
  26              	.LFB63:
  27              		.file 1 "Generated_Source\\PSoC6\\pdl\\drivers\\peripheral\\tcpwm\\cy_tcpwm_pwm.c"
   1:Generated_Source\PSoC6\pdl\drivers\peripheral\tcpwm/cy_tcpwm_pwm.c **** /***************************************************************************//**
   2:Generated_Source\PSoC6\pdl\drivers\peripheral\tcpwm/cy_tcpwm_pwm.c **** * \file cy_tcpwm_pwm.c
   3:Generated_Source\PSoC6\pdl\drivers\peripheral\tcpwm/cy_tcpwm_pwm.c **** * \version 1.0.1
   4:Generated_Source\PSoC6\pdl\drivers\peripheral\tcpwm/cy_tcpwm_pwm.c **** *
   5:Generated_Source\PSoC6\pdl\drivers\peripheral\tcpwm/cy_tcpwm_pwm.c **** * \brief
   6:Generated_Source\PSoC6\pdl\drivers\peripheral\tcpwm/cy_tcpwm_pwm.c **** *  The source file of the tcpwm driver.
   7:Generated_Source\PSoC6\pdl\drivers\peripheral\tcpwm/cy_tcpwm_pwm.c **** *
   8:Generated_Source\PSoC6\pdl\drivers\peripheral\tcpwm/cy_tcpwm_pwm.c **** ********************************************************************************
   9:Generated_Source\PSoC6\pdl\drivers\peripheral\tcpwm/cy_tcpwm_pwm.c **** * \copyright
  10:Generated_Source\PSoC6\pdl\drivers\peripheral\tcpwm/cy_tcpwm_pwm.c **** * Copyright 2016-2018, Cypress Semiconductor Corporation.  All rights reserved.
  11:Generated_Source\PSoC6\pdl\drivers\peripheral\tcpwm/cy_tcpwm_pwm.c **** * You may use this file only in accordance with the license, terms, conditions,
  12:Generated_Source\PSoC6\pdl\drivers\peripheral\tcpwm/cy_tcpwm_pwm.c **** * disclaimers, and limitations in the end user license agreement accompanying
  13:Generated_Source\PSoC6\pdl\drivers\peripheral\tcpwm/cy_tcpwm_pwm.c **** * the software package with which this file was provided.
  14:Generated_Source\PSoC6\pdl\drivers\peripheral\tcpwm/cy_tcpwm_pwm.c **** *******************************************************************************/
  15:Generated_Source\PSoC6\pdl\drivers\peripheral\tcpwm/cy_tcpwm_pwm.c **** 
  16:Generated_Source\PSoC6\pdl\drivers\peripheral\tcpwm/cy_tcpwm_pwm.c **** #include "cy_tcpwm_pwm.h"
  17:Generated_Source\PSoC6\pdl\drivers\peripheral\tcpwm/cy_tcpwm_pwm.c **** 
  18:Generated_Source\PSoC6\pdl\drivers\peripheral\tcpwm/cy_tcpwm_pwm.c **** #if defined(__cplusplus)
  19:Generated_Source\PSoC6\pdl\drivers\peripheral\tcpwm/cy_tcpwm_pwm.c **** extern "C" {
  20:Generated_Source\PSoC6\pdl\drivers\peripheral\tcpwm/cy_tcpwm_pwm.c **** #endif
  21:Generated_Source\PSoC6\pdl\drivers\peripheral\tcpwm/cy_tcpwm_pwm.c **** 
  22:Generated_Source\PSoC6\pdl\drivers\peripheral\tcpwm/cy_tcpwm_pwm.c **** 
  23:Generated_Source\PSoC6\pdl\drivers\peripheral\tcpwm/cy_tcpwm_pwm.c **** /*******************************************************************************
  24:Generated_Source\PSoC6\pdl\drivers\peripheral\tcpwm/cy_tcpwm_pwm.c **** * Function Name: Cy_TCPWM_PWM_Init
  25:Generated_Source\PSoC6\pdl\drivers\peripheral\tcpwm/cy_tcpwm_pwm.c **** ****************************************************************************//**
  26:Generated_Source\PSoC6\pdl\drivers\peripheral\tcpwm/cy_tcpwm_pwm.c **** *
  27:Generated_Source\PSoC6\pdl\drivers\peripheral\tcpwm/cy_tcpwm_pwm.c **** * Initializes the counter in the TCPWM block for the PWM operation.
  28:Generated_Source\PSoC6\pdl\drivers\peripheral\tcpwm/cy_tcpwm_pwm.c **** *
  29:Generated_Source\PSoC6\pdl\drivers\peripheral\tcpwm/cy_tcpwm_pwm.c **** * \param base
  30:Generated_Source\PSoC6\pdl\drivers\peripheral\tcpwm/cy_tcpwm_pwm.c **** * The pointer to a TCPWM instance.
ARM GAS  C:\Users\gjl\AppData\Local\Temp\ccwur0T6.s 			page 2


  31:Generated_Source\PSoC6\pdl\drivers\peripheral\tcpwm/cy_tcpwm_pwm.c **** *
  32:Generated_Source\PSoC6\pdl\drivers\peripheral\tcpwm/cy_tcpwm_pwm.c **** * \param cntNum
  33:Generated_Source\PSoC6\pdl\drivers\peripheral\tcpwm/cy_tcpwm_pwm.c **** * The Counter instance number in the selected TCPWM.
  34:Generated_Source\PSoC6\pdl\drivers\peripheral\tcpwm/cy_tcpwm_pwm.c **** *
  35:Generated_Source\PSoC6\pdl\drivers\peripheral\tcpwm/cy_tcpwm_pwm.c **** * \param config
  36:Generated_Source\PSoC6\pdl\drivers\peripheral\tcpwm/cy_tcpwm_pwm.c **** * The pointer to a configuration structure. See \ref cy_stc_tcpwm_pwm_config_t.
  37:Generated_Source\PSoC6\pdl\drivers\peripheral\tcpwm/cy_tcpwm_pwm.c **** *
  38:Generated_Source\PSoC6\pdl\drivers\peripheral\tcpwm/cy_tcpwm_pwm.c **** * \return error / status code. See \ref cy_en_tcpwm_status_t.
  39:Generated_Source\PSoC6\pdl\drivers\peripheral\tcpwm/cy_tcpwm_pwm.c **** *
  40:Generated_Source\PSoC6\pdl\drivers\peripheral\tcpwm/cy_tcpwm_pwm.c **** * \funcusage
  41:Generated_Source\PSoC6\pdl\drivers\peripheral\tcpwm/cy_tcpwm_pwm.c **** * \snippet tcpwm/tcpwm_v1_0_pwm_sut_01.cydsn/main_cm4.c snippet_Cy_TCPWM_PWM_Config
  42:Generated_Source\PSoC6\pdl\drivers\peripheral\tcpwm/cy_tcpwm_pwm.c **** * \snippet tcpwm/tcpwm_v1_0_pwm_sut_01.cydsn/main_cm4.c snippet_Cy_TCPWM_PWM_Init
  43:Generated_Source\PSoC6\pdl\drivers\peripheral\tcpwm/cy_tcpwm_pwm.c **** *
  44:Generated_Source\PSoC6\pdl\drivers\peripheral\tcpwm/cy_tcpwm_pwm.c **** *******************************************************************************/
  45:Generated_Source\PSoC6\pdl\drivers\peripheral\tcpwm/cy_tcpwm_pwm.c **** cy_en_tcpwm_status_t Cy_TCPWM_PWM_Init(TCPWM_Type *base, uint32_t cntNum,  cy_stc_tcpwm_pwm_config_
  46:Generated_Source\PSoC6\pdl\drivers\peripheral\tcpwm/cy_tcpwm_pwm.c **** {
  28              		.loc 1 46 0
  29              		.cfi_startproc
  30              		@ args = 0, pretend = 0, frame = 0
  31              		@ frame_needed = 0, uses_anonymous_args = 0
  32              	.LVL0:
  33 0000 F0B5     		push	{r4, r5, r6, r7, lr}
  34              		.cfi_def_cfa_offset 20
  35              		.cfi_offset 4, -20
  36              		.cfi_offset 5, -16
  37              		.cfi_offset 6, -12
  38              		.cfi_offset 7, -8
  39              		.cfi_offset 14, -4
  40              	.LVL1:
  47:Generated_Source\PSoC6\pdl\drivers\peripheral\tcpwm/cy_tcpwm_pwm.c ****     cy_en_tcpwm_status_t status = CY_TCPWM_BAD_PARAM;
  48:Generated_Source\PSoC6\pdl\drivers\peripheral\tcpwm/cy_tcpwm_pwm.c **** 
  49:Generated_Source\PSoC6\pdl\drivers\peripheral\tcpwm/cy_tcpwm_pwm.c ****     if ((NULL != base) && (NULL != config))
  41              		.loc 1 49 0
  42 0002 0028     		cmp	r0, #0
  43 0004 00D1     		bne	.LCB16
  44 0006 C9E0     		b	.L12	@long jump
  45              	.LCB16:
  46              		.loc 1 49 0 is_stmt 0 discriminator 1
  47 0008 002A     		cmp	r2, #0
  48 000a 00D1     		bne	.LCB18
  49 000c C8E0     		b	.L13	@long jump
  50              	.LCB18:
  50:Generated_Source\PSoC6\pdl\drivers\peripheral\tcpwm/cy_tcpwm_pwm.c ****     {
  51:Generated_Source\PSoC6\pdl\drivers\peripheral\tcpwm/cy_tcpwm_pwm.c ****         base->CNT[cntNum].CTRL = ((config->enableCompareSwap ? TCPWM_CNT_CTRL_AUTO_RELOAD_CC_Msk : 
  51              		.loc 1 51 0 is_stmt 1
  52 000e 2823     		movs	r3, #40
  53 0010 D35C     		ldrb	r3, [r2, r3]
  54 0012 002B     		cmp	r3, #0
  55 0014 01D0     		beq	.L14
  56 0016 0124     		movs	r4, #1
  57 0018 00E0     		b	.L3
  58              	.L14:
  59 001a 0024     		movs	r4, #0
  60              	.L3:
  52:Generated_Source\PSoC6\pdl\drivers\peripheral\tcpwm/cy_tcpwm_pwm.c ****                                   (config->enablePeriodSwap ? TCPWM_CNT_CTRL_AUTO_RELOAD_PERIOD_Msk
  61              		.loc 1 52 0
  62 001c 137F     		ldrb	r3, [r2, #28]
ARM GAS  C:\Users\gjl\AppData\Local\Temp\ccwur0T6.s 			page 3


  63 001e 002B     		cmp	r3, #0
  64 0020 01D0     		beq	.L15
  65 0022 0223     		movs	r3, #2
  66 0024 00E0     		b	.L4
  67              	.L15:
  68 0026 0023     		movs	r3, #0
  69              	.L4:
  51:Generated_Source\PSoC6\pdl\drivers\peripheral\tcpwm/cy_tcpwm_pwm.c ****                                   (config->enablePeriodSwap ? TCPWM_CNT_CTRL_AUTO_RELOAD_PERIOD_Msk
  70              		.loc 1 51 0
  71 0028 1C43     		orrs	r4, r3
  53:Generated_Source\PSoC6\pdl\drivers\peripheral\tcpwm/cy_tcpwm_pwm.c ****                                   _VAL2FLD(TCPWM_CNT_CTRL_ONE_SHOT, config->runMode) |
  72              		.loc 1 53 0
  73 002a 1369     		ldr	r3, [r2, #16]
  74 002c 9B04     		lsls	r3, r3, #18
  75 002e 8026     		movs	r6, #128
  76 0030 F602     		lsls	r6, r6, #11
  77 0032 3340     		ands	r3, r6
  52:Generated_Source\PSoC6\pdl\drivers\peripheral\tcpwm/cy_tcpwm_pwm.c ****                                   (config->enablePeriodSwap ? TCPWM_CNT_CTRL_AUTO_RELOAD_PERIOD_Msk
  78              		.loc 1 52 0
  79 0034 2343     		orrs	r3, r4
  54:Generated_Source\PSoC6\pdl\drivers\peripheral\tcpwm/cy_tcpwm_pwm.c ****                                   _VAL2FLD(TCPWM_CNT_CTRL_UP_DOWN_MODE, config->pwmAlignment) |
  80              		.loc 1 54 0
  81 0036 9468     		ldr	r4, [r2, #8]
  82 0038 2404     		lsls	r4, r4, #16
  83 003a C026     		movs	r6, #192
  84 003c B602     		lsls	r6, r6, #10
  85 003e 3440     		ands	r4, r6
  53:Generated_Source\PSoC6\pdl\drivers\peripheral\tcpwm/cy_tcpwm_pwm.c ****                                   _VAL2FLD(TCPWM_CNT_CTRL_ONE_SHOT, config->runMode) |
  86              		.loc 1 53 0
  87 0040 2343     		orrs	r3, r4
  55:Generated_Source\PSoC6\pdl\drivers\peripheral\tcpwm/cy_tcpwm_pwm.c ****                                   _VAL2FLD(TCPWM_CNT_CTRL_MODE, config->pwmMode) |
  88              		.loc 1 55 0
  89 0042 1668     		ldr	r6, [r2]
  90 0044 3406     		lsls	r4, r6, #24
  91 0046 E027     		movs	r7, #224
  92 0048 FF04     		lsls	r7, r7, #19
  93 004a 3C40     		ands	r4, r7
  54:Generated_Source\PSoC6\pdl\drivers\peripheral\tcpwm/cy_tcpwm_pwm.c ****                                   _VAL2FLD(TCPWM_CNT_CTRL_UP_DOWN_MODE, config->pwmAlignment) |
  94              		.loc 1 54 0
  95 004c 2343     		orrs	r3, r4
  56:Generated_Source\PSoC6\pdl\drivers\peripheral\tcpwm/cy_tcpwm_pwm.c ****                                   _VAL2FLD(TCPWM_CNT_CTRL_QUADRATURE_MODE,
  96              		.loc 1 56 0
  97 004e 546B     		ldr	r4, [r2, #52]
  98 0050 6500     		lsls	r5, r4, #1
  99 0052 146B     		ldr	r4, [r2, #48]
 100 0054 2543     		orrs	r5, r4
 101 0056 2D05     		lsls	r5, r5, #20
 102 0058 C027     		movs	r7, #192
 103 005a BF03     		lsls	r7, r7, #14
 104 005c 3D40     		ands	r5, r7
  55:Generated_Source\PSoC6\pdl\drivers\peripheral\tcpwm/cy_tcpwm_pwm.c ****                                   _VAL2FLD(TCPWM_CNT_CTRL_MODE, config->pwmMode) |
 105              		.loc 1 55 0
 106 005e 2B43     		orrs	r3, r5
  57:Generated_Source\PSoC6\pdl\drivers\peripheral\tcpwm/cy_tcpwm_pwm.c ****                                            (config->invertPWMOut | (config->invertPWMOutN << 1U))) 
  58:Generated_Source\PSoC6\pdl\drivers\peripheral\tcpwm/cy_tcpwm_pwm.c ****                                   (config->killMode << CY_TCPWM_PWM_CTRL_SYNC_KILL_OR_STOP_ON_KILL_
 107              		.loc 1 58 0
 108 0060 946B     		ldr	r4, [r2, #56]
ARM GAS  C:\Users\gjl\AppData\Local\Temp\ccwur0T6.s 			page 4


 109 0062 A500     		lsls	r5, r4, #2
  57:Generated_Source\PSoC6\pdl\drivers\peripheral\tcpwm/cy_tcpwm_pwm.c ****                                            (config->invertPWMOut | (config->invertPWMOutN << 1U))) 
 110              		.loc 1 57 0
 111 0064 2B43     		orrs	r3, r5
 112 0066 1C00     		movs	r4, r3
  59:Generated_Source\PSoC6\pdl\drivers\peripheral\tcpwm/cy_tcpwm_pwm.c ****                                   _VAL2FLD(TCPWM_CNT_CTRL_GENERIC, ((CY_TCPWM_PWM_MODE_DEADTIME == 
 113              		.loc 1 59 0
 114 0068 052E     		cmp	r6, #5
 115 006a 03D1     		bne	.L5
 116              		.loc 1 59 0 is_stmt 0 discriminator 1
 117 006c D368     		ldr	r3, [r2, #12]
 118 006e 1B06     		lsls	r3, r3, #24
 119 0070 1B0C     		lsrs	r3, r3, #16
 120 0072 02E0     		b	.L6
 121              	.L5:
 122              		.loc 1 59 0 discriminator 2
 123 0074 5368     		ldr	r3, [r2, #4]
 124 0076 1B06     		lsls	r3, r3, #24
 125 0078 1B0C     		lsrs	r3, r3, #16
 126              	.L6:
  58:Generated_Source\PSoC6\pdl\drivers\peripheral\tcpwm/cy_tcpwm_pwm.c ****                                   _VAL2FLD(TCPWM_CNT_CTRL_GENERIC, ((CY_TCPWM_PWM_MODE_DEADTIME == 
 127              		.loc 1 58 0 is_stmt 1
 128 007a 2343     		orrs	r3, r4
  51:Generated_Source\PSoC6\pdl\drivers\peripheral\tcpwm/cy_tcpwm_pwm.c ****                                   (config->enablePeriodSwap ? TCPWM_CNT_CTRL_AUTO_RELOAD_PERIOD_Msk
 129              		.loc 1 51 0
 130 007c 0C1D     		adds	r4, r1, #4
 131 007e A401     		lsls	r4, r4, #6
 132 0080 2350     		str	r3, [r4, r0]
  60:Generated_Source\PSoC6\pdl\drivers\peripheral\tcpwm/cy_tcpwm_pwm.c ****                                                                      config->deadTimeClocks : confi
  61:Generated_Source\PSoC6\pdl\drivers\peripheral\tcpwm/cy_tcpwm_pwm.c **** 
  62:Generated_Source\PSoC6\pdl\drivers\peripheral\tcpwm/cy_tcpwm_pwm.c ****         if (CY_TCPWM_PWM_MODE_PSEUDORANDOM == config->pwmMode)
 133              		.loc 1 62 0
 134 0082 1368     		ldr	r3, [r2]
 135 0084 062B     		cmp	r3, #6
 136 0086 0BD1     		bne	.L7
  63:Generated_Source\PSoC6\pdl\drivers\peripheral\tcpwm/cy_tcpwm_pwm.c ****         {
  64:Generated_Source\PSoC6\pdl\drivers\peripheral\tcpwm/cy_tcpwm_pwm.c ****             base->CNT[cntNum].COUNTER = CY_TCPWM_CNT_UP_DOWN_INIT_VAL;
 137              		.loc 1 64 0
 138 0088 8B01     		lsls	r3, r1, #6
 139 008a C318     		adds	r3, r0, r3
 140 008c 1C00     		movs	r4, r3
 141 008e 0934     		adds	r4, r4, #9
 142 0090 FF34     		adds	r4, r4, #255
 143 0092 0125     		movs	r5, #1
 144 0094 2560     		str	r5, [r4]
  65:Generated_Source\PSoC6\pdl\drivers\peripheral\tcpwm/cy_tcpwm_pwm.c ****             base->CNT[cntNum].TR_CTRL2 = CY_TCPWM_PWM_MODE_PR;
 145              		.loc 1 65 0
 146 0096 2933     		adds	r3, r3, #41
 147 0098 FF33     		adds	r3, r3, #255
 148 009a 3F24     		movs	r4, #63
 149 009c 1C60     		str	r4, [r3]
 150 009e 27E0     		b	.L8
 151              	.L7:
  66:Generated_Source\PSoC6\pdl\drivers\peripheral\tcpwm/cy_tcpwm_pwm.c ****         }
  67:Generated_Source\PSoC6\pdl\drivers\peripheral\tcpwm/cy_tcpwm_pwm.c ****         else
  68:Generated_Source\PSoC6\pdl\drivers\peripheral\tcpwm/cy_tcpwm_pwm.c ****         {
  69:Generated_Source\PSoC6\pdl\drivers\peripheral\tcpwm/cy_tcpwm_pwm.c ****             if (CY_TCPWM_PWM_LEFT_ALIGN == config->pwmAlignment)
ARM GAS  C:\Users\gjl\AppData\Local\Temp\ccwur0T6.s 			page 5


 152              		.loc 1 69 0
 153 00a0 9368     		ldr	r3, [r2, #8]
 154 00a2 002B     		cmp	r3, #0
 155 00a4 0BD1     		bne	.L9
  70:Generated_Source\PSoC6\pdl\drivers\peripheral\tcpwm/cy_tcpwm_pwm.c ****             {
  71:Generated_Source\PSoC6\pdl\drivers\peripheral\tcpwm/cy_tcpwm_pwm.c ****                 base->CNT[cntNum].COUNTER = CY_TCPWM_CNT_UP_INIT_VAL;
 156              		.loc 1 71 0
 157 00a6 8B01     		lsls	r3, r1, #6
 158 00a8 C318     		adds	r3, r0, r3
 159 00aa 1C00     		movs	r4, r3
 160 00ac 0934     		adds	r4, r4, #9
 161 00ae FF34     		adds	r4, r4, #255
 162 00b0 0025     		movs	r5, #0
 163 00b2 2560     		str	r5, [r4]
  72:Generated_Source\PSoC6\pdl\drivers\peripheral\tcpwm/cy_tcpwm_pwm.c ****                 base->CNT[cntNum].TR_CTRL2 = CY_TCPWM_PWM_MODE_LEFT;
 164              		.loc 1 72 0
 165 00b4 2933     		adds	r3, r3, #41
 166 00b6 FF33     		adds	r3, r3, #255
 167 00b8 3124     		movs	r4, #49
 168 00ba 1C60     		str	r4, [r3]
 169 00bc 18E0     		b	.L8
 170              	.L9:
  73:Generated_Source\PSoC6\pdl\drivers\peripheral\tcpwm/cy_tcpwm_pwm.c ****             }
  74:Generated_Source\PSoC6\pdl\drivers\peripheral\tcpwm/cy_tcpwm_pwm.c ****             else if (CY_TCPWM_PWM_RIGHT_ALIGN == config->pwmAlignment)
 171              		.loc 1 74 0
 172 00be 012B     		cmp	r3, #1
 173 00c0 0BD1     		bne	.L10
  75:Generated_Source\PSoC6\pdl\drivers\peripheral\tcpwm/cy_tcpwm_pwm.c ****             {
  76:Generated_Source\PSoC6\pdl\drivers\peripheral\tcpwm/cy_tcpwm_pwm.c ****                 base->CNT[cntNum].COUNTER = config->period0;
 174              		.loc 1 76 0
 175 00c2 8B01     		lsls	r3, r1, #6
 176 00c4 C318     		adds	r3, r0, r3
 177 00c6 1C00     		movs	r4, r3
 178 00c8 0934     		adds	r4, r4, #9
 179 00ca FF34     		adds	r4, r4, #255
 180 00cc 5569     		ldr	r5, [r2, #20]
 181 00ce 2560     		str	r5, [r4]
  77:Generated_Source\PSoC6\pdl\drivers\peripheral\tcpwm/cy_tcpwm_pwm.c ****                 base->CNT[cntNum].TR_CTRL2 = CY_TCPWM_PWM_MODE_RIGHT;
 182              		.loc 1 77 0
 183 00d0 2933     		adds	r3, r3, #41
 184 00d2 FF33     		adds	r3, r3, #255
 185 00d4 1C24     		movs	r4, #28
 186 00d6 1C60     		str	r4, [r3]
 187 00d8 0AE0     		b	.L8
 188              	.L10:
  78:Generated_Source\PSoC6\pdl\drivers\peripheral\tcpwm/cy_tcpwm_pwm.c ****             }
  79:Generated_Source\PSoC6\pdl\drivers\peripheral\tcpwm/cy_tcpwm_pwm.c ****             else
  80:Generated_Source\PSoC6\pdl\drivers\peripheral\tcpwm/cy_tcpwm_pwm.c ****             {
  81:Generated_Source\PSoC6\pdl\drivers\peripheral\tcpwm/cy_tcpwm_pwm.c ****                 base->CNT[cntNum].COUNTER = CY_TCPWM_CNT_UP_DOWN_INIT_VAL;
 189              		.loc 1 81 0
 190 00da 8B01     		lsls	r3, r1, #6
 191 00dc C318     		adds	r3, r0, r3
 192 00de 1C00     		movs	r4, r3
 193 00e0 0934     		adds	r4, r4, #9
 194 00e2 FF34     		adds	r4, r4, #255
 195 00e4 0125     		movs	r5, #1
 196 00e6 2560     		str	r5, [r4]
ARM GAS  C:\Users\gjl\AppData\Local\Temp\ccwur0T6.s 			page 6


  82:Generated_Source\PSoC6\pdl\drivers\peripheral\tcpwm/cy_tcpwm_pwm.c ****                 base->CNT[cntNum].TR_CTRL2 = CY_TCPWM_PWM_MODE_CNTR_OR_ASYMM;
 197              		.loc 1 82 0
 198 00e8 2933     		adds	r3, r3, #41
 199 00ea FF33     		adds	r3, r3, #255
 200 00ec 1224     		movs	r4, #18
 201 00ee 1C60     		str	r4, [r3]
 202              	.L8:
  83:Generated_Source\PSoC6\pdl\drivers\peripheral\tcpwm/cy_tcpwm_pwm.c ****             }
  84:Generated_Source\PSoC6\pdl\drivers\peripheral\tcpwm/cy_tcpwm_pwm.c ****         }
  85:Generated_Source\PSoC6\pdl\drivers\peripheral\tcpwm/cy_tcpwm_pwm.c **** 
  86:Generated_Source\PSoC6\pdl\drivers\peripheral\tcpwm/cy_tcpwm_pwm.c ****         base->CNT[cntNum].CC = config->compare0;
 203              		.loc 1 86 0
 204 00f0 8B01     		lsls	r3, r1, #6
 205 00f2 C318     		adds	r3, r0, r3
 206 00f4 1C00     		movs	r4, r3
 207 00f6 0D34     		adds	r4, r4, #13
 208 00f8 FF34     		adds	r4, r4, #255
 209 00fa 156A     		ldr	r5, [r2, #32]
 210 00fc 2560     		str	r5, [r4]
  87:Generated_Source\PSoC6\pdl\drivers\peripheral\tcpwm/cy_tcpwm_pwm.c ****         base->CNT[cntNum].CC_BUFF = config->compare1;
 211              		.loc 1 87 0
 212 00fe 0434     		adds	r4, r4, #4
 213 0100 556A     		ldr	r5, [r2, #36]
 214 0102 2560     		str	r5, [r4]
  88:Generated_Source\PSoC6\pdl\drivers\peripheral\tcpwm/cy_tcpwm_pwm.c ****         base->CNT[cntNum].PERIOD = config->period0;
 215              		.loc 1 88 0
 216 0104 0434     		adds	r4, r4, #4
 217 0106 5569     		ldr	r5, [r2, #20]
 218 0108 2560     		str	r5, [r4]
  89:Generated_Source\PSoC6\pdl\drivers\peripheral\tcpwm/cy_tcpwm_pwm.c ****         base->CNT[cntNum].PERIOD_BUFF = config->period1;
 219              		.loc 1 89 0
 220 010a 1933     		adds	r3, r3, #25
 221 010c FF33     		adds	r3, r3, #255
 222 010e 9469     		ldr	r4, [r2, #24]
 223 0110 1C60     		str	r4, [r3]
  90:Generated_Source\PSoC6\pdl\drivers\peripheral\tcpwm/cy_tcpwm_pwm.c **** 
  91:Generated_Source\PSoC6\pdl\drivers\peripheral\tcpwm/cy_tcpwm_pwm.c ****         if (CY_TCPWM_INPUT_CREATOR != config->countInput)
 224              		.loc 1 91 0
 225 0112 136E     		ldr	r3, [r2, #96]
 226 0114 5C1C     		adds	r4, r3, #1
 227 0116 1BD0     		beq	.L11
  92:Generated_Source\PSoC6\pdl\drivers\peripheral\tcpwm/cy_tcpwm_pwm.c ****         {
  93:Generated_Source\PSoC6\pdl\drivers\peripheral\tcpwm/cy_tcpwm_pwm.c ****             base->CNT[cntNum].TR_CTRL0 = (_VAL2FLD(TCPWM_CNT_TR_CTRL0_CAPTURE_SEL, config->swapInpu
 228              		.loc 1 93 0
 229 0118 0F25     		movs	r5, #15
 230 011a 166C     		ldr	r6, [r2, #64]
 231 011c 2E40     		ands	r6, r5
  94:Generated_Source\PSoC6\pdl\drivers\peripheral\tcpwm/cy_tcpwm_pwm.c ****                                           _VAL2FLD(TCPWM_CNT_TR_CTRL0_RELOAD_SEL, config->reloadInp
 232              		.loc 1 94 0
 233 011e 946C     		ldr	r4, [r2, #72]
 234 0120 2502     		lsls	r5, r4, #8
 235 0122 F024     		movs	r4, #240
 236 0124 2401     		lsls	r4, r4, #4
 237 0126 2540     		ands	r5, r4
  93:Generated_Source\PSoC6\pdl\drivers\peripheral\tcpwm/cy_tcpwm_pwm.c ****                                           _VAL2FLD(TCPWM_CNT_TR_CTRL0_RELOAD_SEL, config->reloadInp
 238              		.loc 1 93 0
 239 0128 3543     		orrs	r5, r6
ARM GAS  C:\Users\gjl\AppData\Local\Temp\ccwur0T6.s 			page 7


  95:Generated_Source\PSoC6\pdl\drivers\peripheral\tcpwm/cy_tcpwm_pwm.c ****                                           _VAL2FLD(TCPWM_CNT_TR_CTRL0_START_SEL, config->startInput
 240              		.loc 1 95 0
 241 012a 146D     		ldr	r4, [r2, #80]
 242 012c 2604     		lsls	r6, r4, #16
 243 012e F024     		movs	r4, #240
 244 0130 2403     		lsls	r4, r4, #12
 245 0132 3440     		ands	r4, r6
  94:Generated_Source\PSoC6\pdl\drivers\peripheral\tcpwm/cy_tcpwm_pwm.c ****                                           _VAL2FLD(TCPWM_CNT_TR_CTRL0_RELOAD_SEL, config->reloadInp
 246              		.loc 1 94 0
 247 0134 2543     		orrs	r5, r4
  96:Generated_Source\PSoC6\pdl\drivers\peripheral\tcpwm/cy_tcpwm_pwm.c ****                                           _VAL2FLD(TCPWM_CNT_TR_CTRL0_STOP_SEL, config->killInput) 
 248              		.loc 1 96 0
 249 0136 946D     		ldr	r4, [r2, #88]
 250 0138 2407     		lsls	r4, r4, #28
 251 013a 240C     		lsrs	r4, r4, #16
  95:Generated_Source\PSoC6\pdl\drivers\peripheral\tcpwm/cy_tcpwm_pwm.c ****                                           _VAL2FLD(TCPWM_CNT_TR_CTRL0_START_SEL, config->startInput
 252              		.loc 1 95 0
 253 013c 2543     		orrs	r5, r4
  97:Generated_Source\PSoC6\pdl\drivers\peripheral\tcpwm/cy_tcpwm_pwm.c ****                                           _VAL2FLD(TCPWM_CNT_TR_CTRL0_COUNT_SEL, config->countInput
 254              		.loc 1 97 0
 255 013e 1C01     		lsls	r4, r3, #4
 256 0140 FF23     		movs	r3, #255
 257 0142 2340     		ands	r3, r4
  96:Generated_Source\PSoC6\pdl\drivers\peripheral\tcpwm/cy_tcpwm_pwm.c ****                                           _VAL2FLD(TCPWM_CNT_TR_CTRL0_STOP_SEL, config->killInput) 
 258              		.loc 1 96 0
 259 0144 2B43     		orrs	r3, r5
  93:Generated_Source\PSoC6\pdl\drivers\peripheral\tcpwm/cy_tcpwm_pwm.c ****                                           _VAL2FLD(TCPWM_CNT_TR_CTRL0_RELOAD_SEL, config->reloadInp
 260              		.loc 1 93 0
 261 0146 8C01     		lsls	r4, r1, #6
 262 0148 0419     		adds	r4, r0, r4
 263 014a 2134     		adds	r4, r4, #33
 264 014c FF34     		adds	r4, r4, #255
 265 014e 2360     		str	r3, [r4]
 266              	.L11:
  98:Generated_Source\PSoC6\pdl\drivers\peripheral\tcpwm/cy_tcpwm_pwm.c ****         }
  99:Generated_Source\PSoC6\pdl\drivers\peripheral\tcpwm/cy_tcpwm_pwm.c ****         
 100:Generated_Source\PSoC6\pdl\drivers\peripheral\tcpwm/cy_tcpwm_pwm.c ****         base->CNT[cntNum].TR_CTRL1 = (_VAL2FLD(TCPWM_CNT_TR_CTRL1_CAPTURE_EDGE, config->swapInputMo
 267              		.loc 1 100 0
 268 0150 0324     		movs	r4, #3
 269 0152 D56B     		ldr	r5, [r2, #60]
 270 0154 2540     		ands	r5, r4
 101:Generated_Source\PSoC6\pdl\drivers\peripheral\tcpwm/cy_tcpwm_pwm.c ****                                       _VAL2FLD(TCPWM_CNT_TR_CTRL1_RELOAD_EDGE, config->reloadInputM
 271              		.loc 1 101 0
 272 0156 536C     		ldr	r3, [r2, #68]
 273 0158 1E01     		lsls	r6, r3, #4
 274 015a 2D34     		adds	r4, r4, #45
 275 015c 3440     		ands	r4, r6
 100:Generated_Source\PSoC6\pdl\drivers\peripheral\tcpwm/cy_tcpwm_pwm.c ****                                       _VAL2FLD(TCPWM_CNT_TR_CTRL1_RELOAD_EDGE, config->reloadInputM
 276              		.loc 1 100 0
 277 015e 2C43     		orrs	r4, r5
 102:Generated_Source\PSoC6\pdl\drivers\peripheral\tcpwm/cy_tcpwm_pwm.c ****                                       _VAL2FLD(TCPWM_CNT_TR_CTRL1_START_EDGE, config->startInputMod
 278              		.loc 1 102 0
 279 0160 D36C     		ldr	r3, [r2, #76]
 280 0162 1D02     		lsls	r5, r3, #8
 281 0164 C023     		movs	r3, #192
 282 0166 9B00     		lsls	r3, r3, #2
 283 0168 2B40     		ands	r3, r5
ARM GAS  C:\Users\gjl\AppData\Local\Temp\ccwur0T6.s 			page 8


 101:Generated_Source\PSoC6\pdl\drivers\peripheral\tcpwm/cy_tcpwm_pwm.c ****                                       _VAL2FLD(TCPWM_CNT_TR_CTRL1_RELOAD_EDGE, config->reloadInputM
 284              		.loc 1 101 0
 285 016a 2343     		orrs	r3, r4
 103:Generated_Source\PSoC6\pdl\drivers\peripheral\tcpwm/cy_tcpwm_pwm.c ****                                       _VAL2FLD(TCPWM_CNT_TR_CTRL1_STOP_EDGE, config->killInputMode)
 286              		.loc 1 103 0
 287 016c 546D     		ldr	r4, [r2, #84]
 288 016e A401     		lsls	r4, r4, #6
 289 0170 FF25     		movs	r5, #255
 290 0172 2C40     		ands	r4, r5
 102:Generated_Source\PSoC6\pdl\drivers\peripheral\tcpwm/cy_tcpwm_pwm.c ****                                       _VAL2FLD(TCPWM_CNT_TR_CTRL1_START_EDGE, config->startInputMod
 291              		.loc 1 102 0
 292 0174 2343     		orrs	r3, r4
 293 0176 1D00     		movs	r5, r3
 104:Generated_Source\PSoC6\pdl\drivers\peripheral\tcpwm/cy_tcpwm_pwm.c ****                                       _VAL2FLD(TCPWM_CNT_TR_CTRL1_COUNT_EDGE, config->countInputMod
 294              		.loc 1 104 0
 295 0178 D36D     		ldr	r3, [r2, #92]
 296 017a 9C00     		lsls	r4, r3, #2
 297 017c 0C23     		movs	r3, #12
 298 017e 1C40     		ands	r4, r3
 103:Generated_Source\PSoC6\pdl\drivers\peripheral\tcpwm/cy_tcpwm_pwm.c ****                                       _VAL2FLD(TCPWM_CNT_TR_CTRL1_STOP_EDGE, config->killInputMode)
 299              		.loc 1 103 0
 300 0180 2B00     		movs	r3, r5
 301 0182 2343     		orrs	r3, r4
 100:Generated_Source\PSoC6\pdl\drivers\peripheral\tcpwm/cy_tcpwm_pwm.c ****                                       _VAL2FLD(TCPWM_CNT_TR_CTRL1_RELOAD_EDGE, config->reloadInputM
 302              		.loc 1 100 0
 303 0184 8901     		lsls	r1, r1, #6
 304              	.LVL2:
 305 0186 4118     		adds	r1, r0, r1
 306 0188 0800     		movs	r0, r1
 307              	.LVL3:
 308 018a 2530     		adds	r0, r0, #37
 309 018c FF30     		adds	r0, r0, #255
 310 018e 0360     		str	r3, [r0]
 105:Generated_Source\PSoC6\pdl\drivers\peripheral\tcpwm/cy_tcpwm_pwm.c **** 
 106:Generated_Source\PSoC6\pdl\drivers\peripheral\tcpwm/cy_tcpwm_pwm.c ****         base->CNT[cntNum].INTR_MASK = config->interruptSources;
 311              		.loc 1 106 0
 312 0190 D36A     		ldr	r3, [r2, #44]
 313 0192 3931     		adds	r1, r1, #57
 314 0194 FF31     		adds	r1, r1, #255
 315 0196 0B60     		str	r3, [r1]
 316              	.LVL4:
 107:Generated_Source\PSoC6\pdl\drivers\peripheral\tcpwm/cy_tcpwm_pwm.c **** 
 108:Generated_Source\PSoC6\pdl\drivers\peripheral\tcpwm/cy_tcpwm_pwm.c ****         status = CY_TCPWM_SUCCESS;
 317              		.loc 1 108 0
 318 0198 0020     		movs	r0, #0
 319 019a 02E0     		b	.L2
 320              	.LVL5:
 321              	.L12:
  47:Generated_Source\PSoC6\pdl\drivers\peripheral\tcpwm/cy_tcpwm_pwm.c **** 
 322              		.loc 1 47 0
 323 019c 0148     		ldr	r0, .L16
 324              	.LVL6:
 325 019e 00E0     		b	.L2
 326              	.LVL7:
 327              	.L13:
 328 01a0 0048     		ldr	r0, .L16
 329              	.LVL8:
ARM GAS  C:\Users\gjl\AppData\Local\Temp\ccwur0T6.s 			page 9


 330              	.L2:
 109:Generated_Source\PSoC6\pdl\drivers\peripheral\tcpwm/cy_tcpwm_pwm.c ****     }
 110:Generated_Source\PSoC6\pdl\drivers\peripheral\tcpwm/cy_tcpwm_pwm.c **** 
 111:Generated_Source\PSoC6\pdl\drivers\peripheral\tcpwm/cy_tcpwm_pwm.c ****     return(status);
 112:Generated_Source\PSoC6\pdl\drivers\peripheral\tcpwm/cy_tcpwm_pwm.c **** }
 331              		.loc 1 112 0
 332              		@ sp needed
 333 01a2 F0BD     		pop	{r4, r5, r6, r7, pc}
 334              	.L17:
 335              		.align	2
 336              	.L16:
 337 01a4 0100B600 		.word	11927553
 338              		.cfi_endproc
 339              	.LFE63:
 340              		.size	Cy_TCPWM_PWM_Init, .-Cy_TCPWM_PWM_Init
 341              		.section	.text.Cy_TCPWM_PWM_DeInit,"ax",%progbits
 342              		.align	2
 343              		.global	Cy_TCPWM_PWM_DeInit
 344              		.code	16
 345              		.thumb_func
 346              		.type	Cy_TCPWM_PWM_DeInit, %function
 347              	Cy_TCPWM_PWM_DeInit:
 348              	.LFB64:
 113:Generated_Source\PSoC6\pdl\drivers\peripheral\tcpwm/cy_tcpwm_pwm.c **** 
 114:Generated_Source\PSoC6\pdl\drivers\peripheral\tcpwm/cy_tcpwm_pwm.c **** /*******************************************************************************
 115:Generated_Source\PSoC6\pdl\drivers\peripheral\tcpwm/cy_tcpwm_pwm.c **** * Function Name: Cy_TCPWM_PWM_DeInit
 116:Generated_Source\PSoC6\pdl\drivers\peripheral\tcpwm/cy_tcpwm_pwm.c **** ****************************************************************************//**
 117:Generated_Source\PSoC6\pdl\drivers\peripheral\tcpwm/cy_tcpwm_pwm.c **** *
 118:Generated_Source\PSoC6\pdl\drivers\peripheral\tcpwm/cy_tcpwm_pwm.c **** * De-initializes the counter in the TCPWM block, returns register values to 
 119:Generated_Source\PSoC6\pdl\drivers\peripheral\tcpwm/cy_tcpwm_pwm.c **** * default.
 120:Generated_Source\PSoC6\pdl\drivers\peripheral\tcpwm/cy_tcpwm_pwm.c **** *
 121:Generated_Source\PSoC6\pdl\drivers\peripheral\tcpwm/cy_tcpwm_pwm.c **** * \param base
 122:Generated_Source\PSoC6\pdl\drivers\peripheral\tcpwm/cy_tcpwm_pwm.c **** * The pointer to a TCPWM instance.
 123:Generated_Source\PSoC6\pdl\drivers\peripheral\tcpwm/cy_tcpwm_pwm.c **** *
 124:Generated_Source\PSoC6\pdl\drivers\peripheral\tcpwm/cy_tcpwm_pwm.c **** * \param cntNum
 125:Generated_Source\PSoC6\pdl\drivers\peripheral\tcpwm/cy_tcpwm_pwm.c **** * The Counter instance number in the selected TCPWM.
 126:Generated_Source\PSoC6\pdl\drivers\peripheral\tcpwm/cy_tcpwm_pwm.c **** *
 127:Generated_Source\PSoC6\pdl\drivers\peripheral\tcpwm/cy_tcpwm_pwm.c **** * \param config
 128:Generated_Source\PSoC6\pdl\drivers\peripheral\tcpwm/cy_tcpwm_pwm.c **** * The pointer to a configuration structure. See \ref cy_stc_tcpwm_pwm_config_t.
 129:Generated_Source\PSoC6\pdl\drivers\peripheral\tcpwm/cy_tcpwm_pwm.c **** *
 130:Generated_Source\PSoC6\pdl\drivers\peripheral\tcpwm/cy_tcpwm_pwm.c **** * \funcusage
 131:Generated_Source\PSoC6\pdl\drivers\peripheral\tcpwm/cy_tcpwm_pwm.c **** * \snippet tcpwm/tcpwm_v1_0_pwm_sut_01.cydsn/main_cm4.c snippet_Cy_TCPWM_PWM_DeInit
 132:Generated_Source\PSoC6\pdl\drivers\peripheral\tcpwm/cy_tcpwm_pwm.c **** *
 133:Generated_Source\PSoC6\pdl\drivers\peripheral\tcpwm/cy_tcpwm_pwm.c **** *******************************************************************************/
 134:Generated_Source\PSoC6\pdl\drivers\peripheral\tcpwm/cy_tcpwm_pwm.c **** void Cy_TCPWM_PWM_DeInit(TCPWM_Type *base, uint32_t cntNum, cy_stc_tcpwm_pwm_config_t const *config
 135:Generated_Source\PSoC6\pdl\drivers\peripheral\tcpwm/cy_tcpwm_pwm.c **** {
 349              		.loc 1 135 0
 350              		.cfi_startproc
 351              		@ args = 0, pretend = 0, frame = 0
 352              		@ frame_needed = 0, uses_anonymous_args = 0
 353              	.LVL9:
 354 0000 70B5     		push	{r4, r5, r6, lr}
 355              		.cfi_def_cfa_offset 16
 356              		.cfi_offset 4, -16
 357              		.cfi_offset 5, -12
 358              		.cfi_offset 6, -8
 359              		.cfi_offset 14, -4
ARM GAS  C:\Users\gjl\AppData\Local\Temp\ccwur0T6.s 			page 10


 136:Generated_Source\PSoC6\pdl\drivers\peripheral\tcpwm/cy_tcpwm_pwm.c ****     base->CNT[cntNum].CTRL = CY_TCPWM_CNT_CTRL_DEFAULT;
 360              		.loc 1 136 0
 361 0002 0B1D     		adds	r3, r1, #4
 362 0004 9B01     		lsls	r3, r3, #6
 363 0006 0024     		movs	r4, #0
 364 0008 1C50     		str	r4, [r3, r0]
 137:Generated_Source\PSoC6\pdl\drivers\peripheral\tcpwm/cy_tcpwm_pwm.c ****     base->CNT[cntNum].COUNTER = CY_TCPWM_CNT_COUNTER_DEFAULT;
 365              		.loc 1 137 0
 366 000a 8B01     		lsls	r3, r1, #6
 367 000c C318     		adds	r3, r0, r3
 368 000e 1D00     		movs	r5, r3
 369 0010 0935     		adds	r5, r5, #9
 370 0012 FF35     		adds	r5, r5, #255
 371 0014 2C60     		str	r4, [r5]
 138:Generated_Source\PSoC6\pdl\drivers\peripheral\tcpwm/cy_tcpwm_pwm.c ****     base->CNT[cntNum].CC = CY_TCPWM_CNT_CC_DEFAULT;
 372              		.loc 1 138 0
 373 0016 1E00     		movs	r6, r3
 374 0018 0D36     		adds	r6, r6, #13
 375 001a FF36     		adds	r6, r6, #255
 376 001c 0125     		movs	r5, #1
 377 001e 6D42     		rsbs	r5, r5, #0
 378 0020 3560     		str	r5, [r6]
 139:Generated_Source\PSoC6\pdl\drivers\peripheral\tcpwm/cy_tcpwm_pwm.c ****     base->CNT[cntNum].CC_BUFF = CY_TCPWM_CNT_CC_BUFF_DEFAULT;
 379              		.loc 1 139 0
 380 0022 0436     		adds	r6, r6, #4
 381 0024 3560     		str	r5, [r6]
 140:Generated_Source\PSoC6\pdl\drivers\peripheral\tcpwm/cy_tcpwm_pwm.c ****     base->CNT[cntNum].PERIOD = CY_TCPWM_CNT_PERIOD_DEFAULT;
 382              		.loc 1 140 0
 383 0026 0436     		adds	r6, r6, #4
 384 0028 3560     		str	r5, [r6]
 141:Generated_Source\PSoC6\pdl\drivers\peripheral\tcpwm/cy_tcpwm_pwm.c ****     base->CNT[cntNum].PERIOD_BUFF = CY_TCPWM_CNT_PERIOD_BUFF_DEFAULT;
 385              		.loc 1 141 0
 386 002a 0436     		adds	r6, r6, #4
 387 002c 3560     		str	r5, [r6]
 142:Generated_Source\PSoC6\pdl\drivers\peripheral\tcpwm/cy_tcpwm_pwm.c ****     base->CNT[cntNum].TR_CTRL1 = CY_TCPWM_CNT_TR_CTRL1_DEFAULT;
 388              		.loc 1 142 0
 389 002e 1D00     		movs	r5, r3
 390 0030 2535     		adds	r5, r5, #37
 391 0032 FF35     		adds	r5, r5, #255
 392 0034 0B4E     		ldr	r6, .L20
 393 0036 2E60     		str	r6, [r5]
 143:Generated_Source\PSoC6\pdl\drivers\peripheral\tcpwm/cy_tcpwm_pwm.c ****     base->CNT[cntNum].TR_CTRL2 = CY_TCPWM_CNT_TR_CTRL2_DEFAULT;
 394              		.loc 1 143 0
 395 0038 0435     		adds	r5, r5, #4
 396 003a 3F26     		movs	r6, #63
 397 003c 2E60     		str	r6, [r5]
 144:Generated_Source\PSoC6\pdl\drivers\peripheral\tcpwm/cy_tcpwm_pwm.c ****     base->CNT[cntNum].INTR = CY_TCPWM_CNT_INTR_DEFAULT;
 398              		.loc 1 144 0
 399 003e 0835     		adds	r5, r5, #8
 400 0040 3C3E     		subs	r6, r6, #60
 401 0042 2E60     		str	r6, [r5]
 145:Generated_Source\PSoC6\pdl\drivers\peripheral\tcpwm/cy_tcpwm_pwm.c ****     base->CNT[cntNum].INTR_SET = CY_TCPWM_CNT_INTR_SET_DEFAULT;
 402              		.loc 1 145 0
 403 0044 0435     		adds	r5, r5, #4
 404 0046 2C60     		str	r4, [r5]
 146:Generated_Source\PSoC6\pdl\drivers\peripheral\tcpwm/cy_tcpwm_pwm.c ****     base->CNT[cntNum].INTR_MASK = CY_TCPWM_CNT_INTR_MASK_DEFAULT;
 405              		.loc 1 146 0
ARM GAS  C:\Users\gjl\AppData\Local\Temp\ccwur0T6.s 			page 11


 406 0048 3933     		adds	r3, r3, #57
 407 004a FF33     		adds	r3, r3, #255
 408 004c 1C60     		str	r4, [r3]
 147:Generated_Source\PSoC6\pdl\drivers\peripheral\tcpwm/cy_tcpwm_pwm.c **** 
 148:Generated_Source\PSoC6\pdl\drivers\peripheral\tcpwm/cy_tcpwm_pwm.c ****     if (CY_TCPWM_INPUT_CREATOR != config->countInput)
 409              		.loc 1 148 0
 410 004e 136E     		ldr	r3, [r2, #96]
 411 0050 0133     		adds	r3, r3, #1
 412 0052 05D0     		beq	.L18
 149:Generated_Source\PSoC6\pdl\drivers\peripheral\tcpwm/cy_tcpwm_pwm.c ****     {    
 150:Generated_Source\PSoC6\pdl\drivers\peripheral\tcpwm/cy_tcpwm_pwm.c ****         base->CNT[cntNum].TR_CTRL0 = CY_TCPWM_CNT_TR_CTRL0_DEFAULT;
 413              		.loc 1 150 0
 414 0054 8901     		lsls	r1, r1, #6
 415              	.LVL10:
 416 0056 4118     		adds	r1, r0, r1
 417 0058 2131     		adds	r1, r1, #33
 418 005a FF31     		adds	r1, r1, #255
 419 005c 1023     		movs	r3, #16
 420 005e 0B60     		str	r3, [r1]
 421              	.L18:
 151:Generated_Source\PSoC6\pdl\drivers\peripheral\tcpwm/cy_tcpwm_pwm.c ****     }
 152:Generated_Source\PSoC6\pdl\drivers\peripheral\tcpwm/cy_tcpwm_pwm.c **** }
 422              		.loc 1 152 0
 423              		@ sp needed
 424 0060 70BD     		pop	{r4, r5, r6, pc}
 425              	.L21:
 426 0062 C046     		.align	2
 427              	.L20:
 428 0064 FF030000 		.word	1023
 429              		.cfi_endproc
 430              	.LFE64:
 431              		.size	Cy_TCPWM_PWM_DeInit, .-Cy_TCPWM_PWM_DeInit
 432              		.text
 433              	.Letext0:
 434              		.file 2 "c:\\program files (x86)\\cypress\\psoc creator\\4.2\\psoc creator\\import\\gnu\\arm\\5.4.
 435              		.file 3 "c:\\program files (x86)\\cypress\\psoc creator\\4.2\\psoc creator\\import\\gnu\\arm\\5.4.
 436              		.file 4 "Generated_Source\\PSoC6\\pdl\\devices/psoc6/ip/cyip_tcpwm.h"
 437              		.file 5 "Generated_Source\\PSoC6\\pdl\\drivers\\peripheral\\tcpwm\\cy_tcpwm.h"
 438              		.file 6 "Generated_Source\\PSoC6\\pdl\\drivers\\peripheral\\tcpwm\\cy_tcpwm_pwm.h"