ARM GAS  C:\Users\gjl\AppData\Local\Temp\ccprL3gI.s 			page 1


   1              		.syntax unified
   2              		.cpu cortex-m4
   3              		.eabi_attribute 27, 1
   4              		.fpu fpv4-sp-d16
   5              		.eabi_attribute 20, 1
   6              		.eabi_attribute 21, 1
   7              		.eabi_attribute 23, 3
   8              		.eabi_attribute 24, 1
   9              		.eabi_attribute 25, 1
  10              		.eabi_attribute 26, 1
  11              		.eabi_attribute 30, 1
  12              		.eabi_attribute 34, 1
  13              		.eabi_attribute 18, 4
  14              		.thumb
  15              		.syntax unified
  16              		.file	"CapSense_Structure.c"
  17              		.text
  18              	.Ltext0:
  19              		.cfi_sections	.debug_frame
  20              		.section	.text.DsParseParamId,"ax",%progbits
  21              		.align	2
  22              		.thumb
  23              		.thumb_func
  24              		.type	DsParseParamId, %function
  25              	DsParseParamId:
  26              	.LFB126:
  27              		.file 1 "Generated_Source\\PSoC6\\CapSense_Structure.c"
   1:Generated_Source\PSoC6/CapSense_Structure.c **** /***************************************************************************//**
   2:Generated_Source\PSoC6/CapSense_Structure.c **** * \file CapSense_Structure.c
   3:Generated_Source\PSoC6/CapSense_Structure.c **** * \version 2.0
   4:Generated_Source\PSoC6/CapSense_Structure.c **** *
   5:Generated_Source\PSoC6/CapSense_Structure.c **** * \brief
   6:Generated_Source\PSoC6/CapSense_Structure.c **** *   This file defines the data structure global variables and provides implementation
   7:Generated_Source\PSoC6/CapSense_Structure.c **** *   for the high-level and low-level APIs of the Data Structure module.
   8:Generated_Source\PSoC6/CapSense_Structure.c **** *
   9:Generated_Source\PSoC6/CapSense_Structure.c **** * \see CapSense v2.0 Datasheet
  10:Generated_Source\PSoC6/CapSense_Structure.c **** *
  11:Generated_Source\PSoC6/CapSense_Structure.c **** *//*****************************************************************************
  12:Generated_Source\PSoC6/CapSense_Structure.c **** * Copyright (2016-2017), Cypress Semiconductor Corporation.
  13:Generated_Source\PSoC6/CapSense_Structure.c **** ********************************************************************************
  14:Generated_Source\PSoC6/CapSense_Structure.c **** * This software is owned by Cypress Semiconductor Corporation (Cypress) and is
  15:Generated_Source\PSoC6/CapSense_Structure.c **** * protected by and subject to worldwide patent protection (United States and
  16:Generated_Source\PSoC6/CapSense_Structure.c **** * foreign), United States copyright laws and international treaty provisions.
  17:Generated_Source\PSoC6/CapSense_Structure.c **** * Cypress hereby grants to licensee a personal, non-exclusive, non-transferable
  18:Generated_Source\PSoC6/CapSense_Structure.c **** * license to copy, use, modify, create derivative works of, and compile the
  19:Generated_Source\PSoC6/CapSense_Structure.c **** * Cypress Source Code and derivative works for the sole purpose of creating
  20:Generated_Source\PSoC6/CapSense_Structure.c **** * custom software in support of licensee product to be used only in conjunction
  21:Generated_Source\PSoC6/CapSense_Structure.c **** * with a Cypress integrated circuit as specified in the applicable agreement.
  22:Generated_Source\PSoC6/CapSense_Structure.c **** * Any reproduction, modification, translation, compilation, or representation of
  23:Generated_Source\PSoC6/CapSense_Structure.c **** * this software except as specified above is prohibited without the express
  24:Generated_Source\PSoC6/CapSense_Structure.c **** * written permission of Cypress.
  25:Generated_Source\PSoC6/CapSense_Structure.c **** *
  26:Generated_Source\PSoC6/CapSense_Structure.c **** * Disclaimer: CYPRESS MAKES NO WARRANTY OF ANY KIND, EXPRESS OR IMPLIED, WITH
  27:Generated_Source\PSoC6/CapSense_Structure.c **** * REGARD TO THIS MATERIAL, INCLUDING, BUT NOT LIMITED TO, THE IMPLIED
  28:Generated_Source\PSoC6/CapSense_Structure.c **** * WARRANTIES OF MERCHANTABILITY AND FITNESS FOR A PARTICULAR PURPOSE.
  29:Generated_Source\PSoC6/CapSense_Structure.c **** * Cypress reserves the right to make changes without further notice to the
  30:Generated_Source\PSoC6/CapSense_Structure.c **** * materials described herein. Cypress does not assume any liability arising out
ARM GAS  C:\Users\gjl\AppData\Local\Temp\ccprL3gI.s 			page 2


  31:Generated_Source\PSoC6/CapSense_Structure.c **** * of the application or use of any product or circuit described herein. Cypress
  32:Generated_Source\PSoC6/CapSense_Structure.c **** * does not authorize its products for use as critical components in life-support
  33:Generated_Source\PSoC6/CapSense_Structure.c **** * systems where a malfunction or failure may reasonably be expected to result in
  34:Generated_Source\PSoC6/CapSense_Structure.c **** * significant injury to the user. The inclusion of Cypress' product in a life-
  35:Generated_Source\PSoC6/CapSense_Structure.c **** * support systems application implies that the manufacturer assumes all risk of
  36:Generated_Source\PSoC6/CapSense_Structure.c **** * such use and in doing so indemnifies Cypress against all charges. Use may be
  37:Generated_Source\PSoC6/CapSense_Structure.c **** * limited by and subject to the applicable Cypress software license agreement.
  38:Generated_Source\PSoC6/CapSense_Structure.c **** *******************************************************************************/
  39:Generated_Source\PSoC6/CapSense_Structure.c **** 
  40:Generated_Source\PSoC6/CapSense_Structure.c **** #include "syslib/cy_syslib.h"
  41:Generated_Source\PSoC6/CapSense_Structure.c **** #include <stddef.h>
  42:Generated_Source\PSoC6/CapSense_Structure.c **** #include <string.h>
  43:Generated_Source\PSoC6/CapSense_Structure.c **** #include "cyfitter_gpio.h"
  44:Generated_Source\PSoC6/CapSense_Structure.c **** 
  45:Generated_Source\PSoC6/CapSense_Structure.c **** #include "CapSense_Structure.h"
  46:Generated_Source\PSoC6/CapSense_Structure.c **** #include "CapSense_Configuration.h"
  47:Generated_Source\PSoC6/CapSense_Structure.c **** 
  48:Generated_Source\PSoC6/CapSense_Structure.c **** #if (0u != CapSense_ADC_EN)
  49:Generated_Source\PSoC6/CapSense_Structure.c ****     #include "CapSense_Adc.h"
  50:Generated_Source\PSoC6/CapSense_Structure.c **** #endif /* (0u != CapSense_ADC_EN) */
  51:Generated_Source\PSoC6/CapSense_Structure.c **** 
  52:Generated_Source\PSoC6/CapSense_Structure.c **** #if (CapSense_ENABLE == CapSense_SELF_TEST_EN)
  53:Generated_Source\PSoC6/CapSense_Structure.c ****     #include "CapSense_SelfTest.h"
  54:Generated_Source\PSoC6/CapSense_Structure.c **** #endif
  55:Generated_Source\PSoC6/CapSense_Structure.c **** 
  56:Generated_Source\PSoC6/CapSense_Structure.c **** #if (CapSense_ENABLE == CapSense_CENTROID_5X5_CSD_EN)
  57:Generated_Source\PSoC6/CapSense_Structure.c ****     #include "CapSense_AdvancedCentroid_LL.h"
  58:Generated_Source\PSoC6/CapSense_Structure.c **** #endif
  59:Generated_Source\PSoC6/CapSense_Structure.c **** 
  60:Generated_Source\PSoC6/CapSense_Structure.c **** #if (CapSense_ENABLE == CapSense_GES_GLOBAL_EN)
  61:Generated_Source\PSoC6/CapSense_Structure.c ****     #include "CapSense_Gesture.h"
  62:Generated_Source\PSoC6/CapSense_Structure.c **** #endif /* (CapSense_ENABLE == CapSense_GES_GLOBAL_EN) */
  63:Generated_Source\PSoC6/CapSense_Structure.c **** 
  64:Generated_Source\PSoC6/CapSense_Structure.c **** /*******************************************************************************
  65:Generated_Source\PSoC6/CapSense_Structure.c **** * Defines the RAM Data Structure variables and their init data in flash
  66:Generated_Source\PSoC6/CapSense_Structure.c **** *******************************************************************************/
  67:Generated_Source\PSoC6/CapSense_Structure.c **** /**
  68:Generated_Source\PSoC6/CapSense_Structure.c **** * \cond SECTION_GLOBAL_VARIABLES
  69:Generated_Source\PSoC6/CapSense_Structure.c **** * \addtogroup group_global_variables
  70:Generated_Source\PSoC6/CapSense_Structure.c **** * \{
  71:Generated_Source\PSoC6/CapSense_Structure.c **** */
  72:Generated_Source\PSoC6/CapSense_Structure.c **** 
  73:Generated_Source\PSoC6/CapSense_Structure.c **** /**
  74:Generated_Source\PSoC6/CapSense_Structure.c **** * The variable that contains the CapSense configuration, settings and
  75:Generated_Source\PSoC6/CapSense_Structure.c **** * scanning results. CapSense_dsRam represents RAM Data Structure.
  76:Generated_Source\PSoC6/CapSense_Structure.c **** */
  77:Generated_Source\PSoC6/CapSense_Structure.c **** CapSense_RAM_STRUCT CapSense_dsRam;
  78:Generated_Source\PSoC6/CapSense_Structure.c **** /** \}
  79:Generated_Source\PSoC6/CapSense_Structure.c **** * \endcond */
  80:Generated_Source\PSoC6/CapSense_Structure.c **** 
  81:Generated_Source\PSoC6/CapSense_Structure.c **** /*******************************************************************************
  82:Generated_Source\PSoC6/CapSense_Structure.c **** * Declares Widget's De-bounce Counters
  83:Generated_Source\PSoC6/CapSense_Structure.c **** *******************************************************************************/
  84:Generated_Source\PSoC6/CapSense_Structure.c **** static uint8 CapSense_debounceLinearSlider0[1u];
  85:Generated_Source\PSoC6/CapSense_Structure.c **** static uint8 CapSense_debounceButton0[CapSense_BUTTON0_NUM_SENSORS];
  86:Generated_Source\PSoC6/CapSense_Structure.c **** static uint8 CapSense_debounceButton1[CapSense_BUTTON1_NUM_SENSORS];
  87:Generated_Source\PSoC6/CapSense_Structure.c **** 
ARM GAS  C:\Users\gjl\AppData\Local\Temp\ccprL3gI.s 			page 3


  88:Generated_Source\PSoC6/CapSense_Structure.c **** 
  89:Generated_Source\PSoC6/CapSense_Structure.c **** /***************************************************************************//**
  90:Generated_Source\PSoC6/CapSense_Structure.c **** * Declares Noise Envelope data structures
  91:Generated_Source\PSoC6/CapSense_Structure.c **** *******************************************************************************/
  92:Generated_Source\PSoC6/CapSense_Structure.c **** static SMARTSENSE_CSD_NOISE_ENVELOPE_STRUCT CapSense_noiseEnvlpLinearSlider0[CapSense_LINEARSLIDER0
  93:Generated_Source\PSoC6/CapSense_Structure.c **** 
  94:Generated_Source\PSoC6/CapSense_Structure.c **** /*******************************************************************************
  95:Generated_Source\PSoC6/CapSense_Structure.c **** * Defines and initializes the Flash Data Structure
  96:Generated_Source\PSoC6/CapSense_Structure.c **** *******************************************************************************/
  97:Generated_Source\PSoC6/CapSense_Structure.c **** 
  98:Generated_Source\PSoC6/CapSense_Structure.c **** 
  99:Generated_Source\PSoC6/CapSense_Structure.c **** 
 100:Generated_Source\PSoC6/CapSense_Structure.c **** /**
 101:Generated_Source\PSoC6/CapSense_Structure.c **** * \cond SECTION_API_CONSTANTS
 102:Generated_Source\PSoC6/CapSense_Structure.c **** * \addtogroup group_api_constants
 103:Generated_Source\PSoC6/CapSense_Structure.c **** * \{
 104:Generated_Source\PSoC6/CapSense_Structure.c **** */
 105:Generated_Source\PSoC6/CapSense_Structure.c **** /**
 106:Generated_Source\PSoC6/CapSense_Structure.c **** * Constant for the FLASH Data Structure
 107:Generated_Source\PSoC6/CapSense_Structure.c **** */
 108:Generated_Source\PSoC6/CapSense_Structure.c **** const CapSense_FLASH_STRUCT CapSense_dsFlash =
 109:Generated_Source\PSoC6/CapSense_Structure.c **** {
 110:Generated_Source\PSoC6/CapSense_Structure.c ****     /* Flash Widget Initialization Data */
 111:Generated_Source\PSoC6/CapSense_Structure.c ****     {
 112:Generated_Source\PSoC6/CapSense_Structure.c ****         { /* LinearSlider0 */
 113:Generated_Source\PSoC6/CapSense_Structure.c ****             &CapSense_ioList[0u],
 114:Generated_Source\PSoC6/CapSense_Structure.c ****             (void *)&CapSense_dsRam.wdgtList.linearslider0,
 115:Generated_Source\PSoC6/CapSense_Structure.c ****             CapSense_dsRam.snsList.linearslider0,
 116:Generated_Source\PSoC6/CapSense_Structure.c ****             (void *)0u,
 117:Generated_Source\PSoC6/CapSense_Structure.c ****             CapSense_debounceLinearSlider0,
 118:Generated_Source\PSoC6/CapSense_Structure.c ****             CapSense_LINEARSLIDER0_STATIC_CONFIG,
 119:Generated_Source\PSoC6/CapSense_Structure.c ****             CapSense_LINEARSLIDER0_NUM_SENSORS,
 120:Generated_Source\PSoC6/CapSense_Structure.c ****             (uint8)CapSense_WD_LINEAR_SLIDER_E,
 121:Generated_Source\PSoC6/CapSense_Structure.c ****             (uint8)CapSense_SENSE_METHOD_CSD_E,
 122:Generated_Source\PSoC6/CapSense_Structure.c ****             CapSense_LINEARSLIDER0_NUM_SENSORS,
 123:Generated_Source\PSoC6/CapSense_Structure.c ****             0u,
 124:Generated_Source\PSoC6/CapSense_Structure.c ****             CapSense_LINEARSLIDER0_X_RESOLUTION,
 125:Generated_Source\PSoC6/CapSense_Structure.c ****             CapSense_LINEARSLIDER0_X_CENT_MULT,
 126:Generated_Source\PSoC6/CapSense_Structure.c ****             CapSense_noiseEnvlpLinearSlider0,
 127:Generated_Source\PSoC6/CapSense_Structure.c ****             CapSense_LINEARSLIDER0_IIR_FILTER_COEFF,
 128:Generated_Source\PSoC6/CapSense_Structure.c ****         },
 129:Generated_Source\PSoC6/CapSense_Structure.c ****         { /* Button0 */
 130:Generated_Source\PSoC6/CapSense_Structure.c ****             &CapSense_ioList[5u],
 131:Generated_Source\PSoC6/CapSense_Structure.c ****             (void *)&CapSense_dsRam.wdgtList.button0,
 132:Generated_Source\PSoC6/CapSense_Structure.c ****             CapSense_dsRam.snsList.button0,
 133:Generated_Source\PSoC6/CapSense_Structure.c ****             (void *)0u,
 134:Generated_Source\PSoC6/CapSense_Structure.c ****             CapSense_debounceButton0,
 135:Generated_Source\PSoC6/CapSense_Structure.c ****             CapSense_BUTTON0_STATIC_CONFIG,
 136:Generated_Source\PSoC6/CapSense_Structure.c ****             CapSense_BUTTON0_NUM_SENSORS,
 137:Generated_Source\PSoC6/CapSense_Structure.c ****             (uint8)CapSense_WD_BUTTON_E,
 138:Generated_Source\PSoC6/CapSense_Structure.c ****             (uint8)CapSense_SENSE_METHOD_CSX_E,
 139:Generated_Source\PSoC6/CapSense_Structure.c ****             CapSense_BUTTON0_NUM_SENSORS,
 140:Generated_Source\PSoC6/CapSense_Structure.c ****             1u,
 141:Generated_Source\PSoC6/CapSense_Structure.c ****             0u,
 142:Generated_Source\PSoC6/CapSense_Structure.c ****             0u,
 143:Generated_Source\PSoC6/CapSense_Structure.c ****             (SMARTSENSE_CSD_NOISE_ENVELOPE_STRUCT *)0u,
 144:Generated_Source\PSoC6/CapSense_Structure.c ****             0u,
ARM GAS  C:\Users\gjl\AppData\Local\Temp\ccprL3gI.s 			page 4


 145:Generated_Source\PSoC6/CapSense_Structure.c ****         },
 146:Generated_Source\PSoC6/CapSense_Structure.c ****         { /* Button1 */
 147:Generated_Source\PSoC6/CapSense_Structure.c ****             &CapSense_ioList[7u],
 148:Generated_Source\PSoC6/CapSense_Structure.c ****             (void *)&CapSense_dsRam.wdgtList.button1,
 149:Generated_Source\PSoC6/CapSense_Structure.c ****             CapSense_dsRam.snsList.button1,
 150:Generated_Source\PSoC6/CapSense_Structure.c ****             (void *)0u,
 151:Generated_Source\PSoC6/CapSense_Structure.c ****             CapSense_debounceButton1,
 152:Generated_Source\PSoC6/CapSense_Structure.c ****             CapSense_BUTTON1_STATIC_CONFIG,
 153:Generated_Source\PSoC6/CapSense_Structure.c ****             CapSense_BUTTON1_NUM_SENSORS,
 154:Generated_Source\PSoC6/CapSense_Structure.c ****             (uint8)CapSense_WD_BUTTON_E,
 155:Generated_Source\PSoC6/CapSense_Structure.c ****             (uint8)CapSense_SENSE_METHOD_CSX_E,
 156:Generated_Source\PSoC6/CapSense_Structure.c ****             CapSense_BUTTON1_NUM_SENSORS,
 157:Generated_Source\PSoC6/CapSense_Structure.c ****             1u,
 158:Generated_Source\PSoC6/CapSense_Structure.c ****             0u,
 159:Generated_Source\PSoC6/CapSense_Structure.c ****             0u,
 160:Generated_Source\PSoC6/CapSense_Structure.c ****             (SMARTSENSE_CSD_NOISE_ENVELOPE_STRUCT *)0u,
 161:Generated_Source\PSoC6/CapSense_Structure.c ****             0u,
 162:Generated_Source\PSoC6/CapSense_Structure.c ****         },
 163:Generated_Source\PSoC6/CapSense_Structure.c ****     },
 164:Generated_Source\PSoC6/CapSense_Structure.c **** };
 165:Generated_Source\PSoC6/CapSense_Structure.c **** 
 166:Generated_Source\PSoC6/CapSense_Structure.c **** /**
 167:Generated_Source\PSoC6/CapSense_Structure.c **** * The array of the pointers to the electrode specific register.
 168:Generated_Source\PSoC6/CapSense_Structure.c **** */
 169:Generated_Source\PSoC6/CapSense_Structure.c **** const CapSense_FLASH_IO_STRUCT CapSense_ioList[CapSense_TOTAL_ELECTRODES] =
 170:Generated_Source\PSoC6/CapSense_Structure.c **** {
 171:Generated_Source\PSoC6/CapSense_Structure.c ****     { /* 0: LinearSlider0_Sns0 */
 172:Generated_Source\PSoC6/CapSense_Structure.c ****         CapSense_Sns_0_PORT,
 173:Generated_Source\PSoC6/CapSense_Structure.c ****         (uint8)CapSense_Sns_0_NUM,
 174:Generated_Source\PSoC6/CapSense_Structure.c ****     },
 175:Generated_Source\PSoC6/CapSense_Structure.c ****     { /* 1: LinearSlider0_Sns1 */
 176:Generated_Source\PSoC6/CapSense_Structure.c ****         CapSense_Sns_1_PORT,
 177:Generated_Source\PSoC6/CapSense_Structure.c ****         (uint8)CapSense_Sns_1_NUM,
 178:Generated_Source\PSoC6/CapSense_Structure.c ****     },
 179:Generated_Source\PSoC6/CapSense_Structure.c ****     { /* 2: LinearSlider0_Sns2 */
 180:Generated_Source\PSoC6/CapSense_Structure.c ****         CapSense_Sns_2_PORT,
 181:Generated_Source\PSoC6/CapSense_Structure.c ****         (uint8)CapSense_Sns_2_NUM,
 182:Generated_Source\PSoC6/CapSense_Structure.c ****     },
 183:Generated_Source\PSoC6/CapSense_Structure.c ****     { /* 3: LinearSlider0_Sns3 */
 184:Generated_Source\PSoC6/CapSense_Structure.c ****         CapSense_Sns_3_PORT,
 185:Generated_Source\PSoC6/CapSense_Structure.c ****         (uint8)CapSense_Sns_3_NUM,
 186:Generated_Source\PSoC6/CapSense_Structure.c ****     },
 187:Generated_Source\PSoC6/CapSense_Structure.c ****     { /* 4: LinearSlider0_Sns4 */
 188:Generated_Source\PSoC6/CapSense_Structure.c ****         CapSense_Sns_4_PORT,
 189:Generated_Source\PSoC6/CapSense_Structure.c ****         (uint8)CapSense_Sns_4_NUM,
 190:Generated_Source\PSoC6/CapSense_Structure.c ****     },
 191:Generated_Source\PSoC6/CapSense_Structure.c ****     { /* 5: Button0_Rx0 */
 192:Generated_Source\PSoC6/CapSense_Structure.c ****         CapSense_Rx_0_PORT,
 193:Generated_Source\PSoC6/CapSense_Structure.c ****         (uint8)CapSense_Rx_0_NUM,
 194:Generated_Source\PSoC6/CapSense_Structure.c ****     },
 195:Generated_Source\PSoC6/CapSense_Structure.c ****     { /* 6: Button0_Tx */
 196:Generated_Source\PSoC6/CapSense_Structure.c ****         CapSense_Tx_0_PORT,
 197:Generated_Source\PSoC6/CapSense_Structure.c ****         (uint8)CapSense_Tx_0_NUM,
 198:Generated_Source\PSoC6/CapSense_Structure.c ****     },
 199:Generated_Source\PSoC6/CapSense_Structure.c ****     { /* 7: Button1_Rx0 */
 200:Generated_Source\PSoC6/CapSense_Structure.c ****         CapSense_Rx_1_PORT,
 201:Generated_Source\PSoC6/CapSense_Structure.c ****         (uint8)CapSense_Rx_1_NUM,
ARM GAS  C:\Users\gjl\AppData\Local\Temp\ccprL3gI.s 			page 5


 202:Generated_Source\PSoC6/CapSense_Structure.c ****     },
 203:Generated_Source\PSoC6/CapSense_Structure.c ****     { /* 8: Button0_Tx ganged to Button1_Tx */
 204:Generated_Source\PSoC6/CapSense_Structure.c ****         CapSense_Tx_0_PORT,
 205:Generated_Source\PSoC6/CapSense_Structure.c ****         (uint8)CapSense_Tx_0_NUM,
 206:Generated_Source\PSoC6/CapSense_Structure.c ****     },
 207:Generated_Source\PSoC6/CapSense_Structure.c **** };
 208:Generated_Source\PSoC6/CapSense_Structure.c **** 
 209:Generated_Source\PSoC6/CapSense_Structure.c **** 
 210:Generated_Source\PSoC6/CapSense_Structure.c **** 
 211:Generated_Source\PSoC6/CapSense_Structure.c **** /** \}
 212:Generated_Source\PSoC6/CapSense_Structure.c **** * \endcond */
 213:Generated_Source\PSoC6/CapSense_Structure.c **** 
 214:Generated_Source\PSoC6/CapSense_Structure.c **** /* Initialization data for RAM widget list */
 215:Generated_Source\PSoC6/CapSense_Structure.c **** const CapSense_RAM_WD_LIST_STRUCT CapSense_ramWidgetInit =
 216:Generated_Source\PSoC6/CapSense_Structure.c **** {
 217:Generated_Source\PSoC6/CapSense_Structure.c ****     { /* LinearSlider0 */
 218:Generated_Source\PSoC6/CapSense_Structure.c ****         CapSense_LINEARSLIDER0_RESOLUTION,
 219:Generated_Source\PSoC6/CapSense_Structure.c ****         CapSense_LINEARSLIDER0_FINGER_TH,
 220:Generated_Source\PSoC6/CapSense_Structure.c ****         CapSense_LINEARSLIDER0_NOISE_TH,
 221:Generated_Source\PSoC6/CapSense_Structure.c ****         CapSense_LINEARSLIDER0_NNOISE_TH,
 222:Generated_Source\PSoC6/CapSense_Structure.c ****         CapSense_LINEARSLIDER0_HYSTERESIS,
 223:Generated_Source\PSoC6/CapSense_Structure.c ****         CapSense_LINEARSLIDER0_ON_DEBOUNCE,
 224:Generated_Source\PSoC6/CapSense_Structure.c ****         CapSense_LINEARSLIDER0_LOW_BSLN_RST,
 225:Generated_Source\PSoC6/CapSense_Structure.c ****         {
 226:Generated_Source\PSoC6/CapSense_Structure.c ****             CapSense_LINEARSLIDER0_IDAC_MOD0,
 227:Generated_Source\PSoC6/CapSense_Structure.c ****         },
 228:Generated_Source\PSoC6/CapSense_Structure.c ****         CapSense_LINEARSLIDER0_SNS_CLK,
 229:Generated_Source\PSoC6/CapSense_Structure.c ****         CapSense_LINEARSLIDER0_SNS_CLK_SOURCE,
 230:Generated_Source\PSoC6/CapSense_Structure.c ****         CapSense_LINEARSLIDER0_FINGER_CAP,
 231:Generated_Source\PSoC6/CapSense_Structure.c ****         CapSense_LINEARSLIDER0_SIGPFC,
 232:Generated_Source\PSoC6/CapSense_Structure.c ****         {
 233:Generated_Source\PSoC6/CapSense_Structure.c ****             CapSense_LINEARSLIDER0_POSITION,
 234:Generated_Source\PSoC6/CapSense_Structure.c ****         },
 235:Generated_Source\PSoC6/CapSense_Structure.c ****     },
 236:Generated_Source\PSoC6/CapSense_Structure.c ****     { /* Button0 */
 237:Generated_Source\PSoC6/CapSense_Structure.c ****         CapSense_BUTTON0_RESOLUTION,
 238:Generated_Source\PSoC6/CapSense_Structure.c ****         CapSense_BUTTON0_FINGER_TH,
 239:Generated_Source\PSoC6/CapSense_Structure.c ****         CapSense_BUTTON0_NOISE_TH,
 240:Generated_Source\PSoC6/CapSense_Structure.c ****         CapSense_BUTTON0_NNOISE_TH,
 241:Generated_Source\PSoC6/CapSense_Structure.c ****         CapSense_BUTTON0_HYSTERESIS,
 242:Generated_Source\PSoC6/CapSense_Structure.c ****         CapSense_BUTTON0_ON_DEBOUNCE,
 243:Generated_Source\PSoC6/CapSense_Structure.c ****         CapSense_BUTTON0_LOW_BSLN_RST,
 244:Generated_Source\PSoC6/CapSense_Structure.c ****         {
 245:Generated_Source\PSoC6/CapSense_Structure.c ****             CapSense_BUTTON0_IDAC_MOD0,
 246:Generated_Source\PSoC6/CapSense_Structure.c ****         },
 247:Generated_Source\PSoC6/CapSense_Structure.c ****         CapSense_BUTTON0_SNS_CLK,
 248:Generated_Source\PSoC6/CapSense_Structure.c ****         CapSense_BUTTON0_SNS_CLK_SOURCE,
 249:Generated_Source\PSoC6/CapSense_Structure.c ****         CapSense_BUTTON0_FINGER_CAP,
 250:Generated_Source\PSoC6/CapSense_Structure.c ****         CapSense_BUTTON0_SIGPFC,
 251:Generated_Source\PSoC6/CapSense_Structure.c ****     },
 252:Generated_Source\PSoC6/CapSense_Structure.c ****     { /* Button1 */
 253:Generated_Source\PSoC6/CapSense_Structure.c ****         CapSense_BUTTON1_RESOLUTION,
 254:Generated_Source\PSoC6/CapSense_Structure.c ****         CapSense_BUTTON1_FINGER_TH,
 255:Generated_Source\PSoC6/CapSense_Structure.c ****         CapSense_BUTTON1_NOISE_TH,
 256:Generated_Source\PSoC6/CapSense_Structure.c ****         CapSense_BUTTON1_NNOISE_TH,
 257:Generated_Source\PSoC6/CapSense_Structure.c ****         CapSense_BUTTON1_HYSTERESIS,
 258:Generated_Source\PSoC6/CapSense_Structure.c ****         CapSense_BUTTON1_ON_DEBOUNCE,
ARM GAS  C:\Users\gjl\AppData\Local\Temp\ccprL3gI.s 			page 6


 259:Generated_Source\PSoC6/CapSense_Structure.c ****         CapSense_BUTTON1_LOW_BSLN_RST,
 260:Generated_Source\PSoC6/CapSense_Structure.c ****         {
 261:Generated_Source\PSoC6/CapSense_Structure.c ****             CapSense_BUTTON1_IDAC_MOD0,
 262:Generated_Source\PSoC6/CapSense_Structure.c ****         },
 263:Generated_Source\PSoC6/CapSense_Structure.c ****         CapSense_BUTTON1_SNS_CLK,
 264:Generated_Source\PSoC6/CapSense_Structure.c ****         CapSense_BUTTON1_SNS_CLK_SOURCE,
 265:Generated_Source\PSoC6/CapSense_Structure.c ****         CapSense_BUTTON1_FINGER_CAP,
 266:Generated_Source\PSoC6/CapSense_Structure.c ****         CapSense_BUTTON1_SIGPFC,
 267:Generated_Source\PSoC6/CapSense_Structure.c ****     },
 268:Generated_Source\PSoC6/CapSense_Structure.c **** };
 269:Generated_Source\PSoC6/CapSense_Structure.c **** 
 270:Generated_Source\PSoC6/CapSense_Structure.c **** 
 271:Generated_Source\PSoC6/CapSense_Structure.c **** /* IDAC Initialization Data */
 272:Generated_Source\PSoC6/CapSense_Structure.c **** const uint8 CapSense_ramIdacInit[CapSense_TOTAL_SENSORS] =
 273:Generated_Source\PSoC6/CapSense_Structure.c **** {
 274:Generated_Source\PSoC6/CapSense_Structure.c ****     /* LinearSlider0 */
 275:Generated_Source\PSoC6/CapSense_Structure.c ****     CapSense_LINEARSLIDER0_SNS0_IDAC_COMP0,
 276:Generated_Source\PSoC6/CapSense_Structure.c ****     CapSense_LINEARSLIDER0_SNS1_IDAC_COMP0,
 277:Generated_Source\PSoC6/CapSense_Structure.c ****     CapSense_LINEARSLIDER0_SNS2_IDAC_COMP0,
 278:Generated_Source\PSoC6/CapSense_Structure.c ****     CapSense_LINEARSLIDER0_SNS3_IDAC_COMP0,
 279:Generated_Source\PSoC6/CapSense_Structure.c ****     CapSense_LINEARSLIDER0_SNS4_IDAC_COMP0,
 280:Generated_Source\PSoC6/CapSense_Structure.c **** 
 281:Generated_Source\PSoC6/CapSense_Structure.c ****     /* Button0 */
 282:Generated_Source\PSoC6/CapSense_Structure.c ****     CapSense_BUTTON0_RX0_IDAC_COMP0,
 283:Generated_Source\PSoC6/CapSense_Structure.c **** 
 284:Generated_Source\PSoC6/CapSense_Structure.c ****     /* Button1 */
 285:Generated_Source\PSoC6/CapSense_Structure.c ****     CapSense_BUTTON1_RX0_IDAC_COMP0,
 286:Generated_Source\PSoC6/CapSense_Structure.c **** };
 287:Generated_Source\PSoC6/CapSense_Structure.c **** 
 288:Generated_Source\PSoC6/CapSense_Structure.c **** 
 289:Generated_Source\PSoC6/CapSense_Structure.c **** 
 290:Generated_Source\PSoC6/CapSense_Structure.c **** /*******************************************************************************
 291:Generated_Source\PSoC6/CapSense_Structure.c **** * Defines internal data types and statements
 292:Generated_Source\PSoC6/CapSense_Structure.c **** *******************************************************************************/
 293:Generated_Source\PSoC6/CapSense_Structure.c **** #define PARAM_TYPE_OFFSET       (30u)
 294:Generated_Source\PSoC6/CapSense_Structure.c **** #define PARAM_TYPE_MASK         (3Lu << PARAM_TYPE_OFFSET)
 295:Generated_Source\PSoC6/CapSense_Structure.c **** #define PARAM_RWBIT_OFFSET      (29u)
 296:Generated_Source\PSoC6/CapSense_Structure.c **** #define PARAM_RWBIT_MASK        (1Lu << PARAM_RWBIT_OFFSET)
 297:Generated_Source\PSoC6/CapSense_Structure.c **** #define PARAM_FBIT_OFFSET       (28u)
 298:Generated_Source\PSoC6/CapSense_Structure.c **** #define PARAM_FBIT_MASK         (1Lu << PARAM_FBIT_OFFSET)
 299:Generated_Source\PSoC6/CapSense_Structure.c **** #define PARAM_UBIT_OFFSET       (23u)
 300:Generated_Source\PSoC6/CapSense_Structure.c **** #define PARAM_UBIT_MASK         (1Lu << PARAM_UBIT_OFFSET)
 301:Generated_Source\PSoC6/CapSense_Structure.c **** #define PARAM_WDID_OFFSET       (16u)
 302:Generated_Source\PSoC6/CapSense_Structure.c **** #define PARAM_WDID_MASK         (0x7FLu << PARAM_WDID_OFFSET)
 303:Generated_Source\PSoC6/CapSense_Structure.c **** #define PARAM_CRC_OFFSET        (24u)
 304:Generated_Source\PSoC6/CapSense_Structure.c **** #define PARAM_CRC_MASK          (0x0FLu << PARAM_CRC_OFFSET)
 305:Generated_Source\PSoC6/CapSense_Structure.c **** 
 306:Generated_Source\PSoC6/CapSense_Structure.c **** /* Defines align masks for uint16 and uint32 */
 307:Generated_Source\PSoC6/CapSense_Structure.c **** #define UINT16_ALIGN_MASK       (1Lu)
 308:Generated_Source\PSoC6/CapSense_Structure.c **** #define UINT32_ALIGN_MASK       (3Lu)
 309:Generated_Source\PSoC6/CapSense_Structure.c **** 
 310:Generated_Source\PSoC6/CapSense_Structure.c **** /* Defines supported parameter types */
 311:Generated_Source\PSoC6/CapSense_Structure.c **** #define DS_PARAM_TYPE_UINT8     (0x01u)
 312:Generated_Source\PSoC6/CapSense_Structure.c **** #define DS_PARAM_TYPE_UINT16    (0x02u)
 313:Generated_Source\PSoC6/CapSense_Structure.c **** #define DS_PARAM_TYPE_UINT32    (0x03u)
 314:Generated_Source\PSoC6/CapSense_Structure.c **** 
 315:Generated_Source\PSoC6/CapSense_Structure.c **** 
ARM GAS  C:\Users\gjl\AppData\Local\Temp\ccprL3gI.s 			page 7


 316:Generated_Source\PSoC6/CapSense_Structure.c **** /* Defines PARAM_ID structure */
 317:Generated_Source\PSoC6/CapSense_Structure.c **** typedef struct
 318:Generated_Source\PSoC6/CapSense_Structure.c **** {
 319:Generated_Source\PSoC6/CapSense_Structure.c ****     uint16 offset;      /* parameter offset */
 320:Generated_Source\PSoC6/CapSense_Structure.c ****     uint8  widgetId;    /* widget Id parameter belongs to */
 321:Generated_Source\PSoC6/CapSense_Structure.c ****     uint8  affectsCrc;  /* parameter affects widget CRC */
 322:Generated_Source\PSoC6/CapSense_Structure.c ****     uint8  crc;         /* parameter CRC */
 323:Generated_Source\PSoC6/CapSense_Structure.c ****     uint8  flash;       /* parameter located in FLASH flag */
 324:Generated_Source\PSoC6/CapSense_Structure.c ****     uint8  rw;          /* parameter is read/write flag */
 325:Generated_Source\PSoC6/CapSense_Structure.c ****     uint8  type;        /* parameter type: uint8/uint16/uint32 */
 326:Generated_Source\PSoC6/CapSense_Structure.c **** } PARAM_ID_STRUCT;
 327:Generated_Source\PSoC6/CapSense_Structure.c **** 
 328:Generated_Source\PSoC6/CapSense_Structure.c **** 
 329:Generated_Source\PSoC6/CapSense_Structure.c **** /*******************************************************************************
 330:Generated_Source\PSoC6/CapSense_Structure.c **** * Static Function Prototypes
 331:Generated_Source\PSoC6/CapSense_Structure.c **** *******************************************************************************/
 332:Generated_Source\PSoC6/CapSense_Structure.c **** /**
 333:Generated_Source\PSoC6/CapSense_Structure.c **** * \cond SECTION_CYSENSE_INTERNAL
 334:Generated_Source\PSoC6/CapSense_Structure.c **** * \addtogroup group_cysense_internal
 335:Generated_Source\PSoC6/CapSense_Structure.c **** * \{
 336:Generated_Source\PSoC6/CapSense_Structure.c **** */
 337:Generated_Source\PSoC6/CapSense_Structure.c **** 
 338:Generated_Source\PSoC6/CapSense_Structure.c **** 
 339:Generated_Source\PSoC6/CapSense_Structure.c **** 
 340:Generated_Source\PSoC6/CapSense_Structure.c **** static cy_status DsParseParamId(uint32 paramId, PARAM_ID_STRUCT *pData);
 341:Generated_Source\PSoC6/CapSense_Structure.c **** 
 342:Generated_Source\PSoC6/CapSense_Structure.c **** /** \}
 343:Generated_Source\PSoC6/CapSense_Structure.c **** * \endcond */
 344:Generated_Source\PSoC6/CapSense_Structure.c **** 
 345:Generated_Source\PSoC6/CapSense_Structure.c **** 
 346:Generated_Source\PSoC6/CapSense_Structure.c **** /*******************************************************************************
 347:Generated_Source\PSoC6/CapSense_Structure.c **** * Function Name: CapSense_DsInitialize
 348:Generated_Source\PSoC6/CapSense_Structure.c **** ****************************************************************************//**
 349:Generated_Source\PSoC6/CapSense_Structure.c **** *
 350:Generated_Source\PSoC6/CapSense_Structure.c **** * \brief
 351:Generated_Source\PSoC6/CapSense_Structure.c **** *   This function initializes the Data Structure storage.
 352:Generated_Source\PSoC6/CapSense_Structure.c **** *
 353:Generated_Source\PSoC6/CapSense_Structure.c **** * \details
 354:Generated_Source\PSoC6/CapSense_Structure.c **** *   This function copies the default widget configuration parameters
 355:Generated_Source\PSoC6/CapSense_Structure.c **** *   from the Flash storage into the RAM Data Structure.
 356:Generated_Source\PSoC6/CapSense_Structure.c **** *
 357:Generated_Source\PSoC6/CapSense_Structure.c **** *******************************************************************************/
 358:Generated_Source\PSoC6/CapSense_Structure.c **** void CapSense_DsInitialize(void)
 359:Generated_Source\PSoC6/CapSense_Structure.c **** {
 360:Generated_Source\PSoC6/CapSense_Structure.c ****     #if ((CapSense_ENABLE == CapSense_CSX_EN) || \
 361:Generated_Source\PSoC6/CapSense_Structure.c ****          (CapSense_ENABLE == CapSense_CSD_IDAC_COMP_EN) || \
 362:Generated_Source\PSoC6/CapSense_Structure.c ****         ((CapSense_ENABLE == CapSense_CSX_EN) && \
 363:Generated_Source\PSoC6/CapSense_Structure.c ****          (CapSense_ENABLE == CapSense_CSX_SKIP_OVSMPL_SPECIFIC_NODES)))
 364:Generated_Source\PSoC6/CapSense_Structure.c ****         uint32 snsId;
 365:Generated_Source\PSoC6/CapSense_Structure.c ****         uint32 wdgtId;
 366:Generated_Source\PSoC6/CapSense_Structure.c ****         CapSense_RAM_SNS_STRUCT * ptrSnsTmp;
 367:Generated_Source\PSoC6/CapSense_Structure.c ****         CapSense_FLASH_WD_STRUCT const * ptrFlashWdgt;
 368:Generated_Source\PSoC6/CapSense_Structure.c ****     #endif
 369:Generated_Source\PSoC6/CapSense_Structure.c **** 
 370:Generated_Source\PSoC6/CapSense_Structure.c ****     #if ((CapSense_ENABLE == CapSense_CSX_EN) && \
 371:Generated_Source\PSoC6/CapSense_Structure.c ****          (CapSense_ENABLE == CapSense_CSX_SKIP_OVSMPL_SPECIFIC_NODES))
 372:Generated_Source\PSoC6/CapSense_Structure.c ****         uint16 subConvNumber;
ARM GAS  C:\Users\gjl\AppData\Local\Temp\ccprL3gI.s 			page 8


 373:Generated_Source\PSoC6/CapSense_Structure.c ****     #endif
 374:Generated_Source\PSoC6/CapSense_Structure.c **** 
 375:Generated_Source\PSoC6/CapSense_Structure.c ****     #if (0u != CapSense_CSX_EN) || (0 != CapSense_CSD_IDAC_COMP_EN)
 376:Generated_Source\PSoC6/CapSense_Structure.c ****         uint8 const * ptrIdacInit = CapSense_ramIdacInit;
 377:Generated_Source\PSoC6/CapSense_Structure.c ****     #endif
 378:Generated_Source\PSoC6/CapSense_Structure.c **** 
 379:Generated_Source\PSoC6/CapSense_Structure.c ****     /* Reset RAM data structure content */
 380:Generated_Source\PSoC6/CapSense_Structure.c ****     (void)memset(&CapSense_dsRam, 0, sizeof(CapSense_dsRam));
 381:Generated_Source\PSoC6/CapSense_Structure.c **** 
 382:Generated_Source\PSoC6/CapSense_Structure.c ****     /* Initialize configId, deviceId and hwClock registers */
 383:Generated_Source\PSoC6/CapSense_Structure.c ****     CapSense_dsRam.configId = CapSense_CONFIG_ID;
 384:Generated_Source\PSoC6/CapSense_Structure.c ****     CapSense_dsRam.deviceId = CapSense_DEVICE_ID;
 385:Generated_Source\PSoC6/CapSense_Structure.c ****     CapSense_dsRam.hwClock = CapSense_HW_CLOCK;
 386:Generated_Source\PSoC6/CapSense_Structure.c **** 
 387:Generated_Source\PSoC6/CapSense_Structure.c ****     /* Initialize global RAM data */
 388:Generated_Source\PSoC6/CapSense_Structure.c ****     CapSense_dsRam.csd0Config = CapSense_CSD0_CONFIG;
 389:Generated_Source\PSoC6/CapSense_Structure.c **** 
 390:Generated_Source\PSoC6/CapSense_Structure.c ****     #if (0u != CapSense_TOTAL_CSD_WIDGETS)
 391:Generated_Source\PSoC6/CapSense_Structure.c ****         CapSense_dsRam.modCsdClk = CapSense_CSD_SCANSPEED_DIVIDER;
 392:Generated_Source\PSoC6/CapSense_Structure.c **** 
 393:Generated_Source\PSoC6/CapSense_Structure.c ****         #if (0u != CapSense_CSD_COMMON_SNS_CLK_EN)
 394:Generated_Source\PSoC6/CapSense_Structure.c ****             CapSense_dsRam.snsCsdClk = CapSense_CSD_SNS_CLK_DIVIDER;
 395:Generated_Source\PSoC6/CapSense_Structure.c ****         #endif /* #if (0u != CapSense_CSD_COMMON_SNS_CLK_EN) */
 396:Generated_Source\PSoC6/CapSense_Structure.c ****     #endif /* #if (0u != CapSense_TOTAL_CSD_WIDGETS) */
 397:Generated_Source\PSoC6/CapSense_Structure.c **** 
 398:Generated_Source\PSoC6/CapSense_Structure.c ****     #if (0u != CapSense_CSX_EN)
 399:Generated_Source\PSoC6/CapSense_Structure.c ****         CapSense_dsRam.modCsxClk = CapSense_CSX_SCANSPEED_DIVIDER;
 400:Generated_Source\PSoC6/CapSense_Structure.c **** 
 401:Generated_Source\PSoC6/CapSense_Structure.c ****         #if (0u != CapSense_CSX_COMMON_TX_CLK_EN)
 402:Generated_Source\PSoC6/CapSense_Structure.c ****             CapSense_dsRam.snsCsxClk = CapSense_CSX_TX_CLK_DIVIDER;
 403:Generated_Source\PSoC6/CapSense_Structure.c ****         #endif /* #if (0u != CapSense_CSX_COMMON_TX_CLK_EN) */
 404:Generated_Source\PSoC6/CapSense_Structure.c ****     #endif /* #if (0u != CapSense_CSX_EN) */
 405:Generated_Source\PSoC6/CapSense_Structure.c **** 
 406:Generated_Source\PSoC6/CapSense_Structure.c ****     #if (0u != CapSense_SELF_TEST_EN)
 407:Generated_Source\PSoC6/CapSense_Structure.c ****         CapSense_dsRam.glbCrc = CapSense_GLB_CRC;
 408:Generated_Source\PSoC6/CapSense_Structure.c ****     #endif /* #if (0u != CapSense_SELF_TEST_EN) */
 409:Generated_Source\PSoC6/CapSense_Structure.c **** 
 410:Generated_Source\PSoC6/CapSense_Structure.c ****     /* Initialize RAM widget data */
 411:Generated_Source\PSoC6/CapSense_Structure.c ****     CapSense_dsRam.wdgtList = CapSense_ramWidgetInit;
 412:Generated_Source\PSoC6/CapSense_Structure.c **** 
 413:Generated_Source\PSoC6/CapSense_Structure.c ****     /* Initialize Gesture configuration structure */
 414:Generated_Source\PSoC6/CapSense_Structure.c ****     #if ((0u != CapSense_GES_GLOBAL_EN) || (0u != CapSense_BALLISTIC_MULTIPLIER_EN))
 415:Generated_Source\PSoC6/CapSense_Structure.c ****         CapSense_dsRam.timestampInterval = CapSense_TIMESTAMP_INTERVAL;
 416:Generated_Source\PSoC6/CapSense_Structure.c ****     #endif /* ((0u != CapSense_GES_GLOBAL_EN) || (0u != CapSense_BALLISTIC_MULTIPLIER_EN)) */
 417:Generated_Source\PSoC6/CapSense_Structure.c **** 
 418:Generated_Source\PSoC6/CapSense_Structure.c ****     #if (0u != CapSense_GES_GLOBAL_EN)
 419:Generated_Source\PSoC6/CapSense_Structure.c ****         CapSense_dsRam.gestures = CapSense_ramGesturesInit;
 420:Generated_Source\PSoC6/CapSense_Structure.c ****     #endif /* (0u != CapSense_GES_GLOBAL_EN) */
 421:Generated_Source\PSoC6/CapSense_Structure.c **** 
 422:Generated_Source\PSoC6/CapSense_Structure.c ****     #if (0u != CapSense_BALLISTIC_MULTIPLIER_EN)
 423:Generated_Source\PSoC6/CapSense_Structure.c ****         CapSense_dsRam.ballisticConfig = CapSense_ramBallisticInit;
 424:Generated_Source\PSoC6/CapSense_Structure.c ****     #endif /* (0u != CapSense_BALLISTIC_MULTIPLIER_EN) */
 425:Generated_Source\PSoC6/CapSense_Structure.c **** 
 426:Generated_Source\PSoC6/CapSense_Structure.c ****     #if (0u != CapSense_CSX_EN) || (0 != CapSense_CSD_IDAC_COMP_EN)
 427:Generated_Source\PSoC6/CapSense_Structure.c ****         /* Initialize IDAC data */
 428:Generated_Source\PSoC6/CapSense_Structure.c ****         ptrFlashWdgt = CapSense_dsFlash.wdgtArray;
 429:Generated_Source\PSoC6/CapSense_Structure.c **** 
ARM GAS  C:\Users\gjl\AppData\Local\Temp\ccprL3gI.s 			page 9


 430:Generated_Source\PSoC6/CapSense_Structure.c ****         for (wdgtId = CapSense_TOTAL_WIDGETS; wdgtId-- > 0u; )
 431:Generated_Source\PSoC6/CapSense_Structure.c ****         {
 432:Generated_Source\PSoC6/CapSense_Structure.c ****             ptrSnsTmp = ptrFlashWdgt->ptr2SnsRam;
 433:Generated_Source\PSoC6/CapSense_Structure.c **** 
 434:Generated_Source\PSoC6/CapSense_Structure.c ****             for (snsId = CapSense_GET_SNS_CNT_BY_PTR(ptrFlashWdgt); snsId-- > 0u;)
 435:Generated_Source\PSoC6/CapSense_Structure.c ****             {
 436:Generated_Source\PSoC6/CapSense_Structure.c ****                 ptrSnsTmp->idacComp[0u] = *ptrIdacInit;
 437:Generated_Source\PSoC6/CapSense_Structure.c ****                 ptrIdacInit++;
 438:Generated_Source\PSoC6/CapSense_Structure.c **** 
 439:Generated_Source\PSoC6/CapSense_Structure.c ****                 #if (0u != CapSense_MULTI_FREQ_SCAN_EN)
 440:Generated_Source\PSoC6/CapSense_Structure.c ****                     ptrSnsTmp->idacComp[1u] = *ptrIdacInit;
 441:Generated_Source\PSoC6/CapSense_Structure.c ****                     ptrIdacInit++;
 442:Generated_Source\PSoC6/CapSense_Structure.c **** 
 443:Generated_Source\PSoC6/CapSense_Structure.c ****                     ptrSnsTmp->idacComp[2u] = *ptrIdacInit;
 444:Generated_Source\PSoC6/CapSense_Structure.c ****                     ptrIdacInit++;
 445:Generated_Source\PSoC6/CapSense_Structure.c ****                 #endif /* #if (0u != CapSense_MULTI_FREQ_SCAN_EN) */
 446:Generated_Source\PSoC6/CapSense_Structure.c **** 
 447:Generated_Source\PSoC6/CapSense_Structure.c ****                 ptrSnsTmp++;
 448:Generated_Source\PSoC6/CapSense_Structure.c ****             }
 449:Generated_Source\PSoC6/CapSense_Structure.c **** 
 450:Generated_Source\PSoC6/CapSense_Structure.c ****             ptrFlashWdgt++; /* Move to next widget */
 451:Generated_Source\PSoC6/CapSense_Structure.c ****         }
 452:Generated_Source\PSoC6/CapSense_Structure.c ****     #endif /*(0u != CapSense_CSX_EN) || (0 != CapSense_CSD_IDAC_COMP_EN)*/
 453:Generated_Source\PSoC6/CapSense_Structure.c **** 
 454:Generated_Source\PSoC6/CapSense_Structure.c ****     #if ((CapSense_ENABLE == CapSense_CSX_EN) && \
 455:Generated_Source\PSoC6/CapSense_Structure.c ****          (CapSense_ENABLE == CapSense_CSX_SKIP_OVSMPL_SPECIFIC_NODES))
 456:Generated_Source\PSoC6/CapSense_Structure.c ****         /* Initialize Sub-Conversion Number for each node of each CSX widget */
 457:Generated_Source\PSoC6/CapSense_Structure.c ****         ptrFlashWdgt = CapSense_dsFlash.wdgtArray;
 458:Generated_Source\PSoC6/CapSense_Structure.c ****         for (wdgtId = CapSense_TOTAL_WIDGETS; wdgtId-- > 0u;)
 459:Generated_Source\PSoC6/CapSense_Structure.c ****         {
 460:Generated_Source\PSoC6/CapSense_Structure.c ****             /* Check for widget sense method */
 461:Generated_Source\PSoC6/CapSense_Structure.c ****             if (CapSense_SENSE_METHOD_CSX_E == CapSense_GET_SENSE_METHOD(ptrFlashWdgt))
 462:Generated_Source\PSoC6/CapSense_Structure.c ****             {
 463:Generated_Source\PSoC6/CapSense_Structure.c ****                 /* Take the sub-convesion number of a CSX widget and initialize each node of this w
 464:Generated_Source\PSoC6/CapSense_Structure.c ****                 subConvNumber = ((CapSense_RAM_WD_BASE_STRUCT *)(ptrFlashWdgt->ptr2WdgtRam))->resol
 465:Generated_Source\PSoC6/CapSense_Structure.c ****                 ptrSnsTmp = ptrFlashWdgt->ptr2SnsRam;
 466:Generated_Source\PSoC6/CapSense_Structure.c ****                 for (snsId = CapSense_GET_SNS_CNT_BY_PTR(ptrFlashWdgt); snsId-- > 0u;)
 467:Generated_Source\PSoC6/CapSense_Structure.c ****                 {
 468:Generated_Source\PSoC6/CapSense_Structure.c ****                     ptrSnsTmp->subConvNum = subConvNumber;
 469:Generated_Source\PSoC6/CapSense_Structure.c ****                     ptrSnsTmp++;
 470:Generated_Source\PSoC6/CapSense_Structure.c ****                 }
 471:Generated_Source\PSoC6/CapSense_Structure.c ****             }
 472:Generated_Source\PSoC6/CapSense_Structure.c ****             /* Move to the next widget */
 473:Generated_Source\PSoC6/CapSense_Structure.c ****             ptrFlashWdgt++;
 474:Generated_Source\PSoC6/CapSense_Structure.c ****         }
 475:Generated_Source\PSoC6/CapSense_Structure.c ****     #endif /* ((CapSense_ENABLE == CapSense_CSX_EN) && \
 476:Generated_Source\PSoC6/CapSense_Structure.c ****                (CapSense_ENABLE == CapSense_CSX_SKIP_OVSMPL_SPECIFIC_NODES)) */
 477:Generated_Source\PSoC6/CapSense_Structure.c **** 
 478:Generated_Source\PSoC6/CapSense_Structure.c ****     #if (0u != CapSense_ADC_EN)
 479:Generated_Source\PSoC6/CapSense_Structure.c ****         CapSense_AdcDsInitialize();
 480:Generated_Source\PSoC6/CapSense_Structure.c ****     #endif /* (0u != CapSense_ADC_EN) */
 481:Generated_Source\PSoC6/CapSense_Structure.c **** }
 482:Generated_Source\PSoC6/CapSense_Structure.c **** 
 483:Generated_Source\PSoC6/CapSense_Structure.c **** 
 484:Generated_Source\PSoC6/CapSense_Structure.c **** #if (0u != CapSense_ADC_EN)
 485:Generated_Source\PSoC6/CapSense_Structure.c ****     /*******************************************************************************
 486:Generated_Source\PSoC6/CapSense_Structure.c ****     * Function Name: CapSense_AdcDsInitialize
ARM GAS  C:\Users\gjl\AppData\Local\Temp\ccprL3gI.s 			page 10


 487:Generated_Source\PSoC6/CapSense_Structure.c ****     ****************************************************************************//**
 488:Generated_Source\PSoC6/CapSense_Structure.c ****     *
 489:Generated_Source\PSoC6/CapSense_Structure.c ****     * \brief
 490:Generated_Source\PSoC6/CapSense_Structure.c ****     *   Configures the initial Adc datastructure members.
 491:Generated_Source\PSoC6/CapSense_Structure.c ****     *
 492:Generated_Source\PSoC6/CapSense_Structure.c ****     *******************************************************************************/
 493:Generated_Source\PSoC6/CapSense_Structure.c ****     void CapSense_AdcDsInitialize(void)
 494:Generated_Source\PSoC6/CapSense_Structure.c ****     {
 495:Generated_Source\PSoC6/CapSense_Structure.c ****         CapSense_dsRam.adcResolution = CapSense_ADC_RESOLUTION;
 496:Generated_Source\PSoC6/CapSense_Structure.c ****         CapSense_dsRam.adcIdac = (uint8)(CapSense_ADC_IDAC_DEFAULT);
 497:Generated_Source\PSoC6/CapSense_Structure.c ****         CapSense_dsRam.adcActiveCh = CapSense_AdcNO_CHANNEL;
 498:Generated_Source\PSoC6/CapSense_Structure.c ****     }
 499:Generated_Source\PSoC6/CapSense_Structure.c **** #endif /* (0u != CapSense_ADC_EN) */
 500:Generated_Source\PSoC6/CapSense_Structure.c **** 
 501:Generated_Source\PSoC6/CapSense_Structure.c **** 
 502:Generated_Source\PSoC6/CapSense_Structure.c **** /*******************************************************************************
 503:Generated_Source\PSoC6/CapSense_Structure.c **** * Function Name: DsParseParamId
 504:Generated_Source\PSoC6/CapSense_Structure.c **** ****************************************************************************//**
 505:Generated_Source\PSoC6/CapSense_Structure.c **** *
 506:Generated_Source\PSoC6/CapSense_Structure.c **** * \brief
 507:Generated_Source\PSoC6/CapSense_Structure.c **** *   This function parses the parameter ID and checks its correctness.
 508:Generated_Source\PSoC6/CapSense_Structure.c **** *
 509:Generated_Source\PSoC6/CapSense_Structure.c **** * \details
 510:Generated_Source\PSoC6/CapSense_Structure.c **** *   This function checks the parameter CRC if the self-test is enabled,
 511:Generated_Source\PSoC6/CapSense_Structure.c **** *   validates the offset value and parameter type.
 512:Generated_Source\PSoC6/CapSense_Structure.c **** *
 513:Generated_Source\PSoC6/CapSense_Structure.c **** * \param paramId The parameter to parse.
 514:Generated_Source\PSoC6/CapSense_Structure.c **** * \param pData   The pointer to the structure that will hold parsed data.
 515:Generated_Source\PSoC6/CapSense_Structure.c **** *
 516:Generated_Source\PSoC6/CapSense_Structure.c **** * \return CY_RET_SUCCESS     If the parameter is valid
 517:Generated_Source\PSoC6/CapSense_Structure.c **** *         CY_RET_BAD_PARAM   If  the parameter is invalid
 518:Generated_Source\PSoC6/CapSense_Structure.c **** *
 519:Generated_Source\PSoC6/CapSense_Structure.c **** *******************************************************************************/
 520:Generated_Source\PSoC6/CapSense_Structure.c **** static cy_status DsParseParamId(uint32 paramId, PARAM_ID_STRUCT *pData)
 521:Generated_Source\PSoC6/CapSense_Structure.c **** {
  28              		.loc 1 521 0
  29              		.cfi_startproc
  30              		@ args = 0, pretend = 0, frame = 0
  31              		@ frame_needed = 0, uses_anonymous_args = 0
  32              		@ link register save eliminated.
  33              	.LVL0:
  34 0000 30B4     		push	{r4, r5}
  35              		.cfi_def_cfa_offset 8
  36              		.cfi_offset 4, -8
  37              		.cfi_offset 5, -4
  38              	.LVL1:
 522:Generated_Source\PSoC6/CapSense_Structure.c ****     cy_status result = CY_RET_SUCCESS;
 523:Generated_Source\PSoC6/CapSense_Structure.c **** 
 524:Generated_Source\PSoC6/CapSense_Structure.c ****     #if (0u != CapSense_SELF_TEST_EN)
 525:Generated_Source\PSoC6/CapSense_Structure.c ****         const uint8 crcTable[] =
 526:Generated_Source\PSoC6/CapSense_Structure.c ****         {
 527:Generated_Source\PSoC6/CapSense_Structure.c ****             0x00u, 0x09u, 0x0Bu, 0x02u, 0x0Fu, 0x06u, 0x04u, 0x0Du,
 528:Generated_Source\PSoC6/CapSense_Structure.c ****             0x07u, 0x0Eu, 0x0Cu, 0x05u, 0x08u, 0x01u, 0x03u, 0x0Au
 529:Generated_Source\PSoC6/CapSense_Structure.c ****         };
 530:Generated_Source\PSoC6/CapSense_Structure.c **** 
 531:Generated_Source\PSoC6/CapSense_Structure.c ****         uint32 i;
 532:Generated_Source\PSoC6/CapSense_Structure.c ****         uint32 actualCrc = 0u;
ARM GAS  C:\Users\gjl\AppData\Local\Temp\ccprL3gI.s 			page 11


 533:Generated_Source\PSoC6/CapSense_Structure.c ****         uint32 crcIndex;
 534:Generated_Source\PSoC6/CapSense_Structure.c ****     #endif /* #if (0u != CapSense_SELF_TEST_EN) */
 535:Generated_Source\PSoC6/CapSense_Structure.c **** 
 536:Generated_Source\PSoC6/CapSense_Structure.c ****     /* Extract parameter data */
 537:Generated_Source\PSoC6/CapSense_Structure.c ****     pData->offset     = CY_LO16(paramId);
  39              		.loc 1 537 0
  40 0002 82B2     		uxth	r2, r0
  41 0004 0A80     		strh	r2, [r1]	@ movhi
 538:Generated_Source\PSoC6/CapSense_Structure.c ****     pData->affectsCrc = CY_LO8((paramId & PARAM_UBIT_MASK)  >> PARAM_UBIT_OFFSET);
  42              		.loc 1 538 0
  43 0006 C0F3C053 		ubfx	r3, r0, #23, #1
  44 000a CB70     		strb	r3, [r1, #3]
 539:Generated_Source\PSoC6/CapSense_Structure.c ****     pData->widgetId   = CY_LO8((paramId & PARAM_WDID_MASK)  >> PARAM_WDID_OFFSET);
  45              		.loc 1 539 0
  46 000c C0F30643 		ubfx	r3, r0, #16, #7
  47 0010 8B70     		strb	r3, [r1, #2]
 540:Generated_Source\PSoC6/CapSense_Structure.c ****     pData->type       = CY_LO8((paramId & PARAM_TYPE_MASK)  >> PARAM_TYPE_OFFSET);
  48              		.loc 1 540 0
  49 0012 830F     		lsrs	r3, r0, #30
  50 0014 CB71     		strb	r3, [r1, #7]
 541:Generated_Source\PSoC6/CapSense_Structure.c ****     pData->flash      = CY_LO8((paramId & PARAM_FBIT_MASK)  >> PARAM_FBIT_OFFSET);
  51              		.loc 1 541 0
  52 0016 C0F30074 		ubfx	r4, r0, #28, #1
  53 001a 4C71     		strb	r4, [r1, #5]
 542:Generated_Source\PSoC6/CapSense_Structure.c ****     pData->rw         = CY_LO8((paramId & PARAM_RWBIT_MASK) >> PARAM_RWBIT_OFFSET);
  54              		.loc 1 542 0
  55 001c C0F34075 		ubfx	r5, r0, #29, #1
  56 0020 8D71     		strb	r5, [r1, #6]
 543:Generated_Source\PSoC6/CapSense_Structure.c ****     pData->crc        = CY_LO8((paramId & PARAM_CRC_MASK)   >> PARAM_CRC_OFFSET);
  57              		.loc 1 543 0
  58 0022 C0F30360 		ubfx	r0, r0, #24, #4
  59              	.LVL2:
  60 0026 0871     		strb	r0, [r1, #4]
 544:Generated_Source\PSoC6/CapSense_Structure.c **** 
 545:Generated_Source\PSoC6/CapSense_Structure.c ****     /* Check parameter CRC if self-test is enabled */
 546:Generated_Source\PSoC6/CapSense_Structure.c ****     #if (0u != CapSense_SELF_TEST_EN)
 547:Generated_Source\PSoC6/CapSense_Structure.c **** 
 548:Generated_Source\PSoC6/CapSense_Structure.c ****         /* Calculate CRC for bits 0..24.
 549:Generated_Source\PSoC6/CapSense_Structure.c ****          * The CRC is calculated using nibbles (4-bits).
 550:Generated_Source\PSoC6/CapSense_Structure.c ****          * So for 0..24 bits there are in total 6 nibbles. */
 551:Generated_Source\PSoC6/CapSense_Structure.c ****         for (i = 6u; i > 0u; i--)
 552:Generated_Source\PSoC6/CapSense_Structure.c ****         {
 553:Generated_Source\PSoC6/CapSense_Structure.c ****             crcIndex = actualCrc ^ (paramId & 0x0Fu);
 554:Generated_Source\PSoC6/CapSense_Structure.c ****             actualCrc = crcTable[crcIndex];
 555:Generated_Source\PSoC6/CapSense_Structure.c ****             paramId >>= 4u;
 556:Generated_Source\PSoC6/CapSense_Structure.c ****         }
 557:Generated_Source\PSoC6/CapSense_Structure.c **** 
 558:Generated_Source\PSoC6/CapSense_Structure.c ****         /* Add bits 28..32 */
 559:Generated_Source\PSoC6/CapSense_Structure.c ****         crcIndex = actualCrc ^ ((paramId >> 4u) & 0x0Fu);
 560:Generated_Source\PSoC6/CapSense_Structure.c ****         actualCrc = crcTable[crcIndex];
 561:Generated_Source\PSoC6/CapSense_Structure.c **** 
 562:Generated_Source\PSoC6/CapSense_Structure.c ****         /* Add bits 24..28 (CRC) */
 563:Generated_Source\PSoC6/CapSense_Structure.c ****         crcIndex = actualCrc ^ (paramId & 0x0Fu);
 564:Generated_Source\PSoC6/CapSense_Structure.c ****         actualCrc = crcTable[crcIndex];
 565:Generated_Source\PSoC6/CapSense_Structure.c **** 
 566:Generated_Source\PSoC6/CapSense_Structure.c ****         if (0u != actualCrc)
 567:Generated_Source\PSoC6/CapSense_Structure.c ****         {
ARM GAS  C:\Users\gjl\AppData\Local\Temp\ccprL3gI.s 			page 12


 568:Generated_Source\PSoC6/CapSense_Structure.c ****             /* CRC mismatch */
 569:Generated_Source\PSoC6/CapSense_Structure.c ****             result = CY_RET_BAD_PARAM;
 570:Generated_Source\PSoC6/CapSense_Structure.c ****         }
 571:Generated_Source\PSoC6/CapSense_Structure.c **** 
 572:Generated_Source\PSoC6/CapSense_Structure.c ****         if ((CY_RET_SUCCESS == result) &&
 573:Generated_Source\PSoC6/CapSense_Structure.c ****             (0u != pData->affectsCrc) && (pData->widgetId >= CapSense_TOTAL_WIDGETS ))
 574:Generated_Source\PSoC6/CapSense_Structure.c ****         {
 575:Generated_Source\PSoC6/CapSense_Structure.c ****             /* Wrong widgetId for protected parameter */
 576:Generated_Source\PSoC6/CapSense_Structure.c ****             result = CY_RET_BAD_PARAM;
 577:Generated_Source\PSoC6/CapSense_Structure.c ****         }
 578:Generated_Source\PSoC6/CapSense_Structure.c **** 
 579:Generated_Source\PSoC6/CapSense_Structure.c ****         /* Check offset value range */
 580:Generated_Source\PSoC6/CapSense_Structure.c ****         if (CY_RET_SUCCESS == result)
 581:Generated_Source\PSoC6/CapSense_Structure.c ****         {
 582:Generated_Source\PSoC6/CapSense_Structure.c ****             if (0u == pData->flash)
 583:Generated_Source\PSoC6/CapSense_Structure.c ****             {
 584:Generated_Source\PSoC6/CapSense_Structure.c ****                 /* Check offset for RAM Data Structure range */
 585:Generated_Source\PSoC6/CapSense_Structure.c ****                 if (pData->offset >= sizeof(CapSense_dsRam))
 586:Generated_Source\PSoC6/CapSense_Structure.c ****                 {
 587:Generated_Source\PSoC6/CapSense_Structure.c ****                     result = CY_RET_BAD_PARAM;
 588:Generated_Source\PSoC6/CapSense_Structure.c ****                 }
 589:Generated_Source\PSoC6/CapSense_Structure.c ****             }
 590:Generated_Source\PSoC6/CapSense_Structure.c ****             else
 591:Generated_Source\PSoC6/CapSense_Structure.c ****             {
 592:Generated_Source\PSoC6/CapSense_Structure.c ****                 /* Check offset for Flash Data Structure range */
 593:Generated_Source\PSoC6/CapSense_Structure.c ****                 if (pData->offset >= sizeof(CapSense_dsFlash))
 594:Generated_Source\PSoC6/CapSense_Structure.c ****                 {
 595:Generated_Source\PSoC6/CapSense_Structure.c ****                     result = CY_RET_BAD_PARAM;
 596:Generated_Source\PSoC6/CapSense_Structure.c ****                 }
 597:Generated_Source\PSoC6/CapSense_Structure.c **** 
 598:Generated_Source\PSoC6/CapSense_Structure.c ****                 /* Check if it is marked as Read Only */
 599:Generated_Source\PSoC6/CapSense_Structure.c ****                 if (0u != pData->rw)
 600:Generated_Source\PSoC6/CapSense_Structure.c ****                 {
 601:Generated_Source\PSoC6/CapSense_Structure.c ****                     result = CY_RET_BAD_PARAM;
 602:Generated_Source\PSoC6/CapSense_Structure.c ****                 }
 603:Generated_Source\PSoC6/CapSense_Structure.c ****             }
 604:Generated_Source\PSoC6/CapSense_Structure.c ****         }
 605:Generated_Source\PSoC6/CapSense_Structure.c ****     #else /* #if (0u != CapSense_SELF_TEST_EN) */
 606:Generated_Source\PSoC6/CapSense_Structure.c ****         /* Check offset value range */
 607:Generated_Source\PSoC6/CapSense_Structure.c ****         if (0u == pData->flash)
  61              		.loc 1 607 0
  62 0028 1CB9     		cbnz	r4, .L2
 608:Generated_Source\PSoC6/CapSense_Structure.c ****         {
 609:Generated_Source\PSoC6/CapSense_Structure.c ****             /* Check offset for RAM Data Structure range */
 610:Generated_Source\PSoC6/CapSense_Structure.c ****             if (pData->offset >= sizeof(CapSense_dsRam))
  63              		.loc 1 610 0
  64 002a A32A     		cmp	r2, #163
  65 002c 08D8     		bhi	.L9
 522:Generated_Source\PSoC6/CapSense_Structure.c **** 
  66              		.loc 1 522 0
  67 002e 0020     		movs	r0, #0
  68 0030 09E0     		b	.L3
  69              	.L2:
 611:Generated_Source\PSoC6/CapSense_Structure.c ****             {
 612:Generated_Source\PSoC6/CapSense_Structure.c ****                 result = CY_RET_BAD_PARAM;
 613:Generated_Source\PSoC6/CapSense_Structure.c ****             }
 614:Generated_Source\PSoC6/CapSense_Structure.c ****         }
ARM GAS  C:\Users\gjl\AppData\Local\Temp\ccprL3gI.s 			page 13


 615:Generated_Source\PSoC6/CapSense_Structure.c ****         else
 616:Generated_Source\PSoC6/CapSense_Structure.c ****         {
 617:Generated_Source\PSoC6/CapSense_Structure.c ****             /* Check offset for Flash Data Structure range */
 618:Generated_Source\PSoC6/CapSense_Structure.c ****             if (pData->offset >= sizeof(CapSense_dsFlash))
  70              		.loc 1 618 0
  71 0032 832A     		cmp	r2, #131
  72 0034 01D8     		bhi	.L10
 522:Generated_Source\PSoC6/CapSense_Structure.c **** 
  73              		.loc 1 522 0
  74 0036 0020     		movs	r0, #0
  75 0038 00E0     		b	.L4
  76              	.L10:
 619:Generated_Source\PSoC6/CapSense_Structure.c ****             {
 620:Generated_Source\PSoC6/CapSense_Structure.c ****                 result = CY_RET_BAD_PARAM;
  77              		.loc 1 620 0
  78 003a 0120     		movs	r0, #1
  79              	.L4:
  80              	.LVL3:
 621:Generated_Source\PSoC6/CapSense_Structure.c ****             }
 622:Generated_Source\PSoC6/CapSense_Structure.c **** 
 623:Generated_Source\PSoC6/CapSense_Structure.c ****             /* Check if it is marked as Read Only */
 624:Generated_Source\PSoC6/CapSense_Structure.c ****             if (0u != pData->rw)
  81              		.loc 1 624 0
  82 003c 15B9     		cbnz	r5, .L11
  83 003e 02E0     		b	.L3
  84              	.LVL4:
  85              	.L9:
 612:Generated_Source\PSoC6/CapSense_Structure.c ****             }
  86              		.loc 1 612 0
  87 0040 0120     		movs	r0, #1
  88 0042 00E0     		b	.L3
  89              	.LVL5:
  90              	.L11:
 625:Generated_Source\PSoC6/CapSense_Structure.c ****             {
 626:Generated_Source\PSoC6/CapSense_Structure.c ****                 result = CY_RET_BAD_PARAM;
  91              		.loc 1 626 0
  92 0044 0120     		movs	r0, #1
  93              	.LVL6:
  94              	.L3:
 627:Generated_Source\PSoC6/CapSense_Structure.c ****             }
 628:Generated_Source\PSoC6/CapSense_Structure.c ****         }
 629:Generated_Source\PSoC6/CapSense_Structure.c ****     #endif /* #if (0u != CapSense_SELF_TEST_EN) */
 630:Generated_Source\PSoC6/CapSense_Structure.c **** 
 631:Generated_Source\PSoC6/CapSense_Structure.c ****     if (CY_RET_SUCCESS == result)
  95              		.loc 1 631 0
  96 0046 98B9     		cbnz	r0, .L5
 632:Generated_Source\PSoC6/CapSense_Structure.c ****     {
 633:Generated_Source\PSoC6/CapSense_Structure.c ****         /* Check parameter type, offset alignment */
 634:Generated_Source\PSoC6/CapSense_Structure.c ****         switch (pData->type)
  97              		.loc 1 634 0
  98 0048 022B     		cmp	r3, #2
  99 004a 04D0     		beq	.L6
 100 004c 032B     		cmp	r3, #3
 101 004e 06D0     		beq	.L7
 102 0050 012B     		cmp	r3, #1
 103 0052 08D1     		bne	.L15
 104 0054 0CE0     		b	.L5
ARM GAS  C:\Users\gjl\AppData\Local\Temp\ccprL3gI.s 			page 14


 105              	.L6:
 635:Generated_Source\PSoC6/CapSense_Structure.c ****         {
 636:Generated_Source\PSoC6/CapSense_Structure.c ****         case DS_PARAM_TYPE_UINT16:
 637:Generated_Source\PSoC6/CapSense_Structure.c ****             if (0u != (pData->offset & UINT16_ALIGN_MASK))
 106              		.loc 1 637 0
 107 0056 12F0010F 		tst	r2, #1
 108 005a 06D1     		bne	.L13
 109 005c 08E0     		b	.L5
 110              	.L7:
 638:Generated_Source\PSoC6/CapSense_Structure.c ****             {
 639:Generated_Source\PSoC6/CapSense_Structure.c ****                 result = CY_RET_BAD_PARAM;
 640:Generated_Source\PSoC6/CapSense_Structure.c ****             }
 641:Generated_Source\PSoC6/CapSense_Structure.c ****             break;
 642:Generated_Source\PSoC6/CapSense_Structure.c **** 
 643:Generated_Source\PSoC6/CapSense_Structure.c ****         case DS_PARAM_TYPE_UINT32:
 644:Generated_Source\PSoC6/CapSense_Structure.c ****             if (0u != (pData->offset & UINT32_ALIGN_MASK))
 111              		.loc 1 644 0
 112 005e 12F0030F 		tst	r2, #3
 113 0062 04D1     		bne	.L14
 114 0064 04E0     		b	.L5
 115              	.L15:
 645:Generated_Source\PSoC6/CapSense_Structure.c ****             {
 646:Generated_Source\PSoC6/CapSense_Structure.c ****                 result = CY_RET_BAD_PARAM;
 647:Generated_Source\PSoC6/CapSense_Structure.c ****             }
 648:Generated_Source\PSoC6/CapSense_Structure.c ****             break;
 649:Generated_Source\PSoC6/CapSense_Structure.c **** 
 650:Generated_Source\PSoC6/CapSense_Structure.c ****         case DS_PARAM_TYPE_UINT8:
 651:Generated_Source\PSoC6/CapSense_Structure.c ****             break;
 652:Generated_Source\PSoC6/CapSense_Structure.c **** 
 653:Generated_Source\PSoC6/CapSense_Structure.c ****         default:
 654:Generated_Source\PSoC6/CapSense_Structure.c ****             result = CY_RET_BAD_PARAM;
 116              		.loc 1 654 0
 117 0066 0120     		movs	r0, #1
 118              	.LVL7:
 119 0068 02E0     		b	.L5
 120              	.LVL8:
 121              	.L13:
 639:Generated_Source\PSoC6/CapSense_Structure.c ****             }
 122              		.loc 1 639 0
 123 006a 0120     		movs	r0, #1
 124              	.LVL9:
 125 006c 00E0     		b	.L5
 126              	.LVL10:
 127              	.L14:
 646:Generated_Source\PSoC6/CapSense_Structure.c ****             }
 128              		.loc 1 646 0
 129 006e 0120     		movs	r0, #1
 130              	.LVL11:
 131              	.L5:
 655:Generated_Source\PSoC6/CapSense_Structure.c ****             break;
 656:Generated_Source\PSoC6/CapSense_Structure.c ****         }
 657:Generated_Source\PSoC6/CapSense_Structure.c ****     }
 658:Generated_Source\PSoC6/CapSense_Structure.c **** 
 659:Generated_Source\PSoC6/CapSense_Structure.c ****     return result;
 660:Generated_Source\PSoC6/CapSense_Structure.c **** }
 132              		.loc 1 660 0
 133 0070 30BC     		pop	{r4, r5}
ARM GAS  C:\Users\gjl\AppData\Local\Temp\ccprL3gI.s 			page 15


 134              		.cfi_restore 5
 135              		.cfi_restore 4
 136              		.cfi_def_cfa_offset 0
 137 0072 7047     		bx	lr
 138              		.cfi_endproc
 139              	.LFE126:
 140              		.size	DsParseParamId, .-DsParseParamId
 141              		.section	.text.CapSense_DsInitialize,"ax",%progbits
 142              		.align	2
 143              		.global	CapSense_DsInitialize
 144              		.thumb
 145              		.thumb_func
 146              		.type	CapSense_DsInitialize, %function
 147              	CapSense_DsInitialize:
 148              	.LFB125:
 359:Generated_Source\PSoC6/CapSense_Structure.c ****     #if ((CapSense_ENABLE == CapSense_CSX_EN) || \
 149              		.loc 1 359 0
 150              		.cfi_startproc
 151              		@ args = 0, pretend = 0, frame = 0
 152              		@ frame_needed = 0, uses_anonymous_args = 0
 153 0000 70B5     		push	{r4, r5, r6, lr}
 154              		.cfi_def_cfa_offset 16
 155              		.cfi_offset 4, -16
 156              		.cfi_offset 5, -12
 157              		.cfi_offset 6, -8
 158              		.cfi_offset 14, -4
 159              	.LVL12:
 380:Generated_Source\PSoC6/CapSense_Structure.c **** 
 160              		.loc 1 380 0
 161 0002 1C4C     		ldr	r4, .L23
 162 0004 A422     		movs	r2, #164
 163 0006 0021     		movs	r1, #0
 164 0008 2046     		mov	r0, r4
 165 000a FFF7FEFF 		bl	memset
 166              	.LVL13:
 383:Generated_Source\PSoC6/CapSense_Structure.c ****     CapSense_dsRam.deviceId = CapSense_DEVICE_ID;
 167              		.loc 1 383 0
 168 000e 45F23A23 		movw	r3, #21050
 169 0012 2380     		strh	r3, [r4]	@ movhi
 384:Generated_Source\PSoC6/CapSense_Structure.c ****     CapSense_dsRam.hwClock = CapSense_HW_CLOCK;
 170              		.loc 1 384 0
 171 0014 4FF41063 		mov	r3, #2304
 172 0018 6380     		strh	r3, [r4, #2]	@ movhi
 385:Generated_Source\PSoC6/CapSense_Structure.c **** 
 173              		.loc 1 385 0
 174 001a 41F66A03 		movw	r3, #6250
 175 001e A380     		strh	r3, [r4, #4]	@ movhi
 388:Generated_Source\PSoC6/CapSense_Structure.c **** 
 176              		.loc 1 388 0
 177 0020 0823     		movs	r3, #8
 178 0022 A383     		strh	r3, [r4, #28]	@ movhi
 391:Generated_Source\PSoC6/CapSense_Structure.c **** 
 179              		.loc 1 391 0
 180 0024 0123     		movs	r3, #1
 181 0026 A377     		strb	r3, [r4, #30]
 399:Generated_Source\PSoC6/CapSense_Structure.c **** 
 182              		.loc 1 399 0
ARM GAS  C:\Users\gjl\AppData\Local\Temp\ccprL3gI.s 			page 16


 183 0028 E377     		strb	r3, [r4, #31]
 411:Generated_Source\PSoC6/CapSense_Structure.c **** 
 184              		.loc 1 411 0
 185 002a 134E     		ldr	r6, .L23+4
 186 002c 2034     		adds	r4, r4, #32
 187 002e 06F18C05 		add	r5, r6, #140
 188 0032 0FCD     		ldmia	r5!, {r0, r1, r2, r3}
 189 0034 0FC4     		stmia	r4!, {r0, r1, r2, r3}
 190 0036 0FCD     		ldmia	r5!, {r0, r1, r2, r3}
 191 0038 0FC4     		stmia	r4!, {r0, r1, r2, r3}
 192 003a 0FCD     		ldmia	r5!, {r0, r1, r2, r3}
 193 003c 0FC4     		stmia	r4!, {r0, r1, r2, r3}
 194 003e 95E80300 		ldmia	r5, {r0, r1}
 195 0042 84E80300 		stmia	r4, {r0, r1}
 196              	.LVL14:
 376:Generated_Source\PSoC6/CapSense_Structure.c ****     #endif
 197              		.loc 1 376 0
 198 0046 3046     		mov	r0, r6
 428:Generated_Source\PSoC6/CapSense_Structure.c **** 
 199              		.loc 1 428 0
 200 0048 06F10804 		add	r4, r6, #8
 430:Generated_Source\PSoC6/CapSense_Structure.c ****         {
 201              		.loc 1 430 0
 202 004c 0323     		movs	r3, #3
 203 004e 0CE0     		b	.L18
 204              	.LVL15:
 205              	.L21:
 432:Generated_Source\PSoC6/CapSense_Structure.c **** 
 206              		.loc 1 432 0
 207 0050 A268     		ldr	r2, [r4, #8]
 208              	.LVL16:
 434:Generated_Source\PSoC6/CapSense_Structure.c ****             {
 209              		.loc 1 434 0
 210 0052 238B     		ldrh	r3, [r4, #24]
 211              	.LVL17:
 212 0054 04E0     		b	.L19
 213              	.LVL18:
 214              	.L20:
 436:Generated_Source\PSoC6/CapSense_Structure.c ****                 ptrIdacInit++;
 215              		.loc 1 436 0
 216 0056 10F8013B 		ldrb	r3, [r0], #1	@ zero_extendqisi2
 217              	.LVL19:
 218 005a 5372     		strb	r3, [r2, #9]
 219              	.LVL20:
 447:Generated_Source\PSoC6/CapSense_Structure.c ****             }
 220              		.loc 1 447 0
 221 005c 0A32     		adds	r2, r2, #10
 222              	.LVL21:
 434:Generated_Source\PSoC6/CapSense_Structure.c ****             {
 223              		.loc 1 434 0
 224 005e 0B46     		mov	r3, r1
 225              	.LVL22:
 226              	.L19:
 434:Generated_Source\PSoC6/CapSense_Structure.c ****             {
 227              		.loc 1 434 0 is_stmt 0 discriminator 1
 228 0060 591E     		subs	r1, r3, #1
 229              	.LVL23:
ARM GAS  C:\Users\gjl\AppData\Local\Temp\ccprL3gI.s 			page 17


 230 0062 002B     		cmp	r3, #0
 231 0064 F7D1     		bne	.L20
 450:Generated_Source\PSoC6/CapSense_Structure.c ****         }
 232              		.loc 1 450 0 is_stmt 1
 233 0066 2C34     		adds	r4, r4, #44
 234              	.LVL24:
 430:Generated_Source\PSoC6/CapSense_Structure.c ****         {
 235              		.loc 1 430 0
 236 0068 2B46     		mov	r3, r5
 237              	.LVL25:
 238              	.L18:
 430:Generated_Source\PSoC6/CapSense_Structure.c ****         {
 239              		.loc 1 430 0 is_stmt 0 discriminator 1
 240 006a 5D1E     		subs	r5, r3, #1
 241              	.LVL26:
 242 006c 002B     		cmp	r3, #0
 243 006e EFD1     		bne	.L21
 481:Generated_Source\PSoC6/CapSense_Structure.c **** 
 244              		.loc 1 481 0 is_stmt 1
 245 0070 70BD     		pop	{r4, r5, r6, pc}
 246              	.LVL27:
 247              	.L24:
 248 0072 00BF     		.align	2
 249              	.L23:
 250 0074 00000000 		.word	CapSense_dsRam
 251 0078 00000000 		.word	.LANCHOR0
 252              		.cfi_endproc
 253              	.LFE125:
 254              		.size	CapSense_DsInitialize, .-CapSense_DsInitialize
 255              		.section	.text.CapSense_GetParam,"ax",%progbits
 256              		.align	2
 257              		.global	CapSense_GetParam
 258              		.thumb
 259              		.thumb_func
 260              		.type	CapSense_GetParam, %function
 261              	CapSense_GetParam:
 262              	.LFB127:
 661:Generated_Source\PSoC6/CapSense_Structure.c **** 
 662:Generated_Source\PSoC6/CapSense_Structure.c **** /*******************************************************************************
 663:Generated_Source\PSoC6/CapSense_Structure.c **** * Function Name: CapSense_GetParam
 664:Generated_Source\PSoC6/CapSense_Structure.c **** ****************************************************************************//**
 665:Generated_Source\PSoC6/CapSense_Structure.c **** *
 666:Generated_Source\PSoC6/CapSense_Structure.c **** * \brief
 667:Generated_Source\PSoC6/CapSense_Structure.c **** *  Gets the specified parameter value from the \ref group_structures.
 668:Generated_Source\PSoC6/CapSense_Structure.c **** *
 669:Generated_Source\PSoC6/CapSense_Structure.c **** * \details
 670:Generated_Source\PSoC6/CapSense_Structure.c **** *  This function gets the value of the specified parameter by the paramId
 671:Generated_Source\PSoC6/CapSense_Structure.c **** *  argument. The paramId for each register is available in the
 672:Generated_Source\PSoC6/CapSense_Structure.c **** *  CapSense RegisterMap header file as
 673:Generated_Source\PSoC6/CapSense_Structure.c **** *  CapSense_<ParameterName>_PARAM_ID. The paramId is a special
 674:Generated_Source\PSoC6/CapSense_Structure.c **** *  enumerated value generated by the customizer. The format of paramId is as
 675:Generated_Source\PSoC6/CapSense_Structure.c **** *  follows:
 676:Generated_Source\PSoC6/CapSense_Structure.c **** *    1. [ byte 3 byte 2 byte 1 byte 0 ]
 677:Generated_Source\PSoC6/CapSense_Structure.c **** *    2. [ TTWFCCCC UIIIIIII MMMMMMMM LLLLLLLL ]
 678:Generated_Source\PSoC6/CapSense_Structure.c **** *    3. T - encodes the parameter type:
 679:Generated_Source\PSoC6/CapSense_Structure.c **** *      - 01b: uint8
 680:Generated_Source\PSoC6/CapSense_Structure.c **** *      - 10b: uint16
ARM GAS  C:\Users\gjl\AppData\Local\Temp\ccprL3gI.s 			page 18


 681:Generated_Source\PSoC6/CapSense_Structure.c **** *      - 11b: uint32
 682:Generated_Source\PSoC6/CapSense_Structure.c **** *    4. W - indicates whether the parameter is writable:
 683:Generated_Source\PSoC6/CapSense_Structure.c **** *      - 0: ReadOnly
 684:Generated_Source\PSoC6/CapSense_Structure.c **** *      - 1: Read/Write
 685:Generated_Source\PSoC6/CapSense_Structure.c **** *    5. C - 4 bit CRC (X^3 + 1) of the whole paramId word, the C bits are
 686:Generated_Source\PSoC6/CapSense_Structure.c **** *       filled with 0s when the CRC is calculated.
 687:Generated_Source\PSoC6/CapSense_Structure.c **** *    6. U - indicates if the parameter affects the RAM Widget Object CRC.
 688:Generated_Source\PSoC6/CapSense_Structure.c **** *    7. I - specifies that the widgetId parameter belongs to
 689:Generated_Source\PSoC6/CapSense_Structure.c **** *    8. M,L - the parameter offset MSB and LSB accordingly in:
 690:Generated_Source\PSoC6/CapSense_Structure.c **** *      - Flash Data Structure if W bit is 0.
 691:Generated_Source\PSoC6/CapSense_Structure.c **** *      - RAM Data Structure if W bit is 1.
 692:Generated_Source\PSoC6/CapSense_Structure.c **** *
 693:Generated_Source\PSoC6/CapSense_Structure.c **** *  Refer to the \ref group_structures section for details of the data structure
 694:Generated_Source\PSoC6/CapSense_Structure.c **** *  organization and examples of its register access.
 695:Generated_Source\PSoC6/CapSense_Structure.c **** *
 696:Generated_Source\PSoC6/CapSense_Structure.c **** * \param paramId
 697:Generated_Source\PSoC6/CapSense_Structure.c **** *  Specifies the ID of parameter to get its value.
 698:Generated_Source\PSoC6/CapSense_Structure.c **** *  A macro for the parameter ID can be found in the CapSense RegisterMap header
 699:Generated_Source\PSoC6/CapSense_Structure.c **** *  file defined as CapSense_<ParameterName>_PARAM_ID.
 700:Generated_Source\PSoC6/CapSense_Structure.c **** *
 701:Generated_Source\PSoC6/CapSense_Structure.c **** * \param  value
 702:Generated_Source\PSoC6/CapSense_Structure.c **** *  The pointer to a variable to be updated with the obtained value.
 703:Generated_Source\PSoC6/CapSense_Structure.c **** *
 704:Generated_Source\PSoC6/CapSense_Structure.c **** * \return
 705:Generated_Source\PSoC6/CapSense_Structure.c **** *  Returns the status of the operation:
 706:Generated_Source\PSoC6/CapSense_Structure.c **** *    - CY_RET_SUCCESS - The operation is successfully completed.
 707:Generated_Source\PSoC6/CapSense_Structure.c **** *    - CY_RET_BAD_PARAM - The input parameter is invalid.
 708:Generated_Source\PSoC6/CapSense_Structure.c **** *
 709:Generated_Source\PSoC6/CapSense_Structure.c **** *******************************************************************************/
 710:Generated_Source\PSoC6/CapSense_Structure.c **** cy_status CapSense_GetParam(uint32 paramId, uint32 *value)
 711:Generated_Source\PSoC6/CapSense_Structure.c **** {
 263              		.loc 1 711 0
 264              		.cfi_startproc
 265              		@ args = 0, pretend = 0, frame = 8
 266              		@ frame_needed = 0, uses_anonymous_args = 0
 267              	.LVL28:
 268 0000 30B5     		push	{r4, r5, lr}
 269              		.cfi_def_cfa_offset 12
 270              		.cfi_offset 4, -12
 271              		.cfi_offset 5, -8
 272              		.cfi_offset 14, -4
 273 0002 83B0     		sub	sp, sp, #12
 274              		.cfi_def_cfa_offset 24
 275 0004 0D46     		mov	r5, r1
 712:Generated_Source\PSoC6/CapSense_Structure.c ****     PARAM_ID_STRUCT pData;
 713:Generated_Source\PSoC6/CapSense_Structure.c ****     cy_status result;
 714:Generated_Source\PSoC6/CapSense_Structure.c **** 
 715:Generated_Source\PSoC6/CapSense_Structure.c ****     union
 716:Generated_Source\PSoC6/CapSense_Structure.c ****     {
 717:Generated_Source\PSoC6/CapSense_Structure.c ****         volatile void   const * ptr;
 718:Generated_Source\PSoC6/CapSense_Structure.c ****         volatile uint8  const * ptrUint8;
 719:Generated_Source\PSoC6/CapSense_Structure.c ****         volatile uint16 const * ptrUint16;
 720:Generated_Source\PSoC6/CapSense_Structure.c ****         volatile uint32 const * ptrUint32;
 721:Generated_Source\PSoC6/CapSense_Structure.c ****     } ptrData;
 722:Generated_Source\PSoC6/CapSense_Structure.c **** 
 723:Generated_Source\PSoC6/CapSense_Structure.c ****     result = DsParseParamId(paramId, &pData);
 276              		.loc 1 723 0
ARM GAS  C:\Users\gjl\AppData\Local\Temp\ccprL3gI.s 			page 19


 277 0006 6946     		mov	r1, sp
 278              	.LVL29:
 279 0008 FFF7FEFF 		bl	DsParseParamId
 280              	.LVL30:
 724:Generated_Source\PSoC6/CapSense_Structure.c **** 
 725:Generated_Source\PSoC6/CapSense_Structure.c ****     /* Parse and validate paramId */
 726:Generated_Source\PSoC6/CapSense_Structure.c ****     if (CY_RET_SUCCESS == result)
 281              		.loc 1 726 0
 282 000c 0446     		mov	r4, r0
 283 000e F8B9     		cbnz	r0, .L26
 727:Generated_Source\PSoC6/CapSense_Structure.c ****     {
 728:Generated_Source\PSoC6/CapSense_Structure.c ****         /* Get base address of parameter */
 729:Generated_Source\PSoC6/CapSense_Structure.c ****         if (0u == pData.flash)
 284              		.loc 1 729 0
 285 0010 9DF80530 		ldrb	r3, [sp, #5]	@ zero_extendqisi2
 286 0014 0BB9     		cbnz	r3, .L27
 730:Generated_Source\PSoC6/CapSense_Structure.c ****         {
 731:Generated_Source\PSoC6/CapSense_Structure.c ****             ptrData.ptr = &CapSense_dsRam;
 287              		.loc 1 731 0
 288 0016 1049     		ldr	r1, .L33
 289              	.LVL31:
 290 0018 00E0     		b	.L28
 291              	.L27:
 732:Generated_Source\PSoC6/CapSense_Structure.c ****         }
 733:Generated_Source\PSoC6/CapSense_Structure.c ****         else
 734:Generated_Source\PSoC6/CapSense_Structure.c ****         {
 735:Generated_Source\PSoC6/CapSense_Structure.c ****             ptrData.ptr = &CapSense_dsFlash;
 292              		.loc 1 735 0
 293 001a 1049     		ldr	r1, .L33+4
 294              	.L28:
 736:Generated_Source\PSoC6/CapSense_Structure.c ****         }
 737:Generated_Source\PSoC6/CapSense_Structure.c **** 
 738:Generated_Source\PSoC6/CapSense_Structure.c ****         /* Add offset to base address */
 739:Generated_Source\PSoC6/CapSense_Structure.c ****         ptrData.ptrUint8 += pData.offset;
 295              		.loc 1 739 0
 296 001c BDF80020 		ldrh	r2, [sp]
 297              	.LVL32:
 298 0020 8818     		adds	r0, r1, r2
 299              	.LVL33:
 740:Generated_Source\PSoC6/CapSense_Structure.c **** 
 741:Generated_Source\PSoC6/CapSense_Structure.c ****         /* Read data */
 742:Generated_Source\PSoC6/CapSense_Structure.c ****         if (DS_PARAM_TYPE_UINT8 == pData.type)
 300              		.loc 1 742 0
 301 0022 9DF80730 		ldrb	r3, [sp, #7]	@ zero_extendqisi2
 302 0026 012B     		cmp	r3, #1
 303 0028 02D1     		bne	.L29
 743:Generated_Source\PSoC6/CapSense_Structure.c ****         {
 744:Generated_Source\PSoC6/CapSense_Structure.c ****             *value = (uint32) (*ptrData.ptrUint8);
 304              		.loc 1 744 0
 305 002a 8B5C     		ldrb	r3, [r1, r2]	@ zero_extendqisi2
 306 002c 2B60     		str	r3, [r5]
 307 002e 0FE0     		b	.L26
 308              	.L29:
 745:Generated_Source\PSoC6/CapSense_Structure.c ****         }
 746:Generated_Source\PSoC6/CapSense_Structure.c ****         else if (DS_PARAM_TYPE_UINT16 == pData.type)
 309              		.loc 1 746 0
 310 0030 022B     		cmp	r3, #2
ARM GAS  C:\Users\gjl\AppData\Local\Temp\ccprL3gI.s 			page 20


 311 0032 03D1     		bne	.L30
 747:Generated_Source\PSoC6/CapSense_Structure.c ****         {
 748:Generated_Source\PSoC6/CapSense_Structure.c ****             *value = (uint32) (*ptrData.ptrUint16);
 312              		.loc 1 748 0
 313 0034 0388     		ldrh	r3, [r0]
 314 0036 9BB2     		uxth	r3, r3
 315 0038 2B60     		str	r3, [r5]
 316 003a 09E0     		b	.L26
 317              	.L30:
 749:Generated_Source\PSoC6/CapSense_Structure.c ****         }
 750:Generated_Source\PSoC6/CapSense_Structure.c ****         else if (DS_PARAM_TYPE_UINT32 == pData.type)
 318              		.loc 1 750 0
 319 003c 032B     		cmp	r3, #3
 320 003e 02D1     		bne	.L31
 751:Generated_Source\PSoC6/CapSense_Structure.c ****         {
 752:Generated_Source\PSoC6/CapSense_Structure.c ****             *value = *ptrData.ptrUint32;
 321              		.loc 1 752 0
 322 0040 0368     		ldr	r3, [r0]
 323 0042 2B60     		str	r3, [r5]
 324 0044 04E0     		b	.L26
 325              	.L31:
 753:Generated_Source\PSoC6/CapSense_Structure.c ****         }
 754:Generated_Source\PSoC6/CapSense_Structure.c ****         else
 755:Generated_Source\PSoC6/CapSense_Structure.c ****         {
 756:Generated_Source\PSoC6/CapSense_Structure.c ****             /* Parameter comes here already validated. */
 757:Generated_Source\PSoC6/CapSense_Structure.c ****             CY_ASSERT(0 != 0);
 326              		.loc 1 757 0 discriminator 1
 327 0046 40F2F521 		movw	r1, #757
 328              	.LVL34:
 329 004a 0548     		ldr	r0, .L33+8
 330 004c FFF7FEFF 		bl	Cy_SysLib_AssertFailed
 331              	.LVL35:
 332              	.L26:
 758:Generated_Source\PSoC6/CapSense_Structure.c ****         }
 759:Generated_Source\PSoC6/CapSense_Structure.c ****     }
 760:Generated_Source\PSoC6/CapSense_Structure.c **** 
 761:Generated_Source\PSoC6/CapSense_Structure.c ****     return result;
 762:Generated_Source\PSoC6/CapSense_Structure.c **** }
 333              		.loc 1 762 0
 334 0050 2046     		mov	r0, r4
 335 0052 03B0     		add	sp, sp, #12
 336              		.cfi_def_cfa_offset 12
 337              		@ sp needed
 338 0054 30BD     		pop	{r4, r5, pc}
 339              	.LVL36:
 340              	.L34:
 341 0056 00BF     		.align	2
 342              	.L33:
 343 0058 00000000 		.word	CapSense_dsRam
 344 005c 08000000 		.word	.LANCHOR0+8
 345 0060 00000000 		.word	.LC0
 346              		.cfi_endproc
 347              	.LFE127:
 348              		.size	CapSense_GetParam, .-CapSense_GetParam
 349              		.section	.text.CapSense_SetParam,"ax",%progbits
 350              		.align	2
 351              		.global	CapSense_SetParam
ARM GAS  C:\Users\gjl\AppData\Local\Temp\ccprL3gI.s 			page 21


 352              		.thumb
 353              		.thumb_func
 354              		.type	CapSense_SetParam, %function
 355              	CapSense_SetParam:
 356              	.LFB128:
 763:Generated_Source\PSoC6/CapSense_Structure.c **** 
 764:Generated_Source\PSoC6/CapSense_Structure.c **** 
 765:Generated_Source\PSoC6/CapSense_Structure.c **** /*******************************************************************************
 766:Generated_Source\PSoC6/CapSense_Structure.c **** * Function Name: CapSense_SetParam
 767:Generated_Source\PSoC6/CapSense_Structure.c **** ****************************************************************************//**
 768:Generated_Source\PSoC6/CapSense_Structure.c **** *
 769:Generated_Source\PSoC6/CapSense_Structure.c **** * \brief
 770:Generated_Source\PSoC6/CapSense_Structure.c **** *  Sets a new value for the specified parameter in the \ref group_structures.
 771:Generated_Source\PSoC6/CapSense_Structure.c **** *
 772:Generated_Source\PSoC6/CapSense_Structure.c **** * \details
 773:Generated_Source\PSoC6/CapSense_Structure.c **** *  This function sets the value of the specified parameter by the paramId
 774:Generated_Source\PSoC6/CapSense_Structure.c **** *  argument. The paramId for each register is available in the
 775:Generated_Source\PSoC6/CapSense_Structure.c **** *  CapSense RegisterMap header file as
 776:Generated_Source\PSoC6/CapSense_Structure.c **** *  CapSense_<ParameterName>_PARAM_ID. The paramId is a special
 777:Generated_Source\PSoC6/CapSense_Structure.c **** *  enumerated value generated by the customizer. The format of paramId is as
 778:Generated_Source\PSoC6/CapSense_Structure.c **** *  follows:
 779:Generated_Source\PSoC6/CapSense_Structure.c **** *    1. [ byte 3 byte 2 byte 1 byte 0 ]
 780:Generated_Source\PSoC6/CapSense_Structure.c **** *    2. [ TTWFCCCC UIIIIIII MMMMMMMM LLLLLLLL ]
 781:Generated_Source\PSoC6/CapSense_Structure.c **** *    3. T - encodes the parameter type:
 782:Generated_Source\PSoC6/CapSense_Structure.c **** *      - 01b: uint8
 783:Generated_Source\PSoC6/CapSense_Structure.c **** *      - 10b: uint16
 784:Generated_Source\PSoC6/CapSense_Structure.c **** *      - 11b: uint32
 785:Generated_Source\PSoC6/CapSense_Structure.c **** *    4. W - indicates whether the parameter is writable:
 786:Generated_Source\PSoC6/CapSense_Structure.c **** *      - 0: ReadOnly
 787:Generated_Source\PSoC6/CapSense_Structure.c **** *      - 1: Read/Write
 788:Generated_Source\PSoC6/CapSense_Structure.c **** *    5. C - 4 bit CRC (X^3 + 1) of the whole paramId word, the C bits are
 789:Generated_Source\PSoC6/CapSense_Structure.c **** *       filled with 0s when the CRC is calculated.
 790:Generated_Source\PSoC6/CapSense_Structure.c **** *    6. U - indicates if the parameter affects the RAM Widget Object CRC.
 791:Generated_Source\PSoC6/CapSense_Structure.c **** *    7. I - specifies that the widgetId parameter belongs to
 792:Generated_Source\PSoC6/CapSense_Structure.c **** *    8. M,L - the parameter offset MSB and LSB accordingly in:
 793:Generated_Source\PSoC6/CapSense_Structure.c **** *      - Flash Data Structure if W bit is 0.
 794:Generated_Source\PSoC6/CapSense_Structure.c **** *      - RAM Data Structure if W bit is 1.
 795:Generated_Source\PSoC6/CapSense_Structure.c **** *
 796:Generated_Source\PSoC6/CapSense_Structure.c **** *  Refer to the \ref group_structures section for details of the data structure
 797:Generated_Source\PSoC6/CapSense_Structure.c **** *  organization and examples of its register access.
 798:Generated_Source\PSoC6/CapSense_Structure.c **** *
 799:Generated_Source\PSoC6/CapSense_Structure.c **** *  This function writes specified value into the desired register without
 800:Generated_Source\PSoC6/CapSense_Structure.c **** *  other registers update. It is application layer responsibility to keep all
 801:Generated_Source\PSoC6/CapSense_Structure.c **** *  the data structure registers aligned. Repeated call of
 802:Generated_Source\PSoC6/CapSense_Structure.c **** *  CapSense_Start() function helps aligning dependent register values.
 803:Generated_Source\PSoC6/CapSense_Structure.c **** *
 804:Generated_Source\PSoC6/CapSense_Structure.c **** * \param paramId
 805:Generated_Source\PSoC6/CapSense_Structure.c **** *  Specifies the ID of parameter to set its value.
 806:Generated_Source\PSoC6/CapSense_Structure.c **** *  A macro for the parameter ID can be found in the CapSense RegisterMap header
 807:Generated_Source\PSoC6/CapSense_Structure.c **** *  file defined as CapSense_<ParameterName>_PARAM_ID.
 808:Generated_Source\PSoC6/CapSense_Structure.c **** 
 809:Generated_Source\PSoC6/CapSense_Structure.c **** * \param value
 810:Generated_Source\PSoC6/CapSense_Structure.c **** *  Specifies the new parameter's value.
 811:Generated_Source\PSoC6/CapSense_Structure.c **** *
 812:Generated_Source\PSoC6/CapSense_Structure.c **** * \return
 813:Generated_Source\PSoC6/CapSense_Structure.c **** *  Returns the status of the operation:
 814:Generated_Source\PSoC6/CapSense_Structure.c **** *    - CY_RET_SUCCESS - The operation is successfully completed.
ARM GAS  C:\Users\gjl\AppData\Local\Temp\ccprL3gI.s 			page 22


 815:Generated_Source\PSoC6/CapSense_Structure.c **** *    - CY_RET_BAD_PARAM - The input parameter is invalid.
 816:Generated_Source\PSoC6/CapSense_Structure.c **** *
 817:Generated_Source\PSoC6/CapSense_Structure.c **** *******************************************************************************/
 818:Generated_Source\PSoC6/CapSense_Structure.c **** cy_status CapSense_SetParam(uint32 paramId, uint32 value)
 819:Generated_Source\PSoC6/CapSense_Structure.c **** {
 357              		.loc 1 819 0
 358              		.cfi_startproc
 359              		@ args = 0, pretend = 0, frame = 8
 360              		@ frame_needed = 0, uses_anonymous_args = 0
 361              	.LVL37:
 362 0000 30B5     		push	{r4, r5, lr}
 363              		.cfi_def_cfa_offset 12
 364              		.cfi_offset 4, -12
 365              		.cfi_offset 5, -8
 366              		.cfi_offset 14, -4
 367 0002 83B0     		sub	sp, sp, #12
 368              		.cfi_def_cfa_offset 24
 369 0004 0D46     		mov	r5, r1
 820:Generated_Source\PSoC6/CapSense_Structure.c ****     cy_status result;
 821:Generated_Source\PSoC6/CapSense_Structure.c ****     PARAM_ID_STRUCT pData;
 822:Generated_Source\PSoC6/CapSense_Structure.c **** 
 823:Generated_Source\PSoC6/CapSense_Structure.c ****     union
 824:Generated_Source\PSoC6/CapSense_Structure.c ****     {
 825:Generated_Source\PSoC6/CapSense_Structure.c ****         volatile void   * ptr;
 826:Generated_Source\PSoC6/CapSense_Structure.c ****         volatile uint8  * ptrUint8;
 827:Generated_Source\PSoC6/CapSense_Structure.c ****         volatile uint16 * ptrUint16;
 828:Generated_Source\PSoC6/CapSense_Structure.c ****         volatile uint32 * ptrUint32;
 829:Generated_Source\PSoC6/CapSense_Structure.c ****     } ptrData;
 830:Generated_Source\PSoC6/CapSense_Structure.c **** 
 831:Generated_Source\PSoC6/CapSense_Structure.c ****     result = DsParseParamId(paramId, &pData);
 370              		.loc 1 831 0
 371 0006 6946     		mov	r1, sp
 372              	.LVL38:
 373 0008 FFF7FEFF 		bl	DsParseParamId
 374              	.LVL39:
 832:Generated_Source\PSoC6/CapSense_Structure.c **** 
 833:Generated_Source\PSoC6/CapSense_Structure.c ****     /* verify if parameter is writable */
 834:Generated_Source\PSoC6/CapSense_Structure.c ****     if (CY_RET_SUCCESS == result)
 375              		.loc 1 834 0
 376 000c 0446     		mov	r4, r0
 377 000e 18B9     		cbnz	r0, .L36
 835:Generated_Source\PSoC6/CapSense_Structure.c ****     {
 836:Generated_Source\PSoC6/CapSense_Structure.c ****         if (0u == pData.rw)
 378              		.loc 1 836 0
 379 0010 9DF80630 		ldrb	r3, [sp, #6]	@ zero_extendqisi2
 380 0014 03B9     		cbnz	r3, .L36
 837:Generated_Source\PSoC6/CapSense_Structure.c ****         {
 838:Generated_Source\PSoC6/CapSense_Structure.c ****             result = CY_RET_BAD_PARAM;
 381              		.loc 1 838 0
 382 0016 0124     		movs	r4, #1
 383              	.L36:
 384              	.LVL40:
 839:Generated_Source\PSoC6/CapSense_Structure.c ****         }
 840:Generated_Source\PSoC6/CapSense_Structure.c ****     }
 841:Generated_Source\PSoC6/CapSense_Structure.c **** 
 842:Generated_Source\PSoC6/CapSense_Structure.c ****     /* Parse and validate paramId */
 843:Generated_Source\PSoC6/CapSense_Structure.c ****     if (CY_RET_SUCCESS == result)
ARM GAS  C:\Users\gjl\AppData\Local\Temp\ccprL3gI.s 			page 23


 385              		.loc 1 843 0
 386 0018 BCB9     		cbnz	r4, .L37
 844:Generated_Source\PSoC6/CapSense_Structure.c ****     {
 845:Generated_Source\PSoC6/CapSense_Structure.c ****         /* Get base address of parameter */
 846:Generated_Source\PSoC6/CapSense_Structure.c ****         ptrData.ptr = &CapSense_dsRam;
 847:Generated_Source\PSoC6/CapSense_Structure.c **** 
 848:Generated_Source\PSoC6/CapSense_Structure.c ****         /* Add offset to base address */
 849:Generated_Source\PSoC6/CapSense_Structure.c ****         ptrData.ptrUint8 += pData.offset;
 387              		.loc 1 849 0
 388 001a BDF80010 		ldrh	r1, [sp]
 389 001e 0C4A     		ldr	r2, .L43
 850:Generated_Source\PSoC6/CapSense_Structure.c **** 
 851:Generated_Source\PSoC6/CapSense_Structure.c ****         /* Write data */
 852:Generated_Source\PSoC6/CapSense_Structure.c ****         if (DS_PARAM_TYPE_UINT8 == pData.type)
 390              		.loc 1 852 0
 391 0020 9DF80730 		ldrb	r3, [sp, #7]	@ zero_extendqisi2
 392 0024 012B     		cmp	r3, #1
 393 0026 02D1     		bne	.L38
 853:Generated_Source\PSoC6/CapSense_Structure.c ****         {
 854:Generated_Source\PSoC6/CapSense_Structure.c ****             *ptrData.ptrUint8 = CY_LO8(value);
 394              		.loc 1 854 0
 395 0028 EDB2     		uxtb	r5, r5
 396              	.LVL41:
 397 002a 8D54     		strb	r5, [r1, r2]
 398 002c 0DE0     		b	.L37
 399              	.LVL42:
 400              	.L38:
 855:Generated_Source\PSoC6/CapSense_Structure.c ****         }
 856:Generated_Source\PSoC6/CapSense_Structure.c ****         else if (DS_PARAM_TYPE_UINT16 == pData.type)
 401              		.loc 1 856 0
 402 002e 022B     		cmp	r3, #2
 403 0030 02D1     		bne	.L39
 857:Generated_Source\PSoC6/CapSense_Structure.c ****         {
 858:Generated_Source\PSoC6/CapSense_Structure.c ****             *ptrData.ptrUint16 = CY_LO16(value);
 404              		.loc 1 858 0
 405 0032 ADB2     		uxth	r5, r5
 406              	.LVL43:
 407 0034 8D52     		strh	r5, [r1, r2]	@ movhi
 408 0036 08E0     		b	.L37
 409              	.LVL44:
 410              	.L39:
 859:Generated_Source\PSoC6/CapSense_Structure.c ****         }
 860:Generated_Source\PSoC6/CapSense_Structure.c ****         else if (DS_PARAM_TYPE_UINT32 == pData.type)
 411              		.loc 1 860 0
 412 0038 032B     		cmp	r3, #3
 413 003a 01D1     		bne	.L40
 861:Generated_Source\PSoC6/CapSense_Structure.c ****         {
 862:Generated_Source\PSoC6/CapSense_Structure.c ****             *ptrData.ptrUint32 = value;
 414              		.loc 1 862 0
 415 003c 8D50     		str	r5, [r1, r2]
 416 003e 04E0     		b	.L37
 417              	.L40:
 863:Generated_Source\PSoC6/CapSense_Structure.c ****         }
 864:Generated_Source\PSoC6/CapSense_Structure.c ****         else
 865:Generated_Source\PSoC6/CapSense_Structure.c ****         {
 866:Generated_Source\PSoC6/CapSense_Structure.c ****             /* Parameter comes here already validated. */
 867:Generated_Source\PSoC6/CapSense_Structure.c ****             CY_ASSERT(0 != 0);
ARM GAS  C:\Users\gjl\AppData\Local\Temp\ccprL3gI.s 			page 24


 418              		.loc 1 867 0 discriminator 1
 419 0040 40F26331 		movw	r1, #867
 420 0044 0348     		ldr	r0, .L43+4
 421 0046 FFF7FEFF 		bl	Cy_SysLib_AssertFailed
 422              	.LVL45:
 423              	.L37:
 868:Generated_Source\PSoC6/CapSense_Structure.c ****         }
 869:Generated_Source\PSoC6/CapSense_Structure.c **** 
 870:Generated_Source\PSoC6/CapSense_Structure.c ****         #if (CapSense_ENABLE == (CapSense_TST_WDGT_CRC_EN || CapSense_TST_GLOBAL_CRC_EN))
 871:Generated_Source\PSoC6/CapSense_Structure.c ****             /* Update widget or global CRC if self-test is enabled and parameter affects it */
 872:Generated_Source\PSoC6/CapSense_Structure.c ****             if (0u != pData.affectsCrc)
 873:Generated_Source\PSoC6/CapSense_Structure.c ****             {
 874:Generated_Source\PSoC6/CapSense_Structure.c ****                 if ((ptrData.ptrUint16 >= &CapSense_dsRam.csd0Config) &&
 875:Generated_Source\PSoC6/CapSense_Structure.c ****                     (ptrData.ptrUint16 <  &CapSense_dsRam.glbCrc))
 876:Generated_Source\PSoC6/CapSense_Structure.c ****                 {
 877:Generated_Source\PSoC6/CapSense_Structure.c **** 
 878:Generated_Source\PSoC6/CapSense_Structure.c ****                     #if (CapSense_ENABLE == CapSense_TST_GLOBAL_CRC_EN)
 879:Generated_Source\PSoC6/CapSense_Structure.c ****                         CapSense_DsUpdateGlobalCrc();
 880:Generated_Source\PSoC6/CapSense_Structure.c ****                     #endif /* (CapSense_ENABLE == CapSense_TST_GLOBAL_CRC_EN) */
 881:Generated_Source\PSoC6/CapSense_Structure.c **** 
 882:Generated_Source\PSoC6/CapSense_Structure.c ****                 }
 883:Generated_Source\PSoC6/CapSense_Structure.c ****                 else
 884:Generated_Source\PSoC6/CapSense_Structure.c ****                 {
 885:Generated_Source\PSoC6/CapSense_Structure.c ****                     #if (CapSense_ENABLE == CapSense_TST_WDGT_CRC_EN)
 886:Generated_Source\PSoC6/CapSense_Structure.c ****                         CapSense_DsUpdateWidgetCrc((uint32)pData.widgetId);
 887:Generated_Source\PSoC6/CapSense_Structure.c ****                     #endif /* (CapSense_ENABLE == CapSense_TST_WDGT_CRC_EN) */
 888:Generated_Source\PSoC6/CapSense_Structure.c ****                 }
 889:Generated_Source\PSoC6/CapSense_Structure.c ****             }
 890:Generated_Source\PSoC6/CapSense_Structure.c ****         #endif /* (CapSense_ENABLE == (CapSense_TST_WDGT_CRC_EN || CapSense_TST_GLOBAL_CRC_EN)) */
 891:Generated_Source\PSoC6/CapSense_Structure.c ****     }
 892:Generated_Source\PSoC6/CapSense_Structure.c **** 
 893:Generated_Source\PSoC6/CapSense_Structure.c ****     return result;
 894:Generated_Source\PSoC6/CapSense_Structure.c **** }
 424              		.loc 1 894 0
 425 004a 2046     		mov	r0, r4
 426 004c 03B0     		add	sp, sp, #12
 427              		.cfi_def_cfa_offset 12
 428              		@ sp needed
 429 004e 30BD     		pop	{r4, r5, pc}
 430              	.LVL46:
 431              	.L44:
 432              		.align	2
 433              	.L43:
 434 0050 00000000 		.word	CapSense_dsRam
 435 0054 00000000 		.word	.LC0
 436              		.cfi_endproc
 437              	.LFE128:
 438              		.size	CapSense_SetParam, .-CapSense_SetParam
 439              		.section	.text.CapSense_IsAnyWidgetActive,"ax",%progbits
 440              		.align	2
 441              		.global	CapSense_IsAnyWidgetActive
 442              		.thumb
 443              		.thumb_func
 444              		.type	CapSense_IsAnyWidgetActive, %function
 445              	CapSense_IsAnyWidgetActive:
 446              	.LFB129:
 895:Generated_Source\PSoC6/CapSense_Structure.c **** 
ARM GAS  C:\Users\gjl\AppData\Local\Temp\ccprL3gI.s 			page 25


 896:Generated_Source\PSoC6/CapSense_Structure.c **** /*******************************************************************************
 897:Generated_Source\PSoC6/CapSense_Structure.c **** * Function Name: CapSense_IsAnyWidgetActive
 898:Generated_Source\PSoC6/CapSense_Structure.c **** ****************************************************************************//**
 899:Generated_Source\PSoC6/CapSense_Structure.c **** *
 900:Generated_Source\PSoC6/CapSense_Structure.c **** * \brief
 901:Generated_Source\PSoC6/CapSense_Structure.c **** *  Reports if any widget has detected a touch.
 902:Generated_Source\PSoC6/CapSense_Structure.c **** *
 903:Generated_Source\PSoC6/CapSense_Structure.c **** * \details
 904:Generated_Source\PSoC6/CapSense_Structure.c **** *  This function reports if any widget has detected a touch or not by extracting
 905:Generated_Source\PSoC6/CapSense_Structure.c **** *  information from the wdgtStatus registers
 906:Generated_Source\PSoC6/CapSense_Structure.c **** *  (CapSense_WDGT_STATUS<X>_VALUE). This function does not process a
 907:Generated_Source\PSoC6/CapSense_Structure.c **** *  widget but extracts processed results from the \ref group_structures.
 908:Generated_Source\PSoC6/CapSense_Structure.c **** *
 909:Generated_Source\PSoC6/CapSense_Structure.c **** * \return
 910:Generated_Source\PSoC6/CapSense_Structure.c **** *   Returns the touch detection status of all the widgets:
 911:Generated_Source\PSoC6/CapSense_Structure.c **** *     - Zero - No touch is detected in all the widgets or sensors.
 912:Generated_Source\PSoC6/CapSense_Structure.c **** *     - Non-zero - At least one widget or sensor detected a touch.
 913:Generated_Source\PSoC6/CapSense_Structure.c **** *
 914:Generated_Source\PSoC6/CapSense_Structure.c **** *******************************************************************************/
 915:Generated_Source\PSoC6/CapSense_Structure.c **** uint32 CapSense_IsAnyWidgetActive(void)
 916:Generated_Source\PSoC6/CapSense_Structure.c **** {
 447              		.loc 1 916 0
 448              		.cfi_startproc
 449              		@ args = 0, pretend = 0, frame = 0
 450              		@ frame_needed = 0, uses_anonymous_args = 0
 451              		@ link register save eliminated.
 452              	.LVL47:
 917:Generated_Source\PSoC6/CapSense_Structure.c ****     uint32 result = 0Lu;
 918:Generated_Source\PSoC6/CapSense_Structure.c ****     uint32 wdWord;
 919:Generated_Source\PSoC6/CapSense_Structure.c **** 
 920:Generated_Source\PSoC6/CapSense_Structure.c ****     for (wdWord = CapSense_WDGT_STATUS_WORDS; wdWord-- > 0u;)
 453              		.loc 1 920 0
 454 0000 0123     		movs	r3, #1
 917:Generated_Source\PSoC6/CapSense_Structure.c ****     uint32 result = 0Lu;
 455              		.loc 1 917 0
 456 0002 0020     		movs	r0, #0
 457              		.loc 1 920 0
 458 0004 06E0     		b	.L46
 459              	.LVL48:
 460              	.L47:
 921:Generated_Source\PSoC6/CapSense_Structure.c ****     {
 922:Generated_Source\PSoC6/CapSense_Structure.c ****         result |= CapSense_dsRam.wdgtStatus[wdWord];
 461              		.loc 1 922 0
 462 0006 111D     		adds	r1, r2, #4
 463 0008 044B     		ldr	r3, .L48
 464 000a 03EB8103 		add	r3, r3, r1, lsl #2
 465 000e 5B68     		ldr	r3, [r3, #4]
 466 0010 1843     		orrs	r0, r0, r3
 467              	.LVL49:
 920:Generated_Source\PSoC6/CapSense_Structure.c ****     {
 468              		.loc 1 920 0
 469 0012 1346     		mov	r3, r2
 470              	.LVL50:
 471              	.L46:
 920:Generated_Source\PSoC6/CapSense_Structure.c ****     {
 472              		.loc 1 920 0 is_stmt 0 discriminator 1
 473 0014 5A1E     		subs	r2, r3, #1
ARM GAS  C:\Users\gjl\AppData\Local\Temp\ccprL3gI.s 			page 26


 474              	.LVL51:
 475 0016 002B     		cmp	r3, #0
 476 0018 F5D1     		bne	.L47
 923:Generated_Source\PSoC6/CapSense_Structure.c ****     }
 924:Generated_Source\PSoC6/CapSense_Structure.c **** 
 925:Generated_Source\PSoC6/CapSense_Structure.c ****     return result;
 926:Generated_Source\PSoC6/CapSense_Structure.c **** }
 477              		.loc 1 926 0 is_stmt 1
 478 001a 7047     		bx	lr
 479              	.L49:
 480              		.align	2
 481              	.L48:
 482 001c 00000000 		.word	CapSense_dsRam
 483              		.cfi_endproc
 484              	.LFE129:
 485              		.size	CapSense_IsAnyWidgetActive, .-CapSense_IsAnyWidgetActive
 486              		.section	.text.CapSense_IsWidgetActive,"ax",%progbits
 487              		.align	2
 488              		.global	CapSense_IsWidgetActive
 489              		.thumb
 490              		.thumb_func
 491              		.type	CapSense_IsWidgetActive, %function
 492              	CapSense_IsWidgetActive:
 493              	.LFB130:
 927:Generated_Source\PSoC6/CapSense_Structure.c **** 
 928:Generated_Source\PSoC6/CapSense_Structure.c **** 
 929:Generated_Source\PSoC6/CapSense_Structure.c **** /*******************************************************************************
 930:Generated_Source\PSoC6/CapSense_Structure.c **** * Function Name: CapSense_IsWidgetActive
 931:Generated_Source\PSoC6/CapSense_Structure.c **** ****************************************************************************//**
 932:Generated_Source\PSoC6/CapSense_Structure.c **** *
 933:Generated_Source\PSoC6/CapSense_Structure.c **** * \brief
 934:Generated_Source\PSoC6/CapSense_Structure.c **** *  Reports if the specified widget detects a touch on any of its sensors.
 935:Generated_Source\PSoC6/CapSense_Structure.c **** *
 936:Generated_Source\PSoC6/CapSense_Structure.c **** * \details
 937:Generated_Source\PSoC6/CapSense_Structure.c **** *  This function reports if the specified widget has detected a touch or not by
 938:Generated_Source\PSoC6/CapSense_Structure.c **** *  extracting information from the wdgtStatus registers
 939:Generated_Source\PSoC6/CapSense_Structure.c **** *  (CapSense_WDGT_STATUS<X>_VALUE). This function does not process the
 940:Generated_Source\PSoC6/CapSense_Structure.c **** *  widget but extracts processed results from the \ref group_structures.
 941:Generated_Source\PSoC6/CapSense_Structure.c **** *
 942:Generated_Source\PSoC6/CapSense_Structure.c **** * \param widgetId
 943:Generated_Source\PSoC6/CapSense_Structure.c **** *  Specifies the ID number of the widget to get its status.
 944:Generated_Source\PSoC6/CapSense_Structure.c **** *  A macro for the widget ID can be found in the CapSense Configuration header
 945:Generated_Source\PSoC6/CapSense_Structure.c **** *  file defined as CapSense_<WidgetName>_WDGT_ID.
 946:Generated_Source\PSoC6/CapSense_Structure.c **** *
 947:Generated_Source\PSoC6/CapSense_Structure.c **** * \return
 948:Generated_Source\PSoC6/CapSense_Structure.c **** *  Returns the touch detection status of the specified widgets:
 949:Generated_Source\PSoC6/CapSense_Structure.c **** *    - Zero - No touch is detected in the specified widget or a wrong widgetId
 950:Generated_Source\PSoC6/CapSense_Structure.c **** *      is specified.
 951:Generated_Source\PSoC6/CapSense_Structure.c **** *    - Non-zero if at least one sensor of the specified widget is active, i.e.
 952:Generated_Source\PSoC6/CapSense_Structure.c **** *      a touch is detected.
 953:Generated_Source\PSoC6/CapSense_Structure.c **** *
 954:Generated_Source\PSoC6/CapSense_Structure.c **** *******************************************************************************/
 955:Generated_Source\PSoC6/CapSense_Structure.c **** uint32 CapSense_IsWidgetActive(uint32 widgetId)
 956:Generated_Source\PSoC6/CapSense_Structure.c **** {
 494              		.loc 1 956 0
 495              		.cfi_startproc
 496              		@ args = 0, pretend = 0, frame = 0
ARM GAS  C:\Users\gjl\AppData\Local\Temp\ccprL3gI.s 			page 27


 497              		@ frame_needed = 0, uses_anonymous_args = 0
 498              		@ link register save eliminated.
 499              	.LVL52:
 957:Generated_Source\PSoC6/CapSense_Structure.c ****     uint32 result = 0Lu;
 958:Generated_Source\PSoC6/CapSense_Structure.c **** 
 959:Generated_Source\PSoC6/CapSense_Structure.c ****     if (widgetId < CapSense_TOTAL_WIDGETS)
 500              		.loc 1 959 0
 501 0000 0228     		cmp	r0, #2
 502 0002 0DD8     		bhi	.L52
 960:Generated_Source\PSoC6/CapSense_Structure.c ****     {
 961:Generated_Source\PSoC6/CapSense_Structure.c ****         result = CapSense_GET_WIDGET_ACTIVE_STATUS(widgetId);
 503              		.loc 1 961 0
 504 0004 00F01F02 		and	r2, r0, #31
 505 0008 0123     		movs	r3, #1
 506 000a 03FA02F2 		lsl	r2, r3, r2
 507 000e 4009     		lsrs	r0, r0, #5
 508              	.LVL53:
 509 0010 031D     		adds	r3, r0, #4
 510 0012 0448     		ldr	r0, .L53
 511 0014 00EB8303 		add	r3, r0, r3, lsl #2
 512 0018 5B68     		ldr	r3, [r3, #4]
 513 001a 02EA0300 		and	r0, r2, r3
 514              	.LVL54:
 515 001e 7047     		bx	lr
 516              	.LVL55:
 517              	.L52:
 957:Generated_Source\PSoC6/CapSense_Structure.c ****     uint32 result = 0Lu;
 518              		.loc 1 957 0
 519 0020 0020     		movs	r0, #0
 520              	.LVL56:
 962:Generated_Source\PSoC6/CapSense_Structure.c ****     }
 963:Generated_Source\PSoC6/CapSense_Structure.c ****     return result;
 964:Generated_Source\PSoC6/CapSense_Structure.c **** }
 521              		.loc 1 964 0
 522 0022 7047     		bx	lr
 523              	.L54:
 524              		.align	2
 525              	.L53:
 526 0024 00000000 		.word	CapSense_dsRam
 527              		.cfi_endproc
 528              	.LFE130:
 529              		.size	CapSense_IsWidgetActive, .-CapSense_IsWidgetActive
 530              		.section	.text.CapSense_IsSensorActive,"ax",%progbits
 531              		.align	2
 532              		.global	CapSense_IsSensorActive
 533              		.thumb
 534              		.thumb_func
 535              		.type	CapSense_IsSensorActive, %function
 536              	CapSense_IsSensorActive:
 537              	.LFB131:
 965:Generated_Source\PSoC6/CapSense_Structure.c **** 
 966:Generated_Source\PSoC6/CapSense_Structure.c **** 
 967:Generated_Source\PSoC6/CapSense_Structure.c **** /*******************************************************************************
 968:Generated_Source\PSoC6/CapSense_Structure.c **** * Function Name: CapSense_IsSensorActive
 969:Generated_Source\PSoC6/CapSense_Structure.c **** ****************************************************************************//**
 970:Generated_Source\PSoC6/CapSense_Structure.c **** *
 971:Generated_Source\PSoC6/CapSense_Structure.c **** * \brief
ARM GAS  C:\Users\gjl\AppData\Local\Temp\ccprL3gI.s 			page 28


 972:Generated_Source\PSoC6/CapSense_Structure.c **** *  Reports if the specified sensor in the widget detects a touch.
 973:Generated_Source\PSoC6/CapSense_Structure.c **** *
 974:Generated_Source\PSoC6/CapSense_Structure.c **** * \details
 975:Generated_Source\PSoC6/CapSense_Structure.c **** *  This function reports if the specified sensor in the widget has detected a
 976:Generated_Source\PSoC6/CapSense_Structure.c **** *  touch or not by extracting information from the wdgtStatus registers
 977:Generated_Source\PSoC6/CapSense_Structure.c **** *  (CapSense_WDGT_STATUS<X>_VALUE). This function does not process the
 978:Generated_Source\PSoC6/CapSense_Structure.c **** *  widget or sensor but extracts processed results from the \ref group_structures.
 979:Generated_Source\PSoC6/CapSense_Structure.c **** *
 980:Generated_Source\PSoC6/CapSense_Structure.c **** *  For proximity sensors, this function returns the proximity detection status. To
 981:Generated_Source\PSoC6/CapSense_Structure.c **** *  get the finger touch status of proximity sensors, use the
 982:Generated_Source\PSoC6/CapSense_Structure.c **** *  CapSense_IsProximitySensorActive() function.
 983:Generated_Source\PSoC6/CapSense_Structure.c **** *
 984:Generated_Source\PSoC6/CapSense_Structure.c **** * \param widgetId
 985:Generated_Source\PSoC6/CapSense_Structure.c **** *  Specifies the ID number of the widget.
 986:Generated_Source\PSoC6/CapSense_Structure.c **** *  A macro for the widget ID can be found in the CapSense Configuration header
 987:Generated_Source\PSoC6/CapSense_Structure.c **** *  file defined as CapSense_<WidgetName>_WDGT_ID.
 988:Generated_Source\PSoC6/CapSense_Structure.c **** 
 989:Generated_Source\PSoC6/CapSense_Structure.c **** * \param sensorId
 990:Generated_Source\PSoC6/CapSense_Structure.c **** *  Specifies the ID number of the sensor within the widget to get its touch
 991:Generated_Source\PSoC6/CapSense_Structure.c **** *  detection status.
 992:Generated_Source\PSoC6/CapSense_Structure.c **** *  A macro for the sensor ID within the specified widget can be found in the
 993:Generated_Source\PSoC6/CapSense_Structure.c **** *  CapSense Configuration header file defined as
 994:Generated_Source\PSoC6/CapSense_Structure.c **** *  CapSense_<WidgetName>_SNS<SensorNumber>_ID.
 995:Generated_Source\PSoC6/CapSense_Structure.c **** *
 996:Generated_Source\PSoC6/CapSense_Structure.c **** * \return
 997:Generated_Source\PSoC6/CapSense_Structure.c **** *  Returns the touch detection status of the specified sensor / widget:
 998:Generated_Source\PSoC6/CapSense_Structure.c **** *    - Zero if no touch is detected in the specified sensor / widget or a wrong
 999:Generated_Source\PSoC6/CapSense_Structure.c **** *      widget ID / sensor ID is specified.
1000:Generated_Source\PSoC6/CapSense_Structure.c **** *    - Non-zero if the specified sensor is active i.e. touch is detected. If the
1001:Generated_Source\PSoC6/CapSense_Structure.c **** *      specific sensor belongs to a proximity widget, the proximity detection
1002:Generated_Source\PSoC6/CapSense_Structure.c **** *      status is returned.
1003:Generated_Source\PSoC6/CapSense_Structure.c **** *
1004:Generated_Source\PSoC6/CapSense_Structure.c **** *******************************************************************************/
1005:Generated_Source\PSoC6/CapSense_Structure.c **** uint32 CapSense_IsSensorActive(uint32 widgetId, uint32 sensorId)
1006:Generated_Source\PSoC6/CapSense_Structure.c **** {
 538              		.loc 1 1006 0
 539              		.cfi_startproc
 540              		@ args = 0, pretend = 0, frame = 0
 541              		@ frame_needed = 0, uses_anonymous_args = 0
 542              		@ link register save eliminated.
 543              	.LVL57:
1007:Generated_Source\PSoC6/CapSense_Structure.c ****     uint32 result = 0Lu;
1008:Generated_Source\PSoC6/CapSense_Structure.c **** 
1009:Generated_Source\PSoC6/CapSense_Structure.c ****     if ((widgetId < CapSense_TOTAL_WIDGETS) &&
 544              		.loc 1 1009 0
 545 0000 0228     		cmp	r0, #2
 546 0002 0ED8     		bhi	.L57
1010:Generated_Source\PSoC6/CapSense_Structure.c ****         (sensorId < CapSense_GET_SENSOR_COUNT(widgetId)))
 547              		.loc 1 1010 0 discriminator 1
 548 0004 2C23     		movs	r3, #44
 549 0006 094A     		ldr	r2, .L59
 550 0008 03FB0023 		mla	r3, r3, r0, r2
 551 000c 1B8C     		ldrh	r3, [r3, #32]
1009:Generated_Source\PSoC6/CapSense_Structure.c ****         (sensorId < CapSense_GET_SENSOR_COUNT(widgetId)))
 552              		.loc 1 1009 0 discriminator 1
 553 000e 8B42     		cmp	r3, r1
 554 0010 09D9     		bls	.L58
ARM GAS  C:\Users\gjl\AppData\Local\Temp\ccprL3gI.s 			page 29


1011:Generated_Source\PSoC6/CapSense_Structure.c ****     {
1012:Generated_Source\PSoC6/CapSense_Structure.c ****         #if (CapSense_ENABLE == CapSense_PROXIMITY_WIDGET_EN)
1013:Generated_Source\PSoC6/CapSense_Structure.c ****             if (CapSense_WD_PROXIMITY_E ==
1014:Generated_Source\PSoC6/CapSense_Structure.c ****                 (CapSense_WD_TYPE_ENUM)CapSense_dsFlash.wdgtArray[widgetId].wdgtType)
1015:Generated_Source\PSoC6/CapSense_Structure.c ****             {
1016:Generated_Source\PSoC6/CapSense_Structure.c ****                 sensorId = CapSense_PROX_STS_OFFSET(sensorId);
1017:Generated_Source\PSoC6/CapSense_Structure.c ****             }
1018:Generated_Source\PSoC6/CapSense_Structure.c ****         #endif /* (CapSense_ENABLE != CapSense_PROXIMITY_WIDGET_EN) */
1019:Generated_Source\PSoC6/CapSense_Structure.c ****         result = CapSense_dsRam.snsStatus[widgetId] & (1Lu << sensorId);
 555              		.loc 1 1019 0
 556 0012 074B     		ldr	r3, .L59+4
 557 0014 1844     		add	r0, r0, r3
 558              	.LVL58:
 559 0016 007E     		ldrb	r0, [r0, #24]	@ zero_extendqisi2
 560              	.LVL59:
 561 0018 0123     		movs	r3, #1
 562 001a 03FA01F1 		lsl	r1, r3, r1
 563              	.LVL60:
 564 001e 0840     		ands	r0, r0, r1
 565              	.LVL61:
 566 0020 7047     		bx	lr
 567              	.LVL62:
 568              	.L57:
1007:Generated_Source\PSoC6/CapSense_Structure.c **** 
 569              		.loc 1 1007 0
 570 0022 0020     		movs	r0, #0
 571              	.LVL63:
 572 0024 7047     		bx	lr
 573              	.LVL64:
 574              	.L58:
 575 0026 0020     		movs	r0, #0
 576              	.LVL65:
1020:Generated_Source\PSoC6/CapSense_Structure.c ****     }
1021:Generated_Source\PSoC6/CapSense_Structure.c **** 
1022:Generated_Source\PSoC6/CapSense_Structure.c ****     return result;
1023:Generated_Source\PSoC6/CapSense_Structure.c **** }
 577              		.loc 1 1023 0
 578 0028 7047     		bx	lr
 579              	.L60:
 580 002a 00BF     		.align	2
 581              	.L59:
 582 002c 00000000 		.word	.LANCHOR0
 583 0030 00000000 		.word	CapSense_dsRam
 584              		.cfi_endproc
 585              	.LFE131:
 586              		.size	CapSense_IsSensorActive, .-CapSense_IsSensorActive
 587              		.section	.text.CapSense_GetCentroidPos,"ax",%progbits
 588              		.align	2
 589              		.global	CapSense_GetCentroidPos
 590              		.thumb
 591              		.thumb_func
 592              		.type	CapSense_GetCentroidPos, %function
 593              	CapSense_GetCentroidPos:
 594              	.LFB132:
1024:Generated_Source\PSoC6/CapSense_Structure.c **** 
1025:Generated_Source\PSoC6/CapSense_Structure.c **** #if (0u != CapSense_MATRIX_WIDGET_EN)
1026:Generated_Source\PSoC6/CapSense_Structure.c **** /*******************************************************************************
ARM GAS  C:\Users\gjl\AppData\Local\Temp\ccprL3gI.s 			page 30


1027:Generated_Source\PSoC6/CapSense_Structure.c **** * Function Name: CapSense_IsMatrixButtonsActive
1028:Generated_Source\PSoC6/CapSense_Structure.c **** ****************************************************************************//**
1029:Generated_Source\PSoC6/CapSense_Structure.c **** *
1030:Generated_Source\PSoC6/CapSense_Structure.c **** * \brief
1031:Generated_Source\PSoC6/CapSense_Structure.c **** *  Reports the status of the specified matrix button widget.
1032:Generated_Source\PSoC6/CapSense_Structure.c **** *
1033:Generated_Source\PSoC6/CapSense_Structure.c **** * \details
1034:Generated_Source\PSoC6/CapSense_Structure.c **** *  This function reports if the specified matrix widget has detected a touch or
1035:Generated_Source\PSoC6/CapSense_Structure.c **** *  not by extracting information from the wdgtStatus registers
1036:Generated_Source\PSoC6/CapSense_Structure.c **** *  (CapSense_WDGT_STATUS<X>_VALUE for the CSD widgets and
1037:Generated_Source\PSoC6/CapSense_Structure.c **** *  CapSense_SNS_STATUS<WidgetId>_VALUE for CSX widget). In addition, the
1038:Generated_Source\PSoC6/CapSense_Structure.c **** *  function provides details of the active sensor including active rows/columns
1039:Generated_Source\PSoC6/CapSense_Structure.c **** *  for the CSD widgets. This function is used only with the matrix button
1040:Generated_Source\PSoC6/CapSense_Structure.c **** *  widgets. This function does not process the widget but extracts
1041:Generated_Source\PSoC6/CapSense_Structure.c **** *  processed results from the \ref group_structures.
1042:Generated_Source\PSoC6/CapSense_Structure.c **** *
1043:Generated_Source\PSoC6/CapSense_Structure.c **** * \param widgetId
1044:Generated_Source\PSoC6/CapSense_Structure.c **** *  Specifies the ID number of the matrix button widget to check the status of its
1045:Generated_Source\PSoC6/CapSense_Structure.c **** *  sensors.
1046:Generated_Source\PSoC6/CapSense_Structure.c **** *  A macro for the widget ID can be found in the CapSense Configuration header file
1047:Generated_Source\PSoC6/CapSense_Structure.c **** *  defined as CapSense_<WidgetName>_WDGT_ID
1048:Generated_Source\PSoC6/CapSense_Structure.c **** *
1049:Generated_Source\PSoC6/CapSense_Structure.c **** * \return
1050:Generated_Source\PSoC6/CapSense_Structure.c **** *  Returns the touch detection status of the sensors in the specified matrix
1051:Generated_Source\PSoC6/CapSense_Structure.c **** *  buttons widget. Zero indicates that no touch is detected in the specified
1052:Generated_Source\PSoC6/CapSense_Structure.c **** *  widget or a wrong widgetId is specified.
1053:Generated_Source\PSoC6/CapSense_Structure.c **** *    1. For the matrix buttons widgets with the CSD sensing mode:
1054:Generated_Source\PSoC6/CapSense_Structure.c **** *      - Bit [31] if set, indicates that one or more sensors in the widget
1055:Generated_Source\PSoC6/CapSense_Structure.c **** *        detected a touch.
1056:Generated_Source\PSoC6/CapSense_Structure.c **** *      - Bits [30..24] are reserved
1057:Generated_Source\PSoC6/CapSense_Structure.c **** *      - Bits [23..16] indicate the logical sensor number of the sensor that
1058:Generated_Source\PSoC6/CapSense_Structure.c **** *        detected a touch. If more than one sensor detected a touch for the CSD
1059:Generated_Source\PSoC6/CapSense_Structure.c **** *        widget, no status is reported because more than one touch is invalid for the
1060:Generated_Source\PSoC6/CapSense_Structure.c **** *        CSD matrix buttons widgets.
1061:Generated_Source\PSoC6/CapSense_Structure.c **** *      - Bits [15..8] indicate the active row number.
1062:Generated_Source\PSoC6/CapSense_Structure.c **** *      - Bits [7..0] indicate the active column number.
1063:Generated_Source\PSoC6/CapSense_Structure.c **** *    2. For the matrix buttons widgets with the CSX widgets, each bit (31..0)
1064:Generated_Source\PSoC6/CapSense_Structure.c **** *      corresponds to the TX/RX intersection.
1065:Generated_Source\PSoC6/CapSense_Structure.c **** *
1066:Generated_Source\PSoC6/CapSense_Structure.c **** *******************************************************************************/
1067:Generated_Source\PSoC6/CapSense_Structure.c **** uint32 CapSense_IsMatrixButtonsActive(uint32 widgetId)
1068:Generated_Source\PSoC6/CapSense_Structure.c **** {
1069:Generated_Source\PSoC6/CapSense_Structure.c ****     uint32 result = 0Lu;
1070:Generated_Source\PSoC6/CapSense_Structure.c ****     cy_status state = CY_RET_SUCCESS;
1071:Generated_Source\PSoC6/CapSense_Structure.c ****     CapSense_FLASH_WD_STRUCT const *ptrFlashWdgt = 0u;
1072:Generated_Source\PSoC6/CapSense_Structure.c **** 
1073:Generated_Source\PSoC6/CapSense_Structure.c ****     #if (0u != CapSense_CSD_MATRIX_WIDGET_EN)
1074:Generated_Source\PSoC6/CapSense_Structure.c ****         CapSense_RAM_WD_CSD_MATRIX_STRUCT *wdCsdMatrix;
1075:Generated_Source\PSoC6/CapSense_Structure.c ****     #endif
1076:Generated_Source\PSoC6/CapSense_Structure.c **** 
1077:Generated_Source\PSoC6/CapSense_Structure.c ****     if (widgetId >= CapSense_TOTAL_WIDGETS)
1078:Generated_Source\PSoC6/CapSense_Structure.c ****     {
1079:Generated_Source\PSoC6/CapSense_Structure.c ****         state = CY_RET_BAD_PARAM;
1080:Generated_Source\PSoC6/CapSense_Structure.c ****     }
1081:Generated_Source\PSoC6/CapSense_Structure.c ****     else
1082:Generated_Source\PSoC6/CapSense_Structure.c ****     {
1083:Generated_Source\PSoC6/CapSense_Structure.c ****         ptrFlashWdgt = &CapSense_dsFlash.wdgtArray[widgetId];
ARM GAS  C:\Users\gjl\AppData\Local\Temp\ccprL3gI.s 			page 31


1084:Generated_Source\PSoC6/CapSense_Structure.c **** 
1085:Generated_Source\PSoC6/CapSense_Structure.c ****         if ((CapSense_WD_TYPE_ENUM)ptrFlashWdgt->wdgtType != CapSense_WD_MATRIX_BUTTON_E)
1086:Generated_Source\PSoC6/CapSense_Structure.c ****         {
1087:Generated_Source\PSoC6/CapSense_Structure.c ****             state = CY_RET_BAD_PARAM;
1088:Generated_Source\PSoC6/CapSense_Structure.c ****         }
1089:Generated_Source\PSoC6/CapSense_Structure.c ****         else if (0u == CapSense_GET_WIDGET_ACTIVE_STATUS(widgetId))
1090:Generated_Source\PSoC6/CapSense_Structure.c ****         {
1091:Generated_Source\PSoC6/CapSense_Structure.c ****             state = CY_RET_BAD_PARAM;
1092:Generated_Source\PSoC6/CapSense_Structure.c ****         }
1093:Generated_Source\PSoC6/CapSense_Structure.c ****         else
1094:Generated_Source\PSoC6/CapSense_Structure.c ****         {
1095:Generated_Source\PSoC6/CapSense_Structure.c ****             /* input parameters are OK */
1096:Generated_Source\PSoC6/CapSense_Structure.c ****         }
1097:Generated_Source\PSoC6/CapSense_Structure.c ****     }
1098:Generated_Source\PSoC6/CapSense_Structure.c **** 
1099:Generated_Source\PSoC6/CapSense_Structure.c ****     if (CY_RET_SUCCESS == state)
1100:Generated_Source\PSoC6/CapSense_Structure.c ****     {
1101:Generated_Source\PSoC6/CapSense_Structure.c ****         switch(CapSense_GET_SENSE_METHOD(ptrFlashWdgt))
1102:Generated_Source\PSoC6/CapSense_Structure.c ****         {
1103:Generated_Source\PSoC6/CapSense_Structure.c ****         #if (0u != CapSense_CSD_MATRIX_WIDGET_EN)
1104:Generated_Source\PSoC6/CapSense_Structure.c ****             case CapSense_SENSE_METHOD_CSD_E:
1105:Generated_Source\PSoC6/CapSense_Structure.c ****                 wdCsdMatrix = ptrFlashWdgt->ptr2WdgtRam;
1106:Generated_Source\PSoC6/CapSense_Structure.c **** 
1107:Generated_Source\PSoC6/CapSense_Structure.c ****                 result = CapSense_MATRIX_BUTTONS_TOUCHED |
1108:Generated_Source\PSoC6/CapSense_Structure.c ****                          ((uint32)wdCsdMatrix->posSnsId << 16u)  |
1109:Generated_Source\PSoC6/CapSense_Structure.c ****                          ((uint32)wdCsdMatrix->posRow   << 8u)   |
1110:Generated_Source\PSoC6/CapSense_Structure.c ****                          (uint32)wdCsdMatrix->posCol;
1111:Generated_Source\PSoC6/CapSense_Structure.c ****                 break;
1112:Generated_Source\PSoC6/CapSense_Structure.c ****         #endif /* #if (0u != CapSense_CSD_MATRIX_WIDGET_EN) */
1113:Generated_Source\PSoC6/CapSense_Structure.c **** 
1114:Generated_Source\PSoC6/CapSense_Structure.c ****         #if (0u != CapSense_CSX_MATRIX_WIDGET_EN)
1115:Generated_Source\PSoC6/CapSense_Structure.c ****             case CapSense_SENSE_METHOD_CSX_E:
1116:Generated_Source\PSoC6/CapSense_Structure.c ****                 result = CapSense_dsRam.snsStatus[widgetId];
1117:Generated_Source\PSoC6/CapSense_Structure.c ****                 break;
1118:Generated_Source\PSoC6/CapSense_Structure.c ****         #endif /* #if (0u != CapSense_CSX_MATRIX_WIDGET_EN) */
1119:Generated_Source\PSoC6/CapSense_Structure.c **** 
1120:Generated_Source\PSoC6/CapSense_Structure.c ****         default:
1121:Generated_Source\PSoC6/CapSense_Structure.c ****             CY_ASSERT(0 != 0);
1122:Generated_Source\PSoC6/CapSense_Structure.c ****             break;
1123:Generated_Source\PSoC6/CapSense_Structure.c ****         }
1124:Generated_Source\PSoC6/CapSense_Structure.c ****     }
1125:Generated_Source\PSoC6/CapSense_Structure.c **** 
1126:Generated_Source\PSoC6/CapSense_Structure.c ****     return result;
1127:Generated_Source\PSoC6/CapSense_Structure.c **** }
1128:Generated_Source\PSoC6/CapSense_Structure.c **** #endif /* #if (0u != CapSense_MATRIX_WIDGET_EN) */
1129:Generated_Source\PSoC6/CapSense_Structure.c **** 
1130:Generated_Source\PSoC6/CapSense_Structure.c **** #if (0u != CapSense_PROXIMITY_WIDGET_EN)
1131:Generated_Source\PSoC6/CapSense_Structure.c **** /*******************************************************************************
1132:Generated_Source\PSoC6/CapSense_Structure.c **** * Function Name: CapSense_IsProximitySensorActive
1133:Generated_Source\PSoC6/CapSense_Structure.c **** ****************************************************************************//**
1134:Generated_Source\PSoC6/CapSense_Structure.c **** *
1135:Generated_Source\PSoC6/CapSense_Structure.c **** * \brief
1136:Generated_Source\PSoC6/CapSense_Structure.c **** *  Reports the finger detection status of the specified proximity widget/sensor.
1137:Generated_Source\PSoC6/CapSense_Structure.c **** *
1138:Generated_Source\PSoC6/CapSense_Structure.c **** * \details
1139:Generated_Source\PSoC6/CapSense_Structure.c **** *  This function reports if the specified proximity sensor has detected a touch
1140:Generated_Source\PSoC6/CapSense_Structure.c **** *  or not by extracting information from the wdgtStatus registers
ARM GAS  C:\Users\gjl\AppData\Local\Temp\ccprL3gI.s 			page 32


1141:Generated_Source\PSoC6/CapSense_Structure.c **** *  (CapSense_SNS_STATUS<WidgetId>_VALUE). This function is used
1142:Generated_Source\PSoC6/CapSense_Structure.c **** *  only with proximity sensor widgets. This function does not process the
1143:Generated_Source\PSoC6/CapSense_Structure.c **** *  widget but extracts processed results from the \ref group_structures.
1144:Generated_Source\PSoC6/CapSense_Structure.c **** *
1145:Generated_Source\PSoC6/CapSense_Structure.c **** * \param widgetId
1146:Generated_Source\PSoC6/CapSense_Structure.c **** *  Specifies the ID number of the proximity widget.
1147:Generated_Source\PSoC6/CapSense_Structure.c **** *  A macro for the widget ID can be found in the CapSense Configuration header
1148:Generated_Source\PSoC6/CapSense_Structure.c **** *  file defined as CapSense_<WidgetName>_WDGT_ID
1149:Generated_Source\PSoC6/CapSense_Structure.c **** *
1150:Generated_Source\PSoC6/CapSense_Structure.c **** * \param proxId
1151:Generated_Source\PSoC6/CapSense_Structure.c **** *  Specifies the ID number of the proximity sensor within the proximity widget to
1152:Generated_Source\PSoC6/CapSense_Structure.c **** *  get its touch detection status.
1153:Generated_Source\PSoC6/CapSense_Structure.c **** *  A macro for the proximity ID within a specified widget can be found in the
1154:Generated_Source\PSoC6/CapSense_Structure.c **** *  CapSense Configuration header file defined as
1155:Generated_Source\PSoC6/CapSense_Structure.c **** *  CapSense_<WidgetName>_SNS<SensorNumber>_ID
1156:Generated_Source\PSoC6/CapSense_Structure.c **** *
1157:Generated_Source\PSoC6/CapSense_Structure.c **** * \return
1158:Generated_Source\PSoC6/CapSense_Structure.c **** *  Returns the status of the specified sensor of the proximity widget. Zero
1159:Generated_Source\PSoC6/CapSense_Structure.c **** *  indicates that no touch is detected in the specified sensor / widget or a
1160:Generated_Source\PSoC6/CapSense_Structure.c **** *  wrong widgetId / proxId is specified.
1161:Generated_Source\PSoC6/CapSense_Structure.c **** *    - Bits [31..2] are reserved.
1162:Generated_Source\PSoC6/CapSense_Structure.c **** *    - Bit [1] indicates that a touch is detected.
1163:Generated_Source\PSoC6/CapSense_Structure.c **** *    - Bit [0] indicates that a proximity is detected.
1164:Generated_Source\PSoC6/CapSense_Structure.c **** *
1165:Generated_Source\PSoC6/CapSense_Structure.c **** *******************************************************************************/
1166:Generated_Source\PSoC6/CapSense_Structure.c **** uint32 CapSense_IsProximitySensorActive(uint32 widgetId, uint32 proxId)
1167:Generated_Source\PSoC6/CapSense_Structure.c **** {
1168:Generated_Source\PSoC6/CapSense_Structure.c ****     uint32 result = 0Lu;
1169:Generated_Source\PSoC6/CapSense_Structure.c **** 
1170:Generated_Source\PSoC6/CapSense_Structure.c ****     if ((widgetId < CapSense_TOTAL_WIDGETS) && (proxId < CapSense_GET_SENSOR_COUNT(widgetId)) &&
1171:Generated_Source\PSoC6/CapSense_Structure.c ****         (CapSense_WD_PROXIMITY_E ==
1172:Generated_Source\PSoC6/CapSense_Structure.c ****             (CapSense_WD_TYPE_ENUM)CapSense_dsFlash.wdgtArray[widgetId].wdgtType))
1173:Generated_Source\PSoC6/CapSense_Structure.c ****     {
1174:Generated_Source\PSoC6/CapSense_Structure.c ****         result = CapSense_dsRam.snsStatus[widgetId];
1175:Generated_Source\PSoC6/CapSense_Structure.c ****         result >>= CapSense_PROX_STS_OFFSET(proxId);
1176:Generated_Source\PSoC6/CapSense_Structure.c ****         result &=  CapSense_PROX_STS_MASK;
1177:Generated_Source\PSoC6/CapSense_Structure.c ****     }
1178:Generated_Source\PSoC6/CapSense_Structure.c **** 
1179:Generated_Source\PSoC6/CapSense_Structure.c ****     return result;
1180:Generated_Source\PSoC6/CapSense_Structure.c **** }
1181:Generated_Source\PSoC6/CapSense_Structure.c **** #endif /* #if (0u != CapSense_PROXIMITY_WIDGET_EN) */
1182:Generated_Source\PSoC6/CapSense_Structure.c **** 
1183:Generated_Source\PSoC6/CapSense_Structure.c **** 
1184:Generated_Source\PSoC6/CapSense_Structure.c **** #if (0u != CapSense_SLIDER_WIDGET_EN)
1185:Generated_Source\PSoC6/CapSense_Structure.c **** /*******************************************************************************
1186:Generated_Source\PSoC6/CapSense_Structure.c **** * Function Name: CapSense_GetCentroidPos
1187:Generated_Source\PSoC6/CapSense_Structure.c **** ****************************************************************************//**
1188:Generated_Source\PSoC6/CapSense_Structure.c **** *
1189:Generated_Source\PSoC6/CapSense_Structure.c **** * \brief
1190:Generated_Source\PSoC6/CapSense_Structure.c **** *  Reports the centroid position for the specified slider widget.
1191:Generated_Source\PSoC6/CapSense_Structure.c **** *
1192:Generated_Source\PSoC6/CapSense_Structure.c **** * \details
1193:Generated_Source\PSoC6/CapSense_Structure.c **** *  This function reports the centroid value of a specified radial or linear
1194:Generated_Source\PSoC6/CapSense_Structure.c **** *  slider widget by extracting information from the wdgtStatus registers
1195:Generated_Source\PSoC6/CapSense_Structure.c **** *  (CapSense_<WidgetName>_POSITION<X>_VALUE). This function is
1196:Generated_Source\PSoC6/CapSense_Structure.c **** *  used only with radial or linear slider widgets. This function does not
1197:Generated_Source\PSoC6/CapSense_Structure.c **** *  process the widget but extracts processed results from the \ref group_structures.
ARM GAS  C:\Users\gjl\AppData\Local\Temp\ccprL3gI.s 			page 33


1198:Generated_Source\PSoC6/CapSense_Structure.c **** *
1199:Generated_Source\PSoC6/CapSense_Structure.c **** * \param widgetId
1200:Generated_Source\PSoC6/CapSense_Structure.c **** *  Specifies the ID number of a slider widget to get the centroid of the
1201:Generated_Source\PSoC6/CapSense_Structure.c **** *  detected touch.
1202:Generated_Source\PSoC6/CapSense_Structure.c **** *  A macro for the widget ID can be found in the
1203:Generated_Source\PSoC6/CapSense_Structure.c **** *  CapSense Configuration header file defined as
1204:Generated_Source\PSoC6/CapSense_Structure.c **** *  CapSense_<WidgetName>_WDGT_ID
1205:Generated_Source\PSoC6/CapSense_Structure.c **** *
1206:Generated_Source\PSoC6/CapSense_Structure.c **** * \return
1207:Generated_Source\PSoC6/CapSense_Structure.c **** *  Returns the centroid position of a specified slider widget:
1208:Generated_Source\PSoC6/CapSense_Structure.c **** *    - The centroid position if a touch is detected.
1209:Generated_Source\PSoC6/CapSense_Structure.c **** *    - CapSense_SLIDER_NO_TOUCH - No touch is detected or a wrong
1210:Generated_Source\PSoC6/CapSense_Structure.c **** *      widgetId is specified.
1211:Generated_Source\PSoC6/CapSense_Structure.c **** *
1212:Generated_Source\PSoC6/CapSense_Structure.c **** *******************************************************************************/
1213:Generated_Source\PSoC6/CapSense_Structure.c **** uint32 CapSense_GetCentroidPos(uint32 widgetId)
1214:Generated_Source\PSoC6/CapSense_Structure.c **** {
 595              		.loc 1 1214 0
 596              		.cfi_startproc
 597              		@ args = 0, pretend = 0, frame = 0
 598              		@ frame_needed = 0, uses_anonymous_args = 0
 599              		@ link register save eliminated.
 600              	.LVL66:
1215:Generated_Source\PSoC6/CapSense_Structure.c ****     uint32 result = CapSense_SLIDER_NO_TOUCH;
1216:Generated_Source\PSoC6/CapSense_Structure.c ****     CapSense_RAM_WD_SLIDER_STRUCT *wdSlider;
1217:Generated_Source\PSoC6/CapSense_Structure.c **** 
1218:Generated_Source\PSoC6/CapSense_Structure.c ****     if ((widgetId < CapSense_TOTAL_WIDGETS) &&
 601              		.loc 1 1218 0
 602 0000 0228     		cmp	r0, #2
 603 0002 10D8     		bhi	.L63
1219:Generated_Source\PSoC6/CapSense_Structure.c ****         ((CapSense_WD_LINEAR_SLIDER_E ==
1220:Generated_Source\PSoC6/CapSense_Structure.c ****             (CapSense_WD_TYPE_ENUM)CapSense_dsFlash.wdgtArray[widgetId].wdgtType) ||
 604              		.loc 1 1220 0 discriminator 1
 605 0004 2C23     		movs	r3, #44
 606 0006 0B4A     		ldr	r2, .L65
 607 0008 03FB0023 		mla	r3, r3, r0, r2
 608 000c 93F82230 		ldrb	r3, [r3, #34]	@ zero_extendqisi2
 609 0010 023B     		subs	r3, r3, #2
 610 0012 DBB2     		uxtb	r3, r3
1218:Generated_Source\PSoC6/CapSense_Structure.c ****         ((CapSense_WD_LINEAR_SLIDER_E ==
 611              		.loc 1 1218 0 discriminator 1
 612 0014 012B     		cmp	r3, #1
 613 0016 09D8     		bhi	.L64
1221:Generated_Source\PSoC6/CapSense_Structure.c ****          (CapSense_WD_RADIAL_SLIDER_E ==
1222:Generated_Source\PSoC6/CapSense_Structure.c ****             (CapSense_WD_TYPE_ENUM)CapSense_dsFlash.wdgtArray[widgetId].wdgtType)))
1223:Generated_Source\PSoC6/CapSense_Structure.c ****     {
1224:Generated_Source\PSoC6/CapSense_Structure.c ****         wdSlider = CapSense_dsFlash.wdgtArray[widgetId].ptr2WdgtRam;
 614              		.loc 1 1224 0
 615 0018 2C22     		movs	r2, #44
 616 001a 064B     		ldr	r3, .L65
 617 001c 02FB0030 		mla	r0, r2, r0, r3
 618              	.LVL67:
 619 0020 C368     		ldr	r3, [r0, #12]
 620              	.LVL68:
1225:Generated_Source\PSoC6/CapSense_Structure.c ****         result = (uint32)wdSlider->position[0u];
 621              		.loc 1 1225 0
 622 0022 588A     		ldrh	r0, [r3, #18]
ARM GAS  C:\Users\gjl\AppData\Local\Temp\ccprL3gI.s 			page 34


 623              	.LVL69:
 624 0024 7047     		bx	lr
 625              	.LVL70:
 626              	.L63:
1215:Generated_Source\PSoC6/CapSense_Structure.c ****     CapSense_RAM_WD_SLIDER_STRUCT *wdSlider;
 627              		.loc 1 1215 0
 628 0026 4FF6FF70 		movw	r0, #65535
 629              	.LVL71:
 630 002a 7047     		bx	lr
 631              	.LVL72:
 632              	.L64:
 633 002c 4FF6FF70 		movw	r0, #65535
 634              	.LVL73:
1226:Generated_Source\PSoC6/CapSense_Structure.c ****     }
1227:Generated_Source\PSoC6/CapSense_Structure.c **** 
1228:Generated_Source\PSoC6/CapSense_Structure.c ****     return result;
1229:Generated_Source\PSoC6/CapSense_Structure.c **** }
 635              		.loc 1 1229 0
 636 0030 7047     		bx	lr
 637              	.L66:
 638 0032 00BF     		.align	2
 639              	.L65:
 640 0034 00000000 		.word	.LANCHOR0
 641              		.cfi_endproc
 642              	.LFE132:
 643              		.size	CapSense_GetCentroidPos, .-CapSense_GetCentroidPos
 644              		.global	CapSense_ramIdacInit
 645              		.global	CapSense_ramWidgetInit
 646              		.global	CapSense_ioList
 647              		.global	CapSense_dsFlash
 648              		.comm	CapSense_dsRam,164,4
 649              		.section	.rodata
 650              		.align	2
 651              		.set	.LANCHOR0,. + 0
 652              		.type	CapSense_ramIdacInit, %object
 653              		.size	CapSense_ramIdacInit, 7
 654              	CapSense_ramIdacInit:
 655 0000 20       		.byte	32
 656 0001 20       		.byte	32
 657 0002 20       		.byte	32
 658 0003 20       		.byte	32
 659 0004 20       		.byte	32
 660 0005 20       		.byte	32
 661 0006 20       		.byte	32
 662 0007 00       		.space	1
 663              		.type	CapSense_dsFlash, %object
 664              		.size	CapSense_dsFlash, 132
 665              	CapSense_dsFlash:
 666 0008 00000000 		.word	CapSense_ioList
 667 000c 20000000 		.word	CapSense_dsRam+32
 668 0010 58000000 		.word	CapSense_dsRam+88
 669 0014 00000000 		.word	0
 670 0018 44000000 		.word	CapSense_debounceLinearSlider0
 671 001c 01280000 		.word	10241
 672 0020 0500     		.short	5
 673 0022 02       		.byte	2
 674 0023 01       		.byte	1
ARM GAS  C:\Users\gjl\AppData\Local\Temp\ccprL3gI.s 			page 35


 675 0024 05       		.byte	5
 676 0025 00       		.byte	0
 677 0026 6400     		.short	100
 678 0028 00190000 		.word	6400
 679 002c 00000000 		.word	CapSense_noiseEnvlpLinearSlider0
 680 0030 80       		.byte	-128
 681 0031 000000   		.space	3
 682 0034 28000000 		.word	CapSense_ioList+40
 683 0038 34000000 		.word	CapSense_dsRam+52
 684 003c 8A000000 		.word	CapSense_dsRam+138
 685 0040 00000000 		.word	0
 686 0044 40000000 		.word	CapSense_debounceButton0
 687 0048 09280000 		.word	10249
 688 004c 0100     		.short	1
 689 004e 01       		.byte	1
 690 004f 02       		.byte	2
 691 0050 01       		.byte	1
 692 0051 01       		.byte	1
 693 0052 0000     		.short	0
 694 0054 00000000 		.word	0
 695 0058 00000000 		.word	0
 696 005c 00       		.byte	0
 697 005d 000000   		.space	3
 698 0060 38000000 		.word	CapSense_ioList+56
 699 0064 46000000 		.word	CapSense_dsRam+70
 700 0068 94000000 		.word	CapSense_dsRam+148
 701 006c 00000000 		.word	0
 702 0070 3C000000 		.word	CapSense_debounceButton1
 703 0074 01280000 		.word	10241
 704 0078 0100     		.short	1
 705 007a 01       		.byte	1
 706 007b 02       		.byte	2
 707 007c 01       		.byte	1
 708 007d 01       		.byte	1
 709 007e 0000     		.short	0
 710 0080 00000000 		.word	0
 711 0084 00000000 		.word	0
 712 0088 00       		.byte	0
 713 0089 000000   		.space	3
 714              		.type	CapSense_ramWidgetInit, %object
 715              		.size	CapSense_ramWidgetInit, 56
 716              	CapSense_ramWidgetInit:
 717 008c 0C00     		.short	12
 718 008e 6400     		.short	100
 719 0090 28       		.byte	40
 720 0091 28       		.byte	40
 721 0092 0A       		.byte	10
 722 0093 03       		.byte	3
 723 0094 1E       		.byte	30
 724 0095 20       		.byte	32
 725 0096 0400     		.short	4
 726 0098 00       		.byte	0
 727 0099 00       		.space	1
 728 009a A000     		.short	160
 729 009c 0000     		.short	0
 730 009e FFFF     		.short	-1
 731 00a0 6400     		.short	100
ARM GAS  C:\Users\gjl\AppData\Local\Temp\ccprL3gI.s 			page 36


 732 00a2 6400     		.short	100
 733 00a4 28       		.byte	40
 734 00a5 28       		.byte	40
 735 00a6 0A       		.byte	10
 736 00a7 03       		.byte	3
 737 00a8 1E       		.byte	30
 738 00a9 20       		.byte	32
 739 00aa A700     		.short	167
 740 00ac 00       		.byte	0
 741 00ad 00       		.space	1
 742 00ae A000     		.short	160
 743 00b0 0000     		.short	0
 744 00b2 6400     		.short	100
 745 00b4 6400     		.short	100
 746 00b6 28       		.byte	40
 747 00b7 28       		.byte	40
 748 00b8 0A       		.byte	10
 749 00b9 03       		.byte	3
 750 00ba 1E       		.byte	30
 751 00bb 20       		.byte	32
 752 00bc A700     		.short	167
 753 00be 00       		.byte	0
 754 00bf 00       		.space	1
 755 00c0 A000     		.short	160
 756 00c2 0000     		.short	0
 757              		.type	CapSense_ioList, %object
 758              		.size	CapSense_ioList, 72
 759              	CapSense_ioList:
 760 00c4 00043240 		.word	1077019648
 761 00c8 03       		.byte	3
 762 00c9 000000   		.space	3
 763 00cc 00043240 		.word	1077019648
 764 00d0 04       		.byte	4
 765 00d1 000000   		.space	3
 766 00d4 00043240 		.word	1077019648
 767 00d8 05       		.byte	5
 768 00d9 000000   		.space	3
 769 00dc 00043240 		.word	1077019648
 770 00e0 06       		.byte	6
 771 00e1 000000   		.space	3
 772 00e4 00043240 		.word	1077019648
 773 00e8 07       		.byte	7
 774 00e9 000000   		.space	3
 775 00ec 00043240 		.word	1077019648
 776 00f0 01       		.byte	1
 777 00f1 000000   		.space	3
 778 00f4 80003240 		.word	1077018752
 779 00f8 00       		.byte	0
 780 00f9 000000   		.space	3
 781 00fc 00043240 		.word	1077019648
 782 0100 02       		.byte	2
 783 0101 000000   		.space	3
 784 0104 80003240 		.word	1077018752
 785 0108 00       		.byte	0
 786 0109 000000   		.space	3
 787              		.section	.rodata.str1.4,"aMS",%progbits,1
 788              		.align	2
ARM GAS  C:\Users\gjl\AppData\Local\Temp\ccprL3gI.s 			page 37


 789              	.LC0:
 790 0000 47656E65 		.ascii	"Generated_Source\\PSoC6\\CapSense_Structure.c\000"
 790      72617465 
 790      645F536F 
 790      75726365 
 790      5C50536F 
 791              		.bss
 792              		.align	2
 793              		.type	CapSense_noiseEnvlpLinearSlider0, %object
 794              		.size	CapSense_noiseEnvlpLinearSlider0, 60
 795              	CapSense_noiseEnvlpLinearSlider0:
 796 0000 00000000 		.space	60
 796      00000000 
 796      00000000 
 796      00000000 
 796      00000000 
 797              		.type	CapSense_debounceButton1, %object
 798              		.size	CapSense_debounceButton1, 1
 799              	CapSense_debounceButton1:
 800 003c 00       		.space	1
 801 003d 000000   		.space	3
 802              		.type	CapSense_debounceButton0, %object
 803              		.size	CapSense_debounceButton0, 1
 804              	CapSense_debounceButton0:
 805 0040 00       		.space	1
 806 0041 000000   		.space	3
 807              		.type	CapSense_debounceLinearSlider0, %object
 808              		.size	CapSense_debounceLinearSlider0, 1
 809              	CapSense_debounceLinearSlider0:
 810 0044 00       		.space	1
 811              		.text
 812              	.Letext0:
 813              		.file 2 "c:\\program files (x86)\\cypress\\psoc creator\\4.2\\psoc creator\\import\\gnu\\arm\\5.4.
 814              		.file 3 "c:\\program files (x86)\\cypress\\psoc creator\\4.2\\psoc creator\\import\\gnu\\arm\\5.4.
 815              		.file 4 "Generated_Source\\PSoC6\\pdl\\devices/psoc6/ip/cyip_gpio.h"
 816              		.file 5 "Generated_Source\\PSoC6\\pdl\\drivers/peripheral/syslib/cy_syslib.h"
 817              		.file 6 "Generated_Source\\PSoC6\\CapSense_Configuration.h"
 818              		.file 7 "Generated_Source\\PSoC6\\CapSense_SmartSense_LL.h"
 819              		.file 8 "Generated_Source\\PSoC6\\CapSense_Structure.h"
 820              		.file 9 "Generated_Source\\PSoC6\\pdl\\cmsis/include/core_cm4.h"