ARM GAS  C:\Users\gjl\AppData\Local\Temp\ccr7sVFh.s 			page 1


   1              		.syntax unified
   2              		.cpu cortex-m4
   3              		.eabi_attribute 27, 1
   4              		.fpu fpv4-sp-d16
   5              		.eabi_attribute 20, 1
   6              		.eabi_attribute 21, 1
   7              		.eabi_attribute 23, 3
   8              		.eabi_attribute 24, 1
   9              		.eabi_attribute 25, 1
  10              		.eabi_attribute 26, 1
  11              		.eabi_attribute 30, 1
  12              		.eabi_attribute 34, 1
  13              		.eabi_attribute 18, 4
  14              		.thumb
  15              		.syntax unified
  16              		.file	"cy_profile.c"
  17              		.text
  18              	.Ltext0:
  19              		.cfi_sections	.debug_frame
  20              		.section	.text.Cy_Profile_IsPtrValid,"ax",%progbits
  21              		.align	2
  22              		.thumb
  23              		.thumb_func
  24              		.type	Cy_Profile_IsPtrValid, %function
  25              	Cy_Profile_IsPtrValid:
  26              	.LFB130:
  27              		.file 1 "Generated_Source\\PSoC6\\pdl\\drivers\\peripheral\\profile\\cy_profile.c"
   1:Generated_Source\PSoC6\pdl\drivers\peripheral\profile/cy_profile.c **** /***************************************************************************//** 
   2:Generated_Source\PSoC6\pdl\drivers\peripheral\profile/cy_profile.c **** * \file cy_profile.c
   3:Generated_Source\PSoC6\pdl\drivers\peripheral\profile/cy_profile.c **** * \version 1.0
   4:Generated_Source\PSoC6\pdl\drivers\peripheral\profile/cy_profile.c **** * 
   5:Generated_Source\PSoC6\pdl\drivers\peripheral\profile/cy_profile.c **** * Provides an API declaration of the energy profiler (EP) driver. 
   6:Generated_Source\PSoC6\pdl\drivers\peripheral\profile/cy_profile.c **** *
   7:Generated_Source\PSoC6\pdl\drivers\peripheral\profile/cy_profile.c **** ******************************************************************************** 
   8:Generated_Source\PSoC6\pdl\drivers\peripheral\profile/cy_profile.c **** * \copyright 
   9:Generated_Source\PSoC6\pdl\drivers\peripheral\profile/cy_profile.c **** * Copyright 2016-2018, Cypress Semiconductor Corporation. All rights reserved. 
  10:Generated_Source\PSoC6\pdl\drivers\peripheral\profile/cy_profile.c **** * You may use this file only in accordance with the license, terms, conditions, 
  11:Generated_Source\PSoC6\pdl\drivers\peripheral\profile/cy_profile.c **** * disclaimers, and limitations in the end user license agreement accompanying 
  12:Generated_Source\PSoC6\pdl\drivers\peripheral\profile/cy_profile.c **** * the software package with which this file was provided.
  13:Generated_Source\PSoC6\pdl\drivers\peripheral\profile/cy_profile.c **** *******************************************************************************/
  14:Generated_Source\PSoC6\pdl\drivers\peripheral\profile/cy_profile.c **** 
  15:Generated_Source\PSoC6\pdl\drivers\peripheral\profile/cy_profile.c **** #include "cy_profile.h"
  16:Generated_Source\PSoC6\pdl\drivers\peripheral\profile/cy_profile.c **** #include <string.h>
  17:Generated_Source\PSoC6\pdl\drivers\peripheral\profile/cy_profile.c **** 
  18:Generated_Source\PSoC6\pdl\drivers\peripheral\profile/cy_profile.c **** #if defined(__cplusplus)
  19:Generated_Source\PSoC6\pdl\drivers\peripheral\profile/cy_profile.c **** extern "C" {
  20:Generated_Source\PSoC6\pdl\drivers\peripheral\profile/cy_profile.c **** #endif /* __cplusplus */
  21:Generated_Source\PSoC6\pdl\drivers\peripheral\profile/cy_profile.c **** 
  22:Generated_Source\PSoC6\pdl\drivers\peripheral\profile/cy_profile.c **** /* Number of elements in an array */
  23:Generated_Source\PSoC6\pdl\drivers\peripheral\profile/cy_profile.c **** #define CY_N_ELMTS(a) (sizeof(a)/sizeof((a)[0]))
  24:Generated_Source\PSoC6\pdl\drivers\peripheral\profile/cy_profile.c **** 
  25:Generated_Source\PSoC6\pdl\drivers\peripheral\profile/cy_profile.c **** static cy_en_profile_status_t Cy_Profile_IsPtrValid(const cy_stc_profile_ctr_ptr_t ctrAddr);
  26:Generated_Source\PSoC6\pdl\drivers\peripheral\profile/cy_profile.c **** 
  27:Generated_Source\PSoC6\pdl\drivers\peripheral\profile/cy_profile.c **** /* Internal structure - Control and status information for each counter */
  28:Generated_Source\PSoC6\pdl\drivers\peripheral\profile/cy_profile.c **** static cy_stc_profile_ctr_t cy_ep_ctrs[PROFILE_PRFL_CNT_NR];
  29:Generated_Source\PSoC6\pdl\drivers\peripheral\profile/cy_profile.c **** 
  30:Generated_Source\PSoC6\pdl\drivers\peripheral\profile/cy_profile.c **** 
ARM GAS  C:\Users\gjl\AppData\Local\Temp\ccr7sVFh.s 			page 2


  31:Generated_Source\PSoC6\pdl\drivers\peripheral\profile/cy_profile.c **** /* ========================================================================== */
  32:Generated_Source\PSoC6\pdl\drivers\peripheral\profile/cy_profile.c **** /* =====================     LOCAL FUNCTION SECTION    ====================== */
  33:Generated_Source\PSoC6\pdl\drivers\peripheral\profile/cy_profile.c **** /* ========================================================================== */
  34:Generated_Source\PSoC6\pdl\drivers\peripheral\profile/cy_profile.c **** /*******************************************************************************
  35:Generated_Source\PSoC6\pdl\drivers\peripheral\profile/cy_profile.c **** * Function Name: Cy_Profile_IsPtrValid
  36:Generated_Source\PSoC6\pdl\drivers\peripheral\profile/cy_profile.c **** ****************************************************************************//**
  37:Generated_Source\PSoC6\pdl\drivers\peripheral\profile/cy_profile.c **** *
  38:Generated_Source\PSoC6\pdl\drivers\peripheral\profile/cy_profile.c **** * Local utility function: reports (1) whether or not a given pointer points into
  39:Generated_Source\PSoC6\pdl\drivers\peripheral\profile/cy_profile.c **** * the cy_ep_ctrs[] array, and (2) whether the counter has been assigned.
  40:Generated_Source\PSoC6\pdl\drivers\peripheral\profile/cy_profile.c **** *
  41:Generated_Source\PSoC6\pdl\drivers\peripheral\profile/cy_profile.c **** * \param ctrAddr The handle to (address of) the assigned counter
  42:Generated_Source\PSoC6\pdl\drivers\peripheral\profile/cy_profile.c **** * 
  43:Generated_Source\PSoC6\pdl\drivers\peripheral\profile/cy_profile.c **** * \return CY_PROFILE_SUCCESS, or CY_PROFILE_BAD_PARAM for invalid ctrAddr or counter not
  44:Generated_Source\PSoC6\pdl\drivers\peripheral\profile/cy_profile.c **** * in use.
  45:Generated_Source\PSoC6\pdl\drivers\peripheral\profile/cy_profile.c **** *
  46:Generated_Source\PSoC6\pdl\drivers\peripheral\profile/cy_profile.c **** *******************************************************************************/
  47:Generated_Source\PSoC6\pdl\drivers\peripheral\profile/cy_profile.c **** static cy_en_profile_status_t Cy_Profile_IsPtrValid(const cy_stc_profile_ctr_ptr_t ctrAddr)
  48:Generated_Source\PSoC6\pdl\drivers\peripheral\profile/cy_profile.c **** {
  28              		.loc 1 48 0
  29              		.cfi_startproc
  30              		@ args = 0, pretend = 0, frame = 0
  31              		@ frame_needed = 0, uses_anonymous_args = 0
  32              		@ link register save eliminated.
  33              	.LVL0:
  49:Generated_Source\PSoC6\pdl\drivers\peripheral\profile/cy_profile.c ****     cy_en_profile_status_t retStatus = CY_PROFILE_BAD_PARAM;
  50:Generated_Source\PSoC6\pdl\drivers\peripheral\profile/cy_profile.c **** 
  51:Generated_Source\PSoC6\pdl\drivers\peripheral\profile/cy_profile.c ****     /* check for valid ctrAddr */
  52:Generated_Source\PSoC6\pdl\drivers\peripheral\profile/cy_profile.c ****     uint32_t p_epCtrs = (uint32_t)cy_ep_ctrs;
  34              		.loc 1 52 0
  35 0000 074B     		ldr	r3, .L6
  36              	.LVL1:
  53:Generated_Source\PSoC6\pdl\drivers\peripheral\profile/cy_profile.c ****     if ((p_epCtrs <= (uint32_t)ctrAddr) && ((uint32_t)ctrAddr < (p_epCtrs + (uint32_t)sizeof(cy_ep_
  37              		.loc 1 53 0
  38 0002 8342     		cmp	r3, r0
  39 0004 06D8     		bhi	.L3
  40              		.loc 1 53 0 is_stmt 0 discriminator 1
  41 0006 E033     		adds	r3, r3, #224
  42 0008 9842     		cmp	r0, r3
  43 000a 05D2     		bcs	.L4
  54:Generated_Source\PSoC6\pdl\drivers\peripheral\profile/cy_profile.c ****     {
  55:Generated_Source\PSoC6\pdl\drivers\peripheral\profile/cy_profile.c ****         if (ctrAddr->used != 0u) /* check for counter being used */
  44              		.loc 1 55 0 is_stmt 1
  45 000c 4378     		ldrb	r3, [r0, #1]	@ zero_extendqisi2
  46 000e 2BB9     		cbnz	r3, .L5
  49:Generated_Source\PSoC6\pdl\drivers\peripheral\profile/cy_profile.c **** 
  47              		.loc 1 49 0
  48 0010 0448     		ldr	r0, .L6+4
  49              	.LVL2:
  50 0012 7047     		bx	lr
  51              	.LVL3:
  52              	.L3:
  53 0014 0348     		ldr	r0, .L6+4
  54              	.LVL4:
  55 0016 7047     		bx	lr
  56              	.LVL5:
  57              	.L4:
  58 0018 0248     		ldr	r0, .L6+4
ARM GAS  C:\Users\gjl\AppData\Local\Temp\ccr7sVFh.s 			page 3


  59              	.LVL6:
  60 001a 7047     		bx	lr
  61              	.LVL7:
  62              	.L5:
  56:Generated_Source\PSoC6\pdl\drivers\peripheral\profile/cy_profile.c ****         {
  57:Generated_Source\PSoC6\pdl\drivers\peripheral\profile/cy_profile.c ****             retStatus = CY_PROFILE_SUCCESS;
  63              		.loc 1 57 0
  64 001c 0020     		movs	r0, #0
  65              	.LVL8:
  58:Generated_Source\PSoC6\pdl\drivers\peripheral\profile/cy_profile.c ****         }
  59:Generated_Source\PSoC6\pdl\drivers\peripheral\profile/cy_profile.c ****     }
  60:Generated_Source\PSoC6\pdl\drivers\peripheral\profile/cy_profile.c ****     return (retStatus);
  61:Generated_Source\PSoC6\pdl\drivers\peripheral\profile/cy_profile.c **** }
  66              		.loc 1 61 0
  67 001e 7047     		bx	lr
  68              	.L7:
  69              		.align	2
  70              	.L6:
  71 0020 00000000 		.word	.LANCHOR0
  72 0024 01007A00 		.word	7995393
  73              		.cfi_endproc
  74              	.LFE130:
  75              		.size	Cy_Profile_IsPtrValid, .-Cy_Profile_IsPtrValid
  76              		.section	.text.Cy_Profile_ISR,"ax",%progbits
  77              		.align	2
  78              		.global	Cy_Profile_ISR
  79              		.thumb
  80              		.thumb_func
  81              		.type	Cy_Profile_ISR, %function
  82              	Cy_Profile_ISR:
  83              	.LFB131:
  62:Generated_Source\PSoC6\pdl\drivers\peripheral\profile/cy_profile.c **** 
  63:Generated_Source\PSoC6\pdl\drivers\peripheral\profile/cy_profile.c **** 
  64:Generated_Source\PSoC6\pdl\drivers\peripheral\profile/cy_profile.c **** /* ========================================================================== */
  65:Generated_Source\PSoC6\pdl\drivers\peripheral\profile/cy_profile.c **** /* ====================    INTERRUPT FUNCTION SECTION    ==================== */
  66:Generated_Source\PSoC6\pdl\drivers\peripheral\profile/cy_profile.c **** /* ========================================================================== */
  67:Generated_Source\PSoC6\pdl\drivers\peripheral\profile/cy_profile.c **** /*******************************************************************************
  68:Generated_Source\PSoC6\pdl\drivers\peripheral\profile/cy_profile.c **** * Function Name: Cy_Profile_ISR
  69:Generated_Source\PSoC6\pdl\drivers\peripheral\profile/cy_profile.c **** ****************************************************************************//**
  70:Generated_Source\PSoC6\pdl\drivers\peripheral\profile/cy_profile.c **** *
  71:Generated_Source\PSoC6\pdl\drivers\peripheral\profile/cy_profile.c **** * EP interrupt handler: Increments the overflow member of the counter structure,
  72:Generated_Source\PSoC6\pdl\drivers\peripheral\profile/cy_profile.c **** * for each counter that is in use and has an overflow.
  73:Generated_Source\PSoC6\pdl\drivers\peripheral\profile/cy_profile.c **** *
  74:Generated_Source\PSoC6\pdl\drivers\peripheral\profile/cy_profile.c **** * This handler is not configured or used automatically. You must configure the 
  75:Generated_Source\PSoC6\pdl\drivers\peripheral\profile/cy_profile.c **** * interrupt handler for the EP, using Cy_SysInt_Init(). Typically you configure 
  76:Generated_Source\PSoC6\pdl\drivers\peripheral\profile/cy_profile.c **** * the system to use \ref Cy_Profile_ISR() as the overflow interrupt handler. You
  77:Generated_Source\PSoC6\pdl\drivers\peripheral\profile/cy_profile.c **** * can provide a custom interrupt handler to perform additional operations if
  78:Generated_Source\PSoC6\pdl\drivers\peripheral\profile/cy_profile.c **** * required. Your handler can call \ref Cy_Profile_ISR() to handle counter
  79:Generated_Source\PSoC6\pdl\drivers\peripheral\profile/cy_profile.c **** * overflow. 
  80:Generated_Source\PSoC6\pdl\drivers\peripheral\profile/cy_profile.c **** *
  81:Generated_Source\PSoC6\pdl\drivers\peripheral\profile/cy_profile.c **** *******************************************************************************/
  82:Generated_Source\PSoC6\pdl\drivers\peripheral\profile/cy_profile.c **** void Cy_Profile_ISR(void)
  83:Generated_Source\PSoC6\pdl\drivers\peripheral\profile/cy_profile.c **** {
  84              		.loc 1 83 0
  85              		.cfi_startproc
  86              		@ args = 0, pretend = 0, frame = 0
  87              		@ frame_needed = 0, uses_anonymous_args = 0
ARM GAS  C:\Users\gjl\AppData\Local\Temp\ccr7sVFh.s 			page 4


  88              		@ link register save eliminated.
  84:Generated_Source\PSoC6\pdl\drivers\peripheral\profile/cy_profile.c ****     uint32_t ctr;
  85:Generated_Source\PSoC6\pdl\drivers\peripheral\profile/cy_profile.c **** 
  86:Generated_Source\PSoC6\pdl\drivers\peripheral\profile/cy_profile.c ****     /* Grab a copy of the overflow register. Each bit in the register indicates
  87:Generated_Source\PSoC6\pdl\drivers\peripheral\profile/cy_profile.c ****        whether or not the respective counter has overflowed. */
  88:Generated_Source\PSoC6\pdl\drivers\peripheral\profile/cy_profile.c ****     uint32_t ovflowBits = _FLD2VAL(PROFILE_INTR_MASKED_CNT_OVFLW, PROFILE->INTR_MASKED);
  89              		.loc 1 88 0
  90 0000 0F4B     		ldr	r3, .L13
  91 0002 D3F8CC27 		ldr	r2, [r3, #1996]
  92              	.LVL9:
  89:Generated_Source\PSoC6\pdl\drivers\peripheral\profile/cy_profile.c **** 
  90:Generated_Source\PSoC6\pdl\drivers\peripheral\profile/cy_profile.c ****     PROFILE->INTR = ovflowBits; /* clear the sources of the interrupts */
  93              		.loc 1 90 0
  94 0006 C3F8C027 		str	r2, [r3, #1984]
  95              	.LVL10:
  91:Generated_Source\PSoC6\pdl\drivers\peripheral\profile/cy_profile.c **** 
  92:Generated_Source\PSoC6\pdl\drivers\peripheral\profile/cy_profile.c ****     /* scan through the overflow bits, i.e., for each counter */
  93:Generated_Source\PSoC6\pdl\drivers\peripheral\profile/cy_profile.c ****     for (ctr = 0UL; (ctr < (uint32_t)(PROFILE_PRFL_CNT_NR)) && (ovflowBits != 0UL); ctr++)
  96              		.loc 1 93 0
  97 000a 0023     		movs	r3, #0
  98 000c 13E0     		b	.L9
  99              	.LVL11:
 100              	.L12:
  94:Generated_Source\PSoC6\pdl\drivers\peripheral\profile/cy_profile.c ****     {
  95:Generated_Source\PSoC6\pdl\drivers\peripheral\profile/cy_profile.c ****         /* Increment the overflow bit only if the counter is being used.
  96:Generated_Source\PSoC6\pdl\drivers\peripheral\profile/cy_profile.c ****            (Which should always be the case.) */
  97:Generated_Source\PSoC6\pdl\drivers\peripheral\profile/cy_profile.c ****         if (((ovflowBits & 1UL) != 0UL) && (cy_ep_ctrs[ctr].used != 0u))
 101              		.loc 1 97 0
 102 000e 12F0010F 		tst	r2, #1
 103 0012 0ED0     		beq	.L10
 104              		.loc 1 97 0 is_stmt 0 discriminator 1
 105 0014 C3EBC300 		rsb	r0, r3, r3, lsl #3
 106 0018 8100     		lsls	r1, r0, #2
 107 001a 0A48     		ldr	r0, .L13+4
 108 001c 0144     		add	r1, r1, r0
 109 001e 4978     		ldrb	r1, [r1, #1]	@ zero_extendqisi2
 110 0020 39B1     		cbz	r1, .L10
  98:Generated_Source\PSoC6\pdl\drivers\peripheral\profile/cy_profile.c ****         {
  99:Generated_Source\PSoC6\pdl\drivers\peripheral\profile/cy_profile.c ****             cy_ep_ctrs[ctr].overflow++;
 111              		.loc 1 99 0 is_stmt 1
 112 0022 D800     		lsls	r0, r3, #3
 113 0024 C01A     		subs	r0, r0, r3
 114 0026 8100     		lsls	r1, r0, #2
 115 0028 0648     		ldr	r0, .L13+4
 116 002a 0144     		add	r1, r1, r0
 117 002c 4869     		ldr	r0, [r1, #20]
 118 002e 0130     		adds	r0, r0, #1
 119 0030 4861     		str	r0, [r1, #20]
 120              	.L10:
 100:Generated_Source\PSoC6\pdl\drivers\peripheral\profile/cy_profile.c ****         }
 101:Generated_Source\PSoC6\pdl\drivers\peripheral\profile/cy_profile.c ****         ovflowBits >>= 1; /* check the next bit, by shifting it into the LS position */
 121              		.loc 1 101 0 discriminator 2
 122 0032 5208     		lsrs	r2, r2, #1
 123              	.LVL12:
  93:Generated_Source\PSoC6\pdl\drivers\peripheral\profile/cy_profile.c ****     {
 124              		.loc 1 93 0 discriminator 2
 125 0034 0133     		adds	r3, r3, #1
ARM GAS  C:\Users\gjl\AppData\Local\Temp\ccr7sVFh.s 			page 5


 126              	.LVL13:
 127              	.L9:
  93:Generated_Source\PSoC6\pdl\drivers\peripheral\profile/cy_profile.c ****     {
 128              		.loc 1 93 0 is_stmt 0 discriminator 1
 129 0036 072B     		cmp	r3, #7
 130 0038 01D8     		bhi	.L8
  93:Generated_Source\PSoC6\pdl\drivers\peripheral\profile/cy_profile.c ****     {
 131              		.loc 1 93 0 discriminator 3
 132 003a 002A     		cmp	r2, #0
 133 003c E7D1     		bne	.L12
 134              	.L8:
 135 003e 7047     		bx	lr
 136              	.L14:
 137              		.align	2
 138              	.L13:
 139 0040 00002D40 		.word	1076690944
 140 0044 00000000 		.word	.LANCHOR0
 141              		.cfi_endproc
 142              	.LFE131:
 143              		.size	Cy_Profile_ISR, .-Cy_Profile_ISR
 144              		.section	.text.Cy_Profile_StartProfiling,"ax",%progbits
 145              		.align	2
 146              		.global	Cy_Profile_StartProfiling
 147              		.thumb
 148              		.thumb_func
 149              		.type	Cy_Profile_StartProfiling, %function
 150              	Cy_Profile_StartProfiling:
 151              	.LFB132:
 102:Generated_Source\PSoC6\pdl\drivers\peripheral\profile/cy_profile.c ****     }
 103:Generated_Source\PSoC6\pdl\drivers\peripheral\profile/cy_profile.c **** }
 104:Generated_Source\PSoC6\pdl\drivers\peripheral\profile/cy_profile.c **** 
 105:Generated_Source\PSoC6\pdl\drivers\peripheral\profile/cy_profile.c **** 
 106:Generated_Source\PSoC6\pdl\drivers\peripheral\profile/cy_profile.c **** /* ========================================================================== */
 107:Generated_Source\PSoC6\pdl\drivers\peripheral\profile/cy_profile.c **** /* ==================      GENERAL PROFILE FUNCTIONS     ==================== */
 108:Generated_Source\PSoC6\pdl\drivers\peripheral\profile/cy_profile.c **** /* ========================================================================== */
 109:Generated_Source\PSoC6\pdl\drivers\peripheral\profile/cy_profile.c **** /*******************************************************************************
 110:Generated_Source\PSoC6\pdl\drivers\peripheral\profile/cy_profile.c **** * Function Name: Cy_Profile_StartProfiling
 111:Generated_Source\PSoC6\pdl\drivers\peripheral\profile/cy_profile.c **** ****************************************************************************//**
 112:Generated_Source\PSoC6\pdl\drivers\peripheral\profile/cy_profile.c **** *
 113:Generated_Source\PSoC6\pdl\drivers\peripheral\profile/cy_profile.c **** * Starts the profiling/measurement window.
 114:Generated_Source\PSoC6\pdl\drivers\peripheral\profile/cy_profile.c **** *
 115:Generated_Source\PSoC6\pdl\drivers\peripheral\profile/cy_profile.c **** * This operation allows the enabled profile counters to start counting.
 116:Generated_Source\PSoC6\pdl\drivers\peripheral\profile/cy_profile.c **** *
 117:Generated_Source\PSoC6\pdl\drivers\peripheral\profile/cy_profile.c **** * \note The profile interrupt should be enabled before calling this function
 118:Generated_Source\PSoC6\pdl\drivers\peripheral\profile/cy_profile.c **** * in order for the firmware to be notified when a counter overflow occurs.
 119:Generated_Source\PSoC6\pdl\drivers\peripheral\profile/cy_profile.c **** *
 120:Generated_Source\PSoC6\pdl\drivers\peripheral\profile/cy_profile.c **** * \funcusage
 121:Generated_Source\PSoC6\pdl\drivers\peripheral\profile/cy_profile.c **** * \snippet profile/profile_v1_0_sut_01.cydsn/main_cm4.c snippet_Cy_Profile_StartProfiling
 122:Generated_Source\PSoC6\pdl\drivers\peripheral\profile/cy_profile.c **** *
 123:Generated_Source\PSoC6\pdl\drivers\peripheral\profile/cy_profile.c **** *******************************************************************************/
 124:Generated_Source\PSoC6\pdl\drivers\peripheral\profile/cy_profile.c **** void Cy_Profile_StartProfiling(void)
 125:Generated_Source\PSoC6\pdl\drivers\peripheral\profile/cy_profile.c **** {
 152              		.loc 1 125 0 is_stmt 1
 153              		.cfi_startproc
 154              		@ args = 0, pretend = 0, frame = 0
 155              		@ frame_needed = 0, uses_anonymous_args = 0
 156              		@ link register save eliminated.
ARM GAS  C:\Users\gjl\AppData\Local\Temp\ccr7sVFh.s 			page 6


 157              	.LVL14:
 126:Generated_Source\PSoC6\pdl\drivers\peripheral\profile/cy_profile.c ****     uint32_t i;
 127:Generated_Source\PSoC6\pdl\drivers\peripheral\profile/cy_profile.c **** 
 128:Generated_Source\PSoC6\pdl\drivers\peripheral\profile/cy_profile.c ****     /* clear all of the counter array overflow variables */
 129:Generated_Source\PSoC6\pdl\drivers\peripheral\profile/cy_profile.c ****     for (i = 0UL; i < CY_N_ELMTS(cy_ep_ctrs); cy_ep_ctrs[i++].overflow = 0UL){}
 158              		.loc 1 129 0
 159 0000 0023     		movs	r3, #0
 160 0002 07E0     		b	.L16
 161              	.LVL15:
 162              	.L17:
 163              		.loc 1 129 0 is_stmt 0 discriminator 3
 164 0004 C3EBC301 		rsb	r1, r3, r3, lsl #3
 165 0008 8A00     		lsls	r2, r1, #2
 166 000a 0549     		ldr	r1, .L18
 167 000c 0A44     		add	r2, r2, r1
 168 000e 0021     		movs	r1, #0
 169 0010 5161     		str	r1, [r2, #20]
 170 0012 0133     		adds	r3, r3, #1
 171              	.LVL16:
 172              	.L16:
 173              		.loc 1 129 0 discriminator 1
 174 0014 072B     		cmp	r3, #7
 175 0016 F5D9     		bls	.L17
 130:Generated_Source\PSoC6\pdl\drivers\peripheral\profile/cy_profile.c ****     /* send the hardware command */
 131:Generated_Source\PSoC6\pdl\drivers\peripheral\profile/cy_profile.c ****     PROFILE->CMD = CY_PROFILE_START_TR;
 176              		.loc 1 131 0 is_stmt 1
 177 0018 0122     		movs	r2, #1
 178 001a 024B     		ldr	r3, .L18+4
 179              	.LVL17:
 180 001c 1A61     		str	r2, [r3, #16]
 181 001e 7047     		bx	lr
 182              	.L19:
 183              		.align	2
 184              	.L18:
 185 0020 00000000 		.word	.LANCHOR0
 186 0024 00002D40 		.word	1076690944
 187              		.cfi_endproc
 188              	.LFE132:
 189              		.size	Cy_Profile_StartProfiling, .-Cy_Profile_StartProfiling
 190              		.section	.text.Cy_Profile_ClearConfiguration,"ax",%progbits
 191              		.align	2
 192              		.global	Cy_Profile_ClearConfiguration
 193              		.thumb
 194              		.thumb_func
 195              		.type	Cy_Profile_ClearConfiguration, %function
 196              	Cy_Profile_ClearConfiguration:
 197              	.LFB133:
 132:Generated_Source\PSoC6\pdl\drivers\peripheral\profile/cy_profile.c **** }
 133:Generated_Source\PSoC6\pdl\drivers\peripheral\profile/cy_profile.c **** 
 134:Generated_Source\PSoC6\pdl\drivers\peripheral\profile/cy_profile.c **** 
 135:Generated_Source\PSoC6\pdl\drivers\peripheral\profile/cy_profile.c **** /* ========================================================================== */
 136:Generated_Source\PSoC6\pdl\drivers\peripheral\profile/cy_profile.c **** /* ===================    COUNTER FUNCTIONS SECTION    ====================== */
 137:Generated_Source\PSoC6\pdl\drivers\peripheral\profile/cy_profile.c **** /* ========================================================================== */
 138:Generated_Source\PSoC6\pdl\drivers\peripheral\profile/cy_profile.c **** /*******************************************************************************
 139:Generated_Source\PSoC6\pdl\drivers\peripheral\profile/cy_profile.c **** * Function Name: Cy_Profile_ClearConfiguration
 140:Generated_Source\PSoC6\pdl\drivers\peripheral\profile/cy_profile.c **** ****************************************************************************//**
 141:Generated_Source\PSoC6\pdl\drivers\peripheral\profile/cy_profile.c **** *
ARM GAS  C:\Users\gjl\AppData\Local\Temp\ccr7sVFh.s 			page 7


 142:Generated_Source\PSoC6\pdl\drivers\peripheral\profile/cy_profile.c **** * Clears all counter configurations and sets all counters and overflow counters 
 143:Generated_Source\PSoC6\pdl\drivers\peripheral\profile/cy_profile.c **** * to 0. Calls Cy_Profile_ClearCounters() to clear counter registers.
 144:Generated_Source\PSoC6\pdl\drivers\peripheral\profile/cy_profile.c **** *
 145:Generated_Source\PSoC6\pdl\drivers\peripheral\profile/cy_profile.c **** * \funcusage
 146:Generated_Source\PSoC6\pdl\drivers\peripheral\profile/cy_profile.c **** * \snippet profile/profile_v1_0_sut_01.cydsn/main_cm4.c snippet_Cy_Profile_ClearConfiguration
 147:Generated_Source\PSoC6\pdl\drivers\peripheral\profile/cy_profile.c **** *
 148:Generated_Source\PSoC6\pdl\drivers\peripheral\profile/cy_profile.c **** *******************************************************************************/
 149:Generated_Source\PSoC6\pdl\drivers\peripheral\profile/cy_profile.c **** void Cy_Profile_ClearConfiguration(void)
 150:Generated_Source\PSoC6\pdl\drivers\peripheral\profile/cy_profile.c **** {
 198              		.loc 1 150 0
 199              		.cfi_startproc
 200              		@ args = 0, pretend = 0, frame = 0
 201              		@ frame_needed = 0, uses_anonymous_args = 0
 202 0000 08B5     		push	{r3, lr}
 203              		.cfi_def_cfa_offset 8
 204              		.cfi_offset 3, -8
 205              		.cfi_offset 14, -4
 151:Generated_Source\PSoC6\pdl\drivers\peripheral\profile/cy_profile.c ****     (void)memset((void *)cy_ep_ctrs, 0, sizeof(cy_ep_ctrs));
 206              		.loc 1 151 0
 207 0002 E022     		movs	r2, #224
 208 0004 0021     		movs	r1, #0
 209 0006 0448     		ldr	r0, .L22
 210 0008 FFF7FEFF 		bl	memset
 211              	.LVL18:
 212              	.LBB4:
 213              	.LBB5:
 214              		.file 2 "Generated_Source\\PSoC6\\pdl\\drivers\\peripheral\\profile\\cy_profile.h"
   1:Generated_Source\PSoC6\pdl\drivers\peripheral\profile/cy_profile.h **** /***************************************************************************//**
   2:Generated_Source\PSoC6\pdl\drivers\peripheral\profile/cy_profile.h **** * \file cy_profile.h
   3:Generated_Source\PSoC6\pdl\drivers\peripheral\profile/cy_profile.h **** * \version 1.0
   4:Generated_Source\PSoC6\pdl\drivers\peripheral\profile/cy_profile.h **** *
   5:Generated_Source\PSoC6\pdl\drivers\peripheral\profile/cy_profile.h **** * Provides an API declaration of the energy profiler driver.
   6:Generated_Source\PSoC6\pdl\drivers\peripheral\profile/cy_profile.h **** *
   7:Generated_Source\PSoC6\pdl\drivers\peripheral\profile/cy_profile.h **** ********************************************************************************
   8:Generated_Source\PSoC6\pdl\drivers\peripheral\profile/cy_profile.h **** * \copyright
   9:Generated_Source\PSoC6\pdl\drivers\peripheral\profile/cy_profile.h **** * Copyright 2016-2018, Cypress Semiconductor Corporation. All rights reserved.
  10:Generated_Source\PSoC6\pdl\drivers\peripheral\profile/cy_profile.h **** * You may use this file only in accordance with the license, terms, conditions,
  11:Generated_Source\PSoC6\pdl\drivers\peripheral\profile/cy_profile.h **** * disclaimers, and limitations in the end user license agreement accompanying
  12:Generated_Source\PSoC6\pdl\drivers\peripheral\profile/cy_profile.h **** * the software package with which this file was provided.
  13:Generated_Source\PSoC6\pdl\drivers\peripheral\profile/cy_profile.h **** *******************************************************************************/
  14:Generated_Source\PSoC6\pdl\drivers\peripheral\profile/cy_profile.h **** 
  15:Generated_Source\PSoC6\pdl\drivers\peripheral\profile/cy_profile.h **** /**
  16:Generated_Source\PSoC6\pdl\drivers\peripheral\profile/cy_profile.h **** * \defgroup group_energy_profiler Energy Profiler (Profile)
  17:Generated_Source\PSoC6\pdl\drivers\peripheral\profile/cy_profile.h **** * \{
  18:Generated_Source\PSoC6\pdl\drivers\peripheral\profile/cy_profile.h **** * 
  19:Generated_Source\PSoC6\pdl\drivers\peripheral\profile/cy_profile.h **** * The energy profiler driver is an API for configuring and using the profile 
  20:Generated_Source\PSoC6\pdl\drivers\peripheral\profile/cy_profile.h **** * hardware block. The profile block enables measurement of the signal activity
  21:Generated_Source\PSoC6\pdl\drivers\peripheral\profile/cy_profile.h **** * of select peripherals and monitor sources during a measurement window. Using
  22:Generated_Source\PSoC6\pdl\drivers\peripheral\profile/cy_profile.h **** * these measurements, it is possible to construct a profile of the energy consumed
  23:Generated_Source\PSoC6\pdl\drivers\peripheral\profile/cy_profile.h **** * in the device by scaling the individual peripheral actvities with appropriate
  24:Generated_Source\PSoC6\pdl\drivers\peripheral\profile/cy_profile.h **** * scaling (weight) factors. This gives the application the ability to monitor
  25:Generated_Source\PSoC6\pdl\drivers\peripheral\profile/cy_profile.h **** * the energy consumed by the internal resources with minimal CPU overhead and
  26:Generated_Source\PSoC6\pdl\drivers\peripheral\profile/cy_profile.h **** * without external monitoring hardware.
  27:Generated_Source\PSoC6\pdl\drivers\peripheral\profile/cy_profile.h **** *
  28:Generated_Source\PSoC6\pdl\drivers\peripheral\profile/cy_profile.h **** * \section group_profile_details Details
  29:Generated_Source\PSoC6\pdl\drivers\peripheral\profile/cy_profile.h **** *
  30:Generated_Source\PSoC6\pdl\drivers\peripheral\profile/cy_profile.h **** * \subsection group_profile_hardware Profile Hardware
ARM GAS  C:\Users\gjl\AppData\Local\Temp\ccr7sVFh.s 			page 8


  31:Generated_Source\PSoC6\pdl\drivers\peripheral\profile/cy_profile.h **** *
  32:Generated_Source\PSoC6\pdl\drivers\peripheral\profile/cy_profile.h **** * The profile hardware consists of a number of profile counters that accept specific
  33:Generated_Source\PSoC6\pdl\drivers\peripheral\profile/cy_profile.h **** * triggers for incrementing the count value. This allows the events of the source 
  34:Generated_Source\PSoC6\pdl\drivers\peripheral\profile/cy_profile.h **** * (such as the number of SCB0 bus accesses or the duration of time the BLE RX radio
  35:Generated_Source\PSoC6\pdl\drivers\peripheral\profile/cy_profile.h **** * is active) to be counted during the measurement window. The available monitor 
  36:Generated_Source\PSoC6\pdl\drivers\peripheral\profile/cy_profile.h **** * sources in the device can be found in the en_ep_mon_sel_t enum in the device 
  37:Generated_Source\PSoC6\pdl\drivers\peripheral\profile/cy_profile.h **** * configuration file (e.g. psoc62_config.h). These can be sourced to any of the
  38:Generated_Source\PSoC6\pdl\drivers\peripheral\profile/cy_profile.h **** * profile counters as triggers. There are two methods of using the monitor sources
  39:Generated_Source\PSoC6\pdl\drivers\peripheral\profile/cy_profile.h **** * in a profile counter.
  40:Generated_Source\PSoC6\pdl\drivers\peripheral\profile/cy_profile.h **** *
  41:Generated_Source\PSoC6\pdl\drivers\peripheral\profile/cy_profile.h **** * - Event: The count value is incremented when a pulse event signal is seen by the
  42:Generated_Source\PSoC6\pdl\drivers\peripheral\profile/cy_profile.h **** *   counter. This type of monitoring is suitable when the monitoring source of 
  43:Generated_Source\PSoC6\pdl\drivers\peripheral\profile/cy_profile.h **** *   interest needs to count the discrete events (such as the number of Flash read 
  44:Generated_Source\PSoC6\pdl\drivers\peripheral\profile/cy_profile.h **** *   accesses) happening in the measurement window.
  45:Generated_Source\PSoC6\pdl\drivers\peripheral\profile/cy_profile.h **** *
  46:Generated_Source\PSoC6\pdl\drivers\peripheral\profile/cy_profile.h **** * - Duration: The count value is incremented at every clock edge while the monitor
  47:Generated_Source\PSoC6\pdl\drivers\peripheral\profile/cy_profile.h **** *   signal is high. This type of monitoring is suitable when a signal is active for
  48:Generated_Source\PSoC6\pdl\drivers\peripheral\profile/cy_profile.h **** *   a finite amount of time (such as the time the BLE TX radio is active) and the
  49:Generated_Source\PSoC6\pdl\drivers\peripheral\profile/cy_profile.h **** *   duration needs to be expressed as number of clock cycles in the measurement window.
  50:Generated_Source\PSoC6\pdl\drivers\peripheral\profile/cy_profile.h **** *
  51:Generated_Source\PSoC6\pdl\drivers\peripheral\profile/cy_profile.h **** * Many of the available monitor sources are suitable for event type monitoring.
  52:Generated_Source\PSoC6\pdl\drivers\peripheral\profile/cy_profile.h **** * Using a duration type on these signals may not give valuable information. Review 
  53:Generated_Source\PSoC6\pdl\drivers\peripheral\profile/cy_profile.h **** * the device TRM for more information on the monitor sources and details on how they
  54:Generated_Source\PSoC6\pdl\drivers\peripheral\profile/cy_profile.h **** * should be used.
  55:Generated_Source\PSoC6\pdl\drivers\peripheral\profile/cy_profile.h **** *
  56:Generated_Source\PSoC6\pdl\drivers\peripheral\profile/cy_profile.h **** * \subsection group_profile_measurement_types Measurement Types
  57:Generated_Source\PSoC6\pdl\drivers\peripheral\profile/cy_profile.h **** *
  58:Generated_Source\PSoC6\pdl\drivers\peripheral\profile/cy_profile.h **** * Depending on the item of interest, energy measurement can be performed by using
  59:Generated_Source\PSoC6\pdl\drivers\peripheral\profile/cy_profile.h **** * the following methods.
  60:Generated_Source\PSoC6\pdl\drivers\peripheral\profile/cy_profile.h **** *
  61:Generated_Source\PSoC6\pdl\drivers\peripheral\profile/cy_profile.h **** * - Continuous measurement: A profile counter can be assigned a monitor signal of
  62:Generated_Source\PSoC6\pdl\drivers\peripheral\profile/cy_profile.h **** *   constant 1 (PROFILE_ONE), which sets the counter to increment at every (assigned)
  63:Generated_Source\PSoC6\pdl\drivers\peripheral\profile/cy_profile.h **** *   clock cycle. This can be used to give a reference time for the measurement window
  64:Generated_Source\PSoC6\pdl\drivers\peripheral\profile/cy_profile.h **** *   and also allows the construction of time stamps. For example, a software controlled
  65:Generated_Source\PSoC6\pdl\drivers\peripheral\profile/cy_profile.h **** *   GPIO can be "timestamped" by reading the counter value (on the fly) before it is
  66:Generated_Source\PSoC6\pdl\drivers\peripheral\profile/cy_profile.h **** *   toggled. When the measurement window ends, the energy contribution caused by the
  67:Generated_Source\PSoC6\pdl\drivers\peripheral\profile/cy_profile.h **** *   GPIO toggle can be incorporated into the final calculation.
  68:Generated_Source\PSoC6\pdl\drivers\peripheral\profile/cy_profile.h **** *
  69:Generated_Source\PSoC6\pdl\drivers\peripheral\profile/cy_profile.h **** * - Event measurement: Monitored events happening in a measurement window can be 
  70:Generated_Source\PSoC6\pdl\drivers\peripheral\profile/cy_profile.h **** *   used to increment a profile counter. This gives the activity numbers, which can
  71:Generated_Source\PSoC6\pdl\drivers\peripheral\profile/cy_profile.h **** *   then be multiplied by the instantaneous power numbers associated with the source
  72:Generated_Source\PSoC6\pdl\drivers\peripheral\profile/cy_profile.h **** *   to give the average energy consumption (Energy = Power x time). For example, the 
  73:Generated_Source\PSoC6\pdl\drivers\peripheral\profile/cy_profile.h **** *   energy consumped by an Operating System (OS) task can be estimated by monitoring
  74:Generated_Source\PSoC6\pdl\drivers\peripheral\profile/cy_profile.h **** *   the processor's active cycle count (E.g. CPUSS_MONITOR_CM4) and the Flash read
  75:Generated_Source\PSoC6\pdl\drivers\peripheral\profile/cy_profile.h **** *   accesses (CPUSS_MONITOR_FLASH). Note that these activity numbers can also be 
  76:Generated_Source\PSoC6\pdl\drivers\peripheral\profile/cy_profile.h **** *   timestamped using the continuous measurement method to differentiate between the
  77:Generated_Source\PSoC6\pdl\drivers\peripheral\profile/cy_profile.h **** *   different task switches. The activity numbers are then multiplied by the associated
  78:Generated_Source\PSoC6\pdl\drivers\peripheral\profile/cy_profile.h **** *   processor and flash access power numbers to give the average energy consumed by
  79:Generated_Source\PSoC6\pdl\drivers\peripheral\profile/cy_profile.h **** *   that task.
  80:Generated_Source\PSoC6\pdl\drivers\peripheral\profile/cy_profile.h **** *
  81:Generated_Source\PSoC6\pdl\drivers\peripheral\profile/cy_profile.h **** * - Duration measurement: A peripheral event such as the SMIF select signal can be 
  82:Generated_Source\PSoC6\pdl\drivers\peripheral\profile/cy_profile.h **** *   used by a profile counter to measure the time spent on XIP communication through the 
  83:Generated_Source\PSoC6\pdl\drivers\peripheral\profile/cy_profile.h **** *   SPI interface. This activity number can then be multiplied by the power associated
  84:Generated_Source\PSoC6\pdl\drivers\peripheral\profile/cy_profile.h **** *   with that activity to give the average energy consumed by that block during the
  85:Generated_Source\PSoC6\pdl\drivers\peripheral\profile/cy_profile.h **** *   measurement window. This type of monitoring should only be performed for signals
  86:Generated_Source\PSoC6\pdl\drivers\peripheral\profile/cy_profile.h **** *   that are difficult to track in software. For example, a combination of interrupts
  87:Generated_Source\PSoC6\pdl\drivers\peripheral\profile/cy_profile.h **** *   and time stamps can be used to track the activity of many peripherals in a continuous
ARM GAS  C:\Users\gjl\AppData\Local\Temp\ccr7sVFh.s 			page 9


  88:Generated_Source\PSoC6\pdl\drivers\peripheral\profile/cy_profile.h **** *   monitoring model. However tracking the activity of signals such the BLE radio
  89:Generated_Source\PSoC6\pdl\drivers\peripheral\profile/cy_profile.h **** *   should be done using the duration measurement method.
  90:Generated_Source\PSoC6\pdl\drivers\peripheral\profile/cy_profile.h **** *
  91:Generated_Source\PSoC6\pdl\drivers\peripheral\profile/cy_profile.h **** * - Low power measurement: The profile counters do not support measurement during chip 
  92:Generated_Source\PSoC6\pdl\drivers\peripheral\profile/cy_profile.h **** *   deep-sleep, hibernate and off states. i.e. the profile counters are meant for active
  93:Generated_Source\PSoC6\pdl\drivers\peripheral\profile/cy_profile.h **** *   run-time measurements only. In order to measure the time spent in low power modes (LPM),
  94:Generated_Source\PSoC6\pdl\drivers\peripheral\profile/cy_profile.h **** *   a real-time clock (RTC) should be used. Take a timestamp before LPM entry and a 
  95:Generated_Source\PSoC6\pdl\drivers\peripheral\profile/cy_profile.h **** *   timestamp upon LPM exit in a continuous measurement model. Then multiply the difference
  96:Generated_Source\PSoC6\pdl\drivers\peripheral\profile/cy_profile.h **** *   by the appropriate LPM power numbers.
  97:Generated_Source\PSoC6\pdl\drivers\peripheral\profile/cy_profile.h **** *
  98:Generated_Source\PSoC6\pdl\drivers\peripheral\profile/cy_profile.h **** * \subsection group_profile_usage Driver Usage
  99:Generated_Source\PSoC6\pdl\drivers\peripheral\profile/cy_profile.h **** *
 100:Generated_Source\PSoC6\pdl\drivers\peripheral\profile/cy_profile.h **** * At the highest level, the energy profiler must perform the following steps to 
 101:Generated_Source\PSoC6\pdl\drivers\peripheral\profile/cy_profile.h **** * obtain a measurement:
 102:Generated_Source\PSoC6\pdl\drivers\peripheral\profile/cy_profile.h **** *
 103:Generated_Source\PSoC6\pdl\drivers\peripheral\profile/cy_profile.h **** *  1. Initialize the profile hardware block.
 104:Generated_Source\PSoC6\pdl\drivers\peripheral\profile/cy_profile.h **** *  2. Initialize the profile interrupt (profile_interrupt_IRQn).
 105:Generated_Source\PSoC6\pdl\drivers\peripheral\profile/cy_profile.h **** *  3. Configure, initialize, and enable the profile counters.
 106:Generated_Source\PSoC6\pdl\drivers\peripheral\profile/cy_profile.h **** *  4. Enable the profile interrupt and start the profiling/measurement window.
 107:Generated_Source\PSoC6\pdl\drivers\peripheral\profile/cy_profile.h **** *  5. Perform run-time reads of the counters (if needed).
 108:Generated_Source\PSoC6\pdl\drivers\peripheral\profile/cy_profile.h **** *  6. Disable the profile interrupt and stop the profiling/measurement window.
 109:Generated_Source\PSoC6\pdl\drivers\peripheral\profile/cy_profile.h **** *  7. Read the counters and gather the results.
 110:Generated_Source\PSoC6\pdl\drivers\peripheral\profile/cy_profile.h **** *  8. Calculate the energy consumption.
 111:Generated_Source\PSoC6\pdl\drivers\peripheral\profile/cy_profile.h **** *
 112:Generated_Source\PSoC6\pdl\drivers\peripheral\profile/cy_profile.h **** * Refer to the SysInt driver on the details of configuring the profile hardware interrupt.
 113:Generated_Source\PSoC6\pdl\drivers\peripheral\profile/cy_profile.h **** *
 114:Generated_Source\PSoC6\pdl\drivers\peripheral\profile/cy_profile.h **** * The profile interrupt triggers when a counter overflow event is detected on any of the
 115:Generated_Source\PSoC6\pdl\drivers\peripheral\profile/cy_profile.h **** * enabled profile counters. A sample interrupt service routine Cy_Profile_ISR() is provided,
 116:Generated_Source\PSoC6\pdl\drivers\peripheral\profile/cy_profile.h **** * which can be used to update the internal counter states stored in RAM. Refer to the
 117:Generated_Source\PSoC6\pdl\drivers\peripheral\profile/cy_profile.h **** * Configuration Considerations for more information.
 118:Generated_Source\PSoC6\pdl\drivers\peripheral\profile/cy_profile.h **** *
 119:Generated_Source\PSoC6\pdl\drivers\peripheral\profile/cy_profile.h **** * \section group_profile_configuration Configuration Considerations
 120:Generated_Source\PSoC6\pdl\drivers\peripheral\profile/cy_profile.h **** * 
 121:Generated_Source\PSoC6\pdl\drivers\peripheral\profile/cy_profile.h **** * Each counter is a 32-bit register that counts either a number of clock cycles, 
 122:Generated_Source\PSoC6\pdl\drivers\peripheral\profile/cy_profile.h **** * or a number of events. It is possible to overflow the 32-bit register. To address
 123:Generated_Source\PSoC6\pdl\drivers\peripheral\profile/cy_profile.h **** * this issue, the driver implements a 32-bit overflow counter. Combined with the 32-bit
 124:Generated_Source\PSoC6\pdl\drivers\peripheral\profile/cy_profile.h **** * register, this gives a 64-bit counter for each monitored source. 
 125:Generated_Source\PSoC6\pdl\drivers\peripheral\profile/cy_profile.h **** *
 126:Generated_Source\PSoC6\pdl\drivers\peripheral\profile/cy_profile.h **** * When an overflow occurs, the profile hardware generates an interrupt. The interrupt is 
 127:Generated_Source\PSoC6\pdl\drivers\peripheral\profile/cy_profile.h **** * configured using the SysInt driver, where the sample interrupt handler Cy_Profile_ISR()
 128:Generated_Source\PSoC6\pdl\drivers\peripheral\profile/cy_profile.h **** * can be used as the ISR. The ISR increments the overflow counter for each profiling counter 
 129:Generated_Source\PSoC6\pdl\drivers\peripheral\profile/cy_profile.h **** * and clears the interrupt.
 130:Generated_Source\PSoC6\pdl\drivers\peripheral\profile/cy_profile.h **** *
 131:Generated_Source\PSoC6\pdl\drivers\peripheral\profile/cy_profile.h **** * \section group_profile_more_information More Information
 132:Generated_Source\PSoC6\pdl\drivers\peripheral\profile/cy_profile.h **** *
 133:Generated_Source\PSoC6\pdl\drivers\peripheral\profile/cy_profile.h **** * See the profiler chapter of the device technical reference manual (TRM).
 134:Generated_Source\PSoC6\pdl\drivers\peripheral\profile/cy_profile.h **** *
 135:Generated_Source\PSoC6\pdl\drivers\peripheral\profile/cy_profile.h **** * \section group_profile_MISRA MISRA-C Compliance
 136:Generated_Source\PSoC6\pdl\drivers\peripheral\profile/cy_profile.h **** * <table class="doxtable">
 137:Generated_Source\PSoC6\pdl\drivers\peripheral\profile/cy_profile.h **** *   <tr>
 138:Generated_Source\PSoC6\pdl\drivers\peripheral\profile/cy_profile.h **** *     <th>MISRA Rule</th>
 139:Generated_Source\PSoC6\pdl\drivers\peripheral\profile/cy_profile.h **** *     <th>Rule Class (Required/Advisory)</th>
 140:Generated_Source\PSoC6\pdl\drivers\peripheral\profile/cy_profile.h **** *     <th>Rule Description</th>
 141:Generated_Source\PSoC6\pdl\drivers\peripheral\profile/cy_profile.h **** *     <th>Description of Deviation(s)</th>
 142:Generated_Source\PSoC6\pdl\drivers\peripheral\profile/cy_profile.h **** *   </tr>
 143:Generated_Source\PSoC6\pdl\drivers\peripheral\profile/cy_profile.h **** *   <tr>
 144:Generated_Source\PSoC6\pdl\drivers\peripheral\profile/cy_profile.h **** *     <td>12.4</td>
ARM GAS  C:\Users\gjl\AppData\Local\Temp\ccr7sVFh.s 			page 10


 145:Generated_Source\PSoC6\pdl\drivers\peripheral\profile/cy_profile.h **** *     <td>R</td>
 146:Generated_Source\PSoC6\pdl\drivers\peripheral\profile/cy_profile.h **** *     <td>Right hand operand of '&&' or '||' is an expression with possible side effects.</td>
 147:Generated_Source\PSoC6\pdl\drivers\peripheral\profile/cy_profile.h **** *     <td>Function-like macros are used to achieve more efficient code.</td>
 148:Generated_Source\PSoC6\pdl\drivers\peripheral\profile/cy_profile.h **** *   </tr>
 149:Generated_Source\PSoC6\pdl\drivers\peripheral\profile/cy_profile.h **** *   <tr>
 150:Generated_Source\PSoC6\pdl\drivers\peripheral\profile/cy_profile.h **** *     <td>16.7</td>
 151:Generated_Source\PSoC6\pdl\drivers\peripheral\profile/cy_profile.h **** *     <td>A</td>
 152:Generated_Source\PSoC6\pdl\drivers\peripheral\profile/cy_profile.h **** *     <td>A pointer parameter can be of type 'pointer to const'.</td>
 153:Generated_Source\PSoC6\pdl\drivers\peripheral\profile/cy_profile.h **** *     <td>The pointer is cast for comparison purposes and thus can't be a const.</td>
 154:Generated_Source\PSoC6\pdl\drivers\peripheral\profile/cy_profile.h **** *   </tr>
 155:Generated_Source\PSoC6\pdl\drivers\peripheral\profile/cy_profile.h **** * </table>
 156:Generated_Source\PSoC6\pdl\drivers\peripheral\profile/cy_profile.h **** *
 157:Generated_Source\PSoC6\pdl\drivers\peripheral\profile/cy_profile.h **** * \section group_profile_changelog Changelog
 158:Generated_Source\PSoC6\pdl\drivers\peripheral\profile/cy_profile.h **** * <table class="doxtable">
 159:Generated_Source\PSoC6\pdl\drivers\peripheral\profile/cy_profile.h **** *   <tr><th>Version</th><th>Changes</th><th>Reason for Change</th></tr>
 160:Generated_Source\PSoC6\pdl\drivers\peripheral\profile/cy_profile.h **** *   <tr>
 161:Generated_Source\PSoC6\pdl\drivers\peripheral\profile/cy_profile.h **** *     <td>1.0</td>
 162:Generated_Source\PSoC6\pdl\drivers\peripheral\profile/cy_profile.h **** *     <td>Initial version</td>
 163:Generated_Source\PSoC6\pdl\drivers\peripheral\profile/cy_profile.h **** *     <td></td>
 164:Generated_Source\PSoC6\pdl\drivers\peripheral\profile/cy_profile.h **** *   </tr>
 165:Generated_Source\PSoC6\pdl\drivers\peripheral\profile/cy_profile.h **** * </table>
 166:Generated_Source\PSoC6\pdl\drivers\peripheral\profile/cy_profile.h **** *
 167:Generated_Source\PSoC6\pdl\drivers\peripheral\profile/cy_profile.h **** * \defgroup group_profile_macros Macros
 168:Generated_Source\PSoC6\pdl\drivers\peripheral\profile/cy_profile.h **** * \defgroup group_profile_functions Functions
 169:Generated_Source\PSoC6\pdl\drivers\peripheral\profile/cy_profile.h **** * \{
 170:Generated_Source\PSoC6\pdl\drivers\peripheral\profile/cy_profile.h **** *   \defgroup group_profile_functions_interrupt    Interrupt Functions
 171:Generated_Source\PSoC6\pdl\drivers\peripheral\profile/cy_profile.h **** *   \defgroup group_profile_functions_general      General Functions
 172:Generated_Source\PSoC6\pdl\drivers\peripheral\profile/cy_profile.h **** *   \defgroup group_profile_functions_counter      Counter Functions
 173:Generated_Source\PSoC6\pdl\drivers\peripheral\profile/cy_profile.h **** *   \defgroup group_profile_functions_calculation  Calculation Functions
 174:Generated_Source\PSoC6\pdl\drivers\peripheral\profile/cy_profile.h **** * \}
 175:Generated_Source\PSoC6\pdl\drivers\peripheral\profile/cy_profile.h **** * \defgroup group_profile_data_structures Data Structures
 176:Generated_Source\PSoC6\pdl\drivers\peripheral\profile/cy_profile.h **** * \defgroup group_profile_enums Enumerated Types
 177:Generated_Source\PSoC6\pdl\drivers\peripheral\profile/cy_profile.h **** */
 178:Generated_Source\PSoC6\pdl\drivers\peripheral\profile/cy_profile.h **** 
 179:Generated_Source\PSoC6\pdl\drivers\peripheral\profile/cy_profile.h **** #if !defined(CY_PROFILE_H)
 180:Generated_Source\PSoC6\pdl\drivers\peripheral\profile/cy_profile.h **** #define CY_PROFILE_H
 181:Generated_Source\PSoC6\pdl\drivers\peripheral\profile/cy_profile.h **** 
 182:Generated_Source\PSoC6\pdl\drivers\peripheral\profile/cy_profile.h **** #include "cy_device_headers.h"
 183:Generated_Source\PSoC6\pdl\drivers\peripheral\profile/cy_profile.h **** #include "syslib/cy_syslib.h"
 184:Generated_Source\PSoC6\pdl\drivers\peripheral\profile/cy_profile.h **** #include <stddef.h>
 185:Generated_Source\PSoC6\pdl\drivers\peripheral\profile/cy_profile.h **** 
 186:Generated_Source\PSoC6\pdl\drivers\peripheral\profile/cy_profile.h **** #ifndef CY_IP_MXPROFILE
 187:Generated_Source\PSoC6\pdl\drivers\peripheral\profile/cy_profile.h ****     #error "The PROFILE driver is not supported on this device"
 188:Generated_Source\PSoC6\pdl\drivers\peripheral\profile/cy_profile.h **** #endif
 189:Generated_Source\PSoC6\pdl\drivers\peripheral\profile/cy_profile.h **** 
 190:Generated_Source\PSoC6\pdl\drivers\peripheral\profile/cy_profile.h **** #if defined(__cplusplus)
 191:Generated_Source\PSoC6\pdl\drivers\peripheral\profile/cy_profile.h **** extern "C" {
 192:Generated_Source\PSoC6\pdl\drivers\peripheral\profile/cy_profile.h **** #endif /* __cplusplus */
 193:Generated_Source\PSoC6\pdl\drivers\peripheral\profile/cy_profile.h **** 
 194:Generated_Source\PSoC6\pdl\drivers\peripheral\profile/cy_profile.h **** /** \addtogroup group_profile_macros
 195:Generated_Source\PSoC6\pdl\drivers\peripheral\profile/cy_profile.h **** * \{
 196:Generated_Source\PSoC6\pdl\drivers\peripheral\profile/cy_profile.h **** */
 197:Generated_Source\PSoC6\pdl\drivers\peripheral\profile/cy_profile.h **** 
 198:Generated_Source\PSoC6\pdl\drivers\peripheral\profile/cy_profile.h **** /** Driver major version */
 199:Generated_Source\PSoC6\pdl\drivers\peripheral\profile/cy_profile.h **** #define CY_PROFILE_DRV_VERSION_MAJOR  1
 200:Generated_Source\PSoC6\pdl\drivers\peripheral\profile/cy_profile.h **** 
 201:Generated_Source\PSoC6\pdl\drivers\peripheral\profile/cy_profile.h **** /** Driver minor version */
ARM GAS  C:\Users\gjl\AppData\Local\Temp\ccr7sVFh.s 			page 11


 202:Generated_Source\PSoC6\pdl\drivers\peripheral\profile/cy_profile.h **** #define CY_PROFILE_DRV_VERSION_MINOR  0
 203:Generated_Source\PSoC6\pdl\drivers\peripheral\profile/cy_profile.h **** 
 204:Generated_Source\PSoC6\pdl\drivers\peripheral\profile/cy_profile.h **** /** Profile driver identifier */
 205:Generated_Source\PSoC6\pdl\drivers\peripheral\profile/cy_profile.h **** #define CY_PROFILE_ID   CY_PDL_DRV_ID(0x1EU)
 206:Generated_Source\PSoC6\pdl\drivers\peripheral\profile/cy_profile.h **** 
 207:Generated_Source\PSoC6\pdl\drivers\peripheral\profile/cy_profile.h **** /** Start profiling command for the CMD register */
 208:Generated_Source\PSoC6\pdl\drivers\peripheral\profile/cy_profile.h **** #define CY_PROFILE_START_TR    1UL  
 209:Generated_Source\PSoC6\pdl\drivers\peripheral\profile/cy_profile.h **** 
 210:Generated_Source\PSoC6\pdl\drivers\peripheral\profile/cy_profile.h **** /** Stop profiling command for the CMD register */
 211:Generated_Source\PSoC6\pdl\drivers\peripheral\profile/cy_profile.h **** #define CY_PROFILE_STOP_TR     2UL  
 212:Generated_Source\PSoC6\pdl\drivers\peripheral\profile/cy_profile.h **** 
 213:Generated_Source\PSoC6\pdl\drivers\peripheral\profile/cy_profile.h **** /** Command to clear all counter registers to 0 */
 214:Generated_Source\PSoC6\pdl\drivers\peripheral\profile/cy_profile.h **** #define CY_PROFILE_CLR_ALL_CNT 0x100UL
 215:Generated_Source\PSoC6\pdl\drivers\peripheral\profile/cy_profile.h **** 
 216:Generated_Source\PSoC6\pdl\drivers\peripheral\profile/cy_profile.h **** /** \} group_profile_macros */
 217:Generated_Source\PSoC6\pdl\drivers\peripheral\profile/cy_profile.h **** 
 218:Generated_Source\PSoC6\pdl\drivers\peripheral\profile/cy_profile.h **** /**
 219:Generated_Source\PSoC6\pdl\drivers\peripheral\profile/cy_profile.h **** * \addtogroup group_profile_enums
 220:Generated_Source\PSoC6\pdl\drivers\peripheral\profile/cy_profile.h **** * \{
 221:Generated_Source\PSoC6\pdl\drivers\peripheral\profile/cy_profile.h **** */
 222:Generated_Source\PSoC6\pdl\drivers\peripheral\profile/cy_profile.h **** 
 223:Generated_Source\PSoC6\pdl\drivers\peripheral\profile/cy_profile.h **** /**
 224:Generated_Source\PSoC6\pdl\drivers\peripheral\profile/cy_profile.h **** * Profile counter reference clock source. Used when duration monitoring.
 225:Generated_Source\PSoC6\pdl\drivers\peripheral\profile/cy_profile.h **** */
 226:Generated_Source\PSoC6\pdl\drivers\peripheral\profile/cy_profile.h **** typedef enum 
 227:Generated_Source\PSoC6\pdl\drivers\peripheral\profile/cy_profile.h **** {
 228:Generated_Source\PSoC6\pdl\drivers\peripheral\profile/cy_profile.h ****     CY_PROFILE_CLK_TIMER  = 0, /**< Timer clock (TimerClk) */
 229:Generated_Source\PSoC6\pdl\drivers\peripheral\profile/cy_profile.h ****     CY_PROFILE_CLK_IMO    = 1, /**< Internal main oscillator (IMO) */
 230:Generated_Source\PSoC6\pdl\drivers\peripheral\profile/cy_profile.h ****     CY_PROFILE_CLK_ECO    = 2, /**< External crystal oscillator (ECO) */
 231:Generated_Source\PSoC6\pdl\drivers\peripheral\profile/cy_profile.h ****     CY_PROFILE_CLK_LF     = 3, /**< Low-frequency clock (LFCLK) */
 232:Generated_Source\PSoC6\pdl\drivers\peripheral\profile/cy_profile.h ****     CY_PROFILE_CLK_HF     = 4, /**< High-Frequency clock (HFCLK0) */
 233:Generated_Source\PSoC6\pdl\drivers\peripheral\profile/cy_profile.h ****     CY_PROFILE_CLK_PERI   = 5, /**< Peripheral clock (PeriClk) */
 234:Generated_Source\PSoC6\pdl\drivers\peripheral\profile/cy_profile.h **** } cy_en_profile_ref_clk_t;
 235:Generated_Source\PSoC6\pdl\drivers\peripheral\profile/cy_profile.h **** 
 236:Generated_Source\PSoC6\pdl\drivers\peripheral\profile/cy_profile.h **** /**
 237:Generated_Source\PSoC6\pdl\drivers\peripheral\profile/cy_profile.h **** * Monitor method type.
 238:Generated_Source\PSoC6\pdl\drivers\peripheral\profile/cy_profile.h **** */
 239:Generated_Source\PSoC6\pdl\drivers\peripheral\profile/cy_profile.h **** typedef enum 
 240:Generated_Source\PSoC6\pdl\drivers\peripheral\profile/cy_profile.h **** {
 241:Generated_Source\PSoC6\pdl\drivers\peripheral\profile/cy_profile.h ****     CY_PROFILE_EVENT    = 0,  /**< Count (edge-detected) module events  */
 242:Generated_Source\PSoC6\pdl\drivers\peripheral\profile/cy_profile.h ****     CY_PROFILE_DURATION = 1,  /**< Count (level) duration in clock cycles */
 243:Generated_Source\PSoC6\pdl\drivers\peripheral\profile/cy_profile.h **** } cy_en_profile_duration_t;
 244:Generated_Source\PSoC6\pdl\drivers\peripheral\profile/cy_profile.h **** 
 245:Generated_Source\PSoC6\pdl\drivers\peripheral\profile/cy_profile.h **** /** Profiler status codes */
 246:Generated_Source\PSoC6\pdl\drivers\peripheral\profile/cy_profile.h **** typedef enum 
 247:Generated_Source\PSoC6\pdl\drivers\peripheral\profile/cy_profile.h **** {
 248:Generated_Source\PSoC6\pdl\drivers\peripheral\profile/cy_profile.h ****     CY_PROFILE_SUCCESS = 0x00U,                                      /**< Operation completed succe
 249:Generated_Source\PSoC6\pdl\drivers\peripheral\profile/cy_profile.h ****     CY_PROFILE_BAD_PARAM = CY_PROFILE_ID | CY_PDL_STATUS_ERROR | 1UL /**< Invalid input parameters 
 250:Generated_Source\PSoC6\pdl\drivers\peripheral\profile/cy_profile.h **** 
 251:Generated_Source\PSoC6\pdl\drivers\peripheral\profile/cy_profile.h ****  } cy_en_profile_status_t;
 252:Generated_Source\PSoC6\pdl\drivers\peripheral\profile/cy_profile.h **** 
 253:Generated_Source\PSoC6\pdl\drivers\peripheral\profile/cy_profile.h ****  /** \} group_profile_enums */
 254:Generated_Source\PSoC6\pdl\drivers\peripheral\profile/cy_profile.h **** 
 255:Generated_Source\PSoC6\pdl\drivers\peripheral\profile/cy_profile.h **** /**
 256:Generated_Source\PSoC6\pdl\drivers\peripheral\profile/cy_profile.h **** * \addtogroup group_profile_data_structures
 257:Generated_Source\PSoC6\pdl\drivers\peripheral\profile/cy_profile.h **** * \{
 258:Generated_Source\PSoC6\pdl\drivers\peripheral\profile/cy_profile.h **** */
ARM GAS  C:\Users\gjl\AppData\Local\Temp\ccr7sVFh.s 			page 12


 259:Generated_Source\PSoC6\pdl\drivers\peripheral\profile/cy_profile.h **** 
 260:Generated_Source\PSoC6\pdl\drivers\peripheral\profile/cy_profile.h **** /**
 261:Generated_Source\PSoC6\pdl\drivers\peripheral\profile/cy_profile.h **** * Profile counter control register structure. For each counter, holds the CTL register fields.
 262:Generated_Source\PSoC6\pdl\drivers\peripheral\profile/cy_profile.h **** */
 263:Generated_Source\PSoC6\pdl\drivers\peripheral\profile/cy_profile.h **** typedef struct
 264:Generated_Source\PSoC6\pdl\drivers\peripheral\profile/cy_profile.h **** {
 265:Generated_Source\PSoC6\pdl\drivers\peripheral\profile/cy_profile.h ****     cy_en_profile_duration_t  cntDuration; /**< 0 = event; 1 = duration */
 266:Generated_Source\PSoC6\pdl\drivers\peripheral\profile/cy_profile.h ****     cy_en_profile_ref_clk_t   refClkSel;   /**< The reference clock used by the counter */
 267:Generated_Source\PSoC6\pdl\drivers\peripheral\profile/cy_profile.h ****     en_ep_mon_sel_t           monSel;      /**< The monitor signal to be observed by the counter */
 268:Generated_Source\PSoC6\pdl\drivers\peripheral\profile/cy_profile.h **** } cy_stc_profile_ctr_ctl_t; 
 269:Generated_Source\PSoC6\pdl\drivers\peripheral\profile/cy_profile.h **** 
 270:Generated_Source\PSoC6\pdl\drivers\peripheral\profile/cy_profile.h **** /**
 271:Generated_Source\PSoC6\pdl\drivers\peripheral\profile/cy_profile.h **** * Software structure for holding a profile counter status and configuration information.
 272:Generated_Source\PSoC6\pdl\drivers\peripheral\profile/cy_profile.h **** */
 273:Generated_Source\PSoC6\pdl\drivers\peripheral\profile/cy_profile.h **** typedef struct
 274:Generated_Source\PSoC6\pdl\drivers\peripheral\profile/cy_profile.h **** {
 275:Generated_Source\PSoC6\pdl\drivers\peripheral\profile/cy_profile.h ****     uint8_t                   ctrNum;      /**< Profile counter number */ 
 276:Generated_Source\PSoC6\pdl\drivers\peripheral\profile/cy_profile.h ****     uint8_t                   used;        /**< 0 = available; 1 = used */
 277:Generated_Source\PSoC6\pdl\drivers\peripheral\profile/cy_profile.h ****     cy_stc_profile_ctr_ctl_t  ctlRegVals;  /**< Initial counter CTL register settings */
 278:Generated_Source\PSoC6\pdl\drivers\peripheral\profile/cy_profile.h ****     PROFILE_CNT_STRUCT_Type * cntAddr;     /**< Base address of the counter instance registers */
 279:Generated_Source\PSoC6\pdl\drivers\peripheral\profile/cy_profile.h ****     uint32_t                  ctlReg;      /**< Current CTL register value */
 280:Generated_Source\PSoC6\pdl\drivers\peripheral\profile/cy_profile.h ****     uint32_t                  cntReg;      /**< Current CNT register value */
 281:Generated_Source\PSoC6\pdl\drivers\peripheral\profile/cy_profile.h ****     uint32_t                  overflow;    /**< Extension of cntReg to form a 64-bit counter value 
 282:Generated_Source\PSoC6\pdl\drivers\peripheral\profile/cy_profile.h ****     uint32_t                  weight;      /**< Weighting factor for the counter */
 283:Generated_Source\PSoC6\pdl\drivers\peripheral\profile/cy_profile.h **** } cy_stc_profile_ctr_t;
 284:Generated_Source\PSoC6\pdl\drivers\peripheral\profile/cy_profile.h **** 
 285:Generated_Source\PSoC6\pdl\drivers\peripheral\profile/cy_profile.h **** /**
 286:Generated_Source\PSoC6\pdl\drivers\peripheral\profile/cy_profile.h **** * Pointer to a structure holding the status information for a profile counter.
 287:Generated_Source\PSoC6\pdl\drivers\peripheral\profile/cy_profile.h **** */
 288:Generated_Source\PSoC6\pdl\drivers\peripheral\profile/cy_profile.h **** typedef cy_stc_profile_ctr_t * cy_stc_profile_ctr_ptr_t;
 289:Generated_Source\PSoC6\pdl\drivers\peripheral\profile/cy_profile.h **** /** \} group_profile_data_structures */
 290:Generated_Source\PSoC6\pdl\drivers\peripheral\profile/cy_profile.h **** 
 291:Generated_Source\PSoC6\pdl\drivers\peripheral\profile/cy_profile.h **** /**
 292:Generated_Source\PSoC6\pdl\drivers\peripheral\profile/cy_profile.h **** * \addtogroup group_profile_functions
 293:Generated_Source\PSoC6\pdl\drivers\peripheral\profile/cy_profile.h **** * \{
 294:Generated_Source\PSoC6\pdl\drivers\peripheral\profile/cy_profile.h **** */
 295:Generated_Source\PSoC6\pdl\drivers\peripheral\profile/cy_profile.h **** 
 296:Generated_Source\PSoC6\pdl\drivers\peripheral\profile/cy_profile.h **** /**
 297:Generated_Source\PSoC6\pdl\drivers\peripheral\profile/cy_profile.h **** * \addtogroup group_profile_functions_interrupt
 298:Generated_Source\PSoC6\pdl\drivers\peripheral\profile/cy_profile.h **** * \{
 299:Generated_Source\PSoC6\pdl\drivers\peripheral\profile/cy_profile.h **** */
 300:Generated_Source\PSoC6\pdl\drivers\peripheral\profile/cy_profile.h **** /* ========================================================================== */
 301:Generated_Source\PSoC6\pdl\drivers\peripheral\profile/cy_profile.h **** /* ====================    INTERRUPT FUNCTION SECTION    ==================== */
 302:Generated_Source\PSoC6\pdl\drivers\peripheral\profile/cy_profile.h **** /* ========================================================================== */
 303:Generated_Source\PSoC6\pdl\drivers\peripheral\profile/cy_profile.h **** void Cy_Profile_ISR(void);
 304:Generated_Source\PSoC6\pdl\drivers\peripheral\profile/cy_profile.h **** /** \} group_profile_functions_interrupt */
 305:Generated_Source\PSoC6\pdl\drivers\peripheral\profile/cy_profile.h **** 
 306:Generated_Source\PSoC6\pdl\drivers\peripheral\profile/cy_profile.h **** /**
 307:Generated_Source\PSoC6\pdl\drivers\peripheral\profile/cy_profile.h **** * \addtogroup group_profile_functions_general
 308:Generated_Source\PSoC6\pdl\drivers\peripheral\profile/cy_profile.h **** * \{
 309:Generated_Source\PSoC6\pdl\drivers\peripheral\profile/cy_profile.h **** */
 310:Generated_Source\PSoC6\pdl\drivers\peripheral\profile/cy_profile.h **** __STATIC_INLINE void Cy_Profile_Init(void);
 311:Generated_Source\PSoC6\pdl\drivers\peripheral\profile/cy_profile.h **** __STATIC_INLINE void Cy_Profile_DeInit(void);
 312:Generated_Source\PSoC6\pdl\drivers\peripheral\profile/cy_profile.h **** void Cy_Profile_StartProfiling(void);
 313:Generated_Source\PSoC6\pdl\drivers\peripheral\profile/cy_profile.h **** __STATIC_INLINE void Cy_Profile_DeInit(void);
 314:Generated_Source\PSoC6\pdl\drivers\peripheral\profile/cy_profile.h **** __STATIC_INLINE void Cy_Profile_StopProfiling(void);
 315:Generated_Source\PSoC6\pdl\drivers\peripheral\profile/cy_profile.h **** __STATIC_INLINE uint32_t Cy_Profile_IsProfiling(void);
ARM GAS  C:\Users\gjl\AppData\Local\Temp\ccr7sVFh.s 			page 13


 316:Generated_Source\PSoC6\pdl\drivers\peripheral\profile/cy_profile.h **** 
 317:Generated_Source\PSoC6\pdl\drivers\peripheral\profile/cy_profile.h **** 
 318:Generated_Source\PSoC6\pdl\drivers\peripheral\profile/cy_profile.h **** /* ========================================================================== */
 319:Generated_Source\PSoC6\pdl\drivers\peripheral\profile/cy_profile.h **** /* ===============    GENERAL PROFILE FUNCTIONS SECTION     ================= */
 320:Generated_Source\PSoC6\pdl\drivers\peripheral\profile/cy_profile.h **** /* ========================================================================== */
 321:Generated_Source\PSoC6\pdl\drivers\peripheral\profile/cy_profile.h **** /*******************************************************************************
 322:Generated_Source\PSoC6\pdl\drivers\peripheral\profile/cy_profile.h **** * Function Name: Cy_Profile_Init
 323:Generated_Source\PSoC6\pdl\drivers\peripheral\profile/cy_profile.h **** ****************************************************************************//**
 324:Generated_Source\PSoC6\pdl\drivers\peripheral\profile/cy_profile.h **** *
 325:Generated_Source\PSoC6\pdl\drivers\peripheral\profile/cy_profile.h **** * Initializes and enables the profile hardware. 
 326:Generated_Source\PSoC6\pdl\drivers\peripheral\profile/cy_profile.h **** *
 327:Generated_Source\PSoC6\pdl\drivers\peripheral\profile/cy_profile.h **** * This function must be called once when energy profiling is desired. The 
 328:Generated_Source\PSoC6\pdl\drivers\peripheral\profile/cy_profile.h **** * operation does not start a profiling session.
 329:Generated_Source\PSoC6\pdl\drivers\peripheral\profile/cy_profile.h **** *
 330:Generated_Source\PSoC6\pdl\drivers\peripheral\profile/cy_profile.h **** * \note The profile interrupt must also be configured. \ref Cy_Profile_ISR() 
 331:Generated_Source\PSoC6\pdl\drivers\peripheral\profile/cy_profile.h **** * can be used as its handler.
 332:Generated_Source\PSoC6\pdl\drivers\peripheral\profile/cy_profile.h **** *
 333:Generated_Source\PSoC6\pdl\drivers\peripheral\profile/cy_profile.h **** * \funcusage
 334:Generated_Source\PSoC6\pdl\drivers\peripheral\profile/cy_profile.h **** * \snippet profile/profile_v1_0_sut_01.cydsn/main_cm4.c snippet_Cy_Profile_Init
 335:Generated_Source\PSoC6\pdl\drivers\peripheral\profile/cy_profile.h **** *
 336:Generated_Source\PSoC6\pdl\drivers\peripheral\profile/cy_profile.h **** *******************************************************************************/
 337:Generated_Source\PSoC6\pdl\drivers\peripheral\profile/cy_profile.h **** __STATIC_INLINE void Cy_Profile_Init(void)
 338:Generated_Source\PSoC6\pdl\drivers\peripheral\profile/cy_profile.h **** {
 339:Generated_Source\PSoC6\pdl\drivers\peripheral\profile/cy_profile.h ****     PROFILE->CTL = _VAL2FLD(PROFILE_CTL_ENABLED,  1UL/*enabled */) | 
 340:Generated_Source\PSoC6\pdl\drivers\peripheral\profile/cy_profile.h ****                    _VAL2FLD(PROFILE_CTL_WIN_MODE, 0UL/*start/stop mode*/);
 341:Generated_Source\PSoC6\pdl\drivers\peripheral\profile/cy_profile.h ****     PROFILE->INTR_MASK = 0UL; /* clear all counter interrupt mask bits */
 342:Generated_Source\PSoC6\pdl\drivers\peripheral\profile/cy_profile.h **** }
 343:Generated_Source\PSoC6\pdl\drivers\peripheral\profile/cy_profile.h **** 
 344:Generated_Source\PSoC6\pdl\drivers\peripheral\profile/cy_profile.h **** 
 345:Generated_Source\PSoC6\pdl\drivers\peripheral\profile/cy_profile.h **** /*******************************************************************************
 346:Generated_Source\PSoC6\pdl\drivers\peripheral\profile/cy_profile.h **** * Function Name: Cy_Profile_DeInit
 347:Generated_Source\PSoC6\pdl\drivers\peripheral\profile/cy_profile.h **** ****************************************************************************//**
 348:Generated_Source\PSoC6\pdl\drivers\peripheral\profile/cy_profile.h **** *
 349:Generated_Source\PSoC6\pdl\drivers\peripheral\profile/cy_profile.h **** * Clears the interrupt mask and disables the profile hardware. 
 350:Generated_Source\PSoC6\pdl\drivers\peripheral\profile/cy_profile.h **** *
 351:Generated_Source\PSoC6\pdl\drivers\peripheral\profile/cy_profile.h **** * This function should be called when energy profiling is no longer desired.
 352:Generated_Source\PSoC6\pdl\drivers\peripheral\profile/cy_profile.h **** *
 353:Generated_Source\PSoC6\pdl\drivers\peripheral\profile/cy_profile.h **** * \note The profile interrupt is not disabled by this operation and must be
 354:Generated_Source\PSoC6\pdl\drivers\peripheral\profile/cy_profile.h **** * disabled separately.
 355:Generated_Source\PSoC6\pdl\drivers\peripheral\profile/cy_profile.h **** *
 356:Generated_Source\PSoC6\pdl\drivers\peripheral\profile/cy_profile.h **** * \funcusage
 357:Generated_Source\PSoC6\pdl\drivers\peripheral\profile/cy_profile.h **** * \snippet profile/profile_v1_0_sut_01.cydsn/main_cm4.c snippet_Cy_Profile_DeInit
 358:Generated_Source\PSoC6\pdl\drivers\peripheral\profile/cy_profile.h **** *
 359:Generated_Source\PSoC6\pdl\drivers\peripheral\profile/cy_profile.h **** *******************************************************************************/
 360:Generated_Source\PSoC6\pdl\drivers\peripheral\profile/cy_profile.h **** __STATIC_INLINE void Cy_Profile_DeInit(void)
 361:Generated_Source\PSoC6\pdl\drivers\peripheral\profile/cy_profile.h **** {
 362:Generated_Source\PSoC6\pdl\drivers\peripheral\profile/cy_profile.h ****     PROFILE->CTL = _VAL2FLD(PROFILE_CTL_ENABLED, 0UL/*disabled */);
 363:Generated_Source\PSoC6\pdl\drivers\peripheral\profile/cy_profile.h ****     PROFILE->INTR_MASK = 0UL; /* clear all counter interrupt mask bits */
 364:Generated_Source\PSoC6\pdl\drivers\peripheral\profile/cy_profile.h **** }
 365:Generated_Source\PSoC6\pdl\drivers\peripheral\profile/cy_profile.h **** 
 366:Generated_Source\PSoC6\pdl\drivers\peripheral\profile/cy_profile.h **** 
 367:Generated_Source\PSoC6\pdl\drivers\peripheral\profile/cy_profile.h **** /*******************************************************************************
 368:Generated_Source\PSoC6\pdl\drivers\peripheral\profile/cy_profile.h **** * Function Name: Cy_Profile_StopProfiling
 369:Generated_Source\PSoC6\pdl\drivers\peripheral\profile/cy_profile.h **** ****************************************************************************//**
 370:Generated_Source\PSoC6\pdl\drivers\peripheral\profile/cy_profile.h **** *
 371:Generated_Source\PSoC6\pdl\drivers\peripheral\profile/cy_profile.h **** * Stops the profiling/measurement window.
 372:Generated_Source\PSoC6\pdl\drivers\peripheral\profile/cy_profile.h **** *
ARM GAS  C:\Users\gjl\AppData\Local\Temp\ccr7sVFh.s 			page 14


 373:Generated_Source\PSoC6\pdl\drivers\peripheral\profile/cy_profile.h **** * This operation prevents the enabled profile counters from counting.
 374:Generated_Source\PSoC6\pdl\drivers\peripheral\profile/cy_profile.h **** *
 375:Generated_Source\PSoC6\pdl\drivers\peripheral\profile/cy_profile.h **** * \note The profile interrupt should be disabled before calling this function.
 376:Generated_Source\PSoC6\pdl\drivers\peripheral\profile/cy_profile.h **** *
 377:Generated_Source\PSoC6\pdl\drivers\peripheral\profile/cy_profile.h **** * \funcusage
 378:Generated_Source\PSoC6\pdl\drivers\peripheral\profile/cy_profile.h **** * \snippet profile/profile_v1_0_sut_01.cydsn/main_cm4.c snippet_Cy_Profile_StopProfiling
 379:Generated_Source\PSoC6\pdl\drivers\peripheral\profile/cy_profile.h **** *
 380:Generated_Source\PSoC6\pdl\drivers\peripheral\profile/cy_profile.h **** *******************************************************************************/
 381:Generated_Source\PSoC6\pdl\drivers\peripheral\profile/cy_profile.h **** __STATIC_INLINE void Cy_Profile_StopProfiling(void)
 382:Generated_Source\PSoC6\pdl\drivers\peripheral\profile/cy_profile.h **** {
 383:Generated_Source\PSoC6\pdl\drivers\peripheral\profile/cy_profile.h ****     PROFILE->CMD = CY_PROFILE_STOP_TR;
 384:Generated_Source\PSoC6\pdl\drivers\peripheral\profile/cy_profile.h **** }
 385:Generated_Source\PSoC6\pdl\drivers\peripheral\profile/cy_profile.h **** 
 386:Generated_Source\PSoC6\pdl\drivers\peripheral\profile/cy_profile.h **** 
 387:Generated_Source\PSoC6\pdl\drivers\peripheral\profile/cy_profile.h **** /*******************************************************************************
 388:Generated_Source\PSoC6\pdl\drivers\peripheral\profile/cy_profile.h **** * Function Name: Cy_Profile_IsProfiling
 389:Generated_Source\PSoC6\pdl\drivers\peripheral\profile/cy_profile.h **** ****************************************************************************//**
 390:Generated_Source\PSoC6\pdl\drivers\peripheral\profile/cy_profile.h **** *
 391:Generated_Source\PSoC6\pdl\drivers\peripheral\profile/cy_profile.h **** * Reports the active status of the profiling window.
 392:Generated_Source\PSoC6\pdl\drivers\peripheral\profile/cy_profile.h **** *
 393:Generated_Source\PSoC6\pdl\drivers\peripheral\profile/cy_profile.h **** * \return 0 = profiling is not active; 1 = profiling is active
 394:Generated_Source\PSoC6\pdl\drivers\peripheral\profile/cy_profile.h **** *
 395:Generated_Source\PSoC6\pdl\drivers\peripheral\profile/cy_profile.h **** * \funcusage
 396:Generated_Source\PSoC6\pdl\drivers\peripheral\profile/cy_profile.h **** * \snippet profile/profile_v1_0_sut_01.cydsn/main_cm4.c snippet_Cy_Profile_IsProfiling
 397:Generated_Source\PSoC6\pdl\drivers\peripheral\profile/cy_profile.h **** *
 398:Generated_Source\PSoC6\pdl\drivers\peripheral\profile/cy_profile.h **** *******************************************************************************/
 399:Generated_Source\PSoC6\pdl\drivers\peripheral\profile/cy_profile.h **** __STATIC_INLINE uint32_t Cy_Profile_IsProfiling(void)
 400:Generated_Source\PSoC6\pdl\drivers\peripheral\profile/cy_profile.h **** {
 401:Generated_Source\PSoC6\pdl\drivers\peripheral\profile/cy_profile.h ****     return _FLD2VAL(PROFILE_STATUS_WIN_ACTIVE, PROFILE->STATUS);
 402:Generated_Source\PSoC6\pdl\drivers\peripheral\profile/cy_profile.h **** }
 403:Generated_Source\PSoC6\pdl\drivers\peripheral\profile/cy_profile.h **** /** \} group_profile_functions_general */
 404:Generated_Source\PSoC6\pdl\drivers\peripheral\profile/cy_profile.h **** 
 405:Generated_Source\PSoC6\pdl\drivers\peripheral\profile/cy_profile.h **** /**
 406:Generated_Source\PSoC6\pdl\drivers\peripheral\profile/cy_profile.h **** * \addtogroup group_profile_functions_counter
 407:Generated_Source\PSoC6\pdl\drivers\peripheral\profile/cy_profile.h **** * \{
 408:Generated_Source\PSoC6\pdl\drivers\peripheral\profile/cy_profile.h **** */
 409:Generated_Source\PSoC6\pdl\drivers\peripheral\profile/cy_profile.h **** void Cy_Profile_ClearConfiguration(void);
 410:Generated_Source\PSoC6\pdl\drivers\peripheral\profile/cy_profile.h **** __STATIC_INLINE void Cy_Profile_ClearCounters(void);
 411:Generated_Source\PSoC6\pdl\drivers\peripheral\profile/cy_profile.h **** cy_stc_profile_ctr_ptr_t Cy_Profile_ConfigureCounter(en_ep_mon_sel_t monitor, cy_en_profile_duratio
 412:Generated_Source\PSoC6\pdl\drivers\peripheral\profile/cy_profile.h **** cy_en_profile_status_t Cy_Profile_FreeCounter(cy_stc_profile_ctr_ptr_t ctrAddr);
 413:Generated_Source\PSoC6\pdl\drivers\peripheral\profile/cy_profile.h **** cy_en_profile_status_t Cy_Profile_EnableCounter(cy_stc_profile_ctr_ptr_t ctrAddr);
 414:Generated_Source\PSoC6\pdl\drivers\peripheral\profile/cy_profile.h **** cy_en_profile_status_t Cy_Profile_DisableCounter(cy_stc_profile_ctr_ptr_t ctrAddr);
 415:Generated_Source\PSoC6\pdl\drivers\peripheral\profile/cy_profile.h **** 
 416:Generated_Source\PSoC6\pdl\drivers\peripheral\profile/cy_profile.h **** /* ========================================================================== */
 417:Generated_Source\PSoC6\pdl\drivers\peripheral\profile/cy_profile.h **** /* ===================    COUNTER FUNCTIONS SECTION    ====================== */
 418:Generated_Source\PSoC6\pdl\drivers\peripheral\profile/cy_profile.h **** /* ========================================================================== */
 419:Generated_Source\PSoC6\pdl\drivers\peripheral\profile/cy_profile.h **** /*******************************************************************************
 420:Generated_Source\PSoC6\pdl\drivers\peripheral\profile/cy_profile.h **** * Function Name: Cy_Profile_ClearCounters
 421:Generated_Source\PSoC6\pdl\drivers\peripheral\profile/cy_profile.h **** ****************************************************************************//**
 422:Generated_Source\PSoC6\pdl\drivers\peripheral\profile/cy_profile.h **** *
 423:Generated_Source\PSoC6\pdl\drivers\peripheral\profile/cy_profile.h **** * Clears all hardware counters to 0.
 424:Generated_Source\PSoC6\pdl\drivers\peripheral\profile/cy_profile.h **** *
 425:Generated_Source\PSoC6\pdl\drivers\peripheral\profile/cy_profile.h **** * \funcusage
 426:Generated_Source\PSoC6\pdl\drivers\peripheral\profile/cy_profile.h **** * \snippet profile/profile_v1_0_sut_01.cydsn/main_cm4.c snippet_Cy_Profile_ClearCounters
 427:Generated_Source\PSoC6\pdl\drivers\peripheral\profile/cy_profile.h **** *
 428:Generated_Source\PSoC6\pdl\drivers\peripheral\profile/cy_profile.h **** *******************************************************************************/
 429:Generated_Source\PSoC6\pdl\drivers\peripheral\profile/cy_profile.h **** __STATIC_INLINE void Cy_Profile_ClearCounters(void)
ARM GAS  C:\Users\gjl\AppData\Local\Temp\ccr7sVFh.s 			page 15


 430:Generated_Source\PSoC6\pdl\drivers\peripheral\profile/cy_profile.h **** {
 431:Generated_Source\PSoC6\pdl\drivers\peripheral\profile/cy_profile.h ****     PROFILE->CMD = CY_PROFILE_CLR_ALL_CNT;
 215              		.loc 2 431 0
 216 000c 4FF48072 		mov	r2, #256
 217 0010 024B     		ldr	r3, .L22+4
 218 0012 1A61     		str	r2, [r3, #16]
 219 0014 08BD     		pop	{r3, pc}
 220              	.L23:
 221 0016 00BF     		.align	2
 222              	.L22:
 223 0018 00000000 		.word	.LANCHOR0
 224 001c 00002D40 		.word	1076690944
 225              	.LBE5:
 226              	.LBE4:
 227              		.cfi_endproc
 228              	.LFE133:
 229              		.size	Cy_Profile_ClearConfiguration, .-Cy_Profile_ClearConfiguration
 230              		.section	.text.Cy_Profile_ConfigureCounter,"ax",%progbits
 231              		.align	2
 232              		.global	Cy_Profile_ConfigureCounter
 233              		.thumb
 234              		.thumb_func
 235              		.type	Cy_Profile_ConfigureCounter, %function
 236              	Cy_Profile_ConfigureCounter:
 237              	.LFB134:
 152:Generated_Source\PSoC6\pdl\drivers\peripheral\profile/cy_profile.c ****     Cy_Profile_ClearCounters();
 153:Generated_Source\PSoC6\pdl\drivers\peripheral\profile/cy_profile.c **** }
 154:Generated_Source\PSoC6\pdl\drivers\peripheral\profile/cy_profile.c **** 
 155:Generated_Source\PSoC6\pdl\drivers\peripheral\profile/cy_profile.c **** 
 156:Generated_Source\PSoC6\pdl\drivers\peripheral\profile/cy_profile.c **** /*******************************************************************************
 157:Generated_Source\PSoC6\pdl\drivers\peripheral\profile/cy_profile.c **** * Function Name: Cy_Profile_ConfigureCounter
 158:Generated_Source\PSoC6\pdl\drivers\peripheral\profile/cy_profile.c **** ****************************************************************************//**
 159:Generated_Source\PSoC6\pdl\drivers\peripheral\profile/cy_profile.c **** *
 160:Generated_Source\PSoC6\pdl\drivers\peripheral\profile/cy_profile.c **** * Configures and assigns a hardware profile counter to the list of used counters.
 161:Generated_Source\PSoC6\pdl\drivers\peripheral\profile/cy_profile.c **** *
 162:Generated_Source\PSoC6\pdl\drivers\peripheral\profile/cy_profile.c **** * This function assigns an available profile counter to a slot in the internal 
 163:Generated_Source\PSoC6\pdl\drivers\peripheral\profile/cy_profile.c **** * software data structure and returns the handle for that slot location. The data
 164:Generated_Source\PSoC6\pdl\drivers\peripheral\profile/cy_profile.c **** * structure is used to keep track of the counter status and to implement a 64-bit
 165:Generated_Source\PSoC6\pdl\drivers\peripheral\profile/cy_profile.c **** * profile counter. If no counter slots are available, the function returns a
 166:Generated_Source\PSoC6\pdl\drivers\peripheral\profile/cy_profile.c **** * NULL pointer.
 167:Generated_Source\PSoC6\pdl\drivers\peripheral\profile/cy_profile.c **** * 
 168:Generated_Source\PSoC6\pdl\drivers\peripheral\profile/cy_profile.c **** * \param monitor The monitor source number
 169:Generated_Source\PSoC6\pdl\drivers\peripheral\profile/cy_profile.c **** *
 170:Generated_Source\PSoC6\pdl\drivers\peripheral\profile/cy_profile.c **** * \param duration Events are monitored (0), or duration is monitored (1)
 171:Generated_Source\PSoC6\pdl\drivers\peripheral\profile/cy_profile.c **** *
 172:Generated_Source\PSoC6\pdl\drivers\peripheral\profile/cy_profile.c **** * \param refClk Counter reference clock
 173:Generated_Source\PSoC6\pdl\drivers\peripheral\profile/cy_profile.c **** *
 174:Generated_Source\PSoC6\pdl\drivers\peripheral\profile/cy_profile.c **** * \param weight Weighting factor for the counter value
 175:Generated_Source\PSoC6\pdl\drivers\peripheral\profile/cy_profile.c **** * 
 176:Generated_Source\PSoC6\pdl\drivers\peripheral\profile/cy_profile.c **** * \return A pointer to the counter data structure. NULL if no counter is
 177:Generated_Source\PSoC6\pdl\drivers\peripheral\profile/cy_profile.c **** * available.
 178:Generated_Source\PSoC6\pdl\drivers\peripheral\profile/cy_profile.c **** *
 179:Generated_Source\PSoC6\pdl\drivers\peripheral\profile/cy_profile.c **** * \funcusage
 180:Generated_Source\PSoC6\pdl\drivers\peripheral\profile/cy_profile.c **** * \snippet profile/profile_v1_0_sut_01.cydsn/main_cm4.c snippet_Cy_Profile_ConfigureCounter
 181:Generated_Source\PSoC6\pdl\drivers\peripheral\profile/cy_profile.c **** *
 182:Generated_Source\PSoC6\pdl\drivers\peripheral\profile/cy_profile.c **** *******************************************************************************/
 183:Generated_Source\PSoC6\pdl\drivers\peripheral\profile/cy_profile.c **** cy_stc_profile_ctr_ptr_t Cy_Profile_ConfigureCounter(en_ep_mon_sel_t monitor, cy_en_profile_duratio
ARM GAS  C:\Users\gjl\AppData\Local\Temp\ccr7sVFh.s 			page 16


 184:Generated_Source\PSoC6\pdl\drivers\peripheral\profile/cy_profile.c ****                                                      cy_en_profile_ref_clk_t refClk,  uint32_t weig
 185:Generated_Source\PSoC6\pdl\drivers\peripheral\profile/cy_profile.c **** {
 238              		.loc 1 185 0
 239              		.cfi_startproc
 240              		@ args = 0, pretend = 0, frame = 8
 241              		@ frame_needed = 0, uses_anonymous_args = 0
 242              		@ link register save eliminated.
 243              	.LVL19:
 244 0000 F0B4     		push	{r4, r5, r6, r7}
 245              		.cfi_def_cfa_offset 16
 246              		.cfi_offset 4, -16
 247              		.cfi_offset 5, -12
 248              		.cfi_offset 6, -8
 249              		.cfi_offset 7, -4
 250 0002 82B0     		sub	sp, sp, #8
 251              		.cfi_def_cfa_offset 24
 252              	.LVL20:
 186:Generated_Source\PSoC6\pdl\drivers\peripheral\profile/cy_profile.c ****     cy_stc_profile_ctr_ptr_t retVal = NULL; /* error value if no counter is available */
 187:Generated_Source\PSoC6\pdl\drivers\peripheral\profile/cy_profile.c ****     volatile uint8_t i;
 188:Generated_Source\PSoC6\pdl\drivers\peripheral\profile/cy_profile.c ****     /* scan through the counters for an unused one */
 189:Generated_Source\PSoC6\pdl\drivers\peripheral\profile/cy_profile.c ****     for (i = 0u; (cy_ep_ctrs[i].used != 0u) && (i < CY_N_ELMTS(cy_ep_ctrs)); i++){}
 253              		.loc 1 189 0
 254 0004 0024     		movs	r4, #0
 255 0006 8DF80740 		strb	r4, [sp, #7]
 256 000a 05E0     		b	.L25
 257              	.L27:
 258              		.loc 1 189 0 is_stmt 0 discriminator 4
 259 000c 9DF80740 		ldrb	r4, [sp, #7]	@ zero_extendqisi2
 260 0010 0134     		adds	r4, r4, #1
 261 0012 E4B2     		uxtb	r4, r4
 262 0014 8DF80740 		strb	r4, [sp, #7]
 263              	.L25:
 264              		.loc 1 189 0 discriminator 1
 265 0018 9DF80740 		ldrb	r4, [sp, #7]	@ zero_extendqisi2
 266 001c C4EBC404 		rsb	r4, r4, r4, lsl #3
 267 0020 A500     		lsls	r5, r4, #2
 268 0022 354C     		ldr	r4, .L31
 269 0024 2544     		add	r5, r5, r4
 270 0026 6C78     		ldrb	r4, [r5, #1]	@ zero_extendqisi2
 271 0028 24B1     		cbz	r4, .L26
 272              		.loc 1 189 0 discriminator 3
 273 002a 9DF80740 		ldrb	r4, [sp, #7]	@ zero_extendqisi2
 274 002e E4B2     		uxtb	r4, r4
 275 0030 072C     		cmp	r4, #7
 276 0032 EBD9     		bls	.L27
 277              	.L26:
 190:Generated_Source\PSoC6\pdl\drivers\peripheral\profile/cy_profile.c ****     if (i < CY_N_ELMTS(cy_ep_ctrs))
 278              		.loc 1 190 0 is_stmt 1
 279 0034 9DF80740 		ldrb	r4, [sp, #7]	@ zero_extendqisi2
 280 0038 E4B2     		uxtb	r4, r4
 281 003a 072C     		cmp	r4, #7
 282 003c 57D8     		bhi	.L29
 191:Generated_Source\PSoC6\pdl\drivers\peripheral\profile/cy_profile.c ****     { /* found one, fill in its data structure */
 192:Generated_Source\PSoC6\pdl\drivers\peripheral\profile/cy_profile.c ****         cy_ep_ctrs[i].ctrNum = i;
 283              		.loc 1 192 0
 284 003e 9DF80750 		ldrb	r5, [sp, #7]	@ zero_extendqisi2
 285 0042 9DF80770 		ldrb	r7, [sp, #7]	@ zero_extendqisi2
ARM GAS  C:\Users\gjl\AppData\Local\Temp\ccr7sVFh.s 			page 17


 286 0046 2C4C     		ldr	r4, .L31
 287 0048 C5EBC505 		rsb	r5, r5, r5, lsl #3
 288 004c AE00     		lsls	r6, r5, #2
 289 004e A755     		strb	r7, [r4, r6]
 193:Generated_Source\PSoC6\pdl\drivers\peripheral\profile/cy_profile.c ****         cy_ep_ctrs[i].used = 1u;
 290              		.loc 1 193 0
 291 0050 9DF80750 		ldrb	r5, [sp, #7]	@ zero_extendqisi2
 292 0054 C5EBC505 		rsb	r5, r5, r5, lsl #3
 293 0058 AE00     		lsls	r6, r5, #2
 294 005a 2644     		add	r6, r6, r4
 295 005c 0125     		movs	r5, #1
 296 005e 7570     		strb	r5, [r6, #1]
 194:Generated_Source\PSoC6\pdl\drivers\peripheral\profile/cy_profile.c ****         cy_ep_ctrs[i].cntAddr = (PROFILE_CNT_STRUCT_Type *)&(PROFILE->CNT_STRUCT[i]);
 297              		.loc 1 194 0
 298 0060 9DF80750 		ldrb	r5, [sp, #7]	@ zero_extendqisi2
 299 0064 9DF80770 		ldrb	r7, [sp, #7]	@ zero_extendqisi2
 300 0068 C5EBC505 		rsb	r5, r5, r5, lsl #3
 301 006c AE00     		lsls	r6, r5, #2
 302 006e 2644     		add	r6, r6, r4
 303 0070 224D     		ldr	r5, .L31+4
 304 0072 05EB0715 		add	r5, r5, r7, lsl #4
 305 0076 B560     		str	r5, [r6, #8]
 195:Generated_Source\PSoC6\pdl\drivers\peripheral\profile/cy_profile.c ****         cy_ep_ctrs[i].ctlRegVals.cntDuration = duration;
 306              		.loc 1 195 0
 307 0078 9DF80750 		ldrb	r5, [sp, #7]	@ zero_extendqisi2
 308 007c C5EBC505 		rsb	r5, r5, r5, lsl #3
 309 0080 AE00     		lsls	r6, r5, #2
 310 0082 2644     		add	r6, r6, r4
 311 0084 B170     		strb	r1, [r6, #2]
 196:Generated_Source\PSoC6\pdl\drivers\peripheral\profile/cy_profile.c ****         cy_ep_ctrs[i].ctlRegVals.refClkSel = refClk;
 312              		.loc 1 196 0
 313 0086 9DF80710 		ldrb	r1, [sp, #7]	@ zero_extendqisi2
 314              	.LVL21:
 315 008a C1EBC101 		rsb	r1, r1, r1, lsl #3
 316 008e 8D00     		lsls	r5, r1, #2
 317 0090 2544     		add	r5, r5, r4
 318 0092 EA70     		strb	r2, [r5, #3]
 197:Generated_Source\PSoC6\pdl\drivers\peripheral\profile/cy_profile.c ****         cy_ep_ctrs[i].ctlRegVals.monSel = monitor;
 319              		.loc 1 197 0
 320 0094 9DF80720 		ldrb	r2, [sp, #7]	@ zero_extendqisi2
 321              	.LVL22:
 322 0098 C2EBC202 		rsb	r2, r2, r2, lsl #3
 323 009c 9100     		lsls	r1, r2, #2
 324 009e 2144     		add	r1, r1, r4
 325 00a0 0871     		strb	r0, [r1, #4]
 198:Generated_Source\PSoC6\pdl\drivers\peripheral\profile/cy_profile.c ****         cy_ep_ctrs[i].overflow = 0UL;
 326              		.loc 1 198 0
 327 00a2 9DF80720 		ldrb	r2, [sp, #7]	@ zero_extendqisi2
 328 00a6 C2EBC202 		rsb	r2, r2, r2, lsl #3
 329 00aa 9100     		lsls	r1, r2, #2
 330 00ac 2144     		add	r1, r1, r4
 331 00ae 0022     		movs	r2, #0
 332 00b0 4A61     		str	r2, [r1, #20]
 199:Generated_Source\PSoC6\pdl\drivers\peripheral\profile/cy_profile.c ****         cy_ep_ctrs[i].weight = weight;
 333              		.loc 1 199 0
 334 00b2 9DF80720 		ldrb	r2, [sp, #7]	@ zero_extendqisi2
 335 00b6 C2EBC202 		rsb	r2, r2, r2, lsl #3
ARM GAS  C:\Users\gjl\AppData\Local\Temp\ccr7sVFh.s 			page 18


 336 00ba 9100     		lsls	r1, r2, #2
 337 00bc 2144     		add	r1, r1, r4
 338 00be 8B61     		str	r3, [r1, #24]
 200:Generated_Source\PSoC6\pdl\drivers\peripheral\profile/cy_profile.c ****         /* pass back the handle to (address of) the counter data structure */
 201:Generated_Source\PSoC6\pdl\drivers\peripheral\profile/cy_profile.c ****         retVal = &cy_ep_ctrs[i];
 339              		.loc 1 201 0
 340 00c0 9DF80730 		ldrb	r3, [sp, #7]	@ zero_extendqisi2
 341              	.LVL23:
 342 00c4 DEB2     		uxtb	r6, r3
 343              	.LVL24:
 344 00c6 F500     		lsls	r5, r6, #3
 345              	.LVL25:
 346 00c8 AB1B     		subs	r3, r5, r6
 347 00ca 9800     		lsls	r0, r3, #2
 348              	.LVL26:
 349 00cc 2044     		add	r0, r0, r4
 350              	.LVL27:
 202:Generated_Source\PSoC6\pdl\drivers\peripheral\profile/cy_profile.c ****         
 203:Generated_Source\PSoC6\pdl\drivers\peripheral\profile/cy_profile.c ****         /* Load the CTL register bitfields of the assigned counter. */
 204:Generated_Source\PSoC6\pdl\drivers\peripheral\profile/cy_profile.c ****         retVal->cntAddr->CTL =
 351              		.loc 1 204 0
 352 00ce 8168     		ldr	r1, [r0, #8]
 353              	.LVL28:
 205:Generated_Source\PSoC6\pdl\drivers\peripheral\profile/cy_profile.c ****             _VAL2FLD(PROFILE_CNT_STRUCT_CTL_CNT_DURATION, retVal->ctlRegVals.cntDuration) |
 354              		.loc 1 205 0
 355 00d0 8278     		ldrb	r2, [r0, #2]	@ zero_extendqisi2
 356              	.LVL29:
 357 00d2 02F00102 		and	r2, r2, #1
 206:Generated_Source\PSoC6\pdl\drivers\peripheral\profile/cy_profile.c ****             _VAL2FLD(PROFILE_CNT_STRUCT_CTL_REF_CLK_SEL,  retVal->ctlRegVals.refClkSel)   |
 358              		.loc 1 206 0
 359 00d6 C378     		ldrb	r3, [r0, #3]	@ zero_extendqisi2
 360 00d8 1B01     		lsls	r3, r3, #4
 361 00da 03F07003 		and	r3, r3, #112
 205:Generated_Source\PSoC6\pdl\drivers\peripheral\profile/cy_profile.c ****             _VAL2FLD(PROFILE_CNT_STRUCT_CTL_CNT_DURATION, retVal->ctlRegVals.cntDuration) |
 362              		.loc 1 205 0
 363 00de 1A43     		orrs	r2, r2, r3
 207:Generated_Source\PSoC6\pdl\drivers\peripheral\profile/cy_profile.c ****             _VAL2FLD(PROFILE_CNT_STRUCT_CTL_MON_SEL,      retVal->ctlRegVals.monSel);
 364              		.loc 1 207 0
 365 00e0 0379     		ldrb	r3, [r0, #4]	@ zero_extendqisi2
 366 00e2 1B04     		lsls	r3, r3, #16
 367 00e4 03F4FE03 		and	r3, r3, #8323072
 206:Generated_Source\PSoC6\pdl\drivers\peripheral\profile/cy_profile.c ****             _VAL2FLD(PROFILE_CNT_STRUCT_CTL_REF_CLK_SEL,  retVal->ctlRegVals.refClkSel)   |
 368              		.loc 1 206 0
 369 00e8 1343     		orrs	r3, r3, r2
 204:Generated_Source\PSoC6\pdl\drivers\peripheral\profile/cy_profile.c ****             _VAL2FLD(PROFILE_CNT_STRUCT_CTL_CNT_DURATION, retVal->ctlRegVals.cntDuration) |
 370              		.loc 1 204 0
 371 00ea 0B60     		str	r3, [r1]
 372 00ec 00E0     		b	.L28
 373              	.LVL30:
 374              	.L29:
 186:Generated_Source\PSoC6\pdl\drivers\peripheral\profile/cy_profile.c ****     volatile uint8_t i;
 375              		.loc 1 186 0
 376 00ee 0020     		movs	r0, #0
 377              	.LVL31:
 378              	.L28:
 208:Generated_Source\PSoC6\pdl\drivers\peripheral\profile/cy_profile.c **** 
 209:Generated_Source\PSoC6\pdl\drivers\peripheral\profile/cy_profile.c ****     }
ARM GAS  C:\Users\gjl\AppData\Local\Temp\ccr7sVFh.s 			page 19


 210:Generated_Source\PSoC6\pdl\drivers\peripheral\profile/cy_profile.c ****     return (retVal);
 211:Generated_Source\PSoC6\pdl\drivers\peripheral\profile/cy_profile.c **** }
 379              		.loc 1 211 0
 380 00f0 02B0     		add	sp, sp, #8
 381              		.cfi_def_cfa_offset 16
 382              		@ sp needed
 383 00f2 F0BC     		pop	{r4, r5, r6, r7}
 384              		.cfi_restore 7
 385              		.cfi_restore 6
 386              		.cfi_restore 5
 387              		.cfi_restore 4
 388              		.cfi_def_cfa_offset 0
 389 00f4 7047     		bx	lr
 390              	.L32:
 391 00f6 00BF     		.align	2
 392              	.L31:
 393 00f8 00000000 		.word	.LANCHOR0
 394 00fc 00082D40 		.word	1076692992
 395              		.cfi_endproc
 396              	.LFE134:
 397              		.size	Cy_Profile_ConfigureCounter, .-Cy_Profile_ConfigureCounter
 398              		.section	.text.Cy_Profile_FreeCounter,"ax",%progbits
 399              		.align	2
 400              		.global	Cy_Profile_FreeCounter
 401              		.thumb
 402              		.thumb_func
 403              		.type	Cy_Profile_FreeCounter, %function
 404              	Cy_Profile_FreeCounter:
 405              	.LFB135:
 212:Generated_Source\PSoC6\pdl\drivers\peripheral\profile/cy_profile.c **** 
 213:Generated_Source\PSoC6\pdl\drivers\peripheral\profile/cy_profile.c **** 
 214:Generated_Source\PSoC6\pdl\drivers\peripheral\profile/cy_profile.c **** /*******************************************************************************
 215:Generated_Source\PSoC6\pdl\drivers\peripheral\profile/cy_profile.c **** * Function Name: Cy_Profile_FreeCounter
 216:Generated_Source\PSoC6\pdl\drivers\peripheral\profile/cy_profile.c **** ****************************************************************************//**
 217:Generated_Source\PSoC6\pdl\drivers\peripheral\profile/cy_profile.c **** *
 218:Generated_Source\PSoC6\pdl\drivers\peripheral\profile/cy_profile.c **** * Frees up a counter from a previously-assigned monitor source.
 219:Generated_Source\PSoC6\pdl\drivers\peripheral\profile/cy_profile.c **** *
 220:Generated_Source\PSoC6\pdl\drivers\peripheral\profile/cy_profile.c **** * \ref Cy_Profile_ConfigureCounter() must have been called for this counter
 221:Generated_Source\PSoC6\pdl\drivers\peripheral\profile/cy_profile.c **** * before calling this function.
 222:Generated_Source\PSoC6\pdl\drivers\peripheral\profile/cy_profile.c **** *
 223:Generated_Source\PSoC6\pdl\drivers\peripheral\profile/cy_profile.c **** * \param ctrAddr The handle to the assigned counter (returned by calling
 224:Generated_Source\PSoC6\pdl\drivers\peripheral\profile/cy_profile.c **** * \ref Cy_Profile_ConfigureCounter()).
 225:Generated_Source\PSoC6\pdl\drivers\peripheral\profile/cy_profile.c **** * 
 226:Generated_Source\PSoC6\pdl\drivers\peripheral\profile/cy_profile.c **** * \return 
 227:Generated_Source\PSoC6\pdl\drivers\peripheral\profile/cy_profile.c **** * Status of the operation.
 228:Generated_Source\PSoC6\pdl\drivers\peripheral\profile/cy_profile.c **** *
 229:Generated_Source\PSoC6\pdl\drivers\peripheral\profile/cy_profile.c **** * \note The counter is not disabled by this function.
 230:Generated_Source\PSoC6\pdl\drivers\peripheral\profile/cy_profile.c **** *
 231:Generated_Source\PSoC6\pdl\drivers\peripheral\profile/cy_profile.c **** * \funcusage
 232:Generated_Source\PSoC6\pdl\drivers\peripheral\profile/cy_profile.c **** * \snippet profile/profile_v1_0_sut_01.cydsn/main_cm4.c snippet_Cy_Profile_FreeCounter
 233:Generated_Source\PSoC6\pdl\drivers\peripheral\profile/cy_profile.c **** *
 234:Generated_Source\PSoC6\pdl\drivers\peripheral\profile/cy_profile.c **** *******************************************************************************/
 235:Generated_Source\PSoC6\pdl\drivers\peripheral\profile/cy_profile.c **** cy_en_profile_status_t Cy_Profile_FreeCounter(cy_stc_profile_ctr_ptr_t ctrAddr)
 236:Generated_Source\PSoC6\pdl\drivers\peripheral\profile/cy_profile.c **** {
 406              		.loc 1 236 0
 407              		.cfi_startproc
 408              		@ args = 0, pretend = 0, frame = 0
ARM GAS  C:\Users\gjl\AppData\Local\Temp\ccr7sVFh.s 			page 20


 409              		@ frame_needed = 0, uses_anonymous_args = 0
 410              	.LVL32:
 411 0000 10B5     		push	{r4, lr}
 412              		.cfi_def_cfa_offset 8
 413              		.cfi_offset 4, -8
 414              		.cfi_offset 14, -4
 415 0002 0446     		mov	r4, r0
 416              	.LVL33:
 237:Generated_Source\PSoC6\pdl\drivers\peripheral\profile/cy_profile.c ****    cy_en_profile_status_t retStatus = CY_PROFILE_BAD_PARAM;
 238:Generated_Source\PSoC6\pdl\drivers\peripheral\profile/cy_profile.c ****    
 239:Generated_Source\PSoC6\pdl\drivers\peripheral\profile/cy_profile.c ****     retStatus = Cy_Profile_IsPtrValid(ctrAddr);
 417              		.loc 1 239 0
 418 0004 FFF7FEFF 		bl	Cy_Profile_IsPtrValid
 419              	.LVL34:
 240:Generated_Source\PSoC6\pdl\drivers\peripheral\profile/cy_profile.c ****     if (retStatus == CY_PROFILE_SUCCESS)
 420              		.loc 1 240 0
 421 0008 0346     		mov	r3, r0
 422 000a 08B9     		cbnz	r0, .L34
 241:Generated_Source\PSoC6\pdl\drivers\peripheral\profile/cy_profile.c ****     {
 242:Generated_Source\PSoC6\pdl\drivers\peripheral\profile/cy_profile.c ****         ctrAddr->used = 0u;
 423              		.loc 1 242 0
 424 000c 0022     		movs	r2, #0
 425 000e 6270     		strb	r2, [r4, #1]
 426              	.L34:
 243:Generated_Source\PSoC6\pdl\drivers\peripheral\profile/cy_profile.c ****     }
 244:Generated_Source\PSoC6\pdl\drivers\peripheral\profile/cy_profile.c ****     return (retStatus);
 245:Generated_Source\PSoC6\pdl\drivers\peripheral\profile/cy_profile.c **** }
 427              		.loc 1 245 0
 428 0010 1846     		mov	r0, r3
 429              	.LVL35:
 430 0012 10BD     		pop	{r4, pc}
 431              		.cfi_endproc
 432              	.LFE135:
 433              		.size	Cy_Profile_FreeCounter, .-Cy_Profile_FreeCounter
 434              		.section	.text.Cy_Profile_EnableCounter,"ax",%progbits
 435              		.align	2
 436              		.global	Cy_Profile_EnableCounter
 437              		.thumb
 438              		.thumb_func
 439              		.type	Cy_Profile_EnableCounter, %function
 440              	Cy_Profile_EnableCounter:
 441              	.LFB136:
 246:Generated_Source\PSoC6\pdl\drivers\peripheral\profile/cy_profile.c **** 
 247:Generated_Source\PSoC6\pdl\drivers\peripheral\profile/cy_profile.c **** 
 248:Generated_Source\PSoC6\pdl\drivers\peripheral\profile/cy_profile.c **** /*******************************************************************************
 249:Generated_Source\PSoC6\pdl\drivers\peripheral\profile/cy_profile.c **** * Function Name: Cy_Profile_EnableCounter
 250:Generated_Source\PSoC6\pdl\drivers\peripheral\profile/cy_profile.c **** ****************************************************************************//**
 251:Generated_Source\PSoC6\pdl\drivers\peripheral\profile/cy_profile.c **** *
 252:Generated_Source\PSoC6\pdl\drivers\peripheral\profile/cy_profile.c **** * Enables an assigned counter. 
 253:Generated_Source\PSoC6\pdl\drivers\peripheral\profile/cy_profile.c **** *
 254:Generated_Source\PSoC6\pdl\drivers\peripheral\profile/cy_profile.c **** * \ref Cy_Profile_ConfigureCounter() must have been called for this counter
 255:Generated_Source\PSoC6\pdl\drivers\peripheral\profile/cy_profile.c **** * before calling this function.
 256:Generated_Source\PSoC6\pdl\drivers\peripheral\profile/cy_profile.c **** *
 257:Generated_Source\PSoC6\pdl\drivers\peripheral\profile/cy_profile.c **** * \param ctrAddr The handle to the assigned counter, (returned by calling
 258:Generated_Source\PSoC6\pdl\drivers\peripheral\profile/cy_profile.c **** * \ref Cy_Profile_ConfigureCounter()).
 259:Generated_Source\PSoC6\pdl\drivers\peripheral\profile/cy_profile.c **** * 
 260:Generated_Source\PSoC6\pdl\drivers\peripheral\profile/cy_profile.c **** * \return 
ARM GAS  C:\Users\gjl\AppData\Local\Temp\ccr7sVFh.s 			page 21


 261:Generated_Source\PSoC6\pdl\drivers\peripheral\profile/cy_profile.c **** * Status of the operation.
 262:Generated_Source\PSoC6\pdl\drivers\peripheral\profile/cy_profile.c **** *
 263:Generated_Source\PSoC6\pdl\drivers\peripheral\profile/cy_profile.c **** * \funcusage
 264:Generated_Source\PSoC6\pdl\drivers\peripheral\profile/cy_profile.c **** * \snippet profile/profile_v1_0_sut_01.cydsn/main_cm4.c snippet_Cy_Profile_EnableCounter
 265:Generated_Source\PSoC6\pdl\drivers\peripheral\profile/cy_profile.c **** *
 266:Generated_Source\PSoC6\pdl\drivers\peripheral\profile/cy_profile.c **** *******************************************************************************/
 267:Generated_Source\PSoC6\pdl\drivers\peripheral\profile/cy_profile.c **** cy_en_profile_status_t Cy_Profile_EnableCounter(cy_stc_profile_ctr_ptr_t ctrAddr)
 268:Generated_Source\PSoC6\pdl\drivers\peripheral\profile/cy_profile.c **** {
 442              		.loc 1 268 0
 443              		.cfi_startproc
 444              		@ args = 0, pretend = 0, frame = 0
 445              		@ frame_needed = 0, uses_anonymous_args = 0
 446              	.LVL36:
 447 0000 38B5     		push	{r3, r4, r5, lr}
 448              		.cfi_def_cfa_offset 16
 449              		.cfi_offset 3, -16
 450              		.cfi_offset 4, -12
 451              		.cfi_offset 5, -8
 452              		.cfi_offset 14, -4
 453 0002 0446     		mov	r4, r0
 454              	.LVL37:
 269:Generated_Source\PSoC6\pdl\drivers\peripheral\profile/cy_profile.c ****     cy_en_profile_status_t retStatus = CY_PROFILE_BAD_PARAM;
 270:Generated_Source\PSoC6\pdl\drivers\peripheral\profile/cy_profile.c ****     
 271:Generated_Source\PSoC6\pdl\drivers\peripheral\profile/cy_profile.c ****     retStatus = Cy_Profile_IsPtrValid(ctrAddr);
 455              		.loc 1 271 0
 456 0004 FFF7FEFF 		bl	Cy_Profile_IsPtrValid
 457              	.LVL38:
 272:Generated_Source\PSoC6\pdl\drivers\peripheral\profile/cy_profile.c ****     if (retStatus == CY_PROFILE_SUCCESS)
 458              		.loc 1 272 0
 459 0008 0146     		mov	r1, r0
 460 000a 70B9     		cbnz	r0, .L37
 273:Generated_Source\PSoC6\pdl\drivers\peripheral\profile/cy_profile.c ****     {
 274:Generated_Source\PSoC6\pdl\drivers\peripheral\profile/cy_profile.c ****         /* set the ENABLED bit */
 275:Generated_Source\PSoC6\pdl\drivers\peripheral\profile/cy_profile.c ****         ctrAddr->cntAddr->CTL |= _VAL2FLD(PROFILE_CNT_STRUCT_CTL_ENABLED, 1UL);
 461              		.loc 1 275 0
 462 000c A268     		ldr	r2, [r4, #8]
 463 000e 1368     		ldr	r3, [r2]
 464 0010 43F00043 		orr	r3, r3, #-2147483648
 465 0014 1360     		str	r3, [r2]
 276:Generated_Source\PSoC6\pdl\drivers\peripheral\profile/cy_profile.c ****         /* set the INTR_MASK bit for the counter being used */
 277:Generated_Source\PSoC6\pdl\drivers\peripheral\profile/cy_profile.c ****         PROFILE->INTR_MASK |= (1UL << (ctrAddr->ctrNum));
 466              		.loc 1 277 0
 467 0016 0648     		ldr	r0, .L39
 468              	.LVL39:
 469 0018 D0F8C857 		ldr	r5, [r0, #1992]
 470 001c 2378     		ldrb	r3, [r4]	@ zero_extendqisi2
 471 001e 0122     		movs	r2, #1
 472 0020 02FA03F3 		lsl	r3, r2, r3
 473 0024 2B43     		orrs	r3, r3, r5
 474 0026 C0F8C837 		str	r3, [r0, #1992]
 475              	.L37:
 278:Generated_Source\PSoC6\pdl\drivers\peripheral\profile/cy_profile.c ****     }
 279:Generated_Source\PSoC6\pdl\drivers\peripheral\profile/cy_profile.c ****     return (retStatus);
 280:Generated_Source\PSoC6\pdl\drivers\peripheral\profile/cy_profile.c **** }
 476              		.loc 1 280 0
 477 002a 0846     		mov	r0, r1
 478 002c 38BD     		pop	{r3, r4, r5, pc}
ARM GAS  C:\Users\gjl\AppData\Local\Temp\ccr7sVFh.s 			page 22


 479              	.LVL40:
 480              	.L40:
 481 002e 00BF     		.align	2
 482              	.L39:
 483 0030 00002D40 		.word	1076690944
 484              		.cfi_endproc
 485              	.LFE136:
 486              		.size	Cy_Profile_EnableCounter, .-Cy_Profile_EnableCounter
 487              		.section	.text.Cy_Profile_DisableCounter,"ax",%progbits
 488              		.align	2
 489              		.global	Cy_Profile_DisableCounter
 490              		.thumb
 491              		.thumb_func
 492              		.type	Cy_Profile_DisableCounter, %function
 493              	Cy_Profile_DisableCounter:
 494              	.LFB137:
 281:Generated_Source\PSoC6\pdl\drivers\peripheral\profile/cy_profile.c **** 
 282:Generated_Source\PSoC6\pdl\drivers\peripheral\profile/cy_profile.c **** 
 283:Generated_Source\PSoC6\pdl\drivers\peripheral\profile/cy_profile.c **** /*******************************************************************************
 284:Generated_Source\PSoC6\pdl\drivers\peripheral\profile/cy_profile.c **** * Function Name: Cy_Profile_DisableCounter
 285:Generated_Source\PSoC6\pdl\drivers\peripheral\profile/cy_profile.c **** ****************************************************************************//**
 286:Generated_Source\PSoC6\pdl\drivers\peripheral\profile/cy_profile.c **** *
 287:Generated_Source\PSoC6\pdl\drivers\peripheral\profile/cy_profile.c **** * Disables an assigned counter.
 288:Generated_Source\PSoC6\pdl\drivers\peripheral\profile/cy_profile.c **** *
 289:Generated_Source\PSoC6\pdl\drivers\peripheral\profile/cy_profile.c **** * \ref Cy_Profile_ConfigureCounter() must have been called for this counter
 290:Generated_Source\PSoC6\pdl\drivers\peripheral\profile/cy_profile.c **** * before calling this function.
 291:Generated_Source\PSoC6\pdl\drivers\peripheral\profile/cy_profile.c **** *
 292:Generated_Source\PSoC6\pdl\drivers\peripheral\profile/cy_profile.c **** * \param ctrAddr The handle to the assigned counter, (returned by calling
 293:Generated_Source\PSoC6\pdl\drivers\peripheral\profile/cy_profile.c **** * \ref Cy_Profile_ConfigureCounter()).
 294:Generated_Source\PSoC6\pdl\drivers\peripheral\profile/cy_profile.c **** * 
 295:Generated_Source\PSoC6\pdl\drivers\peripheral\profile/cy_profile.c **** * \return 
 296:Generated_Source\PSoC6\pdl\drivers\peripheral\profile/cy_profile.c **** * Status of the operation.
 297:Generated_Source\PSoC6\pdl\drivers\peripheral\profile/cy_profile.c **** *
 298:Generated_Source\PSoC6\pdl\drivers\peripheral\profile/cy_profile.c **** * \funcusage
 299:Generated_Source\PSoC6\pdl\drivers\peripheral\profile/cy_profile.c **** * \snippet profile/profile_v1_0_sut_01.cydsn/main_cm4.c snippet_Cy_Profile_DisableCounter
 300:Generated_Source\PSoC6\pdl\drivers\peripheral\profile/cy_profile.c **** *
 301:Generated_Source\PSoC6\pdl\drivers\peripheral\profile/cy_profile.c **** *******************************************************************************/
 302:Generated_Source\PSoC6\pdl\drivers\peripheral\profile/cy_profile.c **** cy_en_profile_status_t Cy_Profile_DisableCounter(cy_stc_profile_ctr_ptr_t ctrAddr)
 303:Generated_Source\PSoC6\pdl\drivers\peripheral\profile/cy_profile.c **** {
 495              		.loc 1 303 0
 496              		.cfi_startproc
 497              		@ args = 0, pretend = 0, frame = 0
 498              		@ frame_needed = 0, uses_anonymous_args = 0
 499              	.LVL41:
 500 0000 10B5     		push	{r4, lr}
 501              		.cfi_def_cfa_offset 8
 502              		.cfi_offset 4, -8
 503              		.cfi_offset 14, -4
 504 0002 0446     		mov	r4, r0
 304:Generated_Source\PSoC6\pdl\drivers\peripheral\profile/cy_profile.c ****     cy_en_profile_status_t retStatus = Cy_Profile_IsPtrValid(ctrAddr);
 505              		.loc 1 304 0
 506 0004 FFF7FEFF 		bl	Cy_Profile_IsPtrValid
 507              	.LVL42:
 305:Generated_Source\PSoC6\pdl\drivers\peripheral\profile/cy_profile.c ****     if (retStatus == CY_PROFILE_SUCCESS)
 508              		.loc 1 305 0
 509 0008 0146     		mov	r1, r0
 510 000a 70B9     		cbnz	r0, .L42
ARM GAS  C:\Users\gjl\AppData\Local\Temp\ccr7sVFh.s 			page 23


 306:Generated_Source\PSoC6\pdl\drivers\peripheral\profile/cy_profile.c ****     {
 307:Generated_Source\PSoC6\pdl\drivers\peripheral\profile/cy_profile.c ****         /* clear the ENABLED bit */
 308:Generated_Source\PSoC6\pdl\drivers\peripheral\profile/cy_profile.c ****         ctrAddr->cntAddr->CTL &= ~(_VAL2FLD(PROFILE_CNT_STRUCT_CTL_ENABLED, 1UL));
 511              		.loc 1 308 0
 512 000c A268     		ldr	r2, [r4, #8]
 513 000e 1368     		ldr	r3, [r2]
 514 0010 23F00043 		bic	r3, r3, #-2147483648
 515 0014 1360     		str	r3, [r2]
 309:Generated_Source\PSoC6\pdl\drivers\peripheral\profile/cy_profile.c ****         /* clear the INTR_MASK bit for the counter being used */
 310:Generated_Source\PSoC6\pdl\drivers\peripheral\profile/cy_profile.c ****         PROFILE->INTR_MASK &= ~(1UL << (ctrAddr->ctrNum));
 516              		.loc 1 310 0
 517 0016 0648     		ldr	r0, .L44
 518              	.LVL43:
 519 0018 D0F8C827 		ldr	r2, [r0, #1992]
 520 001c 2478     		ldrb	r4, [r4]	@ zero_extendqisi2
 521              	.LVL44:
 522 001e 0123     		movs	r3, #1
 523 0020 A340     		lsls	r3, r3, r4
 524 0022 22EA0303 		bic	r3, r2, r3
 525 0026 C0F8C837 		str	r3, [r0, #1992]
 526              	.L42:
 311:Generated_Source\PSoC6\pdl\drivers\peripheral\profile/cy_profile.c ****     }
 312:Generated_Source\PSoC6\pdl\drivers\peripheral\profile/cy_profile.c ****     return (retStatus);
 313:Generated_Source\PSoC6\pdl\drivers\peripheral\profile/cy_profile.c **** }
 527              		.loc 1 313 0
 528 002a 0846     		mov	r0, r1
 529 002c 10BD     		pop	{r4, pc}
 530              	.L45:
 531 002e 00BF     		.align	2
 532              	.L44:
 533 0030 00002D40 		.word	1076690944
 534              		.cfi_endproc
 535              	.LFE137:
 536              		.size	Cy_Profile_DisableCounter, .-Cy_Profile_DisableCounter
 537              		.section	.text.Cy_Profile_GetRawCount,"ax",%progbits
 538              		.align	2
 539              		.global	Cy_Profile_GetRawCount
 540              		.thumb
 541              		.thumb_func
 542              		.type	Cy_Profile_GetRawCount, %function
 543              	Cy_Profile_GetRawCount:
 544              	.LFB138:
 314:Generated_Source\PSoC6\pdl\drivers\peripheral\profile/cy_profile.c **** 
 315:Generated_Source\PSoC6\pdl\drivers\peripheral\profile/cy_profile.c **** 
 316:Generated_Source\PSoC6\pdl\drivers\peripheral\profile/cy_profile.c **** /* ========================================================================== */
 317:Generated_Source\PSoC6\pdl\drivers\peripheral\profile/cy_profile.c **** /* ==================    CALCULATION FUNCTIONS SECTION    =================== */
 318:Generated_Source\PSoC6\pdl\drivers\peripheral\profile/cy_profile.c **** /* ========================================================================== */
 319:Generated_Source\PSoC6\pdl\drivers\peripheral\profile/cy_profile.c **** /*******************************************************************************
 320:Generated_Source\PSoC6\pdl\drivers\peripheral\profile/cy_profile.c **** * Function Name: Cy_Profile_GetRawCount
 321:Generated_Source\PSoC6\pdl\drivers\peripheral\profile/cy_profile.c **** ****************************************************************************//**
 322:Generated_Source\PSoC6\pdl\drivers\peripheral\profile/cy_profile.c **** *
 323:Generated_Source\PSoC6\pdl\drivers\peripheral\profile/cy_profile.c **** * Reports the raw count value for a specified counter.
 324:Generated_Source\PSoC6\pdl\drivers\peripheral\profile/cy_profile.c **** *
 325:Generated_Source\PSoC6\pdl\drivers\peripheral\profile/cy_profile.c **** * \param ctrAddr The handle to the assigned counter, (returned by calling
 326:Generated_Source\PSoC6\pdl\drivers\peripheral\profile/cy_profile.c **** * \ref Cy_Profile_ConfigureCounter()).
 327:Generated_Source\PSoC6\pdl\drivers\peripheral\profile/cy_profile.c **** *
 328:Generated_Source\PSoC6\pdl\drivers\peripheral\profile/cy_profile.c **** * \param result Output parameter used to write in the result.
ARM GAS  C:\Users\gjl\AppData\Local\Temp\ccr7sVFh.s 			page 24


 329:Generated_Source\PSoC6\pdl\drivers\peripheral\profile/cy_profile.c **** * 
 330:Generated_Source\PSoC6\pdl\drivers\peripheral\profile/cy_profile.c **** * \return 
 331:Generated_Source\PSoC6\pdl\drivers\peripheral\profile/cy_profile.c **** * Status of the operation.
 332:Generated_Source\PSoC6\pdl\drivers\peripheral\profile/cy_profile.c **** *
 333:Generated_Source\PSoC6\pdl\drivers\peripheral\profile/cy_profile.c **** * \funcusage
 334:Generated_Source\PSoC6\pdl\drivers\peripheral\profile/cy_profile.c **** * \snippet profile/profile_v1_0_sut_01.cydsn/main_cm4.c snippet_Cy_Profile_GetRawCount
 335:Generated_Source\PSoC6\pdl\drivers\peripheral\profile/cy_profile.c **** *
 336:Generated_Source\PSoC6\pdl\drivers\peripheral\profile/cy_profile.c **** *******************************************************************************/
 337:Generated_Source\PSoC6\pdl\drivers\peripheral\profile/cy_profile.c **** cy_en_profile_status_t Cy_Profile_GetRawCount(cy_stc_profile_ctr_ptr_t ctrAddr, uint64_t *result)
 338:Generated_Source\PSoC6\pdl\drivers\peripheral\profile/cy_profile.c **** {
 545              		.loc 1 338 0
 546              		.cfi_startproc
 547              		@ args = 0, pretend = 0, frame = 0
 548              		@ frame_needed = 0, uses_anonymous_args = 0
 549              	.LVL45:
 550 0000 38B5     		push	{r3, r4, r5, lr}
 551              		.cfi_def_cfa_offset 16
 552              		.cfi_offset 3, -16
 553              		.cfi_offset 4, -12
 554              		.cfi_offset 5, -8
 555              		.cfi_offset 14, -4
 556 0002 0446     		mov	r4, r0
 557 0004 0D46     		mov	r5, r1
 339:Generated_Source\PSoC6\pdl\drivers\peripheral\profile/cy_profile.c ****     cy_en_profile_status_t retStatus = Cy_Profile_IsPtrValid(ctrAddr);
 558              		.loc 1 339 0
 559 0006 FFF7FEFF 		bl	Cy_Profile_IsPtrValid
 560              	.LVL46:
 340:Generated_Source\PSoC6\pdl\drivers\peripheral\profile/cy_profile.c ****     if (retStatus == CY_PROFILE_SUCCESS)
 561              		.loc 1 340 0
 562 000a 0146     		mov	r1, r0
 563 000c 48B9     		cbnz	r0, .L47
 341:Generated_Source\PSoC6\pdl\drivers\peripheral\profile/cy_profile.c ****     {
 342:Generated_Source\PSoC6\pdl\drivers\peripheral\profile/cy_profile.c ****         /* read the counter control register, and the counter current value */
 343:Generated_Source\PSoC6\pdl\drivers\peripheral\profile/cy_profile.c ****         ctrAddr->ctlReg = ctrAddr->cntAddr->CTL;
 564              		.loc 1 343 0
 565 000e A368     		ldr	r3, [r4, #8]
 566 0010 1A68     		ldr	r2, [r3]
 567 0012 E260     		str	r2, [r4, #12]
 344:Generated_Source\PSoC6\pdl\drivers\peripheral\profile/cy_profile.c ****         ctrAddr->cntReg = ctrAddr->cntAddr->CNT;
 568              		.loc 1 344 0
 569 0014 9868     		ldr	r0, [r3, #8]
 570              	.LVL47:
 571 0016 2061     		str	r0, [r4, #16]
 345:Generated_Source\PSoC6\pdl\drivers\peripheral\profile/cy_profile.c **** 
 346:Generated_Source\PSoC6\pdl\drivers\peripheral\profile/cy_profile.c ****         /* report the count with overflow */
 347:Generated_Source\PSoC6\pdl\drivers\peripheral\profile/cy_profile.c ****         *result = ((uint64_t)(ctrAddr->overflow) << 32) | (uint64_t)(ctrAddr->cntReg);
 572              		.loc 1 347 0
 573 0018 0022     		movs	r2, #0
 574 001a 6369     		ldr	r3, [r4, #20]
 575 001c 0243     		orrs	r2, r2, r0
 576 001e C5E90023 		strd	r2, [r5]
 577              	.L47:
 348:Generated_Source\PSoC6\pdl\drivers\peripheral\profile/cy_profile.c ****     }
 349:Generated_Source\PSoC6\pdl\drivers\peripheral\profile/cy_profile.c ****     return (retStatus);
 350:Generated_Source\PSoC6\pdl\drivers\peripheral\profile/cy_profile.c **** }
 578              		.loc 1 350 0
 579 0022 0846     		mov	r0, r1
ARM GAS  C:\Users\gjl\AppData\Local\Temp\ccr7sVFh.s 			page 25


 580 0024 38BD     		pop	{r3, r4, r5, pc}
 581              		.cfi_endproc
 582              	.LFE138:
 583              		.size	Cy_Profile_GetRawCount, .-Cy_Profile_GetRawCount
 584 0026 00BF     		.section	.text.Cy_Profile_GetWeightedCount,"ax",%progbits
 585              		.align	2
 586              		.global	Cy_Profile_GetWeightedCount
 587              		.thumb
 588              		.thumb_func
 589              		.type	Cy_Profile_GetWeightedCount, %function
 590              	Cy_Profile_GetWeightedCount:
 591              	.LFB139:
 351:Generated_Source\PSoC6\pdl\drivers\peripheral\profile/cy_profile.c **** 
 352:Generated_Source\PSoC6\pdl\drivers\peripheral\profile/cy_profile.c **** /*******************************************************************************
 353:Generated_Source\PSoC6\pdl\drivers\peripheral\profile/cy_profile.c **** * Function Name: Cy_Profile_GetWeightedCount
 354:Generated_Source\PSoC6\pdl\drivers\peripheral\profile/cy_profile.c **** ****************************************************************************//**
 355:Generated_Source\PSoC6\pdl\drivers\peripheral\profile/cy_profile.c **** *
 356:Generated_Source\PSoC6\pdl\drivers\peripheral\profile/cy_profile.c **** * Reports the count value for a specified counter, multiplied by the weight
 357:Generated_Source\PSoC6\pdl\drivers\peripheral\profile/cy_profile.c **** * factor for that counter.
 358:Generated_Source\PSoC6\pdl\drivers\peripheral\profile/cy_profile.c **** *
 359:Generated_Source\PSoC6\pdl\drivers\peripheral\profile/cy_profile.c **** * \param ctrAddr The handle to the assigned counter, (returned by calling
 360:Generated_Source\PSoC6\pdl\drivers\peripheral\profile/cy_profile.c **** * \ref Cy_Profile_ConfigureCounter()).
 361:Generated_Source\PSoC6\pdl\drivers\peripheral\profile/cy_profile.c **** *
 362:Generated_Source\PSoC6\pdl\drivers\peripheral\profile/cy_profile.c **** * \param result Output parameter used to write in the result.
 363:Generated_Source\PSoC6\pdl\drivers\peripheral\profile/cy_profile.c **** * 
 364:Generated_Source\PSoC6\pdl\drivers\peripheral\profile/cy_profile.c **** * \return 
 365:Generated_Source\PSoC6\pdl\drivers\peripheral\profile/cy_profile.c **** * Status of the operation.
 366:Generated_Source\PSoC6\pdl\drivers\peripheral\profile/cy_profile.c **** *
 367:Generated_Source\PSoC6\pdl\drivers\peripheral\profile/cy_profile.c **** * \funcusage
 368:Generated_Source\PSoC6\pdl\drivers\peripheral\profile/cy_profile.c **** * \snippet profile/profile_v1_0_sut_01.cydsn/main_cm4.c snippet_Cy_Profile_GetWeightedCount
 369:Generated_Source\PSoC6\pdl\drivers\peripheral\profile/cy_profile.c **** *
 370:Generated_Source\PSoC6\pdl\drivers\peripheral\profile/cy_profile.c **** *******************************************************************************/
 371:Generated_Source\PSoC6\pdl\drivers\peripheral\profile/cy_profile.c **** cy_en_profile_status_t Cy_Profile_GetWeightedCount(cy_stc_profile_ctr_ptr_t ctrAddr, uint64_t *resu
 372:Generated_Source\PSoC6\pdl\drivers\peripheral\profile/cy_profile.c **** {
 592              		.loc 1 372 0
 593              		.cfi_startproc
 594              		@ args = 0, pretend = 0, frame = 8
 595              		@ frame_needed = 0, uses_anonymous_args = 0
 596              	.LVL48:
 597 0000 30B5     		push	{r4, r5, lr}
 598              		.cfi_def_cfa_offset 12
 599              		.cfi_offset 4, -12
 600              		.cfi_offset 5, -8
 601              		.cfi_offset 14, -4
 602 0002 83B0     		sub	sp, sp, #12
 603              		.cfi_def_cfa_offset 24
 604 0004 0546     		mov	r5, r0
 605 0006 0C46     		mov	r4, r1
 373:Generated_Source\PSoC6\pdl\drivers\peripheral\profile/cy_profile.c ****     uint64_t temp;
 374:Generated_Source\PSoC6\pdl\drivers\peripheral\profile/cy_profile.c ****     cy_en_profile_status_t retStatus = Cy_Profile_GetRawCount(ctrAddr, &temp);
 606              		.loc 1 374 0
 607 0008 6946     		mov	r1, sp
 608              	.LVL49:
 609 000a FFF7FEFF 		bl	Cy_Profile_GetRawCount
 610              	.LVL50:
 375:Generated_Source\PSoC6\pdl\drivers\peripheral\profile/cy_profile.c ****     if (retStatus == CY_PROFILE_SUCCESS)
 611              		.loc 1 375 0
ARM GAS  C:\Users\gjl\AppData\Local\Temp\ccr7sVFh.s 			page 26


 612 000e 0146     		mov	r1, r0
 613 0010 40B9     		cbnz	r0, .L50
 376:Generated_Source\PSoC6\pdl\drivers\peripheral\profile/cy_profile.c ****     {
 377:Generated_Source\PSoC6\pdl\drivers\peripheral\profile/cy_profile.c ****         /* calculate weighted count */
 378:Generated_Source\PSoC6\pdl\drivers\peripheral\profile/cy_profile.c ****         *result = temp * (uint64_t)(ctrAddr->weight);
 614              		.loc 1 378 0
 615 0012 A869     		ldr	r0, [r5, #24]
 616              	.LVL51:
 617 0014 009A     		ldr	r2, [sp]
 618 0016 A2FB0023 		umull	r2, r3, r2, r0
 619 001a 019D     		ldr	r5, [sp, #4]
 620              	.LVL52:
 621 001c 00FB0533 		mla	r3, r0, r5, r3
 622 0020 C4E90023 		strd	r2, [r4]
 623              	.L50:
 379:Generated_Source\PSoC6\pdl\drivers\peripheral\profile/cy_profile.c ****     }
 380:Generated_Source\PSoC6\pdl\drivers\peripheral\profile/cy_profile.c ****     return (retStatus);
 381:Generated_Source\PSoC6\pdl\drivers\peripheral\profile/cy_profile.c **** }
 624              		.loc 1 381 0
 625 0024 0846     		mov	r0, r1
 626 0026 03B0     		add	sp, sp, #12
 627              		.cfi_def_cfa_offset 12
 628              		@ sp needed
 629 0028 30BD     		pop	{r4, r5, pc}
 630              		.cfi_endproc
 631              	.LFE139:
 632              		.size	Cy_Profile_GetWeightedCount, .-Cy_Profile_GetWeightedCount
 633 002a 00BF     		.section	.text.Cy_Profile_GetSumWeightedCounts,"ax",%progbits
 634              		.align	2
 635              		.global	Cy_Profile_GetSumWeightedCounts
 636              		.thumb
 637              		.thumb_func
 638              		.type	Cy_Profile_GetSumWeightedCounts, %function
 639              	Cy_Profile_GetSumWeightedCounts:
 640              	.LFB140:
 382:Generated_Source\PSoC6\pdl\drivers\peripheral\profile/cy_profile.c **** 
 383:Generated_Source\PSoC6\pdl\drivers\peripheral\profile/cy_profile.c **** /*******************************************************************************
 384:Generated_Source\PSoC6\pdl\drivers\peripheral\profile/cy_profile.c **** * Function Name: Cy_Profile_GetSumWeightedCounts
 385:Generated_Source\PSoC6\pdl\drivers\peripheral\profile/cy_profile.c **** ****************************************************************************//**
 386:Generated_Source\PSoC6\pdl\drivers\peripheral\profile/cy_profile.c **** *
 387:Generated_Source\PSoC6\pdl\drivers\peripheral\profile/cy_profile.c **** * Reports the weighted sum result of the first n number of counter count values
 388:Generated_Source\PSoC6\pdl\drivers\peripheral\profile/cy_profile.c **** * starting from the specified profile counter data structure base address.
 389:Generated_Source\PSoC6\pdl\drivers\peripheral\profile/cy_profile.c **** *
 390:Generated_Source\PSoC6\pdl\drivers\peripheral\profile/cy_profile.c **** * Each count value is multiplied by its weighing factor before the summing
 391:Generated_Source\PSoC6\pdl\drivers\peripheral\profile/cy_profile.c **** * operation is performed.
 392:Generated_Source\PSoC6\pdl\drivers\peripheral\profile/cy_profile.c **** *
 393:Generated_Source\PSoC6\pdl\drivers\peripheral\profile/cy_profile.c **** * \param ptrsArray Base address of the profile counter data structure
 394:Generated_Source\PSoC6\pdl\drivers\peripheral\profile/cy_profile.c **** *
 395:Generated_Source\PSoC6\pdl\drivers\peripheral\profile/cy_profile.c **** * \param numCounters Number of measured counters in ptrsArray[]
 396:Generated_Source\PSoC6\pdl\drivers\peripheral\profile/cy_profile.c **** *
 397:Generated_Source\PSoC6\pdl\drivers\peripheral\profile/cy_profile.c **** * \return
 398:Generated_Source\PSoC6\pdl\drivers\peripheral\profile/cy_profile.c **** * The weighted sum of the specified counters
 399:Generated_Source\PSoC6\pdl\drivers\peripheral\profile/cy_profile.c **** *
 400:Generated_Source\PSoC6\pdl\drivers\peripheral\profile/cy_profile.c **** * \funcusage
 401:Generated_Source\PSoC6\pdl\drivers\peripheral\profile/cy_profile.c **** * \snippet profile/profile_v1_0_sut_01.cydsn/main_cm4.c snippet_Cy_Profile_GetSumWeightedCounts
 402:Generated_Source\PSoC6\pdl\drivers\peripheral\profile/cy_profile.c **** *
 403:Generated_Source\PSoC6\pdl\drivers\peripheral\profile/cy_profile.c **** *******************************************************************************/
ARM GAS  C:\Users\gjl\AppData\Local\Temp\ccr7sVFh.s 			page 27


 404:Generated_Source\PSoC6\pdl\drivers\peripheral\profile/cy_profile.c **** uint64_t Cy_Profile_GetSumWeightedCounts(cy_stc_profile_ctr_ptr_t ptrsArray[],
 405:Generated_Source\PSoC6\pdl\drivers\peripheral\profile/cy_profile.c ****                                     uint32_t numCounters)
 406:Generated_Source\PSoC6\pdl\drivers\peripheral\profile/cy_profile.c **** {
 641              		.loc 1 406 0
 642              		.cfi_startproc
 643              		@ args = 0, pretend = 0, frame = 8
 644              		@ frame_needed = 0, uses_anonymous_args = 0
 645              	.LVL53:
 646 0000 2DE9F041 		push	{r4, r5, r6, r7, r8, lr}
 647              		.cfi_def_cfa_offset 24
 648              		.cfi_offset 4, -24
 649              		.cfi_offset 5, -20
 650              		.cfi_offset 6, -16
 651              		.cfi_offset 7, -12
 652              		.cfi_offset 8, -8
 653              		.cfi_offset 14, -4
 654 0004 82B0     		sub	sp, sp, #8
 655              		.cfi_def_cfa_offset 32
 656 0006 8046     		mov	r8, r0
 657 0008 0D46     		mov	r5, r1
 658              	.LVL54:
 407:Generated_Source\PSoC6\pdl\drivers\peripheral\profile/cy_profile.c ****     uint64_t daSum = (uint64_t)0ul;
 408:Generated_Source\PSoC6\pdl\drivers\peripheral\profile/cy_profile.c ****     uint64_t num;
 409:Generated_Source\PSoC6\pdl\drivers\peripheral\profile/cy_profile.c ****     uint32_t i;
 410:Generated_Source\PSoC6\pdl\drivers\peripheral\profile/cy_profile.c **** 
 411:Generated_Source\PSoC6\pdl\drivers\peripheral\profile/cy_profile.c ****     for (i = 0ul; i < numCounters; i++)
 659              		.loc 1 411 0
 660 000a 0024     		movs	r4, #0
 407:Generated_Source\PSoC6\pdl\drivers\peripheral\profile/cy_profile.c ****     uint64_t daSum = (uint64_t)0ul;
 661              		.loc 1 407 0
 662 000c 0026     		movs	r6, #0
 663 000e 0027     		movs	r7, #0
 664              		.loc 1 411 0
 665 0010 0AE0     		b	.L53
 666              	.LVL55:
 667              	.L55:
 412:Generated_Source\PSoC6\pdl\drivers\peripheral\profile/cy_profile.c ****     {
 413:Generated_Source\PSoC6\pdl\drivers\peripheral\profile/cy_profile.c ****         /* ignore error reported by Ep_GetWeightedCount() */
 414:Generated_Source\PSoC6\pdl\drivers\peripheral\profile/cy_profile.c ****         if (Cy_Profile_GetWeightedCount(ptrsArray[i], &num) == CY_PROFILE_SUCCESS)
 668              		.loc 1 414 0
 669 0012 6946     		mov	r1, sp
 670 0014 58F82400 		ldr	r0, [r8, r4, lsl #2]
 671 0018 FFF7FEFF 		bl	Cy_Profile_GetWeightedCount
 672              	.LVL56:
 673 001c 18B9     		cbnz	r0, .L54
 415:Generated_Source\PSoC6\pdl\drivers\peripheral\profile/cy_profile.c ****         {
 416:Generated_Source\PSoC6\pdl\drivers\peripheral\profile/cy_profile.c ****             daSum += num;
 674              		.loc 1 416 0
 675 001e DDE90023 		ldrd	r2, [sp]
 676 0022 B618     		adds	r6, r6, r2
 677              	.LVL57:
 678 0024 5F41     		adcs	r7, r7, r3
 679              	.LVL58:
 680              	.L54:
 411:Generated_Source\PSoC6\pdl\drivers\peripheral\profile/cy_profile.c ****     {
 681              		.loc 1 411 0 discriminator 2
 682 0026 0134     		adds	r4, r4, #1
ARM GAS  C:\Users\gjl\AppData\Local\Temp\ccr7sVFh.s 			page 28


 683              	.LVL59:
 684              	.L53:
 411:Generated_Source\PSoC6\pdl\drivers\peripheral\profile/cy_profile.c ****     {
 685              		.loc 1 411 0 is_stmt 0 discriminator 1
 686 0028 AC42     		cmp	r4, r5
 687 002a F2D3     		bcc	.L55
 417:Generated_Source\PSoC6\pdl\drivers\peripheral\profile/cy_profile.c ****         }
 418:Generated_Source\PSoC6\pdl\drivers\peripheral\profile/cy_profile.c ****     }
 419:Generated_Source\PSoC6\pdl\drivers\peripheral\profile/cy_profile.c ****     
 420:Generated_Source\PSoC6\pdl\drivers\peripheral\profile/cy_profile.c ****     return (daSum);
 421:Generated_Source\PSoC6\pdl\drivers\peripheral\profile/cy_profile.c **** }
 688              		.loc 1 421 0 is_stmt 1
 689 002c 3046     		mov	r0, r6
 690 002e 3946     		mov	r1, r7
 691 0030 02B0     		add	sp, sp, #8
 692              		.cfi_def_cfa_offset 24
 693              		@ sp needed
 694 0032 BDE8F081 		pop	{r4, r5, r6, r7, r8, pc}
 695              		.cfi_endproc
 696              	.LFE140:
 697              		.size	Cy_Profile_GetSumWeightedCounts, .-Cy_Profile_GetSumWeightedCounts
 698 0036 00BF     		.bss
 699              		.align	2
 700              		.set	.LANCHOR0,. + 0
 701              		.type	cy_ep_ctrs, %object
 702              		.size	cy_ep_ctrs, 224
 703              	cy_ep_ctrs:
 704 0000 00000000 		.space	224
 704      00000000 
 704      00000000 
 704      00000000 
 704      00000000 
 705              		.text
 706              	.Letext0:
 707              		.file 3 "c:\\program files (x86)\\cypress\\psoc creator\\4.2\\psoc creator\\import\\gnu\\arm\\5.4.
 708              		.file 4 "c:\\program files (x86)\\cypress\\psoc creator\\4.2\\psoc creator\\import\\gnu\\arm\\5.4.
 709              		.file 5 "Generated_Source\\PSoC6\\pdl\\devices/psoc6/psoc63/include/psoc63_config.h"
 710              		.file 6 "Generated_Source\\PSoC6\\pdl\\devices/psoc6/ip/cyip_profile.h"
 711              		.file 7 "Generated_Source\\PSoC6\\pdl\\cmsis/include/core_cm4.h"