ARM GAS  C:\Users\gjl\AppData\Local\Temp\ccPrGmsh.s 			page 1


   1              		.syntax unified
   2              		.cpu cortex-m4
   3              		.eabi_attribute 27, 1
   4              		.fpu fpv4-sp-d16
   5              		.eabi_attribute 20, 1
   6              		.eabi_attribute 21, 1
   7              		.eabi_attribute 23, 3
   8              		.eabi_attribute 24, 1
   9              		.eabi_attribute 25, 1
  10              		.eabi_attribute 26, 1
  11              		.eabi_attribute 30, 1
  12              		.eabi_attribute 34, 1
  13              		.eabi_attribute 18, 4
  14              		.thumb
  15              		.syntax unified
  16              		.file	"main_cm4.c"
  17              		.text
  18              	.Ltext0:
  19              		.cfi_sections	.debug_frame
  20              		.global	__aeabi_f2d
  21              		.global	__aeabi_dmul
  22              		.global	__aeabi_dadd
  23              		.section	.text.main,"ax",%progbits
  24              		.align	2
  25              		.global	main
  26              		.thumb
  27              		.thumb_func
  28              		.type	main, %function
  29              	main:
  30              	.LFB516:
  31              		.file 1 "main_cm4.c"
   1:main_cm4.c    **** /* ========================================
   2:main_cm4.c    ****  *
   3:main_cm4.c    ****  * Copyright YOUR COMPANY, THE YEAR
   4:main_cm4.c    ****  * All Rights Reserved
   5:main_cm4.c    ****  * UNPUBLISHED, LICENSED SOFTWARE.
   6:main_cm4.c    ****  *
   7:main_cm4.c    ****  * CONFIDENTIAL AND PROPRIETARY INFORMATION
   8:main_cm4.c    ****  * WHICH IS THE PROPERTY OF your company.
   9:main_cm4.c    ****  *
  10:main_cm4.c    ****  * ========================================
  11:main_cm4.c    **** */
  12:main_cm4.c    **** #include "project.h"
  13:main_cm4.c    **** #include "Thermistor.h"
  14:main_cm4.c    **** #include <stdio.h>
  15:main_cm4.c    **** 
  16:main_cm4.c    **** int main(void)
  17:main_cm4.c    **** {
  32              		.loc 1 17 0
  33              		.cfi_startproc
  34              		@ args = 0, pretend = 0, frame = 0
  35              		@ frame_needed = 0, uses_anonymous_args = 0
  36 0000 2DE9F043 		push	{r4, r5, r6, r7, r8, r9, lr}
  37              		.cfi_def_cfa_offset 28
  38              		.cfi_offset 4, -28
  39              		.cfi_offset 5, -24
  40              		.cfi_offset 6, -20
ARM GAS  C:\Users\gjl\AppData\Local\Temp\ccPrGmsh.s 			page 2


  41              		.cfi_offset 7, -16
  42              		.cfi_offset 8, -12
  43              		.cfi_offset 9, -8
  44              		.cfi_offset 14, -4
  45 0004 2DED048B 		vpush.64	{d8, d9}
  46              		.cfi_def_cfa_offset 44
  47              		.cfi_offset 80, -44
  48              		.cfi_offset 81, -40
  49              		.cfi_offset 82, -36
  50              		.cfi_offset 83, -32
  51 0008 89B0     		sub	sp, sp, #36
  52              		.cfi_def_cfa_offset 80
  53              	.LBB5:
  54              	.LBB6:
  55              		.file 2 "Generated_Source\\PSoC6\\pdl\\cmsis/include/cmsis_gcc.h"
   1:Generated_Source\PSoC6\pdl\cmsis/include/cmsis_gcc.h **** /**************************************************************************//**
   2:Generated_Source\PSoC6\pdl\cmsis/include/cmsis_gcc.h ****  * @file     cmsis_gcc.h
   3:Generated_Source\PSoC6\pdl\cmsis/include/cmsis_gcc.h ****  * @brief    CMSIS compiler GCC header file
   4:Generated_Source\PSoC6\pdl\cmsis/include/cmsis_gcc.h ****  * @version  V5.0.1
   5:Generated_Source\PSoC6\pdl\cmsis/include/cmsis_gcc.h ****  * @date     02. February 2017
   6:Generated_Source\PSoC6\pdl\cmsis/include/cmsis_gcc.h ****  ******************************************************************************/
   7:Generated_Source\PSoC6\pdl\cmsis/include/cmsis_gcc.h **** /*
   8:Generated_Source\PSoC6\pdl\cmsis/include/cmsis_gcc.h ****  * Copyright (c) 2009-2017 ARM Limited. All rights reserved.
   9:Generated_Source\PSoC6\pdl\cmsis/include/cmsis_gcc.h ****  *
  10:Generated_Source\PSoC6\pdl\cmsis/include/cmsis_gcc.h ****  * SPDX-License-Identifier: Apache-2.0
  11:Generated_Source\PSoC6\pdl\cmsis/include/cmsis_gcc.h ****  *
  12:Generated_Source\PSoC6\pdl\cmsis/include/cmsis_gcc.h ****  * Licensed under the Apache License, Version 2.0 (the License); you may
  13:Generated_Source\PSoC6\pdl\cmsis/include/cmsis_gcc.h ****  * not use this file except in compliance with the License.
  14:Generated_Source\PSoC6\pdl\cmsis/include/cmsis_gcc.h ****  * You may obtain a copy of the License at
  15:Generated_Source\PSoC6\pdl\cmsis/include/cmsis_gcc.h ****  *
  16:Generated_Source\PSoC6\pdl\cmsis/include/cmsis_gcc.h ****  * www.apache.org/licenses/LICENSE-2.0
  17:Generated_Source\PSoC6\pdl\cmsis/include/cmsis_gcc.h ****  *
  18:Generated_Source\PSoC6\pdl\cmsis/include/cmsis_gcc.h ****  * Unless required by applicable law or agreed to in writing, software
  19:Generated_Source\PSoC6\pdl\cmsis/include/cmsis_gcc.h ****  * distributed under the License is distributed on an AS IS BASIS, WITHOUT
  20:Generated_Source\PSoC6\pdl\cmsis/include/cmsis_gcc.h ****  * WARRANTIES OR CONDITIONS OF ANY KIND, either express or implied.
  21:Generated_Source\PSoC6\pdl\cmsis/include/cmsis_gcc.h ****  * See the License for the specific language governing permissions and
  22:Generated_Source\PSoC6\pdl\cmsis/include/cmsis_gcc.h ****  * limitations under the License.
  23:Generated_Source\PSoC6\pdl\cmsis/include/cmsis_gcc.h ****  */
  24:Generated_Source\PSoC6\pdl\cmsis/include/cmsis_gcc.h **** 
  25:Generated_Source\PSoC6\pdl\cmsis/include/cmsis_gcc.h **** #ifndef __CMSIS_GCC_H
  26:Generated_Source\PSoC6\pdl\cmsis/include/cmsis_gcc.h **** #define __CMSIS_GCC_H
  27:Generated_Source\PSoC6\pdl\cmsis/include/cmsis_gcc.h **** 
  28:Generated_Source\PSoC6\pdl\cmsis/include/cmsis_gcc.h **** /* ignore some GCC warnings */
  29:Generated_Source\PSoC6\pdl\cmsis/include/cmsis_gcc.h **** #pragma GCC diagnostic push
  30:Generated_Source\PSoC6\pdl\cmsis/include/cmsis_gcc.h **** #pragma GCC diagnostic ignored "-Wsign-conversion"
  31:Generated_Source\PSoC6\pdl\cmsis/include/cmsis_gcc.h **** #pragma GCC diagnostic ignored "-Wconversion"
  32:Generated_Source\PSoC6\pdl\cmsis/include/cmsis_gcc.h **** #pragma GCC diagnostic ignored "-Wunused-parameter"
  33:Generated_Source\PSoC6\pdl\cmsis/include/cmsis_gcc.h **** 
  34:Generated_Source\PSoC6\pdl\cmsis/include/cmsis_gcc.h **** /* CMSIS compiler specific defines */
  35:Generated_Source\PSoC6\pdl\cmsis/include/cmsis_gcc.h **** #ifndef   __ASM
  36:Generated_Source\PSoC6\pdl\cmsis/include/cmsis_gcc.h ****   #define __ASM                     __asm
  37:Generated_Source\PSoC6\pdl\cmsis/include/cmsis_gcc.h **** #endif
  38:Generated_Source\PSoC6\pdl\cmsis/include/cmsis_gcc.h **** #ifndef   __INLINE
  39:Generated_Source\PSoC6\pdl\cmsis/include/cmsis_gcc.h ****   #define __INLINE                  inline
  40:Generated_Source\PSoC6\pdl\cmsis/include/cmsis_gcc.h **** #endif
  41:Generated_Source\PSoC6\pdl\cmsis/include/cmsis_gcc.h **** #ifndef   __STATIC_INLINE
  42:Generated_Source\PSoC6\pdl\cmsis/include/cmsis_gcc.h ****   #define __STATIC_INLINE           static inline
ARM GAS  C:\Users\gjl\AppData\Local\Temp\ccPrGmsh.s 			page 3


  43:Generated_Source\PSoC6\pdl\cmsis/include/cmsis_gcc.h **** #endif
  44:Generated_Source\PSoC6\pdl\cmsis/include/cmsis_gcc.h **** #ifndef   __NO_RETURN
  45:Generated_Source\PSoC6\pdl\cmsis/include/cmsis_gcc.h ****   #define __NO_RETURN               __attribute__((noreturn))
  46:Generated_Source\PSoC6\pdl\cmsis/include/cmsis_gcc.h **** #endif
  47:Generated_Source\PSoC6\pdl\cmsis/include/cmsis_gcc.h **** #ifndef   __USED
  48:Generated_Source\PSoC6\pdl\cmsis/include/cmsis_gcc.h ****   #define __USED                    __attribute__((used))
  49:Generated_Source\PSoC6\pdl\cmsis/include/cmsis_gcc.h **** #endif
  50:Generated_Source\PSoC6\pdl\cmsis/include/cmsis_gcc.h **** #ifndef   __WEAK
  51:Generated_Source\PSoC6\pdl\cmsis/include/cmsis_gcc.h ****   #define __WEAK                    __attribute__((weak))
  52:Generated_Source\PSoC6\pdl\cmsis/include/cmsis_gcc.h **** #endif
  53:Generated_Source\PSoC6\pdl\cmsis/include/cmsis_gcc.h **** #ifndef   __UNALIGNED_UINT32
  54:Generated_Source\PSoC6\pdl\cmsis/include/cmsis_gcc.h **** #pragma GCC diagnostic push
  55:Generated_Source\PSoC6\pdl\cmsis/include/cmsis_gcc.h **** #pragma GCC diagnostic ignored "-Wpacked"
  56:Generated_Source\PSoC6\pdl\cmsis/include/cmsis_gcc.h **** #pragma GCC diagnostic ignored "-Wattributes"
  57:Generated_Source\PSoC6\pdl\cmsis/include/cmsis_gcc.h ****   struct __attribute__((packed)) T_UINT32 { uint32_t v; };
  58:Generated_Source\PSoC6\pdl\cmsis/include/cmsis_gcc.h **** #pragma GCC diagnostic pop
  59:Generated_Source\PSoC6\pdl\cmsis/include/cmsis_gcc.h ****   #define __UNALIGNED_UINT32(x)     (((struct T_UINT32 *)(x))->v)
  60:Generated_Source\PSoC6\pdl\cmsis/include/cmsis_gcc.h **** #endif
  61:Generated_Source\PSoC6\pdl\cmsis/include/cmsis_gcc.h **** #ifndef   __ALIGNED
  62:Generated_Source\PSoC6\pdl\cmsis/include/cmsis_gcc.h ****   #define __ALIGNED(x)              __attribute__((aligned(x)))
  63:Generated_Source\PSoC6\pdl\cmsis/include/cmsis_gcc.h **** #endif
  64:Generated_Source\PSoC6\pdl\cmsis/include/cmsis_gcc.h **** #ifndef   __PACKED
  65:Generated_Source\PSoC6\pdl\cmsis/include/cmsis_gcc.h ****   #define __PACKED                  __attribute__((packed, aligned(1)))
  66:Generated_Source\PSoC6\pdl\cmsis/include/cmsis_gcc.h **** #endif
  67:Generated_Source\PSoC6\pdl\cmsis/include/cmsis_gcc.h **** #ifndef   __PACKED_STRUCT
  68:Generated_Source\PSoC6\pdl\cmsis/include/cmsis_gcc.h ****   #define __PACKED_STRUCT           struct __attribute__((packed, aligned(1)))
  69:Generated_Source\PSoC6\pdl\cmsis/include/cmsis_gcc.h **** #endif
  70:Generated_Source\PSoC6\pdl\cmsis/include/cmsis_gcc.h **** 
  71:Generated_Source\PSoC6\pdl\cmsis/include/cmsis_gcc.h **** 
  72:Generated_Source\PSoC6\pdl\cmsis/include/cmsis_gcc.h **** /* ###########################  Core Function Access  ########################### */
  73:Generated_Source\PSoC6\pdl\cmsis/include/cmsis_gcc.h **** /** \ingroup  CMSIS_Core_FunctionInterface
  74:Generated_Source\PSoC6\pdl\cmsis/include/cmsis_gcc.h ****     \defgroup CMSIS_Core_RegAccFunctions CMSIS Core Register Access Functions
  75:Generated_Source\PSoC6\pdl\cmsis/include/cmsis_gcc.h ****   @{
  76:Generated_Source\PSoC6\pdl\cmsis/include/cmsis_gcc.h ****  */
  77:Generated_Source\PSoC6\pdl\cmsis/include/cmsis_gcc.h **** 
  78:Generated_Source\PSoC6\pdl\cmsis/include/cmsis_gcc.h **** /**
  79:Generated_Source\PSoC6\pdl\cmsis/include/cmsis_gcc.h ****   \brief   Enable IRQ Interrupts
  80:Generated_Source\PSoC6\pdl\cmsis/include/cmsis_gcc.h ****   \details Enables IRQ interrupts by clearing the I-bit in the CPSR.
  81:Generated_Source\PSoC6\pdl\cmsis/include/cmsis_gcc.h ****            Can only be executed in Privileged modes.
  82:Generated_Source\PSoC6\pdl\cmsis/include/cmsis_gcc.h ****  */
  83:Generated_Source\PSoC6\pdl\cmsis/include/cmsis_gcc.h **** __attribute__((always_inline)) __STATIC_INLINE void __enable_irq(void)
  84:Generated_Source\PSoC6\pdl\cmsis/include/cmsis_gcc.h **** {
  85:Generated_Source\PSoC6\pdl\cmsis/include/cmsis_gcc.h ****   __ASM volatile ("cpsie i" : : : "memory");
  56              		.loc 2 85 0
  57              		.syntax unified
  58              	@ 85 "Generated_Source\PSoC6\pdl\cmsis/include/cmsis_gcc.h" 1
  59 000a 62B6     		cpsie i
  60              	@ 0 "" 2
  61              		.thumb
  62              		.syntax unified
  63              	.LBE6:
  64              	.LBE5:
  18:main_cm4.c    ****     __enable_irq(); /* Enable global interrupts. */
  19:main_cm4.c    **** 
  20:main_cm4.c    ****     UART_1_Start();
  65              		.loc 1 20 0
  66 000c FFF7FEFF 		bl	UART_1_Start
ARM GAS  C:\Users\gjl\AppData\Local\Temp\ccPrGmsh.s 			page 4


  67              	.LVL0:
  21:main_cm4.c    ****     ADC_1_Start();
  68              		.loc 1 21 0
  69 0010 FFF7FEFF 		bl	ADC_1_Start
  70              	.LVL1:
  22:main_cm4.c    ****     Cy_SAR_StartConvert(SAR,CY_SAR_START_CONVERT_CONTINUOUS);
  71              		.loc 1 22 0
  72 0014 0121     		movs	r1, #1
  73 0016 3248     		ldr	r0, .L4+8
  74 0018 FFF7FEFF 		bl	Cy_SAR_StartConvert
  75              	.LVL2:
  76              	.L2:
  77              	.LBB7:
  23:main_cm4.c    **** 
  24:main_cm4.c    ****     for(;;)
  25:main_cm4.c    ****     {
  26:main_cm4.c    ****         float v1,v2;
  27:main_cm4.c    ****         int16_t countThermistor, countReference;
  28:main_cm4.c    **** 
  29:main_cm4.c    ****         /* Read the ADC count values */
  30:main_cm4.c    ****         countReference  = Cy_SAR_GetResult16(SAR,0);
  78              		.loc 1 30 0 discriminator 1
  79 001c 304C     		ldr	r4, .L4+8
  80 001e 0021     		movs	r1, #0
  81 0020 2046     		mov	r0, r4
  82 0022 FFF7FEFF 		bl	Cy_SAR_GetResult16
  83              	.LVL3:
  84 0026 0546     		mov	r5, r0
  85              	.LVL4:
  31:main_cm4.c    ****         countThermistor = Cy_SAR_GetResult16(SAR,1);
  86              		.loc 1 31 0 discriminator 1
  87 0028 0121     		movs	r1, #1
  88 002a 2046     		mov	r0, r4
  89 002c FFF7FEFF 		bl	Cy_SAR_GetResult16
  90              	.LVL5:
  91 0030 0646     		mov	r6, r0
  92              	.LVL6:
  32:main_cm4.c    ****    
  33:main_cm4.c    ****         v1 = Cy_SAR_CountsTo_Volts(SAR,0,countReference);
  93              		.loc 1 33 0 discriminator 1
  94 0032 2A46     		mov	r2, r5
  95 0034 0021     		movs	r1, #0
  96 0036 2046     		mov	r0, r4
  97 0038 FFF7FEFF 		bl	Cy_SAR_CountsTo_Volts
  98              	.LVL7:
  99 003c 08EE900A 		vmov	s17, r0
 100              	.LVL8:
  34:main_cm4.c    ****         v2 = Cy_SAR_CountsTo_Volts(SAR,1,countThermistor);
 101              		.loc 1 34 0 discriminator 1
 102 0040 3246     		mov	r2, r6
 103 0042 0121     		movs	r1, #1
 104 0044 2046     		mov	r0, r4
 105              	.LVL9:
 106 0046 FFF7FEFF 		bl	Cy_SAR_CountsTo_Volts
 107              	.LVL10:
 108 004a 08EE100A 		vmov	s16, r0
 109              	.LVL11:
ARM GAS  C:\Users\gjl\AppData\Local\Temp\ccPrGmsh.s 			page 5


  35:main_cm4.c    ****  
  36:main_cm4.c    ****         uint32 resT = Thermistor_GetResistance(countReference, countThermistor);
 110              		.loc 1 36 0 discriminator 1
 111 004e 3146     		mov	r1, r6
 112 0050 2846     		mov	r0, r5
 113              	.LVL12:
 114 0052 FFF7FEFF 		bl	Thermistor_GetResistance
 115              	.LVL13:
  37:main_cm4.c    ****         float temperature = (float)Thermistor_GetTemperature(resT) / 100.0 ;
 116              		.loc 1 37 0 discriminator 1
 117 0056 FFF7FEFF 		bl	Thermistor_GetTemperature
 118              	.LVL14:
 119 005a 07EE900A 		vmov	s15, r0	@ int
 120 005e B8EEE77A 		vcvt.f32.s32	s14, s15
 121              	.LVL15:
  38:main_cm4.c    ****  
  39:main_cm4.c    ****         printf("V1 = %fv V2=%fv Vtot =%fv T=%fC T=%fF\r\n",v1,v2,v1+v2,temperature,9.0/5.0*temperat
 122              		.loc 1 39 0 discriminator 1
 123 0062 38EE889A 		vadd.f32	s18, s17, s16
 124 0066 DFED1F7A 		vldr.32	s15, .L4+12
 125 006a C7EE276A 		vdiv.f32	s13, s14, s15
 126              	.LVL16:
 127 006e 16EE900A 		vmov	r0, s13
 128 0072 FFF7FEFF 		bl	__aeabi_f2d
 129              	.LVL17:
 130 0076 0646     		mov	r6, r0
 131              	.LVL18:
 132 0078 0F46     		mov	r7, r1
 133 007a 17A3     		adr	r3, .L4
 134 007c D3E90023 		ldrd	r2, [r3]
 135 0080 FFF7FEFF 		bl	__aeabi_dmul
 136              	.LVL19:
 137 0084 8046     		mov	r8, r0
 138 0086 8946     		mov	r9, r1
 139 0088 18EE900A 		vmov	r0, s17
 140 008c FFF7FEFF 		bl	__aeabi_f2d
 141              	.LVL20:
 142 0090 0446     		mov	r4, r0
 143 0092 0D46     		mov	r5, r1
 144              	.LVL21:
 145 0094 0022     		movs	r2, #0
 146 0096 144B     		ldr	r3, .L4+16
 147 0098 4046     		mov	r0, r8
 148 009a 4946     		mov	r1, r9
 149 009c FFF7FEFF 		bl	__aeabi_dadd
 150              	.LVL22:
 151 00a0 CDE90601 		strd	r0, [sp, #24]
 152 00a4 CDE90467 		strd	r6, [sp, #16]
 153 00a8 19EE100A 		vmov	r0, s18
 154 00ac FFF7FEFF 		bl	__aeabi_f2d
 155              	.LVL23:
 156 00b0 CDE90201 		strd	r0, [sp, #8]
 157 00b4 18EE100A 		vmov	r0, s16
 158 00b8 FFF7FEFF 		bl	__aeabi_f2d
 159              	.LVL24:
 160 00bc CDE90001 		strd	r0, [sp]
 161 00c0 2246     		mov	r2, r4
ARM GAS  C:\Users\gjl\AppData\Local\Temp\ccPrGmsh.s 			page 6


 162 00c2 2B46     		mov	r3, r5
 163 00c4 0948     		ldr	r0, .L4+20
 164 00c6 FFF7FEFF 		bl	printf
 165              	.LVL25:
  40:main_cm4.c    ****         CyDelay(200);
 166              		.loc 1 40 0 discriminator 1
 167 00ca C820     		movs	r0, #200
 168 00cc FFF7FEFF 		bl	Cy_SysLib_Delay
 169              	.LVL26:
 170 00d0 A4E7     		b	.L2
 171              	.L5:
 172 00d2 00BFAFF3 		.align	3
 172      0080
 173              	.L4:
 174 00d8 CDCCCCCC 		.word	-858993459
 175 00dc CCCCFC3F 		.word	1073532108
 176 00e0 00001D41 		.word	1092419584
 177 00e4 0000C842 		.word	1120403456
 178 00e8 00004040 		.word	1077936128
 179 00ec 00000000 		.word	.LC0
 180              	.LBE7:
 181              		.cfi_endproc
 182              	.LFE516:
 183              		.size	main, .-main
 184              		.section	.rodata.str1.4,"aMS",%progbits,1
 185              		.align	2
 186              	.LC0:
 187 0000 5631203D 		.ascii	"V1 = %fv V2=%fv Vtot =%fv T=%fC T=%fF\015\012\000"
 187      20256676 
 187      2056323D 
 187      25667620 
 187      56746F74 
 188              		.text
 189              	.Letext0:
 190              		.file 3 "c:\\program files (x86)\\cypress\\psoc creator\\4.2\\psoc creator\\import\\gnu\\arm\\5.4.
 191              		.file 4 "c:\\program files (x86)\\cypress\\psoc creator\\4.2\\psoc creator\\import\\gnu\\arm\\5.4.
 192              		.file 5 "Generated_Source\\PSoC6\\pdl\\devices/psoc6/ip/cyip_sar.h"
 193              		.file 6 "Generated_Source\\PSoC6\\pdl\\drivers/peripheral/syslib/cy_syslib.h"
 194              		.file 7 "Generated_Source\\PSoC6\\pdl\\drivers/peripheral/scb/cy_scb_uart.h"
 195              		.file 8 "Generated_Source\\PSoC6\\pdl\\drivers/peripheral/sar/cy_sar.h"
 196              		.file 9 "Generated_Source\\PSoC6/ADC_1.h"
 197              		.file 10 "Generated_Source\\PSoC6\\pdl\\cmsis/include/core_cm4.h"
 198              		.file 11 "Generated_Source\\PSoC6/UART_1.h"
 199              		.file 12 "Thermistor.h"
 200              		.file 13 "c:\\program files (x86)\\cypress\\psoc creator\\4.2\\psoc creator\\import\\gnu\\arm\\5.4