ARM GAS  C:\Users\gjl\AppData\Local\Temp\ccRZOvUj.s 			page 1


   1              		.syntax unified
   2              		.cpu cortex-m4
   3              		.eabi_attribute 27, 1
   4              		.fpu fpv4-sp-d16
   5              		.eabi_attribute 20, 1
   6              		.eabi_attribute 21, 1
   7              		.eabi_attribute 23, 3
   8              		.eabi_attribute 24, 1
   9              		.eabi_attribute 25, 1
  10              		.eabi_attribute 26, 1
  11              		.eabi_attribute 30, 1
  12              		.eabi_attribute 34, 1
  13              		.eabi_attribute 18, 4
  14              		.thumb
  15              		.syntax unified
  16              		.file	"cy_ble_event_handler.c"
  17              		.text
  18              	.Ltext0:
  19              		.cfi_sections	.debug_frame
  20              		.section	.text.Cy_BLE_SendWriteResponse,"ax",%progbits
  21              		.align	2
  22              		.thumb
  23              		.thumb_func
  24              		.type	Cy_BLE_SendWriteResponse, %function
  25              	Cy_BLE_SendWriteResponse:
  26              	.LFB288:
  27              		.file 1 "Generated_Source\\PSoC6\\pdl\\middleware\\ble\\cy_ble_event_handler.c"
   1:Generated_Source\PSoC6\pdl\middleware\ble/cy_ble_event_handler.c **** /***************************************************************************//**
   2:Generated_Source\PSoC6\pdl\middleware\ble/cy_ble_event_handler.c **** * \file cy_ble_event_handler.c
   3:Generated_Source\PSoC6\pdl\middleware\ble/cy_ble_event_handler.c **** * \version 2.0
   4:Generated_Source\PSoC6\pdl\middleware\ble/cy_ble_event_handler.c **** *
   5:Generated_Source\PSoC6\pdl\middleware\ble/cy_ble_event_handler.c **** * \brief
   6:Generated_Source\PSoC6\pdl\middleware\ble/cy_ble_event_handler.c **** *  This file contains the source code for the Event Handler State Machine
   7:Generated_Source\PSoC6\pdl\middleware\ble/cy_ble_event_handler.c **** *  of the BLE Middleware.
   8:Generated_Source\PSoC6\pdl\middleware\ble/cy_ble_event_handler.c **** *
   9:Generated_Source\PSoC6\pdl\middleware\ble/cy_ble_event_handler.c **** ********************************************************************************
  10:Generated_Source\PSoC6\pdl\middleware\ble/cy_ble_event_handler.c **** * \copyright
  11:Generated_Source\PSoC6\pdl\middleware\ble/cy_ble_event_handler.c **** * Copyright 2017-2018, Cypress Semiconductor Corporation.  All rights reserved.
  12:Generated_Source\PSoC6\pdl\middleware\ble/cy_ble_event_handler.c **** * You may use this file only in accordance with the license, terms, conditions,
  13:Generated_Source\PSoC6\pdl\middleware\ble/cy_ble_event_handler.c **** * disclaimers, and limitations in the end user license agreement accompanying
  14:Generated_Source\PSoC6\pdl\middleware\ble/cy_ble_event_handler.c **** * the software package with which this file was provided.
  15:Generated_Source\PSoC6\pdl\middleware\ble/cy_ble_event_handler.c **** *******************************************************************************/
  16:Generated_Source\PSoC6\pdl\middleware\ble/cy_ble_event_handler.c **** 
  17:Generated_Source\PSoC6\pdl\middleware\ble/cy_ble_event_handler.c **** #include "cy_ble_event_handler.h"
  18:Generated_Source\PSoC6\pdl\middleware\ble/cy_ble_event_handler.c **** 
  19:Generated_Source\PSoC6\pdl\middleware\ble/cy_ble_event_handler.c **** /* C binding of definitions if building with C++ compiler */
  20:Generated_Source\PSoC6\pdl\middleware\ble/cy_ble_event_handler.c **** #ifdef __cplusplus
  21:Generated_Source\PSoC6\pdl\middleware\ble/cy_ble_event_handler.c **** extern "C" {
  22:Generated_Source\PSoC6\pdl\middleware\ble/cy_ble_event_handler.c **** #endif /* __cplusplus */
  23:Generated_Source\PSoC6\pdl\middleware\ble/cy_ble_event_handler.c **** 
  24:Generated_Source\PSoC6\pdl\middleware\ble/cy_ble_event_handler.c **** #if (CY_BLE_MODE_PROFILE)
  25:Generated_Source\PSoC6\pdl\middleware\ble/cy_ble_event_handler.c **** 
  26:Generated_Source\PSoC6\pdl\middleware\ble/cy_ble_event_handler.c **** /***************************************
  27:Generated_Source\PSoC6\pdl\middleware\ble/cy_ble_event_handler.c **** * Private Function Prototypes
  28:Generated_Source\PSoC6\pdl\middleware\ble/cy_ble_event_handler.c **** ***************************************/
  29:Generated_Source\PSoC6\pdl\middleware\ble/cy_ble_event_handler.c **** 
  30:Generated_Source\PSoC6\pdl\middleware\ble/cy_ble_event_handler.c **** static void Cy_BLE_TimeOutEventHandler(const cy_stc_ble_timeout_param_t *eventParam);
ARM GAS  C:\Users\gjl\AppData\Local\Temp\ccRZOvUj.s 			page 2


  31:Generated_Source\PSoC6\pdl\middleware\ble/cy_ble_event_handler.c **** static void Cy_BLE_L2Cap_ConnParamUpdateRspEventHandler(const cy_stc_ble_l2cap_conn_update_rsp_para
  32:Generated_Source\PSoC6\pdl\middleware\ble/cy_ble_event_handler.c **** static void Cy_BLE_GAP_ConnUpdateCompleteEventHandler(const cy_stc_ble_gap_conn_param_updated_in_co
  33:Generated_Source\PSoC6\pdl\middleware\ble/cy_ble_event_handler.c **** 
  34:Generated_Source\PSoC6\pdl\middleware\ble/cy_ble_event_handler.c **** 
  35:Generated_Source\PSoC6\pdl\middleware\ble/cy_ble_event_handler.c **** #if (CY_BLE_GATT_ROLE_SERVER)
  36:Generated_Source\PSoC6\pdl\middleware\ble/cy_ble_event_handler.c **** static void Cy_BLE_SendWriteResponse(const cy_stc_ble_gatts_write_cmd_req_param_t *eventParam,
  37:Generated_Source\PSoC6\pdl\middleware\ble/cy_ble_event_handler.c ****                                      cy_en_ble_gatt_err_code_t gattErr);
  38:Generated_Source\PSoC6\pdl\middleware\ble/cy_ble_event_handler.c **** #endif /* CY_BLE_GATT_ROLE_SERVER */
  39:Generated_Source\PSoC6\pdl\middleware\ble/cy_ble_event_handler.c **** 
  40:Generated_Source\PSoC6\pdl\middleware\ble/cy_ble_event_handler.c **** #if (CY_BLE_GATT_ROLE_CLIENT)
  41:Generated_Source\PSoC6\pdl\middleware\ble/cy_ble_event_handler.c **** static void Cy_BLE_GAPC_DiscoverCharacteristicsEventHandler(cy_stc_ble_disc_char_info_t *discCharIn
  42:Generated_Source\PSoC6\pdl\middleware\ble/cy_ble_event_handler.c **** #endif /* CY_BLE_GATT_ROLE_CLIENT */
  43:Generated_Source\PSoC6\pdl\middleware\ble/cy_ble_event_handler.c **** 
  44:Generated_Source\PSoC6\pdl\middleware\ble/cy_ble_event_handler.c **** 
  45:Generated_Source\PSoC6\pdl\middleware\ble/cy_ble_event_handler.c **** /***************************************
  46:Generated_Source\PSoC6\pdl\middleware\ble/cy_ble_event_handler.c **** * Global Variables
  47:Generated_Source\PSoC6\pdl\middleware\ble/cy_ble_event_handler.c **** ***************************************/
  48:Generated_Source\PSoC6\pdl\middleware\ble/cy_ble_event_handler.c **** volatile uint8_t cy_ble_busyStatus[CY_BLE_CONN_COUNT];
  49:Generated_Source\PSoC6\pdl\middleware\ble/cy_ble_event_handler.c **** volatile uint8_t cy_ble_eventHandlerFlag;
  50:Generated_Source\PSoC6\pdl\middleware\ble/cy_ble_event_handler.c **** volatile uint32_t cy_ble_cmdStatus;
  51:Generated_Source\PSoC6\pdl\middleware\ble/cy_ble_event_handler.c **** 
  52:Generated_Source\PSoC6\pdl\middleware\ble/cy_ble_event_handler.c **** #if (CY_BLE_GAP_ROLE_PERIPHERAL || CY_BLE_GAP_ROLE_BROADCASTER)
  53:Generated_Source\PSoC6\pdl\middleware\ble/cy_ble_event_handler.c **** uint8_t cy_ble_advertisingIntervalType;
  54:Generated_Source\PSoC6\pdl\middleware\ble/cy_ble_event_handler.c **** #endif /* CY_BLE_GAP_ROLE_PERIPHERAL || CY_BLE_GAP_ROLE_BROADCASTER) */
  55:Generated_Source\PSoC6\pdl\middleware\ble/cy_ble_event_handler.c **** 
  56:Generated_Source\PSoC6\pdl\middleware\ble/cy_ble_event_handler.c **** #if (CY_BLE_GAP_ROLE_CENTRAL || CY_BLE_GAP_ROLE_OBSERVER)
  57:Generated_Source\PSoC6\pdl\middleware\ble/cy_ble_event_handler.c **** uint8_t cy_ble_scanningIntervalType;
  58:Generated_Source\PSoC6\pdl\middleware\ble/cy_ble_event_handler.c **** #endif /* CY_BLE_GAP_ROLE_CENTRAL || CY_BLE_GAP_ROLE_OBSERVER */
  59:Generated_Source\PSoC6\pdl\middleware\ble/cy_ble_event_handler.c **** 
  60:Generated_Source\PSoC6\pdl\middleware\ble/cy_ble_event_handler.c **** #if (CY_BLE_GATT_ROLE_CLIENT)
  61:Generated_Source\PSoC6\pdl\middleware\ble/cy_ble_event_handler.c **** cy_stc_ble_discovery_t cy_ble_discovery[CY_BLE_GATTC_COUNT];
  62:Generated_Source\PSoC6\pdl\middleware\ble/cy_ble_event_handler.c **** cy_stc_ble_disc_srvc_info_t cy_ble_serverInfo[CY_BLE_GATTC_COUNT][CY_BLE_SRVI_COUNT];
  63:Generated_Source\PSoC6\pdl\middleware\ble/cy_ble_event_handler.c **** #endif /* CY_BLE_GATT_ROLE_CLIENT */
  64:Generated_Source\PSoC6\pdl\middleware\ble/cy_ble_event_handler.c **** 
  65:Generated_Source\PSoC6\pdl\middleware\ble/cy_ble_event_handler.c **** #if (CY_BLE_GAP_ROLE_PERIPHERAL || CY_BLE_GAP_ROLE_CENTRAL)
  66:Generated_Source\PSoC6\pdl\middleware\ble/cy_ble_event_handler.c **** cy_stc_ble_event_handler_t cy_ble_eventHandler;
  67:Generated_Source\PSoC6\pdl\middleware\ble/cy_ble_event_handler.c **** 
  68:Generated_Source\PSoC6\pdl\middleware\ble/cy_ble_event_handler.c **** 
  69:Generated_Source\PSoC6\pdl\middleware\ble/cy_ble_event_handler.c **** /******************************************************************************
  70:Generated_Source\PSoC6\pdl\middleware\ble/cy_ble_event_handler.c **** * Function Name: Cy_BLE_RegisterServiceEventHandler
  71:Generated_Source\PSoC6\pdl\middleware\ble/cy_ble_event_handler.c **** ***************************************************************************//**
  72:Generated_Source\PSoC6\pdl\middleware\ble/cy_ble_event_handler.c **** *
  73:Generated_Source\PSoC6\pdl\middleware\ble/cy_ble_event_handler.c **** *  Registration Service Event Handler
  74:Generated_Source\PSoC6\pdl\middleware\ble/cy_ble_event_handler.c **** *
  75:Generated_Source\PSoC6\pdl\middleware\ble/cy_ble_event_handler.c **** *  \param  eventHandlerFunc: The pointer to the callback procedure.
  76:Generated_Source\PSoC6\pdl\middleware\ble/cy_ble_event_handler.c **** *
  77:Generated_Source\PSoC6\pdl\middleware\ble/cy_ble_event_handler.c **** *  \return
  78:Generated_Source\PSoC6\pdl\middleware\ble/cy_ble_event_handler.c **** *  cy_en_ble_api_result_t : Return value indicates if the function succeeded or
  79:Generated_Source\PSoC6\pdl\middleware\ble/cy_ble_event_handler.c **** *  failed. The following are possible error codes.
  80:Generated_Source\PSoC6\pdl\middleware\ble/cy_ble_event_handler.c **** *
  81:Generated_Source\PSoC6\pdl\middleware\ble/cy_ble_event_handler.c **** *   Error Codes                           | Description
  82:Generated_Source\PSoC6\pdl\middleware\ble/cy_ble_event_handler.c **** *   ------------                          | -----------
  83:Generated_Source\PSoC6\pdl\middleware\ble/cy_ble_event_handler.c **** *   CY_BLE_SUCCESS                        | The function completed successfully.
  84:Generated_Source\PSoC6\pdl\middleware\ble/cy_ble_event_handler.c **** *   CY_BLE_ERROR_INVALID_PARAMETER        | On specifying NULL as input parameter.
  85:Generated_Source\PSoC6\pdl\middleware\ble/cy_ble_event_handler.c **** *   CY_BLE_ERROR_MEMORY_ALLOCATION_FAILED | Buffer overflow in the registration callback.
  86:Generated_Source\PSoC6\pdl\middleware\ble/cy_ble_event_handler.c **** *
  87:Generated_Source\PSoC6\pdl\middleware\ble/cy_ble_event_handler.c **** ******************************************************************************/
ARM GAS  C:\Users\gjl\AppData\Local\Temp\ccRZOvUj.s 			page 3


  88:Generated_Source\PSoC6\pdl\middleware\ble/cy_ble_event_handler.c **** cy_en_ble_api_result_t Cy_BLE_RegisterServiceEventHandler(cy_ble_event_handle_t eventHandlerFunc)
  89:Generated_Source\PSoC6\pdl\middleware\ble/cy_ble_event_handler.c **** {
  90:Generated_Source\PSoC6\pdl\middleware\ble/cy_ble_event_handler.c ****     cy_en_ble_api_result_t apiResult = CY_BLE_SUCCESS;
  91:Generated_Source\PSoC6\pdl\middleware\ble/cy_ble_event_handler.c ****     uint8_t existFlag = 0u;
  92:Generated_Source\PSoC6\pdl\middleware\ble/cy_ble_event_handler.c **** 
  93:Generated_Source\PSoC6\pdl\middleware\ble/cy_ble_event_handler.c ****     if(eventHandlerFunc == NULL)
  94:Generated_Source\PSoC6\pdl\middleware\ble/cy_ble_event_handler.c ****     {
  95:Generated_Source\PSoC6\pdl\middleware\ble/cy_ble_event_handler.c ****         apiResult = CY_BLE_ERROR_INVALID_PARAMETER;
  96:Generated_Source\PSoC6\pdl\middleware\ble/cy_ble_event_handler.c ****     }
  97:Generated_Source\PSoC6\pdl\middleware\ble/cy_ble_event_handler.c ****     else
  98:Generated_Source\PSoC6\pdl\middleware\ble/cy_ble_event_handler.c ****     {
  99:Generated_Source\PSoC6\pdl\middleware\ble/cy_ble_event_handler.c ****         /* Check if eventHandlerFunc has been already registered */
 100:Generated_Source\PSoC6\pdl\middleware\ble/cy_ble_event_handler.c ****         uint32_t idx;
 101:Generated_Source\PSoC6\pdl\middleware\ble/cy_ble_event_handler.c ****         for(idx = 0u; (idx < cy_ble_eventHandler.count) && (existFlag == 0u); idx++)
 102:Generated_Source\PSoC6\pdl\middleware\ble/cy_ble_event_handler.c ****         {
 103:Generated_Source\PSoC6\pdl\middleware\ble/cy_ble_event_handler.c ****             if(cy_ble_eventHandler.serviceEventHandler[idx] == eventHandlerFunc)
 104:Generated_Source\PSoC6\pdl\middleware\ble/cy_ble_event_handler.c ****             {
 105:Generated_Source\PSoC6\pdl\middleware\ble/cy_ble_event_handler.c ****                 existFlag = 1u;
 106:Generated_Source\PSoC6\pdl\middleware\ble/cy_ble_event_handler.c ****             }
 107:Generated_Source\PSoC6\pdl\middleware\ble/cy_ble_event_handler.c ****         }
 108:Generated_Source\PSoC6\pdl\middleware\ble/cy_ble_event_handler.c ****     }
 109:Generated_Source\PSoC6\pdl\middleware\ble/cy_ble_event_handler.c ****     /* Register eventHandlerFunc callback */
 110:Generated_Source\PSoC6\pdl\middleware\ble/cy_ble_event_handler.c ****     if((apiResult == CY_BLE_SUCCESS) && (existFlag == 0u))
 111:Generated_Source\PSoC6\pdl\middleware\ble/cy_ble_event_handler.c ****     {
 112:Generated_Source\PSoC6\pdl\middleware\ble/cy_ble_event_handler.c ****         if(cy_ble_eventHandler.count < CY_BLE_MAX_SRVI)
 113:Generated_Source\PSoC6\pdl\middleware\ble/cy_ble_event_handler.c ****         {
 114:Generated_Source\PSoC6\pdl\middleware\ble/cy_ble_event_handler.c ****             cy_ble_eventHandler.serviceEventHandler[cy_ble_eventHandler.count] = eventHandlerFunc;
 115:Generated_Source\PSoC6\pdl\middleware\ble/cy_ble_event_handler.c ****             cy_ble_eventHandler.count += 1u;
 116:Generated_Source\PSoC6\pdl\middleware\ble/cy_ble_event_handler.c ****         }
 117:Generated_Source\PSoC6\pdl\middleware\ble/cy_ble_event_handler.c ****         else
 118:Generated_Source\PSoC6\pdl\middleware\ble/cy_ble_event_handler.c ****         {
 119:Generated_Source\PSoC6\pdl\middleware\ble/cy_ble_event_handler.c ****             apiResult = CY_BLE_ERROR_MEMORY_ALLOCATION_FAILED;
 120:Generated_Source\PSoC6\pdl\middleware\ble/cy_ble_event_handler.c ****         }
 121:Generated_Source\PSoC6\pdl\middleware\ble/cy_ble_event_handler.c ****     }
 122:Generated_Source\PSoC6\pdl\middleware\ble/cy_ble_event_handler.c **** 
 123:Generated_Source\PSoC6\pdl\middleware\ble/cy_ble_event_handler.c ****     return(apiResult);
 124:Generated_Source\PSoC6\pdl\middleware\ble/cy_ble_event_handler.c **** }
 125:Generated_Source\PSoC6\pdl\middleware\ble/cy_ble_event_handler.c **** 
 126:Generated_Source\PSoC6\pdl\middleware\ble/cy_ble_event_handler.c **** /******************************************************************************
 127:Generated_Source\PSoC6\pdl\middleware\ble/cy_ble_event_handler.c **** * Function Name: Cy_BLE_InvokeServiceEventHandler
 128:Generated_Source\PSoC6\pdl\middleware\ble/cy_ble_event_handler.c **** ***************************************************************************//**
 129:Generated_Source\PSoC6\pdl\middleware\ble/cy_ble_event_handler.c **** *
 130:Generated_Source\PSoC6\pdl\middleware\ble/cy_ble_event_handler.c **** *  Invoke registered service event handlers.
 131:Generated_Source\PSoC6\pdl\middleware\ble/cy_ble_event_handler.c **** *
 132:Generated_Source\PSoC6\pdl\middleware\ble/cy_ble_event_handler.c **** *  \param eventCode:   The event code.
 133:Generated_Source\PSoC6\pdl\middleware\ble/cy_ble_event_handler.c **** *  \param eventParam:  The event parameters.
 134:Generated_Source\PSoC6\pdl\middleware\ble/cy_ble_event_handler.c **** *
 135:Generated_Source\PSoC6\pdl\middleware\ble/cy_ble_event_handler.c **** * \return
 136:Generated_Source\PSoC6\pdl\middleware\ble/cy_ble_event_handler.c **** *  A return value of type cy_en_ble_gatt_err_code_t.
 137:Generated_Source\PSoC6\pdl\middleware\ble/cy_ble_event_handler.c **** *
 138:Generated_Source\PSoC6\pdl\middleware\ble/cy_ble_event_handler.c **** ******************************************************************************/
 139:Generated_Source\PSoC6\pdl\middleware\ble/cy_ble_event_handler.c **** cy_en_ble_gatt_err_code_t Cy_BLE_InvokeServiceEventHandler(uint32_t eventCode,
 140:Generated_Source\PSoC6\pdl\middleware\ble/cy_ble_event_handler.c ****                                                            void *eventParam)
 141:Generated_Source\PSoC6\pdl\middleware\ble/cy_ble_event_handler.c **** {
 142:Generated_Source\PSoC6\pdl\middleware\ble/cy_ble_event_handler.c ****     uint32_t idx;
 143:Generated_Source\PSoC6\pdl\middleware\ble/cy_ble_event_handler.c ****     cy_en_ble_gatt_err_code_t gattErr = CY_BLE_GATT_ERR_NONE;
 144:Generated_Source\PSoC6\pdl\middleware\ble/cy_ble_event_handler.c **** 
ARM GAS  C:\Users\gjl\AppData\Local\Temp\ccRZOvUj.s 			page 4


 145:Generated_Source\PSoC6\pdl\middleware\ble/cy_ble_event_handler.c ****     for(idx = 0u; (idx < cy_ble_eventHandler.count) && ((cy_ble_eventHandlerFlag & CY_BLE_CALLBACK)
 146:Generated_Source\PSoC6\pdl\middleware\ble/cy_ble_event_handler.c ****     {
 147:Generated_Source\PSoC6\pdl\middleware\ble/cy_ble_event_handler.c ****         gattErr = cy_ble_eventHandler.serviceEventHandler[idx](eventCode, eventParam);
 148:Generated_Source\PSoC6\pdl\middleware\ble/cy_ble_event_handler.c ****     }
 149:Generated_Source\PSoC6\pdl\middleware\ble/cy_ble_event_handler.c **** 
 150:Generated_Source\PSoC6\pdl\middleware\ble/cy_ble_event_handler.c ****     return(gattErr);
 151:Generated_Source\PSoC6\pdl\middleware\ble/cy_ble_event_handler.c **** }
 152:Generated_Source\PSoC6\pdl\middleware\ble/cy_ble_event_handler.c **** #endif /* CY_BLE_GAP_ROLE_PERIPHERAL || CY_BLE_GAP_ROLE_CENTRAL */
 153:Generated_Source\PSoC6\pdl\middleware\ble/cy_ble_event_handler.c **** 
 154:Generated_Source\PSoC6\pdl\middleware\ble/cy_ble_event_handler.c **** #if (CY_BLE_GATT_ROLE_SERVER)
 155:Generated_Source\PSoC6\pdl\middleware\ble/cy_ble_event_handler.c **** 
 156:Generated_Source\PSoC6\pdl\middleware\ble/cy_ble_event_handler.c **** 
 157:Generated_Source\PSoC6\pdl\middleware\ble/cy_ble_event_handler.c **** /******************************************************************************
 158:Generated_Source\PSoC6\pdl\middleware\ble/cy_ble_event_handler.c **** * Function Name: Cy_BLE_SendWriteResponse
 159:Generated_Source\PSoC6\pdl\middleware\ble/cy_ble_event_handler.c **** ***************************************************************************//**
 160:Generated_Source\PSoC6\pdl\middleware\ble/cy_ble_event_handler.c **** *
 161:Generated_Source\PSoC6\pdl\middleware\ble/cy_ble_event_handler.c **** *  Sends the Write Response to Write Request when event was handled by service.
 162:Generated_Source\PSoC6\pdl\middleware\ble/cy_ble_event_handler.c **** *
 163:Generated_Source\PSoC6\pdl\middleware\ble/cy_ble_event_handler.c **** *  \param eventParam - The event parameter.
 164:Generated_Source\PSoC6\pdl\middleware\ble/cy_ble_event_handler.c **** *  \param gattErr - The error code.
 165:Generated_Source\PSoC6\pdl\middleware\ble/cy_ble_event_handler.c **** *
 166:Generated_Source\PSoC6\pdl\middleware\ble/cy_ble_event_handler.c **** * \return
 167:Generated_Source\PSoC6\pdl\middleware\ble/cy_ble_event_handler.c **** *  None.
 168:Generated_Source\PSoC6\pdl\middleware\ble/cy_ble_event_handler.c **** *
 169:Generated_Source\PSoC6\pdl\middleware\ble/cy_ble_event_handler.c **** ******************************************************************************/
 170:Generated_Source\PSoC6\pdl\middleware\ble/cy_ble_event_handler.c **** static void Cy_BLE_SendWriteResponse(const cy_stc_ble_gatts_write_cmd_req_param_t *eventParam,
 171:Generated_Source\PSoC6\pdl\middleware\ble/cy_ble_event_handler.c ****                                      cy_en_ble_gatt_err_code_t gattErr)
 172:Generated_Source\PSoC6\pdl\middleware\ble/cy_ble_event_handler.c **** {
  28              		.loc 1 172 0
  29              		.cfi_startproc
  30              		@ args = 0, pretend = 0, frame = 8
  31              		@ frame_needed = 0, uses_anonymous_args = 0
  32              	.LVL0:
 173:Generated_Source\PSoC6\pdl\middleware\ble/cy_ble_event_handler.c ****     /* Send response when event was handled by the service */
 174:Generated_Source\PSoC6\pdl\middleware\ble/cy_ble_event_handler.c ****     if((cy_ble_eventHandlerFlag & CY_BLE_CALLBACK) == 0u)
  33              		.loc 1 174 0
  34 0000 0E4B     		ldr	r3, .L6
  35 0002 1B78     		ldrb	r3, [r3]	@ zero_extendqisi2
  36 0004 13F0010F 		tst	r3, #1
  37 0008 17D1     		bne	.L5
 172:Generated_Source\PSoC6\pdl\middleware\ble/cy_ble_event_handler.c ****     /* Send response when event was handled by the service */
  38              		.loc 1 172 0
  39 000a 00B5     		push	{lr}
  40              		.cfi_def_cfa_offset 4
  41              		.cfi_offset 14, -4
  42 000c 83B0     		sub	sp, sp, #12
  43              		.cfi_def_cfa_offset 16
 175:Generated_Source\PSoC6\pdl\middleware\ble/cy_ble_event_handler.c ****     {
 176:Generated_Source\PSoC6\pdl\middleware\ble/cy_ble_event_handler.c ****         if(gattErr != CY_BLE_GATT_ERR_NONE)
  44              		.loc 1 176 0
  45 000e 71B1     		cbz	r1, .L3
  46              	.LBB38:
 177:Generated_Source\PSoC6\pdl\middleware\ble/cy_ble_event_handler.c ****         {
 178:Generated_Source\PSoC6\pdl\middleware\ble/cy_ble_event_handler.c ****             cy_stc_ble_gatt_err_param_t err_param =
  47              		.loc 1 178 0
  48 0010 8389     		ldrh	r3, [r0, #12]
  49 0012 ADF80030 		strh	r3, [sp]	@ movhi
ARM GAS  C:\Users\gjl\AppData\Local\Temp\ccRZOvUj.s 			page 5


 179:Generated_Source\PSoC6\pdl\middleware\ble/cy_ble_event_handler.c ****             {
 180:Generated_Source\PSoC6\pdl\middleware\ble/cy_ble_event_handler.c ****                 .errInfo.opCode     = CY_BLE_GATT_WRITE_REQ,
 181:Generated_Source\PSoC6\pdl\middleware\ble/cy_ble_event_handler.c ****                 .errInfo.attrHandle = eventParam->handleValPair.attrHandle,
  50              		.loc 1 181 0
  51 0016 0389     		ldrh	r3, [r0, #8]
 178:Generated_Source\PSoC6\pdl\middleware\ble/cy_ble_event_handler.c ****             {
  52              		.loc 1 178 0
  53 0018 ADF80230 		strh	r3, [sp, #2]	@ movhi
  54 001c 1223     		movs	r3, #18
  55 001e 8DF80430 		strb	r3, [sp, #4]
  56 0022 8DF80510 		strb	r1, [sp, #5]
 182:Generated_Source\PSoC6\pdl\middleware\ble/cy_ble_event_handler.c ****                 .errInfo.errorCode  = gattErr,
 183:Generated_Source\PSoC6\pdl\middleware\ble/cy_ble_event_handler.c ****                 .connHandle         = eventParam->connHandle
 184:Generated_Source\PSoC6\pdl\middleware\ble/cy_ble_event_handler.c ****             };
 185:Generated_Source\PSoC6\pdl\middleware\ble/cy_ble_event_handler.c ****             /* Send an Error Response */
 186:Generated_Source\PSoC6\pdl\middleware\ble/cy_ble_event_handler.c ****             (void)Cy_BLE_GATTS_ErrorRsp(&err_param);
  57              		.loc 1 186 0
  58 0026 6846     		mov	r0, sp
  59              	.LVL1:
  60 0028 FFF7FEFF 		bl	Cy_BLE_GATTS_ErrorRsp
  61              	.LVL2:
  62              	.LBE38:
  63 002c 02E0     		b	.L1
  64              	.LVL3:
  65              	.L3:
 187:Generated_Source\PSoC6\pdl\middleware\ble/cy_ble_event_handler.c ****         }
 188:Generated_Source\PSoC6\pdl\middleware\ble/cy_ble_event_handler.c ****         else
 189:Generated_Source\PSoC6\pdl\middleware\ble/cy_ble_event_handler.c ****         {
 190:Generated_Source\PSoC6\pdl\middleware\ble/cy_ble_event_handler.c ****             (void)Cy_BLE_GATTS_WriteRsp(eventParam->connHandle);
  66              		.loc 1 190 0
  67 002e C068     		ldr	r0, [r0, #12]
  68              	.LVL4:
  69 0030 FFF7FEFF 		bl	Cy_BLE_GATTS_WriteRsp
  70              	.LVL5:
  71              	.L1:
 191:Generated_Source\PSoC6\pdl\middleware\ble/cy_ble_event_handler.c ****         }
 192:Generated_Source\PSoC6\pdl\middleware\ble/cy_ble_event_handler.c ****     }
 193:Generated_Source\PSoC6\pdl\middleware\ble/cy_ble_event_handler.c **** }
  72              		.loc 1 193 0
  73 0034 03B0     		add	sp, sp, #12
  74              		.cfi_def_cfa_offset 4
  75              		@ sp needed
  76 0036 5DF804FB 		ldr	pc, [sp], #4
  77              	.LVL6:
  78              	.L5:
  79              		.cfi_def_cfa_offset 0
  80              		.cfi_restore 14
  81 003a 7047     		bx	lr
  82              	.L7:
  83              		.align	2
  84              	.L6:
  85 003c 00000000 		.word	cy_ble_eventHandlerFlag
  86              		.cfi_endproc
  87              	.LFE288:
  88              		.size	Cy_BLE_SendWriteResponse, .-Cy_BLE_SendWriteResponse
  89              		.section	.text.Cy_BLE_RegisterServiceEventHandler,"ax",%progbits
  90              		.align	2
ARM GAS  C:\Users\gjl\AppData\Local\Temp\ccRZOvUj.s 			page 6


  91              		.global	Cy_BLE_RegisterServiceEventHandler
  92              		.thumb
  93              		.thumb_func
  94              		.type	Cy_BLE_RegisterServiceEventHandler, %function
  95              	Cy_BLE_RegisterServiceEventHandler:
  96              	.LFB286:
  89:Generated_Source\PSoC6\pdl\middleware\ble/cy_ble_event_handler.c ****     cy_en_ble_api_result_t apiResult = CY_BLE_SUCCESS;
  97              		.loc 1 89 0
  98              		.cfi_startproc
  99              		@ args = 0, pretend = 0, frame = 0
 100              		@ frame_needed = 0, uses_anonymous_args = 0
 101              		@ link register save eliminated.
 102              	.LVL7:
 103 0000 10B4     		push	{r4}
 104              		.cfi_def_cfa_offset 4
 105              		.cfi_offset 4, -4
 106              	.LVL8:
  93:Generated_Source\PSoC6\pdl\middleware\ble/cy_ble_event_handler.c ****     {
 107              		.loc 1 93 0
 108 0002 0446     		mov	r4, r0
 109 0004 88B1     		cbz	r0, .L14
 110 0006 0023     		movs	r3, #0
 111 0008 1946     		mov	r1, r3
 112 000a 06E0     		b	.L10
 113              	.LVL9:
 114              	.L12:
 115              	.LBB39:
 103:Generated_Source\PSoC6\pdl\middleware\ble/cy_ble_event_handler.c ****             {
 116              		.loc 1 103 0
 117 000c 104A     		ldr	r2, .L19
 118 000e 52F82320 		ldr	r2, [r2, r3, lsl #2]
 119 0012 9442     		cmp	r4, r2
 120 0014 00D1     		bne	.L11
 105:Generated_Source\PSoC6\pdl\middleware\ble/cy_ble_event_handler.c ****             }
 121              		.loc 1 105 0
 122 0016 0121     		movs	r1, #1
 123              	.LVL10:
 124              	.L11:
 101:Generated_Source\PSoC6\pdl\middleware\ble/cy_ble_event_handler.c ****         {
 125              		.loc 1 101 0 discriminator 2
 126 0018 0133     		adds	r3, r3, #1
 127              	.LVL11:
 128              	.L10:
 101:Generated_Source\PSoC6\pdl\middleware\ble/cy_ble_event_handler.c ****         {
 129              		.loc 1 101 0 is_stmt 0 discriminator 1
 130 001a 0D4A     		ldr	r2, .L19
 131 001c 1279     		ldrb	r2, [r2, #4]	@ zero_extendqisi2
 132 001e 9342     		cmp	r3, r2
 133 0020 06D2     		bcs	.L16
 101:Generated_Source\PSoC6\pdl\middleware\ble/cy_ble_event_handler.c ****         {
 134              		.loc 1 101 0 discriminator 3
 135 0022 0029     		cmp	r1, #0
 136 0024 F2D0     		beq	.L12
 137              	.LBE39:
  90:Generated_Source\PSoC6\pdl\middleware\ble/cy_ble_event_handler.c ****     uint8_t existFlag = 0u;
 138              		.loc 1 90 0 is_stmt 1
 139 0026 0020     		movs	r0, #0
ARM GAS  C:\Users\gjl\AppData\Local\Temp\ccRZOvUj.s 			page 7


 140              	.LVL12:
 141              	.LBB40:
 142 0028 03E0     		b	.L9
 143              	.LVL13:
 144              	.L14:
 145              	.LBE40:
  91:Generated_Source\PSoC6\pdl\middleware\ble/cy_ble_event_handler.c **** 
 146              		.loc 1 91 0
 147 002a 0021     		movs	r1, #0
  95:Generated_Source\PSoC6\pdl\middleware\ble/cy_ble_event_handler.c ****     }
 148              		.loc 1 95 0
 149 002c 0948     		ldr	r0, .L19+4
 150              	.LVL14:
 151 002e 00E0     		b	.L9
 152              	.LVL15:
 153              	.L16:
  90:Generated_Source\PSoC6\pdl\middleware\ble/cy_ble_event_handler.c ****     uint8_t existFlag = 0u;
 154              		.loc 1 90 0
 155 0030 0020     		movs	r0, #0
 156              	.LVL16:
 157              	.L9:
 110:Generated_Source\PSoC6\pdl\middleware\ble/cy_ble_event_handler.c ****     {
 158              		.loc 1 110 0
 159 0032 50B9     		cbnz	r0, .L13
 110:Generated_Source\PSoC6\pdl\middleware\ble/cy_ble_event_handler.c ****     {
 160              		.loc 1 110 0 is_stmt 0 discriminator 1
 161 0034 49B9     		cbnz	r1, .L13
 112:Generated_Source\PSoC6\pdl\middleware\ble/cy_ble_event_handler.c ****         {
 162              		.loc 1 112 0 is_stmt 1
 163 0036 064B     		ldr	r3, .L19
 164 0038 1B79     		ldrb	r3, [r3, #4]	@ zero_extendqisi2
 165 003a 2BB9     		cbnz	r3, .L17
 114:Generated_Source\PSoC6\pdl\middleware\ble/cy_ble_event_handler.c ****             cy_ble_eventHandler.count += 1u;
 166              		.loc 1 114 0
 167 003c 044A     		ldr	r2, .L19
 168 003e 42F82340 		str	r4, [r2, r3, lsl #2]
 115:Generated_Source\PSoC6\pdl\middleware\ble/cy_ble_event_handler.c ****         }
 169              		.loc 1 115 0
 170 0042 0133     		adds	r3, r3, #1
 171 0044 1371     		strb	r3, [r2, #4]
 172 0046 00E0     		b	.L13
 173              	.L17:
 119:Generated_Source\PSoC6\pdl\middleware\ble/cy_ble_event_handler.c ****         }
 174              		.loc 1 119 0
 175 0048 0348     		ldr	r0, .L19+8
 176              	.LVL17:
 177              	.L13:
 124:Generated_Source\PSoC6\pdl\middleware\ble/cy_ble_event_handler.c **** 
 178              		.loc 1 124 0
 179 004a 5DF8044B 		ldr	r4, [sp], #4
 180              		.cfi_restore 4
 181              		.cfi_def_cfa_offset 0
 182              	.LVL18:
 183 004e 7047     		bx	lr
 184              	.L20:
 185              		.align	2
 186              	.L19:
ARM GAS  C:\Users\gjl\AppData\Local\Temp\ccRZOvUj.s 			page 8


 187 0050 00000000 		.word	cy_ble_eventHandler
 188 0054 01001600 		.word	1441793
 189 0058 03001600 		.word	1441795
 190              		.cfi_endproc
 191              	.LFE286:
 192              		.size	Cy_BLE_RegisterServiceEventHandler, .-Cy_BLE_RegisterServiceEventHandler
 193              		.section	.text.Cy_BLE_InvokeServiceEventHandler,"ax",%progbits
 194              		.align	2
 195              		.global	Cy_BLE_InvokeServiceEventHandler
 196              		.thumb
 197              		.thumb_func
 198              		.type	Cy_BLE_InvokeServiceEventHandler, %function
 199              	Cy_BLE_InvokeServiceEventHandler:
 200              	.LFB287:
 141:Generated_Source\PSoC6\pdl\middleware\ble/cy_ble_event_handler.c ****     uint32_t idx;
 201              		.loc 1 141 0
 202              		.cfi_startproc
 203              		@ args = 0, pretend = 0, frame = 0
 204              		@ frame_needed = 0, uses_anonymous_args = 0
 205              	.LVL19:
 206 0000 70B5     		push	{r4, r5, r6, lr}
 207              		.cfi_def_cfa_offset 16
 208              		.cfi_offset 4, -16
 209              		.cfi_offset 5, -12
 210              		.cfi_offset 6, -8
 211              		.cfi_offset 14, -4
 212 0002 0646     		mov	r6, r0
 213 0004 0D46     		mov	r5, r1
 214              	.LVL20:
 143:Generated_Source\PSoC6\pdl\middleware\ble/cy_ble_event_handler.c **** 
 215              		.loc 1 143 0
 216 0006 0020     		movs	r0, #0
 217              	.LVL21:
 145:Generated_Source\PSoC6\pdl\middleware\ble/cy_ble_event_handler.c ****     {
 218              		.loc 1 145 0
 219 0008 0446     		mov	r4, r0
 220 000a 06E0     		b	.L22
 221              	.LVL22:
 222              	.L24:
 147:Generated_Source\PSoC6\pdl\middleware\ble/cy_ble_event_handler.c ****     }
 223              		.loc 1 147 0 discriminator 4
 224 000c 084B     		ldr	r3, .L26
 225 000e 53F82430 		ldr	r3, [r3, r4, lsl #2]
 226 0012 2946     		mov	r1, r5
 227 0014 3046     		mov	r0, r6
 228              	.LVL23:
 229 0016 9847     		blx	r3
 230              	.LVL24:
 145:Generated_Source\PSoC6\pdl\middleware\ble/cy_ble_event_handler.c ****     {
 231              		.loc 1 145 0 discriminator 4
 232 0018 0134     		adds	r4, r4, #1
 233              	.LVL25:
 234              	.L22:
 145:Generated_Source\PSoC6\pdl\middleware\ble/cy_ble_event_handler.c ****     {
 235              		.loc 1 145 0 is_stmt 0 discriminator 1
 236 001a 054B     		ldr	r3, .L26
 237 001c 1B79     		ldrb	r3, [r3, #4]	@ zero_extendqisi2
ARM GAS  C:\Users\gjl\AppData\Local\Temp\ccRZOvUj.s 			page 9


 238 001e 9C42     		cmp	r4, r3
 239 0020 04D2     		bcs	.L23
 145:Generated_Source\PSoC6\pdl\middleware\ble/cy_ble_event_handler.c ****     {
 240              		.loc 1 145 0 discriminator 3
 241 0022 044B     		ldr	r3, .L26+4
 242 0024 1B78     		ldrb	r3, [r3]	@ zero_extendqisi2
 243 0026 13F0010F 		tst	r3, #1
 244 002a EFD1     		bne	.L24
 245              	.L23:
 151:Generated_Source\PSoC6\pdl\middleware\ble/cy_ble_event_handler.c **** #endif /* CY_BLE_GAP_ROLE_PERIPHERAL || CY_BLE_GAP_ROLE_CENTRAL */
 246              		.loc 1 151 0 is_stmt 1
 247 002c 70BD     		pop	{r4, r5, r6, pc}
 248              	.LVL26:
 249              	.L27:
 250 002e 00BF     		.align	2
 251              	.L26:
 252 0030 00000000 		.word	cy_ble_eventHandler
 253 0034 00000000 		.word	cy_ble_eventHandlerFlag
 254              		.cfi_endproc
 255              	.LFE287:
 256              		.size	Cy_BLE_InvokeServiceEventHandler, .-Cy_BLE_InvokeServiceEventHandler
 257              		.section	.text.Cy_BLE_IsDeviceAddressValid,"ax",%progbits
 258              		.align	2
 259              		.global	Cy_BLE_IsDeviceAddressValid
 260              		.thumb
 261              		.thumb_func
 262              		.type	Cy_BLE_IsDeviceAddressValid, %function
 263              	Cy_BLE_IsDeviceAddressValid:
 264              	.LFB290:
 194:Generated_Source\PSoC6\pdl\middleware\ble/cy_ble_event_handler.c **** 
 195:Generated_Source\PSoC6\pdl\middleware\ble/cy_ble_event_handler.c **** 
 196:Generated_Source\PSoC6\pdl\middleware\ble/cy_ble_event_handler.c **** #endif /* CY_BLE_GATT_ROLE_SERVER */
 197:Generated_Source\PSoC6\pdl\middleware\ble/cy_ble_event_handler.c **** 
 198:Generated_Source\PSoC6\pdl\middleware\ble/cy_ble_event_handler.c **** 
 199:Generated_Source\PSoC6\pdl\middleware\ble/cy_ble_event_handler.c **** 
 200:Generated_Source\PSoC6\pdl\middleware\ble/cy_ble_event_handler.c **** /******************************************************************************
 201:Generated_Source\PSoC6\pdl\middleware\ble/cy_ble_event_handler.c **** * Function Name: Cy_BLE_TimeOutEventHandler
 202:Generated_Source\PSoC6\pdl\middleware\ble/cy_ble_event_handler.c **** ***************************************************************************//**
 203:Generated_Source\PSoC6\pdl\middleware\ble/cy_ble_event_handler.c **** *
 204:Generated_Source\PSoC6\pdl\middleware\ble/cy_ble_event_handler.c **** *  Handles a CY_BLE_EVT_TIMEOUT event from the BLE Stack.
 205:Generated_Source\PSoC6\pdl\middleware\ble/cy_ble_event_handler.c **** *
 206:Generated_Source\PSoC6\pdl\middleware\ble/cy_ble_event_handler.c **** *  \param eventParam: The pointer to a structure of type cy_stc_ble_timeout_param_t.
 207:Generated_Source\PSoC6\pdl\middleware\ble/cy_ble_event_handler.c **** *
 208:Generated_Source\PSoC6\pdl\middleware\ble/cy_ble_event_handler.c **** * \return
 209:Generated_Source\PSoC6\pdl\middleware\ble/cy_ble_event_handler.c **** *  None
 210:Generated_Source\PSoC6\pdl\middleware\ble/cy_ble_event_handler.c **** *
 211:Generated_Source\PSoC6\pdl\middleware\ble/cy_ble_event_handler.c **** ******************************************************************************/
 212:Generated_Source\PSoC6\pdl\middleware\ble/cy_ble_event_handler.c **** static void Cy_BLE_TimeOutEventHandler(const cy_stc_ble_timeout_param_t *eventParam)
 213:Generated_Source\PSoC6\pdl\middleware\ble/cy_ble_event_handler.c **** {
 214:Generated_Source\PSoC6\pdl\middleware\ble/cy_ble_event_handler.c ****     if(eventParam->reasonCode == CY_BLE_GATT_RSP_TO)
 215:Generated_Source\PSoC6\pdl\middleware\ble/cy_ble_event_handler.c ****     {
 216:Generated_Source\PSoC6\pdl\middleware\ble/cy_ble_event_handler.c ****     #if (CY_BLE_GATT_ROLE_CLIENT)
 217:Generated_Source\PSoC6\pdl\middleware\ble/cy_ble_event_handler.c ****         {
 218:Generated_Source\PSoC6\pdl\middleware\ble/cy_ble_event_handler.c ****             uint32_t discIdx = Cy_BLE_GetDiscoveryIdx(eventParam->CY_BLE_HANDLE.connHandle);
 219:Generated_Source\PSoC6\pdl\middleware\ble/cy_ble_event_handler.c ****             if((discIdx < CY_BLE_GATTC_COUNT) && (cy_ble_discovery[discIdx].autoDiscoveryFlag != 0u
 220:Generated_Source\PSoC6\pdl\middleware\ble/cy_ble_event_handler.c ****             {
 221:Generated_Source\PSoC6\pdl\middleware\ble/cy_ble_event_handler.c ****                 switch(Cy_BLE_GetConnectionState(eventParam->CY_BLE_HANDLE.connHandle))
ARM GAS  C:\Users\gjl\AppData\Local\Temp\ccRZOvUj.s 			page 10


 222:Generated_Source\PSoC6\pdl\middleware\ble/cy_ble_event_handler.c ****                 {
 223:Generated_Source\PSoC6\pdl\middleware\ble/cy_ble_event_handler.c ****                     case CY_BLE_CONN_STATE_CLIENT_SRVC_DISCOVERING:
 224:Generated_Source\PSoC6\pdl\middleware\ble/cy_ble_event_handler.c ****                         Cy_BLE_ApplCallback((uint32_t)CY_BLE_EVT_GATTC_SRVC_DISCOVERY_FAILED,
 225:Generated_Source\PSoC6\pdl\middleware\ble/cy_ble_event_handler.c ****                                             (cy_stc_ble_conn_handle_t*)&eventParam->CY_BLE_HANDLE.c
 226:Generated_Source\PSoC6\pdl\middleware\ble/cy_ble_event_handler.c ****                         break;
 227:Generated_Source\PSoC6\pdl\middleware\ble/cy_ble_event_handler.c **** 
 228:Generated_Source\PSoC6\pdl\middleware\ble/cy_ble_event_handler.c ****                     case CY_BLE_CONN_STATE_CLIENT_INCL_DISCOVERING:
 229:Generated_Source\PSoC6\pdl\middleware\ble/cy_ble_event_handler.c ****                         Cy_BLE_ApplCallback((uint32_t)CY_BLE_EVT_GATTC_INCL_DISCOVERY_FAILED,
 230:Generated_Source\PSoC6\pdl\middleware\ble/cy_ble_event_handler.c ****                                             (cy_stc_ble_conn_handle_t*)&eventParam->CY_BLE_HANDLE.c
 231:Generated_Source\PSoC6\pdl\middleware\ble/cy_ble_event_handler.c ****                         break;
 232:Generated_Source\PSoC6\pdl\middleware\ble/cy_ble_event_handler.c **** 
 233:Generated_Source\PSoC6\pdl\middleware\ble/cy_ble_event_handler.c ****                     case CY_BLE_CONN_STATE_CLIENT_CHAR_DISCOVERING:
 234:Generated_Source\PSoC6\pdl\middleware\ble/cy_ble_event_handler.c ****                         Cy_BLE_ApplCallback((uint32_t)CY_BLE_EVT_GATTC_CHAR_DISCOVERY_FAILED,
 235:Generated_Source\PSoC6\pdl\middleware\ble/cy_ble_event_handler.c ****                                             (cy_stc_ble_conn_handle_t*)&eventParam->CY_BLE_HANDLE.c
 236:Generated_Source\PSoC6\pdl\middleware\ble/cy_ble_event_handler.c ****                         break;
 237:Generated_Source\PSoC6\pdl\middleware\ble/cy_ble_event_handler.c **** 
 238:Generated_Source\PSoC6\pdl\middleware\ble/cy_ble_event_handler.c ****                     case CY_BLE_CONN_STATE_CLIENT_DESCR_DISCOVERING:
 239:Generated_Source\PSoC6\pdl\middleware\ble/cy_ble_event_handler.c ****                         Cy_BLE_ApplCallback((uint32_t)CY_BLE_EVT_GATTC_DESCR_DISCOVERY_FAILED,
 240:Generated_Source\PSoC6\pdl\middleware\ble/cy_ble_event_handler.c ****                                             (cy_stc_ble_conn_handle_t*)&eventParam->CY_BLE_HANDLE.c
 241:Generated_Source\PSoC6\pdl\middleware\ble/cy_ble_event_handler.c ****                         break;
 242:Generated_Source\PSoC6\pdl\middleware\ble/cy_ble_event_handler.c **** 
 243:Generated_Source\PSoC6\pdl\middleware\ble/cy_ble_event_handler.c ****                     default:        /* Other states should not be set in Auto discovery mode */
 244:Generated_Source\PSoC6\pdl\middleware\ble/cy_ble_event_handler.c ****                         break;
 245:Generated_Source\PSoC6\pdl\middleware\ble/cy_ble_event_handler.c ****                 }
 246:Generated_Source\PSoC6\pdl\middleware\ble/cy_ble_event_handler.c ****                 cy_ble_discovery[discIdx].autoDiscoveryFlag = 0u;
 247:Generated_Source\PSoC6\pdl\middleware\ble/cy_ble_event_handler.c ****                 Cy_BLE_SetConnectionState(eventParam->CY_BLE_HANDLE.connHandle, CY_BLE_CONN_STATE_C
 248:Generated_Source\PSoC6\pdl\middleware\ble/cy_ble_event_handler.c ****             }
 249:Generated_Source\PSoC6\pdl\middleware\ble/cy_ble_event_handler.c ****         }
 250:Generated_Source\PSoC6\pdl\middleware\ble/cy_ble_event_handler.c ****     #endif /* CY_BLE_GATT_ROLE_CLIENT */
 251:Generated_Source\PSoC6\pdl\middleware\ble/cy_ble_event_handler.c ****     }
 252:Generated_Source\PSoC6\pdl\middleware\ble/cy_ble_event_handler.c **** 
 253:Generated_Source\PSoC6\pdl\middleware\ble/cy_ble_event_handler.c ****     #if (CY_BLE_GAP_ROLE_CENTRAL)
 254:Generated_Source\PSoC6\pdl\middleware\ble/cy_ble_event_handler.c ****     /* Connection procedure timeout */
 255:Generated_Source\PSoC6\pdl\middleware\ble/cy_ble_event_handler.c ****     if((eventParam->reasonCode == CY_BLE_GENERIC_APP_TO) &&
 256:Generated_Source\PSoC6\pdl\middleware\ble/cy_ble_event_handler.c ****        (cy_ble_connectingTimeout.timerHandle == eventParam->timerHandle))
 257:Generated_Source\PSoC6\pdl\middleware\ble/cy_ble_event_handler.c ****     {
 258:Generated_Source\PSoC6\pdl\middleware\ble/cy_ble_event_handler.c ****         if(Cy_BLE_GetState() == CY_BLE_STATE_CONNECTING)
 259:Generated_Source\PSoC6\pdl\middleware\ble/cy_ble_event_handler.c ****         {
 260:Generated_Source\PSoC6\pdl\middleware\ble/cy_ble_event_handler.c ****             (void)Cy_BLE_GAPC_CancelDeviceConnection();
 261:Generated_Source\PSoC6\pdl\middleware\ble/cy_ble_event_handler.c ****         }
 262:Generated_Source\PSoC6\pdl\middleware\ble/cy_ble_event_handler.c ****     }
 263:Generated_Source\PSoC6\pdl\middleware\ble/cy_ble_event_handler.c ****     #endif /* CY_BLE_GAP_ROLE_CENTRAL */
 264:Generated_Source\PSoC6\pdl\middleware\ble/cy_ble_event_handler.c **** }
 265:Generated_Source\PSoC6\pdl\middleware\ble/cy_ble_event_handler.c **** 
 266:Generated_Source\PSoC6\pdl\middleware\ble/cy_ble_event_handler.c **** 
 267:Generated_Source\PSoC6\pdl\middleware\ble/cy_ble_event_handler.c **** #if (CY_BLE_GATT_ROLE_SERVER || CY_BLE_GATT_ROLE_CLIENT)
 268:Generated_Source\PSoC6\pdl\middleware\ble/cy_ble_event_handler.c **** 
 269:Generated_Source\PSoC6\pdl\middleware\ble/cy_ble_event_handler.c **** /******************************************************************************
 270:Generated_Source\PSoC6\pdl\middleware\ble/cy_ble_event_handler.c **** * Function Name: Cy_BLE_IsDeviceAddressValid
 271:Generated_Source\PSoC6\pdl\middleware\ble/cy_ble_event_handler.c **** ***************************************************************************//**
 272:Generated_Source\PSoC6\pdl\middleware\ble/cy_ble_event_handler.c **** *
 273:Generated_Source\PSoC6\pdl\middleware\ble/cy_ble_event_handler.c **** *  This function verifies that the device address is valid (not equal zero)
 274:Generated_Source\PSoC6\pdl\middleware\ble/cy_ble_event_handler.c **** *    
 275:Generated_Source\PSoC6\pdl\middleware\ble/cy_ble_event_handler.c **** *  \param deviceAddress: The pointer to the BD address of
 276:Generated_Source\PSoC6\pdl\middleware\ble/cy_ble_event_handler.c **** *                        type #cy_stc_ble_gap_bd_addr_t.
 277:Generated_Source\PSoC6\pdl\middleware\ble/cy_ble_event_handler.c **** *
 278:Generated_Source\PSoC6\pdl\middleware\ble/cy_ble_event_handler.c **** *  \return
ARM GAS  C:\Users\gjl\AppData\Local\Temp\ccRZOvUj.s 			page 11


 279:Generated_Source\PSoC6\pdl\middleware\ble/cy_ble_event_handler.c **** *   A non-zero value when a device address is valid
 280:Generated_Source\PSoC6\pdl\middleware\ble/cy_ble_event_handler.c **** *
 281:Generated_Source\PSoC6\pdl\middleware\ble/cy_ble_event_handler.c **** ******************************************************************************/
 282:Generated_Source\PSoC6\pdl\middleware\ble/cy_ble_event_handler.c **** uint8_t Cy_BLE_IsDeviceAddressValid(const cy_stc_ble_gap_bd_addr_t *deviceAddress)
 283:Generated_Source\PSoC6\pdl\middleware\ble/cy_ble_event_handler.c **** {
 265              		.loc 1 283 0
 266              		.cfi_startproc
 267              		@ args = 0, pretend = 0, frame = 0
 268              		@ frame_needed = 0, uses_anonymous_args = 0
 269              		@ link register save eliminated.
 270              	.LVL27:
 284:Generated_Source\PSoC6\pdl\middleware\ble/cy_ble_event_handler.c ****     uint8_t addressValid = 0u;
 285:Generated_Source\PSoC6\pdl\middleware\ble/cy_ble_event_handler.c ****     uint32_t i;
 286:Generated_Source\PSoC6\pdl\middleware\ble/cy_ble_event_handler.c **** 
 287:Generated_Source\PSoC6\pdl\middleware\ble/cy_ble_event_handler.c ****     if(deviceAddress->type == CY_BLE_GAP_ADDR_TYPE_PUBLIC)
 271              		.loc 1 287 0
 272 0000 8379     		ldrb	r3, [r0, #6]	@ zero_extendqisi2
 273 0002 2BB1     		cbz	r3, .L32
 284:Generated_Source\PSoC6\pdl\middleware\ble/cy_ble_event_handler.c ****     uint8_t addressValid = 0u;
 274              		.loc 1 284 0
 275 0004 0020     		movs	r0, #0
 276              	.LVL28:
 277 0006 7047     		bx	lr
 278              	.LVL29:
 279              	.L31:
 288:Generated_Source\PSoC6\pdl\middleware\ble/cy_ble_event_handler.c ****     {
 289:Generated_Source\PSoC6\pdl\middleware\ble/cy_ble_event_handler.c ****         for(i = 0u; i < CY_BLE_GAP_BD_ADDR_SIZE; i++)
 290:Generated_Source\PSoC6\pdl\middleware\ble/cy_ble_event_handler.c ****         {
 291:Generated_Source\PSoC6\pdl\middleware\ble/cy_ble_event_handler.c ****             if(deviceAddress->bdAddr[i] != 0u)
 280              		.loc 1 291 0
 281 0008 C25C     		ldrb	r2, [r0, r3]	@ zero_extendqisi2
 282 000a 32B9     		cbnz	r2, .L33
 289:Generated_Source\PSoC6\pdl\middleware\ble/cy_ble_event_handler.c ****         {
 283              		.loc 1 289 0 discriminator 2
 284 000c 0133     		adds	r3, r3, #1
 285              	.LVL30:
 286 000e 00E0     		b	.L29
 287              	.LVL31:
 288              	.L32:
 289 0010 0023     		movs	r3, #0
 290              	.L29:
 291              	.LVL32:
 289:Generated_Source\PSoC6\pdl\middleware\ble/cy_ble_event_handler.c ****         {
 292              		.loc 1 289 0 is_stmt 0 discriminator 1
 293 0012 052B     		cmp	r3, #5
 294 0014 F8D9     		bls	.L31
 284:Generated_Source\PSoC6\pdl\middleware\ble/cy_ble_event_handler.c ****     uint8_t addressValid = 0u;
 295              		.loc 1 284 0 is_stmt 1
 296 0016 0020     		movs	r0, #0
 297              	.LVL33:
 298 0018 7047     		bx	lr
 299              	.LVL34:
 300              	.L33:
 292:Generated_Source\PSoC6\pdl\middleware\ble/cy_ble_event_handler.c ****             {
 293:Generated_Source\PSoC6\pdl\middleware\ble/cy_ble_event_handler.c ****                 addressValid = 1u;
 301              		.loc 1 293 0
 302 001a 0120     		movs	r0, #1
ARM GAS  C:\Users\gjl\AppData\Local\Temp\ccRZOvUj.s 			page 12


 303              	.LVL35:
 294:Generated_Source\PSoC6\pdl\middleware\ble/cy_ble_event_handler.c ****                 break;
 295:Generated_Source\PSoC6\pdl\middleware\ble/cy_ble_event_handler.c ****             }
 296:Generated_Source\PSoC6\pdl\middleware\ble/cy_ble_event_handler.c ****         }
 297:Generated_Source\PSoC6\pdl\middleware\ble/cy_ble_event_handler.c ****     }
 298:Generated_Source\PSoC6\pdl\middleware\ble/cy_ble_event_handler.c **** 
 299:Generated_Source\PSoC6\pdl\middleware\ble/cy_ble_event_handler.c ****     return(addressValid);
 300:Generated_Source\PSoC6\pdl\middleware\ble/cy_ble_event_handler.c **** }
 304              		.loc 1 300 0
 305 001c 7047     		bx	lr
 306              		.cfi_endproc
 307              	.LFE290:
 308              		.size	Cy_BLE_IsDeviceAddressValid, .-Cy_BLE_IsDeviceAddressValid
 309 001e 00BF     		.section	.text.Cy_BLE_EventHandler,"ax",%progbits
 310              		.align	2
 311              		.global	Cy_BLE_EventHandler
 312              		.thumb
 313              		.thumb_func
 314              		.type	Cy_BLE_EventHandler, %function
 315              	Cy_BLE_EventHandler:
 316              	.LFB293:
 301:Generated_Source\PSoC6\pdl\middleware\ble/cy_ble_event_handler.c **** #endif /* CY_BLE_GATT_ROLE_SERVER || CY_BLE_GATT_ROLE_CLIENT */
 302:Generated_Source\PSoC6\pdl\middleware\ble/cy_ble_event_handler.c **** 
 303:Generated_Source\PSoC6\pdl\middleware\ble/cy_ble_event_handler.c **** 
 304:Generated_Source\PSoC6\pdl\middleware\ble/cy_ble_event_handler.c **** /******************************************************************************
 305:Generated_Source\PSoC6\pdl\middleware\ble/cy_ble_event_handler.c **** * Function Name: Cy_BLE_L2Cap_ConnParamUpdateRspEventHandler
 306:Generated_Source\PSoC6\pdl\middleware\ble/cy_ble_event_handler.c **** ***************************************************************************//**
 307:Generated_Source\PSoC6\pdl\middleware\ble/cy_ble_event_handler.c **** *
 308:Generated_Source\PSoC6\pdl\middleware\ble/cy_ble_event_handler.c **** *  Handles an L2CAP connection parameter response event from
 309:Generated_Source\PSoC6\pdl\middleware\ble/cy_ble_event_handler.c **** *  the BLE Stack.
 310:Generated_Source\PSoC6\pdl\middleware\ble/cy_ble_event_handler.c **** *
 311:Generated_Source\PSoC6\pdl\middleware\ble/cy_ble_event_handler.c **** *  \param eventParam:
 312:Generated_Source\PSoC6\pdl\middleware\ble/cy_ble_event_handler.c **** *      * Accepted = 0x0000
 313:Generated_Source\PSoC6\pdl\middleware\ble/cy_ble_event_handler.c **** *      * Rejected = 0x0001
 314:Generated_Source\PSoC6\pdl\middleware\ble/cy_ble_event_handler.c **** *
 315:Generated_Source\PSoC6\pdl\middleware\ble/cy_ble_event_handler.c **** * \return
 316:Generated_Source\PSoC6\pdl\middleware\ble/cy_ble_event_handler.c **** *  None
 317:Generated_Source\PSoC6\pdl\middleware\ble/cy_ble_event_handler.c **** *
 318:Generated_Source\PSoC6\pdl\middleware\ble/cy_ble_event_handler.c **** ******************************************************************************/
 319:Generated_Source\PSoC6\pdl\middleware\ble/cy_ble_event_handler.c **** static void Cy_BLE_L2Cap_ConnParamUpdateRspEventHandler(const cy_stc_ble_l2cap_conn_update_rsp_para
 320:Generated_Source\PSoC6\pdl\middleware\ble/cy_ble_event_handler.c **** {
 321:Generated_Source\PSoC6\pdl\middleware\ble/cy_ble_event_handler.c ****     /* Unreferenced variable warning workaround */
 322:Generated_Source\PSoC6\pdl\middleware\ble/cy_ble_event_handler.c ****     if(eventParam->result != 0u)
 323:Generated_Source\PSoC6\pdl\middleware\ble/cy_ble_event_handler.c ****     {
 324:Generated_Source\PSoC6\pdl\middleware\ble/cy_ble_event_handler.c ****     }
 325:Generated_Source\PSoC6\pdl\middleware\ble/cy_ble_event_handler.c **** }
 326:Generated_Source\PSoC6\pdl\middleware\ble/cy_ble_event_handler.c **** 
 327:Generated_Source\PSoC6\pdl\middleware\ble/cy_ble_event_handler.c **** 
 328:Generated_Source\PSoC6\pdl\middleware\ble/cy_ble_event_handler.c **** /******************************************************************************
 329:Generated_Source\PSoC6\pdl\middleware\ble/cy_ble_event_handler.c **** * Function Name: Cy_BLE_GAP_ConnUpdateCompleteEventHandler
 330:Generated_Source\PSoC6\pdl\middleware\ble/cy_ble_event_handler.c **** ***************************************************************************//**
 331:Generated_Source\PSoC6\pdl\middleware\ble/cy_ble_event_handler.c **** *
 332:Generated_Source\PSoC6\pdl\middleware\ble/cy_ble_event_handler.c **** *  Handles a CY_BLE_EVT_GAP_CONNECTION_UPDATE_COMPLETE event from
 333:Generated_Source\PSoC6\pdl\middleware\ble/cy_ble_event_handler.c **** *  the BLE Stack.
 334:Generated_Source\PSoC6\pdl\middleware\ble/cy_ble_event_handler.c **** *
 335:Generated_Source\PSoC6\pdl\middleware\ble/cy_ble_event_handler.c **** *  \param eventParam: The pointer to the data structure specified by the event.
 336:Generated_Source\PSoC6\pdl\middleware\ble/cy_ble_event_handler.c **** *
ARM GAS  C:\Users\gjl\AppData\Local\Temp\ccRZOvUj.s 			page 13


 337:Generated_Source\PSoC6\pdl\middleware\ble/cy_ble_event_handler.c **** * \return
 338:Generated_Source\PSoC6\pdl\middleware\ble/cy_ble_event_handler.c **** *  None
 339:Generated_Source\PSoC6\pdl\middleware\ble/cy_ble_event_handler.c **** *
 340:Generated_Source\PSoC6\pdl\middleware\ble/cy_ble_event_handler.c **** ******************************************************************************/
 341:Generated_Source\PSoC6\pdl\middleware\ble/cy_ble_event_handler.c **** static void Cy_BLE_GAP_ConnUpdateCompleteEventHandler(const cy_stc_ble_gap_conn_param_updated_in_co
 342:Generated_Source\PSoC6\pdl\middleware\ble/cy_ble_event_handler.c **** {
 343:Generated_Source\PSoC6\pdl\middleware\ble/cy_ble_event_handler.c ****     /* Unreferenced variable warning workaround */
 344:Generated_Source\PSoC6\pdl\middleware\ble/cy_ble_event_handler.c ****     if(eventParam != 0u)
 345:Generated_Source\PSoC6\pdl\middleware\ble/cy_ble_event_handler.c ****     {
 346:Generated_Source\PSoC6\pdl\middleware\ble/cy_ble_event_handler.c ****     }
 347:Generated_Source\PSoC6\pdl\middleware\ble/cy_ble_event_handler.c **** }
 348:Generated_Source\PSoC6\pdl\middleware\ble/cy_ble_event_handler.c **** 
 349:Generated_Source\PSoC6\pdl\middleware\ble/cy_ble_event_handler.c **** 
 350:Generated_Source\PSoC6\pdl\middleware\ble/cy_ble_event_handler.c **** /******************************************************************************
 351:Generated_Source\PSoC6\pdl\middleware\ble/cy_ble_event_handler.c **** * Function Name: Cy_BLE_EventHandler
 352:Generated_Source\PSoC6\pdl\middleware\ble/cy_ble_event_handler.c **** ***************************************************************************//**
 353:Generated_Source\PSoC6\pdl\middleware\ble/cy_ble_event_handler.c **** *
 354:Generated_Source\PSoC6\pdl\middleware\ble/cy_ble_event_handler.c **** *  Handles events from the BLE Stack.
 355:Generated_Source\PSoC6\pdl\middleware\ble/cy_ble_event_handler.c **** *
 356:Generated_Source\PSoC6\pdl\middleware\ble/cy_ble_event_handler.c **** *  \param event:   The event code.
 357:Generated_Source\PSoC6\pdl\middleware\ble/cy_ble_event_handler.c **** *  \param evParam: The event parameters.
 358:Generated_Source\PSoC6\pdl\middleware\ble/cy_ble_event_handler.c **** *
 359:Generated_Source\PSoC6\pdl\middleware\ble/cy_ble_event_handler.c **** * \return
 360:Generated_Source\PSoC6\pdl\middleware\ble/cy_ble_event_handler.c **** *  None.
 361:Generated_Source\PSoC6\pdl\middleware\ble/cy_ble_event_handler.c **** *
 362:Generated_Source\PSoC6\pdl\middleware\ble/cy_ble_event_handler.c **** ******************************************************************************/
 363:Generated_Source\PSoC6\pdl\middleware\ble/cy_ble_event_handler.c **** void Cy_BLE_EventHandler(cy_en_ble_event_t event,
 364:Generated_Source\PSoC6\pdl\middleware\ble/cy_ble_event_handler.c ****                          void *evParam)
 365:Generated_Source\PSoC6\pdl\middleware\ble/cy_ble_event_handler.c **** {
 317              		.loc 1 365 0
 318              		.cfi_startproc
 319              		@ args = 0, pretend = 0, frame = 48
 320              		@ frame_needed = 0, uses_anonymous_args = 0
 321              	.LVL36:
 322 0000 70B5     		push	{r4, r5, r6, lr}
 323              		.cfi_def_cfa_offset 16
 324              		.cfi_offset 4, -16
 325              		.cfi_offset 5, -12
 326              		.cfi_offset 6, -8
 327              		.cfi_offset 14, -4
 328 0002 8CB0     		sub	sp, sp, #48
 329              		.cfi_def_cfa_offset 64
 330 0004 0446     		mov	r4, r0
 331 0006 0D46     		mov	r5, r1
 366:Generated_Source\PSoC6\pdl\middleware\ble/cy_ble_event_handler.c ****     cy_ble_eventHandlerFlag |= CY_BLE_CALLBACK;
 332              		.loc 1 366 0
 333 0008 B94A     		ldr	r2, .L109
 334 000a 1378     		ldrb	r3, [r2]	@ zero_extendqisi2
 335 000c 43F00103 		orr	r3, r3, #1
 336 0010 1370     		strb	r3, [r2]
 367:Generated_Source\PSoC6\pdl\middleware\ble/cy_ble_event_handler.c **** 
 368:Generated_Source\PSoC6\pdl\middleware\ble/cy_ble_event_handler.c ****     /* Common Profile event handling */
 369:Generated_Source\PSoC6\pdl\middleware\ble/cy_ble_event_handler.c ****     switch(event)
 337              		.loc 1 369 0
 338 0012 44F20A03 		movw	r3, #16394
 339 0016 9842     		cmp	r0, r3
 340 0018 00F0E981 		beq	.L36
ARM GAS  C:\Users\gjl\AppData\Local\Temp\ccRZOvUj.s 			page 14


 341 001c 36D8     		bhi	.L37
 342 001e 41F20403 		movw	r3, #4100
 343 0022 9842     		cmp	r0, r3
 344 0024 00F02183 		beq	.L38
 345 0028 14D8     		bhi	.L39
 346 002a 41F20103 		movw	r3, #4097
 347 002e 9842     		cmp	r0, r3
 348 0030 00F0FC80 		beq	.L40
 349 0034 03D8     		bhi	.L41
 350 0036 B0F5805F 		cmp	r0, #4096
 351 003a 65D0     		beq	.L42
 352 003c 1AE3     		b	.L35
 353              	.L41:
 354 003e 41F20203 		movw	r3, #4098
 355 0042 9842     		cmp	r0, r3
 356 0044 00F0F580 		beq	.L43
 357 0048 41F20303 		movw	r3, #4099
 358 004c 9842     		cmp	r0, r3
 359 004e 00F02981 		beq	.L44
 360 0052 0FE3     		b	.L35
 361              	.L39:
 362 0054 44F20403 		movw	r3, #16388
 363 0058 9842     		cmp	r0, r3
 364 005a 00F03681 		beq	.L45
 365 005e 0AD8     		bhi	.L46
 366 0060 42F20403 		movw	r3, #8196
 367 0064 9842     		cmp	r0, r3
 368 0066 00F0B780 		beq	.L47
 369 006a 43F21203 		movw	r3, #12306
 370 006e 9842     		cmp	r0, r3
 371 0070 00F0A780 		beq	.L48
 372 0074 FEE2     		b	.L35
 373              	.L46:
 374 0076 44F20603 		movw	r3, #16390
 375 007a 9842     		cmp	r0, r3
 376 007c 00F00282 		beq	.L49
 377 0080 44F20803 		movw	r3, #16392
 378 0084 9842     		cmp	r0, r3
 379 0086 00F0F981 		beq	.L50
 380 008a F3E2     		b	.L35
 381              	.L37:
 382 008c 45F20E03 		movw	r3, #20494
 383 0090 9842     		cmp	r0, r3
 384 0092 00F0B482 		beq	.L51
 385 0096 1BD8     		bhi	.L52
 386 0098 45F20203 		movw	r3, #20482
 387 009c 9842     		cmp	r0, r3
 388 009e 00F07D82 		beq	.L53
 389 00a2 0AD8     		bhi	.L54
 390 00a4 44F21003 		movw	r3, #16400
 391 00a8 9842     		cmp	r0, r3
 392 00aa 00F0A381 		beq	.L55
 393 00ae 45F20103 		movw	r3, #20481
 394 00b2 9842     		cmp	r0, r3
 395 00b4 00F02582 		beq	.L56
 396 00b8 DCE2     		b	.L35
 397              	.L54:
ARM GAS  C:\Users\gjl\AppData\Local\Temp\ccRZOvUj.s 			page 15


 398 00ba 45F20303 		movw	r3, #20483
 399 00be 9842     		cmp	r0, r3
 400 00c0 00F08582 		beq	.L57
 401 00c4 45F20C03 		movw	r3, #20492
 402 00c8 9842     		cmp	r0, r3
 403 00ca 00F08A82 		beq	.L58
 404 00ce D1E2     		b	.L35
 405              	.L52:
 406 00d0 45F21403 		movw	r3, #20500
 407 00d4 9842     		cmp	r0, r3
 408 00d6 00F0BD82 		beq	.L59
 409 00da 0AD8     		bhi	.L60
 410 00dc 45F20F03 		movw	r3, #20495
 411 00e0 9842     		cmp	r0, r3
 412 00e2 00F0B182 		beq	.L61
 413 00e6 45F21003 		movw	r3, #20496
 414 00ea 9842     		cmp	r0, r3
 415 00ec 00F0AF82 		beq	.L62
 416 00f0 C0E2     		b	.L35
 417              	.L60:
 418 00f2 45F21703 		movw	r3, #20503
 419 00f6 9842     		cmp	r0, r3
 420 00f8 00F0AF82 		beq	.L63
 421 00fc 46F20103 		movw	r3, #24577
 422 0100 9842     		cmp	r0, r3
 423 0102 00F0FB81 		beq	.L64
 424 0106 B5E2     		b	.L35
 425              	.L42:
 370:Generated_Source\PSoC6\pdl\middleware\ble/cy_ble_event_handler.c ****     {
 371:Generated_Source\PSoC6\pdl\middleware\ble/cy_ble_event_handler.c ****         /**********************************************************
 372:Generated_Source\PSoC6\pdl\middleware\ble/cy_ble_event_handler.c ****          * General events
 373:Generated_Source\PSoC6\pdl\middleware\ble/cy_ble_event_handler.c ****          ************************************************************/
 374:Generated_Source\PSoC6\pdl\middleware\ble/cy_ble_event_handler.c ****         case CY_BLE_EVT_STACK_ON:
 375:Generated_Source\PSoC6\pdl\middleware\ble/cy_ble_event_handler.c **** 
 376:Generated_Source\PSoC6\pdl\middleware\ble/cy_ble_event_handler.c ****         #if (CY_BLE_GATT_ROLE_SERVER || CY_BLE_GATT_ROLE_CLIENT)
 377:Generated_Source\PSoC6\pdl\middleware\ble/cy_ble_event_handler.c ****             {
 378:Generated_Source\PSoC6\pdl\middleware\ble/cy_ble_event_handler.c ****                 /* Set a device address  */
 379:Generated_Source\PSoC6\pdl\middleware\ble/cy_ble_event_handler.c ****                 if(Cy_BLE_IsDeviceAddressValid(cy_ble_sflashDeviceAddress) != 0u)
 426              		.loc 1 379 0
 427 0108 7A4B     		ldr	r3, .L109+4
 428 010a 1E68     		ldr	r6, [r3]
 429 010c 3046     		mov	r0, r6
 430              	.LVL37:
 431 010e FFF7FEFF 		bl	Cy_BLE_IsDeviceAddressValid
 432              	.LVL38:
 433 0112 60B1     		cbz	r0, .L65
 380:Generated_Source\PSoC6\pdl\middleware\ble/cy_ble_event_handler.c ****                 {
 381:Generated_Source\PSoC6\pdl\middleware\ble/cy_ble_event_handler.c ****                     (void)Cy_BLE_GAP_SetBdAddress(cy_ble_sflashDeviceAddress);
 434              		.loc 1 381 0
 435 0114 3046     		mov	r0, r6
 436 0116 FFF7FEFF 		bl	Cy_BLE_GAP_SetBdAddress
 437              	.LVL39:
 382:Generated_Source\PSoC6\pdl\middleware\ble/cy_ble_event_handler.c ****                 #if (CY_BLE_GAP_ROLE_PERIPHERAL || CY_BLE_GAP_ROLE_BROADCASTER)
 383:Generated_Source\PSoC6\pdl\middleware\ble/cy_ble_event_handler.c ****                     Cy_BLE_ChangeAdDeviceAddress(cy_ble_sflashDeviceAddress, 0u);
 438              		.loc 1 383 0
 439 011a 764E     		ldr	r6, .L109+4
 440 011c 0021     		movs	r1, #0
ARM GAS  C:\Users\gjl\AppData\Local\Temp\ccRZOvUj.s 			page 16


 441 011e 3068     		ldr	r0, [r6]
 442 0120 FFF7FEFF 		bl	Cy_BLE_ChangeAdDeviceAddress
 443              	.LVL40:
 384:Generated_Source\PSoC6\pdl\middleware\ble/cy_ble_event_handler.c ****                     Cy_BLE_ChangeAdDeviceAddress(cy_ble_sflashDeviceAddress, 1u);
 444              		.loc 1 384 0
 445 0124 0121     		movs	r1, #1
 446 0126 3068     		ldr	r0, [r6]
 447 0128 FFF7FEFF 		bl	Cy_BLE_ChangeAdDeviceAddress
 448              	.LVL41:
 449 012c 37E0     		b	.L66
 450              	.L65:
 385:Generated_Source\PSoC6\pdl\middleware\ble/cy_ble_event_handler.c ****                 #endif /* CY_BLE_GAP_ROLE_PERIPHERAL || CY_BLE_GAP_ROLE_BROADCASTER */
 386:Generated_Source\PSoC6\pdl\middleware\ble/cy_ble_event_handler.c ****                 }
 387:Generated_Source\PSoC6\pdl\middleware\ble/cy_ble_event_handler.c ****                 else
 388:Generated_Source\PSoC6\pdl\middleware\ble/cy_ble_event_handler.c ****                 {
 389:Generated_Source\PSoC6\pdl\middleware\ble/cy_ble_event_handler.c ****                     if(cy_ble_configPtr->params->siliconDeviceAddressEnabled != 0u)
 451              		.loc 1 389 0
 452 012e 724B     		ldr	r3, .L109+8
 453 0130 1A68     		ldr	r2, [r3]
 454 0132 936A     		ldr	r3, [r2, #40]
 455 0134 1B79     		ldrb	r3, [r3, #4]	@ zero_extendqisi2
 456 0136 1BB3     		cbz	r3, .L67
 457              	.LBB87:
 390:Generated_Source\PSoC6\pdl\middleware\ble/cy_ble_event_handler.c ****                     {
 391:Generated_Source\PSoC6\pdl\middleware\ble/cy_ble_event_handler.c ****                         uint32_t bdAddrLoc;
 392:Generated_Source\PSoC6\pdl\middleware\ble/cy_ble_event_handler.c ****                         bdAddrLoc = ((uint32_t)SFLASH->DIE_X & (uint32_t)CY_BLE_SFLASH_DIE_X_MASK) 
 458              		.loc 1 392 0
 459 0138 4FF0B051 		mov	r1, #369098752
 460 013c 91F80436 		ldrb	r3, [r1, #1540]	@ zero_extendqisi2
 461 0140 03F03F03 		and	r3, r3, #63
 393:Generated_Source\PSoC6\pdl\middleware\ble/cy_ble_event_handler.c ****                                     ((uint32_t)(((uint32_t)SFLASH->DIE_Y) & ((uint32_t)CY_BLE_SFLAS
 462              		.loc 1 393 0
 463 0144 91F80506 		ldrb	r0, [r1, #1541]	@ zero_extendqisi2
 464 0148 00F03F00 		and	r0, r0, #63
 392:Generated_Source\PSoC6\pdl\middleware\ble/cy_ble_event_handler.c ****                                     ((uint32_t)(((uint32_t)SFLASH->DIE_Y) & ((uint32_t)CY_BLE_SFLAS
 465              		.loc 1 392 0
 466 014c 43EA8013 		orr	r3, r3, r0, lsl #6
 394:Generated_Source\PSoC6\pdl\middleware\ble/cy_ble_event_handler.c ****                                      CY_BLE_SFLASH_DIE_X_BITS) |
 395:Generated_Source\PSoC6\pdl\middleware\ble/cy_ble_event_handler.c ****                                     ((uint32_t)(((uint32_t)SFLASH->DIE_WAFER) & ((uint32_t)CY_BLE_S
 467              		.loc 1 395 0
 468 0150 91F80306 		ldrb	r0, [r1, #1539]	@ zero_extendqisi2
 469 0154 00F01F00 		and	r0, r0, #31
 394:Generated_Source\PSoC6\pdl\middleware\ble/cy_ble_event_handler.c ****                                      CY_BLE_SFLASH_DIE_X_BITS) |
 470              		.loc 1 394 0
 471 0158 43EA0033 		orr	r3, r3, r0, lsl #12
 396:Generated_Source\PSoC6\pdl\middleware\ble/cy_ble_event_handler.c ****                                      CY_BLE_SFLASH_DIE_XY_BITS) |
 397:Generated_Source\PSoC6\pdl\middleware\ble/cy_ble_event_handler.c ****                                     ((uint32_t)(((uint32_t)SFLASH->DIE_LOT[0]) & ((uint32_t)CY_BLE_
 472              		.loc 1 397 0
 473 015c 91F80016 		ldrb	r1, [r1, #1536]	@ zero_extendqisi2
 474 0160 01F07F01 		and	r1, r1, #127
 392:Generated_Source\PSoC6\pdl\middleware\ble/cy_ble_event_handler.c ****                                     ((uint32_t)(((uint32_t)SFLASH->DIE_Y) & ((uint32_t)CY_BLE_SFLAS
 475              		.loc 1 392 0
 476 0164 43EA4143 		orr	r3, r3, r1, lsl #17
 477              	.LVL42:
 398:Generated_Source\PSoC6\pdl\middleware\ble/cy_ble_event_handler.c ****                                      CY_BLE_SFLASH_DIE_XYWAFER_BITS);
 399:Generated_Source\PSoC6\pdl\middleware\ble/cy_ble_event_handler.c **** 
 400:Generated_Source\PSoC6\pdl\middleware\ble/cy_ble_event_handler.c ****                         cy_ble_configPtr->deviceAddress->bdAddr[0] = (uint8_t)bdAddrLoc;
ARM GAS  C:\Users\gjl\AppData\Local\Temp\ccRZOvUj.s 			page 17


 478              		.loc 1 400 0
 479 0168 126B     		ldr	r2, [r2, #48]
 480 016a 1370     		strb	r3, [r2]
 401:Generated_Source\PSoC6\pdl\middleware\ble/cy_ble_event_handler.c ****                         cy_ble_configPtr->deviceAddress->bdAddr[1] = (uint8_t)(bdAddrLoc >> 8u);
 481              		.loc 1 401 0
 482 016c 624A     		ldr	r2, .L109+8
 483 016e 1168     		ldr	r1, [r2]
 484 0170 096B     		ldr	r1, [r1, #48]
 485 0172 C3F30720 		ubfx	r0, r3, #8, #8
 486 0176 4870     		strb	r0, [r1, #1]
 402:Generated_Source\PSoC6\pdl\middleware\ble/cy_ble_event_handler.c ****                         cy_ble_configPtr->deviceAddress->bdAddr[2] = (uint8_t)(bdAddrLoc >> 16u);
 487              		.loc 1 402 0
 488 0178 1268     		ldr	r2, [r2]
 489 017a 126B     		ldr	r2, [r2, #48]
 490 017c 1B0C     		lsrs	r3, r3, #16
 491              	.LVL43:
 492 017e 9370     		strb	r3, [r2, #2]
 493              	.L67:
 494              	.LBE87:
 403:Generated_Source\PSoC6\pdl\middleware\ble/cy_ble_event_handler.c ****                     }
 404:Generated_Source\PSoC6\pdl\middleware\ble/cy_ble_event_handler.c ****                     (void)Cy_BLE_GAP_SetBdAddress(cy_ble_configPtr->deviceAddress);
 495              		.loc 1 404 0
 496 0180 5D4E     		ldr	r6, .L109+8
 497 0182 3368     		ldr	r3, [r6]
 498 0184 186B     		ldr	r0, [r3, #48]
 499 0186 FFF7FEFF 		bl	Cy_BLE_GAP_SetBdAddress
 500              	.LVL44:
 405:Generated_Source\PSoC6\pdl\middleware\ble/cy_ble_event_handler.c **** 
 406:Generated_Source\PSoC6\pdl\middleware\ble/cy_ble_event_handler.c ****                 #if (CY_BLE_GAP_ROLE_PERIPHERAL || CY_BLE_GAP_ROLE_BROADCASTER)
 407:Generated_Source\PSoC6\pdl\middleware\ble/cy_ble_event_handler.c ****                     Cy_BLE_ChangeAdDeviceAddress(cy_ble_configPtr->deviceAddress, 0u);
 501              		.loc 1 407 0
 502 018a 3368     		ldr	r3, [r6]
 503 018c 0021     		movs	r1, #0
 504 018e 186B     		ldr	r0, [r3, #48]
 505 0190 FFF7FEFF 		bl	Cy_BLE_ChangeAdDeviceAddress
 506              	.LVL45:
 408:Generated_Source\PSoC6\pdl\middleware\ble/cy_ble_event_handler.c ****                     Cy_BLE_ChangeAdDeviceAddress(cy_ble_configPtr->deviceAddress, 1u);
 507              		.loc 1 408 0
 508 0194 3368     		ldr	r3, [r6]
 509 0196 0121     		movs	r1, #1
 510 0198 186B     		ldr	r0, [r3, #48]
 511 019a FFF7FEFF 		bl	Cy_BLE_ChangeAdDeviceAddress
 512              	.LVL46:
 513              	.L66:
 409:Generated_Source\PSoC6\pdl\middleware\ble/cy_ble_event_handler.c ****                 #endif /* CY_BLE_GAP_ROLE_PERIPHERAL || CY_BLE_GAP_ROLE_BROADCASTER */
 410:Generated_Source\PSoC6\pdl\middleware\ble/cy_ble_event_handler.c ****                 }
 411:Generated_Source\PSoC6\pdl\middleware\ble/cy_ble_event_handler.c ****                 /* Set the device IO Capability  */
 412:Generated_Source\PSoC6\pdl\middleware\ble/cy_ble_event_handler.c ****                 (void)Cy_BLE_GAP_SetIoCap((cy_en_ble_gap_iocap_t*)&cy_ble_configPtr->params->securi
 514              		.loc 1 412 0
 515 019e 564B     		ldr	r3, .L109+8
 516 01a0 1B68     		ldr	r3, [r3]
 517 01a2 986A     		ldr	r0, [r3, #40]
 518 01a4 0230     		adds	r0, r0, #2
 519 01a6 FFF7FEFF 		bl	Cy_BLE_GAP_SetIoCap
 520              	.LVL47:
 521              	.LBB88:
 413:Generated_Source\PSoC6\pdl\middleware\ble/cy_ble_event_handler.c ****                 {
ARM GAS  C:\Users\gjl\AppData\Local\Temp\ccRZOvUj.s 			page 18


 414:Generated_Source\PSoC6\pdl\middleware\ble/cy_ble_event_handler.c ****                     /* Enable all 4.1 events and configured 4.2 events */
 415:Generated_Source\PSoC6\pdl\middleware\ble/cy_ble_event_handler.c ****                     uint8_t leMask[CY_BLE_LE_MASK_LENGTH] = { CY_LO8(CY_BLE_LE_MASK),
 522              		.loc 1 415 0
 523 01aa 544A     		ldr	r2, .L109+12
 524 01ac 05AB     		add	r3, sp, #20
 525 01ae 1068     		ldr	r0, [r2]	@ unaligned
 526 01b0 5168     		ldr	r1, [r2, #4]	@ unaligned
 527 01b2 03C3     		stmia	r3!, {r0, r1}
 416:Generated_Source\PSoC6\pdl\middleware\ble/cy_ble_event_handler.c ****                                                               CY_HI8(CY_BLE_LE_MASK),0u,  0u, 0u, 0
 417:Generated_Source\PSoC6\pdl\middleware\ble/cy_ble_event_handler.c ****                     (void)Cy_BLE_SetLeEventMask(leMask);
 528              		.loc 1 417 0
 529 01b4 05A8     		add	r0, sp, #20
 530 01b6 FFF7FEFF 		bl	Cy_BLE_SetLeEventMask
 531              	.LVL48:
 532              	.LBE88:
 418:Generated_Source\PSoC6\pdl\middleware\ble/cy_ble_event_handler.c ****                 }
 419:Generated_Source\PSoC6\pdl\middleware\ble/cy_ble_event_handler.c ****             }
 420:Generated_Source\PSoC6\pdl\middleware\ble/cy_ble_event_handler.c ****         #endif /* CY_BLE_GATT_ROLE_SERVER || CY_BLE_GATT_ROLE_CLIENT */
 421:Generated_Source\PSoC6\pdl\middleware\ble/cy_ble_event_handler.c ****             Cy_BLE_SetState(CY_BLE_STATE_ON);
 533              		.loc 1 421 0
 534 01ba 0222     		movs	r2, #2
 535 01bc 504B     		ldr	r3, .L109+16
 536 01be 1A70     		strb	r2, [r3]
 422:Generated_Source\PSoC6\pdl\middleware\ble/cy_ble_event_handler.c ****             break;
 537              		.loc 1 422 0
 538 01c0 58E2     		b	.L35
 539              	.LVL49:
 540              	.L48:
 423:Generated_Source\PSoC6\pdl\middleware\ble/cy_ble_event_handler.c **** 
 424:Generated_Source\PSoC6\pdl\middleware\ble/cy_ble_event_handler.c ****         case CY_BLE_EVT_STACK_SHUTDOWN_COMPLETE:
 425:Generated_Source\PSoC6\pdl\middleware\ble/cy_ble_event_handler.c ****             Cy_BLE_SetState(CY_BLE_STATE_STOPPED);
 541              		.loc 1 425 0
 542 01c2 0023     		movs	r3, #0
 543 01c4 4E4A     		ldr	r2, .L109+16
 544 01c6 1370     		strb	r3, [r2]
 545              	.LVL50:
 546              	.LBB89:
 547              	.LBB90:
 548              		.file 2 "Generated_Source\\PSoC6\\pdl\\middleware\\ble\\cy_ble_gap.h"
   1:Generated_Source\PSoC6\pdl\middleware\ble/cy_ble_gap.h **** /***************************************************************************//**
   2:Generated_Source\PSoC6\pdl\middleware\ble/cy_ble_gap.h **** * \file cy_ble_gap.h
   3:Generated_Source\PSoC6\pdl\middleware\ble/cy_ble_gap.h **** * \version 2.0
   4:Generated_Source\PSoC6\pdl\middleware\ble/cy_ble_gap.h **** *
   5:Generated_Source\PSoC6\pdl\middleware\ble/cy_ble_gap.h **** * \brief
   6:Generated_Source\PSoC6\pdl\middleware\ble/cy_ble_gap.h **** *  Contains the prototypes and constants used in the BLE GAP profile.
   7:Generated_Source\PSoC6\pdl\middleware\ble/cy_ble_gap.h **** *
   8:Generated_Source\PSoC6\pdl\middleware\ble/cy_ble_gap.h **** ********************************************************************************
   9:Generated_Source\PSoC6\pdl\middleware\ble/cy_ble_gap.h **** * \copyright
  10:Generated_Source\PSoC6\pdl\middleware\ble/cy_ble_gap.h **** * Copyright 2017-2018, Cypress Semiconductor Corporation.  All rights reserved.
  11:Generated_Source\PSoC6\pdl\middleware\ble/cy_ble_gap.h **** * You may use this file only in accordance with the license, terms, conditions,
  12:Generated_Source\PSoC6\pdl\middleware\ble/cy_ble_gap.h **** * disclaimers, and limitations in the end user license agreement accompanying
  13:Generated_Source\PSoC6\pdl\middleware\ble/cy_ble_gap.h **** * the software package with which this file was provided.
  14:Generated_Source\PSoC6\pdl\middleware\ble/cy_ble_gap.h **** *******************************************************************************/
  15:Generated_Source\PSoC6\pdl\middleware\ble/cy_ble_gap.h **** 
  16:Generated_Source\PSoC6\pdl\middleware\ble/cy_ble_gap.h **** 
  17:Generated_Source\PSoC6\pdl\middleware\ble/cy_ble_gap.h **** #ifndef CY_BLE_GAP_H
  18:Generated_Source\PSoC6\pdl\middleware\ble/cy_ble_gap.h **** #define CY_BLE_GAP_H
ARM GAS  C:\Users\gjl\AppData\Local\Temp\ccRZOvUj.s 			page 19


  19:Generated_Source\PSoC6\pdl\middleware\ble/cy_ble_gap.h ****     
  20:Generated_Source\PSoC6\pdl\middleware\ble/cy_ble_gap.h **** #include "cy_ble_config.h"
  21:Generated_Source\PSoC6\pdl\middleware\ble/cy_ble_gap.h **** 
  22:Generated_Source\PSoC6\pdl\middleware\ble/cy_ble_gap.h **** /***************************************
  23:Generated_Source\PSoC6\pdl\middleware\ble/cy_ble_gap.h **** * BLE Stack includes
  24:Generated_Source\PSoC6\pdl\middleware\ble/cy_ble_gap.h **** ***************************************/
  25:Generated_Source\PSoC6\pdl\middleware\ble/cy_ble_gap.h **** #include "cy_ble_stack_gatt.h"    
  26:Generated_Source\PSoC6\pdl\middleware\ble/cy_ble_gap.h **** #include "cy_ble_stack_gap.h"
  27:Generated_Source\PSoC6\pdl\middleware\ble/cy_ble_gap.h **** #include "cy_ble_stack_gap_central.h"
  28:Generated_Source\PSoC6\pdl\middleware\ble/cy_ble_gap.h **** #include "cy_ble_stack_gap_peripheral.h"
  29:Generated_Source\PSoC6\pdl\middleware\ble/cy_ble_gap.h **** 
  30:Generated_Source\PSoC6\pdl\middleware\ble/cy_ble_gap.h **** /* C binding of definitions if building with C++ compiler */
  31:Generated_Source\PSoC6\pdl\middleware\ble/cy_ble_gap.h **** #ifdef __cplusplus
  32:Generated_Source\PSoC6\pdl\middleware\ble/cy_ble_gap.h **** extern "C" {
  33:Generated_Source\PSoC6\pdl\middleware\ble/cy_ble_gap.h **** #endif /* __cplusplus */
  34:Generated_Source\PSoC6\pdl\middleware\ble/cy_ble_gap.h **** 
  35:Generated_Source\PSoC6\pdl\middleware\ble/cy_ble_gap.h **** /***************************************
  36:Generated_Source\PSoC6\pdl\middleware\ble/cy_ble_gap.h **** * Conditional Compilation Parameters
  37:Generated_Source\PSoC6\pdl\middleware\ble/cy_ble_gap.h **** ***************************************/
  38:Generated_Source\PSoC6\pdl\middleware\ble/cy_ble_gap.h **** /**
  39:Generated_Source\PSoC6\pdl\middleware\ble/cy_ble_gap.h ****  * The BLE operation mode.
  40:Generated_Source\PSoC6\pdl\middleware\ble/cy_ble_gap.h ****  */
  41:Generated_Source\PSoC6\pdl\middleware\ble/cy_ble_gap.h **** #define CY_BLE_MODE                          (CY_BLE_CONFIG_MODE)
  42:Generated_Source\PSoC6\pdl\middleware\ble/cy_ble_gap.h **** 
  43:Generated_Source\PSoC6\pdl\middleware\ble/cy_ble_gap.h **** /** 
  44:Generated_Source\PSoC6\pdl\middleware\ble/cy_ble_gap.h ****  * Maximum number of BLE connections
  45:Generated_Source\PSoC6\pdl\middleware\ble/cy_ble_gap.h ****  * This parameter displays how many BLE connections (both Central and 
  46:Generated_Source\PSoC6\pdl\middleware\ble/cy_ble_gap.h ****  * Peripheral) are allowed. Valid range is from 1 to 4.
  47:Generated_Source\PSoC6\pdl\middleware\ble/cy_ble_gap.h ****  */
  48:Generated_Source\PSoC6\pdl\middleware\ble/cy_ble_gap.h **** #define CY_BLE_CONN_COUNT                    (CY_BLE_CONFIG_CONN_COUNT)
  49:Generated_Source\PSoC6\pdl\middleware\ble/cy_ble_gap.h ****  
  50:Generated_Source\PSoC6\pdl\middleware\ble/cy_ble_gap.h **** /**
  51:Generated_Source\PSoC6\pdl\middleware\ble/cy_ble_gap.h ****  * The GAP Role 
  52:Generated_Source\PSoC6\pdl\middleware\ble/cy_ble_gap.h ****  * The following defined mask can be used:
  53:Generated_Source\PSoC6\pdl\middleware\ble/cy_ble_gap.h ****  * CY_BLE_GAP_PERIPHERAL  (0x01u) - device operates as peripheral.
  54:Generated_Source\PSoC6\pdl\middleware\ble/cy_ble_gap.h ****  * CY_BLE_GAP_CENTRAL     (0x02u) - device operates as central. 
  55:Generated_Source\PSoC6\pdl\middleware\ble/cy_ble_gap.h ****  * CY_BLE_GAP_BROADCASTER (0x04u) - device operates as broadcaster.
  56:Generated_Source\PSoC6\pdl\middleware\ble/cy_ble_gap.h ****  * CY_BLE_GAP_OBSERVER    (0x08u) - device operates as observer.
  57:Generated_Source\PSoC6\pdl\middleware\ble/cy_ble_gap.h ****  * CY_BLE_GAP_HCI         (0x00u) - used when BLE operates in HCI mode.
  58:Generated_Source\PSoC6\pdl\middleware\ble/cy_ble_gap.h ****  */ 
  59:Generated_Source\PSoC6\pdl\middleware\ble/cy_ble_gap.h **** #define CY_BLE_GAP_ROLE                       (CY_BLE_CONFIG_GAP_ROLE)
  60:Generated_Source\PSoC6\pdl\middleware\ble/cy_ble_gap.h **** 
  61:Generated_Source\PSoC6\pdl\middleware\ble/cy_ble_gap.h **** /** The number of GAP Peripheral configurations structures */
  62:Generated_Source\PSoC6\pdl\middleware\ble/cy_ble_gap.h **** #define CY_BLE_GAP_PERIPHERAL_COUNT           (CY_BLE_CONFIG_GAP_PERIPHERAL_COUNT)
  63:Generated_Source\PSoC6\pdl\middleware\ble/cy_ble_gap.h **** 
  64:Generated_Source\PSoC6\pdl\middleware\ble/cy_ble_gap.h **** /** The number of GAP Broadcaster configurations structures */
  65:Generated_Source\PSoC6\pdl\middleware\ble/cy_ble_gap.h **** #define CY_BLE_GAP_BROADCASTER_COUNT          (CY_BLE_CONFIG_GAP_BROADCASTER_COUNT)
  66:Generated_Source\PSoC6\pdl\middleware\ble/cy_ble_gap.h **** 
  67:Generated_Source\PSoC6\pdl\middleware\ble/cy_ble_gap.h **** /** The number of GAP Central configurations structures */
  68:Generated_Source\PSoC6\pdl\middleware\ble/cy_ble_gap.h **** #define CY_BLE_GAP_CENTRAL_COUNT              (CY_BLE_CONFIG_GAP_CENTRAL_COUNT)
  69:Generated_Source\PSoC6\pdl\middleware\ble/cy_ble_gap.h **** 
  70:Generated_Source\PSoC6\pdl\middleware\ble/cy_ble_gap.h **** /** The number of GAP Observer configurations structures */
  71:Generated_Source\PSoC6\pdl\middleware\ble/cy_ble_gap.h **** #define CY_BLE_GAP_OBSERVER_COUNT             (CY_BLE_CONFIG_GAP_OBSERVER_COUNT)
  72:Generated_Source\PSoC6\pdl\middleware\ble/cy_ble_gap.h **** 
  73:Generated_Source\PSoC6\pdl\middleware\ble/cy_ble_gap.h **** /** The number of Security configurations structures */
  74:Generated_Source\PSoC6\pdl\middleware\ble/cy_ble_gap.h **** #define CY_BLE_AUTH_INFO_COUNT                (CY_BLE_CONFIG_AUTH_INFO_COUNT)
  75:Generated_Source\PSoC6\pdl\middleware\ble/cy_ble_gap.h **** 
ARM GAS  C:\Users\gjl\AppData\Local\Temp\ccRZOvUj.s 			page 20


  76:Generated_Source\PSoC6\pdl\middleware\ble/cy_ble_gap.h **** /** The Bonding Requirement structures */
  77:Generated_Source\PSoC6\pdl\middleware\ble/cy_ble_gap.h **** #define CY_BLE_BONDING_REQUIREMENT            (CY_BLE_CONFIG_BONDING_REQUIREMENT)
  78:Generated_Source\PSoC6\pdl\middleware\ble/cy_ble_gap.h **** 
  79:Generated_Source\PSoC6\pdl\middleware\ble/cy_ble_gap.h **** /** The GAP Role defines */
  80:Generated_Source\PSoC6\pdl\middleware\ble/cy_ble_gap.h **** #define CY_BLE_GAP_ROLE_PERIPHERAL            (0u != (CY_BLE_GAP_ROLE & CY_BLE_GAP_PERIPHERAL))
  81:Generated_Source\PSoC6\pdl\middleware\ble/cy_ble_gap.h **** #define CY_BLE_GAP_ROLE_CENTRAL               (0u != (CY_BLE_GAP_ROLE & CY_BLE_GAP_CENTRAL))
  82:Generated_Source\PSoC6\pdl\middleware\ble/cy_ble_gap.h **** #define CY_BLE_GAP_ROLE_OBSERVER              (0u != (CY_BLE_GAP_ROLE & CY_BLE_GAP_OBSERVER))
  83:Generated_Source\PSoC6\pdl\middleware\ble/cy_ble_gap.h **** #define CY_BLE_GAP_ROLE_BROADCASTER           (0u != (CY_BLE_GAP_ROLE & CY_BLE_GAP_BROADCASTER))
  84:Generated_Source\PSoC6\pdl\middleware\ble/cy_ble_gap.h **** 
  85:Generated_Source\PSoC6\pdl\middleware\ble/cy_ble_gap.h **** #define CY_BLE_GAPP_CONF_COUNT                (CY_BLE_GAP_PERIPHERAL_COUNT + CY_BLE_GAP_BROADCASTER
  86:Generated_Source\PSoC6\pdl\middleware\ble/cy_ble_gap.h **** #define CY_BLE_GAPC_CONF_COUNT                (CY_BLE_GAP_CENTRAL_COUNT + CY_BLE_GAP_OBSERVER_COUNT
  87:Generated_Source\PSoC6\pdl\middleware\ble/cy_ble_gap.h **** 
  88:Generated_Source\PSoC6\pdl\middleware\ble/cy_ble_gap.h **** /***************************************
  89:Generated_Source\PSoC6\pdl\middleware\ble/cy_ble_gap.h **** * Type Definitions
  90:Generated_Source\PSoC6\pdl\middleware\ble/cy_ble_gap.h **** ***************************************/
  91:Generated_Source\PSoC6\pdl\middleware\ble/cy_ble_gap.h **** 
  92:Generated_Source\PSoC6\pdl\middleware\ble/cy_ble_gap.h **** #if (CY_BLE_MODE_PROFILE)
  93:Generated_Source\PSoC6\pdl\middleware\ble/cy_ble_gap.h **** 
  94:Generated_Source\PSoC6\pdl\middleware\ble/cy_ble_gap.h **** /***************************************
  95:Generated_Source\PSoC6\pdl\middleware\ble/cy_ble_gap.h **** * Enumerated Types and Structures
  96:Generated_Source\PSoC6\pdl\middleware\ble/cy_ble_gap.h **** ***************************************/
  97:Generated_Source\PSoC6\pdl\middleware\ble/cy_ble_gap.h **** 
  98:Generated_Source\PSoC6\pdl\middleware\ble/cy_ble_gap.h **** /**
  99:Generated_Source\PSoC6\pdl\middleware\ble/cy_ble_gap.h ****  * \addtogroup group_ble_common_api_gap_definitions
 100:Generated_Source\PSoC6\pdl\middleware\ble/cy_ble_gap.h ****  * @{
 101:Generated_Source\PSoC6\pdl\middleware\ble/cy_ble_gap.h ****  */
 102:Generated_Source\PSoC6\pdl\middleware\ble/cy_ble_gap.h **** 
 103:Generated_Source\PSoC6\pdl\middleware\ble/cy_ble_gap.h **** /** BLE state machine type */
 104:Generated_Source\PSoC6\pdl\middleware\ble/cy_ble_gap.h **** typedef enum
 105:Generated_Source\PSoC6\pdl\middleware\ble/cy_ble_gap.h **** {
 106:Generated_Source\PSoC6\pdl\middleware\ble/cy_ble_gap.h ****     CY_BLE_STATE_STOPPED,                             /**< BLE is turned off */
 107:Generated_Source\PSoC6\pdl\middleware\ble/cy_ble_gap.h ****     CY_BLE_STATE_INITIALIZING,                        /**< Initializing state */
 108:Generated_Source\PSoC6\pdl\middleware\ble/cy_ble_gap.h ****     CY_BLE_STATE_ON,                                  /**< BLE is turned on */
 109:Generated_Source\PSoC6\pdl\middleware\ble/cy_ble_gap.h **** #if (CY_BLE_GAP_ROLE_CENTRAL)
 110:Generated_Source\PSoC6\pdl\middleware\ble/cy_ble_gap.h ****     CY_BLE_STATE_CONNECTING,                          /**< Connecting */
 111:Generated_Source\PSoC6\pdl\middleware\ble/cy_ble_gap.h **** #endif /* CY_BLE_GAP_ROLE_CENTRAL */
 112:Generated_Source\PSoC6\pdl\middleware\ble/cy_ble_gap.h **** } cy_en_ble_state_t;
 113:Generated_Source\PSoC6\pdl\middleware\ble/cy_ble_gap.h **** 
 114:Generated_Source\PSoC6\pdl\middleware\ble/cy_ble_gap.h **** 
 115:Generated_Source\PSoC6\pdl\middleware\ble/cy_ble_gap.h **** /** Scanning state machine type */
 116:Generated_Source\PSoC6\pdl\middleware\ble/cy_ble_gap.h **** typedef enum
 117:Generated_Source\PSoC6\pdl\middleware\ble/cy_ble_gap.h **** {
 118:Generated_Source\PSoC6\pdl\middleware\ble/cy_ble_gap.h ****     CY_BLE_SCAN_STATE_STOPPED,                        /**< Scanning is stopped */
 119:Generated_Source\PSoC6\pdl\middleware\ble/cy_ble_gap.h ****     CY_BLE_SCAN_STATE_SCAN_INITIATED,                 /**< Scanning is initiated */
 120:Generated_Source\PSoC6\pdl\middleware\ble/cy_ble_gap.h ****     CY_BLE_SCAN_STATE_SCANNING,                       /**< Scanning process */
 121:Generated_Source\PSoC6\pdl\middleware\ble/cy_ble_gap.h ****     CY_BLE_SCAN_STATE_STOP_INITIATED                  /**< Stop scanning is initiated */
 122:Generated_Source\PSoC6\pdl\middleware\ble/cy_ble_gap.h **** } cy_en_ble_scan_state_t;
 123:Generated_Source\PSoC6\pdl\middleware\ble/cy_ble_gap.h **** 
 124:Generated_Source\PSoC6\pdl\middleware\ble/cy_ble_gap.h **** /** Advertising state machine type */
 125:Generated_Source\PSoC6\pdl\middleware\ble/cy_ble_gap.h **** typedef enum
 126:Generated_Source\PSoC6\pdl\middleware\ble/cy_ble_gap.h **** {
 127:Generated_Source\PSoC6\pdl\middleware\ble/cy_ble_gap.h ****     CY_BLE_ADV_STATE_STOPPED,                         /**< Advertising is stopped */
 128:Generated_Source\PSoC6\pdl\middleware\ble/cy_ble_gap.h ****     CY_BLE_ADV_STATE_ADV_INITIATED,                   /**< Advertising is initiated */
 129:Generated_Source\PSoC6\pdl\middleware\ble/cy_ble_gap.h ****     CY_BLE_ADV_STATE_ADVERTISING,                     /**< Advertising process */
 130:Generated_Source\PSoC6\pdl\middleware\ble/cy_ble_gap.h ****     CY_BLE_ADV_STATE_STOP_INITIATED                   /**< Stop advertising is initiated */
 131:Generated_Source\PSoC6\pdl\middleware\ble/cy_ble_gap.h **** } cy_en_ble_adv_state_t;
 132:Generated_Source\PSoC6\pdl\middleware\ble/cy_ble_gap.h **** 
ARM GAS  C:\Users\gjl\AppData\Local\Temp\ccRZOvUj.s 			page 21


 133:Generated_Source\PSoC6\pdl\middleware\ble/cy_ble_gap.h **** /** Connection state machine type */
 134:Generated_Source\PSoC6\pdl\middleware\ble/cy_ble_gap.h **** typedef enum
 135:Generated_Source\PSoC6\pdl\middleware\ble/cy_ble_gap.h **** {
 136:Generated_Source\PSoC6\pdl\middleware\ble/cy_ble_gap.h ****     CY_BLE_CONN_STATE_DISCONNECTED,                   /**< Essentially idle state */
 137:Generated_Source\PSoC6\pdl\middleware\ble/cy_ble_gap.h ****     CY_BLE_CONN_STATE_CLIENT_DISCONNECTED_DISCOVERED, /**< Server is disconnected but discovered */
 138:Generated_Source\PSoC6\pdl\middleware\ble/cy_ble_gap.h ****     CY_BLE_CONN_STATE_CONNECTED,                      /**< Peer device is connected for this and fo
 139:Generated_Source\PSoC6\pdl\middleware\ble/cy_ble_gap.h ****     CY_BLE_CONN_STATE_CLIENT_SRVC_DISCOVERING,        /**< Server services are being discovered */
 140:Generated_Source\PSoC6\pdl\middleware\ble/cy_ble_gap.h ****     CY_BLE_CONN_STATE_CLIENT_INCL_DISCOVERING,        /**< Server included services are being disco
 141:Generated_Source\PSoC6\pdl\middleware\ble/cy_ble_gap.h ****     CY_BLE_CONN_STATE_CLIENT_CHAR_DISCOVERING,        /**< Server characteristics are being discove
 142:Generated_Source\PSoC6\pdl\middleware\ble/cy_ble_gap.h ****     CY_BLE_CONN_STATE_CLIENT_DESCR_DISCOVERING,       /**< Server char. descriptors are being disco
 143:Generated_Source\PSoC6\pdl\middleware\ble/cy_ble_gap.h ****     CY_BLE_CONN_STATE_CLIENT_DISCOVERED               /**< Server is discovered */
 144:Generated_Source\PSoC6\pdl\middleware\ble/cy_ble_gap.h **** } cy_en_ble_conn_state_t;
 145:Generated_Source\PSoC6\pdl\middleware\ble/cy_ble_gap.h **** 
 146:Generated_Source\PSoC6\pdl\middleware\ble/cy_ble_gap.h **** /** Structure with Generic Access Profile Service (GAPS) attribute handles */
 147:Generated_Source\PSoC6\pdl\middleware\ble/cy_ble_gap.h **** typedef struct
 148:Generated_Source\PSoC6\pdl\middleware\ble/cy_ble_gap.h **** {
 149:Generated_Source\PSoC6\pdl\middleware\ble/cy_ble_gap.h ****     /** Service handle*/
 150:Generated_Source\PSoC6\pdl\middleware\ble/cy_ble_gap.h ****     cy_ble_gatt_db_attr_handle_t serviceHandle;
 151:Generated_Source\PSoC6\pdl\middleware\ble/cy_ble_gap.h **** 
 152:Generated_Source\PSoC6\pdl\middleware\ble/cy_ble_gap.h ****     /** Handle of the GAPS Device Name Characteristic */
 153:Generated_Source\PSoC6\pdl\middleware\ble/cy_ble_gap.h ****     cy_ble_gatt_db_attr_handle_t deviceNameCharHandle;
 154:Generated_Source\PSoC6\pdl\middleware\ble/cy_ble_gap.h **** 
 155:Generated_Source\PSoC6\pdl\middleware\ble/cy_ble_gap.h ****     /** Handle of the GAPS Appearance Characteristic */
 156:Generated_Source\PSoC6\pdl\middleware\ble/cy_ble_gap.h ****     cy_ble_gatt_db_attr_handle_t appearanceCharHandle;
 157:Generated_Source\PSoC6\pdl\middleware\ble/cy_ble_gap.h **** 
 158:Generated_Source\PSoC6\pdl\middleware\ble/cy_ble_gap.h ****     /** Handle of the GAPS Peripheral Preferred Connection Parameters Characteristic */
 159:Generated_Source\PSoC6\pdl\middleware\ble/cy_ble_gap.h ****     cy_ble_gatt_db_attr_handle_t prefConnParamCharHandle;
 160:Generated_Source\PSoC6\pdl\middleware\ble/cy_ble_gap.h **** 
 161:Generated_Source\PSoC6\pdl\middleware\ble/cy_ble_gap.h ****     /** Handle of the GAPS Central Address Resolution characteristic */
 162:Generated_Source\PSoC6\pdl\middleware\ble/cy_ble_gap.h ****     cy_ble_gatt_db_attr_handle_t centralAddrResolutionCharHandle;
 163:Generated_Source\PSoC6\pdl\middleware\ble/cy_ble_gap.h **** 
 164:Generated_Source\PSoC6\pdl\middleware\ble/cy_ble_gap.h ****     /** Handle of the GAPS Resolvable Private Address Only characteristic */
 165:Generated_Source\PSoC6\pdl\middleware\ble/cy_ble_gap.h ****     cy_ble_gatt_db_attr_handle_t resolvablePrivateAddressOnly;
 166:Generated_Source\PSoC6\pdl\middleware\ble/cy_ble_gap.h **** } cy_stc_ble_gaps_t;
 167:Generated_Source\PSoC6\pdl\middleware\ble/cy_ble_gap.h **** 
 168:Generated_Source\PSoC6\pdl\middleware\ble/cy_ble_gap.h **** /** GAP Service characteristics server's GATT DB handles structure type */
 169:Generated_Source\PSoC6\pdl\middleware\ble/cy_ble_gap.h **** typedef struct
 170:Generated_Source\PSoC6\pdl\middleware\ble/cy_ble_gap.h **** {
 171:Generated_Source\PSoC6\pdl\middleware\ble/cy_ble_gap.h ****     /** Handle of the GAPS Device Name Characteristic */
 172:Generated_Source\PSoC6\pdl\middleware\ble/cy_ble_gap.h ****     cy_ble_gatt_db_attr_handle_t deviceNameCharHandle;
 173:Generated_Source\PSoC6\pdl\middleware\ble/cy_ble_gap.h **** 
 174:Generated_Source\PSoC6\pdl\middleware\ble/cy_ble_gap.h ****     /** Handle of the GAPS Appearance Characteristic */
 175:Generated_Source\PSoC6\pdl\middleware\ble/cy_ble_gap.h ****     cy_ble_gatt_db_attr_handle_t appearanceCharHandle;
 176:Generated_Source\PSoC6\pdl\middleware\ble/cy_ble_gap.h **** 
 177:Generated_Source\PSoC6\pdl\middleware\ble/cy_ble_gap.h ****     /** Handle of the GAPS Peripheral Privacy Flag Parameters Characteristic */
 178:Generated_Source\PSoC6\pdl\middleware\ble/cy_ble_gap.h ****     cy_ble_gatt_db_attr_handle_t periphPrivacyCharHandle;
 179:Generated_Source\PSoC6\pdl\middleware\ble/cy_ble_gap.h **** 
 180:Generated_Source\PSoC6\pdl\middleware\ble/cy_ble_gap.h ****     /** Handle of the GAPS Reconnection Address Characteristic */
 181:Generated_Source\PSoC6\pdl\middleware\ble/cy_ble_gap.h ****     cy_ble_gatt_db_attr_handle_t reconnAddrCharHandle;
 182:Generated_Source\PSoC6\pdl\middleware\ble/cy_ble_gap.h **** 
 183:Generated_Source\PSoC6\pdl\middleware\ble/cy_ble_gap.h ****     /** Handle of the GAPS Peripheral Preferred Connection Parameters Characteristic */
 184:Generated_Source\PSoC6\pdl\middleware\ble/cy_ble_gap.h ****     cy_ble_gatt_db_attr_handle_t prefConnParamCharHandle;
 185:Generated_Source\PSoC6\pdl\middleware\ble/cy_ble_gap.h **** 
 186:Generated_Source\PSoC6\pdl\middleware\ble/cy_ble_gap.h ****     /** Handle of the GAPS Central Address Resolution characteristic */
 187:Generated_Source\PSoC6\pdl\middleware\ble/cy_ble_gap.h ****     cy_ble_gatt_db_attr_handle_t centralAddrResolutionCharHandle;
 188:Generated_Source\PSoC6\pdl\middleware\ble/cy_ble_gap.h **** 
 189:Generated_Source\PSoC6\pdl\middleware\ble/cy_ble_gap.h ****     /** Handle of the GAPS Resolvable Private Address Only characteristic */
ARM GAS  C:\Users\gjl\AppData\Local\Temp\ccRZOvUj.s 			page 22


 190:Generated_Source\PSoC6\pdl\middleware\ble/cy_ble_gap.h ****     cy_ble_gatt_db_attr_handle_t resolvablePrivateAddressOnly;
 191:Generated_Source\PSoC6\pdl\middleware\ble/cy_ble_gap.h **** }cy_stc_ble_gapc_t;
 192:Generated_Source\PSoC6\pdl\middleware\ble/cy_ble_gap.h **** 
 193:Generated_Source\PSoC6\pdl\middleware\ble/cy_ble_gap.h **** /* Stack mode defines */
 194:Generated_Source\PSoC6\pdl\middleware\ble/cy_ble_gap.h **** 
 195:Generated_Source\PSoC6\pdl\middleware\ble/cy_ble_gap.h **** /** Advertisement SIG assigned numbers */
 196:Generated_Source\PSoC6\pdl\middleware\ble/cy_ble_gap.h **** typedef enum
 197:Generated_Source\PSoC6\pdl\middleware\ble/cy_ble_gap.h **** {
 198:Generated_Source\PSoC6\pdl\middleware\ble/cy_ble_gap.h ****     /** Flags */
 199:Generated_Source\PSoC6\pdl\middleware\ble/cy_ble_gap.h ****     CY_BLE_GAP_ADV_FLAGS = 0x01u,
 200:Generated_Source\PSoC6\pdl\middleware\ble/cy_ble_gap.h **** 
 201:Generated_Source\PSoC6\pdl\middleware\ble/cy_ble_gap.h ****     /** Incomplete List of 16-bit Service Class UUIDs */
 202:Generated_Source\PSoC6\pdl\middleware\ble/cy_ble_gap.h ****     CY_BLE_GAP_ADV_INCOMPL_16UUID,
 203:Generated_Source\PSoC6\pdl\middleware\ble/cy_ble_gap.h **** 
 204:Generated_Source\PSoC6\pdl\middleware\ble/cy_ble_gap.h ****     /** Complete List of 16-bit Service Class UUIDs */
 205:Generated_Source\PSoC6\pdl\middleware\ble/cy_ble_gap.h ****     CY_BLE_GAP_ADV_COMPL_16UUID,
 206:Generated_Source\PSoC6\pdl\middleware\ble/cy_ble_gap.h **** 
 207:Generated_Source\PSoC6\pdl\middleware\ble/cy_ble_gap.h ****     /** Incomplete List of 32-bit Service Class UUIDs */
 208:Generated_Source\PSoC6\pdl\middleware\ble/cy_ble_gap.h ****     CY_BLE_GAP_ADV_INCOMPL_32_UUID,
 209:Generated_Source\PSoC6\pdl\middleware\ble/cy_ble_gap.h **** 
 210:Generated_Source\PSoC6\pdl\middleware\ble/cy_ble_gap.h ****     /** Complete List of 32-bit Service Class UUIDs */
 211:Generated_Source\PSoC6\pdl\middleware\ble/cy_ble_gap.h ****     CY_BLE_GAP_ADV_COMPL_32_UUID,
 212:Generated_Source\PSoC6\pdl\middleware\ble/cy_ble_gap.h **** 
 213:Generated_Source\PSoC6\pdl\middleware\ble/cy_ble_gap.h ****     /** Incomplete List of 128-bit Service Class UUIDs */
 214:Generated_Source\PSoC6\pdl\middleware\ble/cy_ble_gap.h ****     CY_BLE_GAP_ADV_INCOMPL_128_UUID,
 215:Generated_Source\PSoC6\pdl\middleware\ble/cy_ble_gap.h **** 
 216:Generated_Source\PSoC6\pdl\middleware\ble/cy_ble_gap.h ****     /** Complete List of 128-bit Service Class UUIDs */
 217:Generated_Source\PSoC6\pdl\middleware\ble/cy_ble_gap.h ****     CY_BLE_GAP_ADV_COMPL_128_UUID,
 218:Generated_Source\PSoC6\pdl\middleware\ble/cy_ble_gap.h **** 
 219:Generated_Source\PSoC6\pdl\middleware\ble/cy_ble_gap.h ****     /** Shortened Local Name */
 220:Generated_Source\PSoC6\pdl\middleware\ble/cy_ble_gap.h ****     CY_BLE_GAP_ADV_SHORT_NAME,
 221:Generated_Source\PSoC6\pdl\middleware\ble/cy_ble_gap.h **** 
 222:Generated_Source\PSoC6\pdl\middleware\ble/cy_ble_gap.h ****     /** Complete Local Name */
 223:Generated_Source\PSoC6\pdl\middleware\ble/cy_ble_gap.h ****     CY_BLE_GAP_ADV_COMPL_NAME,
 224:Generated_Source\PSoC6\pdl\middleware\ble/cy_ble_gap.h **** 
 225:Generated_Source\PSoC6\pdl\middleware\ble/cy_ble_gap.h ****     /** Tx Power Level */
 226:Generated_Source\PSoC6\pdl\middleware\ble/cy_ble_gap.h ****     CY_BLE_GAP_ADV_TX_PWR_LVL,
 227:Generated_Source\PSoC6\pdl\middleware\ble/cy_ble_gap.h **** 
 228:Generated_Source\PSoC6\pdl\middleware\ble/cy_ble_gap.h ****     /** Class of Device */
 229:Generated_Source\PSoC6\pdl\middleware\ble/cy_ble_gap.h ****     CY_BLE_GAP_ADV_CLASS_OF_DEVICE = 0x0Du,
 230:Generated_Source\PSoC6\pdl\middleware\ble/cy_ble_gap.h **** 
 231:Generated_Source\PSoC6\pdl\middleware\ble/cy_ble_gap.h ****     /** Simple Pairing Hash C */
 232:Generated_Source\PSoC6\pdl\middleware\ble/cy_ble_gap.h ****     CY_BLE_GAP_ADV_SMPL_PAIR_HASH_C,
 233:Generated_Source\PSoC6\pdl\middleware\ble/cy_ble_gap.h **** 
 234:Generated_Source\PSoC6\pdl\middleware\ble/cy_ble_gap.h ****     /** Simple Pairing Randomizer R */
 235:Generated_Source\PSoC6\pdl\middleware\ble/cy_ble_gap.h ****     CY_BLE_GAP_ADV_SMPL_PAIR_RANDOM_R,
 236:Generated_Source\PSoC6\pdl\middleware\ble/cy_ble_gap.h **** 
 237:Generated_Source\PSoC6\pdl\middleware\ble/cy_ble_gap.h ****     /** Device ID*/
 238:Generated_Source\PSoC6\pdl\middleware\ble/cy_ble_gap.h ****     CY_BLE_GAP_ADV_DEVICE_ID,
 239:Generated_Source\PSoC6\pdl\middleware\ble/cy_ble_gap.h **** 
 240:Generated_Source\PSoC6\pdl\middleware\ble/cy_ble_gap.h ****     /** Security Manager TK Value */
 241:Generated_Source\PSoC6\pdl\middleware\ble/cy_ble_gap.h ****     CY_BLE_GAP_ADV_SCRT_MNGR_TK_VAL = 0x10u,
 242:Generated_Source\PSoC6\pdl\middleware\ble/cy_ble_gap.h **** 
 243:Generated_Source\PSoC6\pdl\middleware\ble/cy_ble_gap.h ****     /** Security Manager Out of Band Flags */
 244:Generated_Source\PSoC6\pdl\middleware\ble/cy_ble_gap.h ****     CY_BLE_GAP_ADV_SCRT_MNGR_OOB_FLAGS,
 245:Generated_Source\PSoC6\pdl\middleware\ble/cy_ble_gap.h **** 
 246:Generated_Source\PSoC6\pdl\middleware\ble/cy_ble_gap.h ****     /** Slave Connection Interval Range */
ARM GAS  C:\Users\gjl\AppData\Local\Temp\ccRZOvUj.s 			page 23


 247:Generated_Source\PSoC6\pdl\middleware\ble/cy_ble_gap.h ****     CY_BLE_GAP_ADV_SLAVE_CONN_INTRV_RANGE,
 248:Generated_Source\PSoC6\pdl\middleware\ble/cy_ble_gap.h **** 
 249:Generated_Source\PSoC6\pdl\middleware\ble/cy_ble_gap.h ****     /** List of 16-bit Service Solicitation UUIDs */
 250:Generated_Source\PSoC6\pdl\middleware\ble/cy_ble_gap.h ****     CY_BLE_GAP_ADV_SOLICIT_16UUID = 0x14u,
 251:Generated_Source\PSoC6\pdl\middleware\ble/cy_ble_gap.h **** 
 252:Generated_Source\PSoC6\pdl\middleware\ble/cy_ble_gap.h ****     /** List of 128-bit Service Solicitation UUIDs */
 253:Generated_Source\PSoC6\pdl\middleware\ble/cy_ble_gap.h ****     CY_BLE_GAP_ADV_SOLICIT_128UUID,
 254:Generated_Source\PSoC6\pdl\middleware\ble/cy_ble_gap.h **** 
 255:Generated_Source\PSoC6\pdl\middleware\ble/cy_ble_gap.h ****     /** Service Data - 16-bit UUID */
 256:Generated_Source\PSoC6\pdl\middleware\ble/cy_ble_gap.h ****     CY_BLE_GAP_ADV_SRVC_DATA_16UUID,
 257:Generated_Source\PSoC6\pdl\middleware\ble/cy_ble_gap.h **** 
 258:Generated_Source\PSoC6\pdl\middleware\ble/cy_ble_gap.h ****     /** Public Target Address */
 259:Generated_Source\PSoC6\pdl\middleware\ble/cy_ble_gap.h ****     CY_BLE_GAP_ADV_PUBLIC_TARGET_ADDR,
 260:Generated_Source\PSoC6\pdl\middleware\ble/cy_ble_gap.h **** 
 261:Generated_Source\PSoC6\pdl\middleware\ble/cy_ble_gap.h ****     /** Random Target Address */
 262:Generated_Source\PSoC6\pdl\middleware\ble/cy_ble_gap.h ****     CY_BLE_GAP_ADV_RANDOM_TARGET_ADDR,
 263:Generated_Source\PSoC6\pdl\middleware\ble/cy_ble_gap.h **** 
 264:Generated_Source\PSoC6\pdl\middleware\ble/cy_ble_gap.h ****     /** Appearance */
 265:Generated_Source\PSoC6\pdl\middleware\ble/cy_ble_gap.h ****     CY_BLE_GAP_ADV_APPEARANCE,
 266:Generated_Source\PSoC6\pdl\middleware\ble/cy_ble_gap.h **** 
 267:Generated_Source\PSoC6\pdl\middleware\ble/cy_ble_gap.h ****     /** Advertising Interval */
 268:Generated_Source\PSoC6\pdl\middleware\ble/cy_ble_gap.h ****     CY_BLE_GAP_ADV_ADVERT_INTERVAL,
 269:Generated_Source\PSoC6\pdl\middleware\ble/cy_ble_gap.h **** 
 270:Generated_Source\PSoC6\pdl\middleware\ble/cy_ble_gap.h ****     /** LE Bluetooth Device Address */
 271:Generated_Source\PSoC6\pdl\middleware\ble/cy_ble_gap.h ****     CY_BLE_GAP_ADV_LE_BT_DEVICE_ADDR,
 272:Generated_Source\PSoC6\pdl\middleware\ble/cy_ble_gap.h **** 
 273:Generated_Source\PSoC6\pdl\middleware\ble/cy_ble_gap.h ****     /** LE Role */
 274:Generated_Source\PSoC6\pdl\middleware\ble/cy_ble_gap.h ****     CY_BLE_GAP_ADV_LE_ROLE,
 275:Generated_Source\PSoC6\pdl\middleware\ble/cy_ble_gap.h **** 
 276:Generated_Source\PSoC6\pdl\middleware\ble/cy_ble_gap.h ****     /** Simple Pairing Hash C-256 */
 277:Generated_Source\PSoC6\pdl\middleware\ble/cy_ble_gap.h ****     CY_BLE_GAP_ADV_SMPL_PAIR_HASH_C256,
 278:Generated_Source\PSoC6\pdl\middleware\ble/cy_ble_gap.h **** 
 279:Generated_Source\PSoC6\pdl\middleware\ble/cy_ble_gap.h ****     /** Simple Pairing Randomizer R-256 */
 280:Generated_Source\PSoC6\pdl\middleware\ble/cy_ble_gap.h ****     CY_BLE_GAP_ADV_SMPL_PAIR_RANDOM_R256,
 281:Generated_Source\PSoC6\pdl\middleware\ble/cy_ble_gap.h **** 
 282:Generated_Source\PSoC6\pdl\middleware\ble/cy_ble_gap.h ****     /** List of 32-bit Service Solicitation UUIDs */
 283:Generated_Source\PSoC6\pdl\middleware\ble/cy_ble_gap.h ****     CY_BLE_GAP_ADV_SOLICIT_32UUID,
 284:Generated_Source\PSoC6\pdl\middleware\ble/cy_ble_gap.h **** 
 285:Generated_Source\PSoC6\pdl\middleware\ble/cy_ble_gap.h ****     /** Service Data - 32-bit UUID */
 286:Generated_Source\PSoC6\pdl\middleware\ble/cy_ble_gap.h ****     CY_BLE_GAP_ADV_SRVC_DATA_32UUID,
 287:Generated_Source\PSoC6\pdl\middleware\ble/cy_ble_gap.h **** 
 288:Generated_Source\PSoC6\pdl\middleware\ble/cy_ble_gap.h ****     /** Service Data - 128-bit UUID */
 289:Generated_Source\PSoC6\pdl\middleware\ble/cy_ble_gap.h ****     CY_BLE_GAP_ADV_SRVC_DATA_128UUID,
 290:Generated_Source\PSoC6\pdl\middleware\ble/cy_ble_gap.h **** 
 291:Generated_Source\PSoC6\pdl\middleware\ble/cy_ble_gap.h ****     /** 3D Information Data */
 292:Generated_Source\PSoC6\pdl\middleware\ble/cy_ble_gap.h ****     CY_BLE_GAP_ADV_3D_INFO_DATA = 0x3D,
 293:Generated_Source\PSoC6\pdl\middleware\ble/cy_ble_gap.h **** 
 294:Generated_Source\PSoC6\pdl\middleware\ble/cy_ble_gap.h ****     /** Manufacturer Specific Data */
 295:Generated_Source\PSoC6\pdl\middleware\ble/cy_ble_gap.h ****     CY_BLE_GAP_ADV_MANUFACTURER_SPECIFIC_DATA = 0xFF
 296:Generated_Source\PSoC6\pdl\middleware\ble/cy_ble_gap.h **** }cy_en_ble_gap_adv_assign_numbers_t;
 297:Generated_Source\PSoC6\pdl\middleware\ble/cy_ble_gap.h **** 
 298:Generated_Source\PSoC6\pdl\middleware\ble/cy_ble_gap.h **** /** GAPP advertising configuration parameters structure */
 299:Generated_Source\PSoC6\pdl\middleware\ble/cy_ble_gap.h **** typedef struct
 300:Generated_Source\PSoC6\pdl\middleware\ble/cy_ble_gap.h **** {
 301:Generated_Source\PSoC6\pdl\middleware\ble/cy_ble_gap.h ****     /** The minimum interval for fast advertising the data and establishing the LE Connection */
 302:Generated_Source\PSoC6\pdl\middleware\ble/cy_ble_gap.h ****     uint16_t fastAdvIntervalMin;
 303:Generated_Source\PSoC6\pdl\middleware\ble/cy_ble_gap.h **** 
ARM GAS  C:\Users\gjl\AppData\Local\Temp\ccRZOvUj.s 			page 24


 304:Generated_Source\PSoC6\pdl\middleware\ble/cy_ble_gap.h ****     /** The maximum interval for fast advertising the data and establishing the LE Connection */
 305:Generated_Source\PSoC6\pdl\middleware\ble/cy_ble_gap.h ****     uint16_t fastAdvIntervalMax;
 306:Generated_Source\PSoC6\pdl\middleware\ble/cy_ble_gap.h **** 
 307:Generated_Source\PSoC6\pdl\middleware\ble/cy_ble_gap.h ****     /** The timeout value of  fast advertising with fast advertising interval parameters */
 308:Generated_Source\PSoC6\pdl\middleware\ble/cy_ble_gap.h ****     uint16_t fastAdvTimeOut;
 309:Generated_Source\PSoC6\pdl\middleware\ble/cy_ble_gap.h **** 
 310:Generated_Source\PSoC6\pdl\middleware\ble/cy_ble_gap.h ****     /** Slow advertising enable */
 311:Generated_Source\PSoC6\pdl\middleware\ble/cy_ble_gap.h ****     uint8_t  slowAdvEnable;
 312:Generated_Source\PSoC6\pdl\middleware\ble/cy_ble_gap.h **** 
 313:Generated_Source\PSoC6\pdl\middleware\ble/cy_ble_gap.h ****     /** The minimum interval for slow advertising the data and establishing the LE Connection */
 314:Generated_Source\PSoC6\pdl\middleware\ble/cy_ble_gap.h ****     uint16_t slowAdvIntervalMin;
 315:Generated_Source\PSoC6\pdl\middleware\ble/cy_ble_gap.h **** 
 316:Generated_Source\PSoC6\pdl\middleware\ble/cy_ble_gap.h ****     /** The maximum interval for slow  advertising the data and establishing the LE Connection */
 317:Generated_Source\PSoC6\pdl\middleware\ble/cy_ble_gap.h ****     uint16_t slowAdvIntervalMax;
 318:Generated_Source\PSoC6\pdl\middleware\ble/cy_ble_gap.h **** 
 319:Generated_Source\PSoC6\pdl\middleware\ble/cy_ble_gap.h ****     /** The timeout value of slow advertising with slow advertising interval parameters */
 320:Generated_Source\PSoC6\pdl\middleware\ble/cy_ble_gap.h ****     uint16_t slowAdvTimeOut;
 321:Generated_Source\PSoC6\pdl\middleware\ble/cy_ble_gap.h **** }cy_stc_ble_gapp_adv_params_t;
 322:Generated_Source\PSoC6\pdl\middleware\ble/cy_ble_gap.h **** 
 323:Generated_Source\PSoC6\pdl\middleware\ble/cy_ble_gap.h **** /** GAPC advertising configuration parameters structure */
 324:Generated_Source\PSoC6\pdl\middleware\ble/cy_ble_gap.h **** typedef struct
 325:Generated_Source\PSoC6\pdl\middleware\ble/cy_ble_gap.h **** {
 326:Generated_Source\PSoC6\pdl\middleware\ble/cy_ble_gap.h ****     /** The scan interval when operating in Fast connection */
 327:Generated_Source\PSoC6\pdl\middleware\ble/cy_ble_gap.h ****     uint16_t fastScanInterval;
 328:Generated_Source\PSoC6\pdl\middleware\ble/cy_ble_gap.h **** 
 329:Generated_Source\PSoC6\pdl\middleware\ble/cy_ble_gap.h ****     /** Defines the scan window when operating in Fast connection */
 330:Generated_Source\PSoC6\pdl\middleware\ble/cy_ble_gap.h ****     uint16_t fastScanWindow;
 331:Generated_Source\PSoC6\pdl\middleware\ble/cy_ble_gap.h **** 
 332:Generated_Source\PSoC6\pdl\middleware\ble/cy_ble_gap.h ****     /** The timeout value of scanning with fast scan parameters */
 333:Generated_Source\PSoC6\pdl\middleware\ble/cy_ble_gap.h ****     uint16_t fastScanTimeOut;
 334:Generated_Source\PSoC6\pdl\middleware\ble/cy_ble_gap.h **** 
 335:Generated_Source\PSoC6\pdl\middleware\ble/cy_ble_gap.h ****     /** Slow scan enable/disable */
 336:Generated_Source\PSoC6\pdl\middleware\ble/cy_ble_gap.h ****     uint8_t  slowScanEnabled;
 337:Generated_Source\PSoC6\pdl\middleware\ble/cy_ble_gap.h **** 
 338:Generated_Source\PSoC6\pdl\middleware\ble/cy_ble_gap.h ****     /** The scan interval when operating in Slow connection */
 339:Generated_Source\PSoC6\pdl\middleware\ble/cy_ble_gap.h ****     uint16_t slowScanInterval;
 340:Generated_Source\PSoC6\pdl\middleware\ble/cy_ble_gap.h **** 
 341:Generated_Source\PSoC6\pdl\middleware\ble/cy_ble_gap.h ****     /** Defines the scan window when operating in Slow connection */
 342:Generated_Source\PSoC6\pdl\middleware\ble/cy_ble_gap.h ****     uint16_t slowScanWindow;
 343:Generated_Source\PSoC6\pdl\middleware\ble/cy_ble_gap.h **** 
 344:Generated_Source\PSoC6\pdl\middleware\ble/cy_ble_gap.h ****     /** The timeout value of scanning with Slow scan parameters */
 345:Generated_Source\PSoC6\pdl\middleware\ble/cy_ble_gap.h ****     uint16_t slowScanTimeOut;
 346:Generated_Source\PSoC6\pdl\middleware\ble/cy_ble_gap.h **** 
 347:Generated_Source\PSoC6\pdl\middleware\ble/cy_ble_gap.h ****     /** The minimum permissible connection time value to be used during a connection event */
 348:Generated_Source\PSoC6\pdl\middleware\ble/cy_ble_gap.h ****     uint16_t gapcConnectionIntervalMin;
 349:Generated_Source\PSoC6\pdl\middleware\ble/cy_ble_gap.h **** 
 350:Generated_Source\PSoC6\pdl\middleware\ble/cy_ble_gap.h ****     /** The maximum permissible connection time value to be used during a connection event */
 351:Generated_Source\PSoC6\pdl\middleware\ble/cy_ble_gap.h ****     uint16_t gapcConnectionIntervalMax;
 352:Generated_Source\PSoC6\pdl\middleware\ble/cy_ble_gap.h **** 
 353:Generated_Source\PSoC6\pdl\middleware\ble/cy_ble_gap.h ****     /** Defines the maximum time between two received Data Packet PDUs before
 354:Generated_Source\PSoC6\pdl\middleware\ble/cy_ble_gap.h ****      *  the connection is considered lost */
 355:Generated_Source\PSoC6\pdl\middleware\ble/cy_ble_gap.h ****     uint16_t gapcConnectionSlaveLatency;
 356:Generated_Source\PSoC6\pdl\middleware\ble/cy_ble_gap.h **** 
 357:Generated_Source\PSoC6\pdl\middleware\ble/cy_ble_gap.h ****     /** Defines the LE link supervision timeout interval */
 358:Generated_Source\PSoC6\pdl\middleware\ble/cy_ble_gap.h ****     uint16_t gapcConnectionTimeOut;
 359:Generated_Source\PSoC6\pdl\middleware\ble/cy_ble_gap.h **** }cy_stc_ble_gapc_scan_params_t;
 360:Generated_Source\PSoC6\pdl\middleware\ble/cy_ble_gap.h **** 
ARM GAS  C:\Users\gjl\AppData\Local\Temp\ccRZOvUj.s 			page 25


 361:Generated_Source\PSoC6\pdl\middleware\ble/cy_ble_gap.h **** /** Store BLE Application Data parameter into flash */
 362:Generated_Source\PSoC6\pdl\middleware\ble/cy_ble_gap.h **** typedef struct
 363:Generated_Source\PSoC6\pdl\middleware\ble/cy_ble_gap.h **** {
 364:Generated_Source\PSoC6\pdl\middleware\ble/cy_ble_gap.h ****     /** Source buffer */
 365:Generated_Source\PSoC6\pdl\middleware\ble/cy_ble_gap.h ****     const uint8_t *srcBuff;
 366:Generated_Source\PSoC6\pdl\middleware\ble/cy_ble_gap.h **** 
 367:Generated_Source\PSoC6\pdl\middleware\ble/cy_ble_gap.h ****     /** Destination buffer */
 368:Generated_Source\PSoC6\pdl\middleware\ble/cy_ble_gap.h ****     const uint8_t *destAddr;
 369:Generated_Source\PSoC6\pdl\middleware\ble/cy_ble_gap.h **** 
 370:Generated_Source\PSoC6\pdl\middleware\ble/cy_ble_gap.h ****     /** Source buffer length */
 371:Generated_Source\PSoC6\pdl\middleware\ble/cy_ble_gap.h ****     uint32_t      buffLen;
 372:Generated_Source\PSoC6\pdl\middleware\ble/cy_ble_gap.h ****     
 373:Generated_Source\PSoC6\pdl\middleware\ble/cy_ble_gap.h ****     /** Write mode: blocking (default) / non-blocking */
 374:Generated_Source\PSoC6\pdl\middleware\ble/cy_ble_gap.h ****     uint32_t      writeMode;
 375:Generated_Source\PSoC6\pdl\middleware\ble/cy_ble_gap.h ****     
 376:Generated_Source\PSoC6\pdl\middleware\ble/cy_ble_gap.h **** } cy_stc_ble_app_flash_param_t;
 377:Generated_Source\PSoC6\pdl\middleware\ble/cy_ble_gap.h **** 
 378:Generated_Source\PSoC6\pdl\middleware\ble/cy_ble_gap.h **** /** @} group_ble_common_api_gap_definitions */
 379:Generated_Source\PSoC6\pdl\middleware\ble/cy_ble_gap.h ****  
 380:Generated_Source\PSoC6\pdl\middleware\ble/cy_ble_gap.h **** /***************************************
 381:Generated_Source\PSoC6\pdl\middleware\ble/cy_ble_gap.h **** * API Constants
 382:Generated_Source\PSoC6\pdl\middleware\ble/cy_ble_gap.h **** ***************************************/
 383:Generated_Source\PSoC6\pdl\middleware\ble/cy_ble_gap.h **** #define CY_BLE_AD_TYPE_MORE16UUID                  (0x02u)
 384:Generated_Source\PSoC6\pdl\middleware\ble/cy_ble_gap.h **** #define CY_BLE_AD_TYPE_CMPL16UUID                  (0x03u)
 385:Generated_Source\PSoC6\pdl\middleware\ble/cy_ble_gap.h **** #define CY_BLE_AD_TYPE_MORE32UUID                  (0x04u)
 386:Generated_Source\PSoC6\pdl\middleware\ble/cy_ble_gap.h **** #define CY_BLE_AD_TYPE_CMPL32UUID                  (0x05u)
 387:Generated_Source\PSoC6\pdl\middleware\ble/cy_ble_gap.h **** #define CY_BLE_AD_TYPE_MORE128UUID                 (0x06u)
 388:Generated_Source\PSoC6\pdl\middleware\ble/cy_ble_gap.h **** #define CY_BLE_AD_TYPE_CMPL128UUID                 (0x07u)
 389:Generated_Source\PSoC6\pdl\middleware\ble/cy_ble_gap.h **** 
 390:Generated_Source\PSoC6\pdl\middleware\ble/cy_ble_gap.h **** #define CY_BLE_AD_TYPE_SERVICE_DATA                (0x16u)
 391:Generated_Source\PSoC6\pdl\middleware\ble/cy_ble_gap.h **** #define CY_BLE_AD_SERVICE_DATA_OVERHEAD            (0x03u)
 392:Generated_Source\PSoC6\pdl\middleware\ble/cy_ble_gap.h **** 
 393:Generated_Source\PSoC6\pdl\middleware\ble/cy_ble_gap.h **** #define CY_BLE_DISCOVERY_IDLE                      (0x00u)
 394:Generated_Source\PSoC6\pdl\middleware\ble/cy_ble_gap.h **** #define CY_BLE_DISCOVERY_SERVICE                   (0x01u)
 395:Generated_Source\PSoC6\pdl\middleware\ble/cy_ble_gap.h **** #define CY_BLE_DISCOVERY_CHAR                      (0x02u)
 396:Generated_Source\PSoC6\pdl\middleware\ble/cy_ble_gap.h **** #define CY_BLE_DISCOVERY_DESCR                     (0x03u)
 397:Generated_Source\PSoC6\pdl\middleware\ble/cy_ble_gap.h **** #define CY_BLE_DISCOVERY_DONE                      (0x04u)
 398:Generated_Source\PSoC6\pdl\middleware\ble/cy_ble_gap.h **** 
 399:Generated_Source\PSoC6\pdl\middleware\ble/cy_ble_gap.h **** /* Cy_BLE_NextCharDscrDiscovery parameters */
 400:Generated_Source\PSoC6\pdl\middleware\ble/cy_ble_gap.h **** #define CY_BLE_DISCOVERY_INIT                      (0x00u)
 401:Generated_Source\PSoC6\pdl\middleware\ble/cy_ble_gap.h **** #define CY_BLE_DISCOVERY_CONTINUE                  (0x01u)
 402:Generated_Source\PSoC6\pdl\middleware\ble/cy_ble_gap.h **** 
 403:Generated_Source\PSoC6\pdl\middleware\ble/cy_ble_gap.h **** #define CY_BLE_SFLASH_DIE_X_MASK                   (0x3Fu)
 404:Generated_Source\PSoC6\pdl\middleware\ble/cy_ble_gap.h **** #define CY_BLE_SFLASH_DIE_X_BITS                   (6u)
 405:Generated_Source\PSoC6\pdl\middleware\ble/cy_ble_gap.h **** #define CY_BLE_SFLASH_DIE_Y_MASK                   (0x3Fu)
 406:Generated_Source\PSoC6\pdl\middleware\ble/cy_ble_gap.h **** #define CY_BLE_SFLASH_DIE_Y_BITS                   (6u)
 407:Generated_Source\PSoC6\pdl\middleware\ble/cy_ble_gap.h **** #define CY_BLE_SFLASH_DIE_XY_BITS                  (CY_BLE_SFLASH_DIE_X_BITS + CY_BLE_SFLASH_DIE_Y_
 408:Generated_Source\PSoC6\pdl\middleware\ble/cy_ble_gap.h **** #define CY_BLE_SFLASH_DIE_WAFER_MASK               (0x1Fu)
 409:Generated_Source\PSoC6\pdl\middleware\ble/cy_ble_gap.h **** #define CY_BLE_SFLASH_DIE_WAFER_BITS               (5u)
 410:Generated_Source\PSoC6\pdl\middleware\ble/cy_ble_gap.h **** #define CY_BLE_SFLASH_DIE_XYWAFER_BITS             (CY_BLE_SFLASH_DIE_XY_BITS + CY_BLE_SFLASH_DIE_W
 411:Generated_Source\PSoC6\pdl\middleware\ble/cy_ble_gap.h **** #define CY_BLE_SFLASH_DIE_LOT_MASK                 (0x7Fu)
 412:Generated_Source\PSoC6\pdl\middleware\ble/cy_ble_gap.h **** #define CY_BLE_SFLASH_DIE_LOT_BITS                 (7u)
 413:Generated_Source\PSoC6\pdl\middleware\ble/cy_ble_gap.h **** 
 414:Generated_Source\PSoC6\pdl\middleware\ble/cy_ble_gap.h **** /* Device address stored by user in ROW4 of the SFLASH */
 415:Generated_Source\PSoC6\pdl\middleware\ble/cy_ble_gap.h **** #define CY_BLE_SFLASH_DEVICE_ADDRESS_PTR           ((cy_stc_ble_gap_bd_addr_t*)(SFLASH->BLE_DEVICE_
 416:Generated_Source\PSoC6\pdl\middleware\ble/cy_ble_gap.h **** #define CY_BLE_AD_STRUCTURE_MAX_LENGTH             (31u)
 417:Generated_Source\PSoC6\pdl\middleware\ble/cy_ble_gap.h **** 
ARM GAS  C:\Users\gjl\AppData\Local\Temp\ccRZOvUj.s 			page 26


 418:Generated_Source\PSoC6\pdl\middleware\ble/cy_ble_gap.h **** /* AD types for complete, shortened local name and device address */
 419:Generated_Source\PSoC6\pdl\middleware\ble/cy_ble_gap.h **** #define CY_BLE_SHORT_LOCAL_NAME                    (0x08u)  /**< Shortened Local Name */
 420:Generated_Source\PSoC6\pdl\middleware\ble/cy_ble_gap.h **** #define CY_BLE_COMPLETE_LOCAL_NAME                 (0x09u)  /**< Complete Local Name */
 421:Generated_Source\PSoC6\pdl\middleware\ble/cy_ble_gap.h **** #define CY_BLE_ADV_DEVICE_ADDR                     (0x1Bu)  /**< LE Bluetooth Device Address */
 422:Generated_Source\PSoC6\pdl\middleware\ble/cy_ble_gap.h **** 
 423:Generated_Source\PSoC6\pdl\middleware\ble/cy_ble_gap.h **** #define CY_BLE_ADVERTISING_FAST                    (0x00u)
 424:Generated_Source\PSoC6\pdl\middleware\ble/cy_ble_gap.h **** #define CY_BLE_ADVERTISING_SLOW                    (0x01u)
 425:Generated_Source\PSoC6\pdl\middleware\ble/cy_ble_gap.h **** #define CY_BLE_ADVERTISING_CUSTOM                  (0x02u)
 426:Generated_Source\PSoC6\pdl\middleware\ble/cy_ble_gap.h **** 
 427:Generated_Source\PSoC6\pdl\middleware\ble/cy_ble_gap.h **** #define CY_BLE_SCANNING_FAST                       (0x00u)
 428:Generated_Source\PSoC6\pdl\middleware\ble/cy_ble_gap.h **** #define CY_BLE_SCANNING_SLOW                       (0x01u)
 429:Generated_Source\PSoC6\pdl\middleware\ble/cy_ble_gap.h **** #define CY_BLE_SCANNING_CUSTOM                     (0x02u)
 430:Generated_Source\PSoC6\pdl\middleware\ble/cy_ble_gap.h **** 
 431:Generated_Source\PSoC6\pdl\middleware\ble/cy_ble_gap.h **** #define CY_BLE_PENDING_STACK_FLASH_WRITE_BIT       (0x01u)
 432:Generated_Source\PSoC6\pdl\middleware\ble/cy_ble_gap.h **** #define CY_BLE_PENDING_CCCD_FLASH_WRITE_BIT        (0x02u)
 433:Generated_Source\PSoC6\pdl\middleware\ble/cy_ble_gap.h **** #define CY_BLE_PENDING_CCCD_FLASH_CLEAR_BIT        (0x04u)
 434:Generated_Source\PSoC6\pdl\middleware\ble/cy_ble_gap.h **** #define CY_BLE_PENDING_CCCD_FLASH_CLEAR_ALL_BIT    (0x08u)
 435:Generated_Source\PSoC6\pdl\middleware\ble/cy_ble_gap.h **** #define CY_BLE_PENDING_CCCD_FLASH_CLEAR_MASK \
 436:Generated_Source\PSoC6\pdl\middleware\ble/cy_ble_gap.h ****     (CY_BLE_PENDING_CCCD_FLASH_CLEAR_BIT | CY_BLE_PENDING_CCCD_FLASH_CLEAR_ALL_BIT)
 437:Generated_Source\PSoC6\pdl\middleware\ble/cy_ble_gap.h ****   
 438:Generated_Source\PSoC6\pdl\middleware\ble/cy_ble_gap.h **** /**
 439:Generated_Source\PSoC6\pdl\middleware\ble/cy_ble_gap.h ****  * \addtogroup group_ble_common_api_macros
 440:Generated_Source\PSoC6\pdl\middleware\ble/cy_ble_gap.h ****  * @{
 441:Generated_Source\PSoC6\pdl\middleware\ble/cy_ble_gap.h ****  */
 442:Generated_Source\PSoC6\pdl\middleware\ble/cy_ble_gap.h ****  
 443:Generated_Source\PSoC6\pdl\middleware\ble/cy_ble_gap.h **** /* GAP Advertisement Flags */
 444:Generated_Source\PSoC6\pdl\middleware\ble/cy_ble_gap.h **** #define CY_BLE_GAP_ADV_FLAG_LE_LIMITED_DISC_MODE        (0x01u)     /**< LE Limited Discoverable Mo
 445:Generated_Source\PSoC6\pdl\middleware\ble/cy_ble_gap.h **** #define CY_BLE_GAP_ADV_FLAG_LE_GENERAL_DISC_MODE        (0x02u)     /**< LE General Discoverable Mo
 446:Generated_Source\PSoC6\pdl\middleware\ble/cy_ble_gap.h **** #define CY_BLE_GAP_ADV_FLAG_BR_EDR_NOT_SUPPORTED        (0x04u)     /**< BR/EDR not supported. */
 447:Generated_Source\PSoC6\pdl\middleware\ble/cy_ble_gap.h **** #define CY_BLE_GAP_ADV_FLAG_LE_BR_EDR_CONTROLLER        (0x08u)     /**< Simultaneous LE and BR/EDR
 448:Generated_Source\PSoC6\pdl\middleware\ble/cy_ble_gap.h **** #define CY_BLE_GAP_ADV_FLAG_LE_BR_EDR_HOST              (0x10u)     /**< Simultaneous LE and BR/EDR
 449:Generated_Source\PSoC6\pdl\middleware\ble/cy_ble_gap.h **** #define CY_BLE_GAP_ADV_FLAGS_PACKET_LENGTH              (0x02u)     /**< Length of flags in an adve
 450:Generated_Source\PSoC6\pdl\middleware\ble/cy_ble_gap.h **** 
 451:Generated_Source\PSoC6\pdl\middleware\ble/cy_ble_gap.h **** /* GAP Advertising interval min and max */
 452:Generated_Source\PSoC6\pdl\middleware\ble/cy_ble_gap.h **** #define CY_BLE_GAP_ADV_ADVERT_INTERVAL_MIN              (0x0020u)   /**< Minimum Advertising interv
 453:Generated_Source\PSoC6\pdl\middleware\ble/cy_ble_gap.h ****                                                                      *   i.e. 20 ms. */
 454:Generated_Source\PSoC6\pdl\middleware\ble/cy_ble_gap.h **** #define CY_BLE_GAP_ADV_ADVERT_INTERVAL_NONCON_MIN       (0x00A0u)   /**< Minimum Advertising interv
 455:Generated_Source\PSoC6\pdl\middleware\ble/cy_ble_gap.h ****                                                                      *   for non connectable mode, 
 456:Generated_Source\PSoC6\pdl\middleware\ble/cy_ble_gap.h **** #define CY_BLE_GAP_ADV_ADVERT_INTERVAL_MAX              (0x4000u)   /**< Maximum Advertising interv
 457:Generated_Source\PSoC6\pdl\middleware\ble/cy_ble_gap.h ****                                                                      *   i.e. 10.24 s. */
 458:Generated_Source\PSoC6\pdl\middleware\ble/cy_ble_gap.h **** #define CY_BLE_GAP_ADV_ADVERT_INTERVAL_PACKET_LENGTH    (0x03u)     /**< Length of the Advertising 
 459:Generated_Source\PSoC6\pdl\middleware\ble/cy_ble_gap.h ****                                                                      *   an advertisement packet */
 460:Generated_Source\PSoC6\pdl\middleware\ble/cy_ble_gap.h **** #define CY_BLE_GAPC_CONNECTING_TIMEOUT                  (30u)       /**< Seconds */
 461:Generated_Source\PSoC6\pdl\middleware\ble/cy_ble_gap.h **** #define CY_BLE_INVALID_CONN_HANDLE_VALUE                (0xFFu)     /**< Invalid Connection Handle 
 462:Generated_Source\PSoC6\pdl\middleware\ble/cy_ble_gap.h **** 
 463:Generated_Source\PSoC6\pdl\middleware\ble/cy_ble_gap.h **** /* Write mode for Cy_BLE_StoreAppData */
 464:Generated_Source\PSoC6\pdl\middleware\ble/cy_ble_gap.h **** #define CY_BLE_STORE_DATA_MODE_BLOCKING                 (0x0u)      /**< Blocking write */
 465:Generated_Source\PSoC6\pdl\middleware\ble/cy_ble_gap.h **** #define CY_BLE_STORE_DATA_MODE_NON_BLOCKING             (0x1u)      /**< Non-blocking write */
 466:Generated_Source\PSoC6\pdl\middleware\ble/cy_ble_gap.h **** 
 467:Generated_Source\PSoC6\pdl\middleware\ble/cy_ble_gap.h **** /** @} group_ble_common_api_macros */
 468:Generated_Source\PSoC6\pdl\middleware\ble/cy_ble_gap.h **** 
 469:Generated_Source\PSoC6\pdl\middleware\ble/cy_ble_gap.h **** /***************************************
 470:Generated_Source\PSoC6\pdl\middleware\ble/cy_ble_gap.h **** * Private Function Prototypes
 471:Generated_Source\PSoC6\pdl\middleware\ble/cy_ble_gap.h **** ***************************************/
 472:Generated_Source\PSoC6\pdl\middleware\ble/cy_ble_gap.h **** void Cy_BLE_ServiceInit(void);
 473:Generated_Source\PSoC6\pdl\middleware\ble/cy_ble_gap.h **** uint32_t Cy_BLE_GetDiscoveryIdx(cy_stc_ble_conn_handle_t connHandle);
 474:Generated_Source\PSoC6\pdl\middleware\ble/cy_ble_gap.h **** 
ARM GAS  C:\Users\gjl\AppData\Local\Temp\ccRZOvUj.s 			page 27


 475:Generated_Source\PSoC6\pdl\middleware\ble/cy_ble_gap.h **** /***************************************
 476:Generated_Source\PSoC6\pdl\middleware\ble/cy_ble_gap.h **** * Function Prototypes
 477:Generated_Source\PSoC6\pdl\middleware\ble/cy_ble_gap.h **** ***************************************/
 478:Generated_Source\PSoC6\pdl\middleware\ble/cy_ble_gap.h **** /**
 479:Generated_Source\PSoC6\pdl\middleware\ble/cy_ble_gap.h ****  * \addtogroup group_ble_common_api_functions
 480:Generated_Source\PSoC6\pdl\middleware\ble/cy_ble_gap.h ****  * @{
 481:Generated_Source\PSoC6\pdl\middleware\ble/cy_ble_gap.h ****  */
 482:Generated_Source\PSoC6\pdl\middleware\ble/cy_ble_gap.h **** 
 483:Generated_Source\PSoC6\pdl\middleware\ble/cy_ble_gap.h **** cy_en_ble_api_result_t Cy_BLE_StoreAppData(const cy_stc_ble_app_flash_param_t *param);
 484:Generated_Source\PSoC6\pdl\middleware\ble/cy_ble_gap.h **** 
 485:Generated_Source\PSoC6\pdl\middleware\ble/cy_ble_gap.h **** #if ((CY_BLE_GAP_ROLE_PERIPHERAL || CY_BLE_GAP_ROLE_CENTRAL) && (CY_BLE_BONDING_REQUIREMENT == CY_B
 486:Generated_Source\PSoC6\pdl\middleware\ble/cy_ble_gap.h **** cy_en_ble_api_result_t Cy_BLE_StoreBondingData(void);
 487:Generated_Source\PSoC6\pdl\middleware\ble/cy_ble_gap.h **** cy_en_ble_api_result_t Cy_BLE_GAP_RemoveBondedDevice(cy_stc_ble_gap_bd_addr_t* bdAddr);
 488:Generated_Source\PSoC6\pdl\middleware\ble/cy_ble_gap.h **** #endif /* (CY_BLE_GAP_ROLE_PERIPHERAL || CY_BLE_GAP_ROLE_CENTRAL) && (CY_BLE_BONDING_REQUIREMENT ==
 489:Generated_Source\PSoC6\pdl\middleware\ble/cy_ble_gap.h **** 
 490:Generated_Source\PSoC6\pdl\middleware\ble/cy_ble_gap.h **** #if (CY_BLE_GAP_ROLE_PERIPHERAL || CY_BLE_GAP_ROLE_CENTRAL)
 491:Generated_Source\PSoC6\pdl\middleware\ble/cy_ble_gap.h **** bool Cy_BLE_IsPeerConnected(uint8_t *bdAddr);
 492:Generated_Source\PSoC6\pdl\middleware\ble/cy_ble_gap.h **** bool Cy_BLE_IsDevicePaired(cy_stc_ble_conn_handle_t *connHandle);
 493:Generated_Source\PSoC6\pdl\middleware\ble/cy_ble_gap.h **** uint8_t Cy_BLE_GetDeviceRole(cy_stc_ble_conn_handle_t *connHandle);
 494:Generated_Source\PSoC6\pdl\middleware\ble/cy_ble_gap.h **** 
 495:Generated_Source\PSoC6\pdl\middleware\ble/cy_ble_gap.h **** cy_en_ble_api_result_t Cy_BLE_GetRssiPeer(uint8_t  bdHandle);
 496:Generated_Source\PSoC6\pdl\middleware\ble/cy_ble_gap.h **** #endif /* (CY_BLE_GAP_ROLE_PERIPHERAL || CY_BLE_GAP_ROLE_CENTRAL) */
 497:Generated_Source\PSoC6\pdl\middleware\ble/cy_ble_gap.h **** /** @} group_ble_common_api_functions */
 498:Generated_Source\PSoC6\pdl\middleware\ble/cy_ble_gap.h **** 
 499:Generated_Source\PSoC6\pdl\middleware\ble/cy_ble_gap.h **** /**
 500:Generated_Source\PSoC6\pdl\middleware\ble/cy_ble_gap.h ****  * \addtogroup group_ble_common_api_gap_peripheral_functions
 501:Generated_Source\PSoC6\pdl\middleware\ble/cy_ble_gap.h ****  * @{
 502:Generated_Source\PSoC6\pdl\middleware\ble/cy_ble_gap.h ****  */
 503:Generated_Source\PSoC6\pdl\middleware\ble/cy_ble_gap.h ****  
 504:Generated_Source\PSoC6\pdl\middleware\ble/cy_ble_gap.h **** #if (CY_BLE_GAP_ROLE_PERIPHERAL || CY_BLE_GAP_ROLE_BROADCASTER)
 505:Generated_Source\PSoC6\pdl\middleware\ble/cy_ble_gap.h **** cy_en_ble_api_result_t Cy_BLE_GAPP_StartAdvertisement(uint8_t advertisingIntervalType, uint8_t adve
 506:Generated_Source\PSoC6\pdl\middleware\ble/cy_ble_gap.h **** cy_en_ble_api_result_t Cy_BLE_GAPP_StopAdvertisement(void);
 507:Generated_Source\PSoC6\pdl\middleware\ble/cy_ble_gap.h **** 
 508:Generated_Source\PSoC6\pdl\middleware\ble/cy_ble_gap.h **** /** \cond IGNORE */
 509:Generated_Source\PSoC6\pdl\middleware\ble/cy_ble_gap.h **** void Cy_BLE_ChangeAdDeviceAddress(const cy_stc_ble_gap_bd_addr_t* bdAddr, uint8_t dest);
 510:Generated_Source\PSoC6\pdl\middleware\ble/cy_ble_gap.h **** /** \endcond */
 511:Generated_Source\PSoC6\pdl\middleware\ble/cy_ble_gap.h **** 
 512:Generated_Source\PSoC6\pdl\middleware\ble/cy_ble_gap.h **** #endif /* CY_BLE_GAP_ROLE_PERIPHERAL */
 513:Generated_Source\PSoC6\pdl\middleware\ble/cy_ble_gap.h **** 
 514:Generated_Source\PSoC6\pdl\middleware\ble/cy_ble_gap.h **** /** @} group_ble_common_api_gap_peripheral_functions */
 515:Generated_Source\PSoC6\pdl\middleware\ble/cy_ble_gap.h **** 
 516:Generated_Source\PSoC6\pdl\middleware\ble/cy_ble_gap.h **** /**
 517:Generated_Source\PSoC6\pdl\middleware\ble/cy_ble_gap.h ****  * \addtogroup group_ble_common_api_gap_central_functions
 518:Generated_Source\PSoC6\pdl\middleware\ble/cy_ble_gap.h ****  * @{
 519:Generated_Source\PSoC6\pdl\middleware\ble/cy_ble_gap.h ****  */
 520:Generated_Source\PSoC6\pdl\middleware\ble/cy_ble_gap.h ****  
 521:Generated_Source\PSoC6\pdl\middleware\ble/cy_ble_gap.h **** #if (CY_BLE_GAP_ROLE_CENTRAL || CY_BLE_GAP_ROLE_OBSERVER)
 522:Generated_Source\PSoC6\pdl\middleware\ble/cy_ble_gap.h **** cy_en_ble_api_result_t Cy_BLE_GAPC_StartScan(uint8_t scanningIntervalType, uint8_t scanParamIndex);
 523:Generated_Source\PSoC6\pdl\middleware\ble/cy_ble_gap.h **** cy_en_ble_api_result_t Cy_BLE_GAPC_StopScan(void);
 524:Generated_Source\PSoC6\pdl\middleware\ble/cy_ble_gap.h **** #endif /* CY_BLE_GAP_ROLE_CENTRAL || CY_BLE_GAP_ROLE_OBSERVER */
 525:Generated_Source\PSoC6\pdl\middleware\ble/cy_ble_gap.h **** 
 526:Generated_Source\PSoC6\pdl\middleware\ble/cy_ble_gap.h **** #if (CY_BLE_GAP_ROLE_CENTRAL)
 527:Generated_Source\PSoC6\pdl\middleware\ble/cy_ble_gap.h **** cy_en_ble_api_result_t Cy_BLE_GAPC_ConnectDevice(const cy_stc_ble_gap_bd_addr_t * address, uint8_t 
 528:Generated_Source\PSoC6\pdl\middleware\ble/cy_ble_gap.h **** cy_en_ble_api_result_t Cy_BLE_GAPC_CancelDeviceConnection(void);
 529:Generated_Source\PSoC6\pdl\middleware\ble/cy_ble_gap.h **** #endif /* CY_BLE_GAP_ROLE_CENTRAL */
 530:Generated_Source\PSoC6\pdl\middleware\ble/cy_ble_gap.h **** 
 531:Generated_Source\PSoC6\pdl\middleware\ble/cy_ble_gap.h **** /** @} group_ble_common_api_gap_central_functions */
ARM GAS  C:\Users\gjl\AppData\Local\Temp\ccRZOvUj.s 			page 28


 532:Generated_Source\PSoC6\pdl\middleware\ble/cy_ble_gap.h **** 
 533:Generated_Source\PSoC6\pdl\middleware\ble/cy_ble_gap.h **** /***************************************
 534:Generated_Source\PSoC6\pdl\middleware\ble/cy_ble_gap.h **** * External data references
 535:Generated_Source\PSoC6\pdl\middleware\ble/cy_ble_gap.h **** ***************************************/
 536:Generated_Source\PSoC6\pdl\middleware\ble/cy_ble_gap.h **** extern volatile uint8_t cy_ble_eventHandlerFlag;
 537:Generated_Source\PSoC6\pdl\middleware\ble/cy_ble_gap.h **** extern cy_stc_ble_gap_bd_addr_t *cy_ble_sflashDeviceAddress;
 538:Generated_Source\PSoC6\pdl\middleware\ble/cy_ble_gap.h **** extern cy_stc_ble_gap_bd_addr_t cy_ble_deviceAddress;
 539:Generated_Source\PSoC6\pdl\middleware\ble/cy_ble_gap.h **** extern cy_en_ble_state_t cy_ble_state;
 540:Generated_Source\PSoC6\pdl\middleware\ble/cy_ble_gap.h **** 
 541:Generated_Source\PSoC6\pdl\middleware\ble/cy_ble_gap.h **** #if ((CY_BLE_GAP_ROLE_PERIPHERAL || CY_BLE_GAP_ROLE_CENTRAL))
 542:Generated_Source\PSoC6\pdl\middleware\ble/cy_ble_gap.h **** extern cy_stc_ble_gap_auth_info_t cy_ble_authInfo[CY_BLE_AUTH_INFO_COUNT];
 543:Generated_Source\PSoC6\pdl\middleware\ble/cy_ble_gap.h **** #endif /* ((CY_BLE_GAP_ROLE_PERIPHERAL || CY_BLE_GAP_ROLE_CENTRAL)) */
 544:Generated_Source\PSoC6\pdl\middleware\ble/cy_ble_gap.h **** 
 545:Generated_Source\PSoC6\pdl\middleware\ble/cy_ble_gap.h **** #if (CY_BLE_GAP_ROLE_PERIPHERAL || CY_BLE_GAP_ROLE_BROADCASTER)
 546:Generated_Source\PSoC6\pdl\middleware\ble/cy_ble_gap.h **** extern cy_en_ble_adv_state_t cy_ble_advState;
 547:Generated_Source\PSoC6\pdl\middleware\ble/cy_ble_gap.h **** extern uint8_t cy_ble_advIndex;
 548:Generated_Source\PSoC6\pdl\middleware\ble/cy_ble_gap.h **** #endif  /* (CY_BLE_GAP_ROLE_PERIPHERAL || CY_BLE_GAP_ROLE_BROADCASTER) */
 549:Generated_Source\PSoC6\pdl\middleware\ble/cy_ble_gap.h **** 
 550:Generated_Source\PSoC6\pdl\middleware\ble/cy_ble_gap.h **** #if (CY_BLE_GAP_ROLE_CENTRAL || CY_BLE_GAP_ROLE_OBSERVER)
 551:Generated_Source\PSoC6\pdl\middleware\ble/cy_ble_gap.h **** extern cy_en_ble_scan_state_t cy_ble_scanState;
 552:Generated_Source\PSoC6\pdl\middleware\ble/cy_ble_gap.h **** extern uint8_t cy_ble_scanIndex;
 553:Generated_Source\PSoC6\pdl\middleware\ble/cy_ble_gap.h **** #endif /* (CY_BLE_GAP_ROLE_CENTRAL || CY_BLE_GAP_ROLE_OBSERVER) */
 554:Generated_Source\PSoC6\pdl\middleware\ble/cy_ble_gap.h **** 
 555:Generated_Source\PSoC6\pdl\middleware\ble/cy_ble_gap.h **** #if ((CY_BLE_GAP_ROLE_PERIPHERAL || CY_BLE_GAP_ROLE_CENTRAL))
 556:Generated_Source\PSoC6\pdl\middleware\ble/cy_ble_gap.h **** extern cy_stc_ble_conn_handle_t cy_ble_connHandle[CY_BLE_CONN_COUNT];
 557:Generated_Source\PSoC6\pdl\middleware\ble/cy_ble_gap.h **** extern cy_en_ble_conn_state_t cy_ble_connState[CY_BLE_CONN_COUNT];
 558:Generated_Source\PSoC6\pdl\middleware\ble/cy_ble_gap.h **** 
 559:Generated_Source\PSoC6\pdl\middleware\ble/cy_ble_gap.h **** extern volatile uint8_t cy_ble_devConnRole[CY_BLE_CONN_COUNT];                                     
 560:Generated_Source\PSoC6\pdl\middleware\ble/cy_ble_gap.h **** extern volatile bool cy_ble_pairStatus[CY_BLE_CONN_COUNT];
 561:Generated_Source\PSoC6\pdl\middleware\ble/cy_ble_gap.h **** 
 562:Generated_Source\PSoC6\pdl\middleware\ble/cy_ble_gap.h **** #endif /* ((CY_BLE_GAP_ROLE_PERIPHERAL || CY_BLE_GAP_ROLE_CENTRAL)) */
 563:Generated_Source\PSoC6\pdl\middleware\ble/cy_ble_gap.h **** 
 564:Generated_Source\PSoC6\pdl\middleware\ble/cy_ble_gap.h **** #if (CY_BLE_GAP_ROLE_CENTRAL || CY_BLE_GAP_ROLE_OBSERVER)
 565:Generated_Source\PSoC6\pdl\middleware\ble/cy_ble_gap.h **** extern cy_stc_ble_gapc_disc_info_t cy_ble_discoveryInfo[CY_BLE_GAPC_CONF_COUNT];
 566:Generated_Source\PSoC6\pdl\middleware\ble/cy_ble_gap.h **** #endif /* CY_BLE_GAP_ROLE_CENTRAL || CY_BLE_GAP_ROLE_OBSERVER */
 567:Generated_Source\PSoC6\pdl\middleware\ble/cy_ble_gap.h **** 
 568:Generated_Source\PSoC6\pdl\middleware\ble/cy_ble_gap.h **** #if (CY_BLE_GAP_ROLE_CENTRAL)
 569:Generated_Source\PSoC6\pdl\middleware\ble/cy_ble_gap.h **** extern cy_stc_ble_gapc_conn_info_t cy_ble_connectionParameters;
 570:Generated_Source\PSoC6\pdl\middleware\ble/cy_ble_gap.h **** extern cy_stc_ble_timer_info_t cy_ble_connectingTimeout;
 571:Generated_Source\PSoC6\pdl\middleware\ble/cy_ble_gap.h **** #endif /* CY_BLE_GAP_ROLE_CENTRAL */
 572:Generated_Source\PSoC6\pdl\middleware\ble/cy_ble_gap.h **** 
 573:Generated_Source\PSoC6\pdl\middleware\ble/cy_ble_gap.h **** #if (CY_BLE_GAP_ROLE_PERIPHERAL || CY_BLE_GAP_ROLE_BROADCASTER)
 574:Generated_Source\PSoC6\pdl\middleware\ble/cy_ble_gap.h **** extern cy_stc_ble_gapp_disc_mode_info_t cy_ble_discoveryModeInfo[CY_BLE_GAPP_CONF_COUNT];
 575:Generated_Source\PSoC6\pdl\middleware\ble/cy_ble_gap.h **** extern cy_stc_ble_gapp_disc_param_t cy_ble_discoveryParam[CY_BLE_GAPP_CONF_COUNT];
 576:Generated_Source\PSoC6\pdl\middleware\ble/cy_ble_gap.h **** extern cy_stc_ble_gapp_disc_data_t cy_ble_discoveryData[CY_BLE_GAPP_CONF_COUNT];
 577:Generated_Source\PSoC6\pdl\middleware\ble/cy_ble_gap.h **** extern cy_stc_ble_gapp_scan_rsp_data_t cy_ble_scanRspData[CY_BLE_GAPP_CONF_COUNT];
 578:Generated_Source\PSoC6\pdl\middleware\ble/cy_ble_gap.h **** #endif /* CY_BLE_GAP_ROLE_PERIPHERAL || CY_BLE_GAP_ROLE_BROADCASTER */
 579:Generated_Source\PSoC6\pdl\middleware\ble/cy_ble_gap.h **** 
 580:Generated_Source\PSoC6\pdl\middleware\ble/cy_ble_gap.h **** #if ((CY_BLE_GAP_ROLE_PERIPHERAL || CY_BLE_GAP_ROLE_CENTRAL) && (CY_BLE_BONDING_REQUIREMENT == CY_B
 581:Generated_Source\PSoC6\pdl\middleware\ble/cy_ble_gap.h **** 
 582:Generated_Source\PSoC6\pdl\middleware\ble/cy_ble_gap.h **** /**
 583:Generated_Source\PSoC6\pdl\middleware\ble/cy_ble_gap.h ****  * \addtogroup group_ble_common_api_global_variables
 584:Generated_Source\PSoC6\pdl\middleware\ble/cy_ble_gap.h ****  * @{
 585:Generated_Source\PSoC6\pdl\middleware\ble/cy_ble_gap.h ****  */  
 586:Generated_Source\PSoC6\pdl\middleware\ble/cy_ble_gap.h **** /** This is a two-bit variable that contains status of pending write to flash operation.
 587:Generated_Source\PSoC6\pdl\middleware\ble/cy_ble_gap.h ****  * This variable is initialized to zero in Cy_BLE_Init().
 588:Generated_Source\PSoC6\pdl\middleware\ble/cy_ble_gap.h ****  * CY_BLE_PENDING_CCCD_FLASH_WRITE_BIT flag is set after write to CCCD event when a
ARM GAS  C:\Users\gjl\AppData\Local\Temp\ccRZOvUj.s 			page 29


 589:Generated_Source\PSoC6\pdl\middleware\ble/cy_ble_gap.h ****  * peer device supports bonding (cy_ble_peerBonding[eventParam->connHandle.attId] == CY_BLE_GAP_BON
 590:Generated_Source\PSoC6\pdl\middleware\ble/cy_ble_gap.h ****  * CY_BLE_PENDING_STACK_FLASH_WRITE_BIT flag is set after CY_BLE_EVT_PENDING_FLASH_WRITE event.
 591:Generated_Source\PSoC6\pdl\middleware\ble/cy_ble_gap.h ****  * Cy_BLE_StoreBondingData() should be called to store pending bonding data.
 592:Generated_Source\PSoC6\pdl\middleware\ble/cy_ble_gap.h ****  * This function automatically clears pending bits after write operation is complete.
 593:Generated_Source\PSoC6\pdl\middleware\ble/cy_ble_gap.h ****  */
 594:Generated_Source\PSoC6\pdl\middleware\ble/cy_ble_gap.h **** extern uint8_t cy_ble_pendingFlashWrite;
 595:Generated_Source\PSoC6\pdl\middleware\ble/cy_ble_gap.h **** /** @} group_ble_common_api_global_variables */
 596:Generated_Source\PSoC6\pdl\middleware\ble/cy_ble_gap.h ****     
 597:Generated_Source\PSoC6\pdl\middleware\ble/cy_ble_gap.h **** /** Bonding type setting of peer device, CY_BLE_GAP_BONDING_NONE or CY_BLE_GAP_BONDING.
 598:Generated_Source\PSoC6\pdl\middleware\ble/cy_ble_gap.h ****  * It is initialized after pairing with peer device and used for cy_ble_pendingFlashWrite variable
 599:Generated_Source\PSoC6\pdl\middleware\ble/cy_ble_gap.h ****  * setting.
 600:Generated_Source\PSoC6\pdl\middleware\ble/cy_ble_gap.h ****  */
 601:Generated_Source\PSoC6\pdl\middleware\ble/cy_ble_gap.h **** extern uint8_t cy_ble_peerBonding[CY_BLE_CONN_COUNT];
 602:Generated_Source\PSoC6\pdl\middleware\ble/cy_ble_gap.h **** 
 603:Generated_Source\PSoC6\pdl\middleware\ble/cy_ble_gap.h **** #endif  /* (CY_BLE_BONDING_REQUIREMENT == CY_BLE_BONDING_YES) */
 604:Generated_Source\PSoC6\pdl\middleware\ble/cy_ble_gap.h **** 
 605:Generated_Source\PSoC6\pdl\middleware\ble/cy_ble_gap.h **** 
 606:Generated_Source\PSoC6\pdl\middleware\ble/cy_ble_gap.h **** /***************************************
 607:Generated_Source\PSoC6\pdl\middleware\ble/cy_ble_gap.h **** * Exported Functions (MACROS)
 608:Generated_Source\PSoC6\pdl\middleware\ble/cy_ble_gap.h **** ***************************************/
 609:Generated_Source\PSoC6\pdl\middleware\ble/cy_ble_gap.h **** #if ((CY_BLE_GAP_ROLE_PERIPHERAL || CY_BLE_GAP_ROLE_CENTRAL))
 610:Generated_Source\PSoC6\pdl\middleware\ble/cy_ble_gap.h ****    
 611:Generated_Source\PSoC6\pdl\middleware\ble/cy_ble_gap.h **** /******************************************************************************
 612:Generated_Source\PSoC6\pdl\middleware\ble/cy_ble_gap.h **** * Function Name: Cy_BLE_GetConnHandleIdx
 613:Generated_Source\PSoC6\pdl\middleware\ble/cy_ble_gap.h **** ***************************************************************************//**
 614:Generated_Source\PSoC6\pdl\middleware\ble/cy_ble_gap.h **** *
 615:Generated_Source\PSoC6\pdl\middleware\ble/cy_ble_gap.h **** *  This function searches the array of connection handles (cy_ble_connHandle[])
 616:Generated_Source\PSoC6\pdl\middleware\ble/cy_ble_gap.h **** *  for the location (index) of a handle that corresponds to the input parameter
 617:Generated_Source\PSoC6\pdl\middleware\ble/cy_ble_gap.h **** *  connHandle. bdHandle.
 618:Generated_Source\PSoC6\pdl\middleware\ble/cy_ble_gap.h **** *
 619:Generated_Source\PSoC6\pdl\middleware\ble/cy_ble_gap.h **** *  This function is designated for internal usage. 
 620:Generated_Source\PSoC6\pdl\middleware\ble/cy_ble_gap.h **** *    
 621:Generated_Source\PSoC6\pdl\middleware\ble/cy_ble_gap.h **** *  \param connHandle: The connection handle.
 622:Generated_Source\PSoC6\pdl\middleware\ble/cy_ble_gap.h **** *
 623:Generated_Source\PSoC6\pdl\middleware\ble/cy_ble_gap.h **** *  \return
 624:Generated_Source\PSoC6\pdl\middleware\ble/cy_ble_gap.h **** *  retValue: the index of connHandle  
 625:Generated_Source\PSoC6\pdl\middleware\ble/cy_ble_gap.h **** *    
 626:Generated_Source\PSoC6\pdl\middleware\ble/cy_ble_gap.h **** ******************************************************************************/
 627:Generated_Source\PSoC6\pdl\middleware\ble/cy_ble_gap.h **** __STATIC_INLINE uint8_t Cy_BLE_GetConnHandleIdx(cy_stc_ble_conn_handle_t connHandle)
 628:Generated_Source\PSoC6\pdl\middleware\ble/cy_ble_gap.h **** {
 629:Generated_Source\PSoC6\pdl\middleware\ble/cy_ble_gap.h ****     uint8_t idx;
 630:Generated_Source\PSoC6\pdl\middleware\ble/cy_ble_gap.h ****     uint8_t retValue = CY_BLE_CONN_COUNT;
 631:Generated_Source\PSoC6\pdl\middleware\ble/cy_ble_gap.h **** 
 632:Generated_Source\PSoC6\pdl\middleware\ble/cy_ble_gap.h ****     for(idx = 0u; idx < CY_BLE_CONN_COUNT; idx++)
 633:Generated_Source\PSoC6\pdl\middleware\ble/cy_ble_gap.h ****     {
 634:Generated_Source\PSoC6\pdl\middleware\ble/cy_ble_gap.h ****         if(cy_ble_connHandle[idx].bdHandle == connHandle.bdHandle)
 635:Generated_Source\PSoC6\pdl\middleware\ble/cy_ble_gap.h ****         {
 636:Generated_Source\PSoC6\pdl\middleware\ble/cy_ble_gap.h ****             retValue = idx;
 637:Generated_Source\PSoC6\pdl\middleware\ble/cy_ble_gap.h ****             break;
 638:Generated_Source\PSoC6\pdl\middleware\ble/cy_ble_gap.h ****         }
 639:Generated_Source\PSoC6\pdl\middleware\ble/cy_ble_gap.h ****     }
 640:Generated_Source\PSoC6\pdl\middleware\ble/cy_ble_gap.h ****     if(retValue == CY_BLE_CONN_COUNT)
 641:Generated_Source\PSoC6\pdl\middleware\ble/cy_ble_gap.h ****     {
 642:Generated_Source\PSoC6\pdl\middleware\ble/cy_ble_gap.h ****         /* HALT in debug mode */
 643:Generated_Source\PSoC6\pdl\middleware\ble/cy_ble_gap.h ****         CY_ASSERT(retValue != CY_BLE_CONN_COUNT);
 644:Generated_Source\PSoC6\pdl\middleware\ble/cy_ble_gap.h ****         retValue = 0u;
 645:Generated_Source\PSoC6\pdl\middleware\ble/cy_ble_gap.h ****     }
ARM GAS  C:\Users\gjl\AppData\Local\Temp\ccRZOvUj.s 			page 30


 646:Generated_Source\PSoC6\pdl\middleware\ble/cy_ble_gap.h **** 
 647:Generated_Source\PSoC6\pdl\middleware\ble/cy_ble_gap.h ****     return(retValue);
 648:Generated_Source\PSoC6\pdl\middleware\ble/cy_ble_gap.h **** }
 649:Generated_Source\PSoC6\pdl\middleware\ble/cy_ble_gap.h **** #endif  /* ((CY_BLE_GAP_ROLE_PERIPHERAL || CY_BLE_GAP_ROLE_CENTRAL)) */
 650:Generated_Source\PSoC6\pdl\middleware\ble/cy_ble_gap.h **** 
 651:Generated_Source\PSoC6\pdl\middleware\ble/cy_ble_gap.h **** /**
 652:Generated_Source\PSoC6\pdl\middleware\ble/cy_ble_gap.h ****  * \addtogroup group_ble_common_api_functions
 653:Generated_Source\PSoC6\pdl\middleware\ble/cy_ble_gap.h ****  * @{
 654:Generated_Source\PSoC6\pdl\middleware\ble/cy_ble_gap.h **** */
 655:Generated_Source\PSoC6\pdl\middleware\ble/cy_ble_gap.h **** /******************************************************************************
 656:Generated_Source\PSoC6\pdl\middleware\ble/cy_ble_gap.h **** * Function Name: Cy_BLE_GetState
 657:Generated_Source\PSoC6\pdl\middleware\ble/cy_ble_gap.h **** ***************************************************************************//**
 658:Generated_Source\PSoC6\pdl\middleware\ble/cy_ble_gap.h **** *
 659:Generated_Source\PSoC6\pdl\middleware\ble/cy_ble_gap.h **** *  This function is used to determine the current state of the BLE Middleware
 660:Generated_Source\PSoC6\pdl\middleware\ble/cy_ble_gap.h **** *  state machine :
 661:Generated_Source\PSoC6\pdl\middleware\ble/cy_ble_gap.h **** *
 662:Generated_Source\PSoC6\pdl\middleware\ble/cy_ble_gap.h **** *  \image html ble_middleware_state_machine.png
 663:Generated_Source\PSoC6\pdl\middleware\ble/cy_ble_gap.h **** *
 664:Generated_Source\PSoC6\pdl\middleware\ble/cy_ble_gap.h **** *  The BLE Middleware is in the state #CY_BLE_STATE_INITIALIZING after the 
 665:Generated_Source\PSoC6\pdl\middleware\ble/cy_ble_gap.h **** *  Cy_BLE_Enable() is called and until the #CY_BLE_EVT_STACK_ON event is not 
 666:Generated_Source\PSoC6\pdl\middleware\ble/cy_ble_gap.h **** *  received. After successful initialization the state is changed to 
 667:Generated_Source\PSoC6\pdl\middleware\ble/cy_ble_gap.h **** *  #CY_BLE_STATE_ON.
 668:Generated_Source\PSoC6\pdl\middleware\ble/cy_ble_gap.h **** *
 669:Generated_Source\PSoC6\pdl\middleware\ble/cy_ble_gap.h **** *  The BLE Middleware is in the state #CY_BLE_STATE_STOPPED 
 670:Generated_Source\PSoC6\pdl\middleware\ble/cy_ble_gap.h **** *  when the #CY_BLE_EVT_STACK_SHUTDOWN_COMPLETE event is received (after the 
 671:Generated_Source\PSoC6\pdl\middleware\ble/cy_ble_gap.h **** *  Cy_BLE_Disable() is called).
 672:Generated_Source\PSoC6\pdl\middleware\ble/cy_ble_gap.h **** *  
 673:Generated_Source\PSoC6\pdl\middleware\ble/cy_ble_gap.h **** *  For GAP Central role when the Cy_BLE_GAPC_ConnectDevice() is called, the state
 674:Generated_Source\PSoC6\pdl\middleware\ble/cy_ble_gap.h **** *  is changed to #CY_BLE_STATE_CONNECTING. After successful connection indicated
 675:Generated_Source\PSoC6\pdl\middleware\ble/cy_ble_gap.h **** *  by #CY_BLE_EVT_GAP_DEVICE_CONNECTED or #CY_BLE_EVT_GAP_ENHANCE_CONN_COMPLETE
 676:Generated_Source\PSoC6\pdl\middleware\ble/cy_ble_gap.h **** *  event or the timeout indicated by #CY_BLE_EVT_TIMEOUT event, the state is
 677:Generated_Source\PSoC6\pdl\middleware\ble/cy_ble_gap.h **** *  changed to #CY_BLE_STATE_ON.
 678:Generated_Source\PSoC6\pdl\middleware\ble/cy_ble_gap.h **** *
 679:Generated_Source\PSoC6\pdl\middleware\ble/cy_ble_gap.h **** * \return
 680:Generated_Source\PSoC6\pdl\middleware\ble/cy_ble_gap.h **** * \ref cy_en_ble_state_t : The current BLE Middleware state. The following are 
 681:Generated_Source\PSoC6\pdl\middleware\ble/cy_ble_gap.h **** *                         possible states:
 682:Generated_Source\PSoC6\pdl\middleware\ble/cy_ble_gap.h **** *
 683:Generated_Source\PSoC6\pdl\middleware\ble/cy_ble_gap.h **** *   State                      | Description
 684:Generated_Source\PSoC6\pdl\middleware\ble/cy_ble_gap.h **** *   -------------------------- | -----------
 685:Generated_Source\PSoC6\pdl\middleware\ble/cy_ble_gap.h **** *   CY_BLE_STATE_STOPPED       | BLE is turned off.
 686:Generated_Source\PSoC6\pdl\middleware\ble/cy_ble_gap.h **** *   CY_BLE_STATE_INITIALIZING  | BLE is initializing (waiting for #CY_BLE_EVT_STACK_ON event).
 687:Generated_Source\PSoC6\pdl\middleware\ble/cy_ble_gap.h **** *   CY_BLE_STATE_ON            | BLE is turned on.
 688:Generated_Source\PSoC6\pdl\middleware\ble/cy_ble_gap.h **** *   CY_BLE_STATE_CONNECTING    | BLE is connecting.
 689:Generated_Source\PSoC6\pdl\middleware\ble/cy_ble_gap.h **** 
 690:Generated_Source\PSoC6\pdl\middleware\ble/cy_ble_gap.h **** ******************************************************************************/
 691:Generated_Source\PSoC6\pdl\middleware\ble/cy_ble_gap.h **** #define Cy_BLE_GetState()    (cy_ble_state)
 692:Generated_Source\PSoC6\pdl\middleware\ble/cy_ble_gap.h **** 
 693:Generated_Source\PSoC6\pdl\middleware\ble/cy_ble_gap.h **** /** \cond IGNORE */
 694:Generated_Source\PSoC6\pdl\middleware\ble/cy_ble_gap.h **** /******************************************************************************
 695:Generated_Source\PSoC6\pdl\middleware\ble/cy_ble_gap.h **** * Function Name: Cy_BLE_SetState
 696:Generated_Source\PSoC6\pdl\middleware\ble/cy_ble_gap.h **** ***************************************************************************//**
 697:Generated_Source\PSoC6\pdl\middleware\ble/cy_ble_gap.h **** *
 698:Generated_Source\PSoC6\pdl\middleware\ble/cy_ble_gap.h **** *  Used to set the BLE Middleware state machine's state.
 699:Generated_Source\PSoC6\pdl\middleware\ble/cy_ble_gap.h **** *
 700:Generated_Source\PSoC6\pdl\middleware\ble/cy_ble_gap.h **** *  \param state: The desired state to which the event handler's
 701:Generated_Source\PSoC6\pdl\middleware\ble/cy_ble_gap.h **** *   state machine should be set. The parameter state is a variable
 702:Generated_Source\PSoC6\pdl\middleware\ble/cy_ble_gap.h **** *   of type cy_en_ble_state_t.
ARM GAS  C:\Users\gjl\AppData\Local\Temp\ccRZOvUj.s 			page 31


 703:Generated_Source\PSoC6\pdl\middleware\ble/cy_ble_gap.h **** *
 704:Generated_Source\PSoC6\pdl\middleware\ble/cy_ble_gap.h **** * \return
 705:Generated_Source\PSoC6\pdl\middleware\ble/cy_ble_gap.h **** *  None
 706:Generated_Source\PSoC6\pdl\middleware\ble/cy_ble_gap.h **** *
 707:Generated_Source\PSoC6\pdl\middleware\ble/cy_ble_gap.h **** ******************************************************************************/
 708:Generated_Source\PSoC6\pdl\middleware\ble/cy_ble_gap.h **** #define Cy_BLE_SetState(state)    (cy_ble_state = (state))
 709:Generated_Source\PSoC6\pdl\middleware\ble/cy_ble_gap.h **** /** \endcond */
 710:Generated_Source\PSoC6\pdl\middleware\ble/cy_ble_gap.h **** 
 711:Generated_Source\PSoC6\pdl\middleware\ble/cy_ble_gap.h **** #if (CY_BLE_GAP_ROLE_PERIPHERAL || CY_BLE_GAP_ROLE_BROADCASTER)
 712:Generated_Source\PSoC6\pdl\middleware\ble/cy_ble_gap.h **** 
 713:Generated_Source\PSoC6\pdl\middleware\ble/cy_ble_gap.h **** 
 714:Generated_Source\PSoC6\pdl\middleware\ble/cy_ble_gap.h **** /******************************************************************************
 715:Generated_Source\PSoC6\pdl\middleware\ble/cy_ble_gap.h **** * Function Name: Cy_BLE_GetAdvertisementState
 716:Generated_Source\PSoC6\pdl\middleware\ble/cy_ble_gap.h **** ***************************************************************************//**
 717:Generated_Source\PSoC6\pdl\middleware\ble/cy_ble_gap.h **** *    
 718:Generated_Source\PSoC6\pdl\middleware\ble/cy_ble_gap.h **** *  This function returns the state of the link layer hardware advertisement
 719:Generated_Source\PSoC6\pdl\middleware\ble/cy_ble_gap.h **** *  engine.
 720:Generated_Source\PSoC6\pdl\middleware\ble/cy_ble_gap.h **** *
 721:Generated_Source\PSoC6\pdl\middleware\ble/cy_ble_gap.h **** *  \image html ble_advertisement_state_machine.png
 722:Generated_Source\PSoC6\pdl\middleware\ble/cy_ble_gap.h **** *
 723:Generated_Source\PSoC6\pdl\middleware\ble/cy_ble_gap.h **** *  When Cy_BLE_GAPP_StartAdvertisement() is called, the state is set to
 724:Generated_Source\PSoC6\pdl\middleware\ble/cy_ble_gap.h **** *  #CY_BLE_ADV_STATE_ADV_INITIATED. It automatically changes to
 725:Generated_Source\PSoC6\pdl\middleware\ble/cy_ble_gap.h **** *  #CY_BLE_ADV_STATE_ADVERTISING when #CY_BLE_EVT_GAPP_ADVERTISEMENT_START_STOP
 726:Generated_Source\PSoC6\pdl\middleware\ble/cy_ble_gap.h **** *  event is received. When Cy_BLE_GAPP_StopAdvertisement() is called, the
 727:Generated_Source\PSoC6\pdl\middleware\ble/cy_ble_gap.h **** *  state is set to #CY_BLE_ADV_STATE_STOP_INITIATED. It automatically changes
 728:Generated_Source\PSoC6\pdl\middleware\ble/cy_ble_gap.h **** *  to #CY_BLE_ADV_STATE_STOPPED when the #CY_BLE_EVT_GAPP_ADVERTISEMENT_START_STOP
 729:Generated_Source\PSoC6\pdl\middleware\ble/cy_ble_gap.h **** *  event is received.
 730:Generated_Source\PSoC6\pdl\middleware\ble/cy_ble_gap.h **** *
 731:Generated_Source\PSoC6\pdl\middleware\ble/cy_ble_gap.h **** * \return
 732:Generated_Source\PSoC6\pdl\middleware\ble/cy_ble_gap.h **** * \ref cy_en_ble_adv_state_t :The current advertising state. The following are 
 733:Generated_Source\PSoC6\pdl\middleware\ble/cy_ble_gap.h **** *                              possible states.
 734:Generated_Source\PSoC6\pdl\middleware\ble/cy_ble_gap.h **** *
 735:Generated_Source\PSoC6\pdl\middleware\ble/cy_ble_gap.h **** *               State                |         Description
 736:Generated_Source\PSoC6\pdl\middleware\ble/cy_ble_gap.h **** *   -------------------------------- | -----------------------------
 737:Generated_Source\PSoC6\pdl\middleware\ble/cy_ble_gap.h **** *   CY_BLE_ADV_STATE_STOPPED         | Advertising is stopped.
 738:Generated_Source\PSoC6\pdl\middleware\ble/cy_ble_gap.h **** *   CY_BLE_ADV_STATE_ADV_INITIATED   | Advertising is initiated.
 739:Generated_Source\PSoC6\pdl\middleware\ble/cy_ble_gap.h **** *   CY_BLE_ADV_STATE_ADVERTISING     | Advertising is initiated.
 740:Generated_Source\PSoC6\pdl\middleware\ble/cy_ble_gap.h **** *   CY_BLE_ADV_STATE_STOP_INITIATED  | Stop advertising is initiated.
 741:Generated_Source\PSoC6\pdl\middleware\ble/cy_ble_gap.h **** *
 742:Generated_Source\PSoC6\pdl\middleware\ble/cy_ble_gap.h **** ******************************************************************************/
 743:Generated_Source\PSoC6\pdl\middleware\ble/cy_ble_gap.h **** __STATIC_INLINE cy_en_ble_adv_state_t Cy_BLE_GetAdvertisementState(void)
 744:Generated_Source\PSoC6\pdl\middleware\ble/cy_ble_gap.h **** {
 745:Generated_Source\PSoC6\pdl\middleware\ble/cy_ble_gap.h ****     return(cy_ble_advState);
 746:Generated_Source\PSoC6\pdl\middleware\ble/cy_ble_gap.h **** }
 747:Generated_Source\PSoC6\pdl\middleware\ble/cy_ble_gap.h **** 
 748:Generated_Source\PSoC6\pdl\middleware\ble/cy_ble_gap.h **** /** \cond IGNORE */
 749:Generated_Source\PSoC6\pdl\middleware\ble/cy_ble_gap.h **** /******************************************************************************
 750:Generated_Source\PSoC6\pdl\middleware\ble/cy_ble_gap.h **** * Function Name: Cy_BLE_SetAdvertisementState
 751:Generated_Source\PSoC6\pdl\middleware\ble/cy_ble_gap.h **** ***************************************************************************//**
 752:Generated_Source\PSoC6\pdl\middleware\ble/cy_ble_gap.h **** *
 753:Generated_Source\PSoC6\pdl\middleware\ble/cy_ble_gap.h **** *  Used to set the state of the link layer hardware advertisement engine.
 754:Generated_Source\PSoC6\pdl\middleware\ble/cy_ble_gap.h **** *
 755:Generated_Source\PSoC6\pdl\middleware\ble/cy_ble_gap.h **** *  \param state: The desired state.
 756:Generated_Source\PSoC6\pdl\middleware\ble/cy_ble_gap.h **** *
 757:Generated_Source\PSoC6\pdl\middleware\ble/cy_ble_gap.h **** * \return
 758:Generated_Source\PSoC6\pdl\middleware\ble/cy_ble_gap.h **** *  None
 759:Generated_Source\PSoC6\pdl\middleware\ble/cy_ble_gap.h **** *
ARM GAS  C:\Users\gjl\AppData\Local\Temp\ccRZOvUj.s 			page 32


 760:Generated_Source\PSoC6\pdl\middleware\ble/cy_ble_gap.h **** ******************************************************************************/
 761:Generated_Source\PSoC6\pdl\middleware\ble/cy_ble_gap.h **** __STATIC_INLINE void Cy_BLE_SetAdvertisementState(cy_en_ble_adv_state_t state)
 762:Generated_Source\PSoC6\pdl\middleware\ble/cy_ble_gap.h **** {
 763:Generated_Source\PSoC6\pdl\middleware\ble/cy_ble_gap.h ****     cy_ble_advState = state;
 549              		.loc 2 763 0
 550 01c8 4E4A     		ldr	r2, .L109+20
 551 01ca 1370     		strb	r3, [r2]
 552              	.LVL51:
 553              	.LBE90:
 554              	.LBE89:
 426:Generated_Source\PSoC6\pdl\middleware\ble/cy_ble_event_handler.c **** 
 427:Generated_Source\PSoC6\pdl\middleware\ble/cy_ble_event_handler.c ****         #if (CY_BLE_GAP_ROLE_PERIPHERAL || CY_BLE_GAP_ROLE_BROADCASTER)
 428:Generated_Source\PSoC6\pdl\middleware\ble/cy_ble_event_handler.c ****             Cy_BLE_SetAdvertisementState(CY_BLE_ADV_STATE_STOPPED);
 429:Generated_Source\PSoC6\pdl\middleware\ble/cy_ble_event_handler.c ****         #endif  /* (CY_BLE_GAP_ROLE_PERIPHERAL || CY_BLE_GAP_ROLE_BROADCASTER) */
 430:Generated_Source\PSoC6\pdl\middleware\ble/cy_ble_event_handler.c **** 
 431:Generated_Source\PSoC6\pdl\middleware\ble/cy_ble_event_handler.c ****         #if (CY_BLE_GAP_ROLE_CENTRAL || CY_BLE_GAP_ROLE_OBSERVER)
 432:Generated_Source\PSoC6\pdl\middleware\ble/cy_ble_event_handler.c ****             Cy_BLE_SetScanState(CY_BLE_SCAN_STATE_STOPPED);
 433:Generated_Source\PSoC6\pdl\middleware\ble/cy_ble_event_handler.c ****         #endif /* (CY_BLE_GAP_ROLE_CENTRAL || CY_BLE_GAP_ROLE_OBSERVER) */
 434:Generated_Source\PSoC6\pdl\middleware\ble/cy_ble_event_handler.c ****             
 435:Generated_Source\PSoC6\pdl\middleware\ble/cy_ble_event_handler.c ****             /**
 436:Generated_Source\PSoC6\pdl\middleware\ble/cy_ble_event_handler.c ****              * Adding a delay of 10ms to ensure that the controller is completely 
 437:Generated_Source\PSoC6\pdl\middleware\ble/cy_ble_event_handler.c ****              * shut-down before generating the event to the application.
 438:Generated_Source\PSoC6\pdl\middleware\ble/cy_ble_event_handler.c ****              * Controller generates CY_BLE_EVT_STACK_SHUTDOWN_COMPLETE event immediately 
 439:Generated_Source\PSoC6\pdl\middleware\ble/cy_ble_event_handler.c ****              * after accepting the shut-down command (before resetting the controller), 
 440:Generated_Source\PSoC6\pdl\middleware\ble/cy_ble_event_handler.c ****              * once this behaviour is fixed, this delay will no longer be required 
 441:Generated_Source\PSoC6\pdl\middleware\ble/cy_ble_event_handler.c ****              */
 442:Generated_Source\PSoC6\pdl\middleware\ble/cy_ble_event_handler.c ****             #if(CY_BLE_STACK_MODE_HOST_IPC)
 443:Generated_Source\PSoC6\pdl\middleware\ble/cy_ble_event_handler.c ****                 Cy_SysLib_Delay(10u);
 555              		.loc 1 443 0
 556 01cc 0A20     		movs	r0, #10
 557              	.LVL52:
 558 01ce FFF7FEFF 		bl	Cy_SysLib_Delay
 559              	.LVL53:
 444:Generated_Source\PSoC6\pdl\middleware\ble/cy_ble_event_handler.c ****             #endif /* CY_BLE_STACK_MODE_HOST_IPC */   
 445:Generated_Source\PSoC6\pdl\middleware\ble/cy_ble_event_handler.c ****             
 446:Generated_Source\PSoC6\pdl\middleware\ble/cy_ble_event_handler.c ****             /* Unregister BLE callback for Deepsleep/Sleep */
 447:Generated_Source\PSoC6\pdl\middleware\ble/cy_ble_event_handler.c ****             Cy_BLE_UnregisterHostPMCallbacks();
 560              		.loc 1 447 0
 561 01d2 FFF7FEFF 		bl	Cy_BLE_UnregisterHostPMCallbacks
 562              	.LVL54:
 448:Generated_Source\PSoC6\pdl\middleware\ble/cy_ble_event_handler.c ****             break;
 563              		.loc 1 448 0
 564 01d6 4DE2     		b	.L35
 565              	.LVL55:
 566              	.L47:
 449:Generated_Source\PSoC6\pdl\middleware\ble/cy_ble_event_handler.c **** 
 450:Generated_Source\PSoC6\pdl\middleware\ble/cy_ble_event_handler.c ****         case CY_BLE_EVT_LE_SET_EVENT_MASK_COMPLETE:
 451:Generated_Source\PSoC6\pdl\middleware\ble/cy_ble_event_handler.c ****         #if (CY_BLE_MODE_PROFILE)
 452:Generated_Source\PSoC6\pdl\middleware\ble/cy_ble_event_handler.c ****             {
 453:Generated_Source\PSoC6\pdl\middleware\ble/cy_ble_event_handler.c ****                 if((cy_ble_cmdStatus & CY_BLE_STATUS_SET_TX_PWR_LVL) == 0u)
 567              		.loc 1 453 0
 568 01d8 4B4B     		ldr	r3, .L109+24
 569 01da 1B68     		ldr	r3, [r3]
 570 01dc 13F0010F 		tst	r3, #1
 571 01e0 40F04882 		bne	.L35
 572              	.LBB91:
 454:Generated_Source\PSoC6\pdl\middleware\ble/cy_ble_event_handler.c ****                 {
ARM GAS  C:\Users\gjl\AppData\Local\Temp\ccRZOvUj.s 			page 33


 455:Generated_Source\PSoC6\pdl\middleware\ble/cy_ble_event_handler.c ****                     cy_stc_ble_tx_pwr_lvl_info_t bleSsPowerLevel = { .pwrConfigParam.bdHandle = 0x0
 573              		.loc 1 455 0
 574 01e4 0023     		movs	r3, #0
 575 01e6 ADF81430 		strh	r3, [sp, #20]	@ movhi
 576 01ea 8DF81630 		strb	r3, [sp, #22]
 456:Generated_Source\PSoC6\pdl\middleware\ble/cy_ble_event_handler.c **** 
 457:Generated_Source\PSoC6\pdl\middleware\ble/cy_ble_event_handler.c ****                     /* Set the Tx Power Level for advertising and connection channels */
 458:Generated_Source\PSoC6\pdl\middleware\ble/cy_ble_event_handler.c ****                     bleSsPowerLevel.blePwrLevel = cy_ble_configPtr->params->txPowerLevelAdv;
 577              		.loc 1 458 0
 578 01ee 424E     		ldr	r6, .L109+8
 579 01f0 3368     		ldr	r3, [r6]
 580 01f2 9B6A     		ldr	r3, [r3, #40]
 581 01f4 93F90030 		ldrsb	r3, [r3]
 582 01f8 8DF81430 		strb	r3, [sp, #20]
 459:Generated_Source\PSoC6\pdl\middleware\ble/cy_ble_event_handler.c ****                     bleSsPowerLevel.pwrConfigParam.bleSsChId = CY_BLE_LL_ADV_CH_TYPE;
 460:Generated_Source\PSoC6\pdl\middleware\ble/cy_ble_event_handler.c ****                     (void)Cy_BLE_SetTxPowerLevel(&bleSsPowerLevel);
 583              		.loc 1 460 0
 584 01fc 05A8     		add	r0, sp, #20
 585              	.LVL56:
 586 01fe FFF7FEFF 		bl	Cy_BLE_SetTxPowerLevel
 587              	.LVL57:
 461:Generated_Source\PSoC6\pdl\middleware\ble/cy_ble_event_handler.c **** 
 462:Generated_Source\PSoC6\pdl\middleware\ble/cy_ble_event_handler.c ****                     bleSsPowerLevel.blePwrLevel = cy_ble_configPtr->params->txPowerLevelConn;
 588              		.loc 1 462 0
 589 0202 3368     		ldr	r3, [r6]
 590 0204 9B6A     		ldr	r3, [r3, #40]
 591 0206 93F90130 		ldrsb	r3, [r3, #1]
 592 020a 8DF81430 		strb	r3, [sp, #20]
 463:Generated_Source\PSoC6\pdl\middleware\ble/cy_ble_event_handler.c ****                     bleSsPowerLevel.pwrConfigParam.bleSsChId = CY_BLE_LL_CONN_CH_TYPE;
 593              		.loc 1 463 0
 594 020e 0123     		movs	r3, #1
 595 0210 8DF81530 		strb	r3, [sp, #21]
 464:Generated_Source\PSoC6\pdl\middleware\ble/cy_ble_event_handler.c ****                     bleSsPowerLevel.pwrConfigParam.bdHandle = 0xFFu; /* Set the tx power level valu
 596              		.loc 1 464 0
 597 0214 FF23     		movs	r3, #255
 598 0216 8DF81630 		strb	r3, [sp, #22]
 465:Generated_Source\PSoC6\pdl\middleware\ble/cy_ble_event_handler.c ****                     (void)Cy_BLE_SetTxPowerLevel(&bleSsPowerLevel);
 599              		.loc 1 465 0
 600 021a 05A8     		add	r0, sp, #20
 601 021c FFF7FEFF 		bl	Cy_BLE_SetTxPowerLevel
 602              	.LVL58:
 466:Generated_Source\PSoC6\pdl\middleware\ble/cy_ble_event_handler.c ****                     
 467:Generated_Source\PSoC6\pdl\middleware\ble/cy_ble_event_handler.c ****                     /* Set flag that executed Cy_BLE_SetTxPowerLevel during BLE start-up  */
 468:Generated_Source\PSoC6\pdl\middleware\ble/cy_ble_event_handler.c ****                     cy_ble_cmdStatus |= CY_BLE_STATUS_SET_TX_PWR_LVL;
 603              		.loc 1 468 0
 604 0220 394A     		ldr	r2, .L109+24
 605 0222 1368     		ldr	r3, [r2]
 606 0224 43F00103 		orr	r3, r3, #1
 607 0228 1360     		str	r3, [r2]
 608 022a 23E2     		b	.L35
 609              	.LVL59:
 610              	.L40:
 611              	.LBE91:
 469:Generated_Source\PSoC6\pdl\middleware\ble/cy_ble_event_handler.c ****                 }
 470:Generated_Source\PSoC6\pdl\middleware\ble/cy_ble_event_handler.c ****             }
 471:Generated_Source\PSoC6\pdl\middleware\ble/cy_ble_event_handler.c ****         #endif /* CY_BLE_MODE_PROFILE */
 472:Generated_Source\PSoC6\pdl\middleware\ble/cy_ble_event_handler.c ****             break;
ARM GAS  C:\Users\gjl\AppData\Local\Temp\ccRZOvUj.s 			page 34


 473:Generated_Source\PSoC6\pdl\middleware\ble/cy_ble_event_handler.c ****             
 474:Generated_Source\PSoC6\pdl\middleware\ble/cy_ble_event_handler.c ****         case CY_BLE_EVT_TIMEOUT:
 475:Generated_Source\PSoC6\pdl\middleware\ble/cy_ble_event_handler.c ****             Cy_BLE_TimeOutEventHandler((cy_stc_ble_timeout_param_t*)evParam);
 476:Generated_Source\PSoC6\pdl\middleware\ble/cy_ble_event_handler.c ****         #if (CY_BLE_GAP_ROLE_PERIPHERAL || CY_BLE_GAP_ROLE_CENTRAL)
 477:Generated_Source\PSoC6\pdl\middleware\ble/cy_ble_event_handler.c ****             (void)Cy_BLE_InvokeServiceEventHandler((uint32_t)event, (void*)evParam);
 612              		.loc 1 477 0
 613 022c FFF7FEFF 		bl	Cy_BLE_InvokeServiceEventHandler
 614              	.LVL60:
 478:Generated_Source\PSoC6\pdl\middleware\ble/cy_ble_event_handler.c ****         #endif /*(CY_BLE_GAP_ROLE_PERIPHERAL || CY_BLE_GAP_ROLE_CENTRAL)*/
 479:Generated_Source\PSoC6\pdl\middleware\ble/cy_ble_event_handler.c ****             break;
 615              		.loc 1 479 0
 616 0230 20E2     		b	.L35
 617              	.LVL61:
 618              	.L43:
 480:Generated_Source\PSoC6\pdl\middleware\ble/cy_ble_event_handler.c **** 
 481:Generated_Source\PSoC6\pdl\middleware\ble/cy_ble_event_handler.c ****         case CY_BLE_EVT_STACK_BUSY_STATUS:
 482:Generated_Source\PSoC6\pdl\middleware\ble/cy_ble_event_handler.c ****         #if (CY_BLE_GAP_ROLE_PERIPHERAL || CY_BLE_GAP_ROLE_CENTRAL)
 483:Generated_Source\PSoC6\pdl\middleware\ble/cy_ble_event_handler.c ****             cy_ble_busyStatus[Cy_BLE_GetConnHandleByBdHandle(((cy_stc_ble_l2cap_state_info_t*)evPar
 619              		.loc 1 483 0
 620 0232 4978     		ldrb	r1, [r1, #1]	@ zero_extendqisi2
 621              	.LVL62:
 622              	.LBB92:
 623              	.LBB93:
 764:Generated_Source\PSoC6\pdl\middleware\ble/cy_ble_gap.h **** }
 765:Generated_Source\PSoC6\pdl\middleware\ble/cy_ble_gap.h **** /** \endcond */
 766:Generated_Source\PSoC6\pdl\middleware\ble/cy_ble_gap.h **** 
 767:Generated_Source\PSoC6\pdl\middleware\ble/cy_ble_gap.h **** #endif /* (CY_BLE_GAP_ROLE_PERIPHERAL || CY_BLE_GAP_ROLE_BROADCASTER) */
 768:Generated_Source\PSoC6\pdl\middleware\ble/cy_ble_gap.h **** 
 769:Generated_Source\PSoC6\pdl\middleware\ble/cy_ble_gap.h **** #if (CY_BLE_GAP_ROLE_CENTRAL || CY_BLE_GAP_ROLE_OBSERVER)
 770:Generated_Source\PSoC6\pdl\middleware\ble/cy_ble_gap.h **** 
 771:Generated_Source\PSoC6\pdl\middleware\ble/cy_ble_gap.h **** /******************************************************************************
 772:Generated_Source\PSoC6\pdl\middleware\ble/cy_ble_gap.h **** * Function Name: Cy_BLE_GetScanState
 773:Generated_Source\PSoC6\pdl\middleware\ble/cy_ble_gap.h **** ***************************************************************************//**
 774:Generated_Source\PSoC6\pdl\middleware\ble/cy_ble_gap.h **** *    
 775:Generated_Source\PSoC6\pdl\middleware\ble/cy_ble_gap.h **** *  This returns the state of the link layer hardware scan engine.
 776:Generated_Source\PSoC6\pdl\middleware\ble/cy_ble_gap.h **** *
 777:Generated_Source\PSoC6\pdl\middleware\ble/cy_ble_gap.h **** *  \image html ble_scanning_state_machine.png
 778:Generated_Source\PSoC6\pdl\middleware\ble/cy_ble_gap.h **** *   
 779:Generated_Source\PSoC6\pdl\middleware\ble/cy_ble_gap.h **** *  When Cy_BLE_GAPC_StartScan() is called the state is set to
 780:Generated_Source\PSoC6\pdl\middleware\ble/cy_ble_gap.h **** *  #CY_BLE_SCAN_STATE_SCAN_INITIATED. It automatically changes to
 781:Generated_Source\PSoC6\pdl\middleware\ble/cy_ble_gap.h **** *  #CY_BLE_SCAN_STATE_SCANNING when the #CY_BLE_EVT_GAPC_SCAN_START_STOP event is
 782:Generated_Source\PSoC6\pdl\middleware\ble/cy_ble_gap.h **** *  received. 
 783:Generated_Source\PSoC6\pdl\middleware\ble/cy_ble_gap.h **** *  When Cy_BLE_GAPC_StopScan() is called, the state is set to
 784:Generated_Source\PSoC6\pdl\middleware\ble/cy_ble_gap.h **** *  #CY_BLE_SCAN_STATE_STOP_INITIATED. It automatically changes to
 785:Generated_Source\PSoC6\pdl\middleware\ble/cy_ble_gap.h **** *  #CY_BLE_SCAN_STATE_STOPPED when the #CY_BLE_EVT_GAPC_SCAN_START_STOP event is
 786:Generated_Source\PSoC6\pdl\middleware\ble/cy_ble_gap.h **** *  received.
 787:Generated_Source\PSoC6\pdl\middleware\ble/cy_ble_gap.h **** *
 788:Generated_Source\PSoC6\pdl\middleware\ble/cy_ble_gap.h **** *  \return
 789:Generated_Source\PSoC6\pdl\middleware\ble/cy_ble_gap.h **** *  \ref cy_en_ble_scan_state_t : The current scan state. The following are 
 790:Generated_Source\PSoC6\pdl\middleware\ble/cy_ble_gap.h **** *                                possible states.
 791:Generated_Source\PSoC6\pdl\middleware\ble/cy_ble_gap.h **** *
 792:Generated_Source\PSoC6\pdl\middleware\ble/cy_ble_gap.h **** *               State                |         Description
 793:Generated_Source\PSoC6\pdl\middleware\ble/cy_ble_gap.h **** *   -------------------------------- | -----------------------------
 794:Generated_Source\PSoC6\pdl\middleware\ble/cy_ble_gap.h **** *   CY_BLE_SCAN_STATE_STOPPED        | Scanning is stopped.
 795:Generated_Source\PSoC6\pdl\middleware\ble/cy_ble_gap.h **** *   CY_BLE_SCAN_STATE_SCAN_INITIATED | Scanning is initiated.
 796:Generated_Source\PSoC6\pdl\middleware\ble/cy_ble_gap.h **** *   CY_BLE_SCAN_STATE_SCANNING       | Scanning process.
 797:Generated_Source\PSoC6\pdl\middleware\ble/cy_ble_gap.h **** *   CY_BLE_SCAN_STATE_STOP_INITIATED | Stop scanning is initiated.
ARM GAS  C:\Users\gjl\AppData\Local\Temp\ccRZOvUj.s 			page 35


 798:Generated_Source\PSoC6\pdl\middleware\ble/cy_ble_gap.h **** *
 799:Generated_Source\PSoC6\pdl\middleware\ble/cy_ble_gap.h **** ******************************************************************************/
 800:Generated_Source\PSoC6\pdl\middleware\ble/cy_ble_gap.h **** __STATIC_INLINE cy_en_ble_scan_state_t Cy_BLE_GetScanState(void)
 801:Generated_Source\PSoC6\pdl\middleware\ble/cy_ble_gap.h **** {
 802:Generated_Source\PSoC6\pdl\middleware\ble/cy_ble_gap.h ****     return(cy_ble_scanState);
 803:Generated_Source\PSoC6\pdl\middleware\ble/cy_ble_gap.h **** }
 804:Generated_Source\PSoC6\pdl\middleware\ble/cy_ble_gap.h **** 
 805:Generated_Source\PSoC6\pdl\middleware\ble/cy_ble_gap.h **** /** \cond IGNORE */
 806:Generated_Source\PSoC6\pdl\middleware\ble/cy_ble_gap.h **** /******************************************************************************
 807:Generated_Source\PSoC6\pdl\middleware\ble/cy_ble_gap.h **** * Function Name: Cy_BLE_SetScanState
 808:Generated_Source\PSoC6\pdl\middleware\ble/cy_ble_gap.h **** ***************************************************************************//**
 809:Generated_Source\PSoC6\pdl\middleware\ble/cy_ble_gap.h **** *
 810:Generated_Source\PSoC6\pdl\middleware\ble/cy_ble_gap.h **** *  Used to set the state of the link layer hardware scan engine.
 811:Generated_Source\PSoC6\pdl\middleware\ble/cy_ble_gap.h **** *
 812:Generated_Source\PSoC6\pdl\middleware\ble/cy_ble_gap.h **** *  \param state: The desired state.
 813:Generated_Source\PSoC6\pdl\middleware\ble/cy_ble_gap.h **** *
 814:Generated_Source\PSoC6\pdl\middleware\ble/cy_ble_gap.h **** *  \return
 815:Generated_Source\PSoC6\pdl\middleware\ble/cy_ble_gap.h **** *  None
 816:Generated_Source\PSoC6\pdl\middleware\ble/cy_ble_gap.h **** *
 817:Generated_Source\PSoC6\pdl\middleware\ble/cy_ble_gap.h **** ******************************************************************************/
 818:Generated_Source\PSoC6\pdl\middleware\ble/cy_ble_gap.h **** __STATIC_INLINE void Cy_BLE_SetScanState(cy_en_ble_scan_state_t state)
 819:Generated_Source\PSoC6\pdl\middleware\ble/cy_ble_gap.h **** {
 820:Generated_Source\PSoC6\pdl\middleware\ble/cy_ble_gap.h ****     cy_ble_scanState = state;
 821:Generated_Source\PSoC6\pdl\middleware\ble/cy_ble_gap.h **** }
 822:Generated_Source\PSoC6\pdl\middleware\ble/cy_ble_gap.h **** /** \endcond */
 823:Generated_Source\PSoC6\pdl\middleware\ble/cy_ble_gap.h **** 
 824:Generated_Source\PSoC6\pdl\middleware\ble/cy_ble_gap.h **** #endif  /* (CY_BLE_GAP_ROLE_CENTRAL || CY_BLE_GAP_ROLE_OBSERVER) */
 825:Generated_Source\PSoC6\pdl\middleware\ble/cy_ble_gap.h **** 
 826:Generated_Source\PSoC6\pdl\middleware\ble/cy_ble_gap.h ****  
 827:Generated_Source\PSoC6\pdl\middleware\ble/cy_ble_gap.h **** #if ((CY_BLE_GAP_ROLE_PERIPHERAL || CY_BLE_GAP_ROLE_CENTRAL))
 828:Generated_Source\PSoC6\pdl\middleware\ble/cy_ble_gap.h **** 
 829:Generated_Source\PSoC6\pdl\middleware\ble/cy_ble_gap.h **** /******************************************************************************
 830:Generated_Source\PSoC6\pdl\middleware\ble/cy_ble_gap.h **** * Function Name: Cy_BLE_GetConnectionState
 831:Generated_Source\PSoC6\pdl\middleware\ble/cy_ble_gap.h **** ***************************************************************************//**
 832:Generated_Source\PSoC6\pdl\middleware\ble/cy_ble_gap.h **** *  This function returns the state of the BLE link for the specified connection
 833:Generated_Source\PSoC6\pdl\middleware\ble/cy_ble_gap.h **** *  handle.
 834:Generated_Source\PSoC6\pdl\middleware\ble/cy_ble_gap.h **** *
 835:Generated_Source\PSoC6\pdl\middleware\ble/cy_ble_gap.h **** *  The state is set to #CY_BLE_CONN_STATE_CONNECTED when #CY_BLE_EVT_GATT_CONNECT_IND
 836:Generated_Source\PSoC6\pdl\middleware\ble/cy_ble_gap.h **** *  event is received with the corresponding connection handle.
 837:Generated_Source\PSoC6\pdl\middleware\ble/cy_ble_gap.h **** *  The state is set to #CY_BLE_CONN_STATE_DISCONNECTED when the
 838:Generated_Source\PSoC6\pdl\middleware\ble/cy_ble_gap.h **** *  #CY_BLE_EVT_GATT_DISCONNECT_IND event is received.
 839:Generated_Source\PSoC6\pdl\middleware\ble/cy_ble_gap.h **** *
 840:Generated_Source\PSoC6\pdl\middleware\ble/cy_ble_gap.h **** *  For GATT Client role when Cy_BLE_GATTC_StartDiscovery() is called, the state
 841:Generated_Source\PSoC6\pdl\middleware\ble/cy_ble_gap.h **** *  indicates the current flow of the discovery procedure by
 842:Generated_Source\PSoC6\pdl\middleware\ble/cy_ble_gap.h **** *  #CY_BLE_CONN_STATE_CLIENT_SRVC_DISCOVERING,
 843:Generated_Source\PSoC6\pdl\middleware\ble/cy_ble_gap.h **** *  #CY_BLE_CONN_STATE_CLIENT_INCL_DISCOVERING,
 844:Generated_Source\PSoC6\pdl\middleware\ble/cy_ble_gap.h **** *  #CY_BLE_CONN_STATE_CLIENT_CHAR_DISCOVERING,
 845:Generated_Source\PSoC6\pdl\middleware\ble/cy_ble_gap.h **** *  #CY_BLE_CONN_STATE_CLIENT_DESCR_DISCOVERING and changes to
 846:Generated_Source\PSoC6\pdl\middleware\ble/cy_ble_gap.h **** *  #CY_BLE_CONN_STATE_CLIENT_DISCOVERED when the procedure successfully completes.
 847:Generated_Source\PSoC6\pdl\middleware\ble/cy_ble_gap.h **** *
 848:Generated_Source\PSoC6\pdl\middleware\ble/cy_ble_gap.h **** *  The state changes from #CY_BLE_CONN_STATE_CLIENT_DISCOVERED to
 849:Generated_Source\PSoC6\pdl\middleware\ble/cy_ble_gap.h **** *  #CY_BLE_CONN_STATE_CLIENT_DISCONNECTED_DISCOVERED when
 850:Generated_Source\PSoC6\pdl\middleware\ble/cy_ble_gap.h **** *  the #CY_BLE_EVT_GATT_DISCONNECT_IND event is received.
 851:Generated_Source\PSoC6\pdl\middleware\ble/cy_ble_gap.h **** *  The state comes backs to #CY_BLE_CONN_STATE_CLIENT_DISCOVERED when
 852:Generated_Source\PSoC6\pdl\middleware\ble/cy_ble_gap.h **** *  #CY_BLE_EVT_GATT_CONNECT_IND event is received and resolvable device
 853:Generated_Source\PSoC6\pdl\middleware\ble/cy_ble_gap.h **** *  address is not changed.
 854:Generated_Source\PSoC6\pdl\middleware\ble/cy_ble_gap.h **** *
ARM GAS  C:\Users\gjl\AppData\Local\Temp\ccRZOvUj.s 			page 36


 855:Generated_Source\PSoC6\pdl\middleware\ble/cy_ble_gap.h **** *  \param connHandle: The connection handle.
 856:Generated_Source\PSoC6\pdl\middleware\ble/cy_ble_gap.h **** *
 857:Generated_Source\PSoC6\pdl\middleware\ble/cy_ble_gap.h **** * \return
 858:Generated_Source\PSoC6\pdl\middleware\ble/cy_ble_gap.h **** * \ref cy_en_ble_conn_state_t : The current client state. The following are 
 859:Generated_Source\PSoC6\pdl\middleware\ble/cy_ble_gap.h **** *                               possible states.
 860:Generated_Source\PSoC6\pdl\middleware\ble/cy_ble_gap.h **** *
 861:Generated_Source\PSoC6\pdl\middleware\ble/cy_ble_gap.h **** *               State                                |         Description
 862:Generated_Source\PSoC6\pdl\middleware\ble/cy_ble_gap.h **** *   ------------------------------------------------ | -----------------------------
 863:Generated_Source\PSoC6\pdl\middleware\ble/cy_ble_gap.h **** *   CY_BLE_CONN_STATE_DISCONNECTED                   | Essentially idle state
 864:Generated_Source\PSoC6\pdl\middleware\ble/cy_ble_gap.h **** *   CY_BLE_CONN_STATE_CLIENT_DISCONNECTED_DISCOVERED | Server is disconnected but discovered.
 865:Generated_Source\PSoC6\pdl\middleware\ble/cy_ble_gap.h **** *   CY_BLE_CONN_STATE_CONNECTED                      | Peer device is connected for this and follow
 866:Generated_Source\PSoC6\pdl\middleware\ble/cy_ble_gap.h **** *   CY_BLE_CONN_STATE_CLIENT_SRVC_DISCOVERING        | Server services are being discovered.
 867:Generated_Source\PSoC6\pdl\middleware\ble/cy_ble_gap.h **** *   CY_BLE_CONN_STATE_CLIENT_INCL_DISCOVERING        | Server included services are being discovere
 868:Generated_Source\PSoC6\pdl\middleware\ble/cy_ble_gap.h **** *   CY_BLE_CONN_STATE_CLIENT_CHAR_DISCOVERING        | Server characteristics are being discovered
 869:Generated_Source\PSoC6\pdl\middleware\ble/cy_ble_gap.h **** *   CY_BLE_CONN_STATE_CLIENT_DESCR_DISCOVERING       | Server char. descriptors are being discovere
 870:Generated_Source\PSoC6\pdl\middleware\ble/cy_ble_gap.h **** *   CY_BLE_CONN_STATE_CLIENT_DISCOVERED              | Server is discovered   
 871:Generated_Source\PSoC6\pdl\middleware\ble/cy_ble_gap.h **** *
 872:Generated_Source\PSoC6\pdl\middleware\ble/cy_ble_gap.h **** *
 873:Generated_Source\PSoC6\pdl\middleware\ble/cy_ble_gap.h **** ******************************************************************************/
 874:Generated_Source\PSoC6\pdl\middleware\ble/cy_ble_gap.h **** __STATIC_INLINE cy_en_ble_conn_state_t Cy_BLE_GetConnectionState(cy_stc_ble_conn_handle_t connHandl
 875:Generated_Source\PSoC6\pdl\middleware\ble/cy_ble_gap.h **** {
 876:Generated_Source\PSoC6\pdl\middleware\ble/cy_ble_gap.h ****     return((connHandle.attId < CY_BLE_CONN_COUNT) ? cy_ble_connState[connHandle.attId] : CY_BLE_CON
 877:Generated_Source\PSoC6\pdl\middleware\ble/cy_ble_gap.h **** }
 878:Generated_Source\PSoC6\pdl\middleware\ble/cy_ble_gap.h **** 
 879:Generated_Source\PSoC6\pdl\middleware\ble/cy_ble_gap.h **** /** \cond IGNORE */
 880:Generated_Source\PSoC6\pdl\middleware\ble/cy_ble_gap.h **** /******************************************************************************
 881:Generated_Source\PSoC6\pdl\middleware\ble/cy_ble_gap.h **** * Function Name: Cy_BLE_SetConnectionState
 882:Generated_Source\PSoC6\pdl\middleware\ble/cy_ble_gap.h **** ***************************************************************************//**
 883:Generated_Source\PSoC6\pdl\middleware\ble/cy_ble_gap.h **** *
 884:Generated_Source\PSoC6\pdl\middleware\ble/cy_ble_gap.h **** *  Used to set BLE link state for the specified connection handle.
 885:Generated_Source\PSoC6\pdl\middleware\ble/cy_ble_gap.h **** *
 886:Generated_Source\PSoC6\pdl\middleware\ble/cy_ble_gap.h **** *  \param connHandle: Peer device handle
 887:Generated_Source\PSoC6\pdl\middleware\ble/cy_ble_gap.h **** *  \param state:  The state that is desired to be set
 888:Generated_Source\PSoC6\pdl\middleware\ble/cy_ble_gap.h **** *
 889:Generated_Source\PSoC6\pdl\middleware\ble/cy_ble_gap.h **** ******************************************************************************/
 890:Generated_Source\PSoC6\pdl\middleware\ble/cy_ble_gap.h **** __STATIC_INLINE void Cy_BLE_SetConnectionState(cy_stc_ble_conn_handle_t connHandle,
 891:Generated_Source\PSoC6\pdl\middleware\ble/cy_ble_gap.h ****                                                cy_en_ble_conn_state_t state)
 892:Generated_Source\PSoC6\pdl\middleware\ble/cy_ble_gap.h **** {
 893:Generated_Source\PSoC6\pdl\middleware\ble/cy_ble_gap.h ****     if(connHandle.attId < CY_BLE_CONN_COUNT)
 894:Generated_Source\PSoC6\pdl\middleware\ble/cy_ble_gap.h ****     {
 895:Generated_Source\PSoC6\pdl\middleware\ble/cy_ble_gap.h ****         cy_ble_connState[connHandle.attId] = state;
 896:Generated_Source\PSoC6\pdl\middleware\ble/cy_ble_gap.h ****     }
 897:Generated_Source\PSoC6\pdl\middleware\ble/cy_ble_gap.h ****     else
 898:Generated_Source\PSoC6\pdl\middleware\ble/cy_ble_gap.h ****     {
 899:Generated_Source\PSoC6\pdl\middleware\ble/cy_ble_gap.h ****         /* Halt in debug mode*/
 900:Generated_Source\PSoC6\pdl\middleware\ble/cy_ble_gap.h ****         CY_ASSERT(connHandle.attId >= CY_BLE_CONN_COUNT);
 901:Generated_Source\PSoC6\pdl\middleware\ble/cy_ble_gap.h ****     }
 902:Generated_Source\PSoC6\pdl\middleware\ble/cy_ble_gap.h **** }
 903:Generated_Source\PSoC6\pdl\middleware\ble/cy_ble_gap.h **** /** \endcond */
 904:Generated_Source\PSoC6\pdl\middleware\ble/cy_ble_gap.h **** 
 905:Generated_Source\PSoC6\pdl\middleware\ble/cy_ble_gap.h **** /******************************************************************************
 906:Generated_Source\PSoC6\pdl\middleware\ble/cy_ble_gap.h **** * Function Name: Cy_BLE_GetNumOfActiveConn
 907:Generated_Source\PSoC6\pdl\middleware\ble/cy_ble_gap.h **** ***************************************************************************//**
 908:Generated_Source\PSoC6\pdl\middleware\ble/cy_ble_gap.h **** *
 909:Generated_Source\PSoC6\pdl\middleware\ble/cy_ble_gap.h **** *  Used to get active number of connections.
 910:Generated_Source\PSoC6\pdl\middleware\ble/cy_ble_gap.h **** *
 911:Generated_Source\PSoC6\pdl\middleware\ble/cy_ble_gap.h **** *  \return
ARM GAS  C:\Users\gjl\AppData\Local\Temp\ccRZOvUj.s 			page 37


 912:Generated_Source\PSoC6\pdl\middleware\ble/cy_ble_gap.h **** *  connNum - number of active connections
 913:Generated_Source\PSoC6\pdl\middleware\ble/cy_ble_gap.h **** *
 914:Generated_Source\PSoC6\pdl\middleware\ble/cy_ble_gap.h **** ******************************************************************************/
 915:Generated_Source\PSoC6\pdl\middleware\ble/cy_ble_gap.h **** __STATIC_INLINE uint8_t Cy_BLE_GetNumOfActiveConn(void)
 916:Generated_Source\PSoC6\pdl\middleware\ble/cy_ble_gap.h **** {
 917:Generated_Source\PSoC6\pdl\middleware\ble/cy_ble_gap.h ****     uint32_t i;
 918:Generated_Source\PSoC6\pdl\middleware\ble/cy_ble_gap.h ****     uint8_t connNum = 0u;
 919:Generated_Source\PSoC6\pdl\middleware\ble/cy_ble_gap.h **** 
 920:Generated_Source\PSoC6\pdl\middleware\ble/cy_ble_gap.h ****     for(i = 0u; i < CY_BLE_CONN_COUNT; i++)
 921:Generated_Source\PSoC6\pdl\middleware\ble/cy_ble_gap.h ****     {
 922:Generated_Source\PSoC6\pdl\middleware\ble/cy_ble_gap.h ****         if(cy_ble_connState[i] >= CY_BLE_CONN_STATE_CONNECTED)
 923:Generated_Source\PSoC6\pdl\middleware\ble/cy_ble_gap.h ****         {
 924:Generated_Source\PSoC6\pdl\middleware\ble/cy_ble_gap.h ****             connNum++;
 925:Generated_Source\PSoC6\pdl\middleware\ble/cy_ble_gap.h ****         }
 926:Generated_Source\PSoC6\pdl\middleware\ble/cy_ble_gap.h ****     }
 927:Generated_Source\PSoC6\pdl\middleware\ble/cy_ble_gap.h **** 
 928:Generated_Source\PSoC6\pdl\middleware\ble/cy_ble_gap.h ****     return(connNum);
 929:Generated_Source\PSoC6\pdl\middleware\ble/cy_ble_gap.h **** }
 930:Generated_Source\PSoC6\pdl\middleware\ble/cy_ble_gap.h **** 
 931:Generated_Source\PSoC6\pdl\middleware\ble/cy_ble_gap.h **** 
 932:Generated_Source\PSoC6\pdl\middleware\ble/cy_ble_gap.h **** /******************************************************************************
 933:Generated_Source\PSoC6\pdl\middleware\ble/cy_ble_gap.h **** * Function Name: Cy_BLE_GetConnHandleByBdHandle
 934:Generated_Source\PSoC6\pdl\middleware\ble/cy_ble_gap.h **** ***************************************************************************//**
 935:Generated_Source\PSoC6\pdl\middleware\ble/cy_ble_gap.h **** *
 936:Generated_Source\PSoC6\pdl\middleware\ble/cy_ble_gap.h **** *  Used to get connection handle by bdHandle
 937:Generated_Source\PSoC6\pdl\middleware\ble/cy_ble_gap.h **** *  This function halts in debug mode if bdHandle does not exist in the connected device
 938:Generated_Source\PSoC6\pdl\middleware\ble/cy_ble_gap.h **** *  list
 939:Generated_Source\PSoC6\pdl\middleware\ble/cy_ble_gap.h **** *
 940:Generated_Source\PSoC6\pdl\middleware\ble/cy_ble_gap.h **** *  \param bdHandle: Peer device handle
 941:Generated_Source\PSoC6\pdl\middleware\ble/cy_ble_gap.h **** *
 942:Generated_Source\PSoC6\pdl\middleware\ble/cy_ble_gap.h **** *  \return
 943:Generated_Source\PSoC6\pdl\middleware\ble/cy_ble_gap.h **** *  * connHandle: Full connection handle.
 944:Generated_Source\PSoC6\pdl\middleware\ble/cy_ble_gap.h **** *  * connHandle.attId = CY_BLE_INVALID_CONN_HANDLE_VALUE: invalid bdHandle
 945:Generated_Source\PSoC6\pdl\middleware\ble/cy_ble_gap.h **** *
 946:Generated_Source\PSoC6\pdl\middleware\ble/cy_ble_gap.h **** ******************************************************************************/
 947:Generated_Source\PSoC6\pdl\middleware\ble/cy_ble_gap.h **** __STATIC_INLINE cy_stc_ble_conn_handle_t Cy_BLE_GetConnHandleByBdHandle(uint8_t bdHandle)
 948:Generated_Source\PSoC6\pdl\middleware\ble/cy_ble_gap.h **** {
 949:Generated_Source\PSoC6\pdl\middleware\ble/cy_ble_gap.h ****     uint32_t i;
 950:Generated_Source\PSoC6\pdl\middleware\ble/cy_ble_gap.h ****     cy_stc_ble_conn_handle_t cHandle =
 624              		.loc 2 950 0
 625 0234 354B     		ldr	r3, .L109+28
 626 0236 1B88     		ldrh	r3, [r3]	@ unaligned
 627 0238 ADF81430 		strh	r3, [sp, #20]	@ unaligned
 628              	.LVL63:
 951:Generated_Source\PSoC6\pdl\middleware\ble/cy_ble_gap.h ****     {
 952:Generated_Source\PSoC6\pdl\middleware\ble/cy_ble_gap.h ****         .attId    = CY_BLE_INVALID_CONN_HANDLE_VALUE,
 953:Generated_Source\PSoC6\pdl\middleware\ble/cy_ble_gap.h ****         .bdHandle = CY_BLE_INVALID_CONN_HANDLE_VALUE
 954:Generated_Source\PSoC6\pdl\middleware\ble/cy_ble_gap.h ****     };
 955:Generated_Source\PSoC6\pdl\middleware\ble/cy_ble_gap.h **** 
 956:Generated_Source\PSoC6\pdl\middleware\ble/cy_ble_gap.h ****     for(i = 0u; i < CY_BLE_CONN_COUNT; i++)
 629              		.loc 2 956 0
 630 023c 0023     		movs	r3, #0
 631 023e 19E0     		b	.L68
 632              	.LVL64:
 633              	.L72:
 634 0240 334A     		ldr	r2, .L109+32
 635 0242 32F81320 		ldrh	r2, [r2, r3, lsl #1]	@ unaligned
ARM GAS  C:\Users\gjl\AppData\Local\Temp\ccRZOvUj.s 			page 38


 636 0246 ADF80820 		strh	r2, [sp, #8]	@ unaligned
 637              	.LBB94:
 638              	.LBB95:
 876:Generated_Source\PSoC6\pdl\middleware\ble/cy_ble_gap.h **** }
 639              		.loc 2 876 0
 640 024a 9DF80920 		ldrb	r2, [sp, #9]	@ zero_extendqisi2
 641 024e 12B9     		cbnz	r2, .L104
 642 0250 3048     		ldr	r0, .L109+36
 643 0252 825C     		ldrb	r2, [r0, r2]	@ zero_extendqisi2
 644 0254 00E0     		b	.L69
 645              	.L104:
 646 0256 0022     		movs	r2, #0
 647              	.L69:
 648              	.LBE95:
 649              	.LBE94:
 957:Generated_Source\PSoC6\pdl\middleware\ble/cy_ble_gap.h ****     {
 958:Generated_Source\PSoC6\pdl\middleware\ble/cy_ble_gap.h ****         if((Cy_BLE_GetConnectionState(cy_ble_connHandle[i]) >= CY_BLE_CONN_STATE_CONNECTED) &&
 650              		.loc 2 958 0
 651 0258 012A     		cmp	r2, #1
 652 025a 0AD9     		bls	.L70
 959:Generated_Source\PSoC6\pdl\middleware\ble/cy_ble_gap.h ****                 (cy_ble_connHandle[i].bdHandle == bdHandle))
 653              		.loc 2 959 0
 654 025c 2C4A     		ldr	r2, .L109+32
 655 025e 12F81320 		ldrb	r2, [r2, r3, lsl #1]	@ zero_extendqisi2
 958:Generated_Source\PSoC6\pdl\middleware\ble/cy_ble_gap.h ****                 (cy_ble_connHandle[i].bdHandle == bdHandle))
 656              		.loc 2 958 0
 657 0262 9142     		cmp	r1, r2
 658 0264 05D1     		bne	.L70
 960:Generated_Source\PSoC6\pdl\middleware\ble/cy_ble_gap.h ****         {
 961:Generated_Source\PSoC6\pdl\middleware\ble/cy_ble_gap.h ****             cHandle = cy_ble_connHandle[i];
 659              		.loc 2 961 0
 660 0266 2A4A     		ldr	r2, .L109+32
 661 0268 32F81330 		ldrh	r3, [r2, r3, lsl #1]	@ unaligned
 662              	.LVL65:
 663 026c ADF81430 		strh	r3, [sp, #20]	@ unaligned
 664 0270 02E0     		b	.L71
 665              	.LVL66:
 666              	.L70:
 956:Generated_Source\PSoC6\pdl\middleware\ble/cy_ble_gap.h ****     {
 667              		.loc 2 956 0
 668 0272 0133     		adds	r3, r3, #1
 669              	.LVL67:
 670              	.L68:
 671 0274 002B     		cmp	r3, #0
 672 0276 E3D0     		beq	.L72
 673              	.LVL68:
 674              	.L71:
 962:Generated_Source\PSoC6\pdl\middleware\ble/cy_ble_gap.h ****             break;
 963:Generated_Source\PSoC6\pdl\middleware\ble/cy_ble_gap.h ****         }
 964:Generated_Source\PSoC6\pdl\middleware\ble/cy_ble_gap.h ****     }
 965:Generated_Source\PSoC6\pdl\middleware\ble/cy_ble_gap.h ****     if(cHandle.attId == CY_BLE_INVALID_CONN_HANDLE_VALUE)
 675              		.loc 2 965 0
 676 0278 9DF81530 		ldrb	r3, [sp, #21]	@ zero_extendqisi2
 677 027c FF2B     		cmp	r3, #255
 678 027e 05D1     		bne	.L73
 966:Generated_Source\PSoC6\pdl\middleware\ble/cy_ble_gap.h ****     {
 967:Generated_Source\PSoC6\pdl\middleware\ble/cy_ble_gap.h ****         /* HALT in debug mode */
ARM GAS  C:\Users\gjl\AppData\Local\Temp\ccRZOvUj.s 			page 39


 968:Generated_Source\PSoC6\pdl\middleware\ble/cy_ble_gap.h ****         CY_ASSERT(cHandle.attId != CY_BLE_INVALID_CONN_HANDLE_VALUE);
 679              		.loc 2 968 0
 680 0280 04D1     		bne	.L73
 681 0282 4FF47271 		mov	r1, #968
 682              	.LVL69:
 683 0286 2448     		ldr	r0, .L109+40
 684 0288 FFF7FEFF 		bl	Cy_SysLib_AssertFailed
 685              	.LVL70:
 686              	.L73:
 969:Generated_Source\PSoC6\pdl\middleware\ble/cy_ble_gap.h ****     }
 970:Generated_Source\PSoC6\pdl\middleware\ble/cy_ble_gap.h **** 
 971:Generated_Source\PSoC6\pdl\middleware\ble/cy_ble_gap.h ****     return cHandle;
 687              		.loc 2 971 0
 688 028c BDF81430 		ldrh	r3, [sp, #20]
 689 0290 ADF82030 		strh	r3, [sp, #32]	@ movhi
 690 0294 ADF81C30 		strh	r3, [sp, #28]	@ movhi
 691              	.LBE93:
 692              	.LBE92:
 693              		.loc 1 483 0
 694 0298 C3F30723 		ubfx	r3, r3, #8, #8
 484:Generated_Source\PSoC6\pdl\middleware\ble/cy_ble_event_handler.c ****                 ((cy_stc_ble_l2cap_state_info_t*)evParam)->flowState;
 695              		.loc 1 484 0
 696 029c 2978     		ldrb	r1, [r5]	@ zero_extendqisi2
 483:Generated_Source\PSoC6\pdl\middleware\ble/cy_ble_event_handler.c ****                 ((cy_stc_ble_l2cap_state_info_t*)evParam)->flowState;
 697              		.loc 1 483 0
 698 029e 1F4A     		ldr	r2, .L109+44
 699 02a0 D154     		strb	r1, [r2, r3]
 485:Generated_Source\PSoC6\pdl\middleware\ble/cy_ble_event_handler.c ****         #endif /*(CY_BLE_GAP_ROLE_PERIPHERAL || CY_BLE_GAP_ROLE_CENTRAL)*/
 486:Generated_Source\PSoC6\pdl\middleware\ble/cy_ble_event_handler.c ****             break;
 700              		.loc 1 486 0
 701 02a2 E7E1     		b	.L35
 702              	.LVL71:
 703              	.L44:
 704              	.LBB96:
 487:Generated_Source\PSoC6\pdl\middleware\ble/cy_ble_event_handler.c **** 
 488:Generated_Source\PSoC6\pdl\middleware\ble/cy_ble_event_handler.c ****         case CY_BLE_EVT_MEMORY_REQUEST:
 489:Generated_Source\PSoC6\pdl\middleware\ble/cy_ble_event_handler.c ****         #if (CY_BLE_MODE_PROFILE)
 490:Generated_Source\PSoC6\pdl\middleware\ble/cy_ble_event_handler.c ****             {
 491:Generated_Source\PSoC6\pdl\middleware\ble/cy_ble_event_handler.c ****                 cy_stc_ble_memory_request_t *memReq = (cy_stc_ble_memory_request_t*)evParam;
 492:Generated_Source\PSoC6\pdl\middleware\ble/cy_ble_event_handler.c ****                 if(memReq->request == CY_BLE_PREPARED_WRITE_REQUEST)
 705              		.loc 1 492 0
 706 02a4 0B78     		ldrb	r3, [r1]	@ zero_extendqisi2
 707 02a6 002B     		cmp	r3, #0
 708 02a8 40F0E481 		bne	.L35
 493:Generated_Source\PSoC6\pdl\middleware\ble/cy_ble_event_handler.c ****                 {
 494:Generated_Source\PSoC6\pdl\middleware\ble/cy_ble_event_handler.c ****             #if (CY_BLE_GATT_ENABLE_EXTERNAL_PREP_WRITE_BUFF == 0u)
 495:Generated_Source\PSoC6\pdl\middleware\ble/cy_ble_event_handler.c ****                     /* Stack requests to provide memory to process a remote request */
 496:Generated_Source\PSoC6\pdl\middleware\ble/cy_ble_event_handler.c ****                     if(memReq->allocFree == CY_BLE_ALLOC_MEMORY)
 709              		.loc 1 496 0
 710 02ac 0B7A     		ldrb	r3, [r1, #8]	@ zero_extendqisi2
 711 02ae 33B9     		cbnz	r3, .L74
 712              	.LBB97:
 497:Generated_Source\PSoC6\pdl\middleware\ble/cy_ble_event_handler.c ****                     {
 498:Generated_Source\PSoC6\pdl\middleware\ble/cy_ble_event_handler.c ****                         static cy_stc_ble_prepare_write_request_memory_t gPrepWriteReqMem;
 499:Generated_Source\PSoC6\pdl\middleware\ble/cy_ble_event_handler.c **** 
 500:Generated_Source\PSoC6\pdl\middleware\ble/cy_ble_event_handler.c ****                         /* Configure and return a statically allocated buffer at the end of the cy_
 501:Generated_Source\PSoC6\pdl\middleware\ble/cy_ble_event_handler.c ****                         gPrepWriteReqMem.prepareWriteQueueSize = CY_BLE_GATT_MAX_PREPARE_BUFF_COUNT
ARM GAS  C:\Users\gjl\AppData\Local\Temp\ccRZOvUj.s 			page 40


 713              		.loc 1 501 0
 714 02b0 1B4B     		ldr	r3, .L109+48
 715 02b2 0022     		movs	r2, #0
 716 02b4 DA80     		strh	r2, [r3, #6]	@ movhi
 502:Generated_Source\PSoC6\pdl\middleware\ble/cy_ble_event_handler.c ****                         gPrepWriteReqMem.totalAttrValueLength = CY_BLE_GATT_PREPARE_LENGTH_ALIGN;
 717              		.loc 1 502 0
 718 02b6 9A80     		strh	r2, [r3, #4]	@ movhi
 503:Generated_Source\PSoC6\pdl\middleware\ble/cy_ble_event_handler.c ****                         gPrepWriteReqMem.queueBuffer = &cy_ble_stackMemoryRam[CY_BLE_STACK_RAM_SIZE
 719              		.loc 1 503 0
 720 02b8 1A4A     		ldr	r2, .L109+52
 721 02ba 1A60     		str	r2, [r3]
 504:Generated_Source\PSoC6\pdl\middleware\ble/cy_ble_event_handler.c ****                                                                               CY_BLE_GATT_PREPARE_W
 505:Generated_Source\PSoC6\pdl\middleware\ble/cy_ble_event_handler.c ****                         memReq->configMemory = &gPrepWriteReqMem;
 722              		.loc 1 505 0
 723 02bc 4B60     		str	r3, [r1, #4]
 724              	.L74:
 725              	.LBE97:
 506:Generated_Source\PSoC6\pdl\middleware\ble/cy_ble_event_handler.c ****                     }
 507:Generated_Source\PSoC6\pdl\middleware\ble/cy_ble_event_handler.c ****                     /* Clear the CY_BLE_CALLBACK flag not to provide a handled event to the applica
 508:Generated_Source\PSoC6\pdl\middleware\ble/cy_ble_event_handler.c ****                     cy_ble_eventHandlerFlag &= (uint8_t) ~CY_BLE_CALLBACK;
 726              		.loc 1 508 0
 727 02be 0C4A     		ldr	r2, .L109
 728 02c0 1378     		ldrb	r3, [r2]	@ zero_extendqisi2
 729 02c2 03F0FE03 		and	r3, r3, #254
 730 02c6 1370     		strb	r3, [r2]
 731 02c8 D4E1     		b	.L35
 732              	.LVL72:
 733              	.L45:
 734              	.LBE96:
 735              	.LBB98:
 509:Generated_Source\PSoC6\pdl\middleware\ble/cy_ble_event_handler.c ****             #endif  /* CY_BLE_GATT_ENABLE_EXTERNAL_PREP_WRITE_BUFF == 0u */
 510:Generated_Source\PSoC6\pdl\middleware\ble/cy_ble_event_handler.c ****                 }
 511:Generated_Source\PSoC6\pdl\middleware\ble/cy_ble_event_handler.c ****             }
 512:Generated_Source\PSoC6\pdl\middleware\ble/cy_ble_event_handler.c ****         #endif /* CY_BLE_MODE_PROFILE */
 513:Generated_Source\PSoC6\pdl\middleware\ble/cy_ble_event_handler.c ****             break;
 514:Generated_Source\PSoC6\pdl\middleware\ble/cy_ble_event_handler.c **** 
 515:Generated_Source\PSoC6\pdl\middleware\ble/cy_ble_event_handler.c ****         /**********************************************************
 516:Generated_Source\PSoC6\pdl\middleware\ble/cy_ble_event_handler.c ****          * GAP events
 517:Generated_Source\PSoC6\pdl\middleware\ble/cy_ble_event_handler.c ****          ************************************************************/
 518:Generated_Source\PSoC6\pdl\middleware\ble/cy_ble_event_handler.c ****         case CY_BLE_EVT_GAP_AUTH_REQ:
 519:Generated_Source\PSoC6\pdl\middleware\ble/cy_ble_event_handler.c ****             break;
 520:Generated_Source\PSoC6\pdl\middleware\ble/cy_ble_event_handler.c **** 
 521:Generated_Source\PSoC6\pdl\middleware\ble/cy_ble_event_handler.c ****         case CY_BLE_EVT_GAP_AUTH_COMPLETE:
 522:Generated_Source\PSoC6\pdl\middleware\ble/cy_ble_event_handler.c ****         #if ((CY_BLE_GAP_ROLE_PERIPHERAL || CY_BLE_GAP_ROLE_CENTRAL) && (CY_BLE_BONDING_REQUIREMENT
 523:Generated_Source\PSoC6\pdl\middleware\ble/cy_ble_event_handler.c ****             {
 524:Generated_Source\PSoC6\pdl\middleware\ble/cy_ble_event_handler.c ****                 cy_stc_ble_conn_handle_t connectedHandle;
 525:Generated_Source\PSoC6\pdl\middleware\ble/cy_ble_event_handler.c ****                 connectedHandle = Cy_BLE_GetConnHandleByBdHandle(((cy_stc_ble_gap_auth_info_t*)evPa
 736              		.loc 1 525 0
 737 02ca 4979     		ldrb	r1, [r1, #5]	@ zero_extendqisi2
 738              	.LVL73:
 739              	.LBB99:
 740              	.LBB100:
 950:Generated_Source\PSoC6\pdl\middleware\ble/cy_ble_gap.h ****     {
 741              		.loc 2 950 0
 742 02cc 0F4B     		ldr	r3, .L109+28
 743 02ce 1B88     		ldrh	r3, [r3]	@ unaligned
 744 02d0 ADF81430 		strh	r3, [sp, #20]	@ unaligned
ARM GAS  C:\Users\gjl\AppData\Local\Temp\ccRZOvUj.s 			page 41


 745              	.LVL74:
 956:Generated_Source\PSoC6\pdl\middleware\ble/cy_ble_gap.h ****     {
 746              		.loc 2 956 0
 747 02d4 0023     		movs	r3, #0
 748 02d6 36E0     		b	.L75
 749              	.LVL75:
 750              	.L79:
 751 02d8 0D4A     		ldr	r2, .L109+32
 752 02da 32F81320 		ldrh	r2, [r2, r3, lsl #1]	@ unaligned
 753 02de ADF80C20 		strh	r2, [sp, #12]	@ unaligned
 754              	.LBB101:
 755              	.LBB102:
 876:Generated_Source\PSoC6\pdl\middleware\ble/cy_ble_gap.h **** }
 756              		.loc 2 876 0
 757 02e2 9DF80D20 		ldrb	r2, [sp, #13]	@ zero_extendqisi2
 758 02e6 FAB9     		cbnz	r2, .L105
 759 02e8 0A48     		ldr	r0, .L109+36
 760 02ea 825C     		ldrb	r2, [r0, r2]	@ zero_extendqisi2
 761 02ec 1DE0     		b	.L76
 762              	.L110:
 763 02ee 00BF     		.align	2
 764              	.L109:
 765 02f0 00000000 		.word	cy_ble_eventHandlerFlag
 766 02f4 00000000 		.word	cy_ble_sflashDeviceAddress
 767 02f8 00000000 		.word	cy_ble_configPtr
 768 02fc 00000000 		.word	.LANCHOR0
 769 0300 00000000 		.word	cy_ble_state
 770 0304 00000000 		.word	cy_ble_advState
 771 0308 00000000 		.word	cy_ble_cmdStatus
 772 030c 08000000 		.word	.LANCHOR0+8
 773 0310 00000000 		.word	cy_ble_connHandle
 774 0314 00000000 		.word	cy_ble_connState
 775 0318 00000000 		.word	.LC2
 776 031c 00000000 		.word	cy_ble_busyStatus
 777 0320 00000000 		.word	.LANCHOR1
 778 0324 54290000 		.word	cy_ble_stackMemoryRam+10580
 779              	.L105:
 780 0328 0022     		movs	r2, #0
 781              	.L76:
 782              	.LBE102:
 783              	.LBE101:
 958:Generated_Source\PSoC6\pdl\middleware\ble/cy_ble_gap.h ****                 (cy_ble_connHandle[i].bdHandle == bdHandle))
 784              		.loc 2 958 0
 785 032a 012A     		cmp	r2, #1
 786 032c 0AD9     		bls	.L77
 959:Generated_Source\PSoC6\pdl\middleware\ble/cy_ble_gap.h ****         {
 787              		.loc 2 959 0
 788 032e B54A     		ldr	r2, .L111
 789 0330 12F81320 		ldrb	r2, [r2, r3, lsl #1]	@ zero_extendqisi2
 958:Generated_Source\PSoC6\pdl\middleware\ble/cy_ble_gap.h ****                 (cy_ble_connHandle[i].bdHandle == bdHandle))
 790              		.loc 2 958 0
 791 0334 9142     		cmp	r1, r2
 792 0336 05D1     		bne	.L77
 961:Generated_Source\PSoC6\pdl\middleware\ble/cy_ble_gap.h ****             break;
 793              		.loc 2 961 0
 794 0338 B24A     		ldr	r2, .L111
 795 033a 32F81330 		ldrh	r3, [r2, r3, lsl #1]	@ unaligned
ARM GAS  C:\Users\gjl\AppData\Local\Temp\ccRZOvUj.s 			page 42


 796              	.LVL76:
 797 033e ADF81430 		strh	r3, [sp, #20]	@ unaligned
 798 0342 02E0     		b	.L78
 799              	.LVL77:
 800              	.L77:
 956:Generated_Source\PSoC6\pdl\middleware\ble/cy_ble_gap.h ****     {
 801              		.loc 2 956 0
 802 0344 0133     		adds	r3, r3, #1
 803              	.LVL78:
 804              	.L75:
 805 0346 002B     		cmp	r3, #0
 806 0348 C6D0     		beq	.L79
 807              	.LVL79:
 808              	.L78:
 965:Generated_Source\PSoC6\pdl\middleware\ble/cy_ble_gap.h ****     {
 809              		.loc 2 965 0
 810 034a 9DF81530 		ldrb	r3, [sp, #21]	@ zero_extendqisi2
 811 034e FF2B     		cmp	r3, #255
 812 0350 05D1     		bne	.L80
 968:Generated_Source\PSoC6\pdl\middleware\ble/cy_ble_gap.h ****     }
 813              		.loc 2 968 0
 814 0352 04D1     		bne	.L80
 815 0354 4FF47271 		mov	r1, #968
 816              	.LVL80:
 817 0358 AB48     		ldr	r0, .L111+4
 818 035a FFF7FEFF 		bl	Cy_SysLib_AssertFailed
 819              	.LVL81:
 820              	.L80:
 821              		.loc 2 971 0
 822 035e BDF81430 		ldrh	r3, [sp, #20]
 823 0362 ADF82430 		strh	r3, [sp, #36]	@ movhi
 824 0366 ADF81430 		strh	r3, [sp, #20]	@ movhi
 825              	.LBE100:
 826              	.LBE99:
 526:Generated_Source\PSoC6\pdl\middleware\ble/cy_ble_event_handler.c ****                 cy_ble_peerBonding[connectedHandle.attId] = ((cy_stc_ble_gap_auth_info_t*)evParam)-
 827              		.loc 1 526 0
 828 036a C3F30723 		ubfx	r3, r3, #8, #8
 829 036e 6978     		ldrb	r1, [r5, #1]	@ zero_extendqisi2
 830 0370 A64A     		ldr	r2, .L111+8
 831 0372 D154     		strb	r1, [r2, r3]
 832              	.LBE98:
 527:Generated_Source\PSoC6\pdl\middleware\ble/cy_ble_event_handler.c ****             }
 528:Generated_Source\PSoC6\pdl\middleware\ble/cy_ble_event_handler.c ****         #endif  /* CY_BLE_BONDING_REQUIREMENT == CY_BLE_BONDING_YES */
 529:Generated_Source\PSoC6\pdl\middleware\ble/cy_ble_event_handler.c ****         
 530:Generated_Source\PSoC6\pdl\middleware\ble/cy_ble_event_handler.c ****         #if ((CY_BLE_GAP_ROLE_PERIPHERAL || CY_BLE_GAP_ROLE_CENTRAL))
 531:Generated_Source\PSoC6\pdl\middleware\ble/cy_ble_event_handler.c ****             if(((cy_stc_ble_gap_auth_info_t *)evParam)->authErr == CY_BLE_GAP_AUTH_ERROR_NONE)
 833              		.loc 1 531 0
 834 0374 EB78     		ldrb	r3, [r5, #3]	@ zero_extendqisi2
 835 0376 002B     		cmp	r3, #0
 836 0378 40F07C81 		bne	.L35
 837              	.LBB103:
 532:Generated_Source\PSoC6\pdl\middleware\ble/cy_ble_event_handler.c ****             {
 533:Generated_Source\PSoC6\pdl\middleware\ble/cy_ble_event_handler.c ****                 cy_stc_ble_conn_handle_t connectedHandle;
 534:Generated_Source\PSoC6\pdl\middleware\ble/cy_ble_event_handler.c ****                 connectedHandle = Cy_BLE_GetConnHandleByBdHandle(((cy_stc_ble_gap_auth_info_t *)evP
 838              		.loc 1 534 0
 839 037c 6979     		ldrb	r1, [r5, #5]	@ zero_extendqisi2
 840              	.LVL82:
ARM GAS  C:\Users\gjl\AppData\Local\Temp\ccRZOvUj.s 			page 43


 841              	.LBB104:
 842              	.LBB105:
 950:Generated_Source\PSoC6\pdl\middleware\ble/cy_ble_gap.h ****     {
 843              		.loc 2 950 0
 844 037e A44B     		ldr	r3, .L111+12
 845 0380 1B88     		ldrh	r3, [r3]	@ unaligned
 846 0382 ADF81430 		strh	r3, [sp, #20]	@ unaligned
 847              	.LVL83:
 956:Generated_Source\PSoC6\pdl\middleware\ble/cy_ble_gap.h ****     {
 848              		.loc 2 956 0
 849 0386 0023     		movs	r3, #0
 850 0388 19E0     		b	.L81
 851              	.LVL84:
 852              	.L85:
 853 038a 9E4A     		ldr	r2, .L111
 854 038c 32F81320 		ldrh	r2, [r2, r3, lsl #1]	@ unaligned
 855 0390 ADF81020 		strh	r2, [sp, #16]	@ unaligned
 856              	.LBB106:
 857              	.LBB107:
 876:Generated_Source\PSoC6\pdl\middleware\ble/cy_ble_gap.h **** }
 858              		.loc 2 876 0
 859 0394 9DF81120 		ldrb	r2, [sp, #17]	@ zero_extendqisi2
 860 0398 12B9     		cbnz	r2, .L106
 861 039a 9E48     		ldr	r0, .L111+16
 862 039c 825C     		ldrb	r2, [r0, r2]	@ zero_extendqisi2
 863 039e 00E0     		b	.L82
 864              	.L106:
 865 03a0 0022     		movs	r2, #0
 866              	.L82:
 867              	.LBE107:
 868              	.LBE106:
 958:Generated_Source\PSoC6\pdl\middleware\ble/cy_ble_gap.h ****                 (cy_ble_connHandle[i].bdHandle == bdHandle))
 869              		.loc 2 958 0
 870 03a2 012A     		cmp	r2, #1
 871 03a4 0AD9     		bls	.L83
 959:Generated_Source\PSoC6\pdl\middleware\ble/cy_ble_gap.h ****         {
 872              		.loc 2 959 0
 873 03a6 974A     		ldr	r2, .L111
 874 03a8 12F81320 		ldrb	r2, [r2, r3, lsl #1]	@ zero_extendqisi2
 958:Generated_Source\PSoC6\pdl\middleware\ble/cy_ble_gap.h ****                 (cy_ble_connHandle[i].bdHandle == bdHandle))
 875              		.loc 2 958 0
 876 03ac 9142     		cmp	r1, r2
 877 03ae 05D1     		bne	.L83
 961:Generated_Source\PSoC6\pdl\middleware\ble/cy_ble_gap.h ****             break;
 878              		.loc 2 961 0
 879 03b0 944A     		ldr	r2, .L111
 880 03b2 32F81330 		ldrh	r3, [r2, r3, lsl #1]	@ unaligned
 881              	.LVL85:
 882 03b6 ADF81430 		strh	r3, [sp, #20]	@ unaligned
 883 03ba 02E0     		b	.L84
 884              	.LVL86:
 885              	.L83:
 956:Generated_Source\PSoC6\pdl\middleware\ble/cy_ble_gap.h ****     {
 886              		.loc 2 956 0
 887 03bc 0133     		adds	r3, r3, #1
 888              	.LVL87:
 889              	.L81:
ARM GAS  C:\Users\gjl\AppData\Local\Temp\ccRZOvUj.s 			page 44


 890 03be 002B     		cmp	r3, #0
 891 03c0 E3D0     		beq	.L85
 892              	.LVL88:
 893              	.L84:
 965:Generated_Source\PSoC6\pdl\middleware\ble/cy_ble_gap.h ****     {
 894              		.loc 2 965 0
 895 03c2 9DF81530 		ldrb	r3, [sp, #21]	@ zero_extendqisi2
 896 03c6 FF2B     		cmp	r3, #255
 897 03c8 05D1     		bne	.L86
 968:Generated_Source\PSoC6\pdl\middleware\ble/cy_ble_gap.h ****     }
 898              		.loc 2 968 0
 899 03ca 04D1     		bne	.L86
 900 03cc 4FF47271 		mov	r1, #968
 901              	.LVL89:
 902 03d0 8D48     		ldr	r0, .L111+4
 903 03d2 FFF7FEFF 		bl	Cy_SysLib_AssertFailed
 904              	.LVL90:
 905              	.L86:
 906              		.loc 2 971 0
 907 03d6 BDF81430 		ldrh	r3, [sp, #20]
 908 03da ADF82830 		strh	r3, [sp, #40]	@ movhi
 909 03de ADF81430 		strh	r3, [sp, #20]	@ movhi
 910              	.LBE105:
 911              	.LBE104:
 535:Generated_Source\PSoC6\pdl\middleware\ble/cy_ble_event_handler.c ****                 cy_ble_pairStatus[connectedHandle.attId] = true;
 912              		.loc 1 535 0
 913 03e2 C3F30723 		ubfx	r3, r3, #8, #8
 914 03e6 0121     		movs	r1, #1
 915 03e8 8B4A     		ldr	r2, .L111+20
 916 03ea D154     		strb	r1, [r2, r3]
 917 03ec 42E1     		b	.L35
 918              	.LVL91:
 919              	.L36:
 920              	.LBE103:
 536:Generated_Source\PSoC6\pdl\middleware\ble/cy_ble_event_handler.c ****             }
 537:Generated_Source\PSoC6\pdl\middleware\ble/cy_ble_event_handler.c ****         #endif /* ((CY_BLE_GAP_ROLE_PERIPHERAL || CY_BLE_GAP_ROLE_CENTRAL)) */ 
 538:Generated_Source\PSoC6\pdl\middleware\ble/cy_ble_event_handler.c ****             break;
 539:Generated_Source\PSoC6\pdl\middleware\ble/cy_ble_event_handler.c **** 
 540:Generated_Source\PSoC6\pdl\middleware\ble/cy_ble_event_handler.c ****         case CY_BLE_EVT_GAP_CONNECTION_UPDATE_COMPLETE:
 541:Generated_Source\PSoC6\pdl\middleware\ble/cy_ble_event_handler.c ****             Cy_BLE_GAP_ConnUpdateCompleteEventHandler((const cy_stc_ble_gap_conn_param_updated_in_c
 542:Generated_Source\PSoC6\pdl\middleware\ble/cy_ble_event_handler.c ****         #if (CY_BLE_GAP_ROLE_PERIPHERAL || CY_BLE_GAP_ROLE_CENTRAL)
 543:Generated_Source\PSoC6\pdl\middleware\ble/cy_ble_event_handler.c ****             (void)Cy_BLE_InvokeServiceEventHandler((uint32_t)event, (void*)evParam);
 921              		.loc 1 543 0
 922 03ee FFF7FEFF 		bl	Cy_BLE_InvokeServiceEventHandler
 923              	.LVL92:
 544:Generated_Source\PSoC6\pdl\middleware\ble/cy_ble_event_handler.c ****         #endif /*(CY_BLE_GAP_ROLE_PERIPHERAL || CY_BLE_GAP_ROLE_CENTRAL) */
 545:Generated_Source\PSoC6\pdl\middleware\ble/cy_ble_event_handler.c ****             break;
 924              		.loc 1 545 0
 925 03f2 3FE1     		b	.L35
 926              	.LVL93:
 927              	.L55:
 928              	.LBB108:
 546:Generated_Source\PSoC6\pdl\middleware\ble/cy_ble_event_handler.c **** 
 547:Generated_Source\PSoC6\pdl\middleware\ble/cy_ble_event_handler.c ****     #if (CY_BLE_LL_PRIVACY_FEATURE != 0u)
 548:Generated_Source\PSoC6\pdl\middleware\ble/cy_ble_event_handler.c ****         case CY_BLE_EVT_GAP_ENHANCE_CONN_COMPLETE:
 549:Generated_Source\PSoC6\pdl\middleware\ble/cy_ble_event_handler.c ****         {
 550:Generated_Source\PSoC6\pdl\middleware\ble/cy_ble_event_handler.c ****             cy_stc_ble_gap_conn_param_updated_in_controller_t connCParam;
ARM GAS  C:\Users\gjl\AppData\Local\Temp\ccRZOvUj.s 			page 45


 551:Generated_Source\PSoC6\pdl\middleware\ble/cy_ble_event_handler.c ****             cy_stc_ble_gap_enhance_conn_complete_param_t *connEnhanceParam;
 552:Generated_Source\PSoC6\pdl\middleware\ble/cy_ble_event_handler.c ****             
 553:Generated_Source\PSoC6\pdl\middleware\ble/cy_ble_event_handler.c ****             connEnhanceParam = (cy_stc_ble_gap_enhance_conn_complete_param_t*)evParam;
 554:Generated_Source\PSoC6\pdl\middleware\ble/cy_ble_event_handler.c ****             connCParam.status = connEnhanceParam->status;
 555:Generated_Source\PSoC6\pdl\middleware\ble/cy_ble_event_handler.c ****             connCParam.connIntv = connEnhanceParam->connIntv;
 556:Generated_Source\PSoC6\pdl\middleware\ble/cy_ble_event_handler.c ****             connCParam.connLatency = connEnhanceParam->connLatency;
 557:Generated_Source\PSoC6\pdl\middleware\ble/cy_ble_event_handler.c ****             connCParam.supervisionTO = connEnhanceParam->supervisionTo;
 558:Generated_Source\PSoC6\pdl\middleware\ble/cy_ble_event_handler.c ****             Cy_BLE_GAP_ConnUpdateCompleteEventHandler((const cy_stc_ble_gap_conn_param_updated_in_c
 559:Generated_Source\PSoC6\pdl\middleware\ble/cy_ble_event_handler.c **** 
 560:Generated_Source\PSoC6\pdl\middleware\ble/cy_ble_event_handler.c ****             /* Advertising is automatically stopped if a Slave is connected, so update the adv stat
 561:Generated_Source\PSoC6\pdl\middleware\ble/cy_ble_event_handler.c ****              *  CY_BLE_ADV_STATE_STOPPED  */
 562:Generated_Source\PSoC6\pdl\middleware\ble/cy_ble_event_handler.c ****             #if (CY_BLE_GAP_ROLE_PERIPHERAL || CY_BLE_GAP_ROLE_BROADCASTER)
 563:Generated_Source\PSoC6\pdl\middleware\ble/cy_ble_event_handler.c ****                 if(connEnhanceParam->role == (uint8_t)CY_BLE_GAP_LL_ROLE_SLAVE)
 929              		.loc 1 563 0
 930 03f4 0B7E     		ldrb	r3, [r1, #24]	@ zero_extendqisi2
 931 03f6 012B     		cmp	r3, #1
 932 03f8 02D1     		bne	.L87
 933              	.LVL94:
 934              	.LBB109:
 935              	.LBB110:
 763:Generated_Source\PSoC6\pdl\middleware\ble/cy_ble_gap.h **** }
 936              		.loc 2 763 0
 937 03fa 0022     		movs	r2, #0
 938 03fc 874B     		ldr	r3, .L111+24
 939 03fe 1A70     		strb	r2, [r3]
 940              	.LVL95:
 941              	.L87:
 942              	.LBE110:
 943              	.LBE109:
 944              	.LBE108:
 945              	.LBB111:
 564:Generated_Source\PSoC6\pdl\middleware\ble/cy_ble_event_handler.c ****                 {
 565:Generated_Source\PSoC6\pdl\middleware\ble/cy_ble_event_handler.c ****                     Cy_BLE_SetAdvertisementState(CY_BLE_ADV_STATE_STOPPED);
 566:Generated_Source\PSoC6\pdl\middleware\ble/cy_ble_event_handler.c ****                 }
 567:Generated_Source\PSoC6\pdl\middleware\ble/cy_ble_event_handler.c ****             #endif  /* (CY_BLE_GAP_ROLE_PERIPHERAL || CY_BLE_GAP_ROLE_BROADCASTER) */
 568:Generated_Source\PSoC6\pdl\middleware\ble/cy_ble_event_handler.c ****         }
 569:Generated_Source\PSoC6\pdl\middleware\ble/cy_ble_event_handler.c ****     #else
 570:Generated_Source\PSoC6\pdl\middleware\ble/cy_ble_event_handler.c ****         case CY_BLE_EVT_GAP_DEVICE_CONNECTED:
 571:Generated_Source\PSoC6\pdl\middleware\ble/cy_ble_event_handler.c ****             Cy_BLE_GAP_ConnUpdateCompleteEventHandler((const cy_stc_ble_gap_conn_param_updated_in_c
 572:Generated_Source\PSoC6\pdl\middleware\ble/cy_ble_event_handler.c **** 
 573:Generated_Source\PSoC6\pdl\middleware\ble/cy_ble_event_handler.c ****             /* Advertising is automatically stopped if a Slave is connected, so update the adv stat
 574:Generated_Source\PSoC6\pdl\middleware\ble/cy_ble_event_handler.c ****             #if (CY_BLE_GAP_ROLE_PERIPHERAL || CY_BLE_GAP_ROLE_BROADCASTER)
 575:Generated_Source\PSoC6\pdl\middleware\ble/cy_ble_event_handler.c ****                 if(((cy_stc_ble_gap_connected_param_t*)evParam)->role == CY_BLE_GAP_LL_ROLE_SLAVE)
 576:Generated_Source\PSoC6\pdl\middleware\ble/cy_ble_event_handler.c ****                 {
 577:Generated_Source\PSoC6\pdl\middleware\ble/cy_ble_event_handler.c ****                     Cy_BLE_SetAdvertisementState(CY_BLE_ADV_STATE_STOPPED);
 578:Generated_Source\PSoC6\pdl\middleware\ble/cy_ble_event_handler.c ****                 }
 579:Generated_Source\PSoC6\pdl\middleware\ble/cy_ble_event_handler.c ****             #endif /* (CY_BLE_GAP_ROLE_PERIPHERAL || CY_BLE_GAP_ROLE_BROADCASTER) */
 580:Generated_Source\PSoC6\pdl\middleware\ble/cy_ble_event_handler.c ****     #endif         /* CY_BLE_LL_PRIVACY_FEATURE != 0u */
 581:Generated_Source\PSoC6\pdl\middleware\ble/cy_ble_event_handler.c ****             #if (CY_BLE_GAP_ROLE_CENTRAL)
 582:Generated_Source\PSoC6\pdl\middleware\ble/cy_ble_event_handler.c ****                 if(cy_ble_connectingTimeout.timeout != 0u)
 583:Generated_Source\PSoC6\pdl\middleware\ble/cy_ble_event_handler.c ****                 {
 584:Generated_Source\PSoC6\pdl\middleware\ble/cy_ble_event_handler.c ****                     (void)Cy_BLE_StopTimer(&cy_ble_connectingTimeout);
 585:Generated_Source\PSoC6\pdl\middleware\ble/cy_ble_event_handler.c ****                 }
 586:Generated_Source\PSoC6\pdl\middleware\ble/cy_ble_event_handler.c ****             #endif /* CY_BLE_GAP_ROLE_CENTRAL */
 587:Generated_Source\PSoC6\pdl\middleware\ble/cy_ble_event_handler.c ****             
 588:Generated_Source\PSoC6\pdl\middleware\ble/cy_ble_event_handler.c ****             #if ((CY_BLE_GAP_ROLE_PERIPHERAL || CY_BLE_GAP_ROLE_CENTRAL))
 589:Generated_Source\PSoC6\pdl\middleware\ble/cy_ble_event_handler.c ****             /* Store information about role of device connected (Master/Slave)*/
ARM GAS  C:\Users\gjl\AppData\Local\Temp\ccRZOvUj.s 			page 46


 590:Generated_Source\PSoC6\pdl\middleware\ble/cy_ble_event_handler.c ****             {   
 591:Generated_Source\PSoC6\pdl\middleware\ble/cy_ble_event_handler.c ****                 #if (CY_BLE_LL_PRIVACY_FEATURE != 0u)
 592:Generated_Source\PSoC6\pdl\middleware\ble/cy_ble_event_handler.c ****                     cy_stc_ble_gap_enhance_conn_complete_param_t *tEvParam = 
 593:Generated_Source\PSoC6\pdl\middleware\ble/cy_ble_event_handler.c ****                         (cy_stc_ble_gap_enhance_conn_complete_param_t *)evParam;
 594:Generated_Source\PSoC6\pdl\middleware\ble/cy_ble_event_handler.c ****                 #else
 595:Generated_Source\PSoC6\pdl\middleware\ble/cy_ble_event_handler.c ****                     cy_stc_ble_gap_connected_param_t *tEvParam = (cy_stc_ble_gap_connected_param_t 
 596:Generated_Source\PSoC6\pdl\middleware\ble/cy_ble_event_handler.c ****                 #endif /* (CY_BLE_LL_PRIVACY_FEATURE != 0u) */    
 597:Generated_Source\PSoC6\pdl\middleware\ble/cy_ble_event_handler.c ****                 
 598:Generated_Source\PSoC6\pdl\middleware\ble/cy_ble_event_handler.c ****                 cy_stc_ble_conn_handle_t tconnHandle = Cy_BLE_GetConnHandleByBdHandle(tEvParam->bdH
 946              		.loc 1 598 0
 947 0400 E97E     		ldrb	r1, [r5, #27]	@ zero_extendqisi2
 948              	.LVL96:
 949              	.LBB112:
 950              	.LBB113:
 950:Generated_Source\PSoC6\pdl\middleware\ble/cy_ble_gap.h ****     {
 951              		.loc 2 950 0
 952 0402 834B     		ldr	r3, .L111+12
 953 0404 1B88     		ldrh	r3, [r3]	@ unaligned
 954 0406 ADF81030 		strh	r3, [sp, #16]	@ unaligned
 955              	.LVL97:
 956:Generated_Source\PSoC6\pdl\middleware\ble/cy_ble_gap.h ****     {
 956              		.loc 2 956 0
 957 040a 0023     		movs	r3, #0
 958 040c 19E0     		b	.L88
 959              	.LVL98:
 960              	.L92:
 961 040e 7D4A     		ldr	r2, .L111
 962 0410 32F81320 		ldrh	r2, [r2, r3, lsl #1]	@ unaligned
 963 0414 ADF81420 		strh	r2, [sp, #20]	@ unaligned
 964              	.LBB114:
 965              	.LBB115:
 876:Generated_Source\PSoC6\pdl\middleware\ble/cy_ble_gap.h **** }
 966              		.loc 2 876 0
 967 0418 9DF81520 		ldrb	r2, [sp, #21]	@ zero_extendqisi2
 968 041c 12B9     		cbnz	r2, .L107
 969 041e 7D48     		ldr	r0, .L111+16
 970 0420 825C     		ldrb	r2, [r0, r2]	@ zero_extendqisi2
 971 0422 00E0     		b	.L89
 972              	.L107:
 973 0424 0022     		movs	r2, #0
 974              	.L89:
 975              	.LBE115:
 976              	.LBE114:
 958:Generated_Source\PSoC6\pdl\middleware\ble/cy_ble_gap.h ****                 (cy_ble_connHandle[i].bdHandle == bdHandle))
 977              		.loc 2 958 0
 978 0426 012A     		cmp	r2, #1
 979 0428 0AD9     		bls	.L90
 959:Generated_Source\PSoC6\pdl\middleware\ble/cy_ble_gap.h ****         {
 980              		.loc 2 959 0
 981 042a 764A     		ldr	r2, .L111
 982 042c 12F81320 		ldrb	r2, [r2, r3, lsl #1]	@ zero_extendqisi2
 958:Generated_Source\PSoC6\pdl\middleware\ble/cy_ble_gap.h ****                 (cy_ble_connHandle[i].bdHandle == bdHandle))
 983              		.loc 2 958 0
 984 0430 9142     		cmp	r1, r2
 985 0432 05D1     		bne	.L90
 961:Generated_Source\PSoC6\pdl\middleware\ble/cy_ble_gap.h ****             break;
 986              		.loc 2 961 0
ARM GAS  C:\Users\gjl\AppData\Local\Temp\ccRZOvUj.s 			page 47


 987 0434 734A     		ldr	r2, .L111
 988 0436 32F81330 		ldrh	r3, [r2, r3, lsl #1]	@ unaligned
 989              	.LVL99:
 990 043a ADF81030 		strh	r3, [sp, #16]	@ unaligned
 991 043e 02E0     		b	.L91
 992              	.LVL100:
 993              	.L90:
 956:Generated_Source\PSoC6\pdl\middleware\ble/cy_ble_gap.h ****     {
 994              		.loc 2 956 0
 995 0440 0133     		adds	r3, r3, #1
 996              	.LVL101:
 997              	.L88:
 998 0442 002B     		cmp	r3, #0
 999 0444 E3D0     		beq	.L92
 1000              	.LVL102:
 1001              	.L91:
 965:Generated_Source\PSoC6\pdl\middleware\ble/cy_ble_gap.h ****     {
 1002              		.loc 2 965 0
 1003 0446 9DF81130 		ldrb	r3, [sp, #17]	@ zero_extendqisi2
 1004 044a FF2B     		cmp	r3, #255
 1005 044c 05D1     		bne	.L93
 968:Generated_Source\PSoC6\pdl\middleware\ble/cy_ble_gap.h ****     }
 1006              		.loc 2 968 0
 1007 044e 04D1     		bne	.L93
 1008 0450 4FF47271 		mov	r1, #968
 1009              	.LVL103:
 1010 0454 6C48     		ldr	r0, .L111+4
 1011 0456 FFF7FEFF 		bl	Cy_SysLib_AssertFailed
 1012              	.LVL104:
 1013              	.L93:
 1014              		.loc 2 971 0
 1015 045a BDF81030 		ldrh	r3, [sp, #16]
 1016 045e ADF82C30 		strh	r3, [sp, #44]	@ movhi
 1017 0462 ADF81030 		strh	r3, [sp, #16]	@ movhi
 1018              	.LBE113:
 1019              	.LBE112:
 599:Generated_Source\PSoC6\pdl\middleware\ble/cy_ble_event_handler.c ****                 if( tconnHandle.attId != CY_BLE_INVALID_CONN_HANDLE_VALUE)   
 1020              		.loc 1 599 0
 1021 0466 C3F30723 		ubfx	r3, r3, #8, #8
 1022 046a FF2B     		cmp	r3, #255
 1023 046c 02D0     		beq	.L94
 600:Generated_Source\PSoC6\pdl\middleware\ble/cy_ble_event_handler.c ****                 {
 601:Generated_Source\PSoC6\pdl\middleware\ble/cy_ble_event_handler.c ****                     cy_ble_devConnRole[tconnHandle.attId] = tEvParam->role;
 1024              		.loc 1 601 0
 1025 046e 297E     		ldrb	r1, [r5, #24]	@ zero_extendqisi2
 1026 0470 6B4A     		ldr	r2, .L111+28
 1027 0472 D154     		strb	r1, [r2, r3]
 1028              	.L94:
 1029              	.LBE111:
 602:Generated_Source\PSoC6\pdl\middleware\ble/cy_ble_event_handler.c ****                 }
 603:Generated_Source\PSoC6\pdl\middleware\ble/cy_ble_event_handler.c ****             }
 604:Generated_Source\PSoC6\pdl\middleware\ble/cy_ble_event_handler.c ****             #endif /*((CY_BLE_GAP_ROLE_PERIPHERAL || CY_BLE_GAP_ROLE_CENTRAL))*/
 605:Generated_Source\PSoC6\pdl\middleware\ble/cy_ble_event_handler.c ****         
 606:Generated_Source\PSoC6\pdl\middleware\ble/cy_ble_event_handler.c ****             Cy_BLE_SetState(CY_BLE_STATE_ON);
 1030              		.loc 1 606 0
 1031 0474 0222     		movs	r2, #2
 1032 0476 6B4B     		ldr	r3, .L111+32
ARM GAS  C:\Users\gjl\AppData\Local\Temp\ccRZOvUj.s 			page 48


 1033 0478 1A70     		strb	r2, [r3]
 607:Generated_Source\PSoC6\pdl\middleware\ble/cy_ble_event_handler.c ****             break;
 1034              		.loc 1 607 0
 1035 047a FBE0     		b	.L35
 1036              	.LVL105:
 1037              	.L50:
 608:Generated_Source\PSoC6\pdl\middleware\ble/cy_ble_event_handler.c **** 
 609:Generated_Source\PSoC6\pdl\middleware\ble/cy_ble_event_handler.c ****         case CY_BLE_EVT_GAP_DEVICE_DISCONNECTED:
 610:Generated_Source\PSoC6\pdl\middleware\ble/cy_ble_event_handler.c ****             Cy_BLE_SetState(CY_BLE_STATE_ON);
 1038              		.loc 1 610 0
 1039 047c 0222     		movs	r2, #2
 1040 047e 694B     		ldr	r3, .L111+32
 1041 0480 1A70     		strb	r2, [r3]
 611:Generated_Source\PSoC6\pdl\middleware\ble/cy_ble_event_handler.c ****             break;
 1042              		.loc 1 611 0
 1043 0482 F7E0     		b	.L35
 1044              	.L49:
 612:Generated_Source\PSoC6\pdl\middleware\ble/cy_ble_event_handler.c ****         
 613:Generated_Source\PSoC6\pdl\middleware\ble/cy_ble_event_handler.c ****         #if (CY_BLE_GAP_ROLE_PERIPHERAL || CY_BLE_GAP_ROLE_BROADCASTER)
 614:Generated_Source\PSoC6\pdl\middleware\ble/cy_ble_event_handler.c ****         case CY_BLE_EVT_GAPP_ADVERTISEMENT_START_STOP:
 615:Generated_Source\PSoC6\pdl\middleware\ble/cy_ble_event_handler.c ****         #if (CY_BLE_GAP_ROLE_PERIPHERAL || CY_BLE_GAP_ROLE_CENTRAL)
 616:Generated_Source\PSoC6\pdl\middleware\ble/cy_ble_event_handler.c ****             (void)Cy_BLE_InvokeServiceEventHandler((uint32_t)event, (void*)evParam);
 1045              		.loc 1 616 0
 1046 0484 FFF7FEFF 		bl	Cy_BLE_InvokeServiceEventHandler
 1047              	.LVL106:
 617:Generated_Source\PSoC6\pdl\middleware\ble/cy_ble_event_handler.c ****         #endif /* (CY_BLE_GAP_ROLE_PERIPHERAL || CY_BLE_GAP_ROLE_CENTRAL) */
 618:Generated_Source\PSoC6\pdl\middleware\ble/cy_ble_event_handler.c **** 
 619:Generated_Source\PSoC6\pdl\middleware\ble/cy_ble_event_handler.c ****             if((cy_ble_eventHandlerFlag & CY_BLE_CALLBACK) != 0u)
 1048              		.loc 1 619 0
 1049 0488 674B     		ldr	r3, .L111+36
 1050 048a 1B78     		ldrb	r3, [r3]	@ zero_extendqisi2
 1051 048c 13F0010F 		tst	r3, #1
 1052 0490 00F0F080 		beq	.L35
 1053              	.LBB116:
 1054              	.LBB117:
 745:Generated_Source\PSoC6\pdl\middleware\ble/cy_ble_gap.h **** }
 1055              		.loc 2 745 0
 1056 0494 614B     		ldr	r3, .L111+24
 1057 0496 1B78     		ldrb	r3, [r3]	@ zero_extendqisi2
 1058              	.LBE117:
 1059              	.LBE116:
 620:Generated_Source\PSoC6\pdl\middleware\ble/cy_ble_event_handler.c ****             {
 621:Generated_Source\PSoC6\pdl\middleware\ble/cy_ble_event_handler.c ****                 /* After Cy_BLE_GAPP_StartAdvertisement, the first event indicates that advertising
 622:Generated_Source\PSoC6\pdl\middleware\ble/cy_ble_event_handler.c ****                 if(Cy_BLE_GetAdvertisementState() == CY_BLE_ADV_STATE_ADV_INITIATED)
 1060              		.loc 1 622 0
 1061 0498 012B     		cmp	r3, #1
 1062 049a 03D1     		bne	.L95
 1063              	.LVL107:
 1064              	.LBB118:
 1065              	.LBB119:
 763:Generated_Source\PSoC6\pdl\middleware\ble/cy_ble_gap.h **** }
 1066              		.loc 2 763 0
 1067 049c 0222     		movs	r2, #2
 1068 049e 5F4B     		ldr	r3, .L111+24
 1069 04a0 1A70     		strb	r2, [r3]
 1070 04a2 E7E0     		b	.L35
 1071              	.LVL108:
ARM GAS  C:\Users\gjl\AppData\Local\Temp\ccRZOvUj.s 			page 49


 1072              	.L95:
 1073              	.LBE119:
 1074              	.LBE118:
 623:Generated_Source\PSoC6\pdl\middleware\ble/cy_ble_event_handler.c ****                 {
 624:Generated_Source\PSoC6\pdl\middleware\ble/cy_ble_event_handler.c ****                     Cy_BLE_SetAdvertisementState(CY_BLE_ADV_STATE_ADVERTISING);
 625:Generated_Source\PSoC6\pdl\middleware\ble/cy_ble_event_handler.c ****                 }
 626:Generated_Source\PSoC6\pdl\middleware\ble/cy_ble_event_handler.c ****                 /* When the application initiated a stop advertisement */
 627:Generated_Source\PSoC6\pdl\middleware\ble/cy_ble_event_handler.c ****                 else if(Cy_BLE_GetAdvertisementState() == CY_BLE_ADV_STATE_STOP_INITIATED)
 1075              		.loc 1 627 0
 1076 04a4 032B     		cmp	r3, #3
 1077 04a6 03D1     		bne	.L96
 1078              	.LVL109:
 1079              	.LBB120:
 1080              	.LBB121:
 763:Generated_Source\PSoC6\pdl\middleware\ble/cy_ble_gap.h **** }
 1081              		.loc 2 763 0
 1082 04a8 0022     		movs	r2, #0
 1083 04aa 5C4B     		ldr	r3, .L111+24
 1084 04ac 1A70     		strb	r2, [r3]
 1085 04ae E1E0     		b	.L35
 1086              	.LVL110:
 1087              	.L96:
 1088              	.LBE121:
 1089              	.LBE120:
 628:Generated_Source\PSoC6\pdl\middleware\ble/cy_ble_event_handler.c ****                 {
 629:Generated_Source\PSoC6\pdl\middleware\ble/cy_ble_event_handler.c ****                     Cy_BLE_SetAdvertisementState(CY_BLE_ADV_STATE_STOPPED);
 630:Generated_Source\PSoC6\pdl\middleware\ble/cy_ble_event_handler.c ****                 }
 631:Generated_Source\PSoC6\pdl\middleware\ble/cy_ble_event_handler.c ****                 else /* The following event indicates that advertising has been stopped */
 632:Generated_Source\PSoC6\pdl\middleware\ble/cy_ble_event_handler.c ****                 {
 633:Generated_Source\PSoC6\pdl\middleware\ble/cy_ble_event_handler.c ****                     if(Cy_BLE_GetAdvertisementState() == CY_BLE_ADV_STATE_ADVERTISING)
 1090              		.loc 1 633 0
 1091 04b0 022B     		cmp	r3, #2
 1092 04b2 40F0DF80 		bne	.L35
 1093              	.LVL111:
 1094              	.LBB122:
 1095              	.LBB123:
 763:Generated_Source\PSoC6\pdl\middleware\ble/cy_ble_gap.h **** }
 1096              		.loc 2 763 0
 1097 04b6 0022     		movs	r2, #0
 1098 04b8 584B     		ldr	r3, .L111+24
 1099 04ba 1A70     		strb	r2, [r3]
 1100              	.LVL112:
 1101              	.LBE123:
 1102              	.LBE122:
 634:Generated_Source\PSoC6\pdl\middleware\ble/cy_ble_event_handler.c ****                     {
 635:Generated_Source\PSoC6\pdl\middleware\ble/cy_ble_event_handler.c ****                         Cy_BLE_SetAdvertisementState(CY_BLE_ADV_STATE_STOPPED);
 636:Generated_Source\PSoC6\pdl\middleware\ble/cy_ble_event_handler.c ****                         if((cy_ble_configPtr->gappAdvParams[cy_ble_advIndex].slowAdvEnable != 0u) &
 1103              		.loc 1 636 0
 1104 04bc 5B4B     		ldr	r3, .L111+40
 1105 04be 1B68     		ldr	r3, [r3]
 1106 04c0 5B68     		ldr	r3, [r3, #4]
 1107 04c2 5B4A     		ldr	r2, .L111+44
 1108 04c4 1178     		ldrb	r1, [r2]	@ zero_extendqisi2
 1109 04c6 C1EBC102 		rsb	r2, r1, r1, lsl #3
 1110 04ca 03EB4203 		add	r3, r3, r2, lsl #1
 1111 04ce 9A79     		ldrb	r2, [r3, #6]	@ zero_extendqisi2
 1112 04d0 002A     		cmp	r2, #0
ARM GAS  C:\Users\gjl\AppData\Local\Temp\ccRZOvUj.s 			page 50


 1113 04d2 00F0CF80 		beq	.L35
 637:Generated_Source\PSoC6\pdl\middleware\ble/cy_ble_event_handler.c ****                            (cy_ble_configPtr->gappAdvParams[cy_ble_advIndex].fastAdvTimeOut != 0u))
 1114              		.loc 1 637 0 discriminator 1
 1115 04d6 9B88     		ldrh	r3, [r3, #4]
 636:Generated_Source\PSoC6\pdl\middleware\ble/cy_ble_event_handler.c ****                            (cy_ble_configPtr->gappAdvParams[cy_ble_advIndex].fastAdvTimeOut != 0u))
 1116              		.loc 1 636 0 discriminator 1
 1117 04d8 002B     		cmp	r3, #0
 1118 04da 00F0CB80 		beq	.L35
 638:Generated_Source\PSoC6\pdl\middleware\ble/cy_ble_event_handler.c ****                         {
 639:Generated_Source\PSoC6\pdl\middleware\ble/cy_ble_event_handler.c ****                             if(cy_ble_advertisingIntervalType == CY_BLE_ADVERTISING_FAST)
 1119              		.loc 1 639 0
 1120 04de 554B     		ldr	r3, .L111+48
 1121 04e0 1B78     		ldrb	r3, [r3]	@ zero_extendqisi2
 1122 04e2 002B     		cmp	r3, #0
 1123 04e4 40F0C680 		bne	.L35
 640:Generated_Source\PSoC6\pdl\middleware\ble/cy_ble_event_handler.c ****                             {
 641:Generated_Source\PSoC6\pdl\middleware\ble/cy_ble_event_handler.c ****                                 /* When fast advertising time out occur: Start slow advertising */
 642:Generated_Source\PSoC6\pdl\middleware\ble/cy_ble_event_handler.c ****                                 if(Cy_BLE_GAPP_StartAdvertisement(CY_BLE_ADVERTISING_SLOW, cy_ble_a
 1124              		.loc 1 642 0
 1125 04e8 0120     		movs	r0, #1
 1126 04ea FFF7FEFF 		bl	Cy_BLE_GAPP_StartAdvertisement
 1127              	.LVL113:
 1128 04ee 0028     		cmp	r0, #0
 1129 04f0 40F0C080 		bne	.L35
 1130              	.LVL114:
 1131              	.LBB124:
 1132              	.LBB125:
 763:Generated_Source\PSoC6\pdl\middleware\ble/cy_ble_gap.h **** }
 1133              		.loc 2 763 0
 1134 04f4 0122     		movs	r2, #1
 1135 04f6 494B     		ldr	r3, .L111+24
 1136 04f8 1A70     		strb	r2, [r3]
 1137 04fa BBE0     		b	.L35
 1138              	.LVL115:
 1139              	.L64:
 1140              	.LBE125:
 1141              	.LBE124:
 643:Generated_Source\PSoC6\pdl\middleware\ble/cy_ble_event_handler.c ****                                    CY_BLE_SUCCESS)
 644:Generated_Source\PSoC6\pdl\middleware\ble/cy_ble_event_handler.c ****                                 {
 645:Generated_Source\PSoC6\pdl\middleware\ble/cy_ble_event_handler.c ****                                     Cy_BLE_SetAdvertisementState(CY_BLE_ADV_STATE_ADV_INITIATED);
 646:Generated_Source\PSoC6\pdl\middleware\ble/cy_ble_event_handler.c ****                                 }
 647:Generated_Source\PSoC6\pdl\middleware\ble/cy_ble_event_handler.c ****                             }
 648:Generated_Source\PSoC6\pdl\middleware\ble/cy_ble_event_handler.c ****                         }
 649:Generated_Source\PSoC6\pdl\middleware\ble/cy_ble_event_handler.c ****                     }
 650:Generated_Source\PSoC6\pdl\middleware\ble/cy_ble_event_handler.c ****                 }
 651:Generated_Source\PSoC6\pdl\middleware\ble/cy_ble_event_handler.c ****             }
 652:Generated_Source\PSoC6\pdl\middleware\ble/cy_ble_event_handler.c ****             break;
 653:Generated_Source\PSoC6\pdl\middleware\ble/cy_ble_event_handler.c ****         #endif /* CY_BLE_GAP_ROLE_PERIPHERAL || CY_BLE_GAP_ROLE_BROADCASTER */
 654:Generated_Source\PSoC6\pdl\middleware\ble/cy_ble_event_handler.c **** 
 655:Generated_Source\PSoC6\pdl\middleware\ble/cy_ble_event_handler.c ****         #if (CY_BLE_GAP_ROLE_CENTRAL || CY_BLE_GAP_ROLE_OBSERVER)
 656:Generated_Source\PSoC6\pdl\middleware\ble/cy_ble_event_handler.c ****         case CY_BLE_EVT_GAPC_SCAN_START_STOP:
 657:Generated_Source\PSoC6\pdl\middleware\ble/cy_ble_event_handler.c ****         #if (CY_BLE_GAP_ROLE_CENTRAL)
 658:Generated_Source\PSoC6\pdl\middleware\ble/cy_ble_event_handler.c ****             (void)Cy_BLE_InvokeServiceEventHandler((uint32_t)event, (void*)evParam);
 659:Generated_Source\PSoC6\pdl\middleware\ble/cy_ble_event_handler.c ****         #endif /* (CY_BLE_GAP_ROLE_CENTRAL) */
 660:Generated_Source\PSoC6\pdl\middleware\ble/cy_ble_event_handler.c **** 
 661:Generated_Source\PSoC6\pdl\middleware\ble/cy_ble_event_handler.c ****             if((cy_ble_eventHandlerFlag & CY_BLE_CALLBACK) != 0u)
 662:Generated_Source\PSoC6\pdl\middleware\ble/cy_ble_event_handler.c ****             {
ARM GAS  C:\Users\gjl\AppData\Local\Temp\ccRZOvUj.s 			page 51


 663:Generated_Source\PSoC6\pdl\middleware\ble/cy_ble_event_handler.c ****                 /* After Cy_BLE_GAPC_StartScan, the first event indicates that scanning has been st
 664:Generated_Source\PSoC6\pdl\middleware\ble/cy_ble_event_handler.c ****                 if(Cy_BLE_GetScanState() == CY_BLE_SCAN_STATE_SCAN_INITIATED)
 665:Generated_Source\PSoC6\pdl\middleware\ble/cy_ble_event_handler.c ****                 {
 666:Generated_Source\PSoC6\pdl\middleware\ble/cy_ble_event_handler.c ****                     Cy_BLE_SetScanState(CY_BLE_SCAN_STATE_SCANNING);
 667:Generated_Source\PSoC6\pdl\middleware\ble/cy_ble_event_handler.c ****                 }
 668:Generated_Source\PSoC6\pdl\middleware\ble/cy_ble_event_handler.c ****                 /* When the application initiated stop scanning */
 669:Generated_Source\PSoC6\pdl\middleware\ble/cy_ble_event_handler.c ****                 else if(Cy_BLE_GetScanState() == CY_BLE_SCAN_STATE_STOP_INITIATED)
 670:Generated_Source\PSoC6\pdl\middleware\ble/cy_ble_event_handler.c ****                 {
 671:Generated_Source\PSoC6\pdl\middleware\ble/cy_ble_event_handler.c ****                     Cy_BLE_SetScanState(CY_BLE_SCAN_STATE_STOPPED);
 672:Generated_Source\PSoC6\pdl\middleware\ble/cy_ble_event_handler.c ****                 }
 673:Generated_Source\PSoC6\pdl\middleware\ble/cy_ble_event_handler.c ****                 else /* The following event indicates that scanning has been stopped by BLE Stack *
 674:Generated_Source\PSoC6\pdl\middleware\ble/cy_ble_event_handler.c ****                 {
 675:Generated_Source\PSoC6\pdl\middleware\ble/cy_ble_event_handler.c ****                     if(Cy_BLE_GetScanState() == CY_BLE_SCAN_STATE_SCANNING)
 676:Generated_Source\PSoC6\pdl\middleware\ble/cy_ble_event_handler.c ****                     {
 677:Generated_Source\PSoC6\pdl\middleware\ble/cy_ble_event_handler.c ****                         Cy_BLE_SetScanState(CY_BLE_SCAN_STATE_STOPPED);
 678:Generated_Source\PSoC6\pdl\middleware\ble/cy_ble_event_handler.c ****                         if((cy_ble_configPtr->gapcScanParams[cy_ble_scanIndex].slowScanEnabled != 0
 679:Generated_Source\PSoC6\pdl\middleware\ble/cy_ble_event_handler.c ****                            (cy_ble_configPtr->gapcScanParams[cy_ble_scanIndex].fastScanTimeOut != 0
 680:Generated_Source\PSoC6\pdl\middleware\ble/cy_ble_event_handler.c ****                         {
 681:Generated_Source\PSoC6\pdl\middleware\ble/cy_ble_event_handler.c ****                             if(cy_ble_scanningIntervalType == CY_BLE_SCANNING_FAST)
 682:Generated_Source\PSoC6\pdl\middleware\ble/cy_ble_event_handler.c ****                             {
 683:Generated_Source\PSoC6\pdl\middleware\ble/cy_ble_event_handler.c ****                                 /* When a fast scanning timeout occurs: Start slow scanning */
 684:Generated_Source\PSoC6\pdl\middleware\ble/cy_ble_event_handler.c ****                                 if(Cy_BLE_GAPC_StartScan(CY_BLE_SCANNING_SLOW, cy_ble_scanIndex) ==
 685:Generated_Source\PSoC6\pdl\middleware\ble/cy_ble_event_handler.c ****                                 {
 686:Generated_Source\PSoC6\pdl\middleware\ble/cy_ble_event_handler.c ****                                     Cy_BLE_SetScanState(CY_BLE_SCAN_STATE_SCAN_INITIATED);
 687:Generated_Source\PSoC6\pdl\middleware\ble/cy_ble_event_handler.c ****                                 }
 688:Generated_Source\PSoC6\pdl\middleware\ble/cy_ble_event_handler.c ****                             }
 689:Generated_Source\PSoC6\pdl\middleware\ble/cy_ble_event_handler.c ****                         }
 690:Generated_Source\PSoC6\pdl\middleware\ble/cy_ble_event_handler.c ****                     }
 691:Generated_Source\PSoC6\pdl\middleware\ble/cy_ble_event_handler.c ****                 }
 692:Generated_Source\PSoC6\pdl\middleware\ble/cy_ble_event_handler.c ****             }
 693:Generated_Source\PSoC6\pdl\middleware\ble/cy_ble_event_handler.c ****             break;
 694:Generated_Source\PSoC6\pdl\middleware\ble/cy_ble_event_handler.c ****         #endif /* CY_BLE_GAP_ROLE_CENTRAL || CY_BLE_GAP_ROLE_OBSERVER */
 695:Generated_Source\PSoC6\pdl\middleware\ble/cy_ble_event_handler.c **** 
 696:Generated_Source\PSoC6\pdl\middleware\ble/cy_ble_event_handler.c ****         /**********************************************************
 697:Generated_Source\PSoC6\pdl\middleware\ble/cy_ble_event_handler.c ****          * L2AP events
 698:Generated_Source\PSoC6\pdl\middleware\ble/cy_ble_event_handler.c ****          ************************************************************/
 699:Generated_Source\PSoC6\pdl\middleware\ble/cy_ble_event_handler.c ****         case CY_BLE_EVT_L2CAP_CONN_PARAM_UPDATE_RSP:
 700:Generated_Source\PSoC6\pdl\middleware\ble/cy_ble_event_handler.c ****             Cy_BLE_L2Cap_ConnParamUpdateRspEventHandler((cy_stc_ble_l2cap_conn_update_rsp_param_t*)
 701:Generated_Source\PSoC6\pdl\middleware\ble/cy_ble_event_handler.c **** 
 702:Generated_Source\PSoC6\pdl\middleware\ble/cy_ble_event_handler.c ****         #if (CY_BLE_GAP_ROLE_PERIPHERAL || CY_BLE_GAP_ROLE_CENTRAL)
 703:Generated_Source\PSoC6\pdl\middleware\ble/cy_ble_event_handler.c ****             (void)Cy_BLE_InvokeServiceEventHandler((uint32_t)event, (void*)evParam);
 1142              		.loc 1 703 0
 1143 04fc FFF7FEFF 		bl	Cy_BLE_InvokeServiceEventHandler
 1144              	.LVL116:
 704:Generated_Source\PSoC6\pdl\middleware\ble/cy_ble_event_handler.c ****         #endif /* (CY_BLE_GAP_ROLE_PERIPHERAL || CY_BLE_GAP_ROLE_CENTRAL) */
 705:Generated_Source\PSoC6\pdl\middleware\ble/cy_ble_event_handler.c ****             break;
 1145              		.loc 1 705 0
 1146 0500 B8E0     		b	.L35
 1147              	.LVL117:
 1148              	.L56:
 1149 0502 0B88     		ldrh	r3, [r1]	@ unaligned
 1150 0504 ADF80030 		strh	r3, [sp]	@ unaligned
 1151              	.LVL118:
 1152              	.LBB126:
 1153              	.LBB127:
 893:Generated_Source\PSoC6\pdl\middleware\ble/cy_ble_gap.h ****     {
 1154              		.loc 2 893 0
ARM GAS  C:\Users\gjl\AppData\Local\Temp\ccRZOvUj.s 			page 52


 1155 0508 9DF80130 		ldrb	r3, [sp, #1]	@ zero_extendqisi2
 1156 050c 1BB9     		cbnz	r3, .L97
 895:Generated_Source\PSoC6\pdl\middleware\ble/cy_ble_gap.h ****     }
 1157              		.loc 2 895 0
 1158 050e 0221     		movs	r1, #2
 1159              	.LVL119:
 1160 0510 404A     		ldr	r2, .L111+16
 1161 0512 D154     		strb	r1, [r2, r3]
 1162 0514 05E0     		b	.L98
 1163              	.LVL120:
 1164              	.L97:
 900:Generated_Source\PSoC6\pdl\middleware\ble/cy_ble_gap.h ****     }
 1165              		.loc 2 900 0
 1166 0516 23B9     		cbnz	r3, .L98
 1167 0518 4FF46171 		mov	r1, #900
 1168              	.LVL121:
 1169 051c 3A48     		ldr	r0, .L111+4
 1170              	.LVL122:
 1171 051e FFF7FEFF 		bl	Cy_SysLib_AssertFailed
 1172              	.LVL123:
 1173              	.L98:
 1174              	.LBE127:
 1175              	.LBE126:
 706:Generated_Source\PSoC6\pdl\middleware\ble/cy_ble_event_handler.c **** 
 707:Generated_Source\PSoC6\pdl\middleware\ble/cy_ble_event_handler.c ****             /**********************************************************
 708:Generated_Source\PSoC6\pdl\middleware\ble/cy_ble_event_handler.c ****              * GATT events
 709:Generated_Source\PSoC6\pdl\middleware\ble/cy_ble_event_handler.c ****              ************************************************************/
 710:Generated_Source\PSoC6\pdl\middleware\ble/cy_ble_event_handler.c ****         #if ((CY_BLE_GATT_ROLE_SERVER) || (CY_BLE_GATT_ROLE_CLIENT))
 711:Generated_Source\PSoC6\pdl\middleware\ble/cy_ble_event_handler.c ****         case CY_BLE_EVT_GATT_CONNECT_IND:
 712:Generated_Source\PSoC6\pdl\middleware\ble/cy_ble_event_handler.c ****         #if (CY_BLE_GATT_ROLE_CLIENT)
 713:Generated_Source\PSoC6\pdl\middleware\ble/cy_ble_event_handler.c ****             /* If connected to the same device which is already discovered */
 714:Generated_Source\PSoC6\pdl\middleware\ble/cy_ble_event_handler.c ****             if((Cy_BLE_GetConnectionState(*(cy_stc_ble_conn_handle_t*)evParam) ==
 715:Generated_Source\PSoC6\pdl\middleware\ble/cy_ble_event_handler.c ****                 CY_BLE_CONN_STATE_CLIENT_DISCONNECTED_DISCOVERED) &&
 716:Generated_Source\PSoC6\pdl\middleware\ble/cy_ble_event_handler.c ****                (((cy_stc_ble_conn_handle_t*)evParam)->bdHandle ==
 717:Generated_Source\PSoC6\pdl\middleware\ble/cy_ble_event_handler.c ****                 cy_ble_connHandle[((cy_stc_ble_conn_handle_t*)evParam)->attId].bdHandle))
 718:Generated_Source\PSoC6\pdl\middleware\ble/cy_ble_event_handler.c ****             {   /* Set a discovered state */
 719:Generated_Source\PSoC6\pdl\middleware\ble/cy_ble_event_handler.c ****                 Cy_BLE_SetConnectionState(*(cy_stc_ble_conn_handle_t*)evParam, CY_BLE_CONN_STATE_CL
 720:Generated_Source\PSoC6\pdl\middleware\ble/cy_ble_event_handler.c ****             }
 721:Generated_Source\PSoC6\pdl\middleware\ble/cy_ble_event_handler.c ****             else    /* Connected to a new device */
 722:Generated_Source\PSoC6\pdl\middleware\ble/cy_ble_event_handler.c ****         #endif /* CY_BLE_GATT_ROLE_CLIENT */
 723:Generated_Source\PSoC6\pdl\middleware\ble/cy_ble_event_handler.c ****             {
 724:Generated_Source\PSoC6\pdl\middleware\ble/cy_ble_event_handler.c ****                 /* Clear the discovery index for the Client role */
 725:Generated_Source\PSoC6\pdl\middleware\ble/cy_ble_event_handler.c ****             #if (CY_BLE_GATT_ROLE_CLIENT)
 726:Generated_Source\PSoC6\pdl\middleware\ble/cy_ble_event_handler.c ****                 (void)Cy_BLE_GATTC_RemoveConnHandle(*(cy_stc_ble_conn_handle_t*)evParam);
 727:Generated_Source\PSoC6\pdl\middleware\ble/cy_ble_event_handler.c ****             #endif /* CY_BLE_GATT_ROLE_CLIENT */
 728:Generated_Source\PSoC6\pdl\middleware\ble/cy_ble_event_handler.c ****                 Cy_BLE_SetConnectionState(*(cy_stc_ble_conn_handle_t*)evParam, CY_BLE_CONN_STATE_CO
 729:Generated_Source\PSoC6\pdl\middleware\ble/cy_ble_event_handler.c ****                 cy_ble_connHandle[((cy_stc_ble_conn_handle_t*)evParam)->attId] = *(cy_stc_ble_conn_
 1176              		.loc 1 729 0
 1177 0522 6A78     		ldrb	r2, [r5, #1]	@ zero_extendqisi2
 1178 0524 2988     		ldrh	r1, [r5]	@ unaligned
 1179 0526 374B     		ldr	r3, .L111
 1180 0528 23F81210 		strh	r1, [r3, r2, lsl #1]	@ unaligned
 730:Generated_Source\PSoC6\pdl\middleware\ble/cy_ble_event_handler.c ****             }
 731:Generated_Source\PSoC6\pdl\middleware\ble/cy_ble_event_handler.c **** 
 732:Generated_Source\PSoC6\pdl\middleware\ble/cy_ble_event_handler.c ****             cy_ble_busyStatus[((cy_stc_ble_conn_handle_t*)evParam)->attId] = CY_BLE_STACK_STATE_FRE
 1181              		.loc 1 732 0
 1182 052c 6B78     		ldrb	r3, [r5, #1]	@ zero_extendqisi2
ARM GAS  C:\Users\gjl\AppData\Local\Temp\ccRZOvUj.s 			page 53


 1183 052e 0021     		movs	r1, #0
 1184 0530 414A     		ldr	r2, .L111+52
 1185 0532 D154     		strb	r1, [r2, r3]
 733:Generated_Source\PSoC6\pdl\middleware\ble/cy_ble_event_handler.c **** 
 734:Generated_Source\PSoC6\pdl\middleware\ble/cy_ble_event_handler.c ****         #if ((CY_BLE_GATT_ROLE_SERVER) && (CY_BLE_GATT_DB_CCCD_COUNT != 0u) && \
 735:Generated_Source\PSoC6\pdl\middleware\ble/cy_ble_event_handler.c ****             (CY_BLE_BONDING_REQUIREMENT == CY_BLE_BONDING_YES))
 736:Generated_Source\PSoC6\pdl\middleware\ble/cy_ble_event_handler.c ****             
 737:Generated_Source\PSoC6\pdl\middleware\ble/cy_ble_event_handler.c ****             /* Initialize the CCCD values in the RAM when bonding is enabled */
 738:Generated_Source\PSoC6\pdl\middleware\ble/cy_ble_event_handler.c ****             (void)memcpy((uint8_t*)cy_ble_attValuesCccdMultiple[((cy_stc_ble_conn_handle_t*)evParam
 1186              		.loc 1 738 0
 1187 0534 C3EBC301 		rsb	r1, r3, r3, lsl #3
 1188 0538 404E     		ldr	r6, .L111+56
 1189 053a 8819     		adds	r0, r1, r6
 739:Generated_Source\PSoC6\pdl\middleware\ble/cy_ble_event_handler.c ****                          cy_ble_configPtr->flashStorage->attValuesCCCDFlashMemory[((cy_stc_ble_conn
 1190              		.loc 1 739 0
 1191 053c 3B4B     		ldr	r3, .L111+40
 1192 053e 1B68     		ldr	r3, [r3]
 1193 0540 1B69     		ldr	r3, [r3, #16]
 1194 0542 2A78     		ldrb	r2, [r5]	@ zero_extendqisi2
 1195 0544 C2EBC202 		rsb	r2, r2, r2, lsl #3
 1196 0548 02F58352 		add	r2, r2, #4192
 1197 054c 1344     		add	r3, r3, r2
 738:Generated_Source\PSoC6\pdl\middleware\ble/cy_ble_event_handler.c ****                          cy_ble_configPtr->flashStorage->attValuesCCCDFlashMemory[((cy_stc_ble_conn
 1198              		.loc 1 738 0
 1199 054e 53F8062F 		ldr	r2, [r3, #6]!	@ unaligned
 1200 0552 8A51     		str	r2, [r1, r6]	@ unaligned
 1201 0554 9A88     		ldrh	r2, [r3, #4]	@ unaligned
 1202 0556 9B79     		ldrb	r3, [r3, #6]	@ zero_extendqisi2
 1203 0558 8280     		strh	r2, [r0, #4]	@ unaligned
 1204 055a 8371     		strb	r3, [r0, #6]
 1205              	.LBB128:
 740:Generated_Source\PSoC6\pdl\middleware\ble/cy_ble_event_handler.c ****                                                                                    bdHandle],
 741:Generated_Source\PSoC6\pdl\middleware\ble/cy_ble_event_handler.c ****                          CY_BLE_GATT_DB_CCCD_COUNT + CY_BLE_CCCD_CRC_BYTE);
 742:Generated_Source\PSoC6\pdl\middleware\ble/cy_ble_event_handler.c **** 
 743:Generated_Source\PSoC6\pdl\middleware\ble/cy_ble_event_handler.c ****             /* Check CRC for CCCD data */
 744:Generated_Source\PSoC6\pdl\middleware\ble/cy_ble_event_handler.c ****             {
 745:Generated_Source\PSoC6\pdl\middleware\ble/cy_ble_event_handler.c ****                 uint8_t cccdCrc = Cy_BLE_HAL_CalcCRC8(cy_ble_attValuesCccdMultiple[((cy_stc_ble_con
 1206              		.loc 1 745 0
 1207 055c 6878     		ldrb	r0, [r5, #1]	@ zero_extendqisi2
 1208 055e C0EBC000 		rsb	r0, r0, r0, lsl #3
 1209 0562 0621     		movs	r1, #6
 1210 0564 3044     		add	r0, r0, r6
 1211 0566 FFF7FEFF 		bl	Cy_BLE_HAL_CalcCRC8
 1212              	.LVL124:
 746:Generated_Source\PSoC6\pdl\middleware\ble/cy_ble_event_handler.c ****                                                       CY_BLE_GATT_DB_CCCD_COUNT);
 747:Generated_Source\PSoC6\pdl\middleware\ble/cy_ble_event_handler.c **** 
 748:Generated_Source\PSoC6\pdl\middleware\ble/cy_ble_event_handler.c ****                 if(cy_ble_attValuesCccdMultiple[((cy_stc_ble_conn_handle_t*)evParam)->attId][CY_BLE
 1213              		.loc 1 748 0
 1214 056a 6B78     		ldrb	r3, [r5, #1]	@ zero_extendqisi2
 1215 056c C3EBC303 		rsb	r3, r3, r3, lsl #3
 1216 0570 3344     		add	r3, r3, r6
 1217 0572 9B79     		ldrb	r3, [r3, #6]	@ zero_extendqisi2
 1218 0574 9842     		cmp	r0, r3
 1219 0576 0CD0     		beq	.L99
 749:Generated_Source\PSoC6\pdl\middleware\ble/cy_ble_event_handler.c ****                 {
 750:Generated_Source\PSoC6\pdl\middleware\ble/cy_ble_event_handler.c ****                     /* Inform that the CRC for CCCD is wrong */
 751:Generated_Source\PSoC6\pdl\middleware\ble/cy_ble_event_handler.c ****                     Cy_BLE_ApplCallback((uint32_t)CY_BLE_EVT_GATTS_EVT_CCCD_CORRUPT, NULL);
ARM GAS  C:\Users\gjl\AppData\Local\Temp\ccRZOvUj.s 			page 54


 1220              		.loc 1 751 0
 1221 0578 314B     		ldr	r3, .L111+60
 1222 057a 1B68     		ldr	r3, [r3]
 1223 057c 0021     		movs	r1, #0
 1224 057e 3148     		ldr	r0, .L111+64
 1225              	.LVL125:
 1226 0580 9847     		blx	r3
 1227              	.LVL126:
 752:Generated_Source\PSoC6\pdl\middleware\ble/cy_ble_event_handler.c ****                     
 753:Generated_Source\PSoC6\pdl\middleware\ble/cy_ble_event_handler.c ****                     /* Clean the CCCD buffer in the RAM */
 754:Generated_Source\PSoC6\pdl\middleware\ble/cy_ble_event_handler.c ****                     (void)memset((uint8_t*)cy_ble_attValuesCccdMultiple[((cy_stc_ble_conn_handle_t*
 1228              		.loc 1 754 0
 1229 0582 6B78     		ldrb	r3, [r5, #1]	@ zero_extendqisi2
 1230 0584 C3EBC303 		rsb	r3, r3, r3, lsl #3
 1231 0588 9819     		adds	r0, r3, r6
 1232 058a 0022     		movs	r2, #0
 1233 058c 9A51     		str	r2, [r3, r6]	@ unaligned
 1234 058e C0F80320 		str	r2, [r0, #3]	@ unaligned
 1235              	.L99:
 1236              	.LBE128:
 755:Generated_Source\PSoC6\pdl\middleware\ble/cy_ble_event_handler.c ****                                   0, CY_BLE_GATT_DB_CCCD_COUNT + CY_BLE_CCCD_CRC_BYTE);
 756:Generated_Source\PSoC6\pdl\middleware\ble/cy_ble_event_handler.c ****                 }            
 757:Generated_Source\PSoC6\pdl\middleware\ble/cy_ble_event_handler.c ****             }        
 758:Generated_Source\PSoC6\pdl\middleware\ble/cy_ble_event_handler.c ****         #endif /* CY_BLE_GATT_ROLE_SERVER && (CY_BLE_BONDING_REQUIREMENT == CY_BLE_BONDING_YES) */
 759:Generated_Source\PSoC6\pdl\middleware\ble/cy_ble_event_handler.c **** 
 760:Generated_Source\PSoC6\pdl\middleware\ble/cy_ble_event_handler.c ****             (void)Cy_BLE_InvokeServiceEventHandler((uint32_t)event, (void*)evParam);
 1237              		.loc 1 760 0
 1238 0592 2946     		mov	r1, r5
 1239 0594 2046     		mov	r0, r4
 1240 0596 FFF7FEFF 		bl	Cy_BLE_InvokeServiceEventHandler
 1241              	.LVL127:
 761:Generated_Source\PSoC6\pdl\middleware\ble/cy_ble_event_handler.c ****             break;
 1242              		.loc 1 761 0
 1243 059a 6BE0     		b	.L35
 1244              	.LVL128:
 1245              	.L53:
 1246 059c 0B88     		ldrh	r3, [r1]	@ unaligned
 1247 059e ADF80430 		strh	r3, [sp, #4]	@ unaligned
 1248              	.LVL129:
 1249              	.LBB129:
 1250              	.LBB130:
 893:Generated_Source\PSoC6\pdl\middleware\ble/cy_ble_gap.h ****     {
 1251              		.loc 2 893 0
 1252 05a2 9DF80530 		ldrb	r3, [sp, #5]	@ zero_extendqisi2
 1253 05a6 1BB9     		cbnz	r3, .L100
 895:Generated_Source\PSoC6\pdl\middleware\ble/cy_ble_gap.h ****     }
 1254              		.loc 2 895 0
 1255 05a8 0021     		movs	r1, #0
 1256              	.LVL130:
 1257 05aa 1A4A     		ldr	r2, .L111+16
 1258 05ac D154     		strb	r1, [r2, r3]
 1259 05ae 05E0     		b	.L101
 1260              	.LVL131:
 1261              	.L100:
 900:Generated_Source\PSoC6\pdl\middleware\ble/cy_ble_gap.h ****     }
 1262              		.loc 2 900 0
 1263 05b0 23B9     		cbnz	r3, .L101
ARM GAS  C:\Users\gjl\AppData\Local\Temp\ccRZOvUj.s 			page 55


 1264 05b2 4FF46171 		mov	r1, #900
 1265              	.LVL132:
 1266 05b6 1448     		ldr	r0, .L111+4
 1267              	.LVL133:
 1268 05b8 FFF7FEFF 		bl	Cy_SysLib_AssertFailed
 1269              	.LVL134:
 1270              	.L101:
 1271              	.LBE130:
 1272              	.LBE129:
 762:Generated_Source\PSoC6\pdl\middleware\ble/cy_ble_event_handler.c **** 
 763:Generated_Source\PSoC6\pdl\middleware\ble/cy_ble_event_handler.c ****         case CY_BLE_EVT_GATT_DISCONNECT_IND:
 764:Generated_Source\PSoC6\pdl\middleware\ble/cy_ble_event_handler.c ****         #if (CY_BLE_GATT_ROLE_CLIENT)
 765:Generated_Source\PSoC6\pdl\middleware\ble/cy_ble_event_handler.c ****             if((Cy_BLE_GetConnectionState(*(cy_stc_ble_conn_handle_t*)evParam) == CY_BLE_CONN_STATE
 766:Generated_Source\PSoC6\pdl\middleware\ble/cy_ble_event_handler.c ****                (CY_BLE_BONDING_REQUIREMENT == CY_BLE_BONDING_YES))
 767:Generated_Source\PSoC6\pdl\middleware\ble/cy_ble_event_handler.c ****             {
 768:Generated_Source\PSoC6\pdl\middleware\ble/cy_ble_event_handler.c ****                 Cy_BLE_SetConnectionState(*(cy_stc_ble_conn_handle_t*)evParam,
 769:Generated_Source\PSoC6\pdl\middleware\ble/cy_ble_event_handler.c ****                                           CY_BLE_CONN_STATE_CLIENT_DISCONNECTED_DISCOVERED);
 770:Generated_Source\PSoC6\pdl\middleware\ble/cy_ble_event_handler.c ****             }
 771:Generated_Source\PSoC6\pdl\middleware\ble/cy_ble_event_handler.c ****             else
 772:Generated_Source\PSoC6\pdl\middleware\ble/cy_ble_event_handler.c ****         #endif /* CY_BLE_GATT_ROLE_CLIENT */
 773:Generated_Source\PSoC6\pdl\middleware\ble/cy_ble_event_handler.c ****             {
 774:Generated_Source\PSoC6\pdl\middleware\ble/cy_ble_event_handler.c ****                 Cy_BLE_SetConnectionState(*(cy_stc_ble_conn_handle_t*)evParam, CY_BLE_CONN_STATE_DI
 775:Generated_Source\PSoC6\pdl\middleware\ble/cy_ble_event_handler.c ****             #if (CY_BLE_GATT_ROLE_CLIENT)
 776:Generated_Source\PSoC6\pdl\middleware\ble/cy_ble_event_handler.c ****                 (void)Cy_BLE_GATTC_RemoveConnHandle(*(cy_stc_ble_conn_handle_t*)evParam);
 777:Generated_Source\PSoC6\pdl\middleware\ble/cy_ble_event_handler.c ****             #endif /* CY_BLE_GATT_ROLE_CLIENT */
 778:Generated_Source\PSoC6\pdl\middleware\ble/cy_ble_event_handler.c ****             }
 779:Generated_Source\PSoC6\pdl\middleware\ble/cy_ble_event_handler.c **** 
 780:Generated_Source\PSoC6\pdl\middleware\ble/cy_ble_event_handler.c ****             #if ((CY_BLE_GAP_ROLE_PERIPHERAL || CY_BLE_GAP_ROLE_CENTRAL))
 781:Generated_Source\PSoC6\pdl\middleware\ble/cy_ble_event_handler.c ****                 cy_ble_pairStatus[(*(cy_stc_ble_conn_handle_t *)evParam).attId] = false;
 1273              		.loc 1 781 0
 1274 05bc 6B78     		ldrb	r3, [r5, #1]	@ zero_extendqisi2
 1275 05be 0021     		movs	r1, #0
 1276 05c0 154A     		ldr	r2, .L111+20
 1277 05c2 D154     		strb	r1, [r2, r3]
 782:Generated_Source\PSoC6\pdl\middleware\ble/cy_ble_event_handler.c ****             #endif /*((CY_BLE_GAP_ROLE_PERIPHERAL || CY_BLE_GAP_ROLE_CENTRAL))*/
 783:Generated_Source\PSoC6\pdl\middleware\ble/cy_ble_event_handler.c ****         
 784:Generated_Source\PSoC6\pdl\middleware\ble/cy_ble_event_handler.c ****             (void)Cy_BLE_InvokeServiceEventHandler((uint32_t)event, (void*)evParam);
 1278              		.loc 1 784 0
 1279 05c4 2946     		mov	r1, r5
 1280 05c6 2046     		mov	r0, r4
 1281 05c8 FFF7FEFF 		bl	Cy_BLE_InvokeServiceEventHandler
 1282              	.LVL135:
 785:Generated_Source\PSoC6\pdl\middleware\ble/cy_ble_event_handler.c ****             break;
 1283              		.loc 1 785 0
 1284 05cc 52E0     		b	.L35
 1285              	.LVL136:
 1286              	.L57:
 1287              	.LBB131:
 786:Generated_Source\PSoC6\pdl\middleware\ble/cy_ble_event_handler.c **** 
 787:Generated_Source\PSoC6\pdl\middleware\ble/cy_ble_event_handler.c ****         case CY_BLE_EVT_GATTS_XCNHG_MTU_REQ:
 788:Generated_Source\PSoC6\pdl\middleware\ble/cy_ble_event_handler.c ****         {
 789:Generated_Source\PSoC6\pdl\middleware\ble/cy_ble_event_handler.c ****             cy_stc_ble_gatt_xchg_mtu_param_t mtuParam;
 790:Generated_Source\PSoC6\pdl\middleware\ble/cy_ble_event_handler.c ****             mtuParam.connHandle = ((cy_stc_ble_gatt_xchg_mtu_param_t*)evParam)->connHandle;
 1288              		.loc 1 790 0
 1289 05ce 0B88     		ldrh	r3, [r1]
 1290 05d0 ADF81430 		strh	r3, [sp, #20]	@ movhi
 791:Generated_Source\PSoC6\pdl\middleware\ble/cy_ble_event_handler.c ****             mtuParam.mtu = CY_BLE_GATT_MTU;
ARM GAS  C:\Users\gjl\AppData\Local\Temp\ccRZOvUj.s 			page 56


 1291              		.loc 1 791 0
 1292 05d4 1723     		movs	r3, #23
 1293 05d6 ADF81630 		strh	r3, [sp, #22]	@ movhi
 792:Generated_Source\PSoC6\pdl\middleware\ble/cy_ble_event_handler.c ****             
 793:Generated_Source\PSoC6\pdl\middleware\ble/cy_ble_event_handler.c ****             (void)Cy_BLE_GATTS_ExchangeMtuRsp(&mtuParam);
 1294              		.loc 1 793 0
 1295 05da 05A8     		add	r0, sp, #20
 1296              	.LVL137:
 1297 05dc FFF7FEFF 		bl	Cy_BLE_GATTS_ExchangeMtuRsp
 1298              	.LVL138:
 1299              	.LBE131:
 794:Generated_Source\PSoC6\pdl\middleware\ble/cy_ble_event_handler.c ****         }
 795:Generated_Source\PSoC6\pdl\middleware\ble/cy_ble_event_handler.c ****         break;
 1300              		.loc 1 795 0
 1301 05e0 48E0     		b	.L35
 1302              	.LVL139:
 1303              	.L58:
 1304              	.LBB132:
 796:Generated_Source\PSoC6\pdl\middleware\ble/cy_ble_event_handler.c ****     #endif /* CY_BLE_GATT_ROLE_SERVER || CY_BLE_GATT_ROLE_CLIENT */
 797:Generated_Source\PSoC6\pdl\middleware\ble/cy_ble_event_handler.c **** 
 798:Generated_Source\PSoC6\pdl\middleware\ble/cy_ble_event_handler.c ****     #if (CY_BLE_GATT_ROLE_CLIENT)
 799:Generated_Source\PSoC6\pdl\middleware\ble/cy_ble_event_handler.c ****         case CY_BLE_EVT_GAPC_SCAN_PROGRESS_RESULT:
 800:Generated_Source\PSoC6\pdl\middleware\ble/cy_ble_event_handler.c ****             (void)Cy_BLE_InvokeServiceEventHandler((uint32_t)event, (void*)evParam);
 801:Generated_Source\PSoC6\pdl\middleware\ble/cy_ble_event_handler.c ****             break;
 802:Generated_Source\PSoC6\pdl\middleware\ble/cy_ble_event_handler.c ****     #endif /* CY_BLE_GATT_ROLE_CLIENT */
 803:Generated_Source\PSoC6\pdl\middleware\ble/cy_ble_event_handler.c **** 
 804:Generated_Source\PSoC6\pdl\middleware\ble/cy_ble_event_handler.c ****     #if (CY_BLE_GATT_ROLE_SERVER)
 805:Generated_Source\PSoC6\pdl\middleware\ble/cy_ble_event_handler.c ****         case CY_BLE_EVT_GATTS_WRITE_REQ:
 806:Generated_Source\PSoC6\pdl\middleware\ble/cy_ble_event_handler.c ****         {
 807:Generated_Source\PSoC6\pdl\middleware\ble/cy_ble_event_handler.c ****             cy_en_ble_gatt_err_code_t gattErr;
 808:Generated_Source\PSoC6\pdl\middleware\ble/cy_ble_event_handler.c ****             gattErr = Cy_BLE_GATTS_WriteEventHandler((cy_stc_ble_gatts_write_cmd_req_param_t*)evPar
 1305              		.loc 1 808 0
 1306 05e2 0846     		mov	r0, r1
 1307              	.LVL140:
 1308 05e4 FFF7FEFF 		bl	Cy_BLE_GATTS_WriteEventHandler
 1309              	.LVL141:
 809:Generated_Source\PSoC6\pdl\middleware\ble/cy_ble_event_handler.c ****             if(gattErr == CY_BLE_GATT_ERR_NONE)
 1310              		.loc 1 809 0
 1311 05e8 0146     		mov	r1, r0
 1312 05ea 20B9     		cbnz	r0, .L102
 810:Generated_Source\PSoC6\pdl\middleware\ble/cy_ble_event_handler.c ****             {
 811:Generated_Source\PSoC6\pdl\middleware\ble/cy_ble_event_handler.c ****                 gattErr = Cy_BLE_InvokeServiceEventHandler((uint32_t)event, (void*)evParam);
 1313              		.loc 1 811 0
 1314 05ec 2946     		mov	r1, r5
 1315 05ee 2046     		mov	r0, r4
 1316              	.LVL142:
 1317 05f0 FFF7FEFF 		bl	Cy_BLE_InvokeServiceEventHandler
 1318              	.LVL143:
 1319 05f4 0146     		mov	r1, r0
 1320              	.LVL144:
 1321              	.L102:
 812:Generated_Source\PSoC6\pdl\middleware\ble/cy_ble_event_handler.c ****             }
 813:Generated_Source\PSoC6\pdl\middleware\ble/cy_ble_event_handler.c ****             Cy_BLE_SendWriteResponse((cy_stc_ble_gatts_write_cmd_req_param_t*)evParam, gattErr);
 1322              		.loc 1 813 0
 1323 05f6 2846     		mov	r0, r5
 1324 05f8 FFF7FEFF 		bl	Cy_BLE_SendWriteResponse
 1325              	.LVL145:
ARM GAS  C:\Users\gjl\AppData\Local\Temp\ccRZOvUj.s 			page 57


 1326              	.LBE132:
 814:Generated_Source\PSoC6\pdl\middleware\ble/cy_ble_event_handler.c ****         }
 815:Generated_Source\PSoC6\pdl\middleware\ble/cy_ble_event_handler.c ****         break;
 1327              		.loc 1 815 0
 1328 05fc 3AE0     		b	.L35
 1329              	.LVL146:
 1330              	.L51:
 816:Generated_Source\PSoC6\pdl\middleware\ble/cy_ble_event_handler.c **** 
 817:Generated_Source\PSoC6\pdl\middleware\ble/cy_ble_event_handler.c ****         case CY_BLE_EVT_GATTS_WRITE_CMD_REQ:
 818:Generated_Source\PSoC6\pdl\middleware\ble/cy_ble_event_handler.c ****             (void)Cy_BLE_InvokeServiceEventHandler((uint32_t)event, (void*)evParam);
 1331              		.loc 1 818 0
 1332 05fe FFF7FEFF 		bl	Cy_BLE_InvokeServiceEventHandler
 1333              	.LVL147:
 819:Generated_Source\PSoC6\pdl\middleware\ble/cy_ble_event_handler.c ****             break;
 1334              		.loc 1 819 0
 1335 0602 37E0     		b	.L35
 1336              	.L112:
 1337              		.align	2
 1338              	.L111:
 1339 0604 00000000 		.word	cy_ble_connHandle
 1340 0608 00000000 		.word	.LC2
 1341 060c 00000000 		.word	cy_ble_peerBonding
 1342 0610 08000000 		.word	.LANCHOR0+8
 1343 0614 00000000 		.word	cy_ble_connState
 1344 0618 00000000 		.word	cy_ble_pairStatus
 1345 061c 00000000 		.word	cy_ble_advState
 1346 0620 00000000 		.word	cy_ble_devConnRole
 1347 0624 00000000 		.word	cy_ble_state
 1348 0628 00000000 		.word	cy_ble_eventHandlerFlag
 1349 062c 00000000 		.word	cy_ble_configPtr
 1350 0630 00000000 		.word	cy_ble_advIndex
 1351 0634 00000000 		.word	cy_ble_advertisingIntervalType
 1352 0638 00000000 		.word	cy_ble_busyStatus
 1353 063c 00000000 		.word	cy_ble_attValuesCccdMultiple
 1354 0640 00000000 		.word	Cy_BLE_ApplCallback
 1355 0644 04000100 		.word	65540
 1356              	.LVL148:
 1357              	.L61:
 820:Generated_Source\PSoC6\pdl\middleware\ble/cy_ble_event_handler.c **** 
 821:Generated_Source\PSoC6\pdl\middleware\ble/cy_ble_event_handler.c ****         case CY_BLE_EVT_GATTS_PREP_WRITE_REQ:
 822:Generated_Source\PSoC6\pdl\middleware\ble/cy_ble_event_handler.c ****             (void)Cy_BLE_InvokeServiceEventHandler((uint32_t)event, (void*)evParam);
 1358              		.loc 1 822 0
 1359 0648 FFF7FEFF 		bl	Cy_BLE_InvokeServiceEventHandler
 1360              	.LVL149:
 823:Generated_Source\PSoC6\pdl\middleware\ble/cy_ble_event_handler.c ****             break;
 1361              		.loc 1 823 0
 1362 064c 12E0     		b	.L35
 1363              	.LVL150:
 1364              	.L62:
 824:Generated_Source\PSoC6\pdl\middleware\ble/cy_ble_event_handler.c **** 
 825:Generated_Source\PSoC6\pdl\middleware\ble/cy_ble_event_handler.c ****         case CY_BLE_EVT_GATTS_EXEC_WRITE_REQ:
 826:Generated_Source\PSoC6\pdl\middleware\ble/cy_ble_event_handler.c ****             (void)Cy_BLE_InvokeServiceEventHandler((uint32_t)event, (void*)evParam);
 1365              		.loc 1 826 0
 1366 064e FFF7FEFF 		bl	Cy_BLE_InvokeServiceEventHandler
 1367              	.LVL151:
 827:Generated_Source\PSoC6\pdl\middleware\ble/cy_ble_event_handler.c ****             break;
 1368              		.loc 1 827 0
ARM GAS  C:\Users\gjl\AppData\Local\Temp\ccRZOvUj.s 			page 58


 1369 0652 0FE0     		b	.L35
 1370              	.LVL152:
 1371              	.L59:
 828:Generated_Source\PSoC6\pdl\middleware\ble/cy_ble_event_handler.c **** 
 829:Generated_Source\PSoC6\pdl\middleware\ble/cy_ble_event_handler.c ****         case CY_BLE_EVT_GATTS_HANDLE_VALUE_CNF:
 830:Generated_Source\PSoC6\pdl\middleware\ble/cy_ble_event_handler.c ****             (void)Cy_BLE_InvokeServiceEventHandler((uint32_t)event, (void*)evParam);
 1372              		.loc 1 830 0
 1373 0654 FFF7FEFF 		bl	Cy_BLE_InvokeServiceEventHandler
 1374              	.LVL153:
 831:Generated_Source\PSoC6\pdl\middleware\ble/cy_ble_event_handler.c ****             break;
 1375              		.loc 1 831 0
 1376 0658 0CE0     		b	.L35
 1377              	.LVL154:
 1378              	.L63:
 832:Generated_Source\PSoC6\pdl\middleware\ble/cy_ble_event_handler.c **** 
 833:Generated_Source\PSoC6\pdl\middleware\ble/cy_ble_event_handler.c ****         case CY_BLE_EVT_GATTS_READ_CHAR_VAL_ACCESS_REQ:
 834:Generated_Source\PSoC6\pdl\middleware\ble/cy_ble_event_handler.c ****         #if (CY_BLE_GATT_DB_CCCD_COUNT != 0u)
 835:Generated_Source\PSoC6\pdl\middleware\ble/cy_ble_event_handler.c ****             (void)Cy_BLE_GATTS_ReadAttributeValueCCCDReqHandler((cy_stc_ble_gatts_char_val_read_req
 1379              		.loc 1 835 0
 1380 065a 0846     		mov	r0, r1
 1381              	.LVL155:
 1382 065c FFF7FEFF 		bl	Cy_BLE_GATTS_ReadAttributeValueCCCDReqHandler
 1383              	.LVL156:
 836:Generated_Source\PSoC6\pdl\middleware\ble/cy_ble_event_handler.c ****         #endif  /* (CY_BLE_GATT_DB_CCCD_COUNT != 0u) */
 837:Generated_Source\PSoC6\pdl\middleware\ble/cy_ble_event_handler.c ****             (void)Cy_BLE_InvokeServiceEventHandler((uint32_t)event, (void*)evParam);
 1384              		.loc 1 837 0
 1385 0660 2946     		mov	r1, r5
 1386 0662 2046     		mov	r0, r4
 1387 0664 FFF7FEFF 		bl	Cy_BLE_InvokeServiceEventHandler
 1388              	.LVL157:
 838:Generated_Source\PSoC6\pdl\middleware\ble/cy_ble_event_handler.c ****             break;
 1389              		.loc 1 838 0
 1390 0668 04E0     		b	.L35
 1391              	.LVL158:
 1392              	.L38:
 839:Generated_Source\PSoC6\pdl\middleware\ble/cy_ble_event_handler.c ****     #endif /* CY_BLE_GATT_ROLE_SERVER */
 840:Generated_Source\PSoC6\pdl\middleware\ble/cy_ble_event_handler.c **** 
 841:Generated_Source\PSoC6\pdl\middleware\ble/cy_ble_event_handler.c ****     #if (CY_BLE_GATT_ROLE_CLIENT)
 842:Generated_Source\PSoC6\pdl\middleware\ble/cy_ble_event_handler.c ****         case CY_BLE_EVT_GATTC_READ_BY_GROUP_TYPE_RSP:
 843:Generated_Source\PSoC6\pdl\middleware\ble/cy_ble_event_handler.c ****             Cy_BLE_ReadByGroupEventHandler((cy_stc_ble_gattc_read_by_grp_rsp_param_t*)evParam);
 844:Generated_Source\PSoC6\pdl\middleware\ble/cy_ble_event_handler.c ****             break;
 845:Generated_Source\PSoC6\pdl\middleware\ble/cy_ble_event_handler.c **** 
 846:Generated_Source\PSoC6\pdl\middleware\ble/cy_ble_event_handler.c ****         case CY_BLE_EVT_GATTC_READ_BY_TYPE_RSP:
 847:Generated_Source\PSoC6\pdl\middleware\ble/cy_ble_event_handler.c ****             Cy_BLE_ReadByTypeEventHandler((cy_stc_ble_gattc_read_by_type_rsp_param_t*)evParam);
 848:Generated_Source\PSoC6\pdl\middleware\ble/cy_ble_event_handler.c ****             break;
 849:Generated_Source\PSoC6\pdl\middleware\ble/cy_ble_event_handler.c **** 
 850:Generated_Source\PSoC6\pdl\middleware\ble/cy_ble_event_handler.c ****         case CY_BLE_EVT_GATTC_READ_BLOB_RSP:
 851:Generated_Source\PSoC6\pdl\middleware\ble/cy_ble_event_handler.c ****             (void)Cy_BLE_InvokeServiceEventHandler((uint32_t)event, (void*)evParam);
 852:Generated_Source\PSoC6\pdl\middleware\ble/cy_ble_event_handler.c ****             break;
 853:Generated_Source\PSoC6\pdl\middleware\ble/cy_ble_event_handler.c **** 
 854:Generated_Source\PSoC6\pdl\middleware\ble/cy_ble_event_handler.c ****         case CY_BLE_EVT_GATTC_LONG_PROCEDURE_END:
 855:Generated_Source\PSoC6\pdl\middleware\ble/cy_ble_event_handler.c ****             Cy_BLE_LongProcedureEndEventHandler(((cy_stc_ble_gattc_long_procedure_end_param_t*)evPa
 856:Generated_Source\PSoC6\pdl\middleware\ble/cy_ble_event_handler.c ****             break;
 857:Generated_Source\PSoC6\pdl\middleware\ble/cy_ble_event_handler.c **** 
 858:Generated_Source\PSoC6\pdl\middleware\ble/cy_ble_event_handler.c ****         case CY_BLE_EVT_GATTC_FIND_INFO_RSP:
 859:Generated_Source\PSoC6\pdl\middleware\ble/cy_ble_event_handler.c ****             Cy_BLE_FindInfoEventHandler((cy_stc_ble_gattc_find_info_rsp_param_t*)evParam);
 860:Generated_Source\PSoC6\pdl\middleware\ble/cy_ble_event_handler.c ****             break;
ARM GAS  C:\Users\gjl\AppData\Local\Temp\ccRZOvUj.s 			page 59


 861:Generated_Source\PSoC6\pdl\middleware\ble/cy_ble_event_handler.c **** 
 862:Generated_Source\PSoC6\pdl\middleware\ble/cy_ble_event_handler.c ****         case CY_BLE_EVT_GATTC_ERROR_RSP:
 863:Generated_Source\PSoC6\pdl\middleware\ble/cy_ble_event_handler.c ****             Cy_BLE_ErrorResponseEventHandler((cy_stc_ble_gatt_err_param_t*)evParam);
 864:Generated_Source\PSoC6\pdl\middleware\ble/cy_ble_event_handler.c ****             (void)Cy_BLE_InvokeServiceEventHandler((uint32_t)event, (void*)evParam);
 865:Generated_Source\PSoC6\pdl\middleware\ble/cy_ble_event_handler.c ****             break;
 866:Generated_Source\PSoC6\pdl\middleware\ble/cy_ble_event_handler.c **** 
 867:Generated_Source\PSoC6\pdl\middleware\ble/cy_ble_event_handler.c ****         case CY_BLE_EVT_GATTC_HANDLE_VALUE_NTF:
 868:Generated_Source\PSoC6\pdl\middleware\ble/cy_ble_event_handler.c ****             (void)Cy_BLE_InvokeServiceEventHandler((uint32_t)event, (void*)evParam);
 869:Generated_Source\PSoC6\pdl\middleware\ble/cy_ble_event_handler.c ****             break;
 870:Generated_Source\PSoC6\pdl\middleware\ble/cy_ble_event_handler.c **** 
 871:Generated_Source\PSoC6\pdl\middleware\ble/cy_ble_event_handler.c ****         case CY_BLE_EVT_GATTC_HANDLE_VALUE_IND:
 872:Generated_Source\PSoC6\pdl\middleware\ble/cy_ble_event_handler.c ****             Cy_BLE_GATTC_IndicationEventHandler((cy_stc_ble_gattc_handle_value_ind_param_t*)evParam
 873:Generated_Source\PSoC6\pdl\middleware\ble/cy_ble_event_handler.c ****             (void)Cy_BLE_InvokeServiceEventHandler((uint32_t)event, (void*)evParam);
 874:Generated_Source\PSoC6\pdl\middleware\ble/cy_ble_event_handler.c **** 
 875:Generated_Source\PSoC6\pdl\middleware\ble/cy_ble_event_handler.c ****             /* Respond with a Handle Value Confirmation when request handled */
 876:Generated_Source\PSoC6\pdl\middleware\ble/cy_ble_event_handler.c ****             if((cy_ble_eventHandlerFlag & CY_BLE_CALLBACK) == 0u)
 877:Generated_Source\PSoC6\pdl\middleware\ble/cy_ble_event_handler.c ****             {
 878:Generated_Source\PSoC6\pdl\middleware\ble/cy_ble_event_handler.c ****                 cy_stc_ble_gattc_confirmation_req_t confirmationParam;
 879:Generated_Source\PSoC6\pdl\middleware\ble/cy_ble_event_handler.c ****                 confirmationParam.connHandle = ((cy_stc_ble_gattc_handle_value_ind_param_t*)evParam
 880:Generated_Source\PSoC6\pdl\middleware\ble/cy_ble_event_handler.c **** 
 881:Generated_Source\PSoC6\pdl\middleware\ble/cy_ble_event_handler.c ****                 (void)Cy_BLE_GATTC_Confirmation(&confirmationParam);
 882:Generated_Source\PSoC6\pdl\middleware\ble/cy_ble_event_handler.c ****             }
 883:Generated_Source\PSoC6\pdl\middleware\ble/cy_ble_event_handler.c ****             break;
 884:Generated_Source\PSoC6\pdl\middleware\ble/cy_ble_event_handler.c **** 
 885:Generated_Source\PSoC6\pdl\middleware\ble/cy_ble_event_handler.c ****         case CY_BLE_EVT_GATTC_READ_RSP:
 886:Generated_Source\PSoC6\pdl\middleware\ble/cy_ble_event_handler.c ****             (void)Cy_BLE_InvokeServiceEventHandler((uint32_t)event, (void*)evParam);
 887:Generated_Source\PSoC6\pdl\middleware\ble/cy_ble_event_handler.c ****             break;
 888:Generated_Source\PSoC6\pdl\middleware\ble/cy_ble_event_handler.c **** 
 889:Generated_Source\PSoC6\pdl\middleware\ble/cy_ble_event_handler.c ****         case CY_BLE_EVT_GATTC_READ_MULTI_RSP:
 890:Generated_Source\PSoC6\pdl\middleware\ble/cy_ble_event_handler.c ****             (void)Cy_BLE_InvokeServiceEventHandler((uint32_t)event, (void*)evParam);
 891:Generated_Source\PSoC6\pdl\middleware\ble/cy_ble_event_handler.c ****             break;
 892:Generated_Source\PSoC6\pdl\middleware\ble/cy_ble_event_handler.c **** 
 893:Generated_Source\PSoC6\pdl\middleware\ble/cy_ble_event_handler.c ****         case CY_BLE_EVT_GATTC_WRITE_RSP:
 894:Generated_Source\PSoC6\pdl\middleware\ble/cy_ble_event_handler.c ****             (void)Cy_BLE_InvokeServiceEventHandler((uint32_t)event, (void*)evParam);
 895:Generated_Source\PSoC6\pdl\middleware\ble/cy_ble_event_handler.c ****             break;
 896:Generated_Source\PSoC6\pdl\middleware\ble/cy_ble_event_handler.c **** 
 897:Generated_Source\PSoC6\pdl\middleware\ble/cy_ble_event_handler.c ****         case CY_BLE_EVT_GATTC_EXEC_WRITE_RSP:
 898:Generated_Source\PSoC6\pdl\middleware\ble/cy_ble_event_handler.c ****             (void)Cy_BLE_InvokeServiceEventHandler((uint32_t)event, (void*)evParam);
 899:Generated_Source\PSoC6\pdl\middleware\ble/cy_ble_event_handler.c ****             break;
 900:Generated_Source\PSoC6\pdl\middleware\ble/cy_ble_event_handler.c ****             
 901:Generated_Source\PSoC6\pdl\middleware\ble/cy_ble_event_handler.c ****         case CY_BLE_EVT_GATTC_STOP_CMD_COMPLETE:
 902:Generated_Source\PSoC6\pdl\middleware\ble/cy_ble_event_handler.c ****             {
 903:Generated_Source\PSoC6\pdl\middleware\ble/cy_ble_event_handler.c ****                 uint32_t discIdx = Cy_BLE_GetDiscoveryIdx(*(cy_stc_ble_conn_handle_t *)evParam);
 904:Generated_Source\PSoC6\pdl\middleware\ble/cy_ble_event_handler.c ****                 if( (Cy_BLE_GetConnectionState(*(cy_stc_ble_conn_handle_t *)evParam) == CY_BLE_CONN
 905:Generated_Source\PSoC6\pdl\middleware\ble/cy_ble_event_handler.c ****                     (discIdx < CY_BLE_GATTC_COUNT) && (cy_ble_discovery[discIdx].autoDiscoveryFlag 
 906:Generated_Source\PSoC6\pdl\middleware\ble/cy_ble_event_handler.c ****                 {    
 907:Generated_Source\PSoC6\pdl\middleware\ble/cy_ble_event_handler.c ****                     
 908:Generated_Source\PSoC6\pdl\middleware\ble/cy_ble_event_handler.c ****                     cy_stc_ble_gattc_read_req_t readReqParam =
 909:Generated_Source\PSoC6\pdl\middleware\ble/cy_ble_event_handler.c ****                     {
 910:Generated_Source\PSoC6\pdl\middleware\ble/cy_ble_event_handler.c ****                         .attrHandle = cy_ble_discovery[discIdx].inclInfo.inclHandleRange.startHandl
 911:Generated_Source\PSoC6\pdl\middleware\ble/cy_ble_event_handler.c ****                         .connHandle = *(cy_stc_ble_conn_handle_t *)evParam
 912:Generated_Source\PSoC6\pdl\middleware\ble/cy_ble_event_handler.c ****                     };
 913:Generated_Source\PSoC6\pdl\middleware\ble/cy_ble_event_handler.c ****                     
 914:Generated_Source\PSoC6\pdl\middleware\ble/cy_ble_event_handler.c ****                     /* Get the included service UUID when the included service uses a 128-bit
 915:Generated_Source\PSoC6\pdl\middleware\ble/cy_ble_event_handler.c ****                      * UUID, a Read Request is used. The Attribute Handle for the Read Request is
 916:Generated_Source\PSoC6\pdl\middleware\ble/cy_ble_event_handler.c ****                      * the Attribute Handle of the included service.
 917:Generated_Source\PSoC6\pdl\middleware\ble/cy_ble_event_handler.c ****                      */
ARM GAS  C:\Users\gjl\AppData\Local\Temp\ccRZOvUj.s 			page 60


 918:Generated_Source\PSoC6\pdl\middleware\ble/cy_ble_event_handler.c **** 
 919:Generated_Source\PSoC6\pdl\middleware\ble/cy_ble_event_handler.c ****                     if(Cy_BLE_GATTC_ReadCharacteristicValue(&readReqParam) != CY_BLE_SUCCESS)
 920:Generated_Source\PSoC6\pdl\middleware\ble/cy_ble_event_handler.c ****                     {
 921:Generated_Source\PSoC6\pdl\middleware\ble/cy_ble_event_handler.c ****                         Cy_BLE_ApplCallback((uint32_t)CY_BLE_EVT_GATTC_INCL_DISCOVERY_FAILED, (cy_s
 922:Generated_Source\PSoC6\pdl\middleware\ble/cy_ble_event_handler.c ****                         cy_ble_discovery[discIdx].autoDiscoveryFlag = 0u;
 923:Generated_Source\PSoC6\pdl\middleware\ble/cy_ble_event_handler.c ****                     }
 924:Generated_Source\PSoC6\pdl\middleware\ble/cy_ble_event_handler.c ****                     
 925:Generated_Source\PSoC6\pdl\middleware\ble/cy_ble_event_handler.c ****                     cy_ble_eventHandlerFlag &= (uint8_t) ~CY_BLE_CALLBACK;
 926:Generated_Source\PSoC6\pdl\middleware\ble/cy_ble_event_handler.c ****                 }
 927:Generated_Source\PSoC6\pdl\middleware\ble/cy_ble_event_handler.c ****             }     
 928:Generated_Source\PSoC6\pdl\middleware\ble/cy_ble_event_handler.c ****             break;
 929:Generated_Source\PSoC6\pdl\middleware\ble/cy_ble_event_handler.c ****     #endif /* CY_BLE_GATT_ROLE_CLIENT */
 930:Generated_Source\PSoC6\pdl\middleware\ble/cy_ble_event_handler.c **** 
 931:Generated_Source\PSoC6\pdl\middleware\ble/cy_ble_event_handler.c ****     #if ((CY_BLE_GAP_ROLE_PERIPHERAL || CY_BLE_GAP_ROLE_CENTRAL) && (CY_BLE_BONDING_REQUIREMENT == 
 932:Generated_Source\PSoC6\pdl\middleware\ble/cy_ble_event_handler.c ****         case CY_BLE_EVT_PENDING_FLASH_WRITE:
 933:Generated_Source\PSoC6\pdl\middleware\ble/cy_ble_event_handler.c ****             cy_ble_pendingFlashWrite |= CY_BLE_PENDING_STACK_FLASH_WRITE_BIT;
 1393              		.loc 1 933 0
 1394 066a 0B4A     		ldr	r2, .L113
 1395 066c 1378     		ldrb	r3, [r2]	@ zero_extendqisi2
 1396 066e 43F00103 		orr	r3, r3, #1
 1397 0672 1370     		strb	r3, [r2]
 1398              	.LVL159:
 1399              	.L35:
 934:Generated_Source\PSoC6\pdl\middleware\ble/cy_ble_event_handler.c ****             break;
 935:Generated_Source\PSoC6\pdl\middleware\ble/cy_ble_event_handler.c ****     #endif  /* (CY_BLE_BONDING_REQUIREMENT == CY_BLE_BONDING_YES) */
 936:Generated_Source\PSoC6\pdl\middleware\ble/cy_ble_event_handler.c **** 
 937:Generated_Source\PSoC6\pdl\middleware\ble/cy_ble_event_handler.c ****         default:
 938:Generated_Source\PSoC6\pdl\middleware\ble/cy_ble_event_handler.c ****             break;
 939:Generated_Source\PSoC6\pdl\middleware\ble/cy_ble_event_handler.c ****     }
 940:Generated_Source\PSoC6\pdl\middleware\ble/cy_ble_event_handler.c **** 
 941:Generated_Source\PSoC6\pdl\middleware\ble/cy_ble_event_handler.c ****     if((cy_ble_eventHandlerFlag & (CY_BLE_CALLBACK | CY_BLE_ENABLE_ALL_EVENTS)) != 0u)
 1400              		.loc 1 941 0
 1401 0674 094B     		ldr	r3, .L113+4
 1402 0676 1B78     		ldrb	r3, [r3]	@ zero_extendqisi2
 1403 0678 13F0110F 		tst	r3, #17
 1404 067c 09D0     		beq	.L34
 942:Generated_Source\PSoC6\pdl\middleware\ble/cy_ble_event_handler.c ****     {
 943:Generated_Source\PSoC6\pdl\middleware\ble/cy_ble_event_handler.c ****         cy_ble_eventHandlerFlag &= (uint8_t) ~CY_BLE_CALLBACK;
 1405              		.loc 1 943 0
 1406 067e 074A     		ldr	r2, .L113+4
 1407 0680 1378     		ldrb	r3, [r2]	@ zero_extendqisi2
 1408 0682 03F0FE03 		and	r3, r3, #254
 1409 0686 1370     		strb	r3, [r2]
 944:Generated_Source\PSoC6\pdl\middleware\ble/cy_ble_event_handler.c ****         Cy_BLE_ApplCallback((uint32_t)event, evParam);
 1410              		.loc 1 944 0
 1411 0688 054B     		ldr	r3, .L113+8
 1412 068a 1B68     		ldr	r3, [r3]
 1413 068c 2946     		mov	r1, r5
 1414 068e 2046     		mov	r0, r4
 1415 0690 9847     		blx	r3
 1416              	.LVL160:
 1417              	.L34:
 945:Generated_Source\PSoC6\pdl\middleware\ble/cy_ble_event_handler.c ****     }
 946:Generated_Source\PSoC6\pdl\middleware\ble/cy_ble_event_handler.c **** }
 1418              		.loc 1 946 0
 1419 0692 0CB0     		add	sp, sp, #48
 1420              		.cfi_def_cfa_offset 16
ARM GAS  C:\Users\gjl\AppData\Local\Temp\ccRZOvUj.s 			page 61


 1421              		@ sp needed
 1422 0694 70BD     		pop	{r4, r5, r6, pc}
 1423              	.LVL161:
 1424              	.L114:
 1425 0696 00BF     		.align	2
 1426              	.L113:
 1427 0698 00000000 		.word	cy_ble_pendingFlashWrite
 1428 069c 00000000 		.word	cy_ble_eventHandlerFlag
 1429 06a0 00000000 		.word	Cy_BLE_ApplCallback
 1430              		.cfi_endproc
 1431              	.LFE293:
 1432              		.size	Cy_BLE_EventHandler, .-Cy_BLE_EventHandler
 1433              		.comm	cy_ble_eventHandler,8,4
 1434              		.comm	cy_ble_advertisingIntervalType,1,1
 1435              		.comm	cy_ble_cmdStatus,4,4
 1436              		.comm	cy_ble_eventHandlerFlag,1,1
 1437              		.comm	cy_ble_busyStatus,1,4
 1438              		.section	.rodata
 1439              		.align	2
 1440              		.set	.LANCHOR0,. + 0
 1441              	.LC0:
 1442 0000 3F       		.byte	63
 1443 0001 06       		.byte	6
 1444 0002 00       		.byte	0
 1445 0003 00       		.byte	0
 1446 0004 00       		.byte	0
 1447 0005 00       		.byte	0
 1448 0006 00       		.byte	0
 1449 0007 00       		.byte	0
 1450              	.LC1:
 1451 0008 FF       		.byte	-1
 1452 0009 FF       		.byte	-1
 1453              		.section	.rodata.str1.4,"aMS",%progbits,1
 1454              		.align	2
 1455              	.LC2:
 1456 0000 47656E65 		.ascii	"Generated_Source\\PSoC6\\pdl\\middleware\\ble\\cy_b"
 1456      72617465 
 1456      645F536F 
 1456      75726365 
 1456      5C50536F 
 1457 002e 6C655F67 		.ascii	"le_gap.h\000"
 1457      61702E68 
 1457      00
 1458              		.bss
 1459              		.align	2
 1460              		.set	.LANCHOR1,. + 0
 1461              		.type	gPrepWriteReqMem.14054, %object
 1462              		.size	gPrepWriteReqMem.14054, 12
 1463              	gPrepWriteReqMem.14054:
 1464 0000 00000000 		.space	12
 1464      00000000 
 1464      00000000 
 1465              		.text
 1466              	.Letext0:
 1467              		.file 3 "c:\\program files (x86)\\cypress\\psoc creator\\4.2\\psoc creator\\import\\gnu\\arm\\5.4.
 1468              		.file 4 "c:\\program files (x86)\\cypress\\psoc creator\\4.2\\psoc creator\\import\\gnu\\arm\\5.4.
 1469              		.file 5 "Generated_Source\\PSoC6\\pdl\\devices/psoc6/psoc63/include/cy8c6347bzi_bld53.h"
ARM GAS  C:\Users\gjl\AppData\Local\Temp\ccRZOvUj.s 			page 62


 1470              		.file 6 "Generated_Source\\PSoC6\\pdl\\devices/psoc6/ip/cyip_sflash.h"
 1471              		.file 7 "Generated_Source\\PSoC6\\pdl\\drivers/peripheral/syslib/cy_syslib.h"
 1472              		.file 8 "Generated_Source\\PSoC6\\pdl\\drivers/peripheral/sysint/cy_sysint.h"
 1473              		.file 9 "Generated_Source\\PSoC6\\pdl\\middleware\\ble\\cy_ble_stack.h"
 1474              		.file 10 "Generated_Source\\PSoC6\\pdl\\middleware\\ble\\cy_ble_stack_host_main.h"
 1475              		.file 11 "Generated_Source\\PSoC6\\pdl\\middleware\\ble\\cy_ble_stack_gatt.h"
 1476              		.file 12 "Generated_Source\\PSoC6\\pdl\\middleware\\ble\\cy_ble_stack_gap.h"
 1477              		.file 13 "Generated_Source\\PSoC6\\pdl\\middleware\\ble\\cy_ble_stack_gap_central.h"
 1478              		.file 14 "Generated_Source\\PSoC6\\pdl\\middleware\\ble\\cy_ble_stack_gap_peripheral.h"
 1479              		.file 15 "Generated_Source\\PSoC6\\pdl\\middleware\\ble\\cy_ble_stack_gatt_server.h"
 1480              		.file 16 "Generated_Source\\PSoC6\\pdl\\middleware\\ble\\cy_ble_stack_gatt_db.h"
 1481              		.file 17 "Generated_Source\\PSoC6\\pdl\\middleware\\ble\\cy_ble_gatt.h"
 1482              		.file 18 "Generated_Source\\PSoC6\\pdl\\middleware\\ble\\cy_ble_stack_l2cap.h"
 1483              		.file 19 "Generated_Source\\PSoC6\\pdl\\middleware\\ble\\cy_ble.h"
 1484              		.file 20 "Generated_Source\\PSoC6\\pdl\\middleware\\ble\\cy_ble_event_handler.h"
 1485              		.file 21 "Generated_Source\\PSoC6\\pdl\\cmsis/include/core_cm4.h"
 1486              		.file 22 "Generated_Source\\PSoC6\\pdl\\middleware\\ble\\cy_ble_hal_pvt.h"
 1487              		.section	.debug_info,"",%progbits
 1488              	.Ldebug_info0:
 1489 0000 A5370000 		.4byte	0x37a5
 1490 0004 0400     		.2byte	0x4
 1491 0006 00000000 		.4byte	.Ldebug_abbrev0
 1492 000a 04       		.byte	0x4
 1493 000b 01       		.uleb128 0x1
 1494 000c 21730000 		.4byte	.LASF1125
 1495 0010 0C       		.byte	0xc
 1496 0011 34640000 		.4byte	.LASF1126
 1497 0015 823A0000 		.4byte	.LASF1127
 1498 0019 18000000 		.4byte	.Ldebug_ranges0+0x18
 1499 001d 00000000 		.4byte	0
 1500 0021 00000000 		.4byte	.Ldebug_line0
 1501 0025 02       		.uleb128 0x2
 1502 0026 04       		.byte	0x4
 1503 0027 05       		.byte	0x5
 1504 0028 696E7400 		.ascii	"int\000"
 1505 002c 03       		.uleb128 0x3
 1506 002d 04       		.byte	0x4
 1507 002e 07       		.byte	0x7
 1508 002f 14790000 		.4byte	.LASF0
 1509 0033 03       		.uleb128 0x3
 1510 0034 08       		.byte	0x8
 1511 0035 05       		.byte	0x5
 1512 0036 2E000000 		.4byte	.LASF1
 1513 003a 03       		.uleb128 0x3
 1514 003b 08       		.byte	0x8
 1515 003c 04       		.byte	0x4
 1516 003d 830B0000 		.4byte	.LASF2
 1517 0041 03       		.uleb128 0x3
 1518 0042 01       		.byte	0x1
 1519 0043 06       		.byte	0x6
 1520 0044 99600000 		.4byte	.LASF3
 1521 0048 04       		.uleb128 0x4
 1522 0049 501A0000 		.4byte	.LASF6
 1523 004d 03       		.byte	0x3
 1524 004e 1D       		.byte	0x1d
 1525 004f 53000000 		.4byte	0x53
 1526 0053 03       		.uleb128 0x3
ARM GAS  C:\Users\gjl\AppData\Local\Temp\ccRZOvUj.s 			page 63


 1527 0054 01       		.byte	0x1
 1528 0055 08       		.byte	0x8
 1529 0056 9A3F0000 		.4byte	.LASF4
 1530 005a 03       		.uleb128 0x3
 1531 005b 02       		.byte	0x2
 1532 005c 05       		.byte	0x5
 1533 005d EE530000 		.4byte	.LASF5
 1534 0061 04       		.uleb128 0x4
 1535 0062 FA280000 		.4byte	.LASF7
 1536 0066 03       		.byte	0x3
 1537 0067 2B       		.byte	0x2b
 1538 0068 6C000000 		.4byte	0x6c
 1539 006c 03       		.uleb128 0x3
 1540 006d 02       		.byte	0x2
 1541 006e 07       		.byte	0x7
 1542 006f 33390000 		.4byte	.LASF8
 1543 0073 04       		.uleb128 0x4
 1544 0074 97580000 		.4byte	.LASF9
 1545 0078 03       		.byte	0x3
 1546 0079 3F       		.byte	0x3f
 1547 007a 7E000000 		.4byte	0x7e
 1548 007e 03       		.uleb128 0x3
 1549 007f 04       		.byte	0x4
 1550 0080 05       		.byte	0x5
 1551 0081 3D580000 		.4byte	.LASF10
 1552 0085 04       		.uleb128 0x4
 1553 0086 7E480000 		.4byte	.LASF11
 1554 008a 03       		.byte	0x3
 1555 008b 41       		.byte	0x41
 1556 008c 90000000 		.4byte	0x90
 1557 0090 03       		.uleb128 0x3
 1558 0091 04       		.byte	0x4
 1559 0092 07       		.byte	0x7
 1560 0093 B2010000 		.4byte	.LASF12
 1561 0097 03       		.uleb128 0x3
 1562 0098 08       		.byte	0x8
 1563 0099 07       		.byte	0x7
 1564 009a 03660000 		.4byte	.LASF13
 1565 009e 03       		.uleb128 0x3
 1566 009f 04       		.byte	0x4
 1567 00a0 07       		.byte	0x7
 1568 00a1 B95A0000 		.4byte	.LASF14
 1569 00a5 05       		.uleb128 0x5
 1570 00a6 04       		.byte	0x4
 1571 00a7 03       		.uleb128 0x3
 1572 00a8 01       		.byte	0x1
 1573 00a9 08       		.byte	0x8
 1574 00aa F56A0000 		.4byte	.LASF15
 1575 00ae 04       		.uleb128 0x4
 1576 00af 9E3C0000 		.4byte	.LASF16
 1577 00b3 04       		.byte	0x4
 1578 00b4 18       		.byte	0x18
 1579 00b5 48000000 		.4byte	0x48
 1580 00b9 04       		.uleb128 0x4
 1581 00ba 24650000 		.4byte	.LASF17
 1582 00be 04       		.byte	0x4
 1583 00bf 24       		.byte	0x24
ARM GAS  C:\Users\gjl\AppData\Local\Temp\ccRZOvUj.s 			page 64


 1584 00c0 61000000 		.4byte	0x61
 1585 00c4 04       		.uleb128 0x4
 1586 00c5 C1760000 		.4byte	.LASF18
 1587 00c9 04       		.byte	0x4
 1588 00ca 2C       		.byte	0x2c
 1589 00cb 73000000 		.4byte	0x73
 1590 00cf 04       		.uleb128 0x4
 1591 00d0 CC090000 		.4byte	.LASF19
 1592 00d4 04       		.byte	0x4
 1593 00d5 30       		.byte	0x30
 1594 00d6 85000000 		.4byte	0x85
 1595 00da 06       		.uleb128 0x6
 1596 00db 02       		.byte	0x2
 1597 00dc 5A000000 		.4byte	0x5a
 1598 00e0 05       		.byte	0x5
 1599 00e1 24       		.byte	0x24
 1600 00e2 9B040000 		.4byte	0x49b
 1601 00e6 07       		.uleb128 0x7
 1602 00e7 D76E0000 		.4byte	.LASF20
 1603 00eb 71       		.sleb128 -15
 1604 00ec 07       		.uleb128 0x7
 1605 00ed AF1E0000 		.4byte	.LASF21
 1606 00f1 72       		.sleb128 -14
 1607 00f2 07       		.uleb128 0x7
 1608 00f3 07450000 		.4byte	.LASF22
 1609 00f7 73       		.sleb128 -13
 1610 00f8 07       		.uleb128 0x7
 1611 00f9 58770000 		.4byte	.LASF23
 1612 00fd 74       		.sleb128 -12
 1613 00fe 07       		.uleb128 0x7
 1614 00ff 003C0000 		.4byte	.LASF24
 1615 0103 75       		.sleb128 -11
 1616 0104 07       		.uleb128 0x7
 1617 0105 91330000 		.4byte	.LASF25
 1618 0109 76       		.sleb128 -10
 1619 010a 07       		.uleb128 0x7
 1620 010b 4C740000 		.4byte	.LASF26
 1621 010f 7B       		.sleb128 -5
 1622 0110 07       		.uleb128 0x7
 1623 0111 EA330000 		.4byte	.LASF27
 1624 0115 7C       		.sleb128 -4
 1625 0116 07       		.uleb128 0x7
 1626 0117 74750000 		.4byte	.LASF28
 1627 011b 7E       		.sleb128 -2
 1628 011c 07       		.uleb128 0x7
 1629 011d D9160000 		.4byte	.LASF29
 1630 0121 7F       		.sleb128 -1
 1631 0122 08       		.uleb128 0x8
 1632 0123 38440000 		.4byte	.LASF30
 1633 0127 00       		.byte	0
 1634 0128 08       		.uleb128 0x8
 1635 0129 3B670000 		.4byte	.LASF31
 1636 012d 01       		.byte	0x1
 1637 012e 08       		.uleb128 0x8
 1638 012f 06150000 		.4byte	.LASF32
 1639 0133 02       		.byte	0x2
 1640 0134 08       		.uleb128 0x8
ARM GAS  C:\Users\gjl\AppData\Local\Temp\ccRZOvUj.s 			page 65


 1641 0135 A03B0000 		.4byte	.LASF33
 1642 0139 03       		.byte	0x3
 1643 013a 08       		.uleb128 0x8
 1644 013b 2E5F0000 		.4byte	.LASF34
 1645 013f 04       		.byte	0x4
 1646 0140 08       		.uleb128 0x8
 1647 0141 670B0000 		.4byte	.LASF35
 1648 0145 05       		.byte	0x5
 1649 0146 08       		.uleb128 0x8
 1650 0147 7A320000 		.4byte	.LASF36
 1651 014b 06       		.byte	0x6
 1652 014c 08       		.uleb128 0x8
 1653 014d 7D590000 		.4byte	.LASF37
 1654 0151 07       		.byte	0x7
 1655 0152 08       		.uleb128 0x8
 1656 0153 12030000 		.4byte	.LASF38
 1657 0157 08       		.byte	0x8
 1658 0158 08       		.uleb128 0x8
 1659 0159 B52B0000 		.4byte	.LASF39
 1660 015d 09       		.byte	0x9
 1661 015e 08       		.uleb128 0x8
 1662 015f B9460000 		.4byte	.LASF40
 1663 0163 0A       		.byte	0xa
 1664 0164 08       		.uleb128 0x8
 1665 0165 D6680000 		.4byte	.LASF41
 1666 0169 0B       		.byte	0xb
 1667 016a 08       		.uleb128 0x8
 1668 016b E1170000 		.4byte	.LASF42
 1669 016f 0C       		.byte	0xc
 1670 0170 08       		.uleb128 0x8
 1671 0171 CA3D0000 		.4byte	.LASF43
 1672 0175 0D       		.byte	0xd
 1673 0176 08       		.uleb128 0x8
 1674 0177 5B610000 		.4byte	.LASF44
 1675 017b 0E       		.byte	0xe
 1676 017c 08       		.uleb128 0x8
 1677 017d 05430000 		.4byte	.LASF45
 1678 0181 0F       		.byte	0xf
 1679 0182 08       		.uleb128 0x8
 1680 0183 B1680000 		.4byte	.LASF46
 1681 0187 10       		.byte	0x10
 1682 0188 08       		.uleb128 0x8
 1683 0189 24380000 		.4byte	.LASF47
 1684 018d 11       		.byte	0x11
 1685 018e 08       		.uleb128 0x8
 1686 018f A1030000 		.4byte	.LASF48
 1687 0193 12       		.byte	0x12
 1688 0194 08       		.uleb128 0x8
 1689 0195 49080000 		.4byte	.LASF49
 1690 0199 13       		.byte	0x13
 1691 019a 08       		.uleb128 0x8
 1692 019b AB2F0000 		.4byte	.LASF50
 1693 019f 14       		.byte	0x14
 1694 01a0 08       		.uleb128 0x8
 1695 01a1 AF3D0000 		.4byte	.LASF51
 1696 01a5 15       		.byte	0x15
 1697 01a6 08       		.uleb128 0x8
ARM GAS  C:\Users\gjl\AppData\Local\Temp\ccRZOvUj.s 			page 66


 1698 01a7 530B0000 		.4byte	.LASF52
 1699 01ab 16       		.byte	0x16
 1700 01ac 08       		.uleb128 0x8
 1701 01ad A8760000 		.4byte	.LASF53
 1702 01b1 17       		.byte	0x17
 1703 01b2 08       		.uleb128 0x8
 1704 01b3 3B2D0000 		.4byte	.LASF54
 1705 01b7 18       		.byte	0x18
 1706 01b8 08       		.uleb128 0x8
 1707 01b9 DA750000 		.4byte	.LASF55
 1708 01bd 19       		.byte	0x19
 1709 01be 08       		.uleb128 0x8
 1710 01bf 7D240000 		.4byte	.LASF56
 1711 01c3 1A       		.byte	0x1a
 1712 01c4 08       		.uleb128 0x8
 1713 01c5 234C0000 		.4byte	.LASF57
 1714 01c9 1B       		.byte	0x1b
 1715 01ca 08       		.uleb128 0x8
 1716 01cb 616D0000 		.4byte	.LASF58
 1717 01cf 1C       		.byte	0x1c
 1718 01d0 08       		.uleb128 0x8
 1719 01d1 291C0000 		.4byte	.LASF59
 1720 01d5 1D       		.byte	0x1d
 1721 01d6 08       		.uleb128 0x8
 1722 01d7 1C440000 		.4byte	.LASF60
 1723 01db 1E       		.byte	0x1e
 1724 01dc 08       		.uleb128 0x8
 1725 01dd 1F670000 		.4byte	.LASF61
 1726 01e1 1F       		.byte	0x1f
 1727 01e2 08       		.uleb128 0x8
 1728 01e3 BF140000 		.4byte	.LASF62
 1729 01e7 20       		.byte	0x20
 1730 01e8 08       		.uleb128 0x8
 1731 01e9 843B0000 		.4byte	.LASF63
 1732 01ed 21       		.byte	0x21
 1733 01ee 08       		.uleb128 0x8
 1734 01ef 125F0000 		.4byte	.LASF64
 1735 01f3 22       		.byte	0x22
 1736 01f4 08       		.uleb128 0x8
 1737 01f5 950D0000 		.4byte	.LASF65
 1738 01f9 23       		.byte	0x23
 1739 01fa 08       		.uleb128 0x8
 1740 01fb A1330000 		.4byte	.LASF66
 1741 01ff 24       		.byte	0x24
 1742 0200 08       		.uleb128 0x8
 1743 0201 0B5A0000 		.4byte	.LASF67
 1744 0205 25       		.byte	0x25
 1745 0206 08       		.uleb128 0x8
 1746 0207 A8040000 		.4byte	.LASF68
 1747 020b 26       		.byte	0x26
 1748 020c 08       		.uleb128 0x8
 1749 020d 502D0000 		.4byte	.LASF69
 1750 0211 27       		.byte	0x27
 1751 0212 08       		.uleb128 0x8
 1752 0213 F8530000 		.4byte	.LASF70
 1753 0217 28       		.byte	0x28
 1754 0218 08       		.uleb128 0x8
ARM GAS  C:\Users\gjl\AppData\Local\Temp\ccRZOvUj.s 			page 67


 1755 0219 5C790000 		.4byte	.LASF71
 1756 021d 29       		.byte	0x29
 1757 021e 08       		.uleb128 0x8
 1758 021f 49410000 		.4byte	.LASF72
 1759 0223 2A       		.byte	0x2a
 1760 0224 08       		.uleb128 0x8
 1761 0225 D6000000 		.4byte	.LASF73
 1762 0229 2B       		.byte	0x2b
 1763 022a 08       		.uleb128 0x8
 1764 022b 2D420000 		.4byte	.LASF74
 1765 022f 2C       		.byte	0x2c
 1766 0230 08       		.uleb128 0x8
 1767 0231 C4010000 		.4byte	.LASF75
 1768 0235 2D       		.byte	0x2d
 1769 0236 08       		.uleb128 0x8
 1770 0237 F0420000 		.4byte	.LASF76
 1771 023b 2E       		.byte	0x2e
 1772 023c 08       		.uleb128 0x8
 1773 023d FD020000 		.4byte	.LASF77
 1774 0241 2F       		.byte	0x2f
 1775 0242 08       		.uleb128 0x8
 1776 0243 E7430000 		.4byte	.LASF78
 1777 0247 30       		.byte	0x30
 1778 0248 08       		.uleb128 0x8
 1779 0249 EF370000 		.4byte	.LASF79
 1780 024d 31       		.byte	0x31
 1781 024e 08       		.uleb128 0x8
 1782 024f F22E0000 		.4byte	.LASF80
 1783 0253 32       		.byte	0x32
 1784 0254 08       		.uleb128 0x8
 1785 0255 5D550000 		.4byte	.LASF81
 1786 0259 33       		.byte	0x33
 1787 025a 08       		.uleb128 0x8
 1788 025b C4780000 		.4byte	.LASF82
 1789 025f 34       		.byte	0x34
 1790 0260 08       		.uleb128 0x8
 1791 0261 58270000 		.4byte	.LASF83
 1792 0265 35       		.byte	0x35
 1793 0266 08       		.uleb128 0x8
 1794 0267 F64E0000 		.4byte	.LASF84
 1795 026b 36       		.byte	0x36
 1796 026c 08       		.uleb128 0x8
 1797 026d 626F0000 		.4byte	.LASF85
 1798 0271 37       		.byte	0x37
 1799 0272 08       		.uleb128 0x8
 1800 0273 1B1F0000 		.4byte	.LASF86
 1801 0277 38       		.byte	0x38
 1802 0278 08       		.uleb128 0x8
 1803 0279 50470000 		.4byte	.LASF87
 1804 027d 39       		.byte	0x39
 1805 027e 08       		.uleb128 0x8
 1806 027f 28690000 		.4byte	.LASF88
 1807 0283 3A       		.byte	0x3a
 1808 0284 08       		.uleb128 0x8
 1809 0285 46180000 		.4byte	.LASF89
 1810 0289 3B       		.byte	0x3b
 1811 028a 08       		.uleb128 0x8
ARM GAS  C:\Users\gjl\AppData\Local\Temp\ccRZOvUj.s 			page 68


 1812 028b F2610000 		.4byte	.LASF90
 1813 028f 3C       		.byte	0x3c
 1814 0290 08       		.uleb128 0x8
 1815 0291 85100000 		.4byte	.LASF91
 1816 0295 3D       		.byte	0x3d
 1817 0296 08       		.uleb128 0x8
 1818 0297 BB360000 		.4byte	.LASF92
 1819 029b 3E       		.byte	0x3e
 1820 029c 08       		.uleb128 0x8
 1821 029d 1B5B0000 		.4byte	.LASF93
 1822 02a1 3F       		.byte	0x3f
 1823 02a2 08       		.uleb128 0x8
 1824 02a3 76070000 		.4byte	.LASF94
 1825 02a7 40       		.byte	0x40
 1826 02a8 08       		.uleb128 0x8
 1827 02a9 692F0000 		.4byte	.LASF95
 1828 02ad 41       		.byte	0x41
 1829 02ae 08       		.uleb128 0x8
 1830 02af BA510000 		.4byte	.LASF96
 1831 02b3 42       		.byte	0x42
 1832 02b4 08       		.uleb128 0x8
 1833 02b5 F9730000 		.4byte	.LASF97
 1834 02b9 43       		.byte	0x43
 1835 02ba 08       		.uleb128 0x8
 1836 02bb D0220000 		.4byte	.LASF98
 1837 02bf 44       		.byte	0x44
 1838 02c0 08       		.uleb128 0x8
 1839 02c1 514A0000 		.4byte	.LASF99
 1840 02c5 45       		.byte	0x45
 1841 02c6 08       		.uleb128 0x8
 1842 02c7 776B0000 		.4byte	.LASF100
 1843 02cb 46       		.byte	0x46
 1844 02cc 08       		.uleb128 0x8
 1845 02cd E41A0000 		.4byte	.LASF101
 1846 02d1 47       		.byte	0x47
 1847 02d2 08       		.uleb128 0x8
 1848 02d3 AE410000 		.4byte	.LASF102
 1849 02d7 48       		.byte	0x48
 1850 02d8 08       		.uleb128 0x8
 1851 02d9 E4640000 		.4byte	.LASF103
 1852 02dd 49       		.byte	0x49
 1853 02de 08       		.uleb128 0x8
 1854 02df 18130000 		.4byte	.LASF104
 1855 02e3 4A       		.byte	0x4a
 1856 02e4 08       		.uleb128 0x8
 1857 02e5 FD380000 		.4byte	.LASF105
 1858 02e9 4B       		.byte	0x4b
 1859 02ea 08       		.uleb128 0x8
 1860 02eb DC1B0000 		.4byte	.LASF106
 1861 02ef 4C       		.byte	0x4c
 1862 02f0 08       		.uleb128 0x8
 1863 02f1 A6430000 		.4byte	.LASF107
 1864 02f5 4D       		.byte	0x4d
 1865 02f6 08       		.uleb128 0x8
 1866 02f7 B8660000 		.4byte	.LASF108
 1867 02fb 4E       		.byte	0x4e
 1868 02fc 08       		.uleb128 0x8
ARM GAS  C:\Users\gjl\AppData\Local\Temp\ccRZOvUj.s 			page 69


 1869 02fd 8E140000 		.4byte	.LASF109
 1870 0301 4F       		.byte	0x4f
 1871 0302 08       		.uleb128 0x8
 1872 0303 443B0000 		.4byte	.LASF110
 1873 0307 50       		.byte	0x50
 1874 0308 08       		.uleb128 0x8
 1875 0309 CA5E0000 		.4byte	.LASF111
 1876 030d 51       		.byte	0x51
 1877 030e 08       		.uleb128 0x8
 1878 030f C72F0000 		.4byte	.LASF112
 1879 0313 52       		.byte	0x52
 1880 0314 08       		.uleb128 0x8
 1881 0315 DA560000 		.4byte	.LASF113
 1882 0319 53       		.byte	0x53
 1883 031a 08       		.uleb128 0x8
 1884 031b 594F0000 		.4byte	.LASF114
 1885 031f 54       		.byte	0x54
 1886 0320 08       		.uleb128 0x8
 1887 0321 34570000 		.4byte	.LASF115
 1888 0325 55       		.byte	0x55
 1889 0326 08       		.uleb128 0x8
 1890 0327 66460000 		.4byte	.LASF116
 1891 032b 56       		.byte	0x56
 1892 032c 08       		.uleb128 0x8
 1893 032d CD0C0000 		.4byte	.LASF117
 1894 0331 57       		.byte	0x57
 1895 0332 08       		.uleb128 0x8
 1896 0333 951A0000 		.4byte	.LASF118
 1897 0337 58       		.byte	0x58
 1898 0338 08       		.uleb128 0x8
 1899 0339 CE0B0000 		.4byte	.LASF119
 1900 033d 59       		.byte	0x59
 1901 033e 08       		.uleb128 0x8
 1902 033f 7F190000 		.4byte	.LASF120
 1903 0343 5A       		.byte	0x5a
 1904 0344 08       		.uleb128 0x8
 1905 0345 55400000 		.4byte	.LASF121
 1906 0349 5B       		.byte	0x5b
 1907 034a 08       		.uleb128 0x8
 1908 034b E3620000 		.4byte	.LASF122
 1909 034f 5C       		.byte	0x5c
 1910 0350 08       		.uleb128 0x8
 1911 0351 B7110000 		.4byte	.LASF123
 1912 0355 5D       		.byte	0x5d
 1913 0356 08       		.uleb128 0x8
 1914 0357 3E370000 		.4byte	.LASF124
 1915 035b 5E       		.byte	0x5e
 1916 035c 08       		.uleb128 0x8
 1917 035d 255C0000 		.4byte	.LASF125
 1918 0361 5F       		.byte	0x5f
 1919 0362 08       		.uleb128 0x8
 1920 0363 9F080000 		.4byte	.LASF126
 1921 0367 60       		.byte	0x60
 1922 0368 08       		.uleb128 0x8
 1923 0369 912F0000 		.4byte	.LASF127
 1924 036d 61       		.byte	0x61
 1925 036e 08       		.uleb128 0x8
ARM GAS  C:\Users\gjl\AppData\Local\Temp\ccRZOvUj.s 			page 70


 1926 036f BD6E0000 		.4byte	.LASF128
 1927 0373 62       		.byte	0x62
 1928 0374 08       		.uleb128 0x8
 1929 0375 C61D0000 		.4byte	.LASF129
 1930 0379 63       		.byte	0x63
 1931 037a 08       		.uleb128 0x8
 1932 037b D4450000 		.4byte	.LASF130
 1933 037f 64       		.byte	0x64
 1934 0380 08       		.uleb128 0x8
 1935 0381 97680000 		.4byte	.LASF131
 1936 0385 65       		.byte	0x65
 1937 0386 08       		.uleb128 0x8
 1938 0387 24170000 		.4byte	.LASF132
 1939 038b 66       		.byte	0x66
 1940 038c 08       		.uleb128 0x8
 1941 038d A63C0000 		.4byte	.LASF133
 1942 0391 67       		.byte	0x67
 1943 0392 08       		.uleb128 0x8
 1944 0393 4D600000 		.4byte	.LASF134
 1945 0397 68       		.byte	0x68
 1946 0398 08       		.uleb128 0x8
 1947 0399 E50E0000 		.4byte	.LASF135
 1948 039d 69       		.byte	0x69
 1949 039e 08       		.uleb128 0x8
 1950 039f BE330000 		.4byte	.LASF136
 1951 03a3 6A       		.byte	0x6a
 1952 03a4 08       		.uleb128 0x8
 1953 03a5 365A0000 		.4byte	.LASF137
 1954 03a9 6B       		.byte	0x6b
 1955 03aa 08       		.uleb128 0x8
 1956 03ab 08590000 		.4byte	.LASF138
 1957 03af 6C       		.byte	0x6c
 1958 03b0 08       		.uleb128 0x8
 1959 03b1 48030000 		.4byte	.LASF139
 1960 03b5 6D       		.byte	0x6d
 1961 03b6 08       		.uleb128 0x8
 1962 03b7 0F2C0000 		.4byte	.LASF140
 1963 03bb 6E       		.byte	0x6e
 1964 03bc 08       		.uleb128 0x8
 1965 03bd D3520000 		.4byte	.LASF141
 1966 03c1 6F       		.byte	0x6f
 1967 03c2 08       		.uleb128 0x8
 1968 03c3 75740000 		.4byte	.LASF142
 1969 03c7 70       		.byte	0x70
 1970 03c8 08       		.uleb128 0x8
 1971 03c9 E1230000 		.4byte	.LASF143
 1972 03cd 71       		.byte	0x71
 1973 03ce 08       		.uleb128 0x8
 1974 03cf C04B0000 		.4byte	.LASF144
 1975 03d3 72       		.byte	0x72
 1976 03d4 08       		.uleb128 0x8
 1977 03d5 2C6C0000 		.4byte	.LASF145
 1978 03d9 73       		.byte	0x73
 1979 03da 08       		.uleb128 0x8
 1980 03db 891B0000 		.4byte	.LASF146
 1981 03df 74       		.byte	0x74
 1982 03e0 08       		.uleb128 0x8
ARM GAS  C:\Users\gjl\AppData\Local\Temp\ccRZOvUj.s 			page 71


 1983 03e1 5A430000 		.4byte	.LASF147
 1984 03e5 75       		.byte	0x75
 1985 03e6 08       		.uleb128 0x8
 1986 03e7 56500000 		.4byte	.LASF148
 1987 03eb 76       		.byte	0x76
 1988 03ec 08       		.uleb128 0x8
 1989 03ed 07710000 		.4byte	.LASF149
 1990 03f1 77       		.byte	0x77
 1991 03f2 08       		.uleb128 0x8
 1992 03f3 D5200000 		.4byte	.LASF150
 1993 03f7 78       		.byte	0x78
 1994 03f8 08       		.uleb128 0x8
 1995 03f9 89480000 		.4byte	.LASF151
 1996 03fd 79       		.byte	0x79
 1997 03fe 08       		.uleb128 0x8
 1998 03ff 42210000 		.4byte	.LASF152
 1999 0403 7A       		.byte	0x7a
 2000 0404 08       		.uleb128 0x8
 2001 0405 DD490000 		.4byte	.LASF153
 2002 0409 7B       		.byte	0x7b
 2003 040a 08       		.uleb128 0x8
 2004 040b 466B0000 		.4byte	.LASF154
 2005 040f 7C       		.byte	0x7c
 2006 0410 08       		.uleb128 0x8
 2007 0411 7F1A0000 		.4byte	.LASF155
 2008 0415 7D       		.byte	0x7d
 2009 0416 08       		.uleb128 0x8
 2010 0417 5E410000 		.4byte	.LASF156
 2011 041b 7E       		.byte	0x7e
 2012 041c 08       		.uleb128 0x8
 2013 041d 1E640000 		.4byte	.LASF157
 2014 0421 7F       		.byte	0x7f
 2015 0422 08       		.uleb128 0x8
 2016 0423 D5120000 		.4byte	.LASF158
 2017 0427 80       		.byte	0x80
 2018 0428 08       		.uleb128 0x8
 2019 0429 02380000 		.4byte	.LASF159
 2020 042d 81       		.byte	0x81
 2021 042e 08       		.uleb128 0x8
 2022 042f A75D0000 		.4byte	.LASF160
 2023 0433 82       		.byte	0x82
 2024 0434 08       		.uleb128 0x8
 2025 0435 97090000 		.4byte	.LASF161
 2026 0439 83       		.byte	0x83
 2027 043a 08       		.uleb128 0x8
 2028 043b 8C570000 		.4byte	.LASF162
 2029 043f 84       		.byte	0x84
 2030 0440 08       		.uleb128 0x8
 2031 0441 0F010000 		.4byte	.LASF163
 2032 0445 85       		.byte	0x85
 2033 0446 08       		.uleb128 0x8
 2034 0447 E3280000 		.4byte	.LASF164
 2035 044b 86       		.byte	0x86
 2036 044c 08       		.uleb128 0x8
 2037 044d BB500000 		.4byte	.LASF165
 2038 0451 87       		.byte	0x87
 2039 0452 08       		.uleb128 0x8
ARM GAS  C:\Users\gjl\AppData\Local\Temp\ccRZOvUj.s 			page 72


 2040 0453 8C710000 		.4byte	.LASF166
 2041 0457 88       		.byte	0x88
 2042 0458 08       		.uleb128 0x8
 2043 0459 83200000 		.4byte	.LASF167
 2044 045d 89       		.byte	0x89
 2045 045e 08       		.uleb128 0x8
 2046 045f C0210000 		.4byte	.LASF168
 2047 0463 8A       		.byte	0x8a
 2048 0464 08       		.uleb128 0x8
 2049 0465 783E0000 		.4byte	.LASF169
 2050 0469 8B       		.byte	0x8b
 2051 046a 08       		.uleb128 0x8
 2052 046b 5A220000 		.4byte	.LASF170
 2053 046f 8C       		.byte	0x8c
 2054 0470 08       		.uleb128 0x8
 2055 0471 3A630000 		.4byte	.LASF171
 2056 0475 8D       		.byte	0x8d
 2057 0476 08       		.uleb128 0x8
 2058 0477 490F0000 		.4byte	.LASF172
 2059 047b 8E       		.byte	0x8e
 2060 047c 08       		.uleb128 0x8
 2061 047d C3160000 		.4byte	.LASF173
 2062 0481 8F       		.byte	0x8f
 2063 0482 08       		.uleb128 0x8
 2064 0483 DB250000 		.4byte	.LASF174
 2065 0487 90       		.byte	0x90
 2066 0488 08       		.uleb128 0x8
 2067 0489 27580000 		.4byte	.LASF175
 2068 048d 91       		.byte	0x91
 2069 048e 08       		.uleb128 0x8
 2070 048f 300A0000 		.4byte	.LASF176
 2071 0493 92       		.byte	0x92
 2072 0494 08       		.uleb128 0x8
 2073 0495 9A200000 		.4byte	.LASF177
 2074 0499 F0       		.byte	0xf0
 2075 049a 00       		.byte	0
 2076 049b 04       		.uleb128 0x4
 2077 049c EC5C0000 		.4byte	.LASF178
 2078 04a0 05       		.byte	0x5
 2079 04a1 F4       		.byte	0xf4
 2080 04a2 DA000000 		.4byte	0xda
 2081 04a6 09       		.uleb128 0x9
 2082 04a7 CF000000 		.4byte	0xcf
 2083 04ab 09       		.uleb128 0x9
 2084 04ac AE000000 		.4byte	0xae
 2085 04b0 0A       		.uleb128 0xa
 2086 04b1 A6040000 		.4byte	0x4a6
 2087 04b5 0B       		.uleb128 0xb
 2088 04b6 B0040000 		.4byte	0x4b0
 2089 04ba C5040000 		.4byte	0x4c5
 2090 04be 0C       		.uleb128 0xc
 2091 04bf 9E000000 		.4byte	0x9e
 2092 04c3 01       		.byte	0x1
 2093 04c4 00       		.byte	0
 2094 04c5 09       		.uleb128 0x9
 2095 04c6 B9000000 		.4byte	0xb9
 2096 04ca 0D       		.uleb128 0xd
ARM GAS  C:\Users\gjl\AppData\Local\Temp\ccRZOvUj.s 			page 73


 2097 04cb 0080     		.2byte	0x8000
 2098 04cd 06       		.byte	0x6
 2099 04ce 21       		.byte	0x21
 2100 04cf 3D0A0000 		.4byte	0xa3d
 2101 04d3 0E       		.uleb128 0xe
 2102 04d4 C0540000 		.4byte	.LASF179
 2103 04d8 06       		.byte	0x6
 2104 04d9 22       		.byte	0x22
 2105 04da 3D0A0000 		.4byte	0xa3d
 2106 04de 00       		.byte	0
 2107 04df 0E       		.uleb128 0xe
 2108 04e0 0E2F0000 		.4byte	.LASF180
 2109 04e4 06       		.byte	0x6
 2110 04e5 23       		.byte	0x23
 2111 04e6 AB040000 		.4byte	0x4ab
 2112 04ea 01       		.byte	0x1
 2113 04eb 0E       		.uleb128 0xe
 2114 04ec 862F0000 		.4byte	.LASF181
 2115 04f0 06       		.byte	0x6
 2116 04f1 24       		.byte	0x24
 2117 04f2 C5040000 		.4byte	0x4c5
 2118 04f6 02       		.byte	0x2
 2119 04f7 0E       		.uleb128 0xe
 2120 04f8 033A0000 		.4byte	.LASF182
 2121 04fc 06       		.byte	0x6
 2122 04fd 25       		.byte	0x25
 2123 04fe 470A0000 		.4byte	0xa47
 2124 0502 04       		.byte	0x4
 2125 0503 0E       		.uleb128 0xe
 2126 0504 1B5C0000 		.4byte	.LASF183
 2127 0508 06       		.byte	0x6
 2128 0509 26       		.byte	0x26
 2129 050a C5040000 		.4byte	0x4c5
 2130 050e 0C       		.byte	0xc
 2131 050f 0E       		.uleb128 0xe
 2132 0510 0D3A0000 		.4byte	.LASF184
 2133 0514 06       		.byte	0x6
 2134 0515 27       		.byte	0x27
 2135 0516 670A0000 		.4byte	0xa67
 2136 051a 0E       		.byte	0xe
 2137 051b 0F       		.uleb128 0xf
 2138 051c 040D0000 		.4byte	.LASF185
 2139 0520 06       		.byte	0x6
 2140 0521 28       		.byte	0x28
 2141 0522 7C0A0000 		.4byte	0xa7c
 2142 0526 0006     		.2byte	0x600
 2143 0528 0F       		.uleb128 0xf
 2144 0529 70320000 		.4byte	.LASF186
 2145 052d 06       		.byte	0x6
 2146 052e 29       		.byte	0x29
 2147 052f AB040000 		.4byte	0x4ab
 2148 0533 0306     		.2byte	0x603
 2149 0535 0F       		.uleb128 0xf
 2150 0536 D6080000 		.4byte	.LASF187
 2151 053a 06       		.byte	0x6
 2152 053b 2A       		.byte	0x2a
 2153 053c AB040000 		.4byte	0x4ab
ARM GAS  C:\Users\gjl\AppData\Local\Temp\ccRZOvUj.s 			page 74


 2154 0540 0406     		.2byte	0x604
 2155 0542 0F       		.uleb128 0xf
 2156 0543 DC080000 		.4byte	.LASF188
 2157 0547 06       		.byte	0x6
 2158 0548 2B       		.byte	0x2b
 2159 0549 AB040000 		.4byte	0x4ab
 2160 054d 0506     		.2byte	0x605
 2161 054f 0F       		.uleb128 0xf
 2162 0550 DE0D0000 		.4byte	.LASF189
 2163 0554 06       		.byte	0x6
 2164 0555 2C       		.byte	0x2c
 2165 0556 AB040000 		.4byte	0x4ab
 2166 055a 0606     		.2byte	0x606
 2167 055c 0F       		.uleb128 0xf
 2168 055d 260A0000 		.4byte	.LASF190
 2169 0561 06       		.byte	0x6
 2170 0562 2D       		.byte	0x2d
 2171 0563 AB040000 		.4byte	0x4ab
 2172 0567 0706     		.2byte	0x607
 2173 0569 0F       		.uleb128 0xf
 2174 056a 5F4C0000 		.4byte	.LASF191
 2175 056e 06       		.byte	0x6
 2176 056f 2E       		.byte	0x2e
 2177 0570 AB040000 		.4byte	0x4ab
 2178 0574 0806     		.2byte	0x608
 2179 0576 0F       		.uleb128 0xf
 2180 0577 72350000 		.4byte	.LASF192
 2181 057b 06       		.byte	0x6
 2182 057c 2F       		.byte	0x2f
 2183 057d AB040000 		.4byte	0x4ab
 2184 0581 0906     		.2byte	0x609
 2185 0583 0F       		.uleb128 0xf
 2186 0584 67600000 		.4byte	.LASF193
 2187 0588 06       		.byte	0x6
 2188 0589 30       		.byte	0x30
 2189 058a AB040000 		.4byte	0x4ab
 2190 058e 0A06     		.2byte	0x60a
 2191 0590 0F       		.uleb128 0xf
 2192 0591 173A0000 		.4byte	.LASF194
 2193 0595 06       		.byte	0x6
 2194 0596 31       		.byte	0x31
 2195 0597 960A0000 		.4byte	0xa96
 2196 059b 0B06     		.2byte	0x60b
 2197 059d 0F       		.uleb128 0xf
 2198 059e AB140000 		.4byte	.LASF195
 2199 05a2 06       		.byte	0x6
 2200 05a3 32       		.byte	0x32
 2201 05a4 C5040000 		.4byte	0x4c5
 2202 05a8 4806     		.2byte	0x648
 2203 05aa 0F       		.uleb128 0xf
 2204 05ab 824B0000 		.4byte	.LASF196
 2205 05af 06       		.byte	0x6
 2206 05b0 33       		.byte	0x33
 2207 05b1 C5040000 		.4byte	0x4c5
 2208 05b5 4A06     		.2byte	0x64a
 2209 05b7 0F       		.uleb128 0xf
 2210 05b8 213A0000 		.4byte	.LASF197
ARM GAS  C:\Users\gjl\AppData\Local\Temp\ccRZOvUj.s 			page 75


 2211 05bc 06       		.byte	0x6
 2212 05bd 34       		.byte	0x34
 2213 05be B00A0000 		.4byte	0xab0
 2214 05c2 4C06     		.2byte	0x64c
 2215 05c4 0F       		.uleb128 0xf
 2216 05c5 B61F0000 		.4byte	.LASF198
 2217 05c9 06       		.byte	0x6
 2218 05ca 35       		.byte	0x35
 2219 05cb A6040000 		.4byte	0x4a6
 2220 05cf 6C06     		.2byte	0x66c
 2221 05d1 0F       		.uleb128 0xf
 2222 05d2 2B3A0000 		.4byte	.LASF199
 2223 05d6 06       		.byte	0x6
 2224 05d7 36       		.byte	0x36
 2225 05d8 CA0A0000 		.4byte	0xaca
 2226 05dc 7006     		.2byte	0x670
 2227 05de 0F       		.uleb128 0xf
 2228 05df F3490000 		.4byte	.LASF200
 2229 05e3 06       		.byte	0x6
 2230 05e4 37       		.byte	0x37
 2231 05e5 AB040000 		.4byte	0x4ab
 2232 05e9 4007     		.2byte	0x740
 2233 05eb 0F       		.uleb128 0xf
 2234 05ec 8D540000 		.4byte	.LASF201
 2235 05f0 06       		.byte	0x6
 2236 05f1 38       		.byte	0x38
 2237 05f2 AB040000 		.4byte	0x4ab
 2238 05f6 4107     		.2byte	0x741
 2239 05f8 0F       		.uleb128 0xf
 2240 05f9 353A0000 		.4byte	.LASF202
 2241 05fd 06       		.byte	0x6
 2242 05fe 39       		.byte	0x39
 2243 05ff E40A0000 		.4byte	0xae4
 2244 0603 4207     		.2byte	0x742
 2245 0605 0F       		.uleb128 0xf
 2246 0606 C25A0000 		.4byte	.LASF203
 2247 060a 06       		.byte	0x6
 2248 060b 3A       		.byte	0x3a
 2249 060c F90A0000 		.4byte	0xaf9
 2250 0610 0008     		.2byte	0x800
 2251 0612 0F       		.uleb128 0xf
 2252 0613 46090000 		.4byte	.LASF204
 2253 0617 06       		.byte	0x6
 2254 0618 3B       		.byte	0x3b
 2255 0619 FE0A0000 		.4byte	0xafe
 2256 061d 000A     		.2byte	0xa00
 2257 061f 0F       		.uleb128 0xf
 2258 0620 55090000 		.4byte	.LASF205
 2259 0624 06       		.byte	0x6
 2260 0625 3C       		.byte	0x3c
 2261 0626 030B0000 		.4byte	0xb03
 2262 062a 000C     		.2byte	0xc00
 2263 062c 0F       		.uleb128 0xf
 2264 062d 64090000 		.4byte	.LASF206
 2265 0631 06       		.byte	0x6
 2266 0632 3D       		.byte	0x3d
 2267 0633 080B0000 		.4byte	0xb08
ARM GAS  C:\Users\gjl\AppData\Local\Temp\ccRZOvUj.s 			page 76


 2268 0637 000E     		.2byte	0xe00
 2269 0639 0F       		.uleb128 0xf
 2270 063a 3F3A0000 		.4byte	.LASF207
 2271 063e 06       		.byte	0x6
 2272 063f 3E       		.byte	0x3e
 2273 0640 230B0000 		.4byte	0xb23
 2274 0644 0010     		.2byte	0x1000
 2275 0646 0F       		.uleb128 0xf
 2276 0647 5E2F0000 		.4byte	.LASF208
 2277 064b 06       		.byte	0x6
 2278 064c 3F       		.byte	0x3f
 2279 064d 380B0000 		.4byte	0xb38
 2280 0651 B814     		.2byte	0x14b8
 2281 0653 0F       		.uleb128 0xf
 2282 0654 89560000 		.4byte	.LASF209
 2283 0658 06       		.byte	0x6
 2284 0659 40       		.byte	0x40
 2285 065a 3D0B0000 		.4byte	0xb3d
 2286 065e C814     		.2byte	0x14c8
 2287 0660 0F       		.uleb128 0xf
 2288 0661 BE350000 		.4byte	.LASF210
 2289 0665 06       		.byte	0x6
 2290 0666 41       		.byte	0x41
 2291 0667 520B0000 		.4byte	0xb52
 2292 066b D814     		.2byte	0x14d8
 2293 066d 0F       		.uleb128 0xf
 2294 066e A42A0000 		.4byte	.LASF211
 2295 0672 06       		.byte	0x6
 2296 0673 42       		.byte	0x42
 2297 0674 570B0000 		.4byte	0xb57
 2298 0678 1815     		.2byte	0x1518
 2299 067a 0F       		.uleb128 0xf
 2300 067b 45560000 		.4byte	.LASF212
 2301 067f 06       		.byte	0x6
 2302 0680 43       		.byte	0x43
 2303 0681 5C0B0000 		.4byte	0xb5c
 2304 0685 5815     		.2byte	0x1558
 2305 0687 0F       		.uleb128 0xf
 2306 0688 15210000 		.4byte	.LASF213
 2307 068c 06       		.byte	0x6
 2308 068d 44       		.byte	0x44
 2309 068e 610B0000 		.4byte	0xb61
 2310 0692 9815     		.2byte	0x1598
 2311 0694 0F       		.uleb128 0xf
 2312 0695 71100000 		.4byte	.LASF214
 2313 0699 06       		.byte	0x6
 2314 069a 45       		.byte	0x45
 2315 069b 660B0000 		.4byte	0xb66
 2316 069f D815     		.2byte	0x15d8
 2317 06a1 0F       		.uleb128 0xf
 2318 06a2 493A0000 		.4byte	.LASF215
 2319 06a6 06       		.byte	0x6
 2320 06a7 46       		.byte	0x46
 2321 06a8 800B0000 		.4byte	0xb80
 2322 06ac 1816     		.2byte	0x1618
 2323 06ae 0F       		.uleb128 0xf
 2324 06af 014A0000 		.4byte	.LASF216
ARM GAS  C:\Users\gjl\AppData\Local\Temp\ccRZOvUj.s 			page 77


 2325 06b3 06       		.byte	0x6
 2326 06b4 47       		.byte	0x47
 2327 06b5 C5040000 		.4byte	0x4c5
 2328 06b9 0018     		.2byte	0x1800
 2329 06bb 0F       		.uleb128 0xf
 2330 06bc 533A0000 		.4byte	.LASF217
 2331 06c0 06       		.byte	0x6
 2332 06c1 48       		.byte	0x48
 2333 06c2 5D0A0000 		.4byte	0xa5d
 2334 06c6 0218     		.2byte	0x1802
 2335 06c8 0F       		.uleb128 0xf
 2336 06c9 CA410000 		.4byte	.LASF218
 2337 06cd 06       		.byte	0x6
 2338 06ce 49       		.byte	0x49
 2339 06cf A6040000 		.4byte	0x4a6
 2340 06d3 0418     		.2byte	0x1804
 2341 06d5 0F       		.uleb128 0xf
 2342 06d6 DF410000 		.4byte	.LASF219
 2343 06da 06       		.byte	0x6
 2344 06db 4A       		.byte	0x4a
 2345 06dc A6040000 		.4byte	0x4a6
 2346 06e0 0818     		.2byte	0x1808
 2347 06e2 0F       		.uleb128 0xf
 2348 06e3 F4410000 		.4byte	.LASF220
 2349 06e7 06       		.byte	0x6
 2350 06e8 4B       		.byte	0x4b
 2351 06e9 A6040000 		.4byte	0x4a6
 2352 06ed 0C18     		.2byte	0x180c
 2353 06ef 0F       		.uleb128 0xf
 2354 06f0 FA770000 		.4byte	.LASF221
 2355 06f4 06       		.byte	0x6
 2356 06f5 4C       		.byte	0x4c
 2357 06f6 A6040000 		.4byte	0x4a6
 2358 06fa 1018     		.2byte	0x1810
 2359 06fc 0F       		.uleb128 0xf
 2360 06fd 82020000 		.4byte	.LASF222
 2361 0701 06       		.byte	0x6
 2362 0702 4D       		.byte	0x4d
 2363 0703 5D0A0000 		.4byte	0xa5d
 2364 0707 1418     		.2byte	0x1814
 2365 0709 0F       		.uleb128 0xf
 2366 070a 683E0000 		.4byte	.LASF223
 2367 070e 06       		.byte	0x6
 2368 070f 4E       		.byte	0x4e
 2369 0710 C5040000 		.4byte	0x4c5
 2370 0714 1618     		.2byte	0x1816
 2371 0716 0F       		.uleb128 0xf
 2372 0717 74760000 		.4byte	.LASF224
 2373 071b 06       		.byte	0x6
 2374 071c 4F       		.byte	0x4f
 2375 071d A6040000 		.4byte	0x4a6
 2376 0721 1818     		.2byte	0x1818
 2377 0723 0F       		.uleb128 0xf
 2378 0724 22710000 		.4byte	.LASF225
 2379 0728 06       		.byte	0x6
 2380 0729 50       		.byte	0x50
 2381 072a A6040000 		.4byte	0x4a6
ARM GAS  C:\Users\gjl\AppData\Local\Temp\ccRZOvUj.s 			page 78


 2382 072e 1C18     		.2byte	0x181c
 2383 0730 0F       		.uleb128 0xf
 2384 0731 142B0000 		.4byte	.LASF226
 2385 0735 06       		.byte	0x6
 2386 0736 51       		.byte	0x51
 2387 0737 A6040000 		.4byte	0x4a6
 2388 073b 2018     		.2byte	0x1820
 2389 073d 0F       		.uleb128 0xf
 2390 073e A5500000 		.4byte	.LASF227
 2391 0742 06       		.byte	0x6
 2392 0743 52       		.byte	0x52
 2393 0744 A6040000 		.4byte	0x4a6
 2394 0748 2418     		.2byte	0x1824
 2395 074a 0F       		.uleb128 0xf
 2396 074b 8D020000 		.4byte	.LASF228
 2397 074f 06       		.byte	0x6
 2398 0750 53       		.byte	0x53
 2399 0751 9B0B0000 		.4byte	0xb9b
 2400 0755 2818     		.2byte	0x1828
 2401 0757 0F       		.uleb128 0xf
 2402 0758 BC4E0000 		.4byte	.LASF229
 2403 075c 06       		.byte	0x6
 2404 075d 54       		.byte	0x54
 2405 075e A6040000 		.4byte	0x4a6
 2406 0762 0020     		.2byte	0x2000
 2407 0764 0F       		.uleb128 0xf
 2408 0765 07080000 		.4byte	.LASF230
 2409 0769 06       		.byte	0x6
 2410 076a 55       		.byte	0x55
 2411 076b A6040000 		.4byte	0x4a6
 2412 076f 0420     		.2byte	0x2004
 2413 0771 0F       		.uleb128 0xf
 2414 0772 F01C0000 		.4byte	.LASF231
 2415 0776 06       		.byte	0x6
 2416 0777 56       		.byte	0x56
 2417 0778 A6040000 		.4byte	0x4a6
 2418 077c 0820     		.2byte	0x2008
 2419 077e 0F       		.uleb128 0xf
 2420 077f DB4B0000 		.4byte	.LASF232
 2421 0783 06       		.byte	0x6
 2422 0784 57       		.byte	0x57
 2423 0785 A6040000 		.4byte	0x4a6
 2424 0789 0C20     		.2byte	0x200c
 2425 078b 0F       		.uleb128 0xf
 2426 078c EE0B0000 		.4byte	.LASF233
 2427 0790 06       		.byte	0x6
 2428 0791 58       		.byte	0x58
 2429 0792 A6040000 		.4byte	0x4a6
 2430 0796 1020     		.2byte	0x2010
 2431 0798 0F       		.uleb128 0xf
 2432 0799 0C1E0000 		.4byte	.LASF234
 2433 079d 06       		.byte	0x6
 2434 079e 59       		.byte	0x59
 2435 079f A6040000 		.4byte	0x4a6
 2436 07a3 1420     		.2byte	0x2014
 2437 07a5 0F       		.uleb128 0xf
 2438 07a6 98020000 		.4byte	.LASF235
ARM GAS  C:\Users\gjl\AppData\Local\Temp\ccRZOvUj.s 			page 79


 2439 07aa 06       		.byte	0x6
 2440 07ab 5A       		.byte	0x5a
 2441 07ac B50B0000 		.4byte	0xbb5
 2442 07b0 1820     		.2byte	0x2018
 2443 07b2 0F       		.uleb128 0xf
 2444 07b3 6A780000 		.4byte	.LASF236
 2445 07b7 06       		.byte	0x6
 2446 07b8 5B       		.byte	0x5b
 2447 07b9 CB0B0000 		.4byte	0xbcb
 2448 07bd D820     		.2byte	0x20d8
 2449 07bf 0F       		.uleb128 0xf
 2450 07c0 A3020000 		.4byte	.LASF237
 2451 07c4 06       		.byte	0x6
 2452 07c5 5C       		.byte	0x5c
 2453 07c6 E60B0000 		.4byte	0xbe6
 2454 07ca 0042     		.2byte	0x4200
 2455 07cc 0F       		.uleb128 0xf
 2456 07cd 46520000 		.4byte	.LASF238
 2457 07d1 06       		.byte	0x6
 2458 07d2 5D       		.byte	0x5d
 2459 07d3 FC0B0000 		.4byte	0xbfc
 2460 07d7 005A     		.2byte	0x5a00
 2461 07d9 0F       		.uleb128 0xf
 2462 07da 16330000 		.4byte	.LASF239
 2463 07de 06       		.byte	0x6
 2464 07df 5E       		.byte	0x5e
 2465 07e0 120C0000 		.4byte	0xc12
 2466 07e4 0066     		.2byte	0x6600
 2467 07e6 0F       		.uleb128 0xf
 2468 07e7 AE020000 		.4byte	.LASF240
 2469 07eb 06       		.byte	0x6
 2470 07ec 5F       		.byte	0x5f
 2471 07ed 2D0C0000 		.4byte	0xc2d
 2472 07f1 006C     		.2byte	0x6c00
 2473 07f3 0F       		.uleb128 0xf
 2474 07f4 801F0000 		.4byte	.LASF241
 2475 07f8 06       		.byte	0x6
 2476 07f9 60       		.byte	0x60
 2477 07fa A6040000 		.4byte	0x4a6
 2478 07fe 0078     		.2byte	0x7800
 2479 0800 0F       		.uleb128 0xf
 2480 0801 2C610000 		.4byte	.LASF242
 2481 0805 06       		.byte	0x6
 2482 0806 62       		.byte	0x62
 2483 0807 A6040000 		.4byte	0x4a6
 2484 080b 0478     		.2byte	0x7804
 2485 080d 0F       		.uleb128 0xf
 2486 080e 87250000 		.4byte	.LASF243
 2487 0812 06       		.byte	0x6
 2488 0813 63       		.byte	0x63
 2489 0814 A6040000 		.4byte	0x4a6
 2490 0818 0878     		.2byte	0x7808
 2491 081a 0F       		.uleb128 0xf
 2492 081b 0A0B0000 		.4byte	.LASF244
 2493 081f 06       		.byte	0x6
 2494 0820 65       		.byte	0x65
 2495 0821 A6040000 		.4byte	0x4a6
ARM GAS  C:\Users\gjl\AppData\Local\Temp\ccRZOvUj.s 			page 80


 2496 0825 0C78     		.2byte	0x780c
 2497 0827 0F       		.uleb128 0xf
 2498 0828 07320000 		.4byte	.LASF245
 2499 082c 06       		.byte	0x6
 2500 082d 66       		.byte	0x66
 2501 082e A6040000 		.4byte	0x4a6
 2502 0832 1078     		.2byte	0x7810
 2503 0834 0F       		.uleb128 0xf
 2504 0835 44690000 		.4byte	.LASF246
 2505 0839 06       		.byte	0x6
 2506 083a 67       		.byte	0x67
 2507 083b A6040000 		.4byte	0x4a6
 2508 083f 1478     		.2byte	0x7814
 2509 0841 0F       		.uleb128 0xf
 2510 0842 800F0000 		.4byte	.LASF247
 2511 0846 06       		.byte	0x6
 2512 0847 68       		.byte	0x68
 2513 0848 A6040000 		.4byte	0x4a6
 2514 084c 1878     		.2byte	0x7818
 2515 084e 0F       		.uleb128 0xf
 2516 084f D12B0000 		.4byte	.LASF248
 2517 0853 06       		.byte	0x6
 2518 0854 69       		.byte	0x69
 2519 0855 A6040000 		.4byte	0x4a6
 2520 0859 1C78     		.2byte	0x781c
 2521 085b 0F       		.uleb128 0xf
 2522 085c B9020000 		.4byte	.LASF249
 2523 0860 06       		.byte	0x6
 2524 0861 6A       		.byte	0x6a
 2525 0862 470C0000 		.4byte	0xc47
 2526 0866 2078     		.2byte	0x7820
 2527 0868 0F       		.uleb128 0xf
 2528 0869 F44D0000 		.4byte	.LASF250
 2529 086d 06       		.byte	0x6
 2530 086e 6B       		.byte	0x6b
 2531 086f A6040000 		.4byte	0x4a6
 2532 0873 FC79     		.2byte	0x79fc
 2533 0875 0F       		.uleb128 0xf
 2534 0876 0B480000 		.4byte	.LASF251
 2535 087a 06       		.byte	0x6
 2536 087b 6C       		.byte	0x6c
 2537 087c A6040000 		.4byte	0x4a6
 2538 0880 007A     		.2byte	0x7a00
 2539 0882 0F       		.uleb128 0xf
 2540 0883 3F5C0000 		.4byte	.LASF252
 2541 0887 06       		.byte	0x6
 2542 0888 6E       		.byte	0x6e
 2543 0889 A6040000 		.4byte	0x4a6
 2544 088d 047A     		.2byte	0x7a04
 2545 088f 0F       		.uleb128 0xf
 2546 0890 765C0000 		.4byte	.LASF253
 2547 0894 06       		.byte	0x6
 2548 0895 6F       		.byte	0x6f
 2549 0896 A6040000 		.4byte	0x4a6
 2550 089a 087A     		.2byte	0x7a08
 2551 089c 0F       		.uleb128 0xf
 2552 089d 6E540000 		.4byte	.LASF254
ARM GAS  C:\Users\gjl\AppData\Local\Temp\ccRZOvUj.s 			page 81


 2553 08a1 06       		.byte	0x6
 2554 08a2 71       		.byte	0x71
 2555 08a3 A6040000 		.4byte	0x4a6
 2556 08a7 0C7A     		.2byte	0x7a0c
 2557 08a9 0F       		.uleb128 0xf
 2558 08aa C31E0000 		.4byte	.LASF255
 2559 08ae 06       		.byte	0x6
 2560 08af 72       		.byte	0x72
 2561 08b0 A6040000 		.4byte	0x4a6
 2562 08b4 107A     		.2byte	0x7a10
 2563 08b6 0F       		.uleb128 0xf
 2564 08b7 0F360000 		.4byte	.LASF256
 2565 08bb 06       		.byte	0x6
 2566 08bc 73       		.byte	0x73
 2567 08bd A6040000 		.4byte	0x4a6
 2568 08c1 147A     		.2byte	0x7a14
 2569 08c3 0F       		.uleb128 0xf
 2570 08c4 471B0000 		.4byte	.LASF257
 2571 08c8 06       		.byte	0x6
 2572 08c9 75       		.byte	0x75
 2573 08ca A6040000 		.4byte	0x4a6
 2574 08ce 187A     		.2byte	0x7a18
 2575 08d0 0F       		.uleb128 0xf
 2576 08d1 C4020000 		.4byte	.LASF258
 2577 08d5 06       		.byte	0x6
 2578 08d6 76       		.byte	0x76
 2579 08d7 610C0000 		.4byte	0xc61
 2580 08db 1C7A     		.2byte	0x7a1c
 2581 08dd 0F       		.uleb128 0xf
 2582 08de 78610000 		.4byte	.LASF259
 2583 08e2 06       		.byte	0x6
 2584 08e3 77       		.byte	0x77
 2585 08e4 A6040000 		.4byte	0x4a6
 2586 08e8 FC7B     		.2byte	0x7bfc
 2587 08ea 0F       		.uleb128 0xf
 2588 08eb 33300000 		.4byte	.LASF260
 2589 08ef 06       		.byte	0x6
 2590 08f0 79       		.byte	0x79
 2591 08f1 A6040000 		.4byte	0x4a6
 2592 08f5 007C     		.2byte	0x7c00
 2593 08f7 0F       		.uleb128 0xf
 2594 08f8 DC6D0000 		.4byte	.LASF261
 2595 08fc 06       		.byte	0x6
 2596 08fd 7B       		.byte	0x7b
 2597 08fe A6040000 		.4byte	0x4a6
 2598 0902 047C     		.2byte	0x7c04
 2599 0904 0F       		.uleb128 0xf
 2600 0905 A62C0000 		.4byte	.LASF262
 2601 0909 06       		.byte	0x6
 2602 090a 7C       		.byte	0x7c
 2603 090b A6040000 		.4byte	0x4a6
 2604 090f 087C     		.2byte	0x7c08
 2605 0911 0F       		.uleb128 0xf
 2606 0912 E76F0000 		.4byte	.LASF263
 2607 0916 06       		.byte	0x6
 2608 0917 7D       		.byte	0x7d
 2609 0918 A6040000 		.4byte	0x4a6
ARM GAS  C:\Users\gjl\AppData\Local\Temp\ccRZOvUj.s 			page 82


 2610 091c 0C7C     		.2byte	0x7c0c
 2611 091e 0F       		.uleb128 0xf
 2612 091f C8700000 		.4byte	.LASF264
 2613 0923 06       		.byte	0x6
 2614 0924 7F       		.byte	0x7f
 2615 0925 A6040000 		.4byte	0x4a6
 2616 0929 107C     		.2byte	0x7c10
 2617 092b 0F       		.uleb128 0xf
 2618 092c A6290000 		.4byte	.LASF265
 2619 0930 06       		.byte	0x6
 2620 0931 80       		.byte	0x80
 2621 0932 A6040000 		.4byte	0x4a6
 2622 0936 147C     		.2byte	0x7c14
 2623 0938 0F       		.uleb128 0xf
 2624 0939 FA780000 		.4byte	.LASF266
 2625 093d 06       		.byte	0x6
 2626 093e 82       		.byte	0x82
 2627 093f A6040000 		.4byte	0x4a6
 2628 0943 187C     		.2byte	0x7c18
 2629 0945 0F       		.uleb128 0xf
 2630 0946 00560000 		.4byte	.LASF267
 2631 094a 06       		.byte	0x6
 2632 094b 83       		.byte	0x83
 2633 094c A6040000 		.4byte	0x4a6
 2634 0950 1C7C     		.2byte	0x7c1c
 2635 0952 0F       		.uleb128 0xf
 2636 0953 9F590000 		.4byte	.LASF268
 2637 0957 06       		.byte	0x6
 2638 0958 85       		.byte	0x85
 2639 0959 A6040000 		.4byte	0x4a6
 2640 095d 207C     		.2byte	0x7c20
 2641 095f 0F       		.uleb128 0xf
 2642 0960 AB2D0000 		.4byte	.LASF269
 2643 0964 06       		.byte	0x6
 2644 0965 88       		.byte	0x88
 2645 0966 A6040000 		.4byte	0x4a6
 2646 096a 247C     		.2byte	0x7c24
 2647 096c 0F       		.uleb128 0xf
 2648 096d CF020000 		.4byte	.LASF270
 2649 0971 06       		.byte	0x6
 2650 0972 8A       		.byte	0x8a
 2651 0973 7B0C0000 		.4byte	0xc7b
 2652 0977 287C     		.2byte	0x7c28
 2653 0979 0F       		.uleb128 0xf
 2654 097a 89080000 		.4byte	.LASF271
 2655 097e 06       		.byte	0x6
 2656 097f 8B       		.byte	0x8b
 2657 0980 A6040000 		.4byte	0x4a6
 2658 0984 F87D     		.2byte	0x7df8
 2659 0986 0F       		.uleb128 0xf
 2660 0987 656C0000 		.4byte	.LASF272
 2661 098b 06       		.byte	0x6
 2662 098c 8C       		.byte	0x8c
 2663 098d A6040000 		.4byte	0x4a6
 2664 0991 FC7D     		.2byte	0x7dfc
 2665 0993 0F       		.uleb128 0xf
 2666 0994 CA570000 		.4byte	.LASF273
ARM GAS  C:\Users\gjl\AppData\Local\Temp\ccRZOvUj.s 			page 83


 2667 0998 06       		.byte	0x6
 2668 0999 8D       		.byte	0x8d
 2669 099a A6040000 		.4byte	0x4a6
 2670 099e 007E     		.2byte	0x7e00
 2671 09a0 0F       		.uleb128 0xf
 2672 09a1 1B000000 		.4byte	.LASF274
 2673 09a5 06       		.byte	0x6
 2674 09a6 8F       		.byte	0x8f
 2675 09a7 A6040000 		.4byte	0x4a6
 2676 09ab 047E     		.2byte	0x7e04
 2677 09ad 0F       		.uleb128 0xf
 2678 09ae 326D0000 		.4byte	.LASF275
 2679 09b2 06       		.byte	0x6
 2680 09b3 90       		.byte	0x90
 2681 09b4 A6040000 		.4byte	0x4a6
 2682 09b8 087E     		.2byte	0x7e08
 2683 09ba 0F       		.uleb128 0xf
 2684 09bb 1E430000 		.4byte	.LASF276
 2685 09bf 06       		.byte	0x6
 2686 09c0 91       		.byte	0x91
 2687 09c1 A6040000 		.4byte	0x4a6
 2688 09c5 0C7E     		.2byte	0x7e0c
 2689 09c7 0F       		.uleb128 0xf
 2690 09c8 123F0000 		.4byte	.LASF277
 2691 09cc 06       		.byte	0x6
 2692 09cd 93       		.byte	0x93
 2693 09ce A6040000 		.4byte	0x4a6
 2694 09d2 107E     		.2byte	0x7e10
 2695 09d4 0F       		.uleb128 0xf
 2696 09d5 CA5F0000 		.4byte	.LASF278
 2697 09d9 06       		.byte	0x6
 2698 09da 94       		.byte	0x94
 2699 09db A6040000 		.4byte	0x4a6
 2700 09df 147E     		.2byte	0x7e14
 2701 09e1 0F       		.uleb128 0xf
 2702 09e2 1C4B0000 		.4byte	.LASF279
 2703 09e6 06       		.byte	0x6
 2704 09e7 96       		.byte	0x96
 2705 09e8 A6040000 		.4byte	0x4a6
 2706 09ec 187E     		.2byte	0x7e18
 2707 09ee 0F       		.uleb128 0xf
 2708 09ef C5690000 		.4byte	.LASF280
 2709 09f3 06       		.byte	0x6
 2710 09f4 97       		.byte	0x97
 2711 09f5 A6040000 		.4byte	0x4a6
 2712 09f9 1C7E     		.2byte	0x7e1c
 2713 09fb 0F       		.uleb128 0xf
 2714 09fc CE180000 		.4byte	.LASF281
 2715 0a00 06       		.byte	0x6
 2716 0a01 99       		.byte	0x99
 2717 0a02 A6040000 		.4byte	0x4a6
 2718 0a06 207E     		.2byte	0x7e20
 2719 0a08 0F       		.uleb128 0xf
 2720 0a09 136E0000 		.4byte	.LASF282
 2721 0a0d 06       		.byte	0x6
 2722 0a0e 9C       		.byte	0x9c
 2723 0a0f A6040000 		.4byte	0x4a6
ARM GAS  C:\Users\gjl\AppData\Local\Temp\ccRZOvUj.s 			page 84


 2724 0a13 247E     		.2byte	0x7e24
 2725 0a15 0F       		.uleb128 0xf
 2726 0a16 DA020000 		.4byte	.LASF283
 2727 0a1a 06       		.byte	0x6
 2728 0a1b 9F       		.byte	0x9f
 2729 0a1c 850C0000 		.4byte	0xc85
 2730 0a20 287E     		.2byte	0x7e28
 2731 0a22 0F       		.uleb128 0xf
 2732 0a23 D0030000 		.4byte	.LASF284
 2733 0a27 06       		.byte	0x6
 2734 0a28 A0       		.byte	0xa0
 2735 0a29 A6040000 		.4byte	0x4a6
 2736 0a2d F87F     		.2byte	0x7ff8
 2737 0a2f 0F       		.uleb128 0xf
 2738 0a30 DE2C0000 		.4byte	.LASF285
 2739 0a34 06       		.byte	0x6
 2740 0a35 A1       		.byte	0xa1
 2741 0a36 A6040000 		.4byte	0x4a6
 2742 0a3a FC7F     		.2byte	0x7ffc
 2743 0a3c 00       		.byte	0
 2744 0a3d 0A       		.uleb128 0xa
 2745 0a3e AB040000 		.4byte	0x4ab
 2746 0a42 09       		.uleb128 0x9
 2747 0a43 B5040000 		.4byte	0x4b5
 2748 0a47 0A       		.uleb128 0xa
 2749 0a48 420A0000 		.4byte	0xa42
 2750 0a4c 0B       		.uleb128 0xb
 2751 0a4d 5D0A0000 		.4byte	0xa5d
 2752 0a51 5D0A0000 		.4byte	0xa5d
 2753 0a55 10       		.uleb128 0x10
 2754 0a56 9E000000 		.4byte	0x9e
 2755 0a5a F802     		.2byte	0x2f8
 2756 0a5c 00       		.byte	0
 2757 0a5d 0A       		.uleb128 0xa
 2758 0a5e C5040000 		.4byte	0x4c5
 2759 0a62 09       		.uleb128 0x9
 2760 0a63 4C0A0000 		.4byte	0xa4c
 2761 0a67 0A       		.uleb128 0xa
 2762 0a68 620A0000 		.4byte	0xa62
 2763 0a6c 0B       		.uleb128 0xb
 2764 0a6d AB040000 		.4byte	0x4ab
 2765 0a71 7C0A0000 		.4byte	0xa7c
 2766 0a75 0C       		.uleb128 0xc
 2767 0a76 9E000000 		.4byte	0x9e
 2768 0a7a 02       		.byte	0x2
 2769 0a7b 00       		.byte	0
 2770 0a7c 09       		.uleb128 0x9
 2771 0a7d 6C0A0000 		.4byte	0xa6c
 2772 0a81 0B       		.uleb128 0xb
 2773 0a82 3D0A0000 		.4byte	0xa3d
 2774 0a86 910A0000 		.4byte	0xa91
 2775 0a8a 0C       		.uleb128 0xc
 2776 0a8b 9E000000 		.4byte	0x9e
 2777 0a8f 3C       		.byte	0x3c
 2778 0a90 00       		.byte	0
 2779 0a91 09       		.uleb128 0x9
 2780 0a92 810A0000 		.4byte	0xa81
ARM GAS  C:\Users\gjl\AppData\Local\Temp\ccRZOvUj.s 			page 85


 2781 0a96 0A       		.uleb128 0xa
 2782 0a97 910A0000 		.4byte	0xa91
 2783 0a9b 0B       		.uleb128 0xb
 2784 0a9c B0040000 		.4byte	0x4b0
 2785 0aa0 AB0A0000 		.4byte	0xaab
 2786 0aa4 0C       		.uleb128 0xc
 2787 0aa5 9E000000 		.4byte	0x9e
 2788 0aa9 07       		.byte	0x7
 2789 0aaa 00       		.byte	0
 2790 0aab 09       		.uleb128 0x9
 2791 0aac 9B0A0000 		.4byte	0xa9b
 2792 0ab0 0A       		.uleb128 0xa
 2793 0ab1 AB0A0000 		.4byte	0xaab
 2794 0ab5 0B       		.uleb128 0xb
 2795 0ab6 B0040000 		.4byte	0x4b0
 2796 0aba C50A0000 		.4byte	0xac5
 2797 0abe 0C       		.uleb128 0xc
 2798 0abf 9E000000 		.4byte	0x9e
 2799 0ac3 33       		.byte	0x33
 2800 0ac4 00       		.byte	0
 2801 0ac5 09       		.uleb128 0x9
 2802 0ac6 B50A0000 		.4byte	0xab5
 2803 0aca 0A       		.uleb128 0xa
 2804 0acb C50A0000 		.4byte	0xac5
 2805 0acf 0B       		.uleb128 0xb
 2806 0ad0 5D0A0000 		.4byte	0xa5d
 2807 0ad4 DF0A0000 		.4byte	0xadf
 2808 0ad8 0C       		.uleb128 0xc
 2809 0ad9 9E000000 		.4byte	0x9e
 2810 0add 5E       		.byte	0x5e
 2811 0ade 00       		.byte	0
 2812 0adf 09       		.uleb128 0x9
 2813 0ae0 CF0A0000 		.4byte	0xacf
 2814 0ae4 0A       		.uleb128 0xa
 2815 0ae5 DF0A0000 		.4byte	0xadf
 2816 0ae9 0B       		.uleb128 0xb
 2817 0aea A6040000 		.4byte	0x4a6
 2818 0aee F90A0000 		.4byte	0xaf9
 2819 0af2 0C       		.uleb128 0xc
 2820 0af3 9E000000 		.4byte	0x9e
 2821 0af7 7F       		.byte	0x7f
 2822 0af8 00       		.byte	0
 2823 0af9 09       		.uleb128 0x9
 2824 0afa E90A0000 		.4byte	0xae9
 2825 0afe 09       		.uleb128 0x9
 2826 0aff E90A0000 		.4byte	0xae9
 2827 0b03 09       		.uleb128 0x9
 2828 0b04 E90A0000 		.4byte	0xae9
 2829 0b08 09       		.uleb128 0x9
 2830 0b09 E90A0000 		.4byte	0xae9
 2831 0b0d 0B       		.uleb128 0xb
 2832 0b0e B0040000 		.4byte	0x4b0
 2833 0b12 1E0B0000 		.4byte	0xb1e
 2834 0b16 10       		.uleb128 0x10
 2835 0b17 9E000000 		.4byte	0x9e
 2836 0b1b 2D01     		.2byte	0x12d
 2837 0b1d 00       		.byte	0
ARM GAS  C:\Users\gjl\AppData\Local\Temp\ccRZOvUj.s 			page 86


 2838 0b1e 09       		.uleb128 0x9
 2839 0b1f 0D0B0000 		.4byte	0xb0d
 2840 0b23 0A       		.uleb128 0xa
 2841 0b24 1E0B0000 		.4byte	0xb1e
 2842 0b28 0B       		.uleb128 0xb
 2843 0b29 AB040000 		.4byte	0x4ab
 2844 0b2d 380B0000 		.4byte	0xb38
 2845 0b31 0C       		.uleb128 0xc
 2846 0b32 9E000000 		.4byte	0x9e
 2847 0b36 0F       		.byte	0xf
 2848 0b37 00       		.byte	0
 2849 0b38 09       		.uleb128 0x9
 2850 0b39 280B0000 		.4byte	0xb28
 2851 0b3d 09       		.uleb128 0x9
 2852 0b3e 280B0000 		.4byte	0xb28
 2853 0b42 0B       		.uleb128 0xb
 2854 0b43 A6040000 		.4byte	0x4a6
 2855 0b47 520B0000 		.4byte	0xb52
 2856 0b4b 0C       		.uleb128 0xc
 2857 0b4c 9E000000 		.4byte	0x9e
 2858 0b50 0F       		.byte	0xf
 2859 0b51 00       		.byte	0
 2860 0b52 09       		.uleb128 0x9
 2861 0b53 420B0000 		.4byte	0xb42
 2862 0b57 09       		.uleb128 0x9
 2863 0b58 420B0000 		.4byte	0xb42
 2864 0b5c 09       		.uleb128 0x9
 2865 0b5d 420B0000 		.4byte	0xb42
 2866 0b61 09       		.uleb128 0x9
 2867 0b62 420B0000 		.4byte	0xb42
 2868 0b66 09       		.uleb128 0x9
 2869 0b67 420B0000 		.4byte	0xb42
 2870 0b6b 0B       		.uleb128 0xb
 2871 0b6c B0040000 		.4byte	0x4b0
 2872 0b70 7B0B0000 		.4byte	0xb7b
 2873 0b74 0C       		.uleb128 0xc
 2874 0b75 9E000000 		.4byte	0x9e
 2875 0b79 79       		.byte	0x79
 2876 0b7a 00       		.byte	0
 2877 0b7b 09       		.uleb128 0x9
 2878 0b7c 6B0B0000 		.4byte	0xb6b
 2879 0b80 0A       		.uleb128 0xa
 2880 0b81 7B0B0000 		.4byte	0xb7b
 2881 0b85 0B       		.uleb128 0xb
 2882 0b86 B0040000 		.4byte	0x4b0
 2883 0b8a 960B0000 		.4byte	0xb96
 2884 0b8e 10       		.uleb128 0x10
 2885 0b8f 9E000000 		.4byte	0x9e
 2886 0b93 F501     		.2byte	0x1f5
 2887 0b95 00       		.byte	0
 2888 0b96 09       		.uleb128 0x9
 2889 0b97 850B0000 		.4byte	0xb85
 2890 0b9b 0A       		.uleb128 0xa
 2891 0b9c 960B0000 		.4byte	0xb96
 2892 0ba0 0B       		.uleb128 0xb
 2893 0ba1 B0040000 		.4byte	0x4b0
 2894 0ba5 B00B0000 		.4byte	0xbb0
ARM GAS  C:\Users\gjl\AppData\Local\Temp\ccRZOvUj.s 			page 87


 2895 0ba9 0C       		.uleb128 0xc
 2896 0baa 9E000000 		.4byte	0x9e
 2897 0bae 2F       		.byte	0x2f
 2898 0baf 00       		.byte	0
 2899 0bb0 09       		.uleb128 0x9
 2900 0bb1 A00B0000 		.4byte	0xba0
 2901 0bb5 0A       		.uleb128 0xa
 2902 0bb6 B00B0000 		.4byte	0xbb0
 2903 0bba 0B       		.uleb128 0xb
 2904 0bbb AB040000 		.4byte	0x4ab
 2905 0bbf CB0B0000 		.4byte	0xbcb
 2906 0bc3 10       		.uleb128 0x10
 2907 0bc4 9E000000 		.4byte	0x9e
 2908 0bc8 2721     		.2byte	0x2127
 2909 0bca 00       		.byte	0
 2910 0bcb 09       		.uleb128 0x9
 2911 0bcc BA0B0000 		.4byte	0xbba
 2912 0bd0 0B       		.uleb128 0xb
 2913 0bd1 B0040000 		.4byte	0x4b0
 2914 0bd5 E10B0000 		.4byte	0xbe1
 2915 0bd9 10       		.uleb128 0x10
 2916 0bda 9E000000 		.4byte	0x9e
 2917 0bde FF05     		.2byte	0x5ff
 2918 0be0 00       		.byte	0
 2919 0be1 09       		.uleb128 0x9
 2920 0be2 D00B0000 		.4byte	0xbd0
 2921 0be6 0A       		.uleb128 0xa
 2922 0be7 E10B0000 		.4byte	0xbe1
 2923 0beb 0B       		.uleb128 0xb
 2924 0bec AB040000 		.4byte	0x4ab
 2925 0bf0 FC0B0000 		.4byte	0xbfc
 2926 0bf4 10       		.uleb128 0x10
 2927 0bf5 9E000000 		.4byte	0x9e
 2928 0bf9 FF0B     		.2byte	0xbff
 2929 0bfb 00       		.byte	0
 2930 0bfc 09       		.uleb128 0x9
 2931 0bfd EB0B0000 		.4byte	0xbeb
 2932 0c01 0B       		.uleb128 0xb
 2933 0c02 A6040000 		.4byte	0x4a6
 2934 0c06 120C0000 		.4byte	0xc12
 2935 0c0a 10       		.uleb128 0x10
 2936 0c0b 9E000000 		.4byte	0x9e
 2937 0c0f 7F01     		.2byte	0x17f
 2938 0c11 00       		.byte	0
 2939 0c12 09       		.uleb128 0x9
 2940 0c13 010C0000 		.4byte	0xc01
 2941 0c17 0B       		.uleb128 0xb
 2942 0c18 B0040000 		.4byte	0x4b0
 2943 0c1c 280C0000 		.4byte	0xc28
 2944 0c20 10       		.uleb128 0x10
 2945 0c21 9E000000 		.4byte	0x9e
 2946 0c25 FF02     		.2byte	0x2ff
 2947 0c27 00       		.byte	0
 2948 0c28 09       		.uleb128 0x9
 2949 0c29 170C0000 		.4byte	0xc17
 2950 0c2d 0A       		.uleb128 0xa
 2951 0c2e 280C0000 		.4byte	0xc28
ARM GAS  C:\Users\gjl\AppData\Local\Temp\ccRZOvUj.s 			page 88


 2952 0c32 0B       		.uleb128 0xb
 2953 0c33 B0040000 		.4byte	0x4b0
 2954 0c37 420C0000 		.4byte	0xc42
 2955 0c3b 0C       		.uleb128 0xc
 2956 0c3c 9E000000 		.4byte	0x9e
 2957 0c40 76       		.byte	0x76
 2958 0c41 00       		.byte	0
 2959 0c42 09       		.uleb128 0x9
 2960 0c43 320C0000 		.4byte	0xc32
 2961 0c47 0A       		.uleb128 0xa
 2962 0c48 420C0000 		.4byte	0xc42
 2963 0c4c 0B       		.uleb128 0xb
 2964 0c4d B0040000 		.4byte	0x4b0
 2965 0c51 5C0C0000 		.4byte	0xc5c
 2966 0c55 0C       		.uleb128 0xc
 2967 0c56 9E000000 		.4byte	0x9e
 2968 0c5a 77       		.byte	0x77
 2969 0c5b 00       		.byte	0
 2970 0c5c 09       		.uleb128 0x9
 2971 0c5d 4C0C0000 		.4byte	0xc4c
 2972 0c61 0A       		.uleb128 0xa
 2973 0c62 5C0C0000 		.4byte	0xc5c
 2974 0c66 0B       		.uleb128 0xb
 2975 0c67 B0040000 		.4byte	0x4b0
 2976 0c6b 760C0000 		.4byte	0xc76
 2977 0c6f 0C       		.uleb128 0xc
 2978 0c70 9E000000 		.4byte	0x9e
 2979 0c74 73       		.byte	0x73
 2980 0c75 00       		.byte	0
 2981 0c76 09       		.uleb128 0x9
 2982 0c77 660C0000 		.4byte	0xc66
 2983 0c7b 0A       		.uleb128 0xa
 2984 0c7c 760C0000 		.4byte	0xc76
 2985 0c80 09       		.uleb128 0x9
 2986 0c81 660C0000 		.4byte	0xc66
 2987 0c85 0A       		.uleb128 0xa
 2988 0c86 800C0000 		.4byte	0xc80
 2989 0c8a 04       		.uleb128 0x4
 2990 0c8b 32530000 		.4byte	.LASF286
 2991 0c8f 06       		.byte	0x6
 2992 0c90 A3       		.byte	0xa3
 2993 0c91 CA040000 		.4byte	0x4ca
 2994 0c95 0B       		.uleb128 0xb
 2995 0c96 AE000000 		.4byte	0xae
 2996 0c9a A50C0000 		.4byte	0xca5
 2997 0c9e 0C       		.uleb128 0xc
 2998 0c9f 9E000000 		.4byte	0x9e
 2999 0ca3 07       		.byte	0x7
 3000 0ca4 00       		.byte	0
 3001 0ca5 11       		.uleb128 0x11
 3002 0ca6 22150000 		.4byte	.LASF287
 3003 0caa 07       		.byte	0x7
 3004 0cab C401     		.2byte	0x1c4
 3005 0cad A7000000 		.4byte	0xa7
 3006 0cb1 03       		.uleb128 0x3
 3007 0cb2 04       		.byte	0x4
 3008 0cb3 04       		.byte	0x4
ARM GAS  C:\Users\gjl\AppData\Local\Temp\ccRZOvUj.s 			page 89


 3009 0cb4 0C3F0000 		.4byte	.LASF288
 3010 0cb8 03       		.uleb128 0x3
 3011 0cb9 08       		.byte	0x8
 3012 0cba 04       		.byte	0x4
 3013 0cbb AB200000 		.4byte	.LASF289
 3014 0cbf 12       		.uleb128 0x12
 3015 0cc0 08       		.byte	0x8
 3016 0cc1 08       		.byte	0x8
 3017 0cc2 EB       		.byte	0xeb
 3018 0cc3 E00C0000 		.4byte	0xce0
 3019 0cc7 0E       		.uleb128 0xe
 3020 0cc8 A83F0000 		.4byte	.LASF290
 3021 0ccc 08       		.byte	0x8
 3022 0ccd EC       		.byte	0xec
 3023 0cce 9B040000 		.4byte	0x49b
 3024 0cd2 00       		.byte	0
 3025 0cd3 0E       		.uleb128 0xe
 3026 0cd4 AB660000 		.4byte	.LASF291
 3027 0cd8 08       		.byte	0x8
 3028 0cd9 F0       		.byte	0xf0
 3029 0cda CF000000 		.4byte	0xcf
 3030 0cde 04       		.byte	0x4
 3031 0cdf 00       		.byte	0
 3032 0ce0 04       		.uleb128 0x4
 3033 0ce1 CD470000 		.4byte	.LASF292
 3034 0ce5 08       		.byte	0x8
 3035 0ce6 F1       		.byte	0xf1
 3036 0ce7 BF0C0000 		.4byte	0xcbf
 3037 0ceb 13       		.uleb128 0x13
 3038 0cec 02       		.byte	0x2
 3039 0ced 6C000000 		.4byte	0x6c
 3040 0cf1 09       		.byte	0x9
 3041 0cf2 3F01     		.2byte	0x13f
 3042 0cf4 1D100000 		.4byte	0x101d
 3043 0cf8 08       		.uleb128 0x8
 3044 0cf9 F91B0000 		.4byte	.LASF293
 3045 0cfd 00       		.byte	0
 3046 0cfe 14       		.uleb128 0x14
 3047 0cff DE4A0000 		.4byte	.LASF294
 3048 0d03 0010     		.2byte	0x1000
 3049 0d05 14       		.uleb128 0x14
 3050 0d06 A3710000 		.4byte	.LASF295
 3051 0d0a 0110     		.2byte	0x1001
 3052 0d0c 14       		.uleb128 0x14
 3053 0d0d 7C350000 		.4byte	.LASF296
 3054 0d11 0210     		.2byte	0x1002
 3055 0d13 14       		.uleb128 0x14
 3056 0d14 980F0000 		.4byte	.LASF297
 3057 0d18 0310     		.2byte	0x1003
 3058 0d1a 14       		.uleb128 0x14
 3059 0d1b 221E0000 		.4byte	.LASF298
 3060 0d1f 0410     		.2byte	0x1004
 3061 0d21 14       		.uleb128 0x14
 3062 0d22 9B750000 		.4byte	.LASF299
 3063 0d26 0510     		.2byte	0x1005
 3064 0d28 14       		.uleb128 0x14
 3065 0d29 7B0D0000 		.4byte	.LASF300
ARM GAS  C:\Users\gjl\AppData\Local\Temp\ccRZOvUj.s 			page 90


 3066 0d2d 0020     		.2byte	0x2000
 3067 0d2f 14       		.uleb128 0x14
 3068 0d30 18050000 		.4byte	.LASF301
 3069 0d34 0120     		.2byte	0x2001
 3070 0d36 14       		.uleb128 0x14
 3071 0d37 E6350000 		.4byte	.LASF302
 3072 0d3b 0220     		.2byte	0x2002
 3073 0d3d 14       		.uleb128 0x14
 3074 0d3e 68710000 		.4byte	.LASF303
 3075 0d42 0320     		.2byte	0x2003
 3076 0d44 14       		.uleb128 0x14
 3077 0d45 E9050000 		.4byte	.LASF304
 3078 0d49 0420     		.2byte	0x2004
 3079 0d4b 14       		.uleb128 0x14
 3080 0d4c 3F4C0000 		.4byte	.LASF305
 3081 0d50 0520     		.2byte	0x2005
 3082 0d52 14       		.uleb128 0x14
 3083 0d53 65080000 		.4byte	.LASF306
 3084 0d57 0620     		.2byte	0x2006
 3085 0d59 14       		.uleb128 0x14
 3086 0d5a 740C0000 		.4byte	.LASF307
 3087 0d5e 0720     		.2byte	0x2007
 3088 0d60 14       		.uleb128 0x14
 3089 0d61 A16C0000 		.4byte	.LASF308
 3090 0d65 0820     		.2byte	0x2008
 3091 0d67 14       		.uleb128 0x14
 3092 0d68 56150000 		.4byte	.LASF309
 3093 0d6c 0920     		.2byte	0x2009
 3094 0d6e 14       		.uleb128 0x14
 3095 0d6f 65010000 		.4byte	.LASF310
 3096 0d73 0A20     		.2byte	0x200a
 3097 0d75 14       		.uleb128 0x14
 3098 0d76 58370000 		.4byte	.LASF311
 3099 0d7a 0B20     		.2byte	0x200b
 3100 0d7c 14       		.uleb128 0x14
 3101 0d7d AF180000 		.4byte	.LASF312
 3102 0d81 0C20     		.2byte	0x200c
 3103 0d83 14       		.uleb128 0x14
 3104 0d84 45250000 		.4byte	.LASF313
 3105 0d88 0D20     		.2byte	0x200d
 3106 0d8a 14       		.uleb128 0x14
 3107 0d8b 634E0000 		.4byte	.LASF314
 3108 0d8f 0E20     		.2byte	0x200e
 3109 0d91 14       		.uleb128 0x14
 3110 0d92 F65C0000 		.4byte	.LASF315
 3111 0d96 0F20     		.2byte	0x200f
 3112 0d98 14       		.uleb128 0x14
 3113 0d99 4F190000 		.4byte	.LASF316
 3114 0d9d 1020     		.2byte	0x2010
 3115 0d9f 14       		.uleb128 0x14
 3116 0da0 24360000 		.4byte	.LASF317
 3117 0da4 1120     		.2byte	0x2011
 3118 0da6 14       		.uleb128 0x14
 3119 0da7 A40E0000 		.4byte	.LASF318
 3120 0dab 1220     		.2byte	0x2012
 3121 0dad 14       		.uleb128 0x14
 3122 0dae 46390000 		.4byte	.LASF319
ARM GAS  C:\Users\gjl\AppData\Local\Temp\ccRZOvUj.s 			page 91


 3123 0db2 1320     		.2byte	0x2013
 3124 0db4 14       		.uleb128 0x14
 3125 0db5 371F0000 		.4byte	.LASF320
 3126 0db9 1420     		.2byte	0x2014
 3127 0dbb 14       		.uleb128 0x14
 3128 0dbc F03E0000 		.4byte	.LASF321
 3129 0dc0 1520     		.2byte	0x2015
 3130 0dc2 14       		.uleb128 0x14
 3131 0dc3 DE380000 		.4byte	.LASF322
 3132 0dc7 1620     		.2byte	0x2016
 3133 0dc9 14       		.uleb128 0x14
 3134 0dca 8A390000 		.4byte	.LASF323
 3135 0dce 1720     		.2byte	0x2017
 3136 0dd0 14       		.uleb128 0x14
 3137 0dd1 CC4F0000 		.4byte	.LASF324
 3138 0dd5 0030     		.2byte	0x3000
 3139 0dd7 14       		.uleb128 0x14
 3140 0dd8 0F490000 		.4byte	.LASF325
 3141 0ddc 0130     		.2byte	0x3001
 3142 0dde 14       		.uleb128 0x14
 3143 0ddf 7A780000 		.4byte	.LASF326
 3144 0de3 0230     		.2byte	0x3002
 3145 0de5 14       		.uleb128 0x14
 3146 0de6 00650000 		.4byte	.LASF327
 3147 0dea 0330     		.2byte	0x3003
 3148 0dec 14       		.uleb128 0x14
 3149 0ded 99240000 		.4byte	.LASF328
 3150 0df1 0430     		.2byte	0x3004
 3151 0df3 14       		.uleb128 0x14
 3152 0df4 3A2E0000 		.4byte	.LASF329
 3153 0df8 0530     		.2byte	0x3005
 3154 0dfa 14       		.uleb128 0x14
 3155 0dfb D90A0000 		.4byte	.LASF330
 3156 0dff 0630     		.2byte	0x3006
 3157 0e01 14       		.uleb128 0x14
 3158 0e02 05040000 		.4byte	.LASF331
 3159 0e06 0730     		.2byte	0x3007
 3160 0e08 14       		.uleb128 0x14
 3161 0e09 6E770000 		.4byte	.LASF332
 3162 0e0d 0830     		.2byte	0x3008
 3163 0e0f 14       		.uleb128 0x14
 3164 0e10 B16B0000 		.4byte	.LASF333
 3165 0e14 0930     		.2byte	0x3009
 3166 0e16 14       		.uleb128 0x14
 3167 0e17 EE520000 		.4byte	.LASF334
 3168 0e1b 0A30     		.2byte	0x300a
 3169 0e1d 14       		.uleb128 0x14
 3170 0e1e BB270000 		.4byte	.LASF335
 3171 0e22 0B30     		.2byte	0x300b
 3172 0e24 14       		.uleb128 0x14
 3173 0e25 B4630000 		.4byte	.LASF336
 3174 0e29 0C30     		.2byte	0x300c
 3175 0e2b 14       		.uleb128 0x14
 3176 0e2c 80660000 		.4byte	.LASF337
 3177 0e30 1130     		.2byte	0x3011
 3178 0e32 14       		.uleb128 0x14
 3179 0e33 845D0000 		.4byte	.LASF338
ARM GAS  C:\Users\gjl\AppData\Local\Temp\ccRZOvUj.s 			page 92


 3180 0e37 1230     		.2byte	0x3012
 3181 0e39 14       		.uleb128 0x14
 3182 0e3a 243E0000 		.4byte	.LASF339
 3183 0e3e 1330     		.2byte	0x3013
 3184 0e40 14       		.uleb128 0x14
 3185 0e41 8F0B0000 		.4byte	.LASF340
 3186 0e45 1430     		.2byte	0x3014
 3187 0e47 14       		.uleb128 0x14
 3188 0e48 6D4A0000 		.4byte	.LASF341
 3189 0e4c 1530     		.2byte	0x3015
 3190 0e4e 14       		.uleb128 0x14
 3191 0e4f FE180000 		.4byte	.LASF342
 3192 0e53 1630     		.2byte	0x3016
 3193 0e55 14       		.uleb128 0x14
 3194 0e56 2E490000 		.4byte	.LASF343
 3195 0e5a 1730     		.2byte	0x3017
 3196 0e5c 14       		.uleb128 0x14
 3197 0e5d A1580000 		.4byte	.LASF344
 3198 0e61 1830     		.2byte	0x3018
 3199 0e63 14       		.uleb128 0x14
 3200 0e64 E73D0000 		.4byte	.LASF345
 3201 0e68 0040     		.2byte	0x4000
 3202 0e6a 14       		.uleb128 0x14
 3203 0e6b B66D0000 		.4byte	.LASF346
 3204 0e6f 0140     		.2byte	0x4001
 3205 0e71 14       		.uleb128 0x14
 3206 0e72 02580000 		.4byte	.LASF347
 3207 0e76 0240     		.2byte	0x4002
 3208 0e78 14       		.uleb128 0x14
 3209 0e79 A6670000 		.4byte	.LASF348
 3210 0e7d 0340     		.2byte	0x4003
 3211 0e7f 14       		.uleb128 0x14
 3212 0e80 FE450000 		.4byte	.LASF349
 3213 0e84 0440     		.2byte	0x4004
 3214 0e86 14       		.uleb128 0x14
 3215 0e87 3F220000 		.4byte	.LASF350
 3216 0e8b 0540     		.2byte	0x4005
 3217 0e8d 14       		.uleb128 0x14
 3218 0e8e 88170000 		.4byte	.LASF351
 3219 0e92 0640     		.2byte	0x4006
 3220 0e94 14       		.uleb128 0x14
 3221 0e95 472C0000 		.4byte	.LASF352
 3222 0e99 0740     		.2byte	0x4007
 3223 0e9b 14       		.uleb128 0x14
 3224 0e9c 01700000 		.4byte	.LASF353
 3225 0ea0 0840     		.2byte	0x4008
 3226 0ea2 14       		.uleb128 0x14
 3227 0ea3 EE5B0000 		.4byte	.LASF354
 3228 0ea7 0940     		.2byte	0x4009
 3229 0ea9 14       		.uleb128 0x14
 3230 0eaa 9E130000 		.4byte	.LASF355
 3231 0eae 0A40     		.2byte	0x400a
 3232 0eb0 14       		.uleb128 0x14
 3233 0eb1 AE0B0000 		.4byte	.LASF356
 3234 0eb5 0B40     		.2byte	0x400b
 3235 0eb7 14       		.uleb128 0x14
 3236 0eb8 3D5E0000 		.4byte	.LASF357
ARM GAS  C:\Users\gjl\AppData\Local\Temp\ccRZOvUj.s 			page 93


 3237 0ebc 0C40     		.2byte	0x400c
 3238 0ebe 14       		.uleb128 0x14
 3239 0ebf B3480000 		.4byte	.LASF358
 3240 0ec3 0D40     		.2byte	0x400d
 3241 0ec5 14       		.uleb128 0x14
 3242 0ec6 076C0000 		.4byte	.LASF359
 3243 0eca 0E40     		.2byte	0x400e
 3244 0ecc 14       		.uleb128 0x14
 3245 0ecd 1D1B0000 		.4byte	.LASF360
 3246 0ed1 0F40     		.2byte	0x400f
 3247 0ed3 14       		.uleb128 0x14
 3248 0ed4 4C040000 		.4byte	.LASF361
 3249 0ed8 1040     		.2byte	0x4010
 3250 0eda 14       		.uleb128 0x14
 3251 0edb E1400000 		.4byte	.LASF362
 3252 0edf 1140     		.2byte	0x4011
 3253 0ee1 14       		.uleb128 0x14
 3254 0ee2 411E0000 		.4byte	.LASF363
 3255 0ee6 1240     		.2byte	0x4012
 3256 0ee8 14       		.uleb128 0x14
 3257 0ee9 63300000 		.4byte	.LASF364
 3258 0eed 1340     		.2byte	0x4013
 3259 0eef 14       		.uleb128 0x14
 3260 0ef0 39430000 		.4byte	.LASF365
 3261 0ef4 1440     		.2byte	0x4014
 3262 0ef6 14       		.uleb128 0x14
 3263 0ef7 0D0E0000 		.4byte	.LASF366
 3264 0efb 1540     		.2byte	0x4015
 3265 0efd 14       		.uleb128 0x14
 3266 0efe D6510000 		.4byte	.LASF367
 3267 0f02 1640     		.2byte	0x4016
 3268 0f04 14       		.uleb128 0x14
 3269 0f05 2C3F0000 		.4byte	.LASF368
 3270 0f09 1740     		.2byte	0x4017
 3271 0f0b 14       		.uleb128 0x14
 3272 0f0c FB2A0000 		.4byte	.LASF369
 3273 0f10 1840     		.2byte	0x4018
 3274 0f12 14       		.uleb128 0x14
 3275 0f13 34130000 		.4byte	.LASF370
 3276 0f17 1940     		.2byte	0x4019
 3277 0f19 14       		.uleb128 0x14
 3278 0f1a F03F0000 		.4byte	.LASF371
 3279 0f1e 0050     		.2byte	0x5000
 3280 0f20 14       		.uleb128 0x14
 3281 0f21 5A2B0000 		.4byte	.LASF372
 3282 0f25 0150     		.2byte	0x5001
 3283 0f27 14       		.uleb128 0x14
 3284 0f28 B61C0000 		.4byte	.LASF373
 3285 0f2c 0250     		.2byte	0x5002
 3286 0f2e 14       		.uleb128 0x14
 3287 0f2f 44300000 		.4byte	.LASF374
 3288 0f33 0350     		.2byte	0x5003
 3289 0f35 14       		.uleb128 0x14
 3290 0f36 A25B0000 		.4byte	.LASF375
 3291 0f3a 0450     		.2byte	0x5004
 3292 0f3c 14       		.uleb128 0x14
 3293 0f3d 86280000 		.4byte	.LASF376
ARM GAS  C:\Users\gjl\AppData\Local\Temp\ccRZOvUj.s 			page 94


 3294 0f41 0550     		.2byte	0x5005
 3295 0f43 14       		.uleb128 0x14
 3296 0f44 7A370000 		.4byte	.LASF377
 3297 0f48 0650     		.2byte	0x5006
 3298 0f4a 14       		.uleb128 0x14
 3299 0f4b 39270000 		.4byte	.LASF378
 3300 0f4f 0750     		.2byte	0x5007
 3301 0f51 14       		.uleb128 0x14
 3302 0f52 7C2E0000 		.4byte	.LASF379
 3303 0f56 0850     		.2byte	0x5008
 3304 0f58 14       		.uleb128 0x14
 3305 0f59 42380000 		.4byte	.LASF380
 3306 0f5d 0950     		.2byte	0x5009
 3307 0f5f 14       		.uleb128 0x14
 3308 0f60 A9440000 		.4byte	.LASF381
 3309 0f64 0A50     		.2byte	0x500a
 3310 0f66 14       		.uleb128 0x14
 3311 0f67 69310000 		.4byte	.LASF382
 3312 0f6b 0B50     		.2byte	0x500b
 3313 0f6d 14       		.uleb128 0x14
 3314 0f6e 80750000 		.4byte	.LASF383
 3315 0f72 0C50     		.2byte	0x500c
 3316 0f74 14       		.uleb128 0x14
 3317 0f75 01160000 		.4byte	.LASF384
 3318 0f79 0D50     		.2byte	0x500d
 3319 0f7b 14       		.uleb128 0x14
 3320 0f7c 024E0000 		.4byte	.LASF385
 3321 0f80 0E50     		.2byte	0x500e
 3322 0f82 14       		.uleb128 0x14
 3323 0f83 776E0000 		.4byte	.LASF386
 3324 0f87 0F50     		.2byte	0x500f
 3325 0f89 14       		.uleb128 0x14
 3326 0f8a 013D0000 		.4byte	.LASF387
 3327 0f8e 1050     		.2byte	0x5010
 3328 0f90 14       		.uleb128 0x14
 3329 0f91 FC430000 		.4byte	.LASF388
 3330 0f95 1150     		.2byte	0x5011
 3331 0f97 14       		.uleb128 0x14
 3332 0f98 FD620000 		.4byte	.LASF389
 3333 0f9c 1250     		.2byte	0x5012
 3334 0f9e 14       		.uleb128 0x14
 3335 0f9f 7F030000 		.4byte	.LASF390
 3336 0fa3 1350     		.2byte	0x5013
 3337 0fa5 14       		.uleb128 0x14
 3338 0fa6 795F0000 		.4byte	.LASF391
 3339 0faa 1450     		.2byte	0x5014
 3340 0fac 14       		.uleb128 0x14
 3341 0fad BF1A0000 		.4byte	.LASF392
 3342 0fb1 1550     		.2byte	0x5015
 3343 0fb3 14       		.uleb128 0x14
 3344 0fb4 93070000 		.4byte	.LASF393
 3345 0fb8 1650     		.2byte	0x5016
 3346 0fba 14       		.uleb128 0x14
 3347 0fbb 74410000 		.4byte	.LASF394
 3348 0fbf 1750     		.2byte	0x5017
 3349 0fc1 14       		.uleb128 0x14
 3350 0fc2 DF2D0000 		.4byte	.LASF395
ARM GAS  C:\Users\gjl\AppData\Local\Temp\ccRZOvUj.s 			page 95


 3351 0fc6 1850     		.2byte	0x5018
 3352 0fc8 14       		.uleb128 0x14
 3353 0fc9 67160000 		.4byte	.LASF396
 3354 0fcd 0060     		.2byte	0x6000
 3355 0fcf 14       		.uleb128 0x14
 3356 0fd0 B6240000 		.4byte	.LASF397
 3357 0fd4 0160     		.2byte	0x6001
 3358 0fd6 14       		.uleb128 0x14
 3359 0fd7 D2370000 		.4byte	.LASF398
 3360 0fdb 0260     		.2byte	0x6002
 3361 0fdd 14       		.uleb128 0x14
 3362 0fde 1D480000 		.4byte	.LASF399
 3363 0fe2 0360     		.2byte	0x6003
 3364 0fe4 14       		.uleb128 0x14
 3365 0fe5 45230000 		.4byte	.LASF400
 3366 0fe9 0460     		.2byte	0x6004
 3367 0feb 14       		.uleb128 0x14
 3368 0fec 48780000 		.4byte	.LASF401
 3369 0ff0 0560     		.2byte	0x6005
 3370 0ff2 14       		.uleb128 0x14
 3371 0ff3 59580000 		.4byte	.LASF402
 3372 0ff7 0660     		.2byte	0x6006
 3373 0ff9 14       		.uleb128 0x14
 3374 0ffa 51520000 		.4byte	.LASF403
 3375 0ffe 0760     		.2byte	0x6007
 3376 1000 14       		.uleb128 0x14
 3377 1001 06520000 		.4byte	.LASF404
 3378 1005 0860     		.2byte	0x6008
 3379 1007 14       		.uleb128 0x14
 3380 1008 701D0000 		.4byte	.LASF405
 3381 100c 0960     		.2byte	0x6009
 3382 100e 14       		.uleb128 0x14
 3383 100f 3E4E0000 		.4byte	.LASF406
 3384 1013 0A60     		.2byte	0x600a
 3385 1015 14       		.uleb128 0x14
 3386 1016 E71F0000 		.4byte	.LASF407
 3387 101a FFFF     		.2byte	0xffff
 3388 101c 00       		.byte	0
 3389 101d 11       		.uleb128 0x11
 3390 101e 385B0000 		.4byte	.LASF408
 3391 1022 09       		.byte	0x9
 3392 1023 A804     		.2byte	0x4a8
 3393 1025 EB0C0000 		.4byte	0xceb
 3394 1029 13       		.uleb128 0x13
 3395 102a 04       		.byte	0x4
 3396 102b 2C000000 		.4byte	0x2c
 3397 102f 09       		.byte	0x9
 3398 1030 B204     		.2byte	0x4b2
 3399 1032 42110000 		.4byte	0x1142
 3400 1036 08       		.uleb128 0x8
 3401 1037 8A5C0000 		.4byte	.LASF409
 3402 103b 00       		.byte	0
 3403 103c 15       		.uleb128 0x15
 3404 103d 203B0000 		.4byte	.LASF410
 3405 1041 01001400 		.4byte	0x140001
 3406 1045 15       		.uleb128 0x15
 3407 1046 1B550000 		.4byte	.LASF411
ARM GAS  C:\Users\gjl\AppData\Local\Temp\ccRZOvUj.s 			page 96


 3408 104a 01001600 		.4byte	0x160001
 3409 104e 15       		.uleb128 0x15
 3410 104f D7600000 		.4byte	.LASF412
 3411 1053 02001600 		.4byte	0x160002
 3412 1057 15       		.uleb128 0x15
 3413 1058 1B320000 		.4byte	.LASF413
 3414 105c 03001600 		.4byte	0x160003
 3415 1060 15       		.uleb128 0x15
 3416 1061 800E0000 		.4byte	.LASF414
 3417 1065 04001600 		.4byte	0x160004
 3418 1069 15       		.uleb128 0x15
 3419 106a DD470000 		.4byte	.LASF415
 3420 106e 05001600 		.4byte	0x160005
 3421 1072 15       		.uleb128 0x15
 3422 1073 754F0000 		.4byte	.LASF416
 3423 1077 06001600 		.4byte	0x160006
 3424 107b 15       		.uleb128 0x15
 3425 107c 011A0000 		.4byte	.LASF417
 3426 1080 07001600 		.4byte	0x160007
 3427 1084 15       		.uleb128 0x15
 3428 1085 22230000 		.4byte	.LASF418
 3429 1089 08001600 		.4byte	0x160008
 3430 108d 15       		.uleb128 0x15
 3431 108e A14B0000 		.4byte	.LASF419
 3432 1092 09001600 		.4byte	0x160009
 3433 1096 15       		.uleb128 0x15
 3434 1097 3D290000 		.4byte	.LASF420
 3435 109b 0A001600 		.4byte	0x16000a
 3436 109f 15       		.uleb128 0x15
 3437 10a0 18200000 		.4byte	.LASF421
 3438 10a4 0B001600 		.4byte	0x16000b
 3439 10a8 15       		.uleb128 0x15
 3440 10a9 CB310000 		.4byte	.LASF422
 3441 10ad 0C001600 		.4byte	0x16000c
 3442 10b1 15       		.uleb128 0x15
 3443 10b2 C1290000 		.4byte	.LASF423
 3444 10b6 0D001600 		.4byte	0x16000d
 3445 10ba 15       		.uleb128 0x15
 3446 10bb DB150000 		.4byte	.LASF424
 3447 10bf 0E001600 		.4byte	0x16000e
 3448 10c3 15       		.uleb128 0x15
 3449 10c4 BD5D0000 		.4byte	.LASF425
 3450 10c8 0F001600 		.4byte	0x16000f
 3451 10cc 15       		.uleb128 0x15
 3452 10cd 50650000 		.4byte	.LASF426
 3453 10d1 10001600 		.4byte	0x160010
 3454 10d5 15       		.uleb128 0x15
 3455 10d6 21400000 		.4byte	.LASF427
 3456 10da 11001600 		.4byte	0x160011
 3457 10de 15       		.uleb128 0x15
 3458 10df 765A0000 		.4byte	.LASF428
 3459 10e3 12001600 		.4byte	0x160012
 3460 10e7 15       		.uleb128 0x15
 3461 10e8 29210000 		.4byte	.LASF429
 3462 10ec 13001600 		.4byte	0x160013
 3463 10f0 15       		.uleb128 0x15
 3464 10f1 6F360000 		.4byte	.LASF430
ARM GAS  C:\Users\gjl\AppData\Local\Temp\ccRZOvUj.s 			page 97


 3465 10f5 14001600 		.4byte	0x160014
 3466 10f9 15       		.uleb128 0x15
 3467 10fa 6C390000 		.4byte	.LASF431
 3468 10fe 15001600 		.4byte	0x160015
 3469 1102 15       		.uleb128 0x15
 3470 1103 1C560000 		.4byte	.LASF432
 3471 1107 16001600 		.4byte	0x160016
 3472 110b 15       		.uleb128 0x15
 3473 110c E0780000 		.4byte	.LASF433
 3474 1110 17001600 		.4byte	0x160017
 3475 1114 15       		.uleb128 0x15
 3476 1115 03410000 		.4byte	.LASF434
 3477 1119 18001600 		.4byte	0x160018
 3478 111d 15       		.uleb128 0x15
 3479 111e F55D0000 		.4byte	.LASF435
 3480 1122 19001600 		.4byte	0x160019
 3481 1126 15       		.uleb128 0x15
 3482 1127 D2500000 		.4byte	.LASF436
 3483 112b FE001600 		.4byte	0x1600fe
 3484 112f 15       		.uleb128 0x15
 3485 1130 5D3C0000 		.4byte	.LASF437
 3486 1134 FF001600 		.4byte	0x1600ff
 3487 1138 15       		.uleb128 0x15
 3488 1139 DD5B0000 		.4byte	.LASF438
 3489 113d FFFF1600 		.4byte	0x16ffff
 3490 1141 00       		.byte	0
 3491 1142 11       		.uleb128 0x11
 3492 1143 7B110000 		.4byte	.LASF439
 3493 1147 09       		.byte	0x9
 3494 1148 1505     		.2byte	0x515
 3495 114a 29100000 		.4byte	0x1029
 3496 114e 16       		.uleb128 0x16
 3497 114f 07       		.byte	0x7
 3498 1150 09       		.byte	0x9
 3499 1151 3305     		.2byte	0x533
 3500 1153 72110000 		.4byte	0x1172
 3501 1157 17       		.uleb128 0x17
 3502 1158 A41B0000 		.4byte	.LASF440
 3503 115c 09       		.byte	0x9
 3504 115d 3605     		.2byte	0x536
 3505 115f 72110000 		.4byte	0x1172
 3506 1163 00       		.byte	0
 3507 1164 17       		.uleb128 0x17
 3508 1165 C8440000 		.4byte	.LASF441
 3509 1169 09       		.byte	0x9
 3510 116a 3905     		.2byte	0x539
 3511 116c AE000000 		.4byte	0xae
 3512 1170 06       		.byte	0x6
 3513 1171 00       		.byte	0
 3514 1172 0B       		.uleb128 0xb
 3515 1173 AE000000 		.4byte	0xae
 3516 1177 82110000 		.4byte	0x1182
 3517 117b 0C       		.uleb128 0xc
 3518 117c 9E000000 		.4byte	0x9e
 3519 1180 05       		.byte	0x5
 3520 1181 00       		.byte	0
 3521 1182 11       		.uleb128 0x11
ARM GAS  C:\Users\gjl\AppData\Local\Temp\ccRZOvUj.s 			page 98


 3522 1183 994C0000 		.4byte	.LASF442
 3523 1187 09       		.byte	0x9
 3524 1188 3B05     		.2byte	0x53b
 3525 118a 4E110000 		.4byte	0x114e
 3526 118e 18       		.uleb128 0x18
 3527 118f 04       		.byte	0x4
 3528 1190 AE000000 		.4byte	0xae
 3529 1194 13       		.uleb128 0x13
 3530 1195 01       		.byte	0x1
 3531 1196 41000000 		.4byte	0x41
 3532 119a 09       		.byte	0x9
 3533 119b 0906     		.2byte	0x609
 3534 119d C6110000 		.4byte	0x11c6
 3535 11a1 07       		.uleb128 0x7
 3536 11a2 AB1B0000 		.4byte	.LASF443
 3537 11a6 6C       		.sleb128 -20
 3538 11a7 07       		.uleb128 0x7
 3539 11a8 675D0000 		.4byte	.LASF444
 3540 11ac 70       		.sleb128 -16
 3541 11ad 07       		.uleb128 0x7
 3542 11ae 81130000 		.4byte	.LASF445
 3543 11b2 74       		.sleb128 -12
 3544 11b3 07       		.uleb128 0x7
 3545 11b4 4D310000 		.4byte	.LASF446
 3546 11b8 7A       		.sleb128 -6
 3547 11b9 08       		.uleb128 0x8
 3548 11ba 691E0000 		.4byte	.LASF447
 3549 11be 00       		.byte	0
 3550 11bf 08       		.uleb128 0x8
 3551 11c0 0B400000 		.4byte	.LASF448
 3552 11c4 04       		.byte	0x4
 3553 11c5 00       		.byte	0
 3554 11c6 11       		.uleb128 0x11
 3555 11c7 19390000 		.4byte	.LASF449
 3556 11cb 09       		.byte	0x9
 3557 11cc 1C06     		.2byte	0x61c
 3558 11ce 94110000 		.4byte	0x1194
 3559 11d2 13       		.uleb128 0x13
 3560 11d3 01       		.byte	0x1
 3561 11d4 53000000 		.4byte	0x53
 3562 11d8 09       		.byte	0x9
 3563 11d9 2006     		.2byte	0x620
 3564 11db F2110000 		.4byte	0x11f2
 3565 11df 08       		.uleb128 0x8
 3566 11e0 7A150000 		.4byte	.LASF450
 3567 11e4 00       		.byte	0
 3568 11e5 08       		.uleb128 0x8
 3569 11e6 472F0000 		.4byte	.LASF451
 3570 11ea 01       		.byte	0x1
 3571 11eb 08       		.uleb128 0x8
 3572 11ec A5600000 		.4byte	.LASF452
 3573 11f0 02       		.byte	0x2
 3574 11f1 00       		.byte	0
 3575 11f2 11       		.uleb128 0x11
 3576 11f3 48450000 		.4byte	.LASF453
 3577 11f7 09       		.byte	0x9
 3578 11f8 2A06     		.2byte	0x62a
ARM GAS  C:\Users\gjl\AppData\Local\Temp\ccRZOvUj.s 			page 99


 3579 11fa D2110000 		.4byte	0x11d2
 3580 11fe 13       		.uleb128 0x13
 3581 11ff 01       		.byte	0x1
 3582 1200 53000000 		.4byte	0x53
 3583 1204 0A       		.byte	0xa
 3584 1205 0301     		.2byte	0x103
 3585 1207 24120000 		.4byte	0x1224
 3586 120b 08       		.uleb128 0x8
 3587 120c 71200000 		.4byte	.LASF454
 3588 1210 01       		.byte	0x1
 3589 1211 08       		.uleb128 0x8
 3590 1212 EE3C0000 		.4byte	.LASF455
 3591 1216 02       		.byte	0x2
 3592 1217 08       		.uleb128 0x8
 3593 1218 E8720000 		.4byte	.LASF456
 3594 121c 03       		.byte	0x3
 3595 121d 08       		.uleb128 0x8
 3596 121e 71040000 		.4byte	.LASF457
 3597 1222 04       		.byte	0x4
 3598 1223 00       		.byte	0
 3599 1224 11       		.uleb128 0x11
 3600 1225 FB760000 		.4byte	.LASF458
 3601 1229 0A       		.byte	0xa
 3602 122a 1001     		.2byte	0x110
 3603 122c FE110000 		.4byte	0x11fe
 3604 1230 13       		.uleb128 0x13
 3605 1231 01       		.byte	0x1
 3606 1232 53000000 		.4byte	0x53
 3607 1236 0A       		.byte	0xa
 3608 1237 1401     		.2byte	0x114
 3609 1239 4A120000 		.4byte	0x124a
 3610 123d 08       		.uleb128 0x8
 3611 123e EA580000 		.4byte	.LASF459
 3612 1242 00       		.byte	0
 3613 1243 08       		.uleb128 0x8
 3614 1244 3B110000 		.4byte	.LASF460
 3615 1248 01       		.byte	0x1
 3616 1249 00       		.byte	0
 3617 124a 11       		.uleb128 0x11
 3618 124b C16A0000 		.4byte	.LASF461
 3619 124f 0A       		.byte	0xa
 3620 1250 1B01     		.2byte	0x11b
 3621 1252 30120000 		.4byte	0x1230
 3622 1256 16       		.uleb128 0x16
 3623 1257 02       		.byte	0x2
 3624 1258 0A       		.byte	0xa
 3625 1259 5B01     		.2byte	0x15b
 3626 125b 7A120000 		.4byte	0x127a
 3627 125f 17       		.uleb128 0x17
 3628 1260 88330000 		.4byte	.LASF462
 3629 1264 0A       		.byte	0xa
 3630 1265 6501     		.2byte	0x165
 3631 1267 AE000000 		.4byte	0xae
 3632 126b 00       		.byte	0
 3633 126c 17       		.uleb128 0x17
 3634 126d 49020000 		.4byte	.LASF463
 3635 1271 0A       		.byte	0xa
ARM GAS  C:\Users\gjl\AppData\Local\Temp\ccRZOvUj.s 			page 100


 3636 1272 6901     		.2byte	0x169
 3637 1274 AE000000 		.4byte	0xae
 3638 1278 01       		.byte	0x1
 3639 1279 00       		.byte	0
 3640 127a 11       		.uleb128 0x11
 3641 127b ED270000 		.4byte	.LASF464
 3642 127f 0A       		.byte	0xa
 3643 1280 6B01     		.2byte	0x16b
 3644 1282 56120000 		.4byte	0x1256
 3645 1286 16       		.uleb128 0x16
 3646 1287 02       		.byte	0x2
 3647 1288 0A       		.byte	0xa
 3648 1289 9201     		.2byte	0x192
 3649 128b AA120000 		.4byte	0x12aa
 3650 128f 17       		.uleb128 0x17
 3651 1290 B9160000 		.4byte	.LASF465
 3652 1294 0A       		.byte	0xa
 3653 1295 9501     		.2byte	0x195
 3654 1297 F2110000 		.4byte	0x11f2
 3655 129b 00       		.byte	0
 3656 129c 17       		.uleb128 0x17
 3657 129d 88330000 		.4byte	.LASF462
 3658 12a1 0A       		.byte	0xa
 3659 12a2 9801     		.2byte	0x198
 3660 12a4 AE000000 		.4byte	0xae
 3661 12a8 01       		.byte	0x1
 3662 12a9 00       		.byte	0
 3663 12aa 11       		.uleb128 0x11
 3664 12ab 87040000 		.4byte	.LASF466
 3665 12af 0A       		.byte	0xa
 3666 12b0 9A01     		.2byte	0x19a
 3667 12b2 86120000 		.4byte	0x1286
 3668 12b6 16       		.uleb128 0x16
 3669 12b7 03       		.byte	0x3
 3670 12b8 0A       		.byte	0xa
 3671 12b9 9D01     		.2byte	0x19d
 3672 12bb DA120000 		.4byte	0x12da
 3673 12bf 17       		.uleb128 0x17
 3674 12c0 B20F0000 		.4byte	.LASF467
 3675 12c4 0A       		.byte	0xa
 3676 12c5 A001     		.2byte	0x1a0
 3677 12c7 C6110000 		.4byte	0x11c6
 3678 12cb 00       		.byte	0
 3679 12cc 17       		.uleb128 0x17
 3680 12cd 0C5C0000 		.4byte	.LASF468
 3681 12d1 0A       		.byte	0xa
 3682 12d2 A301     		.2byte	0x1a3
 3683 12d4 AA120000 		.4byte	0x12aa
 3684 12d8 01       		.byte	0x1
 3685 12d9 00       		.byte	0
 3686 12da 11       		.uleb128 0x11
 3687 12db 2A2C0000 		.4byte	.LASF469
 3688 12df 0A       		.byte	0xa
 3689 12e0 A501     		.2byte	0x1a5
 3690 12e2 B6120000 		.4byte	0x12b6
 3691 12e6 16       		.uleb128 0x16
 3692 12e7 0C       		.byte	0xc
ARM GAS  C:\Users\gjl\AppData\Local\Temp\ccRZOvUj.s 			page 101


 3693 12e8 0A       		.byte	0xa
 3694 12e9 F402     		.2byte	0x2f4
 3695 12eb 24130000 		.4byte	0x1324
 3696 12ef 17       		.uleb128 0x17
 3697 12f0 17070000 		.4byte	.LASF470
 3698 12f4 0A       		.byte	0xa
 3699 12f5 F702     		.2byte	0x2f7
 3700 12f7 4A120000 		.4byte	0x124a
 3701 12fb 00       		.byte	0
 3702 12fc 17       		.uleb128 0x17
 3703 12fd 3C080000 		.4byte	.LASF471
 3704 1301 0A       		.byte	0xa
 3705 1302 FF02     		.2byte	0x2ff
 3706 1304 A5000000 		.4byte	0xa5
 3707 1308 04       		.byte	0x4
 3708 1309 17       		.uleb128 0x17
 3709 130a 06280000 		.4byte	.LASF472
 3710 130e 0A       		.byte	0xa
 3711 130f 0403     		.2byte	0x304
 3712 1311 AE000000 		.4byte	0xae
 3713 1315 08       		.byte	0x8
 3714 1316 17       		.uleb128 0x17
 3715 1317 AE000000 		.4byte	.LASF473
 3716 131b 0A       		.byte	0xa
 3717 131c 0703     		.2byte	0x307
 3718 131e 7A120000 		.4byte	0x127a
 3719 1322 09       		.byte	0x9
 3720 1323 00       		.byte	0
 3721 1324 11       		.uleb128 0x11
 3722 1325 6A280000 		.4byte	.LASF474
 3723 1329 0A       		.byte	0xa
 3724 132a 0903     		.2byte	0x309
 3725 132c E6120000 		.4byte	0x12e6
 3726 1330 19       		.uleb128 0x19
 3727 1331 02       		.byte	0x2
 3728 1332 0A       		.byte	0xa
 3729 1333 2103     		.2byte	0x321
 3730 1335 52130000 		.4byte	0x1352
 3731 1339 1A       		.uleb128 0x1a
 3732 133a AE000000 		.4byte	.LASF473
 3733 133e 0A       		.byte	0xa
 3734 133f 2403     		.2byte	0x324
 3735 1341 7A120000 		.4byte	0x127a
 3736 1345 1A       		.uleb128 0x1a
 3737 1346 88330000 		.4byte	.LASF462
 3738 134a 0A       		.byte	0xa
 3739 134b 2703     		.2byte	0x327
 3740 134d AE000000 		.4byte	0xae
 3741 1351 00       		.byte	0
 3742 1352 16       		.uleb128 0x16
 3743 1353 04       		.byte	0x4
 3744 1354 0A       		.byte	0xa
 3745 1355 1B03     		.2byte	0x31b
 3746 1357 83130000 		.4byte	0x1383
 3747 135b 17       		.uleb128 0x17
 3748 135c 56510000 		.4byte	.LASF475
 3749 1360 0A       		.byte	0xa
ARM GAS  C:\Users\gjl\AppData\Local\Temp\ccRZOvUj.s 			page 102


 3750 1361 1E03     		.2byte	0x31e
 3751 1363 24120000 		.4byte	0x1224
 3752 1367 00       		.byte	0
 3753 1368 17       		.uleb128 0x17
 3754 1369 21790000 		.4byte	.LASF476
 3755 136d 0A       		.byte	0xa
 3756 136e 2903     		.2byte	0x329
 3757 1370 30130000 		.4byte	0x1330
 3758 1374 01       		.byte	0x1
 3759 1375 17       		.uleb128 0x17
 3760 1376 63030000 		.4byte	.LASF477
 3761 137a 0A       		.byte	0xa
 3762 137b 2C03     		.2byte	0x32c
 3763 137d AE000000 		.4byte	0xae
 3764 1381 03       		.byte	0x3
 3765 1382 00       		.byte	0
 3766 1383 11       		.uleb128 0x11
 3767 1384 9F510000 		.4byte	.LASF478
 3768 1388 0A       		.byte	0xa
 3769 1389 2E03     		.2byte	0x32e
 3770 138b 52130000 		.4byte	0x1352
 3771 138f 06       		.uleb128 0x6
 3772 1390 01       		.byte	0x1
 3773 1391 53000000 		.4byte	0x53
 3774 1395 0B       		.byte	0xb
 3775 1396 4E       		.byte	0x4e
 3776 1397 4A140000 		.4byte	0x144a
 3777 139b 08       		.uleb128 0x8
 3778 139c 6D2D0000 		.4byte	.LASF479
 3779 13a0 01       		.byte	0x1
 3780 13a1 08       		.uleb128 0x8
 3781 13a2 B6030000 		.4byte	.LASF480
 3782 13a6 02       		.byte	0x2
 3783 13a7 08       		.uleb128 0x8
 3784 13a8 2E030000 		.4byte	.LASF481
 3785 13ac 03       		.byte	0x3
 3786 13ad 08       		.uleb128 0x8
 3787 13ae EF3A0000 		.4byte	.LASF482
 3788 13b2 04       		.byte	0x4
 3789 13b3 08       		.uleb128 0x8
 3790 13b4 C31F0000 		.4byte	.LASF483
 3791 13b8 05       		.byte	0x5
 3792 13b9 08       		.uleb128 0x8
 3793 13ba 1B370000 		.4byte	.LASF484
 3794 13be 06       		.byte	0x6
 3795 13bf 08       		.uleb128 0x8
 3796 13c0 FA460000 		.4byte	.LASF485
 3797 13c4 07       		.byte	0x7
 3798 13c5 08       		.uleb128 0x8
 3799 13c6 61480000 		.4byte	.LASF486
 3800 13ca 08       		.byte	0x8
 3801 13cb 08       		.uleb128 0x8
 3802 13cc E4540000 		.4byte	.LASF487
 3803 13d0 09       		.byte	0x9
 3804 13d1 08       		.uleb128 0x8
 3805 13d2 34020000 		.4byte	.LASF488
 3806 13d6 0A       		.byte	0xa
ARM GAS  C:\Users\gjl\AppData\Local\Temp\ccRZOvUj.s 			page 103


 3807 13d7 08       		.uleb128 0x8
 3808 13d8 10120000 		.4byte	.LASF489
 3809 13dc 0B       		.byte	0xb
 3810 13dd 08       		.uleb128 0x8
 3811 13de 4C570000 		.4byte	.LASF490
 3812 13e2 0C       		.byte	0xc
 3813 13e3 08       		.uleb128 0x8
 3814 13e4 0F620000 		.4byte	.LASF491
 3815 13e8 0D       		.byte	0xd
 3816 13e9 08       		.uleb128 0x8
 3817 13ea CC320000 		.4byte	.LASF492
 3818 13ee 0E       		.byte	0xe
 3819 13ef 08       		.uleb128 0x8
 3820 13f0 AD420000 		.4byte	.LASF493
 3821 13f4 0F       		.byte	0xf
 3822 13f5 08       		.uleb128 0x8
 3823 13f6 AB100000 		.4byte	.LASF494
 3824 13fa 10       		.byte	0x10
 3825 13fb 08       		.uleb128 0x8
 3826 13fc FD1E0000 		.4byte	.LASF495
 3827 1400 11       		.byte	0x11
 3828 1401 08       		.uleb128 0x8
 3829 1402 3C000000 		.4byte	.LASF496
 3830 1406 12       		.byte	0x12
 3831 1407 08       		.uleb128 0x8
 3832 1408 18100000 		.4byte	.LASF497
 3833 140c 13       		.byte	0x13
 3834 140d 08       		.uleb128 0x8
 3835 140e 57670000 		.4byte	.LASF498
 3836 1412 52       		.byte	0x52
 3837 1413 08       		.uleb128 0x8
 3838 1414 01600000 		.4byte	.LASF499
 3839 1418 16       		.byte	0x16
 3840 1419 08       		.uleb128 0x8
 3841 141a 036D0000 		.4byte	.LASF500
 3842 141e 17       		.byte	0x17
 3843 141f 08       		.uleb128 0x8
 3844 1420 E2690000 		.4byte	.LASF501
 3845 1424 18       		.byte	0x18
 3846 1425 08       		.uleb128 0x8
 3847 1426 DC770000 		.4byte	.LASF502
 3848 142a 19       		.byte	0x19
 3849 142b 08       		.uleb128 0x8
 3850 142c 1F070000 		.4byte	.LASF503
 3851 1430 1B       		.byte	0x1b
 3852 1431 08       		.uleb128 0x8
 3853 1432 D8210000 		.4byte	.LASF504
 3854 1436 1D       		.byte	0x1d
 3855 1437 08       		.uleb128 0x8
 3856 1438 8B760000 		.4byte	.LASF505
 3857 143c 1E       		.byte	0x1e
 3858 143d 08       		.uleb128 0x8
 3859 143e 3E610000 		.4byte	.LASF506
 3860 1442 D2       		.byte	0xd2
 3861 1443 08       		.uleb128 0x8
 3862 1444 45240000 		.4byte	.LASF507
 3863 1448 FF       		.byte	0xff
ARM GAS  C:\Users\gjl\AppData\Local\Temp\ccRZOvUj.s 			page 104


 3864 1449 00       		.byte	0
 3865 144a 04       		.uleb128 0x4
 3866 144b 8C6C0000 		.4byte	.LASF508
 3867 144f 0B       		.byte	0xb
 3868 1450 A6       		.byte	0xa6
 3869 1451 8F130000 		.4byte	0x138f
 3870 1455 06       		.uleb128 0x6
 3871 1456 01       		.byte	0x1
 3872 1457 53000000 		.4byte	0x53
 3873 145b 0B       		.byte	0xb
 3874 145c AA       		.byte	0xaa
 3875 145d 46150000 		.4byte	0x1546
 3876 1461 08       		.uleb128 0x8
 3877 1462 75000000 		.4byte	.LASF509
 3878 1466 00       		.byte	0
 3879 1467 08       		.uleb128 0x8
 3880 1468 68250000 		.4byte	.LASF510
 3881 146c 01       		.byte	0x1
 3882 146d 08       		.uleb128 0x8
 3883 146e 89260000 		.4byte	.LASF511
 3884 1472 02       		.byte	0x2
 3885 1473 08       		.uleb128 0x8
 3886 1474 64170000 		.4byte	.LASF512
 3887 1478 03       		.byte	0x3
 3888 1479 08       		.uleb128 0x8
 3889 147a FC0F0000 		.4byte	.LASF513
 3890 147e 04       		.byte	0x4
 3891 147f 08       		.uleb128 0x8
 3892 1480 0D270000 		.4byte	.LASF514
 3893 1484 05       		.byte	0x5
 3894 1485 08       		.uleb128 0x8
 3895 1486 2F1D0000 		.4byte	.LASF515
 3896 148a 06       		.byte	0x6
 3897 148b 08       		.uleb128 0x8
 3898 148c 6F530000 		.4byte	.LASF516
 3899 1490 07       		.byte	0x7
 3900 1491 08       		.uleb128 0x8
 3901 1492 29620000 		.4byte	.LASF517
 3902 1496 08       		.byte	0x8
 3903 1497 08       		.uleb128 0x8
 3904 1498 C7260000 		.4byte	.LASF518
 3905 149c 09       		.byte	0x9
 3906 149d 08       		.uleb128 0x8
 3907 149e A84F0000 		.4byte	.LASF519
 3908 14a2 0A       		.byte	0xa
 3909 14a3 08       		.uleb128 0x8
 3910 14a4 66560000 		.4byte	.LASF520
 3911 14a8 0B       		.byte	0xb
 3912 14a9 08       		.uleb128 0x8
 3913 14aa 24700000 		.4byte	.LASF521
 3914 14ae 0C       		.byte	0xc
 3915 14af 08       		.uleb128 0x8
 3916 14b0 BD070000 		.4byte	.LASF522
 3917 14b4 0D       		.byte	0xd
 3918 14b5 08       		.uleb128 0x8
 3919 14b6 62130000 		.4byte	.LASF523
 3920 14ba 0E       		.byte	0xe
ARM GAS  C:\Users\gjl\AppData\Local\Temp\ccRZOvUj.s 			page 105


 3921 14bb 08       		.uleb128 0x8
 3922 14bc 29330000 		.4byte	.LASF524
 3923 14c0 0F       		.byte	0xf
 3924 14c1 08       		.uleb128 0x8
 3925 14c2 F4360000 		.4byte	.LASF525
 3926 14c6 10       		.byte	0x10
 3927 14c7 08       		.uleb128 0x8
 3928 14c8 66570000 		.4byte	.LASF526
 3929 14cc 11       		.byte	0x11
 3930 14cd 08       		.uleb128 0x8
 3931 14ce 15740000 		.4byte	.LASF527
 3932 14d2 80       		.byte	0x80
 3933 14d3 08       		.uleb128 0x8
 3934 14d4 99700000 		.4byte	.LASF528
 3935 14d8 80       		.byte	0x80
 3936 14d9 08       		.uleb128 0x8
 3937 14da 236A0000 		.4byte	.LASF529
 3938 14de 80       		.byte	0x80
 3939 14df 08       		.uleb128 0x8
 3940 14e0 87610000 		.4byte	.LASF530
 3941 14e4 80       		.byte	0x80
 3942 14e5 08       		.uleb128 0x8
 3943 14e6 B0650000 		.4byte	.LASF531
 3944 14ea 80       		.byte	0x80
 3945 14eb 08       		.uleb128 0x8
 3946 14ec FB720000 		.4byte	.LASF532
 3947 14f0 80       		.byte	0x80
 3948 14f1 08       		.uleb128 0x8
 3949 14f2 BB600000 		.4byte	.LASF533
 3950 14f6 80       		.byte	0x80
 3951 14f7 08       		.uleb128 0x8
 3952 14f8 B20D0000 		.4byte	.LASF534
 3953 14fc 81       		.byte	0x81
 3954 14fd 08       		.uleb128 0x8
 3955 14fe 71790000 		.4byte	.LASF535
 3956 1502 81       		.byte	0x81
 3957 1503 08       		.uleb128 0x8
 3958 1504 640E0000 		.4byte	.LASF536
 3959 1508 81       		.byte	0x81
 3960 1509 08       		.uleb128 0x8
 3961 150a 64230000 		.4byte	.LASF537
 3962 150e 81       		.byte	0x81
 3963 150f 08       		.uleb128 0x8
 3964 1510 106F0000 		.4byte	.LASF538
 3965 1514 82       		.byte	0x82
 3966 1515 08       		.uleb128 0x8
 3967 1516 1D2F0000 		.4byte	.LASF539
 3968 151a A0       		.byte	0xa0
 3969 151b 08       		.uleb128 0x8
 3970 151c 344F0000 		.4byte	.LASF540
 3971 1520 A0       		.byte	0xa0
 3972 1521 08       		.uleb128 0x8
 3973 1522 92110000 		.4byte	.LASF541
 3974 1526 A1       		.byte	0xa1
 3975 1527 08       		.uleb128 0x8
 3976 1528 93380000 		.4byte	.LASF542
 3977 152c A2       		.byte	0xa2
ARM GAS  C:\Users\gjl\AppData\Local\Temp\ccRZOvUj.s 			page 106


 3978 152d 08       		.uleb128 0x8
 3979 152e 4E700000 		.4byte	.LASF543
 3980 1532 A3       		.byte	0xa3
 3981 1533 08       		.uleb128 0x8
 3982 1534 10110000 		.4byte	.LASF544
 3983 1538 FD       		.byte	0xfd
 3984 1539 08       		.uleb128 0x8
 3985 153a 21190000 		.4byte	.LASF545
 3986 153e FE       		.byte	0xfe
 3987 153f 08       		.uleb128 0x8
 3988 1540 FB040000 		.4byte	.LASF546
 3989 1544 FF       		.byte	0xff
 3990 1545 00       		.byte	0
 3991 1546 11       		.uleb128 0x11
 3992 1547 4A5B0000 		.4byte	.LASF547
 3993 154b 0B       		.byte	0xb
 3994 154c 6101     		.2byte	0x161
 3995 154e 55140000 		.4byte	0x1455
 3996 1552 11       		.uleb128 0x11
 3997 1553 17570000 		.4byte	.LASF548
 3998 1557 0B       		.byte	0xb
 3999 1558 7F01     		.2byte	0x17f
 4000 155a B9000000 		.4byte	0xb9
 4001 155e 16       		.uleb128 0x16
 4002 155f 08       		.byte	0x8
 4003 1560 0B       		.byte	0xb
 4004 1561 9401     		.2byte	0x194
 4005 1563 8F150000 		.4byte	0x158f
 4006 1567 1B       		.uleb128 0x1b
 4007 1568 76616C00 		.ascii	"val\000"
 4008 156c 0B       		.byte	0xb
 4009 156d 9701     		.2byte	0x197
 4010 156f 8E110000 		.4byte	0x118e
 4011 1573 00       		.byte	0
 4012 1574 1B       		.uleb128 0x1b
 4013 1575 6C656E00 		.ascii	"len\000"
 4014 1579 0B       		.byte	0xb
 4015 157a 9A01     		.2byte	0x19a
 4016 157c B9000000 		.4byte	0xb9
 4017 1580 04       		.byte	0x4
 4018 1581 17       		.uleb128 0x17
 4019 1582 B51A0000 		.4byte	.LASF549
 4020 1586 0B       		.byte	0xb
 4021 1587 A101     		.2byte	0x1a1
 4022 1589 B9000000 		.4byte	0xb9
 4023 158d 06       		.byte	0x6
 4024 158e 00       		.byte	0
 4025 158f 11       		.uleb128 0x11
 4026 1590 0C3E0000 		.4byte	.LASF550
 4027 1594 0B       		.byte	0xb
 4028 1595 A301     		.2byte	0x1a3
 4029 1597 5E150000 		.4byte	0x155e
 4030 159b 16       		.uleb128 0x16
 4031 159c 0C       		.byte	0xc
 4032 159d 0B       		.byte	0xb
 4033 159e A601     		.2byte	0x1a6
 4034 15a0 BF150000 		.4byte	0x15bf
ARM GAS  C:\Users\gjl\AppData\Local\Temp\ccRZOvUj.s 			page 107


 4035 15a4 17       		.uleb128 0x17
 4036 15a5 AD480000 		.4byte	.LASF551
 4037 15a9 0B       		.byte	0xb
 4038 15aa A901     		.2byte	0x1a9
 4039 15ac 8F150000 		.4byte	0x158f
 4040 15b0 00       		.byte	0
 4041 15b1 17       		.uleb128 0x17
 4042 15b2 865E0000 		.4byte	.LASF552
 4043 15b6 0B       		.byte	0xb
 4044 15b7 AC01     		.2byte	0x1ac
 4045 15b9 52150000 		.4byte	0x1552
 4046 15bd 08       		.byte	0x8
 4047 15be 00       		.byte	0
 4048 15bf 11       		.uleb128 0x11
 4049 15c0 54620000 		.4byte	.LASF553
 4050 15c4 0B       		.byte	0xb
 4051 15c5 AE01     		.2byte	0x1ae
 4052 15c7 9B150000 		.4byte	0x159b
 4053 15cb 16       		.uleb128 0x16
 4054 15cc 04       		.byte	0x4
 4055 15cd 0B       		.byte	0xb
 4056 15ce BC01     		.2byte	0x1bc
 4057 15d0 EF150000 		.4byte	0x15ef
 4058 15d4 17       		.uleb128 0x17
 4059 15d5 AE000000 		.4byte	.LASF473
 4060 15d9 0B       		.byte	0xb
 4061 15da BF01     		.2byte	0x1bf
 4062 15dc 7A120000 		.4byte	0x127a
 4063 15e0 00       		.byte	0
 4064 15e1 1B       		.uleb128 0x1b
 4065 15e2 6D747500 		.ascii	"mtu\000"
 4066 15e6 0B       		.byte	0xb
 4067 15e7 C201     		.2byte	0x1c2
 4068 15e9 B9000000 		.4byte	0xb9
 4069 15ed 02       		.byte	0x2
 4070 15ee 00       		.byte	0
 4071 15ef 11       		.uleb128 0x11
 4072 15f0 49280000 		.4byte	.LASF554
 4073 15f4 0B       		.byte	0xb
 4074 15f5 C401     		.2byte	0x1c4
 4075 15f7 CB150000 		.4byte	0x15cb
 4076 15fb 16       		.uleb128 0x16
 4077 15fc 10       		.byte	0x10
 4078 15fd 0B       		.byte	0xb
 4079 15fe D201     		.2byte	0x1d2
 4080 1600 1F160000 		.4byte	0x161f
 4081 1604 17       		.uleb128 0x17
 4082 1605 D2390000 		.4byte	.LASF555
 4083 1609 0B       		.byte	0xb
 4084 160a D501     		.2byte	0x1d5
 4085 160c BF150000 		.4byte	0x15bf
 4086 1610 00       		.byte	0
 4087 1611 17       		.uleb128 0x17
 4088 1612 AE000000 		.4byte	.LASF473
 4089 1616 0B       		.byte	0xb
 4090 1617 D801     		.2byte	0x1d8
 4091 1619 7A120000 		.4byte	0x127a
ARM GAS  C:\Users\gjl\AppData\Local\Temp\ccRZOvUj.s 			page 108


 4092 161d 0C       		.byte	0xc
 4093 161e 00       		.byte	0
 4094 161f 11       		.uleb128 0x11
 4095 1620 B5490000 		.4byte	.LASF556
 4096 1624 0B       		.byte	0xb
 4097 1625 DA01     		.2byte	0x1da
 4098 1627 FB150000 		.4byte	0x15fb
 4099 162b 16       		.uleb128 0x16
 4100 162c 04       		.byte	0x4
 4101 162d 0B       		.byte	0xb
 4102 162e DD01     		.2byte	0x1dd
 4103 1630 5C160000 		.4byte	0x165c
 4104 1634 17       		.uleb128 0x17
 4105 1635 865E0000 		.4byte	.LASF552
 4106 1639 0B       		.byte	0xb
 4107 163a E001     		.2byte	0x1e0
 4108 163c 52150000 		.4byte	0x1552
 4109 1640 00       		.byte	0
 4110 1641 17       		.uleb128 0x17
 4111 1642 6E740000 		.4byte	.LASF557
 4112 1646 0B       		.byte	0xb
 4113 1647 E301     		.2byte	0x1e3
 4114 1649 4A140000 		.4byte	0x144a
 4115 164d 02       		.byte	0x2
 4116 164e 17       		.uleb128 0x17
 4117 164f D3490000 		.4byte	.LASF558
 4118 1653 0B       		.byte	0xb
 4119 1654 E601     		.2byte	0x1e6
 4120 1656 46150000 		.4byte	0x1546
 4121 165a 03       		.byte	0x3
 4122 165b 00       		.byte	0
 4123 165c 11       		.uleb128 0x11
 4124 165d FF130000 		.4byte	.LASF559
 4125 1661 0B       		.byte	0xb
 4126 1662 E801     		.2byte	0x1e8
 4127 1664 2B160000 		.4byte	0x162b
 4128 1668 16       		.uleb128 0x16
 4129 1669 06       		.byte	0x6
 4130 166a 0B       		.byte	0xb
 4131 166b EB01     		.2byte	0x1eb
 4132 166d 8C160000 		.4byte	0x168c
 4133 1671 17       		.uleb128 0x17
 4134 1672 AE000000 		.4byte	.LASF473
 4135 1676 0B       		.byte	0xb
 4136 1677 EE01     		.2byte	0x1ee
 4137 1679 7A120000 		.4byte	0x127a
 4138 167d 00       		.byte	0
 4139 167e 17       		.uleb128 0x17
 4140 167f AA010000 		.4byte	.LASF560
 4141 1683 0B       		.byte	0xb
 4142 1684 F101     		.2byte	0x1f1
 4143 1686 5C160000 		.4byte	0x165c
 4144 168a 02       		.byte	0x2
 4145 168b 00       		.byte	0
 4146 168c 11       		.uleb128 0x11
 4147 168d E2180000 		.4byte	.LASF561
 4148 1691 0B       		.byte	0xb
ARM GAS  C:\Users\gjl\AppData\Local\Temp\ccRZOvUj.s 			page 109


 4149 1692 F301     		.2byte	0x1f3
 4150 1694 68160000 		.4byte	0x1668
 4151 1698 16       		.uleb128 0x16
 4152 1699 0C       		.byte	0xc
 4153 169a 0B       		.byte	0xb
 4154 169b 0302     		.2byte	0x203
 4155 169d D6160000 		.4byte	0x16d6
 4156 16a1 17       		.uleb128 0x17
 4157 16a2 3D280000 		.4byte	.LASF562
 4158 16a6 0B       		.byte	0xb
 4159 16a7 0802     		.2byte	0x208
 4160 16a9 8E110000 		.4byte	0x118e
 4161 16ad 00       		.byte	0
 4162 16ae 17       		.uleb128 0x17
 4163 16af BC060000 		.4byte	.LASF563
 4164 16b3 0B       		.byte	0xb
 4165 16b4 0D02     		.2byte	0x20d
 4166 16b6 B9000000 		.4byte	0xb9
 4167 16ba 04       		.byte	0x4
 4168 16bb 17       		.uleb128 0x17
 4169 16bc C9760000 		.4byte	.LASF564
 4170 16c0 0B       		.byte	0xb
 4171 16c1 1302     		.2byte	0x213
 4172 16c3 B9000000 		.4byte	0xb9
 4173 16c7 06       		.byte	0x6
 4174 16c8 17       		.uleb128 0x17
 4175 16c9 AE000000 		.4byte	.LASF473
 4176 16cd 0B       		.byte	0xb
 4177 16ce 1602     		.2byte	0x216
 4178 16d0 7A120000 		.4byte	0x127a
 4179 16d4 08       		.byte	0x8
 4180 16d5 00       		.byte	0
 4181 16d6 11       		.uleb128 0x11
 4182 16d7 51330000 		.4byte	.LASF565
 4183 16db 0B       		.byte	0xb
 4184 16dc 1802     		.2byte	0x218
 4185 16de 98160000 		.4byte	0x1698
 4186 16e2 06       		.uleb128 0x6
 4187 16e3 01       		.byte	0x1
 4188 16e4 53000000 		.4byte	0x53
 4189 16e8 0C       		.byte	0xc
 4190 16e9 D0       		.byte	0xd0
 4191 16ea 0D170000 		.4byte	0x170d
 4192 16ee 08       		.uleb128 0x8
 4193 16ef AF470000 		.4byte	.LASF566
 4194 16f3 00       		.byte	0
 4195 16f4 08       		.uleb128 0x8
 4196 16f5 BC3B0000 		.4byte	.LASF567
 4197 16f9 01       		.byte	0x1
 4198 16fa 08       		.uleb128 0x8
 4199 16fb AB5F0000 		.4byte	.LASF568
 4200 16ff 02       		.byte	0x2
 4201 1700 08       		.uleb128 0x8
 4202 1701 124F0000 		.4byte	.LASF569
 4203 1705 03       		.byte	0x3
 4204 1706 08       		.uleb128 0x8
 4205 1707 42420000 		.4byte	.LASF570
ARM GAS  C:\Users\gjl\AppData\Local\Temp\ccRZOvUj.s 			page 110


 4206 170b 04       		.byte	0x4
 4207 170c 00       		.byte	0
 4208 170d 04       		.uleb128 0x4
 4209 170e 79550000 		.4byte	.LASF571
 4210 1712 0C       		.byte	0xc
 4211 1713 E2       		.byte	0xe2
 4212 1714 E2160000 		.4byte	0x16e2
 4213 1718 06       		.uleb128 0x6
 4214 1719 01       		.byte	0x1
 4215 171a 53000000 		.4byte	0x53
 4216 171e 0C       		.byte	0xc
 4217 171f E6       		.byte	0xe6
 4218 1720 8B170000 		.4byte	0x178b
 4219 1724 08       		.uleb128 0x8
 4220 1725 F3680000 		.4byte	.LASF572
 4221 1729 00       		.byte	0
 4222 172a 08       		.uleb128 0x8
 4223 172b DB140000 		.4byte	.LASF573
 4224 172f 01       		.byte	0x1
 4225 1730 08       		.uleb128 0x8
 4226 1731 EB120000 		.4byte	.LASF574
 4227 1735 02       		.byte	0x2
 4228 1736 08       		.uleb128 0x8
 4229 1737 1F1A0000 		.4byte	.LASF575
 4230 173b 03       		.byte	0x3
 4231 173c 08       		.uleb128 0x8
 4232 173d 811E0000 		.4byte	.LASF576
 4233 1741 04       		.byte	0x4
 4234 1742 08       		.uleb128 0x8
 4235 1743 C5040000 		.4byte	.LASF577
 4236 1747 05       		.byte	0x5
 4237 1748 08       		.uleb128 0x8
 4238 1749 D44C0000 		.4byte	.LASF578
 4239 174d 06       		.byte	0x6
 4240 174e 08       		.uleb128 0x8
 4241 174f E01D0000 		.4byte	.LASF579
 4242 1753 07       		.byte	0x7
 4243 1754 08       		.uleb128 0x8
 4244 1755 99190000 		.4byte	.LASF580
 4245 1759 08       		.byte	0x8
 4246 175a 08       		.uleb128 0x8
 4247 175b 71700000 		.4byte	.LASF581
 4248 175f 09       		.byte	0x9
 4249 1760 08       		.uleb128 0x8
 4250 1761 52110000 		.4byte	.LASF582
 4251 1765 0A       		.byte	0xa
 4252 1766 08       		.uleb128 0x8
 4253 1767 995C0000 		.4byte	.LASF583
 4254 176b 0B       		.byte	0xb
 4255 176c 08       		.uleb128 0x8
 4256 176d BE530000 		.4byte	.LASF584
 4257 1771 0C       		.byte	0xc
 4258 1772 08       		.uleb128 0x8
 4259 1773 75430000 		.4byte	.LASF585
 4260 1777 0D       		.byte	0xd
 4261 1778 08       		.uleb128 0x8
 4262 1779 11720000 		.4byte	.LASF586
ARM GAS  C:\Users\gjl\AppData\Local\Temp\ccRZOvUj.s 			page 111


 4263 177d 0E       		.byte	0xe
 4264 177e 08       		.uleb128 0x8
 4265 177f 8F550000 		.4byte	.LASF587
 4266 1783 15       		.byte	0x15
 4267 1784 08       		.uleb128 0x8
 4268 1785 723F0000 		.4byte	.LASF588
 4269 1789 18       		.byte	0x18
 4270 178a 00       		.byte	0
 4271 178b 11       		.uleb128 0x11
 4272 178c 1A140000 		.4byte	.LASF589
 4273 1790 0C       		.byte	0xc
 4274 1791 2301     		.2byte	0x123
 4275 1793 18170000 		.4byte	0x1718
 4276 1797 13       		.uleb128 0x13
 4277 1798 01       		.byte	0x1
 4278 1799 53000000 		.4byte	0x53
 4279 179d 0C       		.byte	0xc
 4280 179e 4D01     		.2byte	0x14d
 4281 17a0 BD170000 		.4byte	0x17bd
 4282 17a4 08       		.uleb128 0x8
 4283 17a5 A1640000 		.4byte	.LASF590
 4284 17a9 00       		.byte	0
 4285 17aa 08       		.uleb128 0x8
 4286 17ab FA6A0000 		.4byte	.LASF591
 4287 17af 01       		.byte	0x1
 4288 17b0 08       		.uleb128 0x8
 4289 17b1 DB3B0000 		.4byte	.LASF592
 4290 17b5 02       		.byte	0x2
 4291 17b6 08       		.uleb128 0x8
 4292 17b7 6F400000 		.4byte	.LASF593
 4293 17bb 03       		.byte	0x3
 4294 17bc 00       		.byte	0
 4295 17bd 11       		.uleb128 0x11
 4296 17be B2590000 		.4byte	.LASF594
 4297 17c2 0C       		.byte	0xc
 4298 17c3 5A01     		.2byte	0x15a
 4299 17c5 97170000 		.4byte	0x1797
 4300 17c9 11       		.uleb128 0x11
 4301 17ca 3D150000 		.4byte	.LASF595
 4302 17ce 0C       		.byte	0xc
 4303 17cf 6101     		.2byte	0x161
 4304 17d1 82110000 		.4byte	0x1182
 4305 17d5 16       		.uleb128 0x16
 4306 17d6 06       		.byte	0x6
 4307 17d7 0C       		.byte	0xc
 4308 17d8 E501     		.2byte	0x1e5
 4309 17da 2D180000 		.4byte	0x182d
 4310 17de 17       		.uleb128 0x17
 4311 17df 89180000 		.4byte	.LASF596
 4312 17e3 0C       		.byte	0xc
 4313 17e4 EE01     		.2byte	0x1ee
 4314 17e6 AE000000 		.4byte	0xae
 4315 17ea 00       		.byte	0
 4316 17eb 17       		.uleb128 0x17
 4317 17ec 3A380000 		.4byte	.LASF597
 4318 17f0 0C       		.byte	0xc
 4319 17f1 F401     		.2byte	0x1f4
ARM GAS  C:\Users\gjl\AppData\Local\Temp\ccRZOvUj.s 			page 112


 4320 17f3 AE000000 		.4byte	0xae
 4321 17f7 01       		.byte	0x1
 4322 17f8 17       		.uleb128 0x17
 4323 17f9 74650000 		.4byte	.LASF598
 4324 17fd 0C       		.byte	0xc
 4325 17fe FB01     		.2byte	0x1fb
 4326 1800 AE000000 		.4byte	0xae
 4327 1804 02       		.byte	0x2
 4328 1805 17       		.uleb128 0x17
 4329 1806 41410000 		.4byte	.LASF599
 4330 180a 0C       		.byte	0xc
 4331 180b FF01     		.2byte	0x1ff
 4332 180d 8B170000 		.4byte	0x178b
 4333 1811 03       		.byte	0x3
 4334 1812 17       		.uleb128 0x17
 4335 1813 B63E0000 		.4byte	.LASF600
 4336 1817 0C       		.byte	0xc
 4337 1818 0902     		.2byte	0x209
 4338 181a AE000000 		.4byte	0xae
 4339 181e 04       		.byte	0x4
 4340 181f 17       		.uleb128 0x17
 4341 1820 88330000 		.4byte	.LASF462
 4342 1824 0C       		.byte	0xc
 4343 1825 0C02     		.2byte	0x20c
 4344 1827 AE000000 		.4byte	0xae
 4345 182b 05       		.byte	0x5
 4346 182c 00       		.byte	0
 4347 182d 11       		.uleb128 0x11
 4348 182e 00000000 		.4byte	.LASF601
 4349 1832 0C       		.byte	0xc
 4350 1833 0E02     		.2byte	0x20e
 4351 1835 D5170000 		.4byte	0x17d5
 4352 1839 16       		.uleb128 0x16
 4353 183a 0A       		.byte	0xa
 4354 183b 0C       		.byte	0xc
 4355 183c B102     		.2byte	0x2b1
 4356 183e 84180000 		.4byte	0x1884
 4357 1842 17       		.uleb128 0x17
 4358 1843 C9220000 		.4byte	.LASF602
 4359 1847 0C       		.byte	0xc
 4360 1848 B502     		.2byte	0x2b5
 4361 184a AE000000 		.4byte	0xae
 4362 184e 00       		.byte	0
 4363 184f 17       		.uleb128 0x17
 4364 1850 A4480000 		.4byte	.LASF603
 4365 1854 0C       		.byte	0xc
 4366 1855 BB02     		.2byte	0x2bb
 4367 1857 B9000000 		.4byte	0xb9
 4368 185b 02       		.byte	0x2
 4369 185c 17       		.uleb128 0x17
 4370 185d 53290000 		.4byte	.LASF604
 4371 1861 0C       		.byte	0xc
 4372 1862 C002     		.2byte	0x2c0
 4373 1864 B9000000 		.4byte	0xb9
 4374 1868 04       		.byte	0x4
 4375 1869 17       		.uleb128 0x17
 4376 186a E23F0000 		.4byte	.LASF605
ARM GAS  C:\Users\gjl\AppData\Local\Temp\ccRZOvUj.s 			page 113


 4377 186e 0C       		.byte	0xc
 4378 186f C602     		.2byte	0x2c6
 4379 1871 B9000000 		.4byte	0xb9
 4380 1875 06       		.byte	0x6
 4381 1876 17       		.uleb128 0x17
 4382 1877 88330000 		.4byte	.LASF462
 4383 187b 0C       		.byte	0xc
 4384 187c C902     		.2byte	0x2c9
 4385 187e AE000000 		.4byte	0xae
 4386 1882 08       		.byte	0x8
 4387 1883 00       		.byte	0
 4388 1884 11       		.uleb128 0x11
 4389 1885 674C0000 		.4byte	.LASF606
 4390 1889 0C       		.byte	0xc
 4391 188a CB02     		.2byte	0x2cb
 4392 188c 39180000 		.4byte	0x1839
 4393 1890 16       		.uleb128 0x16
 4394 1891 1C       		.byte	0x1c
 4395 1892 0C       		.byte	0xc
 4396 1893 1003     		.2byte	0x310
 4397 1895 29190000 		.4byte	0x1929
 4398 1899 17       		.uleb128 0x17
 4399 189a A4480000 		.4byte	.LASF603
 4400 189e 0C       		.byte	0xc
 4401 189f 1603     		.2byte	0x316
 4402 18a1 B9000000 		.4byte	0xb9
 4403 18a5 00       		.byte	0
 4404 18a6 17       		.uleb128 0x17
 4405 18a7 53290000 		.4byte	.LASF604
 4406 18ab 0C       		.byte	0xc
 4407 18ac 1B03     		.2byte	0x31b
 4408 18ae B9000000 		.4byte	0xb9
 4409 18b2 02       		.byte	0x2
 4410 18b3 17       		.uleb128 0x17
 4411 18b4 BD400000 		.4byte	.LASF607
 4412 18b8 0C       		.byte	0xc
 4413 18b9 2103     		.2byte	0x321
 4414 18bb B9000000 		.4byte	0xb9
 4415 18bf 04       		.byte	0x4
 4416 18c0 17       		.uleb128 0x17
 4417 18c1 8D060000 		.4byte	.LASF608
 4418 18c5 0C       		.byte	0xc
 4419 18c6 2403     		.2byte	0x324
 4420 18c8 8E110000 		.4byte	0x118e
 4421 18cc 08       		.byte	0x8
 4422 18cd 17       		.uleb128 0x17
 4423 18ce 476D0000 		.4byte	.LASF609
 4424 18d2 0C       		.byte	0xc
 4425 18d3 2703     		.2byte	0x327
 4426 18d5 BD170000 		.4byte	0x17bd
 4427 18d9 0C       		.byte	0xc
 4428 18da 17       		.uleb128 0x17
 4429 18db 093B0000 		.4byte	.LASF610
 4430 18df 0C       		.byte	0xc
 4431 18e0 3103     		.2byte	0x331
 4432 18e2 8E110000 		.4byte	0x118e
 4433 18e6 10       		.byte	0x10
ARM GAS  C:\Users\gjl\AppData\Local\Temp\ccRZOvUj.s 			page 114


 4434 18e7 17       		.uleb128 0x17
 4435 18e8 F1310000 		.4byte	.LASF611
 4436 18ec 0C       		.byte	0xc
 4437 18ed 3A03     		.2byte	0x33a
 4438 18ef 8E110000 		.4byte	0x118e
 4439 18f3 14       		.byte	0x14
 4440 18f4 17       		.uleb128 0x17
 4441 18f5 D94A0000 		.4byte	.LASF612
 4442 18f9 0C       		.byte	0xc
 4443 18fa 3E03     		.2byte	0x33e
 4444 18fc AE000000 		.4byte	0xae
 4445 1900 18       		.byte	0x18
 4446 1901 17       		.uleb128 0x17
 4447 1902 29150000 		.4byte	.LASF613
 4448 1906 0C       		.byte	0xc
 4449 1907 4A03     		.2byte	0x34a
 4450 1909 AE000000 		.4byte	0xae
 4451 190d 19       		.byte	0x19
 4452 190e 17       		.uleb128 0x17
 4453 190f C9220000 		.4byte	.LASF602
 4454 1913 0C       		.byte	0xc
 4455 1914 5003     		.2byte	0x350
 4456 1916 AE000000 		.4byte	0xae
 4457 191a 1A       		.byte	0x1a
 4458 191b 17       		.uleb128 0x17
 4459 191c 88330000 		.4byte	.LASF462
 4460 1920 0C       		.byte	0xc
 4461 1921 5303     		.2byte	0x353
 4462 1923 AE000000 		.4byte	0xae
 4463 1927 1B       		.byte	0x1b
 4464 1928 00       		.byte	0
 4465 1929 11       		.uleb128 0x11
 4466 192a 2F790000 		.4byte	.LASF614
 4467 192e 0C       		.byte	0xc
 4468 192f 5503     		.2byte	0x355
 4469 1931 90180000 		.4byte	0x1890
 4470 1935 12       		.uleb128 0x12
 4471 1936 0C       		.byte	0xc
 4472 1937 0D       		.byte	0xd
 4473 1938 6D       		.byte	0x6d
 4474 1939 9E190000 		.4byte	0x199e
 4475 193d 0E       		.uleb128 0xe
 4476 193e 86460000 		.4byte	.LASF615
 4477 1942 0D       		.byte	0xd
 4478 1943 74       		.byte	0x74
 4479 1944 AE000000 		.4byte	0xae
 4480 1948 00       		.byte	0
 4481 1949 0E       		.uleb128 0xe
 4482 194a 75640000 		.4byte	.LASF616
 4483 194e 0D       		.byte	0xd
 4484 194f 7A       		.byte	0x7a
 4485 1950 AE000000 		.4byte	0xae
 4486 1954 01       		.byte	0x1
 4487 1955 0E       		.uleb128 0xe
 4488 1956 076F0000 		.4byte	.LASF617
 4489 195a 0D       		.byte	0xd
 4490 195b 81       		.byte	0x81
ARM GAS  C:\Users\gjl\AppData\Local\Temp\ccRZOvUj.s 			page 115


 4491 195c B9000000 		.4byte	0xb9
 4492 1960 02       		.byte	0x2
 4493 1961 0E       		.uleb128 0xe
 4494 1962 300D0000 		.4byte	.LASF618
 4495 1966 0D       		.byte	0xd
 4496 1967 88       		.byte	0x88
 4497 1968 B9000000 		.4byte	0xb9
 4498 196c 04       		.byte	0x4
 4499 196d 0E       		.uleb128 0xe
 4500 196e 18380000 		.4byte	.LASF619
 4501 1972 0D       		.byte	0xd
 4502 1973 90       		.byte	0x90
 4503 1974 AE000000 		.4byte	0xae
 4504 1978 06       		.byte	0x6
 4505 1979 0E       		.uleb128 0xe
 4506 197a AE280000 		.4byte	.LASF620
 4507 197e 0D       		.byte	0xd
 4508 197f 98       		.byte	0x98
 4509 1980 AE000000 		.4byte	0xae
 4510 1984 07       		.byte	0x7
 4511 1985 0E       		.uleb128 0xe
 4512 1986 C60C0000 		.4byte	.LASF621
 4513 198a 0D       		.byte	0xd
 4514 198b 9C       		.byte	0x9c
 4515 198c B9000000 		.4byte	0xb9
 4516 1990 08       		.byte	0x8
 4517 1991 0E       		.uleb128 0xe
 4518 1992 EA2A0000 		.4byte	.LASF622
 4519 1996 0D       		.byte	0xd
 4520 1997 A6       		.byte	0xa6
 4521 1998 AE000000 		.4byte	0xae
 4522 199c 0A       		.byte	0xa
 4523 199d 00       		.byte	0
 4524 199e 04       		.uleb128 0x4
 4525 199f 5E060000 		.4byte	.LASF623
 4526 19a3 0D       		.byte	0xd
 4527 19a4 A8       		.byte	0xa8
 4528 19a5 35190000 		.4byte	0x1935
 4529 19a9 06       		.uleb128 0x6
 4530 19aa 01       		.byte	0x1
 4531 19ab 53000000 		.4byte	0x53
 4532 19af 0E       		.byte	0xe
 4533 19b0 39       		.byte	0x39
 4534 19b1 D4190000 		.4byte	0x19d4
 4535 19b5 08       		.uleb128 0x8
 4536 19b6 62180000 		.4byte	.LASF624
 4537 19ba 00       		.byte	0
 4538 19bb 08       		.uleb128 0x8
 4539 19bc B4050000 		.4byte	.LASF625
 4540 19c0 01       		.byte	0x1
 4541 19c1 08       		.uleb128 0x8
 4542 19c2 51070000 		.4byte	.LASF626
 4543 19c6 02       		.byte	0x2
 4544 19c7 08       		.uleb128 0x8
 4545 19c8 8E160000 		.4byte	.LASF627
 4546 19cc 03       		.byte	0x3
 4547 19cd 08       		.uleb128 0x8
ARM GAS  C:\Users\gjl\AppData\Local\Temp\ccRZOvUj.s 			page 116


 4548 19ce EA320000 		.4byte	.LASF628
 4549 19d2 04       		.byte	0x4
 4550 19d3 00       		.byte	0
 4551 19d4 04       		.uleb128 0x4
 4552 19d5 75220000 		.4byte	.LASF629
 4553 19d9 0E       		.byte	0xe
 4554 19da 49       		.byte	0x49
 4555 19db A9190000 		.4byte	0x19a9
 4556 19df 12       		.uleb128 0x12
 4557 19e0 10       		.byte	0x10
 4558 19e1 0E       		.byte	0xe
 4559 19e2 51       		.byte	0x51
 4560 19e3 481A0000 		.4byte	0x1a48
 4561 19e7 0E       		.uleb128 0xe
 4562 19e8 451C0000 		.4byte	.LASF630
 4563 19ec 0E       		.byte	0xe
 4564 19ed 59       		.byte	0x59
 4565 19ee B9000000 		.4byte	0xb9
 4566 19f2 00       		.byte	0
 4567 19f3 0E       		.uleb128 0xe
 4568 19f4 340E0000 		.4byte	.LASF631
 4569 19f8 0E       		.byte	0xe
 4570 19f9 61       		.byte	0x61
 4571 19fa B9000000 		.4byte	0xb9
 4572 19fe 02       		.byte	0x2
 4573 19ff 0E       		.uleb128 0xe
 4574 1a00 E1050000 		.4byte	.LASF632
 4575 1a04 0E       		.byte	0xe
 4576 1a05 6A       		.byte	0x6a
 4577 1a06 D4190000 		.4byte	0x19d4
 4578 1a0a 04       		.byte	0x4
 4579 1a0b 0E       		.uleb128 0xe
 4580 1a0c 18380000 		.4byte	.LASF619
 4581 1a10 0E       		.byte	0xe
 4582 1a11 72       		.byte	0x72
 4583 1a12 AE000000 		.4byte	0xae
 4584 1a16 05       		.byte	0x5
 4585 1a17 0E       		.uleb128 0xe
 4586 1a18 030C0000 		.4byte	.LASF633
 4587 1a1c 0E       		.byte	0xe
 4588 1a1d 79       		.byte	0x79
 4589 1a1e AE000000 		.4byte	0xae
 4590 1a22 06       		.byte	0x6
 4591 1a23 0E       		.uleb128 0xe
 4592 1a24 8E530000 		.4byte	.LASF634
 4593 1a28 0E       		.byte	0xe
 4594 1a29 7F       		.byte	0x7f
 4595 1a2a 72110000 		.4byte	0x1172
 4596 1a2e 07       		.byte	0x7
 4597 1a2f 0E       		.uleb128 0xe
 4598 1a30 280B0000 		.4byte	.LASF635
 4599 1a34 0E       		.byte	0xe
 4600 1a35 87       		.byte	0x87
 4601 1a36 AE000000 		.4byte	0xae
 4602 1a3a 0D       		.byte	0xd
 4603 1a3b 0E       		.uleb128 0xe
 4604 1a3c 9B5F0000 		.4byte	.LASF636
ARM GAS  C:\Users\gjl\AppData\Local\Temp\ccRZOvUj.s 			page 117


 4605 1a40 0E       		.byte	0xe
 4606 1a41 93       		.byte	0x93
 4607 1a42 AE000000 		.4byte	0xae
 4608 1a46 0E       		.byte	0xe
 4609 1a47 00       		.byte	0
 4610 1a48 04       		.uleb128 0x4
 4611 1a49 B9000000 		.4byte	.LASF637
 4612 1a4d 0E       		.byte	0xe
 4613 1a4e 95       		.byte	0x95
 4614 1a4f DF190000 		.4byte	0x19df
 4615 1a53 12       		.uleb128 0x12
 4616 1a54 20       		.byte	0x20
 4617 1a55 0E       		.byte	0xe
 4618 1a56 98       		.byte	0x98
 4619 1a57 741A0000 		.4byte	0x1a74
 4620 1a5b 0E       		.uleb128 0xe
 4621 1a5c 4C530000 		.4byte	.LASF638
 4622 1a60 0E       		.byte	0xe
 4623 1a61 9B       		.byte	0x9b
 4624 1a62 741A0000 		.4byte	0x1a74
 4625 1a66 00       		.byte	0
 4626 1a67 0E       		.uleb128 0xe
 4627 1a68 566D0000 		.4byte	.LASF639
 4628 1a6c 0E       		.byte	0xe
 4629 1a6d 9E       		.byte	0x9e
 4630 1a6e AE000000 		.4byte	0xae
 4631 1a72 1F       		.byte	0x1f
 4632 1a73 00       		.byte	0
 4633 1a74 0B       		.uleb128 0xb
 4634 1a75 AE000000 		.4byte	0xae
 4635 1a79 841A0000 		.4byte	0x1a84
 4636 1a7d 0C       		.uleb128 0xc
 4637 1a7e 9E000000 		.4byte	0x9e
 4638 1a82 1E       		.byte	0x1e
 4639 1a83 00       		.byte	0
 4640 1a84 04       		.uleb128 0x4
 4641 1a85 2A520000 		.4byte	.LASF640
 4642 1a89 0E       		.byte	0xe
 4643 1a8a A0       		.byte	0xa0
 4644 1a8b 531A0000 		.4byte	0x1a53
 4645 1a8f 12       		.uleb128 0x12
 4646 1a90 20       		.byte	0x20
 4647 1a91 0E       		.byte	0xe
 4648 1a92 A3       		.byte	0xa3
 4649 1a93 B01A0000 		.4byte	0x1ab0
 4650 1a97 0E       		.uleb128 0xe
 4651 1a98 AF230000 		.4byte	.LASF641
 4652 1a9c 0E       		.byte	0xe
 4653 1a9d A7       		.byte	0xa7
 4654 1a9e 741A0000 		.4byte	0x1a74
 4655 1aa2 00       		.byte	0
 4656 1aa3 0E       		.uleb128 0xe
 4657 1aa4 71500000 		.4byte	.LASF642
 4658 1aa8 0E       		.byte	0xe
 4659 1aa9 AA       		.byte	0xaa
 4660 1aaa AE000000 		.4byte	0xae
 4661 1aae 1F       		.byte	0x1f
ARM GAS  C:\Users\gjl\AppData\Local\Temp\ccRZOvUj.s 			page 118


 4662 1aaf 00       		.byte	0
 4663 1ab0 04       		.uleb128 0x4
 4664 1ab1 E7440000 		.4byte	.LASF643
 4665 1ab5 0E       		.byte	0xe
 4666 1ab6 AC       		.byte	0xac
 4667 1ab7 8F1A0000 		.4byte	0x1a8f
 4668 1abb 12       		.uleb128 0x12
 4669 1abc 14       		.byte	0x14
 4670 1abd 0E       		.byte	0xe
 4671 1abe AF       		.byte	0xaf
 4672 1abf 001B0000 		.4byte	0x1b00
 4673 1ac3 0E       		.uleb128 0xe
 4674 1ac4 B1170000 		.4byte	.LASF644
 4675 1ac8 0E       		.byte	0xe
 4676 1ac9 B7       		.byte	0xb7
 4677 1aca AE000000 		.4byte	0xae
 4678 1ace 00       		.byte	0
 4679 1acf 0E       		.uleb128 0xe
 4680 1ad0 A2100000 		.4byte	.LASF645
 4681 1ad4 0E       		.byte	0xe
 4682 1ad5 BC       		.byte	0xbc
 4683 1ad6 001B0000 		.4byte	0x1b00
 4684 1ada 04       		.byte	0x4
 4685 1adb 0E       		.uleb128 0xe
 4686 1adc 4C530000 		.4byte	.LASF638
 4687 1ae0 0E       		.byte	0xe
 4688 1ae1 BE       		.byte	0xbe
 4689 1ae2 061B0000 		.4byte	0x1b06
 4690 1ae6 08       		.byte	0x8
 4691 1ae7 0E       		.uleb128 0xe
 4692 1ae8 AF230000 		.4byte	.LASF641
 4693 1aec 0E       		.byte	0xe
 4694 1aed C0       		.byte	0xc0
 4695 1aee 0C1B0000 		.4byte	0x1b0c
 4696 1af2 0C       		.byte	0xc
 4697 1af3 0E       		.uleb128 0xe
 4698 1af4 C7580000 		.4byte	.LASF646
 4699 1af8 0E       		.byte	0xe
 4700 1af9 CA       		.byte	0xca
 4701 1afa B9000000 		.4byte	0xb9
 4702 1afe 10       		.byte	0x10
 4703 1aff 00       		.byte	0
 4704 1b00 18       		.uleb128 0x18
 4705 1b01 04       		.byte	0x4
 4706 1b02 481A0000 		.4byte	0x1a48
 4707 1b06 18       		.uleb128 0x18
 4708 1b07 04       		.byte	0x4
 4709 1b08 841A0000 		.4byte	0x1a84
 4710 1b0c 18       		.uleb128 0x18
 4711 1b0d 04       		.byte	0x4
 4712 1b0e B01A0000 		.4byte	0x1ab0
 4713 1b12 04       		.uleb128 0x4
 4714 1b13 0B510000 		.4byte	.LASF647
 4715 1b17 0E       		.byte	0xe
 4716 1b18 CC       		.byte	0xcc
 4717 1b19 BB1A0000 		.4byte	0x1abb
 4718 1b1d 06       		.uleb128 0x6
ARM GAS  C:\Users\gjl\AppData\Local\Temp\ccRZOvUj.s 			page 119


 4719 1b1e 01       		.byte	0x1
 4720 1b1f 53000000 		.4byte	0x53
 4721 1b23 02       		.byte	0x2
 4722 1b24 69       		.byte	0x69
 4723 1b25 3C1B0000 		.4byte	0x1b3c
 4724 1b29 08       		.uleb128 0x8
 4725 1b2a B6710000 		.4byte	.LASF648
 4726 1b2e 00       		.byte	0
 4727 1b2f 08       		.uleb128 0x8
 4728 1b30 D63E0000 		.4byte	.LASF649
 4729 1b34 01       		.byte	0x1
 4730 1b35 08       		.uleb128 0x8
 4731 1b36 6F030000 		.4byte	.LASF650
 4732 1b3a 02       		.byte	0x2
 4733 1b3b 00       		.byte	0
 4734 1b3c 04       		.uleb128 0x4
 4735 1b3d 41320000 		.4byte	.LASF651
 4736 1b41 02       		.byte	0x2
 4737 1b42 70       		.byte	0x70
 4738 1b43 1D1B0000 		.4byte	0x1b1d
 4739 1b47 06       		.uleb128 0x6
 4740 1b48 01       		.byte	0x1
 4741 1b49 53000000 		.4byte	0x53
 4742 1b4d 02       		.byte	0x2
 4743 1b4e 7E       		.byte	0x7e
 4744 1b4f 6C1B0000 		.4byte	0x1b6c
 4745 1b53 08       		.uleb128 0x8
 4746 1b54 1A300000 		.4byte	.LASF652
 4747 1b58 00       		.byte	0
 4748 1b59 08       		.uleb128 0x8
 4749 1b5a 835B0000 		.4byte	.LASF653
 4750 1b5e 01       		.byte	0x1
 4751 1b5f 08       		.uleb128 0x8
 4752 1b60 F0260000 		.4byte	.LASF654
 4753 1b64 02       		.byte	0x2
 4754 1b65 08       		.uleb128 0x8
 4755 1b66 F1670000 		.4byte	.LASF655
 4756 1b6a 03       		.byte	0x3
 4757 1b6b 00       		.byte	0
 4758 1b6c 04       		.uleb128 0x4
 4759 1b6d F9160000 		.4byte	.LASF656
 4760 1b71 02       		.byte	0x2
 4761 1b72 83       		.byte	0x83
 4762 1b73 471B0000 		.4byte	0x1b47
 4763 1b77 06       		.uleb128 0x6
 4764 1b78 01       		.byte	0x1
 4765 1b79 53000000 		.4byte	0x53
 4766 1b7d 02       		.byte	0x2
 4767 1b7e 87       		.byte	0x87
 4768 1b7f B41B0000 		.4byte	0x1bb4
 4769 1b83 08       		.uleb128 0x8
 4770 1b84 4F720000 		.4byte	.LASF657
 4771 1b88 00       		.byte	0
 4772 1b89 08       		.uleb128 0x8
 4773 1b8a 292A0000 		.4byte	.LASF658
 4774 1b8e 01       		.byte	0x1
 4775 1b8f 08       		.uleb128 0x8
ARM GAS  C:\Users\gjl\AppData\Local\Temp\ccRZOvUj.s 			page 120


 4776 1b90 C15B0000 		.4byte	.LASF659
 4777 1b94 02       		.byte	0x2
 4778 1b95 08       		.uleb128 0x8
 4779 1b96 C25C0000 		.4byte	.LASF660
 4780 1b9a 03       		.byte	0x3
 4781 1b9b 08       		.uleb128 0x8
 4782 1b9c BE0F0000 		.4byte	.LASF661
 4783 1ba0 04       		.byte	0x4
 4784 1ba1 08       		.uleb128 0x8
 4785 1ba2 B0560000 		.4byte	.LASF662
 4786 1ba6 05       		.byte	0x5
 4787 1ba7 08       		.uleb128 0x8
 4788 1ba8 E75E0000 		.4byte	.LASF663
 4789 1bac 06       		.byte	0x6
 4790 1bad 08       		.uleb128 0x8
 4791 1bae EB2B0000 		.4byte	.LASF664
 4792 1bb2 07       		.byte	0x7
 4793 1bb3 00       		.byte	0
 4794 1bb4 04       		.uleb128 0x4
 4795 1bb5 6E720000 		.4byte	.LASF665
 4796 1bb9 02       		.byte	0x2
 4797 1bba 90       		.byte	0x90
 4798 1bbb 771B0000 		.4byte	0x1b77
 4799 1bbf 12       		.uleb128 0x12
 4800 1bc0 0C       		.byte	0xc
 4801 1bc1 02       		.byte	0x2
 4802 1bc2 93       		.byte	0x93
 4803 1bc3 101C0000 		.4byte	0x1c10
 4804 1bc7 0E       		.uleb128 0xe
 4805 1bc8 285A0000 		.4byte	.LASF666
 4806 1bcc 02       		.byte	0x2
 4807 1bcd 96       		.byte	0x96
 4808 1bce 52150000 		.4byte	0x1552
 4809 1bd2 00       		.byte	0
 4810 1bd3 0E       		.uleb128 0xe
 4811 1bd4 68590000 		.4byte	.LASF667
 4812 1bd8 02       		.byte	0x2
 4813 1bd9 99       		.byte	0x99
 4814 1bda 52150000 		.4byte	0x1552
 4815 1bde 02       		.byte	0x2
 4816 1bdf 0E       		.uleb128 0xe
 4817 1be0 F9740000 		.4byte	.LASF668
 4818 1be4 02       		.byte	0x2
 4819 1be5 9C       		.byte	0x9c
 4820 1be6 52150000 		.4byte	0x1552
 4821 1bea 04       		.byte	0x4
 4822 1beb 0E       		.uleb128 0xe
 4823 1bec 904F0000 		.4byte	.LASF669
 4824 1bf0 02       		.byte	0x2
 4825 1bf1 9F       		.byte	0x9f
 4826 1bf2 52150000 		.4byte	0x1552
 4827 1bf6 06       		.byte	0x6
 4828 1bf7 0E       		.uleb128 0xe
 4829 1bf8 1B2D0000 		.4byte	.LASF670
 4830 1bfc 02       		.byte	0x2
 4831 1bfd A2       		.byte	0xa2
 4832 1bfe 52150000 		.4byte	0x1552
ARM GAS  C:\Users\gjl\AppData\Local\Temp\ccRZOvUj.s 			page 121


 4833 1c02 08       		.byte	0x8
 4834 1c03 0E       		.uleb128 0xe
 4835 1c04 92180000 		.4byte	.LASF671
 4836 1c08 02       		.byte	0x2
 4837 1c09 A5       		.byte	0xa5
 4838 1c0a 52150000 		.4byte	0x1552
 4839 1c0e 0A       		.byte	0xa
 4840 1c0f 00       		.byte	0
 4841 1c10 04       		.uleb128 0x4
 4842 1c11 D8330000 		.4byte	.LASF672
 4843 1c15 02       		.byte	0x2
 4844 1c16 A6       		.byte	0xa6
 4845 1c17 BF1B0000 		.4byte	0x1bbf
 4846 1c1b 16       		.uleb128 0x16
 4847 1c1c 0E       		.byte	0xe
 4848 1c1d 02       		.byte	0x2
 4849 1c1e 2B01     		.2byte	0x12b
 4850 1c20 801C0000 		.4byte	0x1c80
 4851 1c24 17       		.uleb128 0x17
 4852 1c25 7A060000 		.4byte	.LASF673
 4853 1c29 02       		.byte	0x2
 4854 1c2a 2E01     		.2byte	0x12e
 4855 1c2c B9000000 		.4byte	0xb9
 4856 1c30 00       		.byte	0
 4857 1c31 17       		.uleb128 0x17
 4858 1c32 16770000 		.4byte	.LASF674
 4859 1c36 02       		.byte	0x2
 4860 1c37 3101     		.2byte	0x131
 4861 1c39 B9000000 		.4byte	0xb9
 4862 1c3d 02       		.byte	0x2
 4863 1c3e 17       		.uleb128 0x17
 4864 1c3f D60E0000 		.4byte	.LASF675
 4865 1c43 02       		.byte	0x2
 4866 1c44 3401     		.2byte	0x134
 4867 1c46 B9000000 		.4byte	0xb9
 4868 1c4a 04       		.byte	0x4
 4869 1c4b 17       		.uleb128 0x17
 4870 1c4c 95620000 		.4byte	.LASF676
 4871 1c50 02       		.byte	0x2
 4872 1c51 3701     		.2byte	0x137
 4873 1c53 AE000000 		.4byte	0xae
 4874 1c57 06       		.byte	0x6
 4875 1c58 17       		.uleb128 0x17
 4876 1c59 46580000 		.4byte	.LASF677
 4877 1c5d 02       		.byte	0x2
 4878 1c5e 3A01     		.2byte	0x13a
 4879 1c60 B9000000 		.4byte	0xb9
 4880 1c64 08       		.byte	0x8
 4881 1c65 17       		.uleb128 0x17
 4882 1c66 86510000 		.4byte	.LASF678
 4883 1c6a 02       		.byte	0x2
 4884 1c6b 3D01     		.2byte	0x13d
 4885 1c6d B9000000 		.4byte	0xb9
 4886 1c71 0A       		.byte	0xa
 4887 1c72 17       		.uleb128 0x17
 4888 1c73 FC470000 		.4byte	.LASF679
 4889 1c77 02       		.byte	0x2
ARM GAS  C:\Users\gjl\AppData\Local\Temp\ccRZOvUj.s 			page 122


 4890 1c78 4001     		.2byte	0x140
 4891 1c7a B9000000 		.4byte	0xb9
 4892 1c7e 0C       		.byte	0xc
 4893 1c7f 00       		.byte	0
 4894 1c80 11       		.uleb128 0x11
 4895 1c81 2E340000 		.4byte	.LASF680
 4896 1c85 02       		.byte	0x2
 4897 1c86 4101     		.2byte	0x141
 4898 1c88 1B1C0000 		.4byte	0x1c1b
 4899 1c8c 16       		.uleb128 0x16
 4900 1c8d 16       		.byte	0x16
 4901 1c8e 02       		.byte	0x2
 4902 1c8f 4401     		.2byte	0x144
 4903 1c91 251D0000 		.4byte	0x1d25
 4904 1c95 17       		.uleb128 0x17
 4905 1c96 124C0000 		.4byte	.LASF681
 4906 1c9a 02       		.byte	0x2
 4907 1c9b 4701     		.2byte	0x147
 4908 1c9d B9000000 		.4byte	0xb9
 4909 1ca1 00       		.byte	0
 4910 1ca2 17       		.uleb128 0x17
 4911 1ca3 924B0000 		.4byte	.LASF682
 4912 1ca7 02       		.byte	0x2
 4913 1ca8 4A01     		.2byte	0x14a
 4914 1caa B9000000 		.4byte	0xb9
 4915 1cae 02       		.byte	0x2
 4916 1caf 17       		.uleb128 0x17
 4917 1cb0 EE450000 		.4byte	.LASF683
 4918 1cb4 02       		.byte	0x2
 4919 1cb5 4D01     		.2byte	0x14d
 4920 1cb7 B9000000 		.4byte	0xb9
 4921 1cbb 04       		.byte	0x4
 4922 1cbc 17       		.uleb128 0x17
 4923 1cbd ED2C0000 		.4byte	.LASF684
 4924 1cc1 02       		.byte	0x2
 4925 1cc2 5001     		.2byte	0x150
 4926 1cc4 AE000000 		.4byte	0xae
 4927 1cc8 06       		.byte	0x6
 4928 1cc9 17       		.uleb128 0x17
 4929 1cca BB320000 		.4byte	.LASF685
 4930 1cce 02       		.byte	0x2
 4931 1ccf 5301     		.2byte	0x153
 4932 1cd1 B9000000 		.4byte	0xb9
 4933 1cd5 08       		.byte	0x8
 4934 1cd6 17       		.uleb128 0x17
 4935 1cd7 42050000 		.4byte	.LASF686
 4936 1cdb 02       		.byte	0x2
 4937 1cdc 5601     		.2byte	0x156
 4938 1cde B9000000 		.4byte	0xb9
 4939 1ce2 0A       		.byte	0xa
 4940 1ce3 17       		.uleb128 0x17
 4941 1ce4 CD580000 		.4byte	.LASF687
 4942 1ce8 02       		.byte	0x2
 4943 1ce9 5901     		.2byte	0x159
 4944 1ceb B9000000 		.4byte	0xb9
 4945 1cef 0C       		.byte	0xc
 4946 1cf0 17       		.uleb128 0x17
ARM GAS  C:\Users\gjl\AppData\Local\Temp\ccRZOvUj.s 			page 123


 4947 1cf1 0E690000 		.4byte	.LASF688
 4948 1cf5 02       		.byte	0x2
 4949 1cf6 5C01     		.2byte	0x15c
 4950 1cf8 B9000000 		.4byte	0xb9
 4951 1cfc 0E       		.byte	0xe
 4952 1cfd 17       		.uleb128 0x17
 4953 1cfe F85A0000 		.4byte	.LASF689
 4954 1d02 02       		.byte	0x2
 4955 1d03 5F01     		.2byte	0x15f
 4956 1d05 B9000000 		.4byte	0xb9
 4957 1d09 10       		.byte	0x10
 4958 1d0a 17       		.uleb128 0x17
 4959 1d0b 0B4D0000 		.4byte	.LASF690
 4960 1d0f 02       		.byte	0x2
 4961 1d10 6301     		.2byte	0x163
 4962 1d12 B9000000 		.4byte	0xb9
 4963 1d16 12       		.byte	0x12
 4964 1d17 17       		.uleb128 0x17
 4965 1d18 B45E0000 		.4byte	.LASF691
 4966 1d1c 02       		.byte	0x2
 4967 1d1d 6601     		.2byte	0x166
 4968 1d1f B9000000 		.4byte	0xb9
 4969 1d23 14       		.byte	0x14
 4970 1d24 00       		.byte	0
 4971 1d25 11       		.uleb128 0x11
 4972 1d26 51360000 		.4byte	.LASF692
 4973 1d2a 02       		.byte	0x2
 4974 1d2b 6701     		.2byte	0x167
 4975 1d2d 8C1C0000 		.4byte	0x1c8c
 4976 1d31 04       		.uleb128 0x4
 4977 1d32 332B0000 		.4byte	.LASF693
 4978 1d36 0F       		.byte	0xf
 4979 1d37 74       		.byte	0x74
 4980 1d38 1F160000 		.4byte	0x161f
 4981 1d3c 12       		.uleb128 0x12
 4982 1d3d 06       		.byte	0x6
 4983 1d3e 0F       		.byte	0xf
 4984 1d3f 7E       		.byte	0x7e
 4985 1d40 691D0000 		.4byte	0x1d69
 4986 1d44 0E       		.uleb128 0xe
 4987 1d45 AE000000 		.4byte	.LASF473
 4988 1d49 0F       		.byte	0xf
 4989 1d4a 81       		.byte	0x81
 4990 1d4b 7A120000 		.4byte	0x127a
 4991 1d4f 00       		.byte	0
 4992 1d50 0E       		.uleb128 0xe
 4993 1d51 865E0000 		.4byte	.LASF552
 4994 1d55 0F       		.byte	0xf
 4995 1d56 84       		.byte	0x84
 4996 1d57 52150000 		.4byte	0x1552
 4997 1d5b 02       		.byte	0x2
 4998 1d5c 0E       		.uleb128 0xe
 4999 1d5d C8130000 		.4byte	.LASF694
 5000 1d61 0F       		.byte	0xf
 5001 1d62 8A       		.byte	0x8a
 5002 1d63 46150000 		.4byte	0x1546
 5003 1d67 04       		.byte	0x4
ARM GAS  C:\Users\gjl\AppData\Local\Temp\ccRZOvUj.s 			page 124


 5004 1d68 00       		.byte	0
 5005 1d69 04       		.uleb128 0x4
 5006 1d6a 29770000 		.4byte	.LASF695
 5007 1d6e 0F       		.byte	0xf
 5008 1d6f 8C       		.byte	0x8c
 5009 1d70 3C1D0000 		.4byte	0x1d3c
 5010 1d74 12       		.uleb128 0x12
 5011 1d75 08       		.byte	0x8
 5012 1d76 10       		.byte	0x10
 5013 1d77 D6       		.byte	0xd6
 5014 1d78 951D0000 		.4byte	0x1d95
 5015 1d7c 0E       		.uleb128 0xe
 5016 1d7d B9300000 		.4byte	.LASF696
 5017 1d81 10       		.byte	0x10
 5018 1d82 D9       		.byte	0xd9
 5019 1d83 B9000000 		.4byte	0xb9
 5020 1d87 00       		.byte	0
 5021 1d88 0E       		.uleb128 0xe
 5022 1d89 D46B0000 		.4byte	.LASF697
 5023 1d8d 10       		.byte	0x10
 5024 1d8e DE       		.byte	0xde
 5025 1d8f A5000000 		.4byte	0xa5
 5026 1d93 04       		.byte	0x4
 5027 1d94 00       		.byte	0
 5028 1d95 04       		.uleb128 0x4
 5029 1d96 EA300000 		.4byte	.LASF698
 5030 1d9a 10       		.byte	0x10
 5031 1d9b E0       		.byte	0xe0
 5032 1d9c 741D0000 		.4byte	0x1d74
 5033 1da0 12       		.uleb128 0x12
 5034 1da1 08       		.byte	0x8
 5035 1da2 10       		.byte	0x10
 5036 1da3 E3       		.byte	0xe3
 5037 1da4 C11D0000 		.4byte	0x1dc1
 5038 1da8 0E       		.uleb128 0xe
 5039 1da9 CE6D0000 		.4byte	.LASF699
 5040 1dad 10       		.byte	0x10
 5041 1dae E6       		.byte	0xe6
 5042 1daf B9000000 		.4byte	0xb9
 5043 1db3 00       		.byte	0
 5044 1db4 0E       		.uleb128 0xe
 5045 1db5 292E0000 		.4byte	.LASF700
 5046 1db9 10       		.byte	0x10
 5047 1dba EB       		.byte	0xeb
 5048 1dbb C11D0000 		.4byte	0x1dc1
 5049 1dbf 04       		.byte	0x4
 5050 1dc0 00       		.byte	0
 5051 1dc1 18       		.uleb128 0x18
 5052 1dc2 04       		.byte	0x4
 5053 1dc3 951D0000 		.4byte	0x1d95
 5054 1dc7 04       		.uleb128 0x4
 5055 1dc8 D8630000 		.4byte	.LASF701
 5056 1dcc 10       		.byte	0x10
 5057 1dcd ED       		.byte	0xed
 5058 1dce A01D0000 		.4byte	0x1da0
 5059 1dd2 1C       		.uleb128 0x1c
 5060 1dd3 08       		.byte	0x8
ARM GAS  C:\Users\gjl\AppData\Local\Temp\ccRZOvUj.s 			page 125


 5061 1dd4 10       		.byte	0x10
 5062 1dd5 F0       		.byte	0xf0
 5063 1dd6 F11D0000 		.4byte	0x1df1
 5064 1dda 1D       		.uleb128 0x1d
 5065 1ddb A2690000 		.4byte	.LASF702
 5066 1ddf 10       		.byte	0x10
 5067 1de0 F6       		.byte	0xf6
 5068 1de1 C71D0000 		.4byte	0x1dc7
 5069 1de5 1D       		.uleb128 0x1d
 5070 1de6 7B330000 		.4byte	.LASF703
 5071 1dea 10       		.byte	0x10
 5072 1deb F9       		.byte	0xf9
 5073 1dec B9000000 		.4byte	0xb9
 5074 1df0 00       		.byte	0
 5075 1df1 04       		.uleb128 0x4
 5076 1df2 BC0A0000 		.4byte	.LASF704
 5077 1df6 10       		.byte	0x10
 5078 1df7 FB       		.byte	0xfb
 5079 1df8 D21D0000 		.4byte	0x1dd2
 5080 1dfc 12       		.uleb128 0x12
 5081 1dfd 14       		.byte	0x14
 5082 1dfe 10       		.byte	0x10
 5083 1dff FE       		.byte	0xfe
 5084 1e00 461E0000 		.4byte	0x1e46
 5085 1e04 17       		.uleb128 0x17
 5086 1e05 533C0000 		.4byte	.LASF705
 5087 1e09 10       		.byte	0x10
 5088 1e0a 0101     		.2byte	0x101
 5089 1e0c B9000000 		.4byte	0xb9
 5090 1e10 00       		.byte	0
 5091 1e11 17       		.uleb128 0x17
 5092 1e12 10280000 		.4byte	.LASF706
 5093 1e16 10       		.byte	0x10
 5094 1e17 0701     		.2byte	0x107
 5095 1e19 B9000000 		.4byte	0xb9
 5096 1e1d 02       		.byte	0x2
 5097 1e1e 17       		.uleb128 0x17
 5098 1e1f 7E260000 		.4byte	.LASF707
 5099 1e23 10       		.byte	0x10
 5100 1e24 1501     		.2byte	0x115
 5101 1e26 CF000000 		.4byte	0xcf
 5102 1e2a 04       		.byte	0x4
 5103 1e2b 17       		.uleb128 0x17
 5104 1e2c C9680000 		.4byte	.LASF708
 5105 1e30 10       		.byte	0x10
 5106 1e31 1801     		.2byte	0x118
 5107 1e33 B9000000 		.4byte	0xb9
 5108 1e37 08       		.byte	0x8
 5109 1e38 17       		.uleb128 0x17
 5110 1e39 FE6E0000 		.4byte	.LASF709
 5111 1e3d 10       		.byte	0x10
 5112 1e3e 2101     		.2byte	0x121
 5113 1e40 F11D0000 		.4byte	0x1df1
 5114 1e44 0C       		.byte	0xc
 5115 1e45 00       		.byte	0
 5116 1e46 11       		.uleb128 0x11
 5117 1e47 762B0000 		.4byte	.LASF710
ARM GAS  C:\Users\gjl\AppData\Local\Temp\ccRZOvUj.s 			page 126


 5118 1e4b 10       		.byte	0x10
 5119 1e4c 2301     		.2byte	0x123
 5120 1e4e FC1D0000 		.4byte	0x1dfc
 5121 1e52 18       		.uleb128 0x18
 5122 1e53 04       		.byte	0x4
 5123 1e54 581E0000 		.4byte	0x1e58
 5124 1e58 0A       		.uleb128 0xa
 5125 1e59 461E0000 		.4byte	0x1e46
 5126 1e5d 12       		.uleb128 0x12
 5127 1e5e 06       		.byte	0x6
 5128 1e5f 11       		.byte	0x11
 5129 1e60 87       		.byte	0x87
 5130 1e61 8A1E0000 		.4byte	0x1e8a
 5131 1e65 0E       		.uleb128 0xe
 5132 1e66 285A0000 		.4byte	.LASF666
 5133 1e6a 11       		.byte	0x11
 5134 1e6b 89       		.byte	0x89
 5135 1e6c 52150000 		.4byte	0x1552
 5136 1e70 00       		.byte	0
 5137 1e71 0E       		.uleb128 0xe
 5138 1e72 3C070000 		.4byte	.LASF711
 5139 1e76 11       		.byte	0x11
 5140 1e77 8A       		.byte	0x8a
 5141 1e78 52150000 		.4byte	0x1552
 5142 1e7c 02       		.byte	0x2
 5143 1e7d 0E       		.uleb128 0xe
 5144 1e7e 85720000 		.4byte	.LASF712
 5145 1e82 11       		.byte	0x11
 5146 1e83 8B       		.byte	0x8b
 5147 1e84 52150000 		.4byte	0x1552
 5148 1e88 04       		.byte	0x4
 5149 1e89 00       		.byte	0
 5150 1e8a 04       		.uleb128 0x4
 5151 1e8b 6D670000 		.4byte	.LASF713
 5152 1e8f 11       		.byte	0x11
 5153 1e90 8C       		.byte	0x8c
 5154 1e91 5D1E0000 		.4byte	0x1e5d
 5155 1e95 12       		.uleb128 0x12
 5156 1e96 02       		.byte	0x2
 5157 1e97 12       		.byte	0x12
 5158 1e98 C1       		.byte	0xc1
 5159 1e99 B61E0000 		.4byte	0x1eb6
 5160 1e9d 0E       		.uleb128 0xe
 5161 1e9e 4E770000 		.4byte	.LASF714
 5162 1ea2 12       		.byte	0x12
 5163 1ea3 D4       		.byte	0xd4
 5164 1ea4 AE000000 		.4byte	0xae
 5165 1ea8 00       		.byte	0
 5166 1ea9 0E       		.uleb128 0xe
 5167 1eaa 88330000 		.4byte	.LASF462
 5168 1eae 12       		.byte	0x12
 5169 1eaf D7       		.byte	0xd7
 5170 1eb0 AE000000 		.4byte	0xae
 5171 1eb4 01       		.byte	0x1
 5172 1eb5 00       		.byte	0
 5173 1eb6 04       		.uleb128 0x4
 5174 1eb7 BA2C0000 		.4byte	.LASF715
ARM GAS  C:\Users\gjl\AppData\Local\Temp\ccRZOvUj.s 			page 127


 5175 1ebb 12       		.byte	0x12
 5176 1ebc D9       		.byte	0xd9
 5177 1ebd 951E0000 		.4byte	0x1e95
 5178 1ec1 16       		.uleb128 0x16
 5179 1ec2 04       		.byte	0x4
 5180 1ec3 12       		.byte	0x12
 5181 1ec4 A801     		.2byte	0x1a8
 5182 1ec6 E51E0000 		.4byte	0x1ee5
 5183 1eca 17       		.uleb128 0x17
 5184 1ecb B6070000 		.4byte	.LASF716
 5185 1ecf 12       		.byte	0x12
 5186 1ed0 AD01     		.2byte	0x1ad
 5187 1ed2 B9000000 		.4byte	0xb9
 5188 1ed6 00       		.byte	0
 5189 1ed7 17       		.uleb128 0x17
 5190 1ed8 88330000 		.4byte	.LASF462
 5191 1edc 12       		.byte	0x12
 5192 1edd B001     		.2byte	0x1b0
 5193 1edf AE000000 		.4byte	0xae
 5194 1ee3 02       		.byte	0x2
 5195 1ee4 00       		.byte	0
 5196 1ee5 11       		.uleb128 0x11
 5197 1ee6 8C2B0000 		.4byte	.LASF717
 5198 1eea 12       		.byte	0x12
 5199 1eeb B201     		.2byte	0x1b2
 5200 1eed C11E0000 		.4byte	0x1ec1
 5201 1ef1 04       		.uleb128 0x4
 5202 1ef2 39710000 		.4byte	.LASF718
 5203 1ef6 13       		.byte	0x13
 5204 1ef7 40       		.byte	0x40
 5205 1ef8 FC1E0000 		.4byte	0x1efc
 5206 1efc 18       		.uleb128 0x18
 5207 1efd 04       		.byte	0x4
 5208 1efe 021F0000 		.4byte	0x1f02
 5209 1f02 1E       		.uleb128 0x1e
 5210 1f03 121F0000 		.4byte	0x1f12
 5211 1f07 1F       		.uleb128 0x1f
 5212 1f08 CF000000 		.4byte	0xcf
 5213 1f0c 1F       		.uleb128 0x1f
 5214 1f0d A5000000 		.4byte	0xa5
 5215 1f11 00       		.byte	0
 5216 1f12 03       		.uleb128 0x3
 5217 1f13 01       		.byte	0x1
 5218 1f14 02       		.byte	0x2
 5219 1f15 D82C0000 		.4byte	.LASF719
 5220 1f19 20       		.uleb128 0x20
 5221 1f1a DF10     		.2byte	0x10df
 5222 1f1c 13       		.byte	0x13
 5223 1f1d D001     		.2byte	0x1d0
 5224 1f1f 5B1F0000 		.4byte	0x1f5b
 5225 1f23 17       		.uleb128 0x17
 5226 1f24 3E530000 		.4byte	.LASF720
 5227 1f28 13       		.byte	0x13
 5228 1f29 D301     		.2byte	0x1d3
 5229 1f2b 5B1F0000 		.4byte	0x1f5b
 5230 1f2f 00       		.byte	0
 5231 1f30 21       		.uleb128 0x21
ARM GAS  C:\Users\gjl\AppData\Local\Temp\ccRZOvUj.s 			page 128


 5232 1f31 736C0000 		.4byte	.LASF721
 5233 1f35 13       		.byte	0x13
 5234 1f36 D601     		.2byte	0x1d6
 5235 1f38 6C1F0000 		.4byte	0x1f6c
 5236 1f3c 6610     		.2byte	0x1066
 5237 1f3e 21       		.uleb128 0x21
 5238 1f3f DD1F0000 		.4byte	.LASF722
 5239 1f43 13       		.byte	0x13
 5240 1f44 D901     		.2byte	0x1d9
 5241 1f46 AE000000 		.4byte	0xae
 5242 1f4a DD10     		.2byte	0x10dd
 5243 1f4c 21       		.uleb128 0x21
 5244 1f4d 46510000 		.4byte	.LASF723
 5245 1f51 13       		.byte	0x13
 5246 1f52 DC01     		.2byte	0x1dc
 5247 1f54 AE000000 		.4byte	0xae
 5248 1f58 DE10     		.2byte	0x10de
 5249 1f5a 00       		.byte	0
 5250 1f5b 0B       		.uleb128 0xb
 5251 1f5c AE000000 		.4byte	0xae
 5252 1f60 6C1F0000 		.4byte	0x1f6c
 5253 1f64 10       		.uleb128 0x10
 5254 1f65 9E000000 		.4byte	0x9e
 5255 1f69 6510     		.2byte	0x1065
 5256 1f6b 00       		.byte	0
 5257 1f6c 0B       		.uleb128 0xb
 5258 1f6d AE000000 		.4byte	0xae
 5259 1f71 821F0000 		.4byte	0x1f82
 5260 1f75 0C       		.uleb128 0xc
 5261 1f76 9E000000 		.4byte	0x9e
 5262 1f7a 10       		.byte	0x10
 5263 1f7b 0C       		.uleb128 0xc
 5264 1f7c 9E000000 		.4byte	0x9e
 5265 1f80 06       		.byte	0x6
 5266 1f81 00       		.byte	0
 5267 1f82 11       		.uleb128 0x11
 5268 1f83 D51C0000 		.4byte	.LASF724
 5269 1f87 13       		.byte	0x13
 5270 1f88 DD01     		.2byte	0x1dd
 5271 1f8a 191F0000 		.4byte	0x1f19
 5272 1f8e 16       		.uleb128 0x16
 5273 1f8f 08       		.byte	0x8
 5274 1f90 13       		.byte	0x13
 5275 1f91 E001     		.2byte	0x1e0
 5276 1f93 E61F0000 		.4byte	0x1fe6
 5277 1f97 17       		.uleb128 0x17
 5278 1f98 5C380000 		.4byte	.LASF725
 5279 1f9c 13       		.byte	0x13
 5280 1f9d E301     		.2byte	0x1e3
 5281 1f9f C6110000 		.4byte	0x11c6
 5282 1fa3 00       		.byte	0
 5283 1fa4 17       		.uleb128 0x17
 5284 1fa5 216D0000 		.4byte	.LASF726
 5285 1fa9 13       		.byte	0x13
 5286 1faa E601     		.2byte	0x1e6
 5287 1fac C6110000 		.4byte	0x11c6
 5288 1fb0 01       		.byte	0x1
ARM GAS  C:\Users\gjl\AppData\Local\Temp\ccRZOvUj.s 			page 129


 5289 1fb1 17       		.uleb128 0x17
 5290 1fb2 0F170000 		.4byte	.LASF727
 5291 1fb6 13       		.byte	0x13
 5292 1fb7 E901     		.2byte	0x1e9
 5293 1fb9 0D170000 		.4byte	0x170d
 5294 1fbd 02       		.byte	0x2
 5295 1fbe 17       		.uleb128 0x17
 5296 1fbf 58740000 		.4byte	.LASF728
 5297 1fc3 13       		.byte	0x13
 5298 1fc4 EC01     		.2byte	0x1ec
 5299 1fc6 AE000000 		.4byte	0xae
 5300 1fca 03       		.byte	0x3
 5301 1fcb 17       		.uleb128 0x17
 5302 1fcc 94560000 		.4byte	.LASF729
 5303 1fd0 13       		.byte	0x13
 5304 1fd1 EF01     		.2byte	0x1ef
 5305 1fd3 AE000000 		.4byte	0xae
 5306 1fd7 04       		.byte	0x4
 5307 1fd8 17       		.uleb128 0x17
 5308 1fd9 A8300000 		.4byte	.LASF730
 5309 1fdd 13       		.byte	0x13
 5310 1fde F201     		.2byte	0x1f2
 5311 1fe0 B9000000 		.4byte	0xb9
 5312 1fe4 06       		.byte	0x6
 5313 1fe5 00       		.byte	0
 5314 1fe6 11       		.uleb128 0x11
 5315 1fe7 A26D0000 		.4byte	.LASF731
 5316 1feb 13       		.byte	0x13
 5317 1fec F301     		.2byte	0x1f3
 5318 1fee 8E1F0000 		.4byte	0x1f8e
 5319 1ff2 16       		.uleb128 0x16
 5320 1ff3 38       		.byte	0x38
 5321 1ff4 13       		.byte	0x13
 5322 1ff5 F701     		.2byte	0x1f7
 5323 1ff7 B2200000 		.4byte	0x20b2
 5324 1ffb 17       		.uleb128 0x17
 5325 1ffc 2B290000 		.4byte	.LASF732
 5326 2000 13       		.byte	0x13
 5327 2001 FB01     		.2byte	0x1fb
 5328 2003 B2200000 		.4byte	0x20b2
 5329 2007 00       		.byte	0
 5330 2008 17       		.uleb128 0x17
 5331 2009 A2650000 		.4byte	.LASF733
 5332 200d 13       		.byte	0x13
 5333 200e FE01     		.2byte	0x1fe
 5334 2010 B8200000 		.4byte	0x20b8
 5335 2014 04       		.byte	0x4
 5336 2015 17       		.uleb128 0x17
 5337 2016 941D0000 		.4byte	.LASF734
 5338 201a 13       		.byte	0x13
 5339 201b 0102     		.2byte	0x201
 5340 201d BE200000 		.4byte	0x20be
 5341 2021 08       		.byte	0x8
 5342 2022 17       		.uleb128 0x17
 5343 2023 42350000 		.4byte	.LASF735
 5344 2027 13       		.byte	0x13
 5345 2028 0402     		.2byte	0x204
ARM GAS  C:\Users\gjl\AppData\Local\Temp\ccRZOvUj.s 			page 130


 5346 202a C4200000 		.4byte	0x20c4
 5347 202e 0C       		.byte	0xc
 5348 202f 17       		.uleb128 0x17
 5349 2030 D53F0000 		.4byte	.LASF736
 5350 2034 13       		.byte	0x13
 5351 2035 0702     		.2byte	0x207
 5352 2037 CA200000 		.4byte	0x20ca
 5353 203b 10       		.byte	0x10
 5354 203c 17       		.uleb128 0x17
 5355 203d 99510000 		.4byte	.LASF737
 5356 2041 13       		.byte	0x13
 5357 2042 0A02     		.2byte	0x20a
 5358 2044 D5200000 		.4byte	0x20d5
 5359 2048 14       		.byte	0x14
 5360 2049 17       		.uleb128 0x17
 5361 204a 0F060000 		.4byte	.LASF738
 5362 204e 13       		.byte	0x13
 5363 204f 0D02     		.2byte	0x20d
 5364 2051 E0200000 		.4byte	0x20e0
 5365 2055 18       		.byte	0x18
 5366 2056 17       		.uleb128 0x17
 5367 2057 C83E0000 		.4byte	.LASF739
 5368 205b 13       		.byte	0x13
 5369 205c 1002     		.2byte	0x210
 5370 205e 8E110000 		.4byte	0x118e
 5371 2062 1C       		.byte	0x1c
 5372 2063 17       		.uleb128 0x17
 5373 2064 CD670000 		.4byte	.LASF740
 5374 2068 13       		.byte	0x13
 5375 2069 1302     		.2byte	0x213
 5376 206b 521E0000 		.4byte	0x1e52
 5377 206f 20       		.byte	0x20
 5378 2070 17       		.uleb128 0x17
 5379 2071 2A2B0000 		.4byte	.LASF741
 5380 2075 13       		.byte	0x13
 5381 2076 1602     		.2byte	0x216
 5382 2078 EB200000 		.4byte	0x20eb
 5383 207c 24       		.byte	0x24
 5384 207d 17       		.uleb128 0x17
 5385 207e 87140000 		.4byte	.LASF742
 5386 2082 13       		.byte	0x13
 5387 2083 1902     		.2byte	0x219
 5388 2085 F1200000 		.4byte	0x20f1
 5389 2089 28       		.byte	0x28
 5390 208a 17       		.uleb128 0x17
 5391 208b 051D0000 		.4byte	.LASF743
 5392 208f 13       		.byte	0x13
 5393 2090 1D02     		.2byte	0x21d
 5394 2092 F11E0000 		.4byte	0x1ef1
 5395 2096 2C       		.byte	0x2c
 5396 2097 17       		.uleb128 0x17
 5397 2098 DF270000 		.4byte	.LASF744
 5398 209c 13       		.byte	0x13
 5399 209d 2002     		.2byte	0x220
 5400 209f FC200000 		.4byte	0x20fc
 5401 20a3 30       		.byte	0x30
 5402 20a4 17       		.uleb128 0x17
ARM GAS  C:\Users\gjl\AppData\Local\Temp\ccRZOvUj.s 			page 131


 5403 20a5 F1550000 		.4byte	.LASF745
 5404 20a9 13       		.byte	0x13
 5405 20aa 2402     		.2byte	0x224
 5406 20ac 02210000 		.4byte	0x2102
 5407 20b0 34       		.byte	0x34
 5408 20b1 00       		.byte	0
 5409 20b2 18       		.uleb128 0x18
 5410 20b3 04       		.byte	0x4
 5411 20b4 121B0000 		.4byte	0x1b12
 5412 20b8 18       		.uleb128 0x18
 5413 20b9 04       		.byte	0x4
 5414 20ba 801C0000 		.4byte	0x1c80
 5415 20be 18       		.uleb128 0x18
 5416 20bf 04       		.byte	0x4
 5417 20c0 9E190000 		.4byte	0x199e
 5418 20c4 18       		.uleb128 0x18
 5419 20c5 04       		.byte	0x4
 5420 20c6 251D0000 		.4byte	0x1d25
 5421 20ca 18       		.uleb128 0x18
 5422 20cb 04       		.byte	0x4
 5423 20cc D0200000 		.4byte	0x20d0
 5424 20d0 0A       		.uleb128 0xa
 5425 20d1 821F0000 		.4byte	0x1f82
 5426 20d5 18       		.uleb128 0x18
 5427 20d6 04       		.byte	0x4
 5428 20d7 DB200000 		.4byte	0x20db
 5429 20db 0A       		.uleb128 0xa
 5430 20dc 8A1E0000 		.4byte	0x1e8a
 5431 20e0 18       		.uleb128 0x18
 5432 20e1 04       		.byte	0x4
 5433 20e2 E6200000 		.4byte	0x20e6
 5434 20e6 0A       		.uleb128 0xa
 5435 20e7 101C0000 		.4byte	0x1c10
 5436 20eb 18       		.uleb128 0x18
 5437 20ec 04       		.byte	0x4
 5438 20ed 2D180000 		.4byte	0x182d
 5439 20f1 18       		.uleb128 0x18
 5440 20f2 04       		.byte	0x4
 5441 20f3 F7200000 		.4byte	0x20f7
 5442 20f7 0A       		.uleb128 0xa
 5443 20f8 E61F0000 		.4byte	0x1fe6
 5444 20fc 18       		.uleb128 0x18
 5445 20fd 04       		.byte	0x4
 5446 20fe C9170000 		.4byte	0x17c9
 5447 2102 18       		.uleb128 0x18
 5448 2103 04       		.byte	0x4
 5449 2104 08210000 		.4byte	0x2108
 5450 2108 0A       		.uleb128 0xa
 5451 2109 E00C0000 		.4byte	0xce0
 5452 210d 11       		.uleb128 0x11
 5453 210e C81B0000 		.4byte	.LASF746
 5454 2112 13       		.byte	0x13
 5455 2113 3B02     		.2byte	0x23b
 5456 2115 F21F0000 		.4byte	0x1ff2
 5457 2119 06       		.uleb128 0x6
 5458 211a 04       		.byte	0x4
 5459 211b 2C000000 		.4byte	0x2c
ARM GAS  C:\Users\gjl\AppData\Local\Temp\ccRZOvUj.s 			page 132


 5460 211f 14       		.byte	0x14
 5461 2120 BA       		.byte	0xba
 5462 2121 FA2B0000 		.4byte	0x2bfa
 5463 2125 15       		.uleb128 0x15
 5464 2126 29600000 		.4byte	.LASF747
 5465 212a 00000100 		.4byte	0x10000
 5466 212e 15       		.uleb128 0x15
 5467 212f F4060000 		.4byte	.LASF748
 5468 2133 01000100 		.4byte	0x10001
 5469 2137 15       		.uleb128 0x15
 5470 2138 5D660000 		.4byte	.LASF749
 5471 213c 02000100 		.4byte	0x10002
 5472 2140 15       		.uleb128 0x15
 5473 2141 A3570000 		.4byte	.LASF750
 5474 2145 03000100 		.4byte	0x10003
 5475 2149 15       		.uleb128 0x15
 5476 214a 0E3C0000 		.4byte	.LASF751
 5477 214e 04000100 		.4byte	0x10004
 5478 2152 15       		.uleb128 0x15
 5479 2153 54440000 		.4byte	.LASF752
 5480 2157 05000100 		.4byte	0x10005
 5481 215b 15       		.uleb128 0x15
 5482 215c 911F0000 		.4byte	.LASF753
 5483 2160 06000100 		.4byte	0x10006
 5484 2164 15       		.uleb128 0x15
 5485 2165 2E100000 		.4byte	.LASF754
 5486 2169 07000100 		.4byte	0x10007
 5487 216d 15       		.uleb128 0x15
 5488 216e 413E0000 		.4byte	.LASF755
 5489 2172 08000100 		.4byte	0x10008
 5490 2176 15       		.uleb128 0x15
 5491 2177 950A0000 		.4byte	.LASF756
 5492 217b 09000100 		.4byte	0x10009
 5493 217f 15       		.uleb128 0x15
 5494 2180 683D0000 		.4byte	.LASF757
 5495 2184 0A000100 		.4byte	0x1000a
 5496 2188 15       		.uleb128 0x15
 5497 2189 46540000 		.4byte	.LASF758
 5498 218d 0B000100 		.4byte	0x1000b
 5499 2191 15       		.uleb128 0x15
 5500 2192 FC630000 		.4byte	.LASF759
 5501 2196 0C000100 		.4byte	0x1000c
 5502 219a 15       		.uleb128 0x15
 5503 219b 215D0000 		.4byte	.LASF760
 5504 219f 0D000100 		.4byte	0x1000d
 5505 21a3 15       		.uleb128 0x15
 5506 21a4 5D0F0000 		.4byte	.LASF761
 5507 21a8 0E000100 		.4byte	0x1000e
 5508 21ac 15       		.uleb128 0x15
 5509 21ad DC030000 		.4byte	.LASF762
 5510 21b1 0F000100 		.4byte	0x1000f
 5511 21b5 15       		.uleb128 0x15
 5512 21b6 D6130000 		.4byte	.LASF763
 5513 21ba 10000100 		.4byte	0x10010
 5514 21be 15       		.uleb128 0x15
 5515 21bf C92E0000 		.4byte	.LASF764
 5516 21c3 11000100 		.4byte	0x10011
ARM GAS  C:\Users\gjl\AppData\Local\Temp\ccRZOvUj.s 			page 133


 5517 21c7 15       		.uleb128 0x15
 5518 21c8 976E0000 		.4byte	.LASF765
 5519 21cc 12000100 		.4byte	0x10012
 5520 21d0 15       		.uleb128 0x15
 5521 21d1 4E680000 		.4byte	.LASF766
 5522 21d5 13000100 		.4byte	0x10013
 5523 21d9 15       		.uleb128 0x15
 5524 21da 1C160000 		.4byte	.LASF767
 5525 21de 14000100 		.4byte	0x10014
 5526 21e2 15       		.uleb128 0x15
 5527 21e3 C06F0000 		.4byte	.LASF768
 5528 21e7 15000100 		.4byte	0x10015
 5529 21eb 15       		.uleb128 0x15
 5530 21ec FF0E0000 		.4byte	.LASF769
 5531 21f0 16000100 		.4byte	0x10016
 5532 21f4 15       		.uleb128 0x15
 5533 21f5 3F0E0000 		.4byte	.LASF770
 5534 21f9 17000100 		.4byte	0x10017
 5535 21fd 15       		.uleb128 0x15
 5536 21fe AE4C0000 		.4byte	.LASF771
 5537 2202 18000100 		.4byte	0x10018
 5538 2206 15       		.uleb128 0x15
 5539 2207 DF760000 		.4byte	.LASF772
 5540 220b 19000100 		.4byte	0x10019
 5541 220f 15       		.uleb128 0x15
 5542 2210 78620000 		.4byte	.LASF773
 5543 2214 1A000100 		.4byte	0x1001a
 5544 2218 15       		.uleb128 0x15
 5545 2219 476C0000 		.4byte	.LASF774
 5546 221d 1B000100 		.4byte	0x1001b
 5547 2221 15       		.uleb128 0x15
 5548 2222 7B580000 		.4byte	.LASF775
 5549 2226 1C000100 		.4byte	0x1001c
 5550 222a 15       		.uleb128 0x15
 5551 222b C2190000 		.4byte	.LASF776
 5552 222f 1D000100 		.4byte	0x1001d
 5553 2233 15       		.uleb128 0x15
 5554 2234 80500000 		.4byte	.LASF777
 5555 2238 1E000100 		.4byte	0x1001e
 5556 223c 15       		.uleb128 0x15
 5557 223d A42E0000 		.4byte	.LASF778
 5558 2241 1F000100 		.4byte	0x1001f
 5559 2245 15       		.uleb128 0x15
 5560 2246 BB230000 		.4byte	.LASF779
 5561 224a 20000100 		.4byte	0x10020
 5562 224e 15       		.uleb128 0x15
 5563 224f F1710000 		.4byte	.LASF780
 5564 2253 21000100 		.4byte	0x10021
 5565 2257 15       		.uleb128 0x15
 5566 2258 11680000 		.4byte	.LASF781
 5567 225c 22000100 		.4byte	0x10022
 5568 2260 15       		.uleb128 0x15
 5569 2261 4A100000 		.4byte	.LASF782
 5570 2265 23000100 		.4byte	0x10023
 5571 2269 15       		.uleb128 0x15
 5572 226a A46F0000 		.4byte	.LASF783
 5573 226e 24000100 		.4byte	0x10024
ARM GAS  C:\Users\gjl\AppData\Local\Temp\ccRZOvUj.s 			page 134


 5574 2272 15       		.uleb128 0x15
 5575 2273 15540000 		.4byte	.LASF784
 5576 2277 25000100 		.4byte	0x10025
 5577 227b 15       		.uleb128 0x15
 5578 227c D81E0000 		.4byte	.LASF785
 5579 2280 26000100 		.4byte	0x10026
 5580 2284 15       		.uleb128 0x15
 5581 2285 F6750000 		.4byte	.LASF786
 5582 2289 27000100 		.4byte	0x10027
 5583 228d 15       		.uleb128 0x15
 5584 228e B4750000 		.4byte	.LASF787
 5585 2292 28000100 		.4byte	0x10028
 5586 2296 15       		.uleb128 0x15
 5587 2297 8F3D0000 		.4byte	.LASF788
 5588 229b 29000100 		.4byte	0x10029
 5589 229f 15       		.uleb128 0x15
 5590 22a0 07610000 		.4byte	.LASF789
 5591 22a4 2A000100 		.4byte	0x1002a
 5592 22a8 15       		.uleb128 0x15
 5593 22a9 C42A0000 		.4byte	.LASF790
 5594 22ad 2B000100 		.4byte	0x1002b
 5595 22b1 15       		.uleb128 0x15
 5596 22b2 672C0000 		.4byte	.LASF791
 5597 22b6 2C000100 		.4byte	0x1002c
 5598 22ba 15       		.uleb128 0x15
 5599 22bb D4670000 		.4byte	.LASF792
 5600 22bf 2D000100 		.4byte	0x1002d
 5601 22c3 15       		.uleb128 0x15
 5602 22c4 915E0000 		.4byte	.LASF793
 5603 22c8 2E000100 		.4byte	0x1002e
 5604 22cc 15       		.uleb128 0x15
 5605 22cd EB000000 		.4byte	.LASF794
 5606 22d1 2F000100 		.4byte	0x1002f
 5607 22d5 15       		.uleb128 0x15
 5608 22d6 525C0000 		.4byte	.LASF795
 5609 22da 30000100 		.4byte	0x10030
 5610 22de 15       		.uleb128 0x15
 5611 22df 7D6D0000 		.4byte	.LASF796
 5612 22e3 31000100 		.4byte	0x10031
 5613 22e7 15       		.uleb128 0x15
 5614 22e8 B03F0000 		.4byte	.LASF797
 5615 22ec 32000100 		.4byte	0x10032
 5616 22f0 15       		.uleb128 0x15
 5617 22f1 7E210000 		.4byte	.LASF798
 5618 22f5 33000100 		.4byte	0x10033
 5619 22f9 15       		.uleb128 0x15
 5620 22fa B9080000 		.4byte	.LASF799
 5621 22fe 34000100 		.4byte	0x10034
 5622 2302 15       		.uleb128 0x15
 5623 2303 303C0000 		.4byte	.LASF800
 5624 2307 35000100 		.4byte	0x10035
 5625 230b 15       		.uleb128 0x15
 5626 230c E3070000 		.4byte	.LASF801
 5627 2310 36000100 		.4byte	0x10036
 5628 2314 15       		.uleb128 0x15
 5629 2315 AA4D0000 		.4byte	.LASF802
 5630 2319 37000100 		.4byte	0x10037
ARM GAS  C:\Users\gjl\AppData\Local\Temp\ccRZOvUj.s 			page 135


 5631 231d 15       		.uleb128 0x15
 5632 231e 1B760000 		.4byte	.LASF803
 5633 2322 38000100 		.4byte	0x10038
 5634 2326 15       		.uleb128 0x15
 5635 2327 24260000 		.4byte	.LASF804
 5636 232b 39000100 		.4byte	0x10039
 5637 232f 15       		.uleb128 0x15
 5638 2330 B6740000 		.4byte	.LASF805
 5639 2334 3A000100 		.4byte	0x1003a
 5640 2338 15       		.uleb128 0x15
 5641 2339 06090000 		.4byte	.LASF806
 5642 233d 3B000100 		.4byte	0x1003b
 5643 2341 15       		.uleb128 0x15
 5644 2342 19080000 		.4byte	.LASF807
 5645 2346 3C000100 		.4byte	0x1003c
 5646 234a 15       		.uleb128 0x15
 5647 234b D6460000 		.4byte	.LASF808
 5648 234f 3D000100 		.4byte	0x1003d
 5649 2353 15       		.uleb128 0x15
 5650 2354 61510000 		.4byte	.LASF809
 5651 2358 3E000100 		.4byte	0x1003e
 5652 235c 15       		.uleb128 0x15
 5653 235d D1110000 		.4byte	.LASF810
 5654 2361 3F000100 		.4byte	0x1003f
 5655 2365 15       		.uleb128 0x15
 5656 2366 1D410000 		.4byte	.LASF811
 5657 236a 40000100 		.4byte	0x10040
 5658 236e 15       		.uleb128 0x15
 5659 236f B44A0000 		.4byte	.LASF812
 5660 2373 41000100 		.4byte	0x10041
 5661 2377 15       		.uleb128 0x15
 5662 2378 B0120000 		.4byte	.LASF813
 5663 237c 42000100 		.4byte	0x10042
 5664 2380 15       		.uleb128 0x15
 5665 2381 05290000 		.4byte	.LASF814
 5666 2385 43000100 		.4byte	0x10043
 5667 2389 15       		.uleb128 0x15
 5668 238a 573F0000 		.4byte	.LASF815
 5669 238e 44000100 		.4byte	0x10044
 5670 2392 15       		.uleb128 0x15
 5671 2393 214E0000 		.4byte	.LASF816
 5672 2397 45000100 		.4byte	0x10045
 5673 239b 15       		.uleb128 0x15
 5674 239c 6D1C0000 		.4byte	.LASF817
 5675 23a0 46000100 		.4byte	0x10046
 5676 23a4 15       		.uleb128 0x15
 5677 23a5 195E0000 		.4byte	.LASF818
 5678 23a9 47000100 		.4byte	0x10047
 5679 23ad 15       		.uleb128 0x15
 5680 23ae F0200000 		.4byte	.LASF819
 5681 23b2 48000100 		.4byte	0x10048
 5682 23b6 15       		.uleb128 0x15
 5683 23b7 5C6B0000 		.4byte	.LASF820
 5684 23bb 49000100 		.4byte	0x10049
 5685 23bf 15       		.uleb128 0x15
 5686 23c0 42010000 		.4byte	.LASF821
 5687 23c4 4A000100 		.4byte	0x1004a
ARM GAS  C:\Users\gjl\AppData\Local\Temp\ccRZOvUj.s 			page 136


 5688 23c8 15       		.uleb128 0x15
 5689 23c9 FC230000 		.4byte	.LASF822
 5690 23cd 4B000100 		.4byte	0x1004b
 5691 23d1 15       		.uleb128 0x15
 5692 23d2 86010000 		.4byte	.LASF823
 5693 23d6 4C000100 		.4byte	0x1004c
 5694 23da 15       		.uleb128 0x15
 5695 23db 98060000 		.4byte	.LASF824
 5696 23df 4D000100 		.4byte	0x1004d
 5697 23e3 15       		.uleb128 0x15
 5698 23e4 042A0000 		.4byte	.LASF825
 5699 23e8 4E000100 		.4byte	0x1004e
 5700 23ec 15       		.uleb128 0x15
 5701 23ed 1F250000 		.4byte	.LASF826
 5702 23f1 4F000100 		.4byte	0x1004f
 5703 23f5 15       		.uleb128 0x15
 5704 23f6 D5660000 		.4byte	.LASF827
 5705 23fa 50000100 		.4byte	0x10050
 5706 23fe 15       		.uleb128 0x15
 5707 23ff F64F0000 		.4byte	.LASF828
 5708 2403 51000100 		.4byte	0x10051
 5709 2407 15       		.uleb128 0x15
 5710 2408 D8360000 		.4byte	.LASF829
 5711 240c 52000100 		.4byte	0x10052
 5712 2410 15       		.uleb128 0x15
 5713 2411 8E4D0000 		.4byte	.LASF830
 5714 2415 53000100 		.4byte	0x10053
 5715 2419 15       		.uleb128 0x15
 5716 241a 23590000 		.4byte	.LASF831
 5717 241e 54000100 		.4byte	0x10054
 5718 2422 15       		.uleb128 0x15
 5719 2423 6F120000 		.4byte	.LASF832
 5720 2427 55000100 		.4byte	0x10055
 5721 242b 15       		.uleb128 0x15
 5722 242c 23450000 		.4byte	.LASF833
 5723 2430 56000100 		.4byte	0x10056
 5724 2434 15       		.uleb128 0x15
 5725 2435 374B0000 		.4byte	.LASF834
 5726 2439 57000100 		.4byte	0x10057
 5727 243d 15       		.uleb128 0x15
 5728 243e 90740000 		.4byte	.LASF835
 5729 2442 58000100 		.4byte	0x10058
 5730 2446 15       		.uleb128 0x15
 5731 2447 3C480000 		.4byte	.LASF836
 5732 244b 59000100 		.4byte	0x10059
 5733 244f 15       		.uleb128 0x15
 5734 2450 87420000 		.4byte	.LASF837
 5735 2454 5A000100 		.4byte	0x1005a
 5736 2458 15       		.uleb128 0x15
 5737 2459 1D470000 		.4byte	.LASF838
 5738 245d 5B000100 		.4byte	0x1005b
 5739 2461 15       		.uleb128 0x15
 5740 2462 8A000000 		.4byte	.LASF839
 5741 2466 5C000100 		.4byte	0x1005c
 5742 246a 15       		.uleb128 0x15
 5743 246b 1D500000 		.4byte	.LASF840
 5744 246f 5D000100 		.4byte	0x1005d
ARM GAS  C:\Users\gjl\AppData\Local\Temp\ccRZOvUj.s 			page 137


 5745 2473 15       		.uleb128 0x15
 5746 2474 5B6A0000 		.4byte	.LASF841
 5747 2478 5E000100 		.4byte	0x1005e
 5748 247c 15       		.uleb128 0x15
 5749 247d 104A0000 		.4byte	.LASF842
 5750 2481 5F000100 		.4byte	0x1005f
 5751 2485 15       		.uleb128 0x15
 5752 2486 E86C0000 		.4byte	.LASF843
 5753 248a 60000100 		.4byte	0x10060
 5754 248e 15       		.uleb128 0x15
 5755 248f 8B300000 		.4byte	.LASF844
 5756 2493 61000100 		.4byte	0x10061
 5757 2497 15       		.uleb128 0x15
 5758 2498 DB4E0000 		.4byte	.LASF845
 5759 249c 62000100 		.4byte	0x10062
 5760 24a0 15       		.uleb128 0x15
 5761 24a1 C56C0000 		.4byte	.LASF846
 5762 24a5 63000100 		.4byte	0x10063
 5763 24a9 15       		.uleb128 0x15
 5764 24aa C3430000 		.4byte	.LASF847
 5765 24ae 64000100 		.4byte	0x10064
 5766 24b2 15       		.uleb128 0x15
 5767 24b3 1B220000 		.4byte	.LASF848
 5768 24b7 65000100 		.4byte	0x10065
 5769 24bb 15       		.uleb128 0x15
 5770 24bc 9B540000 		.4byte	.LASF849
 5771 24c0 66000100 		.4byte	0x10066
 5772 24c4 15       		.uleb128 0x15
 5773 24c5 9C370000 		.4byte	.LASF850
 5774 24c9 67000100 		.4byte	0x10067
 5775 24cd 15       		.uleb128 0x15
 5776 24ce 0C780000 		.4byte	.LASF851
 5777 24d2 68000100 		.4byte	0x10068
 5778 24d6 15       		.uleb128 0x15
 5779 24d7 61140000 		.4byte	.LASF852
 5780 24db 69000100 		.4byte	0x10069
 5781 24df 15       		.uleb128 0x15
 5782 24e0 884E0000 		.4byte	.LASF853
 5783 24e4 6A000100 		.4byte	0x1006a
 5784 24e8 15       		.uleb128 0x15
 5785 24e9 7D6A0000 		.4byte	.LASF854
 5786 24ed 6B000100 		.4byte	0x1006b
 5787 24f1 15       		.uleb128 0x15
 5788 24f2 0F020000 		.4byte	.LASF855
 5789 24f6 6C000100 		.4byte	0x1006c
 5790 24fa 15       		.uleb128 0x15
 5791 24fb 601B0000 		.4byte	.LASF856
 5792 24ff 6D000100 		.4byte	0x1006d
 5793 2503 15       		.uleb128 0x15
 5794 2504 A4210000 		.4byte	.LASF857
 5795 2508 6E000100 		.4byte	0x1006e
 5796 250c 15       		.uleb128 0x15
 5797 250d 1A660000 		.4byte	.LASF858
 5798 2511 6F000100 		.4byte	0x1006f
 5799 2515 15       		.uleb128 0x15
 5800 2516 58760000 		.4byte	.LASF859
 5801 251a 70000100 		.4byte	0x10070
ARM GAS  C:\Users\gjl\AppData\Local\Temp\ccRZOvUj.s 			page 138


 5802 251e 15       		.uleb128 0x15
 5803 251f 3D140000 		.4byte	.LASF860
 5804 2523 71000100 		.4byte	0x10071
 5805 2527 15       		.uleb128 0x15
 5806 2528 68450000 		.4byte	.LASF861
 5807 252c 72000100 		.4byte	0x10072
 5808 2530 15       		.uleb128 0x15
 5809 2531 20240000 		.4byte	.LASF862
 5810 2535 73000100 		.4byte	0x10073
 5811 2539 15       		.uleb128 0x15
 5812 253a 58210000 		.4byte	.LASF863
 5813 253e 74000100 		.4byte	0x10074
 5814 2542 15       		.uleb128 0x15
 5815 2543 CF4D0000 		.4byte	.LASF864
 5816 2547 75000100 		.4byte	0x10075
 5817 254b 15       		.uleb128 0x15
 5818 254c 9E780000 		.4byte	.LASF865
 5819 2550 76000100 		.4byte	0x10076
 5820 2554 15       		.uleb128 0x15
 5821 2555 C42D0000 		.4byte	.LASF866
 5822 2559 77000100 		.4byte	0x10077
 5823 255d 15       		.uleb128 0x15
 5824 255e 53320000 		.4byte	.LASF867
 5825 2562 78000100 		.4byte	0x10078
 5826 2566 15       		.uleb128 0x15
 5827 2567 51630000 		.4byte	.LASF868
 5828 256b 79000100 		.4byte	0x10079
 5829 256f 15       		.uleb128 0x15
 5830 2570 30200000 		.4byte	.LASF869
 5831 2574 7A000100 		.4byte	0x1007a
 5832 2578 15       		.uleb128 0x15
 5833 2579 E6590000 		.4byte	.LASF870
 5834 257d 7B000100 		.4byte	0x1007b
 5835 2581 15       		.uleb128 0x15
 5836 2582 09420000 		.4byte	.LASF871
 5837 2586 7C000100 		.4byte	0x1007c
 5838 258a 15       		.uleb128 0x15
 5839 258b 83290000 		.4byte	.LASF872
 5840 258f 7D000100 		.4byte	0x1007d
 5841 2593 15       		.uleb128 0x15
 5842 2594 38660000 		.4byte	.LASF873
 5843 2598 7E000100 		.4byte	0x1007e
 5844 259c 15       		.uleb128 0x15
 5845 259d E1700000 		.4byte	.LASF874
 5846 25a1 7F000100 		.4byte	0x1007f
 5847 25a5 15       		.uleb128 0x15
 5848 25a6 E0390000 		.4byte	.LASF875
 5849 25aa 80000100 		.4byte	0x10080
 5850 25ae 15       		.uleb128 0x15
 5851 25af 625E0000 		.4byte	.LASF876
 5852 25b3 81000100 		.4byte	0x10081
 5853 25b7 15       		.uleb128 0x15
 5854 25b8 832D0000 		.4byte	.LASF877
 5855 25bc 82000100 		.4byte	0x10082
 5856 25c0 15       		.uleb128 0x15
 5857 25c1 50490000 		.4byte	.LASF878
 5858 25c5 83000100 		.4byte	0x10083
ARM GAS  C:\Users\gjl\AppData\Local\Temp\ccRZOvUj.s 			page 139


 5859 25c9 15       		.uleb128 0x15
 5860 25ca AD220000 		.4byte	.LASF879
 5861 25ce 84000100 		.4byte	0x10084
 5862 25d2 15       		.uleb128 0x15
 5863 25d3 A6340000 		.4byte	.LASF880
 5864 25d7 85000100 		.4byte	0x10085
 5865 25db 15       		.uleb128 0x15
 5866 25dc 9A250000 		.4byte	.LASF881
 5867 25e0 86000100 		.4byte	0x10086
 5868 25e4 15       		.uleb128 0x15
 5869 25e5 64420000 		.4byte	.LASF882
 5870 25e9 87000100 		.4byte	0x10087
 5871 25ed 15       		.uleb128 0x15
 5872 25ee A21D0000 		.4byte	.LASF883
 5873 25f2 88000100 		.4byte	0x10088
 5874 25f6 15       		.uleb128 0x15
 5875 25f7 28040000 		.4byte	.LASF884
 5876 25fb 89000100 		.4byte	0x10089
 5877 25ff 15       		.uleb128 0x15
 5878 2600 D4730000 		.4byte	.LASF885
 5879 2604 8A000100 		.4byte	0x1008a
 5880 2608 15       		.uleb128 0x15
 5881 2609 592E0000 		.4byte	.LASF886
 5882 260d 8B000100 		.4byte	0x1008b
 5883 2611 15       		.uleb128 0x15
 5884 2612 E2080000 		.4byte	.LASF887
 5885 2616 8C000100 		.4byte	0x1008c
 5886 261a 15       		.uleb128 0x15
 5887 261b 65340000 		.4byte	.LASF888
 5888 261f 8D000100 		.4byte	0x1008d
 5889 2623 15       		.uleb128 0x15
 5890 2624 B7770000 		.4byte	.LASF889
 5891 2628 8E000100 		.4byte	0x1008e
 5892 262c 15       		.uleb128 0x15
 5893 262d 7E6F0000 		.4byte	.LASF890
 5894 2631 8F000100 		.4byte	0x1008f
 5895 2635 15       		.uleb128 0x15
 5896 2636 3B0D0000 		.4byte	.LASF891
 5897 263a 90000100 		.4byte	0x10090
 5898 263e 15       		.uleb128 0x15
 5899 263f 1F630000 		.4byte	.LASF892
 5900 2643 91000100 		.4byte	0x10091
 5901 2647 15       		.uleb128 0x15
 5902 2648 C3340000 		.4byte	.LASF893
 5903 264c 92000100 		.4byte	0x10092
 5904 2650 15       		.uleb128 0x15
 5905 2651 52000000 		.4byte	.LASF894
 5906 2655 93000100 		.4byte	0x10093
 5907 2659 15       		.uleb128 0x15
 5908 265a EE4B0000 		.4byte	.LASF895
 5909 265e 94000100 		.4byte	0x10094
 5910 2662 15       		.uleb128 0x15
 5911 2663 6C050000 		.4byte	.LASF896
 5912 2667 95000100 		.4byte	0x10095
 5913 266b 15       		.uleb128 0x15
 5914 266c 560D0000 		.4byte	.LASF897
 5915 2670 96000100 		.4byte	0x10096
ARM GAS  C:\Users\gjl\AppData\Local\Temp\ccRZOvUj.s 			page 140


 5916 2674 15       		.uleb128 0x15
 5917 2675 8E4A0000 		.4byte	.LASF898
 5918 2679 97000100 		.4byte	0x10097
 5919 267d 15       		.uleb128 0x15
 5920 267e 490A0000 		.4byte	.LASF899
 5921 2682 98000100 		.4byte	0x10098
 5922 2686 15       		.uleb128 0x15
 5923 2687 71520000 		.4byte	.LASF900
 5924 268b 99000100 		.4byte	0x10099
 5925 268f 15       		.uleb128 0x15
 5926 2690 B2200000 		.4byte	.LASF901
 5927 2694 9A000100 		.4byte	0x1009a
 5928 2698 15       		.uleb128 0x15
 5929 2699 EB290000 		.4byte	.LASF902
 5930 269d 9B000100 		.4byte	0x1009b
 5931 26a1 15       		.uleb128 0x15
 5932 26a2 01250000 		.4byte	.LASF903
 5933 26a6 9C000100 		.4byte	0x1009c
 5934 26aa 15       		.uleb128 0x15
 5935 26ab 7E640000 		.4byte	.LASF904
 5936 26af 9D000100 		.4byte	0x1009d
 5937 26b3 15       		.uleb128 0x15
 5938 26b4 334A0000 		.4byte	.LASF905
 5939 26b8 9E000100 		.4byte	0x1009e
 5940 26bc 15       		.uleb128 0x15
 5941 26bd 90050000 		.4byte	.LASF906
 5942 26c1 9F000100 		.4byte	0x1009f
 5943 26c5 15       		.uleb128 0x15
 5944 26c6 700A0000 		.4byte	.LASF907
 5945 26ca A0000100 		.4byte	0x100a0
 5946 26ce 15       		.uleb128 0x15
 5947 26cf 5B1F0000 		.4byte	.LASF908
 5948 26d3 A1000100 		.4byte	0x100a1
 5949 26d7 15       		.uleb128 0x15
 5950 26d8 DC570000 		.4byte	.LASF909
 5951 26dc A2000100 		.4byte	0x100a2
 5952 26e0 15       		.uleb128 0x15
 5953 26e1 96320000 		.4byte	.LASF910
 5954 26e5 A3000100 		.4byte	0x100a3
 5955 26e9 15       		.uleb128 0x15
 5956 26ea 49120000 		.4byte	.LASF911
 5957 26ee A4000100 		.4byte	0x100a4
 5958 26f2 15       		.uleb128 0x15
 5959 26f3 551D0000 		.4byte	.LASF912
 5960 26f7 A5000100 		.4byte	0x100a5
 5961 26fb 15       		.uleb128 0x15
 5962 26fc 001B0000 		.4byte	.LASF913
 5963 2700 A6000100 		.4byte	0x100a6
 5964 2704 15       		.uleb128 0x15
 5965 2705 006A0000 		.4byte	.LASF914
 5966 2709 A7000100 		.4byte	0x100a7
 5967 270d 15       		.uleb128 0x15
 5968 270e DF650000 		.4byte	.LASF915
 5969 2712 A8000100 		.4byte	0x100a8
 5970 2716 15       		.uleb128 0x15
 5971 2717 CB420000 		.4byte	.LASF916
 5972 271b A9000100 		.4byte	0x100a9
ARM GAS  C:\Users\gjl\AppData\Local\Temp\ccRZOvUj.s 			page 141


 5973 271f 15       		.uleb128 0x15
 5974 2720 310C0000 		.4byte	.LASF917
 5975 2724 AA000100 		.4byte	0x100aa
 5976 2728 15       		.uleb128 0x15
 5977 2729 032E0000 		.4byte	.LASF918
 5978 272d AB000100 		.4byte	0x100ab
 5979 2731 15       		.uleb128 0x15
 5980 2732 99350000 		.4byte	.LASF919
 5981 2736 AC000100 		.4byte	0x100ac
 5982 273a 15       		.uleb128 0x15
 5983 273b 58690000 		.4byte	.LASF920
 5984 273f AD000100 		.4byte	0x100ad
 5985 2743 15       		.uleb128 0x15
 5986 2744 0C1C0000 		.4byte	.LASF921
 5987 2748 AE000100 		.4byte	0x100ae
 5988 274c 15       		.uleb128 0x15
 5989 274d 613B0000 		.4byte	.LASF922
 5990 2751 AF000100 		.4byte	0x100af
 5991 2755 15       		.uleb128 0x15
 5992 2756 F24A0000 		.4byte	.LASF923
 5993 275a B0000100 		.4byte	0x100b0
 5994 275e 15       		.uleb128 0x15
 5995 275f 5A2A0000 		.4byte	.LASF924
 5996 2763 B1000100 		.4byte	0x100b1
 5997 2767 15       		.uleb128 0x15
 5998 2768 94460000 		.4byte	.LASF925
 5999 276c B2000100 		.4byte	0x100b2
 6000 2770 15       		.uleb128 0x15
 6001 2771 5D3A0000 		.4byte	.LASF926
 6002 2775 B3000100 		.4byte	0x100b3
 6003 2779 15       		.uleb128 0x15
 6004 277a 684D0000 		.4byte	.LASF927
 6005 277e B4000100 		.4byte	0x100b4
 6006 2782 15       		.uleb128 0x15
 6007 2783 18750000 		.4byte	.LASF928
 6008 2787 B5000100 		.4byte	0x100b5
 6009 278b 15       		.uleb128 0x15
 6010 278c 6C470000 		.4byte	.LASF929
 6011 2790 B6000100 		.4byte	0x100b6
 6012 2794 15       		.uleb128 0x15
 6013 2795 E26B0000 		.4byte	.LASF930
 6014 2799 B7000100 		.4byte	0x100b7
 6015 279d 15       		.uleb128 0x15
 6016 279e C9540000 		.4byte	.LASF931
 6017 27a2 B8000100 		.4byte	0x100b8
 6018 27a6 15       		.uleb128 0x15
 6019 27a7 121D0000 		.4byte	.LASF932
 6020 27ab B9000100 		.4byte	0x100b9
 6021 27af 15       		.uleb128 0x15
 6022 27b0 32310000 		.4byte	.LASF933
 6023 27b4 BA000100 		.4byte	0x100ba
 6024 27b8 15       		.uleb128 0x15
 6025 27b9 D1060000 		.4byte	.LASF934
 6026 27bd BB000100 		.4byte	0x100bb
 6027 27c1 15       		.uleb128 0x15
 6028 27c2 D5090000 		.4byte	.LASF935
 6029 27c6 BC000100 		.4byte	0x100bc
ARM GAS  C:\Users\gjl\AppData\Local\Temp\ccRZOvUj.s 			page 142


 6030 27ca 15       		.uleb128 0x15
 6031 27cb 90630000 		.4byte	.LASF936
 6032 27cf BD000100 		.4byte	0x100bd
 6033 27d3 15       		.uleb128 0x15
 6034 27d4 6B490000 		.4byte	.LASF937
 6035 27d8 BE000100 		.4byte	0x100be
 6036 27dc 15       		.uleb128 0x15
 6037 27dd E0340000 		.4byte	.LASF938
 6038 27e1 BF000100 		.4byte	0x100bf
 6039 27e5 15       		.uleb128 0x15
 6040 27e6 01550000 		.4byte	.LASF939
 6041 27ea C0000100 		.4byte	0x100c0
 6042 27ee 15       		.uleb128 0x15
 6043 27ef DA6A0000 		.4byte	.LASF940
 6044 27f3 C1000100 		.4byte	0x100c1
 6045 27f7 15       		.uleb128 0x15
 6046 27f8 645B0000 		.4byte	.LASF941
 6047 27fc C2000100 		.4byte	0x100c2
 6048 2800 15       		.uleb128 0x15
 6049 2801 C9100000 		.4byte	.LASF942
 6050 2805 C3000100 		.4byte	0x100c3
 6051 2809 15       		.uleb128 0x15
 6052 280a 213D0000 		.4byte	.LASF943
 6053 280e C4000100 		.4byte	0x100c4
 6054 2812 15       		.uleb128 0x15
 6055 2813 264D0000 		.4byte	.LASF944
 6056 2817 C5000100 		.4byte	0x100c5
 6057 281b 15       		.uleb128 0x15
 6058 281c 822C0000 		.4byte	.LASF945
 6059 2820 C6000100 		.4byte	0x100c6
 6060 2824 15       		.uleb128 0x15
 6061 2825 216B0000 		.4byte	.LASF946
 6062 2829 C7000100 		.4byte	0x100c7
 6063 282d 15       		.uleb128 0x15
 6064 282e 376F0000 		.4byte	.LASF947
 6065 2832 C8000100 		.4byte	0x100c8
 6066 2836 15       		.uleb128 0x15
 6067 2837 89310000 		.4byte	.LASF948
 6068 283b C9000100 		.4byte	0x100c9
 6069 283f 15       		.uleb128 0x15
 6070 2840 F8560000 		.4byte	.LASF949
 6071 2844 CA000100 		.4byte	0x100ca
 6072 2848 15       		.uleb128 0x15
 6073 2849 3A550000 		.4byte	.LASF950
 6074 284d CB000100 		.4byte	0x100cb
 6075 2851 15       		.uleb128 0x15
 6076 2852 90150000 		.4byte	.LASF951
 6077 2856 CC000100 		.4byte	0x100cc
 6078 285a 15       		.uleb128 0x15
 6079 285b 23180000 		.4byte	.LASF952
 6080 285f CD000100 		.4byte	0x100cd
 6081 2863 15       		.uleb128 0x15
 6082 2864 25120000 		.4byte	.LASF953
 6083 2868 CE000100 		.4byte	0x100ce
 6084 286c 15       		.uleb128 0x15
 6085 286d 59260000 		.4byte	.LASF954
 6086 2871 CF000100 		.4byte	0x100cf
ARM GAS  C:\Users\gjl\AppData\Local\Temp\ccRZOvUj.s 			page 143


 6087 2875 15       		.uleb128 0x15
 6088 2876 72680000 		.4byte	.LASF955
 6089 287a D0000100 		.4byte	0x100d0
 6090 287e 15       		.uleb128 0x15
 6091 287f B5250000 		.4byte	.LASF956
 6092 2883 D1000100 		.4byte	0x100d1
 6093 2887 15       		.uleb128 0x15
 6094 2888 92520000 		.4byte	.LASF957
 6095 288c D2000100 		.4byte	0x100d2
 6096 2890 15       		.uleb128 0x15
 6097 2891 C8620000 		.4byte	.LASF958
 6098 2895 D3000100 		.4byte	0x100d3
 6099 2899 15       		.uleb128 0x15
 6100 289a 54200000 		.4byte	.LASF959
 6101 289e D4000100 		.4byte	0x100d4
 6102 28a2 15       		.uleb128 0x15
 6103 28a3 8A220000 		.4byte	.LASF960
 6104 28a7 D5000100 		.4byte	0x100d5
 6105 28ab 15       		.uleb128 0x15
 6106 28ac 0E530000 		.4byte	.LASF961
 6107 28b0 D6000100 		.4byte	0x100d6
 6108 28b4 15       		.uleb128 0x15
 6109 28b5 C6300000 		.4byte	.LASF962
 6110 28b9 D7000100 		.4byte	0x100d7
 6111 28bd 15       		.uleb128 0x15
 6112 28be 4F750000 		.4byte	.LASF963
 6113 28c2 D8000100 		.4byte	0x100d8
 6114 28c6 15       		.uleb128 0x15
 6115 28c7 A20C0000 		.4byte	.LASF964
 6116 28cb D9000100 		.4byte	0x100d9
 6117 28cf 15       		.uleb128 0x15
 6118 28d0 230F0000 		.4byte	.LASF965
 6119 28d4 DA000100 		.4byte	0x100da
 6120 28d8 15       		.uleb128 0x15
 6121 28d9 BA170000 		.4byte	.LASF966
 6122 28dd DB000100 		.4byte	0x100db
 6123 28e1 15       		.uleb128 0x15
 6124 28e2 BC550000 		.4byte	.LASF967
 6125 28e6 DC000100 		.4byte	0x100dc
 6126 28ea 15       		.uleb128 0x15
 6127 28eb 24350000 		.4byte	.LASF968
 6128 28ef DD000100 		.4byte	0x100dd
 6129 28f3 15       		.uleb128 0x15
 6130 28f4 0C0D0000 		.4byte	.LASF969
 6131 28f8 DE000100 		.4byte	0x100de
 6132 28fc 15       		.uleb128 0x15
 6133 28fd 545F0000 		.4byte	.LASF970
 6134 2901 DF000100 		.4byte	0x100df
 6135 2905 15       		.uleb128 0x15
 6136 2906 E9010000 		.4byte	.LASF971
 6137 290a E0000100 		.4byte	0x100e0
 6138 290e 15       		.uleb128 0x15
 6139 290f BA380000 		.4byte	.LASF972
 6140 2913 E1000100 		.4byte	0x100e1
 6141 2917 15       		.uleb128 0x15
 6142 2918 0D310000 		.4byte	.LASF973
 6143 291c E2000100 		.4byte	0x100e2
ARM GAS  C:\Users\gjl\AppData\Local\Temp\ccRZOvUj.s 			page 144


 6144 2920 15       		.uleb128 0x15
 6145 2921 3E170000 		.4byte	.LASF974
 6146 2925 E3000100 		.4byte	0x100e3
 6147 2929 15       		.uleb128 0x15
 6148 292a 505A0000 		.4byte	.LASF975
 6149 292e E4000100 		.4byte	0x100e4
 6150 2932 15       		.uleb128 0x15
 6151 2933 41590000 		.4byte	.LASF976
 6152 2937 E5000100 		.4byte	0x100e5
 6153 293b 15       		.uleb128 0x15
 6154 293c DD480000 		.4byte	.LASF977
 6155 2940 E6000100 		.4byte	0x100e6
 6156 2944 15       		.uleb128 0x15
 6157 2945 61240000 		.4byte	.LASF978
 6158 2949 E7000100 		.4byte	0x100e7
 6159 294d 15       		.uleb128 0x15
 6160 294e FD2C0000 		.4byte	.LASF979
 6161 2952 E8000100 		.4byte	0x100e8
 6162 2956 15       		.uleb128 0x15
 6163 2957 EC100000 		.4byte	.LASF980
 6164 295b E9000100 		.4byte	0x100e9
 6165 295f 15       		.uleb128 0x15
 6166 2960 EE6D0000 		.4byte	.LASF981
 6167 2964 EA000100 		.4byte	0x100ea
 6168 2968 15       		.uleb128 0x15
 6169 2969 99530000 		.4byte	.LASF982
 6170 296d EB000100 		.4byte	0x100eb
 6171 2971 15       		.uleb128 0x15
 6172 2972 80670000 		.4byte	.LASF983
 6173 2976 EC000100 		.4byte	0x100ec
 6174 297a 15       		.uleb128 0x15
 6175 297b D8550000 		.4byte	.LASF984
 6176 297f ED000100 		.4byte	0x100ed
 6177 2983 15       		.uleb128 0x15
 6178 2984 91770000 		.4byte	.LASF985
 6179 2988 EE000100 		.4byte	0x100ee
 6180 298c 15       		.uleb128 0x15
 6181 298d B4150000 		.4byte	.LASF986
 6182 2991 EF000100 		.4byte	0x100ef
 6183 2995 15       		.uleb128 0x15
 6184 2996 435D0000 		.4byte	.LASF987
 6185 299a F0000100 		.4byte	0x100f0
 6186 299e 15       		.uleb128 0x15
 6187 299f 41460000 		.4byte	.LASF988
 6188 29a3 F1000100 		.4byte	0x100f1
 6189 29a7 15       		.uleb128 0x15
 6190 29a8 94400000 		.4byte	.LASF989
 6191 29ac F2000100 		.4byte	0x100f2
 6192 29b0 15       		.uleb128 0x15
 6193 29b1 74630000 		.4byte	.LASF990
 6194 29b5 F3000100 		.4byte	0x100f3
 6195 29b9 15       		.uleb128 0x15
 6196 29ba D13A0000 		.4byte	.LASF991
 6197 29be F4000100 		.4byte	0x100f4
 6198 29c2 15       		.uleb128 0x15
 6199 29c3 E26E0000 		.4byte	.LASF992
 6200 29c7 F5000100 		.4byte	0x100f5
ARM GAS  C:\Users\gjl\AppData\Local\Temp\ccRZOvUj.s 			page 145


 6201 29cb 15       		.uleb128 0x15
 6202 29cc FB660000 		.4byte	.LASF993
 6203 29d0 F6000100 		.4byte	0x100f6
 6204 29d4 15       		.uleb128 0x15
 6205 29d5 21090000 		.4byte	.LASF994
 6206 29d9 F7000100 		.4byte	0x100f7
 6207 29dd 15       		.uleb128 0x15
 6208 29de A3620000 		.4byte	.LASF995
 6209 29e2 F8000100 		.4byte	0x100f8
 6210 29e6 15       		.uleb128 0x15
 6211 29e7 F5210000 		.4byte	.LASF996
 6212 29eb F9000100 		.4byte	0x100f9
 6213 29ef 15       		.uleb128 0x15
 6214 29f0 A16A0000 		.4byte	.LASF997
 6215 29f4 FA000100 		.4byte	0x100fa
 6216 29f8 15       		.uleb128 0x15
 6217 29f9 A7310000 		.4byte	.LASF998
 6218 29fd FB000100 		.4byte	0x100fb
 6219 2a01 15       		.uleb128 0x15
 6220 2a02 783C0000 		.4byte	.LASF999
 6221 2a06 FC000100 		.4byte	0x100fc
 6222 2a0a 15       		.uleb128 0x15
 6223 2a0b BD640000 		.4byte	.LASF1000
 6224 2a0f FD000100 		.4byte	0x100fd
 6225 2a13 15       		.uleb128 0x15
 6226 2a14 70600000 		.4byte	.LASF1001
 6227 2a18 FE000100 		.4byte	0x100fe
 6228 2a1c 15       		.uleb128 0x15
 6229 2a1d DB740000 		.4byte	.LASF1002
 6230 2a21 FF000100 		.4byte	0x100ff
 6231 2a25 15       		.uleb128 0x15
 6232 2a26 FE170000 		.4byte	.LASF1003
 6233 2a2a 00010100 		.4byte	0x10100
 6234 2a2e 15       		.uleb128 0x15
 6235 2a2f 5C4B0000 		.4byte	.LASF1004
 6236 2a33 01010100 		.4byte	0x10101
 6237 2a37 15       		.uleb128 0x15
 6238 2a38 7D650000 		.4byte	.LASF1005
 6239 2a3c 02010100 		.4byte	0x10102
 6240 2a40 15       		.uleb128 0x15
 6241 2a41 CC610000 		.4byte	.LASF1006
 6242 2a45 03010100 		.4byte	0x10103
 6243 2a49 15       		.uleb128 0x15
 6244 2a4a E52F0000 		.4byte	.LASF1007
 6245 2a4e 04010100 		.4byte	0x10104
 6246 2a52 15       		.uleb128 0x15
 6247 2a53 2D650000 		.4byte	.LASF1008
 6248 2a57 05010100 		.4byte	0x10105
 6249 2a5b 15       		.uleb128 0x15
 6250 2a5c 24780000 		.4byte	.LASF1009
 6251 2a60 06010100 		.4byte	0x10106
 6252 2a64 15       		.uleb128 0x15
 6253 2a65 B3720000 		.4byte	.LASF1010
 6254 2a69 07010100 		.4byte	0x10107
 6255 2a6d 15       		.uleb128 0x15
 6256 2a6e AF390000 		.4byte	.LASF1011
 6257 2a72 08010100 		.4byte	0x10108
ARM GAS  C:\Users\gjl\AppData\Local\Temp\ccRZOvUj.s 			page 146


 6258 2a76 15       		.uleb128 0x15
 6259 2a77 DD240000 		.4byte	.LASF1012
 6260 2a7b 09010100 		.4byte	0x10109
 6261 2a7f 15       		.uleb128 0x15
 6262 2a80 FF340000 		.4byte	.LASF1013
 6263 2a84 0A010100 		.4byte	0x1010a
 6264 2a88 15       		.uleb128 0x15
 6265 2a89 14060000 		.4byte	.LASF1014
 6266 2a8d 0B010100 		.4byte	0x1010b
 6267 2a91 15       		.uleb128 0x15
 6268 2a92 E70D0000 		.4byte	.LASF1015
 6269 2a96 0C010100 		.4byte	0x1010c
 6270 2a9a 15       		.uleb128 0x15
 6271 2a9b 4B340000 		.4byte	.LASF1016
 6272 2a9f 0D010100 		.4byte	0x1010d
 6273 2aa3 15       		.uleb128 0x15
 6274 2aa4 4D3D0000 		.4byte	.LASF1017
 6275 2aa8 0E010100 		.4byte	0x1010e
 6276 2aac 15       		.uleb128 0x15
 6277 2aad E6190000 		.4byte	.LASF1018
 6278 2ab1 0F010100 		.4byte	0x1010f
 6279 2ab5 15       		.uleb128 0x15
 6280 2ab6 360B0000 		.4byte	.LASF1019
 6281 2aba 10010100 		.4byte	0x10110
 6282 2abe 15       		.uleb128 0x15
 6283 2abf 8D450000 		.4byte	.LASF1020
 6284 2ac3 11010100 		.4byte	0x10111
 6285 2ac7 15       		.uleb128 0x15
 6286 2ac8 A8610000 		.4byte	.LASF1021
 6287 2acc 12010100 		.4byte	0x10112
 6288 2ad0 15       		.uleb128 0x15
 6289 2ad1 B0450000 		.4byte	.LASF1022
 6290 2ad5 13010100 		.4byte	0x10113
 6291 2ad9 15       		.uleb128 0x15
 6292 2ada 42160000 		.4byte	.LASF1023
 6293 2ade 14010100 		.4byte	0x10114
 6294 2ae2 15       		.uleb128 0x15
 6295 2ae3 90470000 		.4byte	.LASF1024
 6296 2ae7 15010100 		.4byte	0x10115
 6297 2aeb 15       		.uleb128 0x15
 6298 2aec 901C0000 		.4byte	.LASF1025
 6299 2af0 16010100 		.4byte	0x10116
 6300 2af4 15       		.uleb128 0x15
 6301 2af5 6C380000 		.4byte	.LASF1026
 6302 2af9 17010100 		.4byte	0x10117
 6303 2afd 15       		.uleb128 0x15
 6304 2afe 5F290000 		.4byte	.LASF1027
 6305 2b02 18010100 		.4byte	0x10118
 6306 2b06 15       		.uleb128 0x15
 6307 2b07 39060000 		.4byte	.LASF1028
 6308 2b0b 19010100 		.4byte	0x10119
 6309 2b0f 15       		.uleb128 0x15
 6310 2b10 AD520000 		.4byte	.LASF1029
 6311 2b14 1A010100 		.4byte	0x1011a
 6312 2b18 15       		.uleb128 0x15
 6313 2b19 F2250000 		.4byte	.LASF1030
 6314 2b1d 1B010100 		.4byte	0x1011b
ARM GAS  C:\Users\gjl\AppData\Local\Temp\ccRZOvUj.s 			page 147


 6315 2b21 15       		.uleb128 0x15
 6316 2b22 4A4D0000 		.4byte	.LASF1031
 6317 2b26 1C010100 		.4byte	0x1011c
 6318 2b2a 15       		.uleb128 0x15
 6319 2b2b 26010000 		.4byte	.LASF1032
 6320 2b2f 1D010100 		.4byte	0x1011d
 6321 2b33 15       		.uleb128 0x15
 6322 2b34 90490000 		.4byte	.LASF1033
 6323 2b38 1E010100 		.4byte	0x1011e
 6324 2b3c 15       		.uleb128 0x15
 6325 2b3d 73090000 		.4byte	.LASF1034
 6326 2b41 1F010100 		.4byte	0x1011f
 6327 2b45 15       		.uleb128 0x15
 6328 2b46 18280000 		.4byte	.LASF1035
 6329 2b4a 20010100 		.4byte	0x10120
 6330 2b4e 15       		.uleb128 0x15
 6331 2b4f 7E2A0000 		.4byte	.LASF1036
 6332 2b53 21010100 		.4byte	0x10121
 6333 2b57 15       		.uleb128 0x15
 6334 2b58 933E0000 		.4byte	.LASF1037
 6335 2b5c 22010100 		.4byte	0x10122
 6336 2b60 15       		.uleb128 0x15
 6337 2b61 7E690000 		.4byte	.LASF1038
 6338 2b65 23010100 		.4byte	0x10123
 6339 2b69 15       		.uleb128 0x15
 6340 2b6a 2D6E0000 		.4byte	.LASF1039
 6341 2b6e 24010100 		.4byte	0x10124
 6342 2b72 15       		.uleb128 0x15
 6343 2b73 FD1F0000 		.4byte	.LASF1040
 6344 2b77 25010100 		.4byte	0x10125
 6345 2b7b 15       		.uleb128 0x15
 6346 2b7c 90720000 		.4byte	.LASF1041
 6347 2b80 26010100 		.4byte	0x10126
 6348 2b84 15       		.uleb128 0x15
 6349 2b85 EC220000 		.4byte	.LASF1042
 6350 2b89 27010100 		.4byte	0x10127
 6351 2b8d 15       		.uleb128 0x15
 6352 2b8e 526E0000 		.4byte	.LASF1043
 6353 2b92 28010100 		.4byte	0x10128
 6354 2b96 15       		.uleb128 0x15
 6355 2b97 5A1A0000 		.4byte	.LASF1044
 6356 2b9b 29010100 		.4byte	0x10129
 6357 2b9f 15       		.uleb128 0x15
 6358 2ba0 89230000 		.4byte	.LASF1045
 6359 2ba4 2A010100 		.4byte	0x1012a
 6360 2ba8 15       		.uleb128 0x15
 6361 2ba9 3E760000 		.4byte	.LASF1046
 6362 2bad 2B010100 		.4byte	0x1012b
 6363 2bb1 15       		.uleb128 0x15
 6364 2bb2 9D270000 		.4byte	.LASF1047
 6365 2bb6 2C010100 		.4byte	0x1012c
 6366 2bba 15       		.uleb128 0x15
 6367 2bbb 8A440000 		.4byte	.LASF1048
 6368 2bbf 2D010100 		.4byte	0x1012d
 6369 2bc3 15       		.uleb128 0x15
 6370 2bc4 550C0000 		.4byte	.LASF1049
 6371 2bc8 2E010100 		.4byte	0x1012e
ARM GAS  C:\Users\gjl\AppData\Local\Temp\ccRZOvUj.s 			page 148


 6372 2bcc 15       		.uleb128 0x15
 6373 2bcd 936B0000 		.4byte	.LASF1050
 6374 2bd1 2F010100 		.4byte	0x1012f
 6375 2bd5 15       		.uleb128 0x15
 6376 2bd6 54530000 		.4byte	.LASF1051
 6377 2bda 30010100 		.4byte	0x10130
 6378 2bde 15       		.uleb128 0x15
 6379 2bdf 51050000 		.4byte	.LASF1052
 6380 2be3 31010100 		.4byte	0x10131
 6381 2be7 15       		.uleb128 0x15
 6382 2be8 F9090000 		.4byte	.LASF1053
 6383 2bec 32010100 		.4byte	0x10132
 6384 2bf0 15       		.uleb128 0x15
 6385 2bf1 1B460000 		.4byte	.LASF1054
 6386 2bf5 33010100 		.4byte	0x10133
 6387 2bf9 00       		.byte	0
 6388 2bfa 11       		.uleb128 0x11
 6389 2bfb A5360000 		.4byte	.LASF1055
 6390 2bff 14       		.byte	0x14
 6391 2c00 4709     		.2byte	0x947
 6392 2c02 062C0000 		.4byte	0x2c06
 6393 2c06 18       		.uleb128 0x18
 6394 2c07 04       		.byte	0x4
 6395 2c08 0C2C0000 		.4byte	0x2c0c
 6396 2c0c 22       		.uleb128 0x22
 6397 2c0d 46150000 		.4byte	0x1546
 6398 2c11 202C0000 		.4byte	0x2c20
 6399 2c15 1F       		.uleb128 0x1f
 6400 2c16 CF000000 		.4byte	0xcf
 6401 2c1a 1F       		.uleb128 0x1f
 6402 2c1b A5000000 		.4byte	0xa5
 6403 2c1f 00       		.byte	0
 6404 2c20 16       		.uleb128 0x16
 6405 2c21 08       		.byte	0x8
 6406 2c22 14       		.byte	0x14
 6407 2c23 4A09     		.2byte	0x94a
 6408 2c25 442C0000 		.4byte	0x2c44
 6409 2c29 17       		.uleb128 0x17
 6410 2c2a 42500000 		.4byte	.LASF1056
 6411 2c2e 14       		.byte	0x14
 6412 2c2f 4D09     		.2byte	0x94d
 6413 2c31 442C0000 		.4byte	0x2c44
 6414 2c35 00       		.byte	0
 6415 2c36 17       		.uleb128 0x17
 6416 2c37 164B0000 		.4byte	.LASF1057
 6417 2c3b 14       		.byte	0x14
 6418 2c3c 5009     		.2byte	0x950
 6419 2c3e AE000000 		.4byte	0xae
 6420 2c42 04       		.byte	0x4
 6421 2c43 00       		.byte	0
 6422 2c44 0B       		.uleb128 0xb
 6423 2c45 FA2B0000 		.4byte	0x2bfa
 6424 2c49 542C0000 		.4byte	0x2c54
 6425 2c4d 0C       		.uleb128 0xc
 6426 2c4e 9E000000 		.4byte	0x9e
 6427 2c52 00       		.byte	0
 6428 2c53 00       		.byte	0
ARM GAS  C:\Users\gjl\AppData\Local\Temp\ccRZOvUj.s 			page 149


 6429 2c54 11       		.uleb128 0x11
 6430 2c55 E65F0000 		.4byte	.LASF1058
 6431 2c59 14       		.byte	0x14
 6432 2c5a 5109     		.2byte	0x951
 6433 2c5c 202C0000 		.4byte	0x2c20
 6434 2c60 23       		.uleb128 0x23
 6435 2c61 CD440000 		.4byte	.LASF1073
 6436 2c65 02       		.byte	0x2
 6437 2c66 6A03     		.2byte	0x36a
 6438 2c68 B41B0000 		.4byte	0x1bb4
 6439 2c6c 03       		.byte	0x3
 6440 2c6d 7E2C0000 		.4byte	0x2c7e
 6441 2c71 24       		.uleb128 0x24
 6442 2c72 AE000000 		.4byte	.LASF473
 6443 2c76 02       		.byte	0x2
 6444 2c77 6A03     		.2byte	0x36a
 6445 2c79 7A120000 		.4byte	0x127a
 6446 2c7d 00       		.byte	0
 6447 2c7e 25       		.uleb128 0x25
 6448 2c7f 93120000 		.4byte	.LASF1060
 6449 2c83 02       		.byte	0x2
 6450 2c84 F902     		.2byte	0x2f9
 6451 2c86 03       		.byte	0x3
 6452 2c87 982C0000 		.4byte	0x2c98
 6453 2c8b 24       		.uleb128 0x24
 6454 2c8c 99590000 		.4byte	.LASF1059
 6455 2c90 02       		.byte	0x2
 6456 2c91 F902     		.2byte	0x2f9
 6457 2c93 6C1B0000 		.4byte	0x1b6c
 6458 2c97 00       		.byte	0
 6459 2c98 26       		.uleb128 0x26
 6460 2c99 501C0000 		.4byte	.LASF1128
 6461 2c9d 02       		.byte	0x2
 6462 2c9e E702     		.2byte	0x2e7
 6463 2ca0 6C1B0000 		.4byte	0x1b6c
 6464 2ca4 03       		.byte	0x3
 6465 2ca5 25       		.uleb128 0x25
 6466 2ca6 2C510000 		.4byte	.LASF1061
 6467 2caa 02       		.byte	0x2
 6468 2cab 7A03     		.2byte	0x37a
 6469 2cad 03       		.byte	0x3
 6470 2cae CB2C0000 		.4byte	0x2ccb
 6471 2cb2 24       		.uleb128 0x24
 6472 2cb3 AE000000 		.4byte	.LASF473
 6473 2cb7 02       		.byte	0x2
 6474 2cb8 7A03     		.2byte	0x37a
 6475 2cba 7A120000 		.4byte	0x127a
 6476 2cbe 24       		.uleb128 0x24
 6477 2cbf 99590000 		.4byte	.LASF1059
 6478 2cc3 02       		.byte	0x2
 6479 2cc4 7B03     		.2byte	0x37b
 6480 2cc6 B41B0000 		.4byte	0x1bb4
 6481 2cca 00       		.byte	0
 6482 2ccb 27       		.uleb128 0x27
 6483 2ccc 8C360000 		.4byte	.LASF1129
 6484 2cd0 01       		.byte	0x1
 6485 2cd1 AA       		.byte	0xaa
ARM GAS  C:\Users\gjl\AppData\Local\Temp\ccRZOvUj.s 			page 150


 6486 2cd2 00000000 		.4byte	.LFB288
 6487 2cd6 40000000 		.4byte	.LFE288-.LFB288
 6488 2cda 01       		.uleb128 0x1
 6489 2cdb 9C       		.byte	0x9c
 6490 2cdc 342D0000 		.4byte	0x2d34
 6491 2ce0 28       		.uleb128 0x28
 6492 2ce1 D8280000 		.4byte	.LASF1062
 6493 2ce5 01       		.byte	0x1
 6494 2ce6 AA       		.byte	0xaa
 6495 2ce7 342D0000 		.4byte	0x2d34
 6496 2ceb 00000000 		.4byte	.LLST0
 6497 2cef 28       		.uleb128 0x28
 6498 2cf0 12300000 		.4byte	.LASF1063
 6499 2cf4 01       		.byte	0x1
 6500 2cf5 AB       		.byte	0xab
 6501 2cf6 46150000 		.4byte	0x1546
 6502 2cfa 45000000 		.4byte	.LLST1
 6503 2cfe 29       		.uleb128 0x29
 6504 2cff 10000000 		.4byte	.LBB38
 6505 2d03 1C000000 		.4byte	.LBE38-.LBB38
 6506 2d07 2A2D0000 		.4byte	0x2d2a
 6507 2d0b 2A       		.uleb128 0x2a
 6508 2d0c 62390000 		.4byte	.LASF1065
 6509 2d10 01       		.byte	0x1
 6510 2d11 B2       		.byte	0xb2
 6511 2d12 8C160000 		.4byte	0x168c
 6512 2d16 02       		.uleb128 0x2
 6513 2d17 91       		.byte	0x91
 6514 2d18 70       		.sleb128 -16
 6515 2d19 2B       		.uleb128 0x2b
 6516 2d1a 2C000000 		.4byte	.LVL2
 6517 2d1e F7360000 		.4byte	0x36f7
 6518 2d22 2C       		.uleb128 0x2c
 6519 2d23 01       		.uleb128 0x1
 6520 2d24 50       		.byte	0x50
 6521 2d25 02       		.uleb128 0x2
 6522 2d26 7D       		.byte	0x7d
 6523 2d27 00       		.sleb128 0
 6524 2d28 00       		.byte	0
 6525 2d29 00       		.byte	0
 6526 2d2a 2D       		.uleb128 0x2d
 6527 2d2b 34000000 		.4byte	.LVL5
 6528 2d2f 03370000 		.4byte	0x3703
 6529 2d33 00       		.byte	0
 6530 2d34 18       		.uleb128 0x18
 6531 2d35 04       		.byte	0x4
 6532 2d36 3A2D0000 		.4byte	0x2d3a
 6533 2d3a 0A       		.uleb128 0xa
 6534 2d3b 311D0000 		.4byte	0x1d31
 6535 2d3f 2E       		.uleb128 0x2e
 6536 2d40 D55A0000 		.4byte	.LASF1068
 6537 2d44 01       		.byte	0x1
 6538 2d45 58       		.byte	0x58
 6539 2d46 42110000 		.4byte	0x1142
 6540 2d4a 00000000 		.4byte	.LFB286
 6541 2d4e 5C000000 		.4byte	.LFE286-.LFB286
 6542 2d52 01       		.uleb128 0x1
ARM GAS  C:\Users\gjl\AppData\Local\Temp\ccRZOvUj.s 			page 151


 6543 2d53 9C       		.byte	0x9c
 6544 2d54 9B2D0000 		.4byte	0x2d9b
 6545 2d58 28       		.uleb128 0x28
 6546 2d59 FC330000 		.4byte	.LASF1064
 6547 2d5d 01       		.byte	0x1
 6548 2d5e 58       		.byte	0x58
 6549 2d5f FA2B0000 		.4byte	0x2bfa
 6550 2d63 8A000000 		.4byte	.LLST2
 6551 2d67 2F       		.uleb128 0x2f
 6552 2d68 0E750000 		.4byte	.LASF1066
 6553 2d6c 01       		.byte	0x1
 6554 2d6d 5A       		.byte	0x5a
 6555 2d6e 42110000 		.4byte	0x1142
 6556 2d72 E2000000 		.4byte	.LLST3
 6557 2d76 2F       		.uleb128 0x2f
 6558 2d77 F1040000 		.4byte	.LASF1067
 6559 2d7b 01       		.byte	0x1
 6560 2d7c 5B       		.byte	0x5b
 6561 2d7d AE000000 		.4byte	0xae
 6562 2d81 01010000 		.4byte	.LLST4
 6563 2d85 30       		.uleb128 0x30
 6564 2d86 00000000 		.4byte	.Ldebug_ranges0+0
 6565 2d8a 31       		.uleb128 0x31
 6566 2d8b 69647800 		.ascii	"idx\000"
 6567 2d8f 01       		.byte	0x1
 6568 2d90 64       		.byte	0x64
 6569 2d91 CF000000 		.4byte	0xcf
 6570 2d95 37010000 		.4byte	.LLST5
 6571 2d99 00       		.byte	0
 6572 2d9a 00       		.byte	0
 6573 2d9b 2E       		.uleb128 0x2e
 6574 2d9c 51350000 		.4byte	.LASF1069
 6575 2da0 01       		.byte	0x1
 6576 2da1 8B       		.byte	0x8b
 6577 2da2 46150000 		.4byte	0x1546
 6578 2da6 00000000 		.4byte	.LFB287
 6579 2daa 38000000 		.4byte	.LFE287-.LFB287
 6580 2dae 01       		.uleb128 0x1
 6581 2daf 9C       		.byte	0x9c
 6582 2db0 032E0000 		.4byte	0x2e03
 6583 2db4 28       		.uleb128 0x28
 6584 2db5 4A5F0000 		.4byte	.LASF1070
 6585 2db9 01       		.byte	0x1
 6586 2dba 8B       		.byte	0x8b
 6587 2dbb CF000000 		.4byte	0xcf
 6588 2dbf 55010000 		.4byte	.LLST6
 6589 2dc3 28       		.uleb128 0x28
 6590 2dc4 D8280000 		.4byte	.LASF1062
 6591 2dc8 01       		.byte	0x1
 6592 2dc9 8C       		.byte	0x8c
 6593 2dca A5000000 		.4byte	0xa5
 6594 2dce 81010000 		.4byte	.LLST7
 6595 2dd2 31       		.uleb128 0x31
 6596 2dd3 69647800 		.ascii	"idx\000"
 6597 2dd7 01       		.byte	0x1
 6598 2dd8 8E       		.byte	0x8e
 6599 2dd9 CF000000 		.4byte	0xcf
ARM GAS  C:\Users\gjl\AppData\Local\Temp\ccRZOvUj.s 			page 152


 6600 2ddd AD010000 		.4byte	.LLST8
 6601 2de1 2F       		.uleb128 0x2f
 6602 2de2 12300000 		.4byte	.LASF1063
 6603 2de6 01       		.byte	0x1
 6604 2de7 8F       		.byte	0x8f
 6605 2de8 46150000 		.4byte	0x1546
 6606 2dec CC010000 		.4byte	.LLST9
 6607 2df0 32       		.uleb128 0x32
 6608 2df1 18000000 		.4byte	.LVL24
 6609 2df5 2C       		.uleb128 0x2c
 6610 2df6 01       		.uleb128 0x1
 6611 2df7 50       		.byte	0x50
 6612 2df8 02       		.uleb128 0x2
 6613 2df9 76       		.byte	0x76
 6614 2dfa 00       		.sleb128 0
 6615 2dfb 2C       		.uleb128 0x2c
 6616 2dfc 01       		.uleb128 0x1
 6617 2dfd 51       		.byte	0x51
 6618 2dfe 02       		.uleb128 0x2
 6619 2dff 75       		.byte	0x75
 6620 2e00 00       		.sleb128 0
 6621 2e01 00       		.byte	0
 6622 2e02 00       		.byte	0
 6623 2e03 33       		.uleb128 0x33
 6624 2e04 8A340000 		.4byte	.LASF1071
 6625 2e08 01       		.byte	0x1
 6626 2e09 1A01     		.2byte	0x11a
 6627 2e0b AE000000 		.4byte	0xae
 6628 2e0f 00000000 		.4byte	.LFB290
 6629 2e13 1E000000 		.4byte	.LFE290-.LFB290
 6630 2e17 01       		.uleb128 0x1
 6631 2e18 9C       		.byte	0x9c
 6632 2e19 4C2E0000 		.4byte	0x2e4c
 6633 2e1d 34       		.uleb128 0x34
 6634 2e1e DF270000 		.4byte	.LASF744
 6635 2e22 01       		.byte	0x1
 6636 2e23 1A01     		.2byte	0x11a
 6637 2e25 4C2E0000 		.4byte	0x2e4c
 6638 2e29 F6010000 		.4byte	.LLST10
 6639 2e2d 35       		.uleb128 0x35
 6640 2e2e 16450000 		.4byte	.LASF1072
 6641 2e32 01       		.byte	0x1
 6642 2e33 1C01     		.2byte	0x11c
 6643 2e35 AE000000 		.4byte	0xae
 6644 2e39 49020000 		.4byte	.LLST11
 6645 2e3d 36       		.uleb128 0x36
 6646 2e3e 6900     		.ascii	"i\000"
 6647 2e40 01       		.byte	0x1
 6648 2e41 1D01     		.2byte	0x11d
 6649 2e43 CF000000 		.4byte	0xcf
 6650 2e47 68020000 		.4byte	.LLST12
 6651 2e4b 00       		.byte	0
 6652 2e4c 18       		.uleb128 0x18
 6653 2e4d 04       		.byte	0x4
 6654 2e4e 522E0000 		.4byte	0x2e52
 6655 2e52 0A       		.uleb128 0xa
 6656 2e53 C9170000 		.4byte	0x17c9
ARM GAS  C:\Users\gjl\AppData\Local\Temp\ccRZOvUj.s 			page 153


 6657 2e57 23       		.uleb128 0x23
 6658 2e58 120C0000 		.4byte	.LASF1074
 6659 2e5c 02       		.byte	0x2
 6660 2e5d B303     		.2byte	0x3b3
 6661 2e5f 7A120000 		.4byte	0x127a
 6662 2e63 03       		.byte	0x3
 6663 2e64 8B2E0000 		.4byte	0x2e8b
 6664 2e68 24       		.uleb128 0x24
 6665 2e69 88330000 		.4byte	.LASF462
 6666 2e6d 02       		.byte	0x2
 6667 2e6e B303     		.2byte	0x3b3
 6668 2e70 AE000000 		.4byte	0xae
 6669 2e74 37       		.uleb128 0x37
 6670 2e75 6900     		.ascii	"i\000"
 6671 2e77 02       		.byte	0x2
 6672 2e78 B503     		.2byte	0x3b5
 6673 2e7a CF000000 		.4byte	0xcf
 6674 2e7e 38       		.uleb128 0x38
 6675 2e7f D34E0000 		.4byte	.LASF1075
 6676 2e83 02       		.byte	0x2
 6677 2e84 B603     		.2byte	0x3b6
 6678 2e86 7A120000 		.4byte	0x127a
 6679 2e8a 00       		.byte	0
 6680 2e8b 39       		.uleb128 0x39
 6681 2e8c 4F020000 		.4byte	.LASF1130
 6682 2e90 01       		.byte	0x1
 6683 2e91 6B01     		.2byte	0x16b
 6684 2e93 00000000 		.4byte	.LFB293
 6685 2e97 A4060000 		.4byte	.LFE293-.LFB293
 6686 2e9b 01       		.uleb128 0x1
 6687 2e9c 9C       		.byte	0x9c
 6688 2e9d 4C350000 		.4byte	0x354c
 6689 2ea1 34       		.uleb128 0x34
 6690 2ea2 74150000 		.4byte	.LASF1076
 6691 2ea6 01       		.byte	0x1
 6692 2ea7 6B01     		.2byte	0x16b
 6693 2ea9 1D100000 		.4byte	0x101d
 6694 2ead 86020000 		.4byte	.LLST13
 6695 2eb1 34       		.uleb128 0x34
 6696 2eb2 DE350000 		.4byte	.LASF1077
 6697 2eb6 01       		.byte	0x1
 6698 2eb7 6C01     		.2byte	0x16c
 6699 2eb9 A5000000 		.4byte	0xa5
 6700 2ebd 82040000 		.4byte	.LLST14
 6701 2ec1 29       		.uleb128 0x29
 6702 2ec2 38010000 		.4byte	.LBB87
 6703 2ec6 48000000 		.4byte	.LBE87-.LBB87
 6704 2eca DF2E0000 		.4byte	0x2edf
 6705 2ece 35       		.uleb128 0x35
 6706 2ecf 1F600000 		.4byte	.LASF1078
 6707 2ed3 01       		.byte	0x1
 6708 2ed4 8701     		.2byte	0x187
 6709 2ed6 CF000000 		.4byte	0xcf
 6710 2eda 7C060000 		.4byte	.LLST15
 6711 2ede 00       		.byte	0
 6712 2edf 29       		.uleb128 0x29
 6713 2ee0 AA010000 		.4byte	.LBB88
ARM GAS  C:\Users\gjl\AppData\Local\Temp\ccRZOvUj.s 			page 154


 6714 2ee4 10000000 		.4byte	.LBE88-.LBB88
 6715 2ee8 0C2F0000 		.4byte	0x2f0c
 6716 2eec 3A       		.uleb128 0x3a
 6717 2eed F61F0000 		.4byte	.LASF1079
 6718 2ef1 01       		.byte	0x1
 6719 2ef2 9F01     		.2byte	0x19f
 6720 2ef4 950C0000 		.4byte	0xc95
 6721 2ef8 02       		.uleb128 0x2
 6722 2ef9 91       		.byte	0x91
 6723 2efa 54       		.sleb128 -44
 6724 2efb 2B       		.uleb128 0x2b
 6725 2efc BA010000 		.4byte	.LVL48
 6726 2f00 0F370000 		.4byte	0x370f
 6727 2f04 2C       		.uleb128 0x2c
 6728 2f05 01       		.uleb128 0x1
 6729 2f06 50       		.byte	0x50
 6730 2f07 02       		.uleb128 0x2
 6731 2f08 91       		.byte	0x91
 6732 2f09 54       		.sleb128 -44
 6733 2f0a 00       		.byte	0
 6734 2f0b 00       		.byte	0
 6735 2f0c 3B       		.uleb128 0x3b
 6736 2f0d 7E2C0000 		.4byte	0x2c7e
 6737 2f11 C8010000 		.4byte	.LBB89
 6738 2f15 04000000 		.4byte	.LBE89-.LBB89
 6739 2f19 01       		.byte	0x1
 6740 2f1a AC01     		.2byte	0x1ac
 6741 2f1c 2A2F0000 		.4byte	0x2f2a
 6742 2f20 3C       		.uleb128 0x3c
 6743 2f21 8B2C0000 		.4byte	0x2c8b
 6744 2f25 8F060000 		.4byte	.LLST16
 6745 2f29 00       		.byte	0
 6746 2f2a 29       		.uleb128 0x29
 6747 2f2b E4010000 		.4byte	.LBB91
 6748 2f2f 48000000 		.4byte	.LBE91-.LBB91
 6749 2f33 6B2F0000 		.4byte	0x2f6b
 6750 2f37 3A       		.uleb128 0x3a
 6751 2f38 D9010000 		.4byte	.LASF1080
 6752 2f3c 01       		.byte	0x1
 6753 2f3d C701     		.2byte	0x1c7
 6754 2f3f DA120000 		.4byte	0x12da
 6755 2f43 02       		.uleb128 0x2
 6756 2f44 91       		.byte	0x91
 6757 2f45 54       		.sleb128 -44
 6758 2f46 3D       		.uleb128 0x3d
 6759 2f47 02020000 		.4byte	.LVL57
 6760 2f4b 1B370000 		.4byte	0x371b
 6761 2f4f 5A2F0000 		.4byte	0x2f5a
 6762 2f53 2C       		.uleb128 0x2c
 6763 2f54 01       		.uleb128 0x1
 6764 2f55 50       		.byte	0x50
 6765 2f56 02       		.uleb128 0x2
 6766 2f57 91       		.byte	0x91
 6767 2f58 54       		.sleb128 -44
 6768 2f59 00       		.byte	0
 6769 2f5a 2B       		.uleb128 0x2b
 6770 2f5b 20020000 		.4byte	.LVL58
ARM GAS  C:\Users\gjl\AppData\Local\Temp\ccRZOvUj.s 			page 155


 6771 2f5f 1B370000 		.4byte	0x371b
 6772 2f63 2C       		.uleb128 0x2c
 6773 2f64 01       		.uleb128 0x1
 6774 2f65 50       		.byte	0x50
 6775 2f66 02       		.uleb128 0x2
 6776 2f67 91       		.byte	0x91
 6777 2f68 54       		.sleb128 -44
 6778 2f69 00       		.byte	0
 6779 2f6a 00       		.byte	0
 6780 2f6b 3B       		.uleb128 0x3b
 6781 2f6c 572E0000 		.4byte	0x2e57
 6782 2f70 34020000 		.4byte	.LBB92
 6783 2f74 64000000 		.4byte	.LBE92-.LBB92
 6784 2f78 01       		.byte	0x1
 6785 2f79 E301     		.2byte	0x1e3
 6786 2f7b DB2F0000 		.4byte	0x2fdb
 6787 2f7f 3C       		.uleb128 0x3c
 6788 2f80 682E0000 		.4byte	0x2e68
 6789 2f84 A3060000 		.4byte	.LLST17
 6790 2f88 3E       		.uleb128 0x3e
 6791 2f89 34020000 		.4byte	.LBB93
 6792 2f8d 64000000 		.4byte	.LBE93-.LBB93
 6793 2f91 3F       		.uleb128 0x3f
 6794 2f92 742E0000 		.4byte	0x2e74
 6795 2f96 B6060000 		.4byte	.LLST18
 6796 2f9a 40       		.uleb128 0x40
 6797 2f9b 7E2E0000 		.4byte	0x2e7e
 6798 2f9f 02       		.uleb128 0x2
 6799 2fa0 91       		.byte	0x91
 6800 2fa1 54       		.sleb128 -44
 6801 2fa2 3B       		.uleb128 0x3b
 6802 2fa3 602C0000 		.4byte	0x2c60
 6803 2fa7 4A020000 		.4byte	.LBB94
 6804 2fab 0E000000 		.4byte	.LBE94-.LBB94
 6805 2faf 02       		.byte	0x2
 6806 2fb0 BE03     		.2byte	0x3be
 6807 2fb2 BF2F0000 		.4byte	0x2fbf
 6808 2fb6 41       		.uleb128 0x41
 6809 2fb7 712C0000 		.4byte	0x2c71
 6810 2fbb 02       		.uleb128 0x2
 6811 2fbc 91       		.byte	0x91
 6812 2fbd 48       		.sleb128 -56
 6813 2fbe 00       		.byte	0
 6814 2fbf 2B       		.uleb128 0x2b
 6815 2fc0 8C020000 		.4byte	.LVL70
 6816 2fc4 27370000 		.4byte	0x3727
 6817 2fc8 2C       		.uleb128 0x2c
 6818 2fc9 01       		.uleb128 0x1
 6819 2fca 50       		.byte	0x50
 6820 2fcb 05       		.uleb128 0x5
 6821 2fcc 03       		.byte	0x3
 6822 2fcd 00000000 		.4byte	.LC2
 6823 2fd1 2C       		.uleb128 0x2c
 6824 2fd2 01       		.uleb128 0x1
 6825 2fd3 51       		.byte	0x51
 6826 2fd4 03       		.uleb128 0x3
 6827 2fd5 0A       		.byte	0xa
ARM GAS  C:\Users\gjl\AppData\Local\Temp\ccRZOvUj.s 			page 156


 6828 2fd6 C803     		.2byte	0x3c8
 6829 2fd8 00       		.byte	0
 6830 2fd9 00       		.byte	0
 6831 2fda 00       		.byte	0
 6832 2fdb 29       		.uleb128 0x29
 6833 2fdc A4020000 		.4byte	.LBB96
 6834 2fe0 26000000 		.4byte	.LBE96-.LBB96
 6835 2fe4 15300000 		.4byte	0x3015
 6836 2fe8 35       		.uleb128 0x35
 6837 2fe9 EA710000 		.4byte	.LASF1081
 6838 2fed 01       		.byte	0x1
 6839 2fee EB01     		.2byte	0x1eb
 6840 2ff0 4C350000 		.4byte	0x354c
 6841 2ff4 E0060000 		.4byte	.LLST19
 6842 2ff8 3E       		.uleb128 0x3e
 6843 2ff9 B0020000 		.4byte	.LBB97
 6844 2ffd 0E000000 		.4byte	.LBE97-.LBB97
 6845 3001 3A       		.uleb128 0x3a
 6846 3002 C1370000 		.4byte	.LASF1082
 6847 3006 01       		.byte	0x1
 6848 3007 F201     		.2byte	0x1f2
 6849 3009 D6160000 		.4byte	0x16d6
 6850 300d 05       		.uleb128 0x5
 6851 300e 03       		.byte	0x3
 6852 300f 00000000 		.4byte	gPrepWriteReqMem.14054
 6853 3013 00       		.byte	0
 6854 3014 00       		.byte	0
 6855 3015 29       		.uleb128 0x29
 6856 3016 CA020000 		.4byte	.LBB98
 6857 301a AA000000 		.4byte	.LBE98-.LBB98
 6858 301e 9E300000 		.4byte	0x309e
 6859 3022 3A       		.uleb128 0x3a
 6860 3023 D8720000 		.4byte	.LASF1083
 6861 3027 01       		.byte	0x1
 6862 3028 0C02     		.2byte	0x20c
 6863 302a 7A120000 		.4byte	0x127a
 6864 302e 02       		.uleb128 0x2
 6865 302f 91       		.byte	0x91
 6866 3030 54       		.sleb128 -44
 6867 3031 42       		.uleb128 0x42
 6868 3032 572E0000 		.4byte	0x2e57
 6869 3036 CC020000 		.4byte	.LBB99
 6870 303a 9E000000 		.4byte	.LBE99-.LBB99
 6871 303e 01       		.byte	0x1
 6872 303f 0D02     		.2byte	0x20d
 6873 3041 3C       		.uleb128 0x3c
 6874 3042 682E0000 		.4byte	0x2e68
 6875 3046 F3060000 		.4byte	.LLST20
 6876 304a 3E       		.uleb128 0x3e
 6877 304b CC020000 		.4byte	.LBB100
 6878 304f 9E000000 		.4byte	.LBE100-.LBB100
 6879 3053 3F       		.uleb128 0x3f
 6880 3054 742E0000 		.4byte	0x2e74
 6881 3058 06070000 		.4byte	.LLST21
 6882 305c 40       		.uleb128 0x40
 6883 305d 7E2E0000 		.4byte	0x2e7e
 6884 3061 02       		.uleb128 0x2
ARM GAS  C:\Users\gjl\AppData\Local\Temp\ccRZOvUj.s 			page 157


 6885 3062 91       		.byte	0x91
 6886 3063 54       		.sleb128 -44
 6887 3064 3B       		.uleb128 0x3b
 6888 3065 602C0000 		.4byte	0x2c60
 6889 3069 E2020000 		.4byte	.LBB101
 6890 306d 48000000 		.4byte	.LBE101-.LBB101
 6891 3071 02       		.byte	0x2
 6892 3072 BE03     		.2byte	0x3be
 6893 3074 81300000 		.4byte	0x3081
 6894 3078 41       		.uleb128 0x41
 6895 3079 712C0000 		.4byte	0x2c71
 6896 307d 02       		.uleb128 0x2
 6897 307e 91       		.byte	0x91
 6898 307f 4C       		.sleb128 -52
 6899 3080 00       		.byte	0
 6900 3081 2B       		.uleb128 0x2b
 6901 3082 5E030000 		.4byte	.LVL81
 6902 3086 27370000 		.4byte	0x3727
 6903 308a 2C       		.uleb128 0x2c
 6904 308b 01       		.uleb128 0x1
 6905 308c 50       		.byte	0x50
 6906 308d 05       		.uleb128 0x5
 6907 308e 03       		.byte	0x3
 6908 308f 00000000 		.4byte	.LC2
 6909 3093 2C       		.uleb128 0x2c
 6910 3094 01       		.uleb128 0x1
 6911 3095 51       		.byte	0x51
 6912 3096 03       		.uleb128 0x3
 6913 3097 0A       		.byte	0xa
 6914 3098 C803     		.2byte	0x3c8
 6915 309a 00       		.byte	0
 6916 309b 00       		.byte	0
 6917 309c 00       		.byte	0
 6918 309d 00       		.byte	0
 6919 309e 29       		.uleb128 0x29
 6920 309f 7C030000 		.4byte	.LBB103
 6921 30a3 72000000 		.4byte	.LBE103-.LBB103
 6922 30a7 27310000 		.4byte	0x3127
 6923 30ab 3A       		.uleb128 0x3a
 6924 30ac D8720000 		.4byte	.LASF1083
 6925 30b0 01       		.byte	0x1
 6926 30b1 1502     		.2byte	0x215
 6927 30b3 7A120000 		.4byte	0x127a
 6928 30b7 02       		.uleb128 0x2
 6929 30b8 91       		.byte	0x91
 6930 30b9 54       		.sleb128 -44
 6931 30ba 42       		.uleb128 0x42
 6932 30bb 572E0000 		.4byte	0x2e57
 6933 30bf 7E030000 		.4byte	.LBB104
 6934 30c3 64000000 		.4byte	.LBE104-.LBB104
 6935 30c7 01       		.byte	0x1
 6936 30c8 1602     		.2byte	0x216
 6937 30ca 3C       		.uleb128 0x3c
 6938 30cb 682E0000 		.4byte	0x2e68
 6939 30cf 30070000 		.4byte	.LLST22
 6940 30d3 3E       		.uleb128 0x3e
 6941 30d4 7E030000 		.4byte	.LBB105
ARM GAS  C:\Users\gjl\AppData\Local\Temp\ccRZOvUj.s 			page 158


 6942 30d8 64000000 		.4byte	.LBE105-.LBB105
 6943 30dc 3F       		.uleb128 0x3f
 6944 30dd 742E0000 		.4byte	0x2e74
 6945 30e1 43070000 		.4byte	.LLST23
 6946 30e5 40       		.uleb128 0x40
 6947 30e6 7E2E0000 		.4byte	0x2e7e
 6948 30ea 02       		.uleb128 0x2
 6949 30eb 91       		.byte	0x91
 6950 30ec 54       		.sleb128 -44
 6951 30ed 3B       		.uleb128 0x3b
 6952 30ee 602C0000 		.4byte	0x2c60
 6953 30f2 94030000 		.4byte	.LBB106
 6954 30f6 0E000000 		.4byte	.LBE106-.LBB106
 6955 30fa 02       		.byte	0x2
 6956 30fb BE03     		.2byte	0x3be
 6957 30fd 0A310000 		.4byte	0x310a
 6958 3101 41       		.uleb128 0x41
 6959 3102 712C0000 		.4byte	0x2c71
 6960 3106 02       		.uleb128 0x2
 6961 3107 91       		.byte	0x91
 6962 3108 50       		.sleb128 -48
 6963 3109 00       		.byte	0
 6964 310a 2B       		.uleb128 0x2b
 6965 310b D6030000 		.4byte	.LVL90
 6966 310f 27370000 		.4byte	0x3727
 6967 3113 2C       		.uleb128 0x2c
 6968 3114 01       		.uleb128 0x1
 6969 3115 50       		.byte	0x50
 6970 3116 05       		.uleb128 0x5
 6971 3117 03       		.byte	0x3
 6972 3118 00000000 		.4byte	.LC2
 6973 311c 2C       		.uleb128 0x2c
 6974 311d 01       		.uleb128 0x1
 6975 311e 51       		.byte	0x51
 6976 311f 03       		.uleb128 0x3
 6977 3120 0A       		.byte	0xa
 6978 3121 C803     		.2byte	0x3c8
 6979 3123 00       		.byte	0
 6980 3124 00       		.byte	0
 6981 3125 00       		.byte	0
 6982 3126 00       		.byte	0
 6983 3127 29       		.uleb128 0x29
 6984 3128 F4030000 		.4byte	.LBB108
 6985 312c 0C000000 		.4byte	.LBE108-.LBB108
 6986 3130 6B310000 		.4byte	0x316b
 6987 3134 38       		.uleb128 0x38
 6988 3135 94080000 		.4byte	.LASF1084
 6989 3139 01       		.byte	0x1
 6990 313a 2602     		.2byte	0x226
 6991 313c 84180000 		.4byte	0x1884
 6992 3140 35       		.uleb128 0x35
 6993 3141 48260000 		.4byte	.LASF1085
 6994 3145 01       		.byte	0x1
 6995 3146 2702     		.2byte	0x227
 6996 3148 52350000 		.4byte	0x3552
 6997 314c 6D070000 		.4byte	.LLST24
 6998 3150 42       		.uleb128 0x42
ARM GAS  C:\Users\gjl\AppData\Local\Temp\ccRZOvUj.s 			page 159


 6999 3151 7E2C0000 		.4byte	0x2c7e
 7000 3155 FA030000 		.4byte	.LBB109
 7001 3159 06000000 		.4byte	.LBE109-.LBB109
 7002 315d 01       		.byte	0x1
 7003 315e 3502     		.2byte	0x235
 7004 3160 3C       		.uleb128 0x3c
 7005 3161 8B2C0000 		.4byte	0x2c8b
 7006 3165 8B070000 		.4byte	.LLST25
 7007 3169 00       		.byte	0
 7008 316a 00       		.byte	0
 7009 316b 29       		.uleb128 0x29
 7010 316c 00040000 		.4byte	.LBB111
 7011 3170 74000000 		.4byte	.LBE111-.LBB111
 7012 3174 04320000 		.4byte	0x3204
 7013 3178 35       		.uleb128 0x35
 7014 3179 EC5D0000 		.4byte	.LASF1086
 7015 317d 01       		.byte	0x1
 7016 317e 5002     		.2byte	0x250
 7017 3180 52350000 		.4byte	0x3552
 7018 3184 9F070000 		.4byte	.LLST26
 7019 3188 3A       		.uleb128 0x3a
 7020 3189 566F0000 		.4byte	.LASF1087
 7021 318d 01       		.byte	0x1
 7022 318e 5602     		.2byte	0x256
 7023 3190 7A120000 		.4byte	0x127a
 7024 3194 02       		.uleb128 0x2
 7025 3195 91       		.byte	0x91
 7026 3196 50       		.sleb128 -48
 7027 3197 42       		.uleb128 0x42
 7028 3198 572E0000 		.4byte	0x2e57
 7029 319c 02040000 		.4byte	.LBB112
 7030 31a0 64000000 		.4byte	.LBE112-.LBB112
 7031 31a4 01       		.byte	0x1
 7032 31a5 5602     		.2byte	0x256
 7033 31a7 3C       		.uleb128 0x3c
 7034 31a8 682E0000 		.4byte	0x2e68
 7035 31ac BD070000 		.4byte	.LLST27
 7036 31b0 3E       		.uleb128 0x3e
 7037 31b1 02040000 		.4byte	.LBB113
 7038 31b5 64000000 		.4byte	.LBE113-.LBB113
 7039 31b9 3F       		.uleb128 0x3f
 7040 31ba 742E0000 		.4byte	0x2e74
 7041 31be D0070000 		.4byte	.LLST28
 7042 31c2 40       		.uleb128 0x40
 7043 31c3 7E2E0000 		.4byte	0x2e7e
 7044 31c7 02       		.uleb128 0x2
 7045 31c8 91       		.byte	0x91
 7046 31c9 50       		.sleb128 -48
 7047 31ca 3B       		.uleb128 0x3b
 7048 31cb 602C0000 		.4byte	0x2c60
 7049 31cf 18040000 		.4byte	.LBB114
 7050 31d3 0E000000 		.4byte	.LBE114-.LBB114
 7051 31d7 02       		.byte	0x2
 7052 31d8 BE03     		.2byte	0x3be
 7053 31da E7310000 		.4byte	0x31e7
 7054 31de 41       		.uleb128 0x41
 7055 31df 712C0000 		.4byte	0x2c71
ARM GAS  C:\Users\gjl\AppData\Local\Temp\ccRZOvUj.s 			page 160


 7056 31e3 02       		.uleb128 0x2
 7057 31e4 91       		.byte	0x91
 7058 31e5 54       		.sleb128 -44
 7059 31e6 00       		.byte	0
 7060 31e7 2B       		.uleb128 0x2b
 7061 31e8 5A040000 		.4byte	.LVL104
 7062 31ec 27370000 		.4byte	0x3727
 7063 31f0 2C       		.uleb128 0x2c
 7064 31f1 01       		.uleb128 0x1
 7065 31f2 50       		.byte	0x50
 7066 31f3 05       		.uleb128 0x5
 7067 31f4 03       		.byte	0x3
 7068 31f5 00000000 		.4byte	.LC2
 7069 31f9 2C       		.uleb128 0x2c
 7070 31fa 01       		.uleb128 0x1
 7071 31fb 51       		.byte	0x51
 7072 31fc 03       		.uleb128 0x3
 7073 31fd 0A       		.byte	0xa
 7074 31fe C803     		.2byte	0x3c8
 7075 3200 00       		.byte	0
 7076 3201 00       		.byte	0
 7077 3202 00       		.byte	0
 7078 3203 00       		.byte	0
 7079 3204 43       		.uleb128 0x43
 7080 3205 982C0000 		.4byte	0x2c98
 7081 3209 94040000 		.4byte	.LBB116
 7082 320d 04000000 		.4byte	.LBE116-.LBB116
 7083 3211 01       		.byte	0x1
 7084 3212 6E02     		.2byte	0x26e
 7085 3214 3B       		.uleb128 0x3b
 7086 3215 7E2C0000 		.4byte	0x2c7e
 7087 3219 9C040000 		.4byte	.LBB118
 7088 321d 08000000 		.4byte	.LBE118-.LBB118
 7089 3221 01       		.byte	0x1
 7090 3222 7002     		.2byte	0x270
 7091 3224 32320000 		.4byte	0x3232
 7092 3228 3C       		.uleb128 0x3c
 7093 3229 8B2C0000 		.4byte	0x2c8b
 7094 322d FA070000 		.4byte	.LLST29
 7095 3231 00       		.byte	0
 7096 3232 3B       		.uleb128 0x3b
 7097 3233 7E2C0000 		.4byte	0x2c7e
 7098 3237 A8040000 		.4byte	.LBB120
 7099 323b 08000000 		.4byte	.LBE120-.LBB120
 7100 323f 01       		.byte	0x1
 7101 3240 7502     		.2byte	0x275
 7102 3242 50320000 		.4byte	0x3250
 7103 3246 3C       		.uleb128 0x3c
 7104 3247 8B2C0000 		.4byte	0x2c8b
 7105 324b 0E080000 		.4byte	.LLST30
 7106 324f 00       		.byte	0
 7107 3250 3B       		.uleb128 0x3b
 7108 3251 7E2C0000 		.4byte	0x2c7e
 7109 3255 B6040000 		.4byte	.LBB122
 7110 3259 06000000 		.4byte	.LBE122-.LBB122
 7111 325d 01       		.byte	0x1
 7112 325e 7B02     		.2byte	0x27b
ARM GAS  C:\Users\gjl\AppData\Local\Temp\ccRZOvUj.s 			page 161


 7113 3260 6E320000 		.4byte	0x326e
 7114 3264 3C       		.uleb128 0x3c
 7115 3265 8B2C0000 		.4byte	0x2c8b
 7116 3269 22080000 		.4byte	.LLST31
 7117 326d 00       		.byte	0
 7118 326e 3B       		.uleb128 0x3b
 7119 326f 7E2C0000 		.4byte	0x2c7e
 7120 3273 F4040000 		.4byte	.LBB124
 7121 3277 08000000 		.4byte	.LBE124-.LBB124
 7122 327b 01       		.byte	0x1
 7123 327c 8502     		.2byte	0x285
 7124 327e 8C320000 		.4byte	0x328c
 7125 3282 3C       		.uleb128 0x3c
 7126 3283 8B2C0000 		.4byte	0x2c8b
 7127 3287 36080000 		.4byte	.LLST32
 7128 328b 00       		.byte	0
 7129 328c 3B       		.uleb128 0x3b
 7130 328d A52C0000 		.4byte	0x2ca5
 7131 3291 08050000 		.4byte	.LBB126
 7132 3295 1A000000 		.4byte	.LBE126-.LBB126
 7133 3299 01       		.byte	0x1
 7134 329a D802     		.2byte	0x2d8
 7135 329c CC320000 		.4byte	0x32cc
 7136 32a0 3C       		.uleb128 0x3c
 7137 32a1 BE2C0000 		.4byte	0x2cbe
 7138 32a5 4A080000 		.4byte	.LLST33
 7139 32a9 41       		.uleb128 0x41
 7140 32aa B22C0000 		.4byte	0x2cb2
 7141 32ae 02       		.uleb128 0x2
 7142 32af 91       		.byte	0x91
 7143 32b0 40       		.sleb128 -64
 7144 32b1 2B       		.uleb128 0x2b
 7145 32b2 22050000 		.4byte	.LVL123
 7146 32b6 27370000 		.4byte	0x3727
 7147 32ba 2C       		.uleb128 0x2c
 7148 32bb 01       		.uleb128 0x1
 7149 32bc 50       		.byte	0x50
 7150 32bd 05       		.uleb128 0x5
 7151 32be 03       		.byte	0x3
 7152 32bf 00000000 		.4byte	.LC2
 7153 32c3 2C       		.uleb128 0x2c
 7154 32c4 01       		.uleb128 0x1
 7155 32c5 51       		.byte	0x51
 7156 32c6 03       		.uleb128 0x3
 7157 32c7 0A       		.byte	0xa
 7158 32c8 8403     		.2byte	0x384
 7159 32ca 00       		.byte	0
 7160 32cb 00       		.byte	0
 7161 32cc 29       		.uleb128 0x29
 7162 32cd 5C050000 		.4byte	.LBB128
 7163 32d1 36000000 		.4byte	.LBE128-.LBB128
 7164 32d5 11330000 		.4byte	0x3311
 7165 32d9 35       		.uleb128 0x35
 7166 32da F4110000 		.4byte	.LASF1088
 7167 32de 01       		.byte	0x1
 7168 32df E902     		.2byte	0x2e9
 7169 32e1 AE000000 		.4byte	0xae
ARM GAS  C:\Users\gjl\AppData\Local\Temp\ccRZOvUj.s 			page 162


 7170 32e5 5E080000 		.4byte	.LLST34
 7171 32e9 3D       		.uleb128 0x3d
 7172 32ea 6A050000 		.4byte	.LVL124
 7173 32ee 33370000 		.4byte	0x3733
 7174 32f2 FC320000 		.4byte	0x32fc
 7175 32f6 2C       		.uleb128 0x2c
 7176 32f7 01       		.uleb128 0x1
 7177 32f8 51       		.byte	0x51
 7178 32f9 01       		.uleb128 0x1
 7179 32fa 36       		.byte	0x36
 7180 32fb 00       		.byte	0
 7181 32fc 32       		.uleb128 0x32
 7182 32fd 82050000 		.4byte	.LVL126
 7183 3301 2C       		.uleb128 0x2c
 7184 3302 01       		.uleb128 0x1
 7185 3303 50       		.byte	0x50
 7186 3304 05       		.uleb128 0x5
 7187 3305 0C       		.byte	0xc
 7188 3306 04000100 		.4byte	0x10004
 7189 330a 2C       		.uleb128 0x2c
 7190 330b 01       		.uleb128 0x1
 7191 330c 51       		.byte	0x51
 7192 330d 01       		.uleb128 0x1
 7193 330e 30       		.byte	0x30
 7194 330f 00       		.byte	0
 7195 3310 00       		.byte	0
 7196 3311 3B       		.uleb128 0x3b
 7197 3312 A52C0000 		.4byte	0x2ca5
 7198 3316 A2050000 		.4byte	.LBB129
 7199 331a 1A000000 		.4byte	.LBE129-.LBB129
 7200 331e 01       		.byte	0x1
 7201 331f 0603     		.2byte	0x306
 7202 3321 51330000 		.4byte	0x3351
 7203 3325 3C       		.uleb128 0x3c
 7204 3326 BE2C0000 		.4byte	0x2cbe
 7205 332a 71080000 		.4byte	.LLST35
 7206 332e 41       		.uleb128 0x41
 7207 332f B22C0000 		.4byte	0x2cb2
 7208 3333 02       		.uleb128 0x2
 7209 3334 91       		.byte	0x91
 7210 3335 44       		.sleb128 -60
 7211 3336 2B       		.uleb128 0x2b
 7212 3337 BC050000 		.4byte	.LVL134
 7213 333b 27370000 		.4byte	0x3727
 7214 333f 2C       		.uleb128 0x2c
 7215 3340 01       		.uleb128 0x1
 7216 3341 50       		.byte	0x50
 7217 3342 05       		.uleb128 0x5
 7218 3343 03       		.byte	0x3
 7219 3344 00000000 		.4byte	.LC2
 7220 3348 2C       		.uleb128 0x2c
 7221 3349 01       		.uleb128 0x1
 7222 334a 51       		.byte	0x51
 7223 334b 03       		.uleb128 0x3
 7224 334c 0A       		.byte	0xa
 7225 334d 8403     		.2byte	0x384
 7226 334f 00       		.byte	0
ARM GAS  C:\Users\gjl\AppData\Local\Temp\ccRZOvUj.s 			page 163


 7227 3350 00       		.byte	0
 7228 3351 29       		.uleb128 0x29
 7229 3352 CE050000 		.4byte	.LBB131
 7230 3356 12000000 		.4byte	.LBE131-.LBB131
 7231 335a 7E330000 		.4byte	0x337e
 7232 335e 3A       		.uleb128 0x3a
 7233 335f 125B0000 		.4byte	.LASF1089
 7234 3363 01       		.byte	0x1
 7235 3364 1503     		.2byte	0x315
 7236 3366 EF150000 		.4byte	0x15ef
 7237 336a 02       		.uleb128 0x2
 7238 336b 91       		.byte	0x91
 7239 336c 54       		.sleb128 -44
 7240 336d 2B       		.uleb128 0x2b
 7241 336e E0050000 		.4byte	.LVL138
 7242 3372 3E370000 		.4byte	0x373e
 7243 3376 2C       		.uleb128 0x2c
 7244 3377 01       		.uleb128 0x1
 7245 3378 50       		.byte	0x50
 7246 3379 02       		.uleb128 0x2
 7247 337a 91       		.byte	0x91
 7248 337b 54       		.sleb128 -44
 7249 337c 00       		.byte	0
 7250 337d 00       		.byte	0
 7251 337e 29       		.uleb128 0x29
 7252 337f E2050000 		.4byte	.LBB132
 7253 3383 1A000000 		.4byte	.LBE132-.LBB132
 7254 3387 DA330000 		.4byte	0x33da
 7255 338b 35       		.uleb128 0x35
 7256 338c 12300000 		.4byte	.LASF1063
 7257 3390 01       		.byte	0x1
 7258 3391 2703     		.2byte	0x327
 7259 3393 46150000 		.4byte	0x1546
 7260 3397 85080000 		.4byte	.LLST36
 7261 339b 3D       		.uleb128 0x3d
 7262 339c E8050000 		.4byte	.LVL141
 7263 33a0 4A370000 		.4byte	0x374a
 7264 33a4 AF330000 		.4byte	0x33af
 7265 33a8 2C       		.uleb128 0x2c
 7266 33a9 01       		.uleb128 0x1
 7267 33aa 50       		.byte	0x50
 7268 33ab 02       		.uleb128 0x2
 7269 33ac 75       		.byte	0x75
 7270 33ad 00       		.sleb128 0
 7271 33ae 00       		.byte	0
 7272 33af 3D       		.uleb128 0x3d
 7273 33b0 F4050000 		.4byte	.LVL143
 7274 33b4 9B2D0000 		.4byte	0x2d9b
 7275 33b8 C9330000 		.4byte	0x33c9
 7276 33bc 2C       		.uleb128 0x2c
 7277 33bd 01       		.uleb128 0x1
 7278 33be 50       		.byte	0x50
 7279 33bf 02       		.uleb128 0x2
 7280 33c0 74       		.byte	0x74
 7281 33c1 00       		.sleb128 0
 7282 33c2 2C       		.uleb128 0x2c
 7283 33c3 01       		.uleb128 0x1
ARM GAS  C:\Users\gjl\AppData\Local\Temp\ccRZOvUj.s 			page 164


 7284 33c4 51       		.byte	0x51
 7285 33c5 02       		.uleb128 0x2
 7286 33c6 75       		.byte	0x75
 7287 33c7 00       		.sleb128 0
 7288 33c8 00       		.byte	0
 7289 33c9 2B       		.uleb128 0x2b
 7290 33ca FC050000 		.4byte	.LVL145
 7291 33ce CB2C0000 		.4byte	0x2ccb
 7292 33d2 2C       		.uleb128 0x2c
 7293 33d3 01       		.uleb128 0x1
 7294 33d4 50       		.byte	0x50
 7295 33d5 02       		.uleb128 0x2
 7296 33d6 75       		.byte	0x75
 7297 33d7 00       		.sleb128 0
 7298 33d8 00       		.byte	0
 7299 33d9 00       		.byte	0
 7300 33da 3D       		.uleb128 0x3d
 7301 33db 12010000 		.4byte	.LVL38
 7302 33df 032E0000 		.4byte	0x2e03
 7303 33e3 EE330000 		.4byte	0x33ee
 7304 33e7 2C       		.uleb128 0x2c
 7305 33e8 01       		.uleb128 0x1
 7306 33e9 50       		.byte	0x50
 7307 33ea 02       		.uleb128 0x2
 7308 33eb 76       		.byte	0x76
 7309 33ec 00       		.sleb128 0
 7310 33ed 00       		.byte	0
 7311 33ee 3D       		.uleb128 0x3d
 7312 33ef 1A010000 		.4byte	.LVL39
 7313 33f3 55370000 		.4byte	0x3755
 7314 33f7 02340000 		.4byte	0x3402
 7315 33fb 2C       		.uleb128 0x2c
 7316 33fc 01       		.uleb128 0x1
 7317 33fd 50       		.byte	0x50
 7318 33fe 02       		.uleb128 0x2
 7319 33ff 76       		.byte	0x76
 7320 3400 00       		.sleb128 0
 7321 3401 00       		.byte	0
 7322 3402 3D       		.uleb128 0x3d
 7323 3403 24010000 		.4byte	.LVL40
 7324 3407 61370000 		.4byte	0x3761
 7325 340b 15340000 		.4byte	0x3415
 7326 340f 2C       		.uleb128 0x2c
 7327 3410 01       		.uleb128 0x1
 7328 3411 51       		.byte	0x51
 7329 3412 01       		.uleb128 0x1
 7330 3413 30       		.byte	0x30
 7331 3414 00       		.byte	0
 7332 3415 3D       		.uleb128 0x3d
 7333 3416 2C010000 		.4byte	.LVL41
 7334 341a 61370000 		.4byte	0x3761
 7335 341e 28340000 		.4byte	0x3428
 7336 3422 2C       		.uleb128 0x2c
 7337 3423 01       		.uleb128 0x1
 7338 3424 51       		.byte	0x51
 7339 3425 01       		.uleb128 0x1
 7340 3426 31       		.byte	0x31
ARM GAS  C:\Users\gjl\AppData\Local\Temp\ccRZOvUj.s 			page 165


 7341 3427 00       		.byte	0
 7342 3428 2D       		.uleb128 0x2d
 7343 3429 8A010000 		.4byte	.LVL44
 7344 342d 55370000 		.4byte	0x3755
 7345 3431 3D       		.uleb128 0x3d
 7346 3432 94010000 		.4byte	.LVL45
 7347 3436 61370000 		.4byte	0x3761
 7348 343a 44340000 		.4byte	0x3444
 7349 343e 2C       		.uleb128 0x2c
 7350 343f 01       		.uleb128 0x1
 7351 3440 51       		.byte	0x51
 7352 3441 01       		.uleb128 0x1
 7353 3442 30       		.byte	0x30
 7354 3443 00       		.byte	0
 7355 3444 3D       		.uleb128 0x3d
 7356 3445 9E010000 		.4byte	.LVL46
 7357 3449 61370000 		.4byte	0x3761
 7358 344d 57340000 		.4byte	0x3457
 7359 3451 2C       		.uleb128 0x2c
 7360 3452 01       		.uleb128 0x1
 7361 3453 51       		.byte	0x51
 7362 3454 01       		.uleb128 0x1
 7363 3455 31       		.byte	0x31
 7364 3456 00       		.byte	0
 7365 3457 2D       		.uleb128 0x2d
 7366 3458 AA010000 		.4byte	.LVL47
 7367 345c 6D370000 		.4byte	0x376d
 7368 3460 3D       		.uleb128 0x3d
 7369 3461 D2010000 		.4byte	.LVL53
 7370 3465 79370000 		.4byte	0x3779
 7371 3469 73340000 		.4byte	0x3473
 7372 346d 2C       		.uleb128 0x2c
 7373 346e 01       		.uleb128 0x1
 7374 346f 50       		.byte	0x50
 7375 3470 01       		.uleb128 0x1
 7376 3471 3A       		.byte	0x3a
 7377 3472 00       		.byte	0
 7378 3473 2D       		.uleb128 0x2d
 7379 3474 D6010000 		.4byte	.LVL54
 7380 3478 85370000 		.4byte	0x3785
 7381 347c 2D       		.uleb128 0x2d
 7382 347d 30020000 		.4byte	.LVL60
 7383 3481 9B2D0000 		.4byte	0x2d9b
 7384 3485 2D       		.uleb128 0x2d
 7385 3486 F2030000 		.4byte	.LVL92
 7386 348a 9B2D0000 		.4byte	0x2d9b
 7387 348e 2D       		.uleb128 0x2d
 7388 348f 88040000 		.4byte	.LVL106
 7389 3493 9B2D0000 		.4byte	0x2d9b
 7390 3497 3D       		.uleb128 0x3d
 7391 3498 EE040000 		.4byte	.LVL113
 7392 349c 91370000 		.4byte	0x3791
 7393 34a0 AA340000 		.4byte	0x34aa
 7394 34a4 2C       		.uleb128 0x2c
 7395 34a5 01       		.uleb128 0x1
 7396 34a6 50       		.byte	0x50
 7397 34a7 01       		.uleb128 0x1
ARM GAS  C:\Users\gjl\AppData\Local\Temp\ccRZOvUj.s 			page 166


 7398 34a8 31       		.byte	0x31
 7399 34a9 00       		.byte	0
 7400 34aa 2D       		.uleb128 0x2d
 7401 34ab 00050000 		.4byte	.LVL116
 7402 34af 9B2D0000 		.4byte	0x2d9b
 7403 34b3 3D       		.uleb128 0x3d
 7404 34b4 9A050000 		.4byte	.LVL127
 7405 34b8 9B2D0000 		.4byte	0x2d9b
 7406 34bc CD340000 		.4byte	0x34cd
 7407 34c0 2C       		.uleb128 0x2c
 7408 34c1 01       		.uleb128 0x1
 7409 34c2 50       		.byte	0x50
 7410 34c3 02       		.uleb128 0x2
 7411 34c4 74       		.byte	0x74
 7412 34c5 00       		.sleb128 0
 7413 34c6 2C       		.uleb128 0x2c
 7414 34c7 01       		.uleb128 0x1
 7415 34c8 51       		.byte	0x51
 7416 34c9 02       		.uleb128 0x2
 7417 34ca 75       		.byte	0x75
 7418 34cb 00       		.sleb128 0
 7419 34cc 00       		.byte	0
 7420 34cd 3D       		.uleb128 0x3d
 7421 34ce CC050000 		.4byte	.LVL135
 7422 34d2 9B2D0000 		.4byte	0x2d9b
 7423 34d6 E7340000 		.4byte	0x34e7
 7424 34da 2C       		.uleb128 0x2c
 7425 34db 01       		.uleb128 0x1
 7426 34dc 50       		.byte	0x50
 7427 34dd 02       		.uleb128 0x2
 7428 34de 74       		.byte	0x74
 7429 34df 00       		.sleb128 0
 7430 34e0 2C       		.uleb128 0x2c
 7431 34e1 01       		.uleb128 0x1
 7432 34e2 51       		.byte	0x51
 7433 34e3 02       		.uleb128 0x2
 7434 34e4 75       		.byte	0x75
 7435 34e5 00       		.sleb128 0
 7436 34e6 00       		.byte	0
 7437 34e7 2D       		.uleb128 0x2d
 7438 34e8 02060000 		.4byte	.LVL147
 7439 34ec 9B2D0000 		.4byte	0x2d9b
 7440 34f0 2D       		.uleb128 0x2d
 7441 34f1 4C060000 		.4byte	.LVL149
 7442 34f5 9B2D0000 		.4byte	0x2d9b
 7443 34f9 2D       		.uleb128 0x2d
 7444 34fa 52060000 		.4byte	.LVL151
 7445 34fe 9B2D0000 		.4byte	0x2d9b
 7446 3502 2D       		.uleb128 0x2d
 7447 3503 58060000 		.4byte	.LVL153
 7448 3507 9B2D0000 		.4byte	0x2d9b
 7449 350b 3D       		.uleb128 0x3d
 7450 350c 60060000 		.4byte	.LVL156
 7451 3510 9D370000 		.4byte	0x379d
 7452 3514 1F350000 		.4byte	0x351f
 7453 3518 2C       		.uleb128 0x2c
 7454 3519 01       		.uleb128 0x1
ARM GAS  C:\Users\gjl\AppData\Local\Temp\ccRZOvUj.s 			page 167


 7455 351a 50       		.byte	0x50
 7456 351b 02       		.uleb128 0x2
 7457 351c 75       		.byte	0x75
 7458 351d 00       		.sleb128 0
 7459 351e 00       		.byte	0
 7460 351f 3D       		.uleb128 0x3d
 7461 3520 68060000 		.4byte	.LVL157
 7462 3524 9B2D0000 		.4byte	0x2d9b
 7463 3528 39350000 		.4byte	0x3539
 7464 352c 2C       		.uleb128 0x2c
 7465 352d 01       		.uleb128 0x1
 7466 352e 50       		.byte	0x50
 7467 352f 02       		.uleb128 0x2
 7468 3530 74       		.byte	0x74
 7469 3531 00       		.sleb128 0
 7470 3532 2C       		.uleb128 0x2c
 7471 3533 01       		.uleb128 0x1
 7472 3534 51       		.byte	0x51
 7473 3535 02       		.uleb128 0x2
 7474 3536 75       		.byte	0x75
 7475 3537 00       		.sleb128 0
 7476 3538 00       		.byte	0
 7477 3539 32       		.uleb128 0x32
 7478 353a 92060000 		.4byte	.LVL160
 7479 353e 2C       		.uleb128 0x2c
 7480 353f 01       		.uleb128 0x1
 7481 3540 50       		.byte	0x50
 7482 3541 02       		.uleb128 0x2
 7483 3542 74       		.byte	0x74
 7484 3543 00       		.sleb128 0
 7485 3544 2C       		.uleb128 0x2c
 7486 3545 01       		.uleb128 0x1
 7487 3546 51       		.byte	0x51
 7488 3547 02       		.uleb128 0x2
 7489 3548 75       		.byte	0x75
 7490 3549 00       		.sleb128 0
 7491 354a 00       		.byte	0
 7492 354b 00       		.byte	0
 7493 354c 18       		.uleb128 0x18
 7494 354d 04       		.byte	0x4
 7495 354e 24130000 		.4byte	0x1324
 7496 3552 18       		.uleb128 0x18
 7497 3553 04       		.byte	0x4
 7498 3554 29190000 		.4byte	0x1929
 7499 3558 44       		.uleb128 0x44
 7500 3559 AF4E0000 		.4byte	.LASF1090
 7501 355d 15       		.byte	0x15
 7502 355e EA07     		.2byte	0x7ea
 7503 3560 64350000 		.4byte	0x3564
 7504 3564 09       		.uleb128 0x9
 7505 3565 C4000000 		.4byte	0xc4
 7506 3569 45       		.uleb128 0x45
 7507 356a 74270000 		.4byte	.LASF1091
 7508 356e 01       		.byte	0x1
 7509 356f 31       		.byte	0x31
 7510 3570 AB040000 		.4byte	0x4ab
 7511 3574 05       		.uleb128 0x5
ARM GAS  C:\Users\gjl\AppData\Local\Temp\ccRZOvUj.s 			page 168


 7512 3575 03       		.byte	0x3
 7513 3576 00000000 		.4byte	cy_ble_eventHandlerFlag
 7514 357a 44       		.uleb128 0x44
 7515 357b AC260000 		.4byte	.LASF1092
 7516 357f 02       		.byte	0x2
 7517 3580 1902     		.2byte	0x219
 7518 3582 FC200000 		.4byte	0x20fc
 7519 3586 44       		.uleb128 0x44
 7520 3587 DD580000 		.4byte	.LASF1093
 7521 358b 02       		.byte	0x2
 7522 358c 1B02     		.2byte	0x21b
 7523 358e 3C1B0000 		.4byte	0x1b3c
 7524 3592 44       		.uleb128 0x44
 7525 3593 40470000 		.4byte	.LASF1094
 7526 3597 02       		.byte	0x2
 7527 3598 2202     		.2byte	0x222
 7528 359a 6C1B0000 		.4byte	0x1b6c
 7529 359e 44       		.uleb128 0x44
 7530 359f 02300000 		.4byte	.LASF1095
 7531 35a3 02       		.byte	0x2
 7532 35a4 2302     		.2byte	0x223
 7533 35a6 AE000000 		.4byte	0xae
 7534 35aa 0B       		.uleb128 0xb
 7535 35ab 7A120000 		.4byte	0x127a
 7536 35af BA350000 		.4byte	0x35ba
 7537 35b3 0C       		.uleb128 0xc
 7538 35b4 9E000000 		.4byte	0x9e
 7539 35b8 00       		.byte	0
 7540 35b9 00       		.byte	0
 7541 35ba 44       		.uleb128 0x44
 7542 35bb F80A0000 		.4byte	.LASF1096
 7543 35bf 02       		.byte	0x2
 7544 35c0 2C02     		.2byte	0x22c
 7545 35c2 AA350000 		.4byte	0x35aa
 7546 35c6 0B       		.uleb128 0xb
 7547 35c7 B41B0000 		.4byte	0x1bb4
 7548 35cb D6350000 		.4byte	0x35d6
 7549 35cf 0C       		.uleb128 0xc
 7550 35d0 9E000000 		.4byte	0x9e
 7551 35d4 00       		.byte	0
 7552 35d5 00       		.byte	0
 7553 35d6 44       		.uleb128 0x44
 7554 35d7 150A0000 		.4byte	.LASF1097
 7555 35db 02       		.byte	0x2
 7556 35dc 2D02     		.2byte	0x22d
 7557 35de C6350000 		.4byte	0x35c6
 7558 35e2 0B       		.uleb128 0xb
 7559 35e3 AB040000 		.4byte	0x4ab
 7560 35e7 F2350000 		.4byte	0x35f2
 7561 35eb 0C       		.uleb128 0xc
 7562 35ec 9E000000 		.4byte	0x9e
 7563 35f0 00       		.byte	0
 7564 35f1 00       		.byte	0
 7565 35f2 44       		.uleb128 0x44
 7566 35f3 33540000 		.4byte	.LASF1098
 7567 35f7 02       		.byte	0x2
 7568 35f8 2F02     		.2byte	0x22f
ARM GAS  C:\Users\gjl\AppData\Local\Temp\ccRZOvUj.s 			page 169


 7569 35fa FE350000 		.4byte	0x35fe
 7570 35fe 09       		.uleb128 0x9
 7571 35ff E2350000 		.4byte	0x35e2
 7572 3603 0B       		.uleb128 0xb
 7573 3604 13360000 		.4byte	0x3613
 7574 3608 13360000 		.4byte	0x3613
 7575 360c 0C       		.uleb128 0xc
 7576 360d 9E000000 		.4byte	0x9e
 7577 3611 00       		.byte	0
 7578 3612 00       		.byte	0
 7579 3613 09       		.uleb128 0x9
 7580 3614 121F0000 		.4byte	0x1f12
 7581 3618 44       		.uleb128 0x44
 7582 3619 10230000 		.4byte	.LASF1099
 7583 361d 02       		.byte	0x2
 7584 361e 3002     		.2byte	0x230
 7585 3620 24360000 		.4byte	0x3624
 7586 3624 09       		.uleb128 0x9
 7587 3625 03360000 		.4byte	0x3603
 7588 3629 44       		.uleb128 0x44
 7589 362a BF280000 		.4byte	.LASF1100
 7590 362e 02       		.byte	0x2
 7591 362f 5202     		.2byte	0x252
 7592 3631 AE000000 		.4byte	0xae
 7593 3635 0B       		.uleb128 0xb
 7594 3636 AE000000 		.4byte	0xae
 7595 363a 45360000 		.4byte	0x3645
 7596 363e 0C       		.uleb128 0xc
 7597 363f 9E000000 		.4byte	0x9e
 7598 3643 00       		.byte	0
 7599 3644 00       		.byte	0
 7600 3645 44       		.uleb128 0x44
 7601 3646 E6160000 		.4byte	.LASF1101
 7602 364a 02       		.byte	0x2
 7603 364b 5902     		.2byte	0x259
 7604 364d 35360000 		.4byte	0x3635
 7605 3651 0B       		.uleb128 0xb
 7606 3652 AE000000 		.4byte	0xae
 7607 3656 67360000 		.4byte	0x3667
 7608 365a 0C       		.uleb128 0xc
 7609 365b 9E000000 		.4byte	0x9e
 7610 365f 00       		.byte	0
 7611 3660 0C       		.uleb128 0xc
 7612 3661 9E000000 		.4byte	0x9e
 7613 3665 06       		.byte	0x6
 7614 3666 00       		.byte	0
 7615 3667 44       		.uleb128 0x44
 7616 3668 4B710000 		.4byte	.LASF1102
 7617 366c 11       		.byte	0x11
 7618 366d 0401     		.2byte	0x104
 7619 366f 51360000 		.4byte	0x3651
 7620 3673 44       		.uleb128 0x44
 7621 3674 E80F0000 		.4byte	.LASF1103
 7622 3678 13       		.byte	0x13
 7623 3679 6502     		.2byte	0x265
 7624 367b F11E0000 		.4byte	0x1ef1
 7625 367f 0B       		.uleb128 0xb
ARM GAS  C:\Users\gjl\AppData\Local\Temp\ccRZOvUj.s 			page 170


 7626 3680 AE000000 		.4byte	0xae
 7627 3684 90360000 		.4byte	0x3690
 7628 3688 10       		.uleb128 0x10
 7629 3689 9E000000 		.4byte	0x9e
 7630 368d 5329     		.2byte	0x2953
 7631 368f 00       		.byte	0
 7632 3690 44       		.uleb128 0x44
 7633 3691 F9480000 		.4byte	.LASF1104
 7634 3695 13       		.byte	0x13
 7635 3696 6B02     		.2byte	0x26b
 7636 3698 7F360000 		.4byte	0x367f
 7637 369c 44       		.uleb128 0x44
 7638 369d 8C270000 		.4byte	.LASF1105
 7639 36a1 13       		.byte	0x13
 7640 36a2 7002     		.2byte	0x270
 7641 36a4 A8360000 		.4byte	0x36a8
 7642 36a8 18       		.uleb128 0x18
 7643 36a9 04       		.byte	0x4
 7644 36aa 0D210000 		.4byte	0x210d
 7645 36ae 45       		.uleb128 0x45
 7646 36af 3B750000 		.4byte	.LASF1106
 7647 36b3 01       		.byte	0x1
 7648 36b4 42       		.byte	0x42
 7649 36b5 542C0000 		.4byte	0x2c54
 7650 36b9 05       		.uleb128 0x5
 7651 36ba 03       		.byte	0x3
 7652 36bb 00000000 		.4byte	cy_ble_eventHandler
 7653 36bf 45       		.uleb128 0x45
 7654 36c0 78440000 		.4byte	.LASF1107
 7655 36c4 01       		.byte	0x1
 7656 36c5 30       		.byte	0x30
 7657 36c6 D0360000 		.4byte	0x36d0
 7658 36ca 05       		.uleb128 0x5
 7659 36cb 03       		.byte	0x3
 7660 36cc 00000000 		.4byte	cy_ble_busyStatus
 7661 36d0 09       		.uleb128 0x9
 7662 36d1 E2350000 		.4byte	0x35e2
 7663 36d5 45       		.uleb128 0x45
 7664 36d6 F6600000 		.4byte	.LASF1108
 7665 36da 01       		.byte	0x1
 7666 36db 32       		.byte	0x32
 7667 36dc A6040000 		.4byte	0x4a6
 7668 36e0 05       		.uleb128 0x5
 7669 36e1 03       		.byte	0x3
 7670 36e2 00000000 		.4byte	cy_ble_cmdStatus
 7671 36e6 45       		.uleb128 0x45
 7672 36e7 CB710000 		.4byte	.LASF1109
 7673 36eb 01       		.byte	0x1
 7674 36ec 35       		.byte	0x35
 7675 36ed AE000000 		.4byte	0xae
 7676 36f1 05       		.uleb128 0x5
 7677 36f2 03       		.byte	0x3
 7678 36f3 00000000 		.4byte	cy_ble_advertisingIntervalType
 7679 36f7 46       		.uleb128 0x46
 7680 36f8 D0590000 		.4byte	.LASF1110
 7681 36fc D0590000 		.4byte	.LASF1110
 7682 3700 0F       		.byte	0xf
ARM GAS  C:\Users\gjl\AppData\Local\Temp\ccRZOvUj.s 			page 171


 7683 3701 1101     		.2byte	0x111
 7684 3703 46       		.uleb128 0x46
 7685 3704 0E260000 		.4byte	.LASF1111
 7686 3708 0E260000 		.4byte	.LASF1111
 7687 370c 0F       		.byte	0xf
 7688 370d 5F01     		.2byte	0x15f
 7689 370f 46       		.uleb128 0x46
 7690 3710 CB400000 		.4byte	.LASF1112
 7691 3714 CB400000 		.4byte	.LASF1112
 7692 3718 0A       		.byte	0xa
 7693 3719 2305     		.2byte	0x523
 7694 371b 46       		.uleb128 0x46
 7695 371c 37680000 		.4byte	.LASF1113
 7696 3720 37680000 		.4byte	.LASF1113
 7697 3724 0A       		.byte	0xa
 7698 3725 5C04     		.2byte	0x45c
 7699 3727 46       		.uleb128 0x46
 7700 3728 ED0C0000 		.4byte	.LASF1114
 7701 372c ED0C0000 		.4byte	.LASF1114
 7702 3730 07       		.byte	0x7
 7703 3731 2A03     		.2byte	0x32a
 7704 3733 47       		.uleb128 0x47
 7705 3734 FC110000 		.4byte	.LASF1115
 7706 3738 FC110000 		.4byte	.LASF1115
 7707 373c 16       		.byte	0x16
 7708 373d B5       		.byte	0xb5
 7709 373e 46       		.uleb128 0x46
 7710 373f EF500000 		.4byte	.LASF1116
 7711 3743 EF500000 		.4byte	.LASF1116
 7712 3747 0F       		.byte	0xf
 7713 3748 3B01     		.2byte	0x13b
 7714 374a 47       		.uleb128 0x47
 7715 374b AD090000 		.4byte	.LASF1117
 7716 374f AD090000 		.4byte	.LASF1117
 7717 3753 11       		.byte	0x11
 7718 3754 EC       		.byte	0xec
 7719 3755 46       		.uleb128 0x46
 7720 3756 E5020000 		.4byte	.LASF1118
 7721 375a E5020000 		.4byte	.LASF1118
 7722 375e 0C       		.byte	0xc
 7723 375f 8106     		.2byte	0x681
 7724 3761 46       		.uleb128 0x46
 7725 3762 9C5A0000 		.4byte	.LASF1119
 7726 3766 9C5A0000 		.4byte	.LASF1119
 7727 376a 02       		.byte	0x2
 7728 376b FD01     		.2byte	0x1fd
 7729 376d 46       		.uleb128 0x46
 7730 376e B1690000 		.4byte	.LASF1120
 7731 3772 B1690000 		.4byte	.LASF1120
 7732 3776 0C       		.byte	0xc
 7733 3777 A803     		.2byte	0x3a8
 7734 3779 46       		.uleb128 0x46
 7735 377a 9E410000 		.4byte	.LASF1121
 7736 377e 9E410000 		.4byte	.LASF1121
 7737 3782 07       		.byte	0x7
 7738 3783 2103     		.2byte	0x321
 7739 3785 46       		.uleb128 0x46
ARM GAS  C:\Users\gjl\AppData\Local\Temp\ccRZOvUj.s 			page 172


 7740 3786 0D340000 		.4byte	.LASF1122
 7741 378a 0D340000 		.4byte	.LASF1122
 7742 378e 13       		.byte	0x13
 7743 378f 4502     		.2byte	0x245
 7744 3791 46       		.uleb128 0x46
 7745 3792 63020000 		.4byte	.LASF1123
 7746 3796 63020000 		.4byte	.LASF1123
 7747 379a 02       		.byte	0x2
 7748 379b F901     		.2byte	0x1f9
 7749 379d 47       		.uleb128 0x47
 7750 379e C03C0000 		.4byte	.LASF1124
 7751 37a2 C03C0000 		.4byte	.LASF1124
 7752 37a6 11       		.byte	0x11
 7753 37a7 ED       		.byte	0xed
 7754 37a8 00       		.byte	0
 7755              		.section	.debug_abbrev,"",%progbits
 7756              	.Ldebug_abbrev0:
 7757 0000 01       		.uleb128 0x1
 7758 0001 11       		.uleb128 0x11
 7759 0002 01       		.byte	0x1
 7760 0003 25       		.uleb128 0x25
 7761 0004 0E       		.uleb128 0xe
 7762 0005 13       		.uleb128 0x13
 7763 0006 0B       		.uleb128 0xb
 7764 0007 03       		.uleb128 0x3
 7765 0008 0E       		.uleb128 0xe
 7766 0009 1B       		.uleb128 0x1b
 7767 000a 0E       		.uleb128 0xe
 7768 000b 55       		.uleb128 0x55
 7769 000c 17       		.uleb128 0x17
 7770 000d 11       		.uleb128 0x11
 7771 000e 01       		.uleb128 0x1
 7772 000f 10       		.uleb128 0x10
 7773 0010 17       		.uleb128 0x17
 7774 0011 00       		.byte	0
 7775 0012 00       		.byte	0
 7776 0013 02       		.uleb128 0x2
 7777 0014 24       		.uleb128 0x24
 7778 0015 00       		.byte	0
 7779 0016 0B       		.uleb128 0xb
 7780 0017 0B       		.uleb128 0xb
 7781 0018 3E       		.uleb128 0x3e
 7782 0019 0B       		.uleb128 0xb
 7783 001a 03       		.uleb128 0x3
 7784 001b 08       		.uleb128 0x8
 7785 001c 00       		.byte	0
 7786 001d 00       		.byte	0
 7787 001e 03       		.uleb128 0x3
 7788 001f 24       		.uleb128 0x24
 7789 0020 00       		.byte	0
 7790 0021 0B       		.uleb128 0xb
 7791 0022 0B       		.uleb128 0xb
 7792 0023 3E       		.uleb128 0x3e
 7793 0024 0B       		.uleb128 0xb
 7794 0025 03       		.uleb128 0x3
 7795 0026 0E       		.uleb128 0xe
 7796 0027 00       		.byte	0
ARM GAS  C:\Users\gjl\AppData\Local\Temp\ccRZOvUj.s 			page 173


 7797 0028 00       		.byte	0
 7798 0029 04       		.uleb128 0x4
 7799 002a 16       		.uleb128 0x16
 7800 002b 00       		.byte	0
 7801 002c 03       		.uleb128 0x3
 7802 002d 0E       		.uleb128 0xe
 7803 002e 3A       		.uleb128 0x3a
 7804 002f 0B       		.uleb128 0xb
 7805 0030 3B       		.uleb128 0x3b
 7806 0031 0B       		.uleb128 0xb
 7807 0032 49       		.uleb128 0x49
 7808 0033 13       		.uleb128 0x13
 7809 0034 00       		.byte	0
 7810 0035 00       		.byte	0
 7811 0036 05       		.uleb128 0x5
 7812 0037 0F       		.uleb128 0xf
 7813 0038 00       		.byte	0
 7814 0039 0B       		.uleb128 0xb
 7815 003a 0B       		.uleb128 0xb
 7816 003b 00       		.byte	0
 7817 003c 00       		.byte	0
 7818 003d 06       		.uleb128 0x6
 7819 003e 04       		.uleb128 0x4
 7820 003f 01       		.byte	0x1
 7821 0040 0B       		.uleb128 0xb
 7822 0041 0B       		.uleb128 0xb
 7823 0042 49       		.uleb128 0x49
 7824 0043 13       		.uleb128 0x13
 7825 0044 3A       		.uleb128 0x3a
 7826 0045 0B       		.uleb128 0xb
 7827 0046 3B       		.uleb128 0x3b
 7828 0047 0B       		.uleb128 0xb
 7829 0048 01       		.uleb128 0x1
 7830 0049 13       		.uleb128 0x13
 7831 004a 00       		.byte	0
 7832 004b 00       		.byte	0
 7833 004c 07       		.uleb128 0x7
 7834 004d 28       		.uleb128 0x28
 7835 004e 00       		.byte	0
 7836 004f 03       		.uleb128 0x3
 7837 0050 0E       		.uleb128 0xe
 7838 0051 1C       		.uleb128 0x1c
 7839 0052 0D       		.uleb128 0xd
 7840 0053 00       		.byte	0
 7841 0054 00       		.byte	0
 7842 0055 08       		.uleb128 0x8
 7843 0056 28       		.uleb128 0x28
 7844 0057 00       		.byte	0
 7845 0058 03       		.uleb128 0x3
 7846 0059 0E       		.uleb128 0xe
 7847 005a 1C       		.uleb128 0x1c
 7848 005b 0B       		.uleb128 0xb
 7849 005c 00       		.byte	0
 7850 005d 00       		.byte	0
 7851 005e 09       		.uleb128 0x9
 7852 005f 35       		.uleb128 0x35
 7853 0060 00       		.byte	0
ARM GAS  C:\Users\gjl\AppData\Local\Temp\ccRZOvUj.s 			page 174


 7854 0061 49       		.uleb128 0x49
 7855 0062 13       		.uleb128 0x13
 7856 0063 00       		.byte	0
 7857 0064 00       		.byte	0
 7858 0065 0A       		.uleb128 0xa
 7859 0066 26       		.uleb128 0x26
 7860 0067 00       		.byte	0
 7861 0068 49       		.uleb128 0x49
 7862 0069 13       		.uleb128 0x13
 7863 006a 00       		.byte	0
 7864 006b 00       		.byte	0
 7865 006c 0B       		.uleb128 0xb
 7866 006d 01       		.uleb128 0x1
 7867 006e 01       		.byte	0x1
 7868 006f 49       		.uleb128 0x49
 7869 0070 13       		.uleb128 0x13
 7870 0071 01       		.uleb128 0x1
 7871 0072 13       		.uleb128 0x13
 7872 0073 00       		.byte	0
 7873 0074 00       		.byte	0
 7874 0075 0C       		.uleb128 0xc
 7875 0076 21       		.uleb128 0x21
 7876 0077 00       		.byte	0
 7877 0078 49       		.uleb128 0x49
 7878 0079 13       		.uleb128 0x13
 7879 007a 2F       		.uleb128 0x2f
 7880 007b 0B       		.uleb128 0xb
 7881 007c 00       		.byte	0
 7882 007d 00       		.byte	0
 7883 007e 0D       		.uleb128 0xd
 7884 007f 13       		.uleb128 0x13
 7885 0080 01       		.byte	0x1
 7886 0081 0B       		.uleb128 0xb
 7887 0082 05       		.uleb128 0x5
 7888 0083 3A       		.uleb128 0x3a
 7889 0084 0B       		.uleb128 0xb
 7890 0085 3B       		.uleb128 0x3b
 7891 0086 0B       		.uleb128 0xb
 7892 0087 01       		.uleb128 0x1
 7893 0088 13       		.uleb128 0x13
 7894 0089 00       		.byte	0
 7895 008a 00       		.byte	0
 7896 008b 0E       		.uleb128 0xe
 7897 008c 0D       		.uleb128 0xd
 7898 008d 00       		.byte	0
 7899 008e 03       		.uleb128 0x3
 7900 008f 0E       		.uleb128 0xe
 7901 0090 3A       		.uleb128 0x3a
 7902 0091 0B       		.uleb128 0xb
 7903 0092 3B       		.uleb128 0x3b
 7904 0093 0B       		.uleb128 0xb
 7905 0094 49       		.uleb128 0x49
 7906 0095 13       		.uleb128 0x13
 7907 0096 38       		.uleb128 0x38
 7908 0097 0B       		.uleb128 0xb
 7909 0098 00       		.byte	0
 7910 0099 00       		.byte	0
ARM GAS  C:\Users\gjl\AppData\Local\Temp\ccRZOvUj.s 			page 175


 7911 009a 0F       		.uleb128 0xf
 7912 009b 0D       		.uleb128 0xd
 7913 009c 00       		.byte	0
 7914 009d 03       		.uleb128 0x3
 7915 009e 0E       		.uleb128 0xe
 7916 009f 3A       		.uleb128 0x3a
 7917 00a0 0B       		.uleb128 0xb
 7918 00a1 3B       		.uleb128 0x3b
 7919 00a2 0B       		.uleb128 0xb
 7920 00a3 49       		.uleb128 0x49
 7921 00a4 13       		.uleb128 0x13
 7922 00a5 38       		.uleb128 0x38
 7923 00a6 05       		.uleb128 0x5
 7924 00a7 00       		.byte	0
 7925 00a8 00       		.byte	0
 7926 00a9 10       		.uleb128 0x10
 7927 00aa 21       		.uleb128 0x21
 7928 00ab 00       		.byte	0
 7929 00ac 49       		.uleb128 0x49
 7930 00ad 13       		.uleb128 0x13
 7931 00ae 2F       		.uleb128 0x2f
 7932 00af 05       		.uleb128 0x5
 7933 00b0 00       		.byte	0
 7934 00b1 00       		.byte	0
 7935 00b2 11       		.uleb128 0x11
 7936 00b3 16       		.uleb128 0x16
 7937 00b4 00       		.byte	0
 7938 00b5 03       		.uleb128 0x3
 7939 00b6 0E       		.uleb128 0xe
 7940 00b7 3A       		.uleb128 0x3a
 7941 00b8 0B       		.uleb128 0xb
 7942 00b9 3B       		.uleb128 0x3b
 7943 00ba 05       		.uleb128 0x5
 7944 00bb 49       		.uleb128 0x49
 7945 00bc 13       		.uleb128 0x13
 7946 00bd 00       		.byte	0
 7947 00be 00       		.byte	0
 7948 00bf 12       		.uleb128 0x12
 7949 00c0 13       		.uleb128 0x13
 7950 00c1 01       		.byte	0x1
 7951 00c2 0B       		.uleb128 0xb
 7952 00c3 0B       		.uleb128 0xb
 7953 00c4 3A       		.uleb128 0x3a
 7954 00c5 0B       		.uleb128 0xb
 7955 00c6 3B       		.uleb128 0x3b
 7956 00c7 0B       		.uleb128 0xb
 7957 00c8 01       		.uleb128 0x1
 7958 00c9 13       		.uleb128 0x13
 7959 00ca 00       		.byte	0
 7960 00cb 00       		.byte	0
 7961 00cc 13       		.uleb128 0x13
 7962 00cd 04       		.uleb128 0x4
 7963 00ce 01       		.byte	0x1
 7964 00cf 0B       		.uleb128 0xb
 7965 00d0 0B       		.uleb128 0xb
 7966 00d1 49       		.uleb128 0x49
 7967 00d2 13       		.uleb128 0x13
ARM GAS  C:\Users\gjl\AppData\Local\Temp\ccRZOvUj.s 			page 176


 7968 00d3 3A       		.uleb128 0x3a
 7969 00d4 0B       		.uleb128 0xb
 7970 00d5 3B       		.uleb128 0x3b
 7971 00d6 05       		.uleb128 0x5
 7972 00d7 01       		.uleb128 0x1
 7973 00d8 13       		.uleb128 0x13
 7974 00d9 00       		.byte	0
 7975 00da 00       		.byte	0
 7976 00db 14       		.uleb128 0x14
 7977 00dc 28       		.uleb128 0x28
 7978 00dd 00       		.byte	0
 7979 00de 03       		.uleb128 0x3
 7980 00df 0E       		.uleb128 0xe
 7981 00e0 1C       		.uleb128 0x1c
 7982 00e1 05       		.uleb128 0x5
 7983 00e2 00       		.byte	0
 7984 00e3 00       		.byte	0
 7985 00e4 15       		.uleb128 0x15
 7986 00e5 28       		.uleb128 0x28
 7987 00e6 00       		.byte	0
 7988 00e7 03       		.uleb128 0x3
 7989 00e8 0E       		.uleb128 0xe
 7990 00e9 1C       		.uleb128 0x1c
 7991 00ea 06       		.uleb128 0x6
 7992 00eb 00       		.byte	0
 7993 00ec 00       		.byte	0
 7994 00ed 16       		.uleb128 0x16
 7995 00ee 13       		.uleb128 0x13
 7996 00ef 01       		.byte	0x1
 7997 00f0 0B       		.uleb128 0xb
 7998 00f1 0B       		.uleb128 0xb
 7999 00f2 3A       		.uleb128 0x3a
 8000 00f3 0B       		.uleb128 0xb
 8001 00f4 3B       		.uleb128 0x3b
 8002 00f5 05       		.uleb128 0x5
 8003 00f6 01       		.uleb128 0x1
 8004 00f7 13       		.uleb128 0x13
 8005 00f8 00       		.byte	0
 8006 00f9 00       		.byte	0
 8007 00fa 17       		.uleb128 0x17
 8008 00fb 0D       		.uleb128 0xd
 8009 00fc 00       		.byte	0
 8010 00fd 03       		.uleb128 0x3
 8011 00fe 0E       		.uleb128 0xe
 8012 00ff 3A       		.uleb128 0x3a
 8013 0100 0B       		.uleb128 0xb
 8014 0101 3B       		.uleb128 0x3b
 8015 0102 05       		.uleb128 0x5
 8016 0103 49       		.uleb128 0x49
 8017 0104 13       		.uleb128 0x13
 8018 0105 38       		.uleb128 0x38
 8019 0106 0B       		.uleb128 0xb
 8020 0107 00       		.byte	0
 8021 0108 00       		.byte	0
 8022 0109 18       		.uleb128 0x18
 8023 010a 0F       		.uleb128 0xf
 8024 010b 00       		.byte	0
ARM GAS  C:\Users\gjl\AppData\Local\Temp\ccRZOvUj.s 			page 177


 8025 010c 0B       		.uleb128 0xb
 8026 010d 0B       		.uleb128 0xb
 8027 010e 49       		.uleb128 0x49
 8028 010f 13       		.uleb128 0x13
 8029 0110 00       		.byte	0
 8030 0111 00       		.byte	0
 8031 0112 19       		.uleb128 0x19
 8032 0113 17       		.uleb128 0x17
 8033 0114 01       		.byte	0x1
 8034 0115 0B       		.uleb128 0xb
 8035 0116 0B       		.uleb128 0xb
 8036 0117 3A       		.uleb128 0x3a
 8037 0118 0B       		.uleb128 0xb
 8038 0119 3B       		.uleb128 0x3b
 8039 011a 05       		.uleb128 0x5
 8040 011b 01       		.uleb128 0x1
 8041 011c 13       		.uleb128 0x13
 8042 011d 00       		.byte	0
 8043 011e 00       		.byte	0
 8044 011f 1A       		.uleb128 0x1a
 8045 0120 0D       		.uleb128 0xd
 8046 0121 00       		.byte	0
 8047 0122 03       		.uleb128 0x3
 8048 0123 0E       		.uleb128 0xe
 8049 0124 3A       		.uleb128 0x3a
 8050 0125 0B       		.uleb128 0xb
 8051 0126 3B       		.uleb128 0x3b
 8052 0127 05       		.uleb128 0x5
 8053 0128 49       		.uleb128 0x49
 8054 0129 13       		.uleb128 0x13
 8055 012a 00       		.byte	0
 8056 012b 00       		.byte	0
 8057 012c 1B       		.uleb128 0x1b
 8058 012d 0D       		.uleb128 0xd
 8059 012e 00       		.byte	0
 8060 012f 03       		.uleb128 0x3
 8061 0130 08       		.uleb128 0x8
 8062 0131 3A       		.uleb128 0x3a
 8063 0132 0B       		.uleb128 0xb
 8064 0133 3B       		.uleb128 0x3b
 8065 0134 05       		.uleb128 0x5
 8066 0135 49       		.uleb128 0x49
 8067 0136 13       		.uleb128 0x13
 8068 0137 38       		.uleb128 0x38
 8069 0138 0B       		.uleb128 0xb
 8070 0139 00       		.byte	0
 8071 013a 00       		.byte	0
 8072 013b 1C       		.uleb128 0x1c
 8073 013c 17       		.uleb128 0x17
 8074 013d 01       		.byte	0x1
 8075 013e 0B       		.uleb128 0xb
 8076 013f 0B       		.uleb128 0xb
 8077 0140 3A       		.uleb128 0x3a
 8078 0141 0B       		.uleb128 0xb
 8079 0142 3B       		.uleb128 0x3b
 8080 0143 0B       		.uleb128 0xb
 8081 0144 01       		.uleb128 0x1
ARM GAS  C:\Users\gjl\AppData\Local\Temp\ccRZOvUj.s 			page 178


 8082 0145 13       		.uleb128 0x13
 8083 0146 00       		.byte	0
 8084 0147 00       		.byte	0
 8085 0148 1D       		.uleb128 0x1d
 8086 0149 0D       		.uleb128 0xd
 8087 014a 00       		.byte	0
 8088 014b 03       		.uleb128 0x3
 8089 014c 0E       		.uleb128 0xe
 8090 014d 3A       		.uleb128 0x3a
 8091 014e 0B       		.uleb128 0xb
 8092 014f 3B       		.uleb128 0x3b
 8093 0150 0B       		.uleb128 0xb
 8094 0151 49       		.uleb128 0x49
 8095 0152 13       		.uleb128 0x13
 8096 0153 00       		.byte	0
 8097 0154 00       		.byte	0
 8098 0155 1E       		.uleb128 0x1e
 8099 0156 15       		.uleb128 0x15
 8100 0157 01       		.byte	0x1
 8101 0158 27       		.uleb128 0x27
 8102 0159 19       		.uleb128 0x19
 8103 015a 01       		.uleb128 0x1
 8104 015b 13       		.uleb128 0x13
 8105 015c 00       		.byte	0
 8106 015d 00       		.byte	0
 8107 015e 1F       		.uleb128 0x1f
 8108 015f 05       		.uleb128 0x5
 8109 0160 00       		.byte	0
 8110 0161 49       		.uleb128 0x49
 8111 0162 13       		.uleb128 0x13
 8112 0163 00       		.byte	0
 8113 0164 00       		.byte	0
 8114 0165 20       		.uleb128 0x20
 8115 0166 13       		.uleb128 0x13
 8116 0167 01       		.byte	0x1
 8117 0168 0B       		.uleb128 0xb
 8118 0169 05       		.uleb128 0x5
 8119 016a 3A       		.uleb128 0x3a
 8120 016b 0B       		.uleb128 0xb
 8121 016c 3B       		.uleb128 0x3b
 8122 016d 05       		.uleb128 0x5
 8123 016e 01       		.uleb128 0x1
 8124 016f 13       		.uleb128 0x13
 8125 0170 00       		.byte	0
 8126 0171 00       		.byte	0
 8127 0172 21       		.uleb128 0x21
 8128 0173 0D       		.uleb128 0xd
 8129 0174 00       		.byte	0
 8130 0175 03       		.uleb128 0x3
 8131 0176 0E       		.uleb128 0xe
 8132 0177 3A       		.uleb128 0x3a
 8133 0178 0B       		.uleb128 0xb
 8134 0179 3B       		.uleb128 0x3b
 8135 017a 05       		.uleb128 0x5
 8136 017b 49       		.uleb128 0x49
 8137 017c 13       		.uleb128 0x13
 8138 017d 38       		.uleb128 0x38
ARM GAS  C:\Users\gjl\AppData\Local\Temp\ccRZOvUj.s 			page 179


 8139 017e 05       		.uleb128 0x5
 8140 017f 00       		.byte	0
 8141 0180 00       		.byte	0
 8142 0181 22       		.uleb128 0x22
 8143 0182 15       		.uleb128 0x15
 8144 0183 01       		.byte	0x1
 8145 0184 27       		.uleb128 0x27
 8146 0185 19       		.uleb128 0x19
 8147 0186 49       		.uleb128 0x49
 8148 0187 13       		.uleb128 0x13
 8149 0188 01       		.uleb128 0x1
 8150 0189 13       		.uleb128 0x13
 8151 018a 00       		.byte	0
 8152 018b 00       		.byte	0
 8153 018c 23       		.uleb128 0x23
 8154 018d 2E       		.uleb128 0x2e
 8155 018e 01       		.byte	0x1
 8156 018f 03       		.uleb128 0x3
 8157 0190 0E       		.uleb128 0xe
 8158 0191 3A       		.uleb128 0x3a
 8159 0192 0B       		.uleb128 0xb
 8160 0193 3B       		.uleb128 0x3b
 8161 0194 05       		.uleb128 0x5
 8162 0195 27       		.uleb128 0x27
 8163 0196 19       		.uleb128 0x19
 8164 0197 49       		.uleb128 0x49
 8165 0198 13       		.uleb128 0x13
 8166 0199 20       		.uleb128 0x20
 8167 019a 0B       		.uleb128 0xb
 8168 019b 01       		.uleb128 0x1
 8169 019c 13       		.uleb128 0x13
 8170 019d 00       		.byte	0
 8171 019e 00       		.byte	0
 8172 019f 24       		.uleb128 0x24
 8173 01a0 05       		.uleb128 0x5
 8174 01a1 00       		.byte	0
 8175 01a2 03       		.uleb128 0x3
 8176 01a3 0E       		.uleb128 0xe
 8177 01a4 3A       		.uleb128 0x3a
 8178 01a5 0B       		.uleb128 0xb
 8179 01a6 3B       		.uleb128 0x3b
 8180 01a7 05       		.uleb128 0x5
 8181 01a8 49       		.uleb128 0x49
 8182 01a9 13       		.uleb128 0x13
 8183 01aa 00       		.byte	0
 8184 01ab 00       		.byte	0
 8185 01ac 25       		.uleb128 0x25
 8186 01ad 2E       		.uleb128 0x2e
 8187 01ae 01       		.byte	0x1
 8188 01af 03       		.uleb128 0x3
 8189 01b0 0E       		.uleb128 0xe
 8190 01b1 3A       		.uleb128 0x3a
 8191 01b2 0B       		.uleb128 0xb
 8192 01b3 3B       		.uleb128 0x3b
 8193 01b4 05       		.uleb128 0x5
 8194 01b5 27       		.uleb128 0x27
 8195 01b6 19       		.uleb128 0x19
ARM GAS  C:\Users\gjl\AppData\Local\Temp\ccRZOvUj.s 			page 180


 8196 01b7 20       		.uleb128 0x20
 8197 01b8 0B       		.uleb128 0xb
 8198 01b9 01       		.uleb128 0x1
 8199 01ba 13       		.uleb128 0x13
 8200 01bb 00       		.byte	0
 8201 01bc 00       		.byte	0
 8202 01bd 26       		.uleb128 0x26
 8203 01be 2E       		.uleb128 0x2e
 8204 01bf 00       		.byte	0
 8205 01c0 03       		.uleb128 0x3
 8206 01c1 0E       		.uleb128 0xe
 8207 01c2 3A       		.uleb128 0x3a
 8208 01c3 0B       		.uleb128 0xb
 8209 01c4 3B       		.uleb128 0x3b
 8210 01c5 05       		.uleb128 0x5
 8211 01c6 27       		.uleb128 0x27
 8212 01c7 19       		.uleb128 0x19
 8213 01c8 49       		.uleb128 0x49
 8214 01c9 13       		.uleb128 0x13
 8215 01ca 20       		.uleb128 0x20
 8216 01cb 0B       		.uleb128 0xb
 8217 01cc 00       		.byte	0
 8218 01cd 00       		.byte	0
 8219 01ce 27       		.uleb128 0x27
 8220 01cf 2E       		.uleb128 0x2e
 8221 01d0 01       		.byte	0x1
 8222 01d1 03       		.uleb128 0x3
 8223 01d2 0E       		.uleb128 0xe
 8224 01d3 3A       		.uleb128 0x3a
 8225 01d4 0B       		.uleb128 0xb
 8226 01d5 3B       		.uleb128 0x3b
 8227 01d6 0B       		.uleb128 0xb
 8228 01d7 27       		.uleb128 0x27
 8229 01d8 19       		.uleb128 0x19
 8230 01d9 11       		.uleb128 0x11
 8231 01da 01       		.uleb128 0x1
 8232 01db 12       		.uleb128 0x12
 8233 01dc 06       		.uleb128 0x6
 8234 01dd 40       		.uleb128 0x40
 8235 01de 18       		.uleb128 0x18
 8236 01df 9742     		.uleb128 0x2117
 8237 01e1 19       		.uleb128 0x19
 8238 01e2 01       		.uleb128 0x1
 8239 01e3 13       		.uleb128 0x13
 8240 01e4 00       		.byte	0
 8241 01e5 00       		.byte	0
 8242 01e6 28       		.uleb128 0x28
 8243 01e7 05       		.uleb128 0x5
 8244 01e8 00       		.byte	0
 8245 01e9 03       		.uleb128 0x3
 8246 01ea 0E       		.uleb128 0xe
 8247 01eb 3A       		.uleb128 0x3a
 8248 01ec 0B       		.uleb128 0xb
 8249 01ed 3B       		.uleb128 0x3b
 8250 01ee 0B       		.uleb128 0xb
 8251 01ef 49       		.uleb128 0x49
 8252 01f0 13       		.uleb128 0x13
ARM GAS  C:\Users\gjl\AppData\Local\Temp\ccRZOvUj.s 			page 181


 8253 01f1 02       		.uleb128 0x2
 8254 01f2 17       		.uleb128 0x17
 8255 01f3 00       		.byte	0
 8256 01f4 00       		.byte	0
 8257 01f5 29       		.uleb128 0x29
 8258 01f6 0B       		.uleb128 0xb
 8259 01f7 01       		.byte	0x1
 8260 01f8 11       		.uleb128 0x11
 8261 01f9 01       		.uleb128 0x1
 8262 01fa 12       		.uleb128 0x12
 8263 01fb 06       		.uleb128 0x6
 8264 01fc 01       		.uleb128 0x1
 8265 01fd 13       		.uleb128 0x13
 8266 01fe 00       		.byte	0
 8267 01ff 00       		.byte	0
 8268 0200 2A       		.uleb128 0x2a
 8269 0201 34       		.uleb128 0x34
 8270 0202 00       		.byte	0
 8271 0203 03       		.uleb128 0x3
 8272 0204 0E       		.uleb128 0xe
 8273 0205 3A       		.uleb128 0x3a
 8274 0206 0B       		.uleb128 0xb
 8275 0207 3B       		.uleb128 0x3b
 8276 0208 0B       		.uleb128 0xb
 8277 0209 49       		.uleb128 0x49
 8278 020a 13       		.uleb128 0x13
 8279 020b 02       		.uleb128 0x2
 8280 020c 18       		.uleb128 0x18
 8281 020d 00       		.byte	0
 8282 020e 00       		.byte	0
 8283 020f 2B       		.uleb128 0x2b
 8284 0210 898201   		.uleb128 0x4109
 8285 0213 01       		.byte	0x1
 8286 0214 11       		.uleb128 0x11
 8287 0215 01       		.uleb128 0x1
 8288 0216 31       		.uleb128 0x31
 8289 0217 13       		.uleb128 0x13
 8290 0218 00       		.byte	0
 8291 0219 00       		.byte	0
 8292 021a 2C       		.uleb128 0x2c
 8293 021b 8A8201   		.uleb128 0x410a
 8294 021e 00       		.byte	0
 8295 021f 02       		.uleb128 0x2
 8296 0220 18       		.uleb128 0x18
 8297 0221 9142     		.uleb128 0x2111
 8298 0223 18       		.uleb128 0x18
 8299 0224 00       		.byte	0
 8300 0225 00       		.byte	0
 8301 0226 2D       		.uleb128 0x2d
 8302 0227 898201   		.uleb128 0x4109
 8303 022a 00       		.byte	0
 8304 022b 11       		.uleb128 0x11
 8305 022c 01       		.uleb128 0x1
 8306 022d 31       		.uleb128 0x31
 8307 022e 13       		.uleb128 0x13
 8308 022f 00       		.byte	0
 8309 0230 00       		.byte	0
ARM GAS  C:\Users\gjl\AppData\Local\Temp\ccRZOvUj.s 			page 182


 8310 0231 2E       		.uleb128 0x2e
 8311 0232 2E       		.uleb128 0x2e
 8312 0233 01       		.byte	0x1
 8313 0234 3F       		.uleb128 0x3f
 8314 0235 19       		.uleb128 0x19
 8315 0236 03       		.uleb128 0x3
 8316 0237 0E       		.uleb128 0xe
 8317 0238 3A       		.uleb128 0x3a
 8318 0239 0B       		.uleb128 0xb
 8319 023a 3B       		.uleb128 0x3b
 8320 023b 0B       		.uleb128 0xb
 8321 023c 27       		.uleb128 0x27
 8322 023d 19       		.uleb128 0x19
 8323 023e 49       		.uleb128 0x49
 8324 023f 13       		.uleb128 0x13
 8325 0240 11       		.uleb128 0x11
 8326 0241 01       		.uleb128 0x1
 8327 0242 12       		.uleb128 0x12
 8328 0243 06       		.uleb128 0x6
 8329 0244 40       		.uleb128 0x40
 8330 0245 18       		.uleb128 0x18
 8331 0246 9742     		.uleb128 0x2117
 8332 0248 19       		.uleb128 0x19
 8333 0249 01       		.uleb128 0x1
 8334 024a 13       		.uleb128 0x13
 8335 024b 00       		.byte	0
 8336 024c 00       		.byte	0
 8337 024d 2F       		.uleb128 0x2f
 8338 024e 34       		.uleb128 0x34
 8339 024f 00       		.byte	0
 8340 0250 03       		.uleb128 0x3
 8341 0251 0E       		.uleb128 0xe
 8342 0252 3A       		.uleb128 0x3a
 8343 0253 0B       		.uleb128 0xb
 8344 0254 3B       		.uleb128 0x3b
 8345 0255 0B       		.uleb128 0xb
 8346 0256 49       		.uleb128 0x49
 8347 0257 13       		.uleb128 0x13
 8348 0258 02       		.uleb128 0x2
 8349 0259 17       		.uleb128 0x17
 8350 025a 00       		.byte	0
 8351 025b 00       		.byte	0
 8352 025c 30       		.uleb128 0x30
 8353 025d 0B       		.uleb128 0xb
 8354 025e 01       		.byte	0x1
 8355 025f 55       		.uleb128 0x55
 8356 0260 17       		.uleb128 0x17
 8357 0261 00       		.byte	0
 8358 0262 00       		.byte	0
 8359 0263 31       		.uleb128 0x31
 8360 0264 34       		.uleb128 0x34
 8361 0265 00       		.byte	0
 8362 0266 03       		.uleb128 0x3
 8363 0267 08       		.uleb128 0x8
 8364 0268 3A       		.uleb128 0x3a
 8365 0269 0B       		.uleb128 0xb
 8366 026a 3B       		.uleb128 0x3b
ARM GAS  C:\Users\gjl\AppData\Local\Temp\ccRZOvUj.s 			page 183


 8367 026b 0B       		.uleb128 0xb
 8368 026c 49       		.uleb128 0x49
 8369 026d 13       		.uleb128 0x13
 8370 026e 02       		.uleb128 0x2
 8371 026f 17       		.uleb128 0x17
 8372 0270 00       		.byte	0
 8373 0271 00       		.byte	0
 8374 0272 32       		.uleb128 0x32
 8375 0273 898201   		.uleb128 0x4109
 8376 0276 01       		.byte	0x1
 8377 0277 11       		.uleb128 0x11
 8378 0278 01       		.uleb128 0x1
 8379 0279 00       		.byte	0
 8380 027a 00       		.byte	0
 8381 027b 33       		.uleb128 0x33
 8382 027c 2E       		.uleb128 0x2e
 8383 027d 01       		.byte	0x1
 8384 027e 3F       		.uleb128 0x3f
 8385 027f 19       		.uleb128 0x19
 8386 0280 03       		.uleb128 0x3
 8387 0281 0E       		.uleb128 0xe
 8388 0282 3A       		.uleb128 0x3a
 8389 0283 0B       		.uleb128 0xb
 8390 0284 3B       		.uleb128 0x3b
 8391 0285 05       		.uleb128 0x5
 8392 0286 27       		.uleb128 0x27
 8393 0287 19       		.uleb128 0x19
 8394 0288 49       		.uleb128 0x49
 8395 0289 13       		.uleb128 0x13
 8396 028a 11       		.uleb128 0x11
 8397 028b 01       		.uleb128 0x1
 8398 028c 12       		.uleb128 0x12
 8399 028d 06       		.uleb128 0x6
 8400 028e 40       		.uleb128 0x40
 8401 028f 18       		.uleb128 0x18
 8402 0290 9742     		.uleb128 0x2117
 8403 0292 19       		.uleb128 0x19
 8404 0293 01       		.uleb128 0x1
 8405 0294 13       		.uleb128 0x13
 8406 0295 00       		.byte	0
 8407 0296 00       		.byte	0
 8408 0297 34       		.uleb128 0x34
 8409 0298 05       		.uleb128 0x5
 8410 0299 00       		.byte	0
 8411 029a 03       		.uleb128 0x3
 8412 029b 0E       		.uleb128 0xe
 8413 029c 3A       		.uleb128 0x3a
 8414 029d 0B       		.uleb128 0xb
 8415 029e 3B       		.uleb128 0x3b
 8416 029f 05       		.uleb128 0x5
 8417 02a0 49       		.uleb128 0x49
 8418 02a1 13       		.uleb128 0x13
 8419 02a2 02       		.uleb128 0x2
 8420 02a3 17       		.uleb128 0x17
 8421 02a4 00       		.byte	0
 8422 02a5 00       		.byte	0
 8423 02a6 35       		.uleb128 0x35
ARM GAS  C:\Users\gjl\AppData\Local\Temp\ccRZOvUj.s 			page 184


 8424 02a7 34       		.uleb128 0x34
 8425 02a8 00       		.byte	0
 8426 02a9 03       		.uleb128 0x3
 8427 02aa 0E       		.uleb128 0xe
 8428 02ab 3A       		.uleb128 0x3a
 8429 02ac 0B       		.uleb128 0xb
 8430 02ad 3B       		.uleb128 0x3b
 8431 02ae 05       		.uleb128 0x5
 8432 02af 49       		.uleb128 0x49
 8433 02b0 13       		.uleb128 0x13
 8434 02b1 02       		.uleb128 0x2
 8435 02b2 17       		.uleb128 0x17
 8436 02b3 00       		.byte	0
 8437 02b4 00       		.byte	0
 8438 02b5 36       		.uleb128 0x36
 8439 02b6 34       		.uleb128 0x34
 8440 02b7 00       		.byte	0
 8441 02b8 03       		.uleb128 0x3
 8442 02b9 08       		.uleb128 0x8
 8443 02ba 3A       		.uleb128 0x3a
 8444 02bb 0B       		.uleb128 0xb
 8445 02bc 3B       		.uleb128 0x3b
 8446 02bd 05       		.uleb128 0x5
 8447 02be 49       		.uleb128 0x49
 8448 02bf 13       		.uleb128 0x13
 8449 02c0 02       		.uleb128 0x2
 8450 02c1 17       		.uleb128 0x17
 8451 02c2 00       		.byte	0
 8452 02c3 00       		.byte	0
 8453 02c4 37       		.uleb128 0x37
 8454 02c5 34       		.uleb128 0x34
 8455 02c6 00       		.byte	0
 8456 02c7 03       		.uleb128 0x3
 8457 02c8 08       		.uleb128 0x8
 8458 02c9 3A       		.uleb128 0x3a
 8459 02ca 0B       		.uleb128 0xb
 8460 02cb 3B       		.uleb128 0x3b
 8461 02cc 05       		.uleb128 0x5
 8462 02cd 49       		.uleb128 0x49
 8463 02ce 13       		.uleb128 0x13
 8464 02cf 00       		.byte	0
 8465 02d0 00       		.byte	0
 8466 02d1 38       		.uleb128 0x38
 8467 02d2 34       		.uleb128 0x34
 8468 02d3 00       		.byte	0
 8469 02d4 03       		.uleb128 0x3
 8470 02d5 0E       		.uleb128 0xe
 8471 02d6 3A       		.uleb128 0x3a
 8472 02d7 0B       		.uleb128 0xb
 8473 02d8 3B       		.uleb128 0x3b
 8474 02d9 05       		.uleb128 0x5
 8475 02da 49       		.uleb128 0x49
 8476 02db 13       		.uleb128 0x13
 8477 02dc 00       		.byte	0
 8478 02dd 00       		.byte	0
 8479 02de 39       		.uleb128 0x39
 8480 02df 2E       		.uleb128 0x2e
ARM GAS  C:\Users\gjl\AppData\Local\Temp\ccRZOvUj.s 			page 185


 8481 02e0 01       		.byte	0x1
 8482 02e1 3F       		.uleb128 0x3f
 8483 02e2 19       		.uleb128 0x19
 8484 02e3 03       		.uleb128 0x3
 8485 02e4 0E       		.uleb128 0xe
 8486 02e5 3A       		.uleb128 0x3a
 8487 02e6 0B       		.uleb128 0xb
 8488 02e7 3B       		.uleb128 0x3b
 8489 02e8 05       		.uleb128 0x5
 8490 02e9 27       		.uleb128 0x27
 8491 02ea 19       		.uleb128 0x19
 8492 02eb 11       		.uleb128 0x11
 8493 02ec 01       		.uleb128 0x1
 8494 02ed 12       		.uleb128 0x12
 8495 02ee 06       		.uleb128 0x6
 8496 02ef 40       		.uleb128 0x40
 8497 02f0 18       		.uleb128 0x18
 8498 02f1 9742     		.uleb128 0x2117
 8499 02f3 19       		.uleb128 0x19
 8500 02f4 01       		.uleb128 0x1
 8501 02f5 13       		.uleb128 0x13
 8502 02f6 00       		.byte	0
 8503 02f7 00       		.byte	0
 8504 02f8 3A       		.uleb128 0x3a
 8505 02f9 34       		.uleb128 0x34
 8506 02fa 00       		.byte	0
 8507 02fb 03       		.uleb128 0x3
 8508 02fc 0E       		.uleb128 0xe
 8509 02fd 3A       		.uleb128 0x3a
 8510 02fe 0B       		.uleb128 0xb
 8511 02ff 3B       		.uleb128 0x3b
 8512 0300 05       		.uleb128 0x5
 8513 0301 49       		.uleb128 0x49
 8514 0302 13       		.uleb128 0x13
 8515 0303 02       		.uleb128 0x2
 8516 0304 18       		.uleb128 0x18
 8517 0305 00       		.byte	0
 8518 0306 00       		.byte	0
 8519 0307 3B       		.uleb128 0x3b
 8520 0308 1D       		.uleb128 0x1d
 8521 0309 01       		.byte	0x1
 8522 030a 31       		.uleb128 0x31
 8523 030b 13       		.uleb128 0x13
 8524 030c 11       		.uleb128 0x11
 8525 030d 01       		.uleb128 0x1
 8526 030e 12       		.uleb128 0x12
 8527 030f 06       		.uleb128 0x6
 8528 0310 58       		.uleb128 0x58
 8529 0311 0B       		.uleb128 0xb
 8530 0312 59       		.uleb128 0x59
 8531 0313 05       		.uleb128 0x5
 8532 0314 01       		.uleb128 0x1
 8533 0315 13       		.uleb128 0x13
 8534 0316 00       		.byte	0
 8535 0317 00       		.byte	0
 8536 0318 3C       		.uleb128 0x3c
 8537 0319 05       		.uleb128 0x5
ARM GAS  C:\Users\gjl\AppData\Local\Temp\ccRZOvUj.s 			page 186


 8538 031a 00       		.byte	0
 8539 031b 31       		.uleb128 0x31
 8540 031c 13       		.uleb128 0x13
 8541 031d 02       		.uleb128 0x2
 8542 031e 17       		.uleb128 0x17
 8543 031f 00       		.byte	0
 8544 0320 00       		.byte	0
 8545 0321 3D       		.uleb128 0x3d
 8546 0322 898201   		.uleb128 0x4109
 8547 0325 01       		.byte	0x1
 8548 0326 11       		.uleb128 0x11
 8549 0327 01       		.uleb128 0x1
 8550 0328 31       		.uleb128 0x31
 8551 0329 13       		.uleb128 0x13
 8552 032a 01       		.uleb128 0x1
 8553 032b 13       		.uleb128 0x13
 8554 032c 00       		.byte	0
 8555 032d 00       		.byte	0
 8556 032e 3E       		.uleb128 0x3e
 8557 032f 0B       		.uleb128 0xb
 8558 0330 01       		.byte	0x1
 8559 0331 11       		.uleb128 0x11
 8560 0332 01       		.uleb128 0x1
 8561 0333 12       		.uleb128 0x12
 8562 0334 06       		.uleb128 0x6
 8563 0335 00       		.byte	0
 8564 0336 00       		.byte	0
 8565 0337 3F       		.uleb128 0x3f
 8566 0338 34       		.uleb128 0x34
 8567 0339 00       		.byte	0
 8568 033a 31       		.uleb128 0x31
 8569 033b 13       		.uleb128 0x13
 8570 033c 02       		.uleb128 0x2
 8571 033d 17       		.uleb128 0x17
 8572 033e 00       		.byte	0
 8573 033f 00       		.byte	0
 8574 0340 40       		.uleb128 0x40
 8575 0341 34       		.uleb128 0x34
 8576 0342 00       		.byte	0
 8577 0343 31       		.uleb128 0x31
 8578 0344 13       		.uleb128 0x13
 8579 0345 02       		.uleb128 0x2
 8580 0346 18       		.uleb128 0x18
 8581 0347 00       		.byte	0
 8582 0348 00       		.byte	0
 8583 0349 41       		.uleb128 0x41
 8584 034a 05       		.uleb128 0x5
 8585 034b 00       		.byte	0
 8586 034c 31       		.uleb128 0x31
 8587 034d 13       		.uleb128 0x13
 8588 034e 02       		.uleb128 0x2
 8589 034f 18       		.uleb128 0x18
 8590 0350 00       		.byte	0
 8591 0351 00       		.byte	0
 8592 0352 42       		.uleb128 0x42
 8593 0353 1D       		.uleb128 0x1d
 8594 0354 01       		.byte	0x1
ARM GAS  C:\Users\gjl\AppData\Local\Temp\ccRZOvUj.s 			page 187


 8595 0355 31       		.uleb128 0x31
 8596 0356 13       		.uleb128 0x13
 8597 0357 11       		.uleb128 0x11
 8598 0358 01       		.uleb128 0x1
 8599 0359 12       		.uleb128 0x12
 8600 035a 06       		.uleb128 0x6
 8601 035b 58       		.uleb128 0x58
 8602 035c 0B       		.uleb128 0xb
 8603 035d 59       		.uleb128 0x59
 8604 035e 05       		.uleb128 0x5
 8605 035f 00       		.byte	0
 8606 0360 00       		.byte	0
 8607 0361 43       		.uleb128 0x43
 8608 0362 1D       		.uleb128 0x1d
 8609 0363 00       		.byte	0
 8610 0364 31       		.uleb128 0x31
 8611 0365 13       		.uleb128 0x13
 8612 0366 11       		.uleb128 0x11
 8613 0367 01       		.uleb128 0x1
 8614 0368 12       		.uleb128 0x12
 8615 0369 06       		.uleb128 0x6
 8616 036a 58       		.uleb128 0x58
 8617 036b 0B       		.uleb128 0xb
 8618 036c 59       		.uleb128 0x59
 8619 036d 05       		.uleb128 0x5
 8620 036e 00       		.byte	0
 8621 036f 00       		.byte	0
 8622 0370 44       		.uleb128 0x44
 8623 0371 34       		.uleb128 0x34
 8624 0372 00       		.byte	0
 8625 0373 03       		.uleb128 0x3
 8626 0374 0E       		.uleb128 0xe
 8627 0375 3A       		.uleb128 0x3a
 8628 0376 0B       		.uleb128 0xb
 8629 0377 3B       		.uleb128 0x3b
 8630 0378 05       		.uleb128 0x5
 8631 0379 49       		.uleb128 0x49
 8632 037a 13       		.uleb128 0x13
 8633 037b 3F       		.uleb128 0x3f
 8634 037c 19       		.uleb128 0x19
 8635 037d 3C       		.uleb128 0x3c
 8636 037e 19       		.uleb128 0x19
 8637 037f 00       		.byte	0
 8638 0380 00       		.byte	0
 8639 0381 45       		.uleb128 0x45
 8640 0382 34       		.uleb128 0x34
 8641 0383 00       		.byte	0
 8642 0384 03       		.uleb128 0x3
 8643 0385 0E       		.uleb128 0xe
 8644 0386 3A       		.uleb128 0x3a
 8645 0387 0B       		.uleb128 0xb
 8646 0388 3B       		.uleb128 0x3b
 8647 0389 0B       		.uleb128 0xb
 8648 038a 49       		.uleb128 0x49
 8649 038b 13       		.uleb128 0x13
 8650 038c 3F       		.uleb128 0x3f
 8651 038d 19       		.uleb128 0x19
ARM GAS  C:\Users\gjl\AppData\Local\Temp\ccRZOvUj.s 			page 188


 8652 038e 02       		.uleb128 0x2
 8653 038f 18       		.uleb128 0x18
 8654 0390 00       		.byte	0
 8655 0391 00       		.byte	0
 8656 0392 46       		.uleb128 0x46
 8657 0393 2E       		.uleb128 0x2e
 8658 0394 00       		.byte	0
 8659 0395 3F       		.uleb128 0x3f
 8660 0396 19       		.uleb128 0x19
 8661 0397 3C       		.uleb128 0x3c
 8662 0398 19       		.uleb128 0x19
 8663 0399 6E       		.uleb128 0x6e
 8664 039a 0E       		.uleb128 0xe
 8665 039b 03       		.uleb128 0x3
 8666 039c 0E       		.uleb128 0xe
 8667 039d 3A       		.uleb128 0x3a
 8668 039e 0B       		.uleb128 0xb
 8669 039f 3B       		.uleb128 0x3b
 8670 03a0 05       		.uleb128 0x5
 8671 03a1 00       		.byte	0
 8672 03a2 00       		.byte	0
 8673 03a3 47       		.uleb128 0x47
 8674 03a4 2E       		.uleb128 0x2e
 8675 03a5 00       		.byte	0
 8676 03a6 3F       		.uleb128 0x3f
 8677 03a7 19       		.uleb128 0x19
 8678 03a8 3C       		.uleb128 0x3c
 8679 03a9 19       		.uleb128 0x19
 8680 03aa 6E       		.uleb128 0x6e
 8681 03ab 0E       		.uleb128 0xe
 8682 03ac 03       		.uleb128 0x3
 8683 03ad 0E       		.uleb128 0xe
 8684 03ae 3A       		.uleb128 0x3a
 8685 03af 0B       		.uleb128 0xb
 8686 03b0 3B       		.uleb128 0x3b
 8687 03b1 0B       		.uleb128 0xb
 8688 03b2 00       		.byte	0
 8689 03b3 00       		.byte	0
 8690 03b4 00       		.byte	0
 8691              		.section	.debug_loc,"",%progbits
 8692              	.Ldebug_loc0:
 8693              	.LLST0:
 8694 0000 00000000 		.4byte	.LVL0
 8695 0004 28000000 		.4byte	.LVL1
 8696 0008 0100     		.2byte	0x1
 8697 000a 50       		.byte	0x50
 8698 000b 28000000 		.4byte	.LVL1
 8699 000f 2E000000 		.4byte	.LVL3
 8700 0013 0400     		.2byte	0x4
 8701 0015 F3       		.byte	0xf3
 8702 0016 01       		.uleb128 0x1
 8703 0017 50       		.byte	0x50
 8704 0018 9F       		.byte	0x9f
 8705 0019 2E000000 		.4byte	.LVL3
 8706 001d 30000000 		.4byte	.LVL4
 8707 0021 0100     		.2byte	0x1
 8708 0023 50       		.byte	0x50
ARM GAS  C:\Users\gjl\AppData\Local\Temp\ccRZOvUj.s 			page 189


 8709 0024 30000000 		.4byte	.LVL4
 8710 0028 3A000000 		.4byte	.LVL6
 8711 002c 0400     		.2byte	0x4
 8712 002e F3       		.byte	0xf3
 8713 002f 01       		.uleb128 0x1
 8714 0030 50       		.byte	0x50
 8715 0031 9F       		.byte	0x9f
 8716 0032 3A000000 		.4byte	.LVL6
 8717 0036 40000000 		.4byte	.LFE288
 8718 003a 0100     		.2byte	0x1
 8719 003c 50       		.byte	0x50
 8720 003d 00000000 		.4byte	0
 8721 0041 00000000 		.4byte	0
 8722              	.LLST1:
 8723 0045 00000000 		.4byte	.LVL0
 8724 0049 2B000000 		.4byte	.LVL2-1
 8725 004d 0100     		.2byte	0x1
 8726 004f 51       		.byte	0x51
 8727 0050 2B000000 		.4byte	.LVL2-1
 8728 0054 2E000000 		.4byte	.LVL3
 8729 0058 0400     		.2byte	0x4
 8730 005a F3       		.byte	0xf3
 8731 005b 01       		.uleb128 0x1
 8732 005c 51       		.byte	0x51
 8733 005d 9F       		.byte	0x9f
 8734 005e 2E000000 		.4byte	.LVL3
 8735 0062 33000000 		.4byte	.LVL5-1
 8736 0066 0100     		.2byte	0x1
 8737 0068 51       		.byte	0x51
 8738 0069 33000000 		.4byte	.LVL5-1
 8739 006d 3A000000 		.4byte	.LVL6
 8740 0071 0400     		.2byte	0x4
 8741 0073 F3       		.byte	0xf3
 8742 0074 01       		.uleb128 0x1
 8743 0075 51       		.byte	0x51
 8744 0076 9F       		.byte	0x9f
 8745 0077 3A000000 		.4byte	.LVL6
 8746 007b 40000000 		.4byte	.LFE288
 8747 007f 0100     		.2byte	0x1
 8748 0081 51       		.byte	0x51
 8749 0082 00000000 		.4byte	0
 8750 0086 00000000 		.4byte	0
 8751              	.LLST2:
 8752 008a 00000000 		.4byte	.LVL7
 8753 008e 28000000 		.4byte	.LVL12
 8754 0092 0100     		.2byte	0x1
 8755 0094 50       		.byte	0x50
 8756 0095 28000000 		.4byte	.LVL12
 8757 0099 2A000000 		.4byte	.LVL13
 8758 009d 0100     		.2byte	0x1
 8759 009f 54       		.byte	0x54
 8760 00a0 2A000000 		.4byte	.LVL13
 8761 00a4 2E000000 		.4byte	.LVL14
 8762 00a8 0100     		.2byte	0x1
 8763 00aa 50       		.byte	0x50
 8764 00ab 2E000000 		.4byte	.LVL14
 8765 00af 30000000 		.4byte	.LVL15
ARM GAS  C:\Users\gjl\AppData\Local\Temp\ccRZOvUj.s 			page 190


 8766 00b3 0100     		.2byte	0x1
 8767 00b5 54       		.byte	0x54
 8768 00b6 30000000 		.4byte	.LVL15
 8769 00ba 32000000 		.4byte	.LVL16
 8770 00be 0100     		.2byte	0x1
 8771 00c0 50       		.byte	0x50
 8772 00c1 32000000 		.4byte	.LVL16
 8773 00c5 4E000000 		.4byte	.LVL18
 8774 00c9 0100     		.2byte	0x1
 8775 00cb 54       		.byte	0x54
 8776 00cc 4E000000 		.4byte	.LVL18
 8777 00d0 5C000000 		.4byte	.LFE286
 8778 00d4 0400     		.2byte	0x4
 8779 00d6 F3       		.byte	0xf3
 8780 00d7 01       		.uleb128 0x1
 8781 00d8 50       		.byte	0x50
 8782 00d9 9F       		.byte	0x9f
 8783 00da 00000000 		.4byte	0
 8784 00de 00000000 		.4byte	0
 8785              	.LLST3:
 8786 00e2 02000000 		.4byte	.LVL8
 8787 00e6 32000000 		.4byte	.LVL16
 8788 00ea 0200     		.2byte	0x2
 8789 00ec 30       		.byte	0x30
 8790 00ed 9F       		.byte	0x9f
 8791 00ee 32000000 		.4byte	.LVL16
 8792 00f2 5C000000 		.4byte	.LFE286
 8793 00f6 0100     		.2byte	0x1
 8794 00f8 50       		.byte	0x50
 8795 00f9 00000000 		.4byte	0
 8796 00fd 00000000 		.4byte	0
 8797              	.LLST4:
 8798 0101 02000000 		.4byte	.LVL8
 8799 0105 0C000000 		.4byte	.LVL9
 8800 0109 0200     		.2byte	0x2
 8801 010b 30       		.byte	0x30
 8802 010c 9F       		.byte	0x9f
 8803 010d 0C000000 		.4byte	.LVL9
 8804 0111 2A000000 		.4byte	.LVL13
 8805 0115 0100     		.2byte	0x1
 8806 0117 51       		.byte	0x51
 8807 0118 2A000000 		.4byte	.LVL13
 8808 011c 30000000 		.4byte	.LVL15
 8809 0120 0200     		.2byte	0x2
 8810 0122 30       		.byte	0x30
 8811 0123 9F       		.byte	0x9f
 8812 0124 30000000 		.4byte	.LVL15
 8813 0128 5C000000 		.4byte	.LFE286
 8814 012c 0100     		.2byte	0x1
 8815 012e 51       		.byte	0x51
 8816 012f 00000000 		.4byte	0
 8817 0133 00000000 		.4byte	0
 8818              	.LLST5:
 8819 0137 0C000000 		.4byte	.LVL9
 8820 013b 2A000000 		.4byte	.LVL13
 8821 013f 0100     		.2byte	0x1
 8822 0141 53       		.byte	0x53
ARM GAS  C:\Users\gjl\AppData\Local\Temp\ccRZOvUj.s 			page 191


 8823 0142 30000000 		.4byte	.LVL15
 8824 0146 32000000 		.4byte	.LVL16
 8825 014a 0100     		.2byte	0x1
 8826 014c 53       		.byte	0x53
 8827 014d 00000000 		.4byte	0
 8828 0151 00000000 		.4byte	0
 8829              	.LLST6:
 8830 0155 00000000 		.4byte	.LVL19
 8831 0159 08000000 		.4byte	.LVL21
 8832 015d 0100     		.2byte	0x1
 8833 015f 50       		.byte	0x50
 8834 0160 08000000 		.4byte	.LVL21
 8835 0164 2E000000 		.4byte	.LVL26
 8836 0168 0100     		.2byte	0x1
 8837 016a 56       		.byte	0x56
 8838 016b 2E000000 		.4byte	.LVL26
 8839 016f 38000000 		.4byte	.LFE287
 8840 0173 0400     		.2byte	0x4
 8841 0175 F3       		.byte	0xf3
 8842 0176 01       		.uleb128 0x1
 8843 0177 50       		.byte	0x50
 8844 0178 9F       		.byte	0x9f
 8845 0179 00000000 		.4byte	0
 8846 017d 00000000 		.4byte	0
 8847              	.LLST7:
 8848 0181 00000000 		.4byte	.LVL19
 8849 0185 0C000000 		.4byte	.LVL22
 8850 0189 0100     		.2byte	0x1
 8851 018b 51       		.byte	0x51
 8852 018c 0C000000 		.4byte	.LVL22
 8853 0190 2E000000 		.4byte	.LVL26
 8854 0194 0100     		.2byte	0x1
 8855 0196 55       		.byte	0x55
 8856 0197 2E000000 		.4byte	.LVL26
 8857 019b 38000000 		.4byte	.LFE287
 8858 019f 0400     		.2byte	0x4
 8859 01a1 F3       		.byte	0xf3
 8860 01a2 01       		.uleb128 0x1
 8861 01a3 51       		.byte	0x51
 8862 01a4 9F       		.byte	0x9f
 8863 01a5 00000000 		.4byte	0
 8864 01a9 00000000 		.4byte	0
 8865              	.LLST8:
 8866 01ad 06000000 		.4byte	.LVL20
 8867 01b1 0C000000 		.4byte	.LVL22
 8868 01b5 0200     		.2byte	0x2
 8869 01b7 30       		.byte	0x30
 8870 01b8 9F       		.byte	0x9f
 8871 01b9 0C000000 		.4byte	.LVL22
 8872 01bd 2E000000 		.4byte	.LVL26
 8873 01c1 0100     		.2byte	0x1
 8874 01c3 54       		.byte	0x54
 8875 01c4 00000000 		.4byte	0
 8876 01c8 00000000 		.4byte	0
 8877              	.LLST9:
 8878 01cc 06000000 		.4byte	.LVL20
 8879 01d0 0C000000 		.4byte	.LVL22
ARM GAS  C:\Users\gjl\AppData\Local\Temp\ccRZOvUj.s 			page 192


 8880 01d4 0200     		.2byte	0x2
 8881 01d6 30       		.byte	0x30
 8882 01d7 9F       		.byte	0x9f
 8883 01d8 0C000000 		.4byte	.LVL22
 8884 01dc 16000000 		.4byte	.LVL23
 8885 01e0 0100     		.2byte	0x1
 8886 01e2 50       		.byte	0x50
 8887 01e3 18000000 		.4byte	.LVL24
 8888 01e7 38000000 		.4byte	.LFE287
 8889 01eb 0100     		.2byte	0x1
 8890 01ed 50       		.byte	0x50
 8891 01ee 00000000 		.4byte	0
 8892 01f2 00000000 		.4byte	0
 8893              	.LLST10:
 8894 01f6 00000000 		.4byte	.LVL27
 8895 01fa 06000000 		.4byte	.LVL28
 8896 01fe 0100     		.2byte	0x1
 8897 0200 50       		.byte	0x50
 8898 0201 06000000 		.4byte	.LVL28
 8899 0205 08000000 		.4byte	.LVL29
 8900 0209 0400     		.2byte	0x4
 8901 020b F3       		.byte	0xf3
 8902 020c 01       		.uleb128 0x1
 8903 020d 50       		.byte	0x50
 8904 020e 9F       		.byte	0x9f
 8905 020f 08000000 		.4byte	.LVL29
 8906 0213 18000000 		.4byte	.LVL33
 8907 0217 0100     		.2byte	0x1
 8908 0219 50       		.byte	0x50
 8909 021a 18000000 		.4byte	.LVL33
 8910 021e 1A000000 		.4byte	.LVL34
 8911 0222 0400     		.2byte	0x4
 8912 0224 F3       		.byte	0xf3
 8913 0225 01       		.uleb128 0x1
 8914 0226 50       		.byte	0x50
 8915 0227 9F       		.byte	0x9f
 8916 0228 1A000000 		.4byte	.LVL34
 8917 022c 1C000000 		.4byte	.LVL35
 8918 0230 0100     		.2byte	0x1
 8919 0232 50       		.byte	0x50
 8920 0233 1C000000 		.4byte	.LVL35
 8921 0237 1E000000 		.4byte	.LFE290
 8922 023b 0400     		.2byte	0x4
 8923 023d F3       		.byte	0xf3
 8924 023e 01       		.uleb128 0x1
 8925 023f 50       		.byte	0x50
 8926 0240 9F       		.byte	0x9f
 8927 0241 00000000 		.4byte	0
 8928 0245 00000000 		.4byte	0
 8929              	.LLST11:
 8930 0249 00000000 		.4byte	.LVL27
 8931 024d 1C000000 		.4byte	.LVL35
 8932 0251 0200     		.2byte	0x2
 8933 0253 30       		.byte	0x30
 8934 0254 9F       		.byte	0x9f
 8935 0255 1C000000 		.4byte	.LVL35
 8936 0259 1E000000 		.4byte	.LFE290
ARM GAS  C:\Users\gjl\AppData\Local\Temp\ccRZOvUj.s 			page 193


 8937 025d 0100     		.2byte	0x1
 8938 025f 50       		.byte	0x50
 8939 0260 00000000 		.4byte	0
 8940 0264 00000000 		.4byte	0
 8941              	.LLST12:
 8942 0268 08000000 		.4byte	.LVL29
 8943 026c 10000000 		.4byte	.LVL31
 8944 0270 0100     		.2byte	0x1
 8945 0272 53       		.byte	0x53
 8946 0273 12000000 		.4byte	.LVL32
 8947 0277 1E000000 		.4byte	.LFE290
 8948 027b 0100     		.2byte	0x1
 8949 027d 53       		.byte	0x53
 8950 027e 00000000 		.4byte	0
 8951 0282 00000000 		.4byte	0
 8952              	.LLST13:
 8953 0286 00000000 		.4byte	.LVL36
 8954 028a 0E010000 		.4byte	.LVL37
 8955 028e 0100     		.2byte	0x1
 8956 0290 50       		.byte	0x50
 8957 0291 0E010000 		.4byte	.LVL37
 8958 0295 C2010000 		.4byte	.LVL49
 8959 0299 0400     		.2byte	0x4
 8960 029b F3       		.byte	0xf3
 8961 029c 01       		.uleb128 0x1
 8962 029d 50       		.byte	0x50
 8963 029e 9F       		.byte	0x9f
 8964 029f C2010000 		.4byte	.LVL49
 8965 02a3 CE010000 		.4byte	.LVL52
 8966 02a7 0100     		.2byte	0x1
 8967 02a9 50       		.byte	0x50
 8968 02aa CE010000 		.4byte	.LVL52
 8969 02ae D8010000 		.4byte	.LVL55
 8970 02b2 0400     		.2byte	0x4
 8971 02b4 F3       		.byte	0xf3
 8972 02b5 01       		.uleb128 0x1
 8973 02b6 50       		.byte	0x50
 8974 02b7 9F       		.byte	0x9f
 8975 02b8 D8010000 		.4byte	.LVL55
 8976 02bc FE010000 		.4byte	.LVL56
 8977 02c0 0100     		.2byte	0x1
 8978 02c2 50       		.byte	0x50
 8979 02c3 FE010000 		.4byte	.LVL56
 8980 02c7 2C020000 		.4byte	.LVL59
 8981 02cb 0400     		.2byte	0x4
 8982 02cd F3       		.byte	0xf3
 8983 02ce 01       		.uleb128 0x1
 8984 02cf 50       		.byte	0x50
 8985 02d0 9F       		.byte	0x9f
 8986 02d1 2C020000 		.4byte	.LVL59
 8987 02d5 2F020000 		.4byte	.LVL60-1
 8988 02d9 0100     		.2byte	0x1
 8989 02db 50       		.byte	0x50
 8990 02dc 2F020000 		.4byte	.LVL60-1
 8991 02e0 32020000 		.4byte	.LVL61
 8992 02e4 0400     		.2byte	0x4
 8993 02e6 F3       		.byte	0xf3
ARM GAS  C:\Users\gjl\AppData\Local\Temp\ccRZOvUj.s 			page 194


 8994 02e7 01       		.uleb128 0x1
 8995 02e8 50       		.byte	0x50
 8996 02e9 9F       		.byte	0x9f
 8997 02ea 32020000 		.4byte	.LVL61
 8998 02ee 40020000 		.4byte	.LVL64
 8999 02f2 0100     		.2byte	0x1
 9000 02f4 50       		.byte	0x50
 9001 02f5 40020000 		.4byte	.LVL64
 9002 02f9 A4020000 		.4byte	.LVL71
 9003 02fd 0400     		.2byte	0x4
 9004 02ff F3       		.byte	0xf3
 9005 0300 01       		.uleb128 0x1
 9006 0301 50       		.byte	0x50
 9007 0302 9F       		.byte	0x9f
 9008 0303 A4020000 		.4byte	.LVL71
 9009 0307 D8020000 		.4byte	.LVL75
 9010 030b 0100     		.2byte	0x1
 9011 030d 50       		.byte	0x50
 9012 030e D8020000 		.4byte	.LVL75
 9013 0312 EE030000 		.4byte	.LVL91
 9014 0316 0400     		.2byte	0x4
 9015 0318 F3       		.byte	0xf3
 9016 0319 01       		.uleb128 0x1
 9017 031a 50       		.byte	0x50
 9018 031b 9F       		.byte	0x9f
 9019 031c EE030000 		.4byte	.LVL91
 9020 0320 F1030000 		.4byte	.LVL92-1
 9021 0324 0100     		.2byte	0x1
 9022 0326 50       		.byte	0x50
 9023 0327 F1030000 		.4byte	.LVL92-1
 9024 032b F4030000 		.4byte	.LVL93
 9025 032f 0400     		.2byte	0x4
 9026 0331 F3       		.byte	0xf3
 9027 0332 01       		.uleb128 0x1
 9028 0333 50       		.byte	0x50
 9029 0334 9F       		.byte	0x9f
 9030 0335 F4030000 		.4byte	.LVL93
 9031 0339 0E040000 		.4byte	.LVL98
 9032 033d 0100     		.2byte	0x1
 9033 033f 50       		.byte	0x50
 9034 0340 0E040000 		.4byte	.LVL98
 9035 0344 7C040000 		.4byte	.LVL105
 9036 0348 0400     		.2byte	0x4
 9037 034a F3       		.byte	0xf3
 9038 034b 01       		.uleb128 0x1
 9039 034c 50       		.byte	0x50
 9040 034d 9F       		.byte	0x9f
 9041 034e 7C040000 		.4byte	.LVL105
 9042 0352 87040000 		.4byte	.LVL106-1
 9043 0356 0100     		.2byte	0x1
 9044 0358 50       		.byte	0x50
 9045 0359 87040000 		.4byte	.LVL106-1
 9046 035d FC040000 		.4byte	.LVL115
 9047 0361 0400     		.2byte	0x4
 9048 0363 F3       		.byte	0xf3
 9049 0364 01       		.uleb128 0x1
 9050 0365 50       		.byte	0x50
ARM GAS  C:\Users\gjl\AppData\Local\Temp\ccRZOvUj.s 			page 195


 9051 0366 9F       		.byte	0x9f
 9052 0367 FC040000 		.4byte	.LVL115
 9053 036b FF040000 		.4byte	.LVL116-1
 9054 036f 0100     		.2byte	0x1
 9055 0371 50       		.byte	0x50
 9056 0372 FF040000 		.4byte	.LVL116-1
 9057 0376 02050000 		.4byte	.LVL117
 9058 037a 0400     		.2byte	0x4
 9059 037c F3       		.byte	0xf3
 9060 037d 01       		.uleb128 0x1
 9061 037e 50       		.byte	0x50
 9062 037f 9F       		.byte	0x9f
 9063 0380 02050000 		.4byte	.LVL117
 9064 0384 1E050000 		.4byte	.LVL122
 9065 0388 0100     		.2byte	0x1
 9066 038a 50       		.byte	0x50
 9067 038b 1E050000 		.4byte	.LVL122
 9068 038f 9C050000 		.4byte	.LVL128
 9069 0393 0400     		.2byte	0x4
 9070 0395 F3       		.byte	0xf3
 9071 0396 01       		.uleb128 0x1
 9072 0397 50       		.byte	0x50
 9073 0398 9F       		.byte	0x9f
 9074 0399 9C050000 		.4byte	.LVL128
 9075 039d B8050000 		.4byte	.LVL133
 9076 03a1 0100     		.2byte	0x1
 9077 03a3 50       		.byte	0x50
 9078 03a4 B8050000 		.4byte	.LVL133
 9079 03a8 CE050000 		.4byte	.LVL136
 9080 03ac 0400     		.2byte	0x4
 9081 03ae F3       		.byte	0xf3
 9082 03af 01       		.uleb128 0x1
 9083 03b0 50       		.byte	0x50
 9084 03b1 9F       		.byte	0x9f
 9085 03b2 CE050000 		.4byte	.LVL136
 9086 03b6 DC050000 		.4byte	.LVL137
 9087 03ba 0100     		.2byte	0x1
 9088 03bc 50       		.byte	0x50
 9089 03bd DC050000 		.4byte	.LVL137
 9090 03c1 E2050000 		.4byte	.LVL139
 9091 03c5 0400     		.2byte	0x4
 9092 03c7 F3       		.byte	0xf3
 9093 03c8 01       		.uleb128 0x1
 9094 03c9 50       		.byte	0x50
 9095 03ca 9F       		.byte	0x9f
 9096 03cb E2050000 		.4byte	.LVL139
 9097 03cf E4050000 		.4byte	.LVL140
 9098 03d3 0100     		.2byte	0x1
 9099 03d5 50       		.byte	0x50
 9100 03d6 E4050000 		.4byte	.LVL140
 9101 03da FE050000 		.4byte	.LVL146
 9102 03de 0400     		.2byte	0x4
 9103 03e0 F3       		.byte	0xf3
 9104 03e1 01       		.uleb128 0x1
 9105 03e2 50       		.byte	0x50
 9106 03e3 9F       		.byte	0x9f
 9107 03e4 FE050000 		.4byte	.LVL146
ARM GAS  C:\Users\gjl\AppData\Local\Temp\ccRZOvUj.s 			page 196


 9108 03e8 01060000 		.4byte	.LVL147-1
 9109 03ec 0100     		.2byte	0x1
 9110 03ee 50       		.byte	0x50
 9111 03ef 01060000 		.4byte	.LVL147-1
 9112 03f3 48060000 		.4byte	.LVL148
 9113 03f7 0400     		.2byte	0x4
 9114 03f9 F3       		.byte	0xf3
 9115 03fa 01       		.uleb128 0x1
 9116 03fb 50       		.byte	0x50
 9117 03fc 9F       		.byte	0x9f
 9118 03fd 48060000 		.4byte	.LVL148
 9119 0401 4B060000 		.4byte	.LVL149-1
 9120 0405 0100     		.2byte	0x1
 9121 0407 50       		.byte	0x50
 9122 0408 4B060000 		.4byte	.LVL149-1
 9123 040c 4E060000 		.4byte	.LVL150
 9124 0410 0400     		.2byte	0x4
 9125 0412 F3       		.byte	0xf3
 9126 0413 01       		.uleb128 0x1
 9127 0414 50       		.byte	0x50
 9128 0415 9F       		.byte	0x9f
 9129 0416 4E060000 		.4byte	.LVL150
 9130 041a 51060000 		.4byte	.LVL151-1
 9131 041e 0100     		.2byte	0x1
 9132 0420 50       		.byte	0x50
 9133 0421 51060000 		.4byte	.LVL151-1
 9134 0425 54060000 		.4byte	.LVL152
 9135 0429 0400     		.2byte	0x4
 9136 042b F3       		.byte	0xf3
 9137 042c 01       		.uleb128 0x1
 9138 042d 50       		.byte	0x50
 9139 042e 9F       		.byte	0x9f
 9140 042f 54060000 		.4byte	.LVL152
 9141 0433 57060000 		.4byte	.LVL153-1
 9142 0437 0100     		.2byte	0x1
 9143 0439 50       		.byte	0x50
 9144 043a 57060000 		.4byte	.LVL153-1
 9145 043e 5A060000 		.4byte	.LVL154
 9146 0442 0400     		.2byte	0x4
 9147 0444 F3       		.byte	0xf3
 9148 0445 01       		.uleb128 0x1
 9149 0446 50       		.byte	0x50
 9150 0447 9F       		.byte	0x9f
 9151 0448 5A060000 		.4byte	.LVL154
 9152 044c 5C060000 		.4byte	.LVL155
 9153 0450 0100     		.2byte	0x1
 9154 0452 50       		.byte	0x50
 9155 0453 5C060000 		.4byte	.LVL155
 9156 0457 6A060000 		.4byte	.LVL158
 9157 045b 0400     		.2byte	0x4
 9158 045d F3       		.byte	0xf3
 9159 045e 01       		.uleb128 0x1
 9160 045f 50       		.byte	0x50
 9161 0460 9F       		.byte	0x9f
 9162 0461 6A060000 		.4byte	.LVL158
 9163 0465 74060000 		.4byte	.LVL159
 9164 0469 0100     		.2byte	0x1
ARM GAS  C:\Users\gjl\AppData\Local\Temp\ccRZOvUj.s 			page 197


 9165 046b 50       		.byte	0x50
 9166 046c 74060000 		.4byte	.LVL159
 9167 0470 A4060000 		.4byte	.LFE293
 9168 0474 0400     		.2byte	0x4
 9169 0476 F3       		.byte	0xf3
 9170 0477 01       		.uleb128 0x1
 9171 0478 50       		.byte	0x50
 9172 0479 9F       		.byte	0x9f
 9173 047a 00000000 		.4byte	0
 9174 047e 00000000 		.4byte	0
 9175              	.LLST14:
 9176 0482 00000000 		.4byte	.LVL36
 9177 0486 11010000 		.4byte	.LVL38-1
 9178 048a 0100     		.2byte	0x1
 9179 048c 51       		.byte	0x51
 9180 048d 11010000 		.4byte	.LVL38-1
 9181 0491 C2010000 		.4byte	.LVL49
 9182 0495 0100     		.2byte	0x1
 9183 0497 55       		.byte	0x55
 9184 0498 C2010000 		.4byte	.LVL49
 9185 049c D1010000 		.4byte	.LVL53-1
 9186 04a0 0100     		.2byte	0x1
 9187 04a2 51       		.byte	0x51
 9188 04a3 D1010000 		.4byte	.LVL53-1
 9189 04a7 D8010000 		.4byte	.LVL55
 9190 04ab 0100     		.2byte	0x1
 9191 04ad 55       		.byte	0x55
 9192 04ae D8010000 		.4byte	.LVL55
 9193 04b2 01020000 		.4byte	.LVL57-1
 9194 04b6 0100     		.2byte	0x1
 9195 04b8 51       		.byte	0x51
 9196 04b9 01020000 		.4byte	.LVL57-1
 9197 04bd 2C020000 		.4byte	.LVL59
 9198 04c1 0100     		.2byte	0x1
 9199 04c3 55       		.byte	0x55
 9200 04c4 2C020000 		.4byte	.LVL59
 9201 04c8 2F020000 		.4byte	.LVL60-1
 9202 04cc 0100     		.2byte	0x1
 9203 04ce 51       		.byte	0x51
 9204 04cf 2F020000 		.4byte	.LVL60-1
 9205 04d3 32020000 		.4byte	.LVL61
 9206 04d7 0100     		.2byte	0x1
 9207 04d9 55       		.byte	0x55
 9208 04da 32020000 		.4byte	.LVL61
 9209 04de 34020000 		.4byte	.LVL62
 9210 04e2 0100     		.2byte	0x1
 9211 04e4 51       		.byte	0x51
 9212 04e5 34020000 		.4byte	.LVL62
 9213 04e9 A4020000 		.4byte	.LVL71
 9214 04ed 0100     		.2byte	0x1
 9215 04ef 55       		.byte	0x55
 9216 04f0 A4020000 		.4byte	.LVL71
 9217 04f4 CC020000 		.4byte	.LVL73
 9218 04f8 0100     		.2byte	0x1
 9219 04fa 51       		.byte	0x51
 9220 04fb CC020000 		.4byte	.LVL73
 9221 04ff EE030000 		.4byte	.LVL91
ARM GAS  C:\Users\gjl\AppData\Local\Temp\ccRZOvUj.s 			page 198


 9222 0503 0100     		.2byte	0x1
 9223 0505 55       		.byte	0x55
 9224 0506 EE030000 		.4byte	.LVL91
 9225 050a F1030000 		.4byte	.LVL92-1
 9226 050e 0100     		.2byte	0x1
 9227 0510 51       		.byte	0x51
 9228 0511 F1030000 		.4byte	.LVL92-1
 9229 0515 F4030000 		.4byte	.LVL93
 9230 0519 0100     		.2byte	0x1
 9231 051b 55       		.byte	0x55
 9232 051c F4030000 		.4byte	.LVL93
 9233 0520 02040000 		.4byte	.LVL96
 9234 0524 0100     		.2byte	0x1
 9235 0526 51       		.byte	0x51
 9236 0527 02040000 		.4byte	.LVL96
 9237 052b 7C040000 		.4byte	.LVL105
 9238 052f 0100     		.2byte	0x1
 9239 0531 55       		.byte	0x55
 9240 0532 7C040000 		.4byte	.LVL105
 9241 0536 87040000 		.4byte	.LVL106-1
 9242 053a 0100     		.2byte	0x1
 9243 053c 51       		.byte	0x51
 9244 053d 87040000 		.4byte	.LVL106-1
 9245 0541 FC040000 		.4byte	.LVL115
 9246 0545 0100     		.2byte	0x1
 9247 0547 55       		.byte	0x55
 9248 0548 FC040000 		.4byte	.LVL115
 9249 054c FF040000 		.4byte	.LVL116-1
 9250 0550 0100     		.2byte	0x1
 9251 0552 51       		.byte	0x51
 9252 0553 FF040000 		.4byte	.LVL116-1
 9253 0557 02050000 		.4byte	.LVL117
 9254 055b 0100     		.2byte	0x1
 9255 055d 55       		.byte	0x55
 9256 055e 02050000 		.4byte	.LVL117
 9257 0562 10050000 		.4byte	.LVL119
 9258 0566 0100     		.2byte	0x1
 9259 0568 51       		.byte	0x51
 9260 0569 10050000 		.4byte	.LVL119
 9261 056d 16050000 		.4byte	.LVL120
 9262 0571 0100     		.2byte	0x1
 9263 0573 55       		.byte	0x55
 9264 0574 16050000 		.4byte	.LVL120
 9265 0578 1C050000 		.4byte	.LVL121
 9266 057c 0100     		.2byte	0x1
 9267 057e 51       		.byte	0x51
 9268 057f 1C050000 		.4byte	.LVL121
 9269 0583 9C050000 		.4byte	.LVL128
 9270 0587 0100     		.2byte	0x1
 9271 0589 55       		.byte	0x55
 9272 058a 9C050000 		.4byte	.LVL128
 9273 058e AA050000 		.4byte	.LVL130
 9274 0592 0100     		.2byte	0x1
 9275 0594 51       		.byte	0x51
 9276 0595 AA050000 		.4byte	.LVL130
 9277 0599 B0050000 		.4byte	.LVL131
 9278 059d 0100     		.2byte	0x1
ARM GAS  C:\Users\gjl\AppData\Local\Temp\ccRZOvUj.s 			page 199


 9279 059f 55       		.byte	0x55
 9280 05a0 B0050000 		.4byte	.LVL131
 9281 05a4 B6050000 		.4byte	.LVL132
 9282 05a8 0100     		.2byte	0x1
 9283 05aa 51       		.byte	0x51
 9284 05ab B6050000 		.4byte	.LVL132
 9285 05af CE050000 		.4byte	.LVL136
 9286 05b3 0100     		.2byte	0x1
 9287 05b5 55       		.byte	0x55
 9288 05b6 CE050000 		.4byte	.LVL136
 9289 05ba DF050000 		.4byte	.LVL138-1
 9290 05be 0100     		.2byte	0x1
 9291 05c0 51       		.byte	0x51
 9292 05c1 DF050000 		.4byte	.LVL138-1
 9293 05c5 E2050000 		.4byte	.LVL139
 9294 05c9 0100     		.2byte	0x1
 9295 05cb 55       		.byte	0x55
 9296 05cc E2050000 		.4byte	.LVL139
 9297 05d0 E7050000 		.4byte	.LVL141-1
 9298 05d4 0100     		.2byte	0x1
 9299 05d6 51       		.byte	0x51
 9300 05d7 E7050000 		.4byte	.LVL141-1
 9301 05db FE050000 		.4byte	.LVL146
 9302 05df 0100     		.2byte	0x1
 9303 05e1 55       		.byte	0x55
 9304 05e2 FE050000 		.4byte	.LVL146
 9305 05e6 01060000 		.4byte	.LVL147-1
 9306 05ea 0100     		.2byte	0x1
 9307 05ec 51       		.byte	0x51
 9308 05ed 01060000 		.4byte	.LVL147-1
 9309 05f1 48060000 		.4byte	.LVL148
 9310 05f5 0100     		.2byte	0x1
 9311 05f7 55       		.byte	0x55
 9312 05f8 48060000 		.4byte	.LVL148
 9313 05fc 4B060000 		.4byte	.LVL149-1
 9314 0600 0100     		.2byte	0x1
 9315 0602 51       		.byte	0x51
 9316 0603 4B060000 		.4byte	.LVL149-1
 9317 0607 4E060000 		.4byte	.LVL150
 9318 060b 0100     		.2byte	0x1
 9319 060d 55       		.byte	0x55
 9320 060e 4E060000 		.4byte	.LVL150
 9321 0612 51060000 		.4byte	.LVL151-1
 9322 0616 0100     		.2byte	0x1
 9323 0618 51       		.byte	0x51
 9324 0619 51060000 		.4byte	.LVL151-1
 9325 061d 54060000 		.4byte	.LVL152
 9326 0621 0100     		.2byte	0x1
 9327 0623 55       		.byte	0x55
 9328 0624 54060000 		.4byte	.LVL152
 9329 0628 57060000 		.4byte	.LVL153-1
 9330 062c 0100     		.2byte	0x1
 9331 062e 51       		.byte	0x51
 9332 062f 57060000 		.4byte	.LVL153-1
 9333 0633 5A060000 		.4byte	.LVL154
 9334 0637 0100     		.2byte	0x1
 9335 0639 55       		.byte	0x55
ARM GAS  C:\Users\gjl\AppData\Local\Temp\ccRZOvUj.s 			page 200


 9336 063a 5A060000 		.4byte	.LVL154
 9337 063e 5F060000 		.4byte	.LVL156-1
 9338 0642 0100     		.2byte	0x1
 9339 0644 51       		.byte	0x51
 9340 0645 5F060000 		.4byte	.LVL156-1
 9341 0649 6A060000 		.4byte	.LVL158
 9342 064d 0100     		.2byte	0x1
 9343 064f 55       		.byte	0x55
 9344 0650 6A060000 		.4byte	.LVL158
 9345 0654 74060000 		.4byte	.LVL159
 9346 0658 0100     		.2byte	0x1
 9347 065a 51       		.byte	0x51
 9348 065b 74060000 		.4byte	.LVL159
 9349 065f 96060000 		.4byte	.LVL161
 9350 0663 0100     		.2byte	0x1
 9351 0665 55       		.byte	0x55
 9352 0666 96060000 		.4byte	.LVL161
 9353 066a A4060000 		.4byte	.LFE293
 9354 066e 0400     		.2byte	0x4
 9355 0670 F3       		.byte	0xf3
 9356 0671 01       		.uleb128 0x1
 9357 0672 51       		.byte	0x51
 9358 0673 9F       		.byte	0x9f
 9359 0674 00000000 		.4byte	0
 9360 0678 00000000 		.4byte	0
 9361              	.LLST15:
 9362 067c 68010000 		.4byte	.LVL42
 9363 0680 7E010000 		.4byte	.LVL43
 9364 0684 0100     		.2byte	0x1
 9365 0686 53       		.byte	0x53
 9366 0687 00000000 		.4byte	0
 9367 068b 00000000 		.4byte	0
 9368              	.LLST16:
 9369 068f C8010000 		.4byte	.LVL50
 9370 0693 CC010000 		.4byte	.LVL51
 9371 0697 0200     		.2byte	0x2
 9372 0699 30       		.byte	0x30
 9373 069a 9F       		.byte	0x9f
 9374 069b 00000000 		.4byte	0
 9375 069f 00000000 		.4byte	0
 9376              	.LLST17:
 9377 06a3 34020000 		.4byte	.LVL62
 9378 06a7 86020000 		.4byte	.LVL69
 9379 06ab 0100     		.2byte	0x1
 9380 06ad 51       		.byte	0x51
 9381 06ae 00000000 		.4byte	0
 9382 06b2 00000000 		.4byte	0
 9383              	.LLST18:
 9384 06b6 3C020000 		.4byte	.LVL63
 9385 06ba 40020000 		.4byte	.LVL64
 9386 06be 0200     		.2byte	0x2
 9387 06c0 30       		.byte	0x30
 9388 06c1 9F       		.byte	0x9f
 9389 06c2 40020000 		.4byte	.LVL64
 9390 06c6 6C020000 		.4byte	.LVL65
 9391 06ca 0100     		.2byte	0x1
 9392 06cc 53       		.byte	0x53
ARM GAS  C:\Users\gjl\AppData\Local\Temp\ccRZOvUj.s 			page 201


 9393 06cd 72020000 		.4byte	.LVL66
 9394 06d1 78020000 		.4byte	.LVL68
 9395 06d5 0100     		.2byte	0x1
 9396 06d7 53       		.byte	0x53
 9397 06d8 00000000 		.4byte	0
 9398 06dc 00000000 		.4byte	0
 9399              	.LLST19:
 9400 06e0 A4020000 		.4byte	.LVL71
 9401 06e4 CA020000 		.4byte	.LVL72
 9402 06e8 0100     		.2byte	0x1
 9403 06ea 51       		.byte	0x51
 9404 06eb 00000000 		.4byte	0
 9405 06ef 00000000 		.4byte	0
 9406              	.LLST20:
 9407 06f3 CC020000 		.4byte	.LVL73
 9408 06f7 58030000 		.4byte	.LVL80
 9409 06fb 0100     		.2byte	0x1
 9410 06fd 51       		.byte	0x51
 9411 06fe 00000000 		.4byte	0
 9412 0702 00000000 		.4byte	0
 9413              	.LLST21:
 9414 0706 D4020000 		.4byte	.LVL74
 9415 070a D8020000 		.4byte	.LVL75
 9416 070e 0200     		.2byte	0x2
 9417 0710 30       		.byte	0x30
 9418 0711 9F       		.byte	0x9f
 9419 0712 D8020000 		.4byte	.LVL75
 9420 0716 3E030000 		.4byte	.LVL76
 9421 071a 0100     		.2byte	0x1
 9422 071c 53       		.byte	0x53
 9423 071d 44030000 		.4byte	.LVL77
 9424 0721 4A030000 		.4byte	.LVL79
 9425 0725 0100     		.2byte	0x1
 9426 0727 53       		.byte	0x53
 9427 0728 00000000 		.4byte	0
 9428 072c 00000000 		.4byte	0
 9429              	.LLST22:
 9430 0730 7E030000 		.4byte	.LVL82
 9431 0734 D0030000 		.4byte	.LVL89
 9432 0738 0100     		.2byte	0x1
 9433 073a 51       		.byte	0x51
 9434 073b 00000000 		.4byte	0
 9435 073f 00000000 		.4byte	0
 9436              	.LLST23:
 9437 0743 86030000 		.4byte	.LVL83
 9438 0747 8A030000 		.4byte	.LVL84
 9439 074b 0200     		.2byte	0x2
 9440 074d 30       		.byte	0x30
 9441 074e 9F       		.byte	0x9f
 9442 074f 8A030000 		.4byte	.LVL84
 9443 0753 B6030000 		.4byte	.LVL85
 9444 0757 0100     		.2byte	0x1
 9445 0759 53       		.byte	0x53
 9446 075a BC030000 		.4byte	.LVL86
 9447 075e C2030000 		.4byte	.LVL88
 9448 0762 0100     		.2byte	0x1
 9449 0764 53       		.byte	0x53
ARM GAS  C:\Users\gjl\AppData\Local\Temp\ccRZOvUj.s 			page 202


 9450 0765 00000000 		.4byte	0
 9451 0769 00000000 		.4byte	0
 9452              	.LLST24:
 9453 076d F4030000 		.4byte	.LVL93
 9454 0771 02040000 		.4byte	.LVL96
 9455 0775 0100     		.2byte	0x1
 9456 0777 51       		.byte	0x51
 9457 0778 02040000 		.4byte	.LVL96
 9458 077c 7C040000 		.4byte	.LVL105
 9459 0780 0100     		.2byte	0x1
 9460 0782 55       		.byte	0x55
 9461 0783 00000000 		.4byte	0
 9462 0787 00000000 		.4byte	0
 9463              	.LLST25:
 9464 078b FA030000 		.4byte	.LVL94
 9465 078f 00040000 		.4byte	.LVL95
 9466 0793 0200     		.2byte	0x2
 9467 0795 30       		.byte	0x30
 9468 0796 9F       		.byte	0x9f
 9469 0797 00000000 		.4byte	0
 9470 079b 00000000 		.4byte	0
 9471              	.LLST26:
 9472 079f 00040000 		.4byte	.LVL95
 9473 07a3 02040000 		.4byte	.LVL96
 9474 07a7 0100     		.2byte	0x1
 9475 07a9 51       		.byte	0x51
 9476 07aa 02040000 		.4byte	.LVL96
 9477 07ae 7C040000 		.4byte	.LVL105
 9478 07b2 0100     		.2byte	0x1
 9479 07b4 55       		.byte	0x55
 9480 07b5 00000000 		.4byte	0
 9481 07b9 00000000 		.4byte	0
 9482              	.LLST27:
 9483 07bd 02040000 		.4byte	.LVL96
 9484 07c1 54040000 		.4byte	.LVL103
 9485 07c5 0100     		.2byte	0x1
 9486 07c7 51       		.byte	0x51
 9487 07c8 00000000 		.4byte	0
 9488 07cc 00000000 		.4byte	0
 9489              	.LLST28:
 9490 07d0 0A040000 		.4byte	.LVL97
 9491 07d4 0E040000 		.4byte	.LVL98
 9492 07d8 0200     		.2byte	0x2
 9493 07da 30       		.byte	0x30
 9494 07db 9F       		.byte	0x9f
 9495 07dc 0E040000 		.4byte	.LVL98
 9496 07e0 3A040000 		.4byte	.LVL99
 9497 07e4 0100     		.2byte	0x1
 9498 07e6 53       		.byte	0x53
 9499 07e7 40040000 		.4byte	.LVL100
 9500 07eb 46040000 		.4byte	.LVL102
 9501 07ef 0100     		.2byte	0x1
 9502 07f1 53       		.byte	0x53
 9503 07f2 00000000 		.4byte	0
 9504 07f6 00000000 		.4byte	0
 9505              	.LLST29:
 9506 07fa 9C040000 		.4byte	.LVL107
ARM GAS  C:\Users\gjl\AppData\Local\Temp\ccRZOvUj.s 			page 203


 9507 07fe A4040000 		.4byte	.LVL108
 9508 0802 0200     		.2byte	0x2
 9509 0804 32       		.byte	0x32
 9510 0805 9F       		.byte	0x9f
 9511 0806 00000000 		.4byte	0
 9512 080a 00000000 		.4byte	0
 9513              	.LLST30:
 9514 080e A8040000 		.4byte	.LVL109
 9515 0812 B0040000 		.4byte	.LVL110
 9516 0816 0200     		.2byte	0x2
 9517 0818 30       		.byte	0x30
 9518 0819 9F       		.byte	0x9f
 9519 081a 00000000 		.4byte	0
 9520 081e 00000000 		.4byte	0
 9521              	.LLST31:
 9522 0822 B6040000 		.4byte	.LVL111
 9523 0826 BC040000 		.4byte	.LVL112
 9524 082a 0200     		.2byte	0x2
 9525 082c 30       		.byte	0x30
 9526 082d 9F       		.byte	0x9f
 9527 082e 00000000 		.4byte	0
 9528 0832 00000000 		.4byte	0
 9529              	.LLST32:
 9530 0836 F4040000 		.4byte	.LVL114
 9531 083a FC040000 		.4byte	.LVL115
 9532 083e 0200     		.2byte	0x2
 9533 0840 31       		.byte	0x31
 9534 0841 9F       		.byte	0x9f
 9535 0842 00000000 		.4byte	0
 9536 0846 00000000 		.4byte	0
 9537              	.LLST33:
 9538 084a 08050000 		.4byte	.LVL118
 9539 084e 22050000 		.4byte	.LVL123
 9540 0852 0200     		.2byte	0x2
 9541 0854 32       		.byte	0x32
 9542 0855 9F       		.byte	0x9f
 9543 0856 00000000 		.4byte	0
 9544 085a 00000000 		.4byte	0
 9545              	.LLST34:
 9546 085e 6A050000 		.4byte	.LVL124
 9547 0862 80050000 		.4byte	.LVL125
 9548 0866 0100     		.2byte	0x1
 9549 0868 50       		.byte	0x50
 9550 0869 00000000 		.4byte	0
 9551 086d 00000000 		.4byte	0
 9552              	.LLST35:
 9553 0871 A2050000 		.4byte	.LVL129
 9554 0875 BC050000 		.4byte	.LVL134
 9555 0879 0200     		.2byte	0x2
 9556 087b 30       		.byte	0x30
 9557 087c 9F       		.byte	0x9f
 9558 087d 00000000 		.4byte	0
 9559 0881 00000000 		.4byte	0
 9560              	.LLST36:
 9561 0885 E8050000 		.4byte	.LVL141
 9562 0889 F0050000 		.4byte	.LVL142
 9563 088d 0100     		.2byte	0x1
ARM GAS  C:\Users\gjl\AppData\Local\Temp\ccRZOvUj.s 			page 204


 9564 088f 50       		.byte	0x50
 9565 0890 F6050000 		.4byte	.LVL144
 9566 0894 FB050000 		.4byte	.LVL145-1
 9567 0898 0100     		.2byte	0x1
 9568 089a 51       		.byte	0x51
 9569 089b 00000000 		.4byte	0
 9570 089f 00000000 		.4byte	0
 9571              		.section	.debug_aranges,"",%progbits
 9572 0000 3C000000 		.4byte	0x3c
 9573 0004 0200     		.2byte	0x2
 9574 0006 00000000 		.4byte	.Ldebug_info0
 9575 000a 04       		.byte	0x4
 9576 000b 00       		.byte	0
 9577 000c 0000     		.2byte	0
 9578 000e 0000     		.2byte	0
 9579 0010 00000000 		.4byte	.LFB288
 9580 0014 40000000 		.4byte	.LFE288-.LFB288
 9581 0018 00000000 		.4byte	.LFB286
 9582 001c 5C000000 		.4byte	.LFE286-.LFB286
 9583 0020 00000000 		.4byte	.LFB287
 9584 0024 38000000 		.4byte	.LFE287-.LFB287
 9585 0028 00000000 		.4byte	.LFB290
 9586 002c 1E000000 		.4byte	.LFE290-.LFB290
 9587 0030 00000000 		.4byte	.LFB293
 9588 0034 A4060000 		.4byte	.LFE293-.LFB293
 9589 0038 00000000 		.4byte	0
 9590 003c 00000000 		.4byte	0
 9591              		.section	.debug_ranges,"",%progbits
 9592              	.Ldebug_ranges0:
 9593 0000 0C000000 		.4byte	.LBB39
 9594 0004 26000000 		.4byte	.LBE39
 9595 0008 28000000 		.4byte	.LBB40
 9596 000c 2A000000 		.4byte	.LBE40
 9597 0010 00000000 		.4byte	0
 9598 0014 00000000 		.4byte	0
 9599 0018 00000000 		.4byte	.LFB288
 9600 001c 40000000 		.4byte	.LFE288
 9601 0020 00000000 		.4byte	.LFB286
 9602 0024 5C000000 		.4byte	.LFE286
 9603 0028 00000000 		.4byte	.LFB287
 9604 002c 38000000 		.4byte	.LFE287
 9605 0030 00000000 		.4byte	.LFB290
 9606 0034 1E000000 		.4byte	.LFE290
 9607 0038 00000000 		.4byte	.LFB293
 9608 003c A4060000 		.4byte	.LFE293
 9609 0040 00000000 		.4byte	0
 9610 0044 00000000 		.4byte	0
 9611              		.section	.debug_line,"",%progbits
 9612              	.Ldebug_line0:
 9613 0000 06060000 		.section	.debug_str,"MS",%progbits,1
 9613      0200E403 
 9613      00000201 
 9613      FB0E0D00 
 9613      01010101 
 9614              	.LASF601:
 9615 0000 63795F73 		.ascii	"cy_stc_ble_gap_auth_info_t\000"
 9615      74635F62 
ARM GAS  C:\Users\gjl\AppData\Local\Temp\ccRZOvUj.s 			page 205


 9615      6C655F67 
 9615      61705F61 
 9615      7574685F 
 9616              	.LASF274:
 9617 001b 52544F43 		.ascii	"RTOC2_MAGIC_NUMBER\000"
 9617      325F4D41 
 9617      4749435F 
 9617      4E554D42 
 9617      455200
 9618              	.LASF1:
 9619 002e 6C6F6E67 		.ascii	"long long int\000"
 9619      206C6F6E 
 9619      6720696E 
 9619      7400
 9620              	.LASF496:
 9621 003c 43595F42 		.ascii	"CY_BLE_GATT_WRITE_REQ\000"
 9621      4C455F47 
 9621      4154545F 
 9621      57524954 
 9621      455F5245 
 9622              	.LASF894:
 9623 0052 43595F42 		.ascii	"CY_BLE_EVT_GLSC_READ_CHAR_RESPONSE\000"
 9623      4C455F45 
 9623      56545F47 
 9623      4C53435F 
 9623      52454144 
 9624              	.LASF509:
 9625 0075 43595F42 		.ascii	"CY_BLE_GATT_ERR_NONE\000"
 9625      4C455F47 
 9625      4154545F 
 9625      4552525F 
 9625      4E4F4E45 
 9626              	.LASF839:
 9627 008a 43595F42 		.ascii	"CY_BLE_EVT_CPSS_INDICATION_DISABLED\000"
 9627      4C455F45 
 9627      56545F43 
 9627      5053535F 
 9627      494E4449 
 9628              	.LASF473:
 9629 00ae 636F6E6E 		.ascii	"connHandle\000"
 9629      48616E64 
 9629      6C6500
 9630              	.LASF637:
 9631 00b9 63795F73 		.ascii	"cy_stc_ble_gapp_disc_param_t\000"
 9631      74635F62 
 9631      6C655F67 
 9631      6170705F 
 9631      64697363 
 9632              	.LASF73:
 9633 00d6 7363625F 		.ascii	"scb_2_interrupt_IRQn\000"
 9633      325F696E 
 9633      74657272 
 9633      7570745F 
 9633      4952516E 
 9634              	.LASF794:
 9635 00eb 43595F42 		.ascii	"CY_BLE_EVT_ANSC_WRITE_CHAR_RESPONSE\000"
 9635      4C455F45 
ARM GAS  C:\Users\gjl\AppData\Local\Temp\ccRZOvUj.s 			page 206


 9635      56545F41 
 9635      4E53435F 
 9635      57524954 
 9636              	.LASF163:
 9637 010f 7564625F 		.ascii	"udb_interrupts_11_IRQn\000"
 9637      696E7465 
 9637      72727570 
 9637      74735F31 
 9637      315F4952 
 9638              	.LASF1032:
 9639 0126 43595F42 		.ascii	"CY_BLE_EVT_WPTSC_INDICATION\000"
 9639      4C455F45 
 9639      56545F57 
 9639      50545343 
 9639      5F494E44 
 9640              	.LASF821:
 9641 0142 43595F42 		.ascii	"CY_BLE_EVT_BMSC_READ_CHAR_RESPONSE\000"
 9641      4C455F45 
 9641      56545F42 
 9641      4D53435F 
 9641      52454144 
 9642              	.LASF310:
 9643 0165 43595F42 		.ascii	"CY_BLE_EVT_GET_PEER_RPA_COMPLETE\000"
 9643      4C455F45 
 9643      56545F47 
 9643      45545F50 
 9643      4545525F 
 9644              	.LASF823:
 9645 0186 43595F42 		.ascii	"CY_BLE_EVT_BMSC_READ_DESCR_RESPONSE\000"
 9645      4C455F45 
 9645      56545F42 
 9645      4D53435F 
 9645      52454144 
 9646              	.LASF560:
 9647 01aa 65727249 		.ascii	"errInfo\000"
 9647      6E666F00 
 9648              	.LASF12:
 9649 01b2 6C6F6E67 		.ascii	"long unsigned int\000"
 9649      20756E73 
 9649      69676E65 
 9649      6420696E 
 9649      7400
 9650              	.LASF75:
 9651 01c4 7363625F 		.ascii	"scb_4_interrupt_IRQn\000"
 9651      345F696E 
 9651      74657272 
 9651      7570745F 
 9651      4952516E 
 9652              	.LASF1080:
 9653 01d9 626C6553 		.ascii	"bleSsPowerLevel\000"
 9653      73506F77 
 9653      65724C65 
 9653      76656C00 
 9654              	.LASF971:
 9655 01e9 43595F42 		.ascii	"CY_BLE_EVT_PASSC_WRITE_DESCR_RESPONSE\000"
 9655      4C455F45 
 9655      56545F50 
ARM GAS  C:\Users\gjl\AppData\Local\Temp\ccRZOvUj.s 			page 207


 9655      41535343 
 9655      5F575249 
 9656              	.LASF855:
 9657 020f 43595F42 		.ascii	"CY_BLE_EVT_CSCSS_INDICATION_DISABLED\000"
 9657      4C455F45 
 9657      56545F43 
 9657      53435353 
 9657      5F494E44 
 9658              	.LASF488:
 9659 0234 43595F42 		.ascii	"CY_BLE_GATT_READ_REQ\000"
 9659      4C455F47 
 9659      4154545F 
 9659      52454144 
 9659      5F524551 
 9660              	.LASF463:
 9661 0249 61747449 		.ascii	"attId\000"
 9661      6400
 9662              	.LASF1130:
 9663 024f 43795F42 		.ascii	"Cy_BLE_EventHandler\000"
 9663      4C455F45 
 9663      76656E74 
 9663      48616E64 
 9663      6C657200 
 9664              	.LASF1123:
 9665 0263 43795F42 		.ascii	"Cy_BLE_GAPP_StartAdvertisement\000"
 9665      4C455F47 
 9665      4150505F 
 9665      53746172 
 9665      74416476 
 9666              	.LASF222:
 9667 0282 52455345 		.ascii	"RESERVED10\000"
 9667      52564544 
 9667      313000
 9668              	.LASF228:
 9669 028d 52455345 		.ascii	"RESERVED11\000"
 9669      52564544 
 9669      313100
 9670              	.LASF235:
 9671 0298 52455345 		.ascii	"RESERVED12\000"
 9671      52564544 
 9671      313200
 9672              	.LASF237:
 9673 02a3 52455345 		.ascii	"RESERVED13\000"
 9673      52564544 
 9673      313300
 9674              	.LASF240:
 9675 02ae 52455345 		.ascii	"RESERVED14\000"
 9675      52564544 
 9675      313400
 9676              	.LASF249:
 9677 02b9 52455345 		.ascii	"RESERVED15\000"
 9677      52564544 
 9677      313500
 9678              	.LASF258:
 9679 02c4 52455345 		.ascii	"RESERVED16\000"
 9679      52564544 
 9679      313600
ARM GAS  C:\Users\gjl\AppData\Local\Temp\ccRZOvUj.s 			page 208


 9680              	.LASF270:
 9681 02cf 52455345 		.ascii	"RESERVED17\000"
 9681      52564544 
 9681      313700
 9682              	.LASF283:
 9683 02da 52455345 		.ascii	"RESERVED18\000"
 9683      52564544 
 9683      313800
 9684              	.LASF1118:
 9685 02e5 43795F42 		.ascii	"Cy_BLE_GAP_SetBdAddress\000"
 9685      4C455F47 
 9685      41505F53 
 9685      65744264 
 9685      41646472 
 9686              	.LASF77:
 9687 02fd 7363625F 		.ascii	"scb_6_interrupt_IRQn\000"
 9687      365F696E 
 9687      74657272 
 9687      7570745F 
 9687      4952516E 
 9688              	.LASF38:
 9689 0312 696F7373 		.ascii	"ioss_interrupts_gpio_8_IRQn\000"
 9689      5F696E74 
 9689      65727275 
 9689      7074735F 
 9689      6770696F 
 9690              	.LASF481:
 9691 032e 43595F42 		.ascii	"CY_BLE_GATT_XCHNG_MTU_RSP\000"
 9691      4C455F47 
 9691      4154545F 
 9691      5843484E 
 9691      475F4D54 
 9692              	.LASF139:
 9693 0348 74637077 		.ascii	"tcpwm_1_interrupts_11_IRQn\000"
 9693      6D5F315F 
 9693      696E7465 
 9693      72727570 
 9693      74735F31 
 9694              	.LASF477:
 9695 0363 74696D65 		.ascii	"timerHandle\000"
 9695      7248616E 
 9695      646C6500 
 9696              	.LASF650:
 9697 036f 43595F42 		.ascii	"CY_BLE_STATE_ON\000"
 9697      4C455F53 
 9697      54415445 
 9697      5F4F4E00 
 9698              	.LASF390:
 9699 037f 43595F42 		.ascii	"CY_BLE_EVT_GATTC_HANDLE_VALUE_IND\000"
 9699      4C455F45 
 9699      56545F47 
 9699      41545443 
 9699      5F48414E 
 9700              	.LASF48:
 9701 03a1 7363625F 		.ascii	"scb_8_interrupt_IRQn\000"
 9701      385F696E 
 9701      74657272 
ARM GAS  C:\Users\gjl\AppData\Local\Temp\ccRZOvUj.s 			page 209


 9701      7570745F 
 9701      4952516E 
 9702              	.LASF480:
 9703 03b6 43595F42 		.ascii	"CY_BLE_GATT_XCNHG_MTU_REQ\000"
 9703      4C455F47 
 9703      4154545F 
 9703      58434E48 
 9703      475F4D54 
 9704              	.LASF284:
 9705 03d0 52544F43 		.ascii	"RTOC2_FLAGS\000"
 9705      325F464C 
 9705      41475300 
 9706              	.LASF762:
 9707 03dc 43595F42 		.ascii	"CY_BLE_EVT_GATTC_SRVC_DISCOVERY_COMPLETE\000"
 9707      4C455F45 
 9707      56545F47 
 9707      41545443 
 9707      5F535256 
 9708              	.LASF331:
 9709 0405 43595F42 		.ascii	"CY_BLE_EVT_GET_CLK_CONFIG_COMPLETE\000"
 9709      4C455F45 
 9709      56545F47 
 9709      45545F43 
 9709      4C4B5F43 
 9710              	.LASF884:
 9711 0428 43595F42 		.ascii	"CY_BLE_EVT_ESSC_READ_DESCR_RESPONSE\000"
 9711      4C455F45 
 9711      56545F45 
 9711      5353435F 
 9711      52454144 
 9712              	.LASF361:
 9713 044c 43595F42 		.ascii	"CY_BLE_EVT_GAP_ENHANCE_CONN_COMPLETE\000"
 9713      4C455F45 
 9713      56545F47 
 9713      41505F45 
 9713      4E48414E 
 9714              	.LASF457:
 9715 0471 43595F42 		.ascii	"CY_BLE_GENERIC_APP_TO\000"
 9715      4C455F47 
 9715      454E4552 
 9715      49435F41 
 9715      50505F54 
 9716              	.LASF466:
 9717 0487 63795F73 		.ascii	"cy_stc_ble_tx_pwr_config_param_t\000"
 9717      74635F62 
 9717      6C655F74 
 9717      785F7077 
 9717      725F636F 
 9718              	.LASF68:
 9719 04a8 63707573 		.ascii	"cpuss_interrupts_ipc_13_IRQn\000"
 9719      735F696E 
 9719      74657272 
 9719      75707473 
 9719      5F697063 
 9720              	.LASF577:
 9721 04c5 43595F42 		.ascii	"CY_BLE_GAP_AUTH_ERROR_PAIRING_NOT_SUPPORTED\000"
 9721      4C455F47 
ARM GAS  C:\Users\gjl\AppData\Local\Temp\ccRZOvUj.s 			page 210


 9721      41505F41 
 9721      5554485F 
 9721      4552524F 
 9722              	.LASF1067:
 9723 04f1 65786973 		.ascii	"existFlag\000"
 9723      74466C61 
 9723      6700
 9724              	.LASF546:
 9725 04fb 43595F42 		.ascii	"CY_BLE_GATT_ERR_OUT_OF_RANGE\000"
 9725      4C455F47 
 9725      4154545F 
 9725      4552525F 
 9725      4F55545F 
 9726              	.LASF301:
 9727 0518 43595F42 		.ascii	"CY_BLE_EVT_WRITE_AUTH_PAYLOAD_TO_COMPLETE\000"
 9727      4C455F45 
 9727      56545F57 
 9727      52495445 
 9727      5F415554 
 9728              	.LASF686:
 9729 0542 736C6F77 		.ascii	"slowScanWindow\000"
 9729      5363616E 
 9729      57696E64 
 9729      6F7700
 9730              	.LASF1052:
 9731 0551 43595F42 		.ascii	"CY_BLE_EVT_GATTC_DISC_CHAR\000"
 9731      4C455F45 
 9731      56545F47 
 9731      41545443 
 9731      5F444953 
 9732              	.LASF896:
 9733 056c 43595F42 		.ascii	"CY_BLE_EVT_GLSC_READ_DESCR_RESPONSE\000"
 9733      4C455F45 
 9733      56545F47 
 9733      4C53435F 
 9733      52454144 
 9734              	.LASF906:
 9735 0590 43595F42 		.ascii	"CY_BLE_EVT_HIDSC_READ_CHAR_RESPONSE\000"
 9735      4C455F45 
 9735      56545F48 
 9735      49445343 
 9735      5F524541 
 9736              	.LASF625:
 9737 05b4 43595F42 		.ascii	"CY_BLE_GAPP_CONNECTABLE_HIGH_DC_DIRECTED_ADV\000"
 9737      4C455F47 
 9737      4150505F 
 9737      434F4E4E 
 9737      45435441 
 9738              	.LASF632:
 9739 05e1 61647654 		.ascii	"advType\000"
 9739      79706500 
 9740              	.LASF304:
 9741 05e9 43595F42 		.ascii	"CY_BLE_EVT_LE_SET_EVENT_MASK_COMPLETE\000"
 9741      4C455F45 
 9741      56545F4C 
 9741      455F5345 
 9741      545F4556 
ARM GAS  C:\Users\gjl\AppData\Local\Temp\ccRZOvUj.s 			page 211


 9742              	.LASF738:
 9743 060f 67617073 		.ascii	"gaps\000"
 9743      00
 9744              	.LASF1014:
 9745 0614 43595F42 		.ascii	"CY_BLE_EVT_UDSS_NOTIFICATION_ENABLED\000"
 9745      4C455F45 
 9745      56545F55 
 9745      4453535F 
 9745      4E4F5449 
 9746              	.LASF1028:
 9747 0639 43595F42 		.ascii	"CY_BLE_EVT_WPTSS_INDICATION_DISABLED\000"
 9747      4C455F45 
 9747      56545F57 
 9747      50545353 
 9747      5F494E44 
 9748              	.LASF623:
 9749 065e 63795F73 		.ascii	"cy_stc_ble_gapc_disc_info_t\000"
 9749      74635F62 
 9749      6C655F67 
 9749      6170635F 
 9749      64697363 
 9750              	.LASF673:
 9751 067a 66617374 		.ascii	"fastAdvIntervalMin\000"
 9751      41647649 
 9751      6E746572 
 9751      76616C4D 
 9751      696E00
 9752              	.LASF608:
 9753 068d 70656572 		.ascii	"peerBdAddr\000"
 9753      42644164 
 9753      647200
 9754              	.LASF824:
 9755 0698 43595F42 		.ascii	"CY_BLE_EVT_CGMSS_INDICATION_ENABLED\000"
 9755      4C455F45 
 9755      56545F43 
 9755      474D5353 
 9755      5F494E44 
 9756              	.LASF563:
 9757 06bc 746F7461 		.ascii	"totalAttrValueLength\000"
 9757      6C417474 
 9757      7256616C 
 9757      75654C65 
 9757      6E677468 
 9758              	.LASF934:
 9759 06d1 43595F42 		.ascii	"CY_BLE_EVT_HTSC_READ_CHAR_RESPONSE\000"
 9759      4C455F45 
 9759      56545F48 
 9759      5453435F 
 9759      52454144 
 9760              	.LASF748:
 9761 06f4 43595F42 		.ascii	"CY_BLE_PASSKEY_ENTRY_REQUEST_REPLY\000"
 9761      4C455F50 
 9761      4153534B 
 9761      45595F45 
 9761      4E545259 
 9762              	.LASF470:
 9763 0717 72657175 		.ascii	"request\000"
ARM GAS  C:\Users\gjl\AppData\Local\Temp\ccRZOvUj.s 			page 212


 9763      65737400 
 9764              	.LASF503:
 9765 071f 43595F42 		.ascii	"CY_BLE_GATT_HANDLE_VALUE_NTF\000"
 9765      4C455F47 
 9765      4154545F 
 9765      48414E44 
 9765      4C455F56 
 9766              	.LASF711:
 9767 073c 73657276 		.ascii	"serviceChangedHandle\000"
 9767      69636543 
 9767      68616E67 
 9767      65644861 
 9767      6E646C65 
 9768              	.LASF626:
 9769 0751 43595F42 		.ascii	"CY_BLE_GAPP_SCANNABLE_UNDIRECTED_ADV\000"
 9769      4C455F47 
 9769      4150505F 
 9769      5343414E 
 9769      4E41424C 
 9770              	.LASF94:
 9771 0776 63707573 		.ascii	"cpuss_interrupts_dw0_14_IRQn\000"
 9771      735F696E 
 9771      74657272 
 9771      75707473 
 9771      5F647730 
 9772              	.LASF393:
 9773 0793 43595F42 		.ascii	"CY_BLE_EVT_GATTC_STOP_CMD_COMPLETE\000"
 9773      4C455F45 
 9773      56545F47 
 9773      41545443 
 9773      5F53544F 
 9774              	.LASF716:
 9775 07b6 72657375 		.ascii	"result\000"
 9775      6C7400
 9776              	.LASF522:
 9777 07bd 43595F42 		.ascii	"CY_BLE_GATT_ERR_INVALID_ATTRIBUTE_LEN\000"
 9777      4C455F47 
 9777      4154545F 
 9777      4552525F 
 9777      494E5641 
 9778              	.LASF801:
 9779 07e3 43595F42 		.ascii	"CY_BLE_EVT_BASC_READ_DESCR_RESPONSE\000"
 9779      4C455F45 
 9779      56545F42 
 9779      4153435F 
 9779      52454144 
 9780              	.LASF230:
 9781 0807 464C4153 		.ascii	"FLASH_BOOT_APP_ID\000"
 9781      485F424F 
 9781      4F545F41 
 9781      50505F49 
 9781      4400
 9782              	.LASF807:
 9783 0819 43595F42 		.ascii	"CY_BLE_EVT_BCSC_READ_CHAR_RESPONSE\000"
 9783      4C455F45 
 9783      56545F42 
 9783      4353435F 
ARM GAS  C:\Users\gjl\AppData\Local\Temp\ccRZOvUj.s 			page 213


 9783      52454144 
 9784              	.LASF471:
 9785 083c 636F6E66 		.ascii	"configMemory\000"
 9785      69674D65 
 9785      6D6F7279 
 9785      00
 9786              	.LASF49:
 9787 0849 73727373 		.ascii	"srss_interrupt_mcwdt_0_IRQn\000"
 9787      5F696E74 
 9787      65727275 
 9787      70745F6D 
 9787      63776474 
 9788              	.LASF306:
 9789 0865 43595F42 		.ascii	"CY_BLE_EVT_SET_DATA_LENGTH_COMPLETE\000"
 9789      4C455F45 
 9789      56545F53 
 9789      45545F44 
 9789      4154415F 
 9790              	.LASF271:
 9791 0889 544F4332 		.ascii	"TOC2_FLAGS\000"
 9791      5F464C41 
 9791      475300
 9792              	.LASF1084:
 9793 0894 636F6E6E 		.ascii	"connCParam\000"
 9793      43506172 
 9793      616D00
 9794              	.LASF126:
 9795 089f 74637077 		.ascii	"tcpwm_0_interrupts_6_IRQn\000"
 9795      6D5F305F 
 9795      696E7465 
 9795      72727570 
 9795      74735F36 
 9796              	.LASF799:
 9797 08b9 43595F42 		.ascii	"CY_BLE_EVT_BASC_NOTIFICATION\000"
 9797      4C455F45 
 9797      56545F42 
 9797      4153435F 
 9797      4E4F5449 
 9798              	.LASF187:
 9799 08d6 4449455F 		.ascii	"DIE_X\000"
 9799      5800
 9800              	.LASF188:
 9801 08dc 4449455F 		.ascii	"DIE_Y\000"
 9801      5900
 9802              	.LASF887:
 9803 08e2 43595F42 		.ascii	"CY_BLE_EVT_GLSS_INDICATION_DISABLED\000"
 9803      4C455F45 
 9803      56545F47 
 9803      4C53535F 
 9803      494E4449 
 9804              	.LASF806:
 9805 0906 43595F42 		.ascii	"CY_BLE_EVT_BCSC_INDICATION\000"
 9805      4C455F45 
 9805      56545F42 
 9805      4353435F 
 9805      494E4449 
 9806              	.LASF994:
ARM GAS  C:\Users\gjl\AppData\Local\Temp\ccRZOvUj.s 			page 214


 9807 0921 43595F42 		.ascii	"CY_BLE_EVT_RSCSC_WRITE_CHAR_RESPONSE\000"
 9807      4C455F45 
 9807      56545F52 
 9807      53435343 
 9807      5F575249 
 9808              	.LASF204:
 9809 0946 55534552 		.ascii	"USER_FREE_ROW1\000"
 9809      5F465245 
 9809      455F524F 
 9809      573100
 9810              	.LASF205:
 9811 0955 55534552 		.ascii	"USER_FREE_ROW2\000"
 9811      5F465245 
 9811      455F524F 
 9811      573200
 9812              	.LASF206:
 9813 0964 55534552 		.ascii	"USER_FREE_ROW3\000"
 9813      5F465245 
 9813      455F524F 
 9813      573300
 9814              	.LASF1034:
 9815 0973 43595F42 		.ascii	"CY_BLE_EVT_WPTSC_READ_CHAR_RESPONSE\000"
 9815      4C455F45 
 9815      56545F57 
 9815      50545343 
 9815      5F524541 
 9816              	.LASF161:
 9817 0997 7564625F 		.ascii	"udb_interrupts_9_IRQn\000"
 9817      696E7465 
 9817      72727570 
 9817      74735F39 
 9817      5F495251 
 9818              	.LASF1117:
 9819 09ad 43795F42 		.ascii	"Cy_BLE_GATTS_WriteEventHandler\000"
 9819      4C455F47 
 9819      41545453 
 9819      5F577269 
 9819      74654576 
 9820              	.LASF19:
 9821 09cc 75696E74 		.ascii	"uint32_t\000"
 9821      33325F74 
 9821      00
 9822              	.LASF935:
 9823 09d5 43595F42 		.ascii	"CY_BLE_EVT_HTSC_WRITE_CHAR_RESPONSE\000"
 9823      4C455F45 
 9823      56545F48 
 9823      5453435F 
 9823      57524954 
 9824              	.LASF1053:
 9825 09f9 43595F42 		.ascii	"CY_BLE_EVT_GATTC_DISC_DESCR\000"
 9825      4C455F45 
 9825      56545F47 
 9825      41545443 
 9825      5F444953 
 9826              	.LASF1097:
 9827 0a15 63795F62 		.ascii	"cy_ble_connState\000"
 9827      6C655F63 
ARM GAS  C:\Users\gjl\AppData\Local\Temp\ccRZOvUj.s 			page 215


 9827      6F6E6E53 
 9827      74617465 
 9827      00
 9828              	.LASF190:
 9829 0a26 4449455F 		.ascii	"DIE_MINOR\000"
 9829      4D494E4F 
 9829      5200
 9830              	.LASF176:
 9831 0a30 70617373 		.ascii	"pass_interrupt_dacs_IRQn\000"
 9831      5F696E74 
 9831      65727275 
 9831      70745F64 
 9831      6163735F 
 9832              	.LASF899:
 9833 0a49 43595F42 		.ascii	"CY_BLE_EVT_HIDSS_NOTIFICATION_DISABLED\000"
 9833      4C455F45 
 9833      56545F48 
 9833      49445353 
 9833      5F4E4F54 
 9834              	.LASF907:
 9835 0a70 43595F42 		.ascii	"CY_BLE_EVT_HIDSC_WRITE_CHAR_RESPONSE\000"
 9835      4C455F45 
 9835      56545F48 
 9835      49445343 
 9835      5F575249 
 9836              	.LASF756:
 9837 0a95 43595F42 		.ascii	"CY_BLE_EVT_GATTC_INCL_DISCOVERY_FAILED\000"
 9837      4C455F45 
 9837      56545F47 
 9837      41545443 
 9837      5F494E43 
 9838              	.LASF704:
 9839 0abc 63795F73 		.ascii	"cy_stc_ble_gatts_att_value_t\000"
 9839      74635F62 
 9839      6C655F67 
 9839      61747473 
 9839      5F617474 
 9840              	.LASF330:
 9841 0ad9 43595F42 		.ascii	"CY_BLE_EVT_SET_TX_PWR_COMPLETE\000"
 9841      4C455F45 
 9841      56545F53 
 9841      45545F54 
 9841      585F5057 
 9842              	.LASF1096:
 9843 0af8 63795F62 		.ascii	"cy_ble_connHandle\000"
 9843      6C655F63 
 9843      6F6E6E48 
 9843      616E646C 
 9843      6500
 9844              	.LASF244:
 9845 0b0a 544F4331 		.ascii	"TOC1_SFLASH_GENERAL_TRIM_ADDR\000"
 9845      5F53464C 
 9845      4153485F 
 9845      47454E45 
 9845      52414C5F 
 9846              	.LASF635:
 9847 0b28 61647643 		.ascii	"advChannelMap\000"
ARM GAS  C:\Users\gjl\AppData\Local\Temp\ccRZOvUj.s 			page 216


 9847      68616E6E 
 9847      656C4D61 
 9847      7000
 9848              	.LASF1019:
 9849 0b36 43595F42 		.ascii	"CY_BLE_EVT_UDSC_NOTIFICATION\000"
 9849      4C455F45 
 9849      56545F55 
 9849      4453435F 
 9849      4E4F5449 
 9850              	.LASF52:
 9851 0b53 73727373 		.ascii	"srss_interrupt_IRQn\000"
 9851      5F696E74 
 9851      65727275 
 9851      70745F49 
 9851      52516E00 
 9852              	.LASF35:
 9853 0b67 696F7373 		.ascii	"ioss_interrupts_gpio_5_IRQn\000"
 9853      5F696E74 
 9853      65727275 
 9853      7074735F 
 9853      6770696F 
 9854              	.LASF2:
 9855 0b83 6C6F6E67 		.ascii	"long double\000"
 9855      20646F75 
 9855      626C6500 
 9856              	.LASF340:
 9857 0b8f 43595F42 		.ascii	"CY_BLE_EVT_RADIO_VOLTAGE_LEVEL\000"
 9857      4C455F45 
 9857      56545F52 
 9857      4144494F 
 9857      5F564F4C 
 9858              	.LASF356:
 9859 0bae 43595F42 		.ascii	"CY_BLE_EVT_GAPC_SCAN_START_STOP\000"
 9859      4C455F45 
 9859      56545F47 
 9859      4150435F 
 9859      5343414E 
 9860              	.LASF119:
 9861 0bce 63707573 		.ascii	"cpuss_interrupts_cm4_cti_1_IRQn\000"
 9861      735F696E 
 9861      74657272 
 9861      75707473 
 9861      5F636D34 
 9862              	.LASF233:
 9863 0bee 464C4153 		.ascii	"FLASH_BOOT_VT_OFFSET\000"
 9863      485F424F 
 9863      4F545F56 
 9863      545F4F46 
 9863      46534554 
 9864              	.LASF633:
 9865 0c03 64697265 		.ascii	"directAddrType\000"
 9865      63744164 
 9865      64725479 
 9865      706500
 9866              	.LASF1074:
 9867 0c12 43795F42 		.ascii	"Cy_BLE_GetConnHandleByBdHandle\000"
 9867      4C455F47 
ARM GAS  C:\Users\gjl\AppData\Local\Temp\ccRZOvUj.s 			page 217


 9867      6574436F 
 9867      6E6E4861 
 9867      6E646C65 
 9868              	.LASF917:
 9869 0c31 43595F42 		.ascii	"CY_BLE_EVT_HPSC_WRITE_CHAR_RESPONSE\000"
 9869      4C455F45 
 9869      56545F48 
 9869      5053435F 
 9869      57524954 
 9870              	.LASF1049:
 9871 0c55 43595F42 		.ascii	"CY_BLE_EVT_BTSS_EXEC_WRITE_REQ\000"
 9871      4C455F45 
 9871      56545F42 
 9871      5453535F 
 9871      45584543 
 9872              	.LASF307:
 9873 0c74 43595F42 		.ascii	"CY_BLE_EVT_SET_SUGGESTED_DATA_LENGTH_COMPLETE\000"
 9873      4C455F45 
 9873      56545F53 
 9873      45545F53 
 9873      55474745 
 9874              	.LASF964:
 9875 0ca2 43595F42 		.ascii	"CY_BLE_EVT_NDCSC_READ_CHAR_RESPONSE\000"
 9875      4C455F45 
 9875      56545F4E 
 9875      44435343 
 9875      5F524541 
 9876              	.LASF621:
 9877 0cc6 7363616E 		.ascii	"scanTo\000"
 9877      546F00
 9878              	.LASF117:
 9879 0ccd 63707573 		.ascii	"cpuss_interrupts_cm0_cti_1_IRQn\000"
 9879      735F696E 
 9879      74657272 
 9879      75707473 
 9879      5F636D30 
 9880              	.LASF1114:
 9881 0ced 43795F53 		.ascii	"Cy_SysLib_AssertFailed\000"
 9881      79734C69 
 9881      625F4173 
 9881      73657274 
 9881      4661696C 
 9882              	.LASF185:
 9883 0d04 4449455F 		.ascii	"DIE_LOT\000"
 9883      4C4F5400 
 9884              	.LASF969:
 9885 0d0c 43595F42 		.ascii	"CY_BLE_EVT_PASSC_READ_CHAR_RESPONSE\000"
 9885      4C455F45 
 9885      56545F50 
 9885      41535343 
 9885      5F524541 
 9886              	.LASF618:
 9887 0d30 7363616E 		.ascii	"scanWindow\000"
 9887      57696E64 
 9887      6F7700
 9888              	.LASF891:
 9889 0d3b 43595F42 		.ascii	"CY_BLE_EVT_GLSS_WRITE_CHAR\000"
ARM GAS  C:\Users\gjl\AppData\Local\Temp\ccRZOvUj.s 			page 218


 9889      4C455F45 
 9889      56545F47 
 9889      4C53535F 
 9889      57524954 
 9890              	.LASF897:
 9891 0d56 43595F42 		.ascii	"CY_BLE_EVT_GLSC_WRITE_DESCR_RESPONSE\000"
 9891      4C455F45 
 9891      56545F47 
 9891      4C53435F 
 9891      57524954 
 9892              	.LASF300:
 9893 0d7b 43595F42 		.ascii	"CY_BLE_EVT_HARDWARE_ERROR\000"
 9893      4C455F45 
 9893      56545F48 
 9893      41524457 
 9893      4152455F 
 9894              	.LASF65:
 9895 0d95 63707573 		.ascii	"cpuss_interrupts_ipc_10_IRQn\000"
 9895      735F696E 
 9895      74657272 
 9895      75707473 
 9895      5F697063 
 9896              	.LASF534:
 9897 0db2 43595F42 		.ascii	"CY_BLE_GATTS_ERR_CCCD_IMPROPERLY_CONFIGURED\000"
 9897      4C455F47 
 9897      41545453 
 9897      5F455252 
 9897      5F434343 
 9898              	.LASF189:
 9899 0dde 4449455F 		.ascii	"DIE_SORT\000"
 9899      534F5254 
 9899      00
 9900              	.LASF1015:
 9901 0de7 43595F42 		.ascii	"CY_BLE_EVT_UDSS_NOTIFICATION_DISABLED\000"
 9901      4C455F45 
 9901      56545F55 
 9901      4453535F 
 9901      4E4F5449 
 9902              	.LASF366:
 9903 0e0d 43595F42 		.ascii	"CY_BLE_EVT_GAP_RESOLVE_DEVICE_COMPLETE\000"
 9903      4C455F45 
 9903      56545F47 
 9903      41505F52 
 9903      45534F4C 
 9904              	.LASF631:
 9905 0e34 61647649 		.ascii	"advIntvMax\000"
 9905      6E74764D 
 9905      617800
 9906              	.LASF770:
 9907 0e3f 43595F42 		.ascii	"CY_BLE_EVT_AIOSS_INDICATION_DISABLED\000"
 9907      4C455F45 
 9907      56545F41 
 9907      494F5353 
 9907      5F494E44 
 9908              	.LASF536:
 9909 0e64 43595F42 		.ascii	"CY_BLE_GATT_ERR_INVALID_CRC\000"
 9909      4C455F47 
ARM GAS  C:\Users\gjl\AppData\Local\Temp\ccRZOvUj.s 			page 219


 9909      4154545F 
 9909      4552525F 
 9909      494E5641 
 9910              	.LASF414:
 9911 0e80 43595F42 		.ascii	"CY_BLE_ERROR_INSUFFICIENT_RESOURCES\000"
 9911      4C455F45 
 9911      52524F52 
 9911      5F494E53 
 9911      55464649 
 9912              	.LASF318:
 9913 0ea4 43595F42 		.ascii	"CY_BLE_EVT_REMOVE_DEVICE_FROM_WHITE_LIST_COMPLETE\000"
 9913      4C455F45 
 9913      56545F52 
 9913      454D4F56 
 9913      455F4445 
 9914              	.LASF675:
 9915 0ed6 66617374 		.ascii	"fastAdvTimeOut\000"
 9915      41647654 
 9915      696D654F 
 9915      757400
 9916              	.LASF135:
 9917 0ee5 74637077 		.ascii	"tcpwm_1_interrupts_7_IRQn\000"
 9917      6D5F315F 
 9917      696E7465 
 9917      72727570 
 9917      74735F37 
 9918              	.LASF769:
 9919 0eff 43595F42 		.ascii	"CY_BLE_EVT_AIOSS_INDICATION_ENABLED\000"
 9919      4C455F45 
 9919      56545F41 
 9919      494F5353 
 9919      5F494E44 
 9920              	.LASF965:
 9921 0f23 43595F42 		.ascii	"CY_BLE_EVT_PASSS_NOTIFICATION_ENABLED\000"
 9921      4C455F45 
 9921      56545F50 
 9921      41535353 
 9921      5F4E4F54 
 9922              	.LASF172:
 9923 0f49 736D6966 		.ascii	"smif_interrupt_IRQn\000"
 9923      5F696E74 
 9923      65727275 
 9923      70745F49 
 9923      52516E00 
 9924              	.LASF761:
 9925 0f5d 43595F42 		.ascii	"CY_BLE_EVT_GATTC_DESCR_DUPLICATION\000"
 9925      4C455F45 
 9925      56545F47 
 9925      41545443 
 9925      5F444553 
 9926              	.LASF247:
 9927 0f80 544F4331 		.ascii	"TOC1_SYSCALL_TABLE_ADDR\000"
 9927      5F535953 
 9927      43414C4C 
 9927      5F544142 
 9927      4C455F41 
 9928              	.LASF297:
ARM GAS  C:\Users\gjl\AppData\Local\Temp\ccRZOvUj.s 			page 220


 9929 0f98 43595F42 		.ascii	"CY_BLE_EVT_MEMORY_REQUEST\000"
 9929      4C455F45 
 9929      56545F4D 
 9929      454D4F52 
 9929      595F5245 
 9930              	.LASF467:
 9931 0fb2 626C6550 		.ascii	"blePwrLevel\000"
 9931      77724C65 
 9931      76656C00 
 9932              	.LASF661:
 9933 0fbe 43595F42 		.ascii	"CY_BLE_CONN_STATE_CLIENT_INCL_DISCOVERING\000"
 9933      4C455F43 
 9933      4F4E4E5F 
 9933      53544154 
 9933      455F434C 
 9934              	.LASF1103:
 9935 0fe8 43795F42 		.ascii	"Cy_BLE_ApplCallback\000"
 9935      4C455F41 
 9935      70706C43 
 9935      616C6C62 
 9935      61636B00 
 9936              	.LASF513:
 9937 0ffc 43595F42 		.ascii	"CY_BLE_GATT_ERR_INVALID_PDU\000"
 9937      4C455F47 
 9937      4154545F 
 9937      4552525F 
 9937      494E5641 
 9938              	.LASF497:
 9939 1018 43595F42 		.ascii	"CY_BLE_GATT_WRITE_RSP\000"
 9939      4C455F47 
 9939      4154545F 
 9939      57524954 
 9939      455F5253 
 9940              	.LASF754:
 9941 102e 43595F42 		.ascii	"CY_BLE_EVT_GATTC_INDICATION\000"
 9941      4C455F45 
 9941      56545F47 
 9941      41545443 
 9941      5F494E44 
 9942              	.LASF782:
 9943 104a 43595F42 		.ascii	"CY_BLE_EVT_ANCSS_NOTIFICATION_DISABLED\000"
 9943      4C455F45 
 9943      56545F41 
 9943      4E435353 
 9943      5F4E4F54 
 9944              	.LASF214:
 9945 1071 5354414E 		.ascii	"STANDARD_PPU_STRUCT\000"
 9945      44415244 
 9945      5F505055 
 9945      5F535452 
 9945      55435400 
 9946              	.LASF91:
 9947 1085 63707573 		.ascii	"cpuss_interrupts_dw0_11_IRQn\000"
 9947      735F696E 
 9947      74657272 
 9947      75707473 
 9947      5F647730 
ARM GAS  C:\Users\gjl\AppData\Local\Temp\ccRZOvUj.s 			page 221


 9948              	.LASF645:
 9949 10a2 61647650 		.ascii	"advParam\000"
 9949      6172616D 
 9949      00
 9950              	.LASF494:
 9951 10ab 43595F42 		.ascii	"CY_BLE_GATT_READ_BY_GROUP_REQ\000"
 9951      4C455F47 
 9951      4154545F 
 9951      52454144 
 9951      5F42595F 
 9952              	.LASF942:
 9953 10c9 43595F42 		.ascii	"CY_BLE_EVT_IPSC_READ_CHAR_RESPONSE\000"
 9953      4C455F45 
 9953      56545F49 
 9953      5053435F 
 9953      52454144 
 9954              	.LASF980:
 9955 10ec 43595F42 		.ascii	"CY_BLE_EVT_PLXSC_READ_CHAR_RESPONSE\000"
 9955      4C455F45 
 9955      56545F50 
 9955      4C585343 
 9955      5F524541 
 9956              	.LASF544:
 9957 1110 43595F42 		.ascii	"CY_BLE_GATT_ERR_CCCD_IMPROPERLY_CONFIGURED\000"
 9957      4C455F47 
 9957      4154545F 
 9957      4552525F 
 9957      43434344 
 9958              	.LASF460:
 9959 113b 43595F42 		.ascii	"CY_BLE_INVALID_REQUEST\000"
 9959      4C455F49 
 9959      4E56414C 
 9959      49445F52 
 9959      45515545 
 9960              	.LASF582:
 9961 1152 43595F42 		.ascii	"CY_BLE_GAP_AUTH_ERROR_INVALID_PARAMETERS\000"
 9961      4C455F47 
 9961      41505F41 
 9961      5554485F 
 9961      4552524F 
 9962              	.LASF439:
 9963 117b 63795F65 		.ascii	"cy_en_ble_api_result_t\000"
 9963      6E5F626C 
 9963      655F6170 
 9963      695F7265 
 9963      73756C74 
 9964              	.LASF541:
 9965 1192 43595F42 		.ascii	"CY_BLE_GATT_ERR_ANCS_INVALID_COMMAND\000"
 9965      4C455F47 
 9965      4154545F 
 9965      4552525F 
 9965      414E4353 
 9966              	.LASF123:
 9967 11b7 74637077 		.ascii	"tcpwm_0_interrupts_3_IRQn\000"
 9967      6D5F305F 
 9967      696E7465 
 9967      72727570 
ARM GAS  C:\Users\gjl\AppData\Local\Temp\ccRZOvUj.s 			page 222


 9967      74735F33 
 9968              	.LASF810:
 9969 11d1 43595F42 		.ascii	"CY_BLE_EVT_BLSS_INDICATION_ENABLED\000"
 9969      4C455F45 
 9969      56545F42 
 9969      4C53535F 
 9969      494E4449 
 9970              	.LASF1088:
 9971 11f4 63636364 		.ascii	"cccdCrc\000"
 9971      43726300 
 9972              	.LASF1115:
 9973 11fc 43795F42 		.ascii	"Cy_BLE_HAL_CalcCRC8\000"
 9973      4C455F48 
 9973      414C5F43 
 9973      616C6343 
 9973      52433800 
 9974              	.LASF489:
 9975 1210 43595F42 		.ascii	"CY_BLE_GATT_READ_RSP\000"
 9975      4C455F47 
 9975      4154545F 
 9975      52454144 
 9975      5F525350 
 9976              	.LASF953:
 9977 1225 43595F42 		.ascii	"CY_BLE_EVT_LNSS_INDICATION_DISABLED\000"
 9977      4C455F45 
 9977      56545F4C 
 9977      4E53535F 
 9977      494E4449 
 9978              	.LASF911:
 9979 1249 43595F42 		.ascii	"CY_BLE_EVT_HPSS_NOTIFICATION_DISABLED\000"
 9979      4C455F45 
 9979      56545F48 
 9979      5053535F 
 9979      4E4F5449 
 9980              	.LASF832:
 9981 126f 43595F42 		.ascii	"CY_BLE_EVT_CGMSC_READ_CHAR_RESPONSE\000"
 9981      4C455F45 
 9981      56545F43 
 9981      474D5343 
 9981      5F524541 
 9982              	.LASF1060:
 9983 1293 43795F42 		.ascii	"Cy_BLE_SetAdvertisementState\000"
 9983      4C455F53 
 9983      65744164 
 9983      76657274 
 9983      6973656D 
 9984              	.LASF813:
 9985 12b0 43595F42 		.ascii	"CY_BLE_EVT_BLSS_NOTIFICATION_ENABLED\000"
 9985      4C455F45 
 9985      56545F42 
 9985      4C53535F 
 9985      4E4F5449 
 9986              	.LASF158:
 9987 12d5 7564625F 		.ascii	"udb_interrupts_6_IRQn\000"
 9987      696E7465 
 9987      72727570 
 9987      74735F36 
ARM GAS  C:\Users\gjl\AppData\Local\Temp\ccRZOvUj.s 			page 223


 9987      5F495251 
 9988              	.LASF574:
 9989 12eb 43595F42 		.ascii	"CY_BLE_GAP_AUTH_ERROR_OOB_DATA_NOT_AVAILABLE\000"
 9989      4C455F47 
 9989      41505F41 
 9989      5554485F 
 9989      4552524F 
 9990              	.LASF104:
 9991 1318 63707573 		.ascii	"cpuss_interrupts_dw1_8_IRQn\000"
 9991      735F696E 
 9991      74657272 
 9991      75707473 
 9991      5F647731 
 9992              	.LASF370:
 9993 1334 43595F42 		.ascii	"CY_BLE_EVT_GAPP_UPDATE_ADV_SCAN_DATA_COMPLETE\000"
 9993      4C455F45 
 9993      56545F47 
 9993      4150505F 
 9993      55504441 
 9994              	.LASF523:
 9995 1362 43595F42 		.ascii	"CY_BLE_GATT_ERR_UNLIKELY_ERROR\000"
 9995      4C455F47 
 9995      4154545F 
 9995      4552525F 
 9995      554E4C49 
 9996              	.LASF445:
 9997 1381 43595F42 		.ascii	"CY_BLE_LL_PWR_LVL_NEG_12_DBM\000"
 9997      4C455F4C 
 9997      4C5F5057 
 9997      525F4C56 
 9997      4C5F4E45 
 9998              	.LASF355:
 9999 139e 43595F42 		.ascii	"CY_BLE_EVT_GAP_CONNECTION_UPDATE_COMPLETE\000"
 9999      4C455F45 
 9999      56545F47 
 9999      41505F43 
 9999      4F4E4E45 
 10000              	.LASF694:
 10001 13c8 67617474 		.ascii	"gattErrorCode\000"
 10001      4572726F 
 10001      72436F64 
 10001      6500
 10002              	.LASF763:
 10003 13d6 43595F42 		.ascii	"CY_BLE_EVT_GATTC_INCL_DISCOVERY_COMPLETE\000"
 10003      4C455F45 
 10003      56545F47 
 10003      41545443 
 10003      5F494E43 
 10004              	.LASF559:
 10005 13ff 63795F73 		.ascii	"cy_stc_ble_gatt_err_info_t\000"
 10005      74635F62 
 10005      6C655F67 
 10005      6174745F 
 10005      6572725F 
 10006              	.LASF589:
 10007 141a 63795F65 		.ascii	"cy_en_ble_gap_auth_failed_reason_t\000"
 10007      6E5F626C 
ARM GAS  C:\Users\gjl\AppData\Local\Temp\ccRZOvUj.s 			page 224


 10007      655F6761 
 10007      705F6175 
 10007      74685F66 
 10008              	.LASF860:
 10009 143d 43595F42 		.ascii	"CY_BLE_EVT_CSCSC_READ_CHAR_RESPONSE\000"
 10009      4C455F45 
 10009      56545F43 
 10009      53435343 
 10009      5F524541 
 10010              	.LASF852:
 10011 1461 43595F42 		.ascii	"CY_BLE_EVT_CSCSS_NOTIFICATION_ENABLED\000"
 10011      4C455F45 
 10011      56545F43 
 10011      53435353 
 10011      5F4E4F54 
 10012              	.LASF742:
 10013 1487 70617261 		.ascii	"params\000"
 10013      6D7300
 10014              	.LASF109:
 10015 148e 63707573 		.ascii	"cpuss_interrupts_dw1_13_IRQn\000"
 10015      735F696E 
 10015      74657272 
 10015      75707473 
 10015      5F647731 
 10016              	.LASF195:
 10017 14ab 5341525F 		.ascii	"SAR_TEMP_MULTIPLIER\000"
 10017      54454D50 
 10017      5F4D554C 
 10017      5449504C 
 10017      49455200 
 10018              	.LASF62:
 10019 14bf 63707573 		.ascii	"cpuss_interrupts_ipc_7_IRQn\000"
 10019      735F696E 
 10019      74657272 
 10019      75707473 
 10019      5F697063 
 10020              	.LASF573:
 10021 14db 43595F42 		.ascii	"CY_BLE_GAP_AUTH_ERROR_PASSKEY_ENTRY_FAILED\000"
 10021      4C455F47 
 10021      41505F41 
 10021      5554485F 
 10021      4552524F 
 10022              	.LASF32:
 10023 1506 696F7373 		.ascii	"ioss_interrupts_gpio_2_IRQn\000"
 10023      5F696E74 
 10023      65727275 
 10023      7074735F 
 10023      6770696F 
 10024              	.LASF287:
 10025 1522 63686172 		.ascii	"char_t\000"
 10025      5F7400
 10026              	.LASF613:
 10027 1529 6D617374 		.ascii	"masterClockAccuracy\000"
 10027      6572436C 
 10027      6F636B41 
 10027      63637572 
 10027      61637900 
ARM GAS  C:\Users\gjl\AppData\Local\Temp\ccRZOvUj.s 			page 225


 10028              	.LASF595:
 10029 153d 63795F73 		.ascii	"cy_stc_ble_gap_bd_addr_t\000"
 10029      74635F62 
 10029      6C655F67 
 10029      61705F62 
 10029      645F6164 
 10030              	.LASF309:
 10031 1556 43595F42 		.ascii	"CY_BLE_EVT_DATA_LENGTH_CHANGE\000"
 10031      4C455F45 
 10031      56545F44 
 10031      4154415F 
 10031      4C454E47 
 10032              	.LASF1076:
 10033 1574 6576656E 		.ascii	"event\000"
 10033      7400
 10034              	.LASF450:
 10035 157a 43595F42 		.ascii	"CY_BLE_LL_ADV_CH_TYPE\000"
 10035      4C455F4C 
 10035      4C5F4144 
 10035      565F4348 
 10035      5F545950 
 10036              	.LASF951:
 10037 1590 43595F42 		.ascii	"CY_BLE_EVT_LLSC_WRITE_CHAR_RESPONSE\000"
 10037      4C455F45 
 10037      56545F4C 
 10037      4C53435F 
 10037      57524954 
 10038              	.LASF986:
 10039 15b4 43595F42 		.ascii	"CY_BLE_EVT_RSCSS_NOTIFICATION_DISABLED\000"
 10039      4C455F45 
 10039      56545F52 
 10039      53435353 
 10039      5F4E4F54 
 10040              	.LASF424:
 10041 15db 43595F42 		.ascii	"CY_BLE_ERROR_L2CAP_PSM_NOT_REGISTERED\000"
 10041      4C455F45 
 10041      52524F52 
 10041      5F4C3243 
 10041      41505F50 
 10042              	.LASF384:
 10043 1601 43595F42 		.ascii	"CY_BLE_EVT_GATTC_WRITE_RSP\000"
 10043      4C455F45 
 10043      56545F47 
 10043      41545443 
 10043      5F575249 
 10044              	.LASF767:
 10045 161c 43595F42 		.ascii	"CY_BLE_EVT_AIOSS_NOTIFICATION_ENABLED\000"
 10045      4C455F45 
 10045      56545F41 
 10045      494F5353 
 10045      5F4E4F54 
 10046              	.LASF1023:
 10047 1642 43595F42 		.ascii	"CY_BLE_EVT_UDSC_WRITE_DESCR_RESPONSE\000"
 10047      4C455F45 
 10047      56545F55 
 10047      4453435F 
 10047      57524954 
ARM GAS  C:\Users\gjl\AppData\Local\Temp\ccRZOvUj.s 			page 226


 10048              	.LASF396:
 10049 1667 43595F42 		.ascii	"CY_BLE_EVT_L2CAP_CONN_PARAM_UPDATE_REQ\000"
 10049      4C455F45 
 10049      56545F4C 
 10049      32434150 
 10049      5F434F4E 
 10050              	.LASF627:
 10051 168e 43595F42 		.ascii	"CY_BLE_GAPP_NON_CONNECTABLE_UNDIRECTED_ADV\000"
 10051      4C455F47 
 10051      4150505F 
 10051      4E4F4E5F 
 10051      434F4E4E 
 10052              	.LASF465:
 10053 16b9 626C6553 		.ascii	"bleSsChId\000"
 10053      73436849 
 10053      6400
 10054              	.LASF173:
 10055 16c3 7573625F 		.ascii	"usb_interrupt_hi_IRQn\000"
 10055      696E7465 
 10055      72727570 
 10055      745F6869 
 10055      5F495251 
 10056              	.LASF29:
 10057 16d9 53797354 		.ascii	"SysTick_IRQn\000"
 10057      69636B5F 
 10057      4952516E 
 10057      00
 10058              	.LASF1101:
 10059 16e6 63795F62 		.ascii	"cy_ble_peerBonding\000"
 10059      6C655F70 
 10059      65657242 
 10059      6F6E6469 
 10059      6E6700
 10060              	.LASF656:
 10061 16f9 63795F65 		.ascii	"cy_en_ble_adv_state_t\000"
 10061      6E5F626C 
 10061      655F6164 
 10061      765F7374 
 10061      6174655F 
 10062              	.LASF727:
 10063 170f 73656375 		.ascii	"securityIoCapability\000"
 10063      72697479 
 10063      496F4361 
 10063      70616269 
 10063      6C697479 
 10064              	.LASF132:
 10065 1724 74637077 		.ascii	"tcpwm_1_interrupts_4_IRQn\000"
 10065      6D5F315F 
 10065      696E7465 
 10065      72727570 
 10065      74735F34 
 10066              	.LASF974:
 10067 173e 43595F42 		.ascii	"CY_BLE_EVT_PLXSS_INDICATION_CONFIRMED\000"
 10067      4C455F45 
 10067      56545F50 
 10067      4C585353 
 10067      5F494E44 
ARM GAS  C:\Users\gjl\AppData\Local\Temp\ccRZOvUj.s 			page 227


 10068              	.LASF512:
 10069 1764 43595F42 		.ascii	"CY_BLE_GATT_ERR_WRITE_NOT_PERMITTED\000"
 10069      4C455F47 
 10069      4154545F 
 10069      4552525F 
 10069      57524954 
 10070              	.LASF351:
 10071 1788 43595F42 		.ascii	"CY_BLE_EVT_GAPP_ADVERTISEMENT_START_STOP\000"
 10071      4C455F45 
 10071      56545F47 
 10071      4150505F 
 10071      41445645 
 10072              	.LASF644:
 10073 17b1 64697363 		.ascii	"discMode\000"
 10073      4D6F6465 
 10073      00
 10074              	.LASF966:
 10075 17ba 43595F42 		.ascii	"CY_BLE_EVT_PASSS_NOTIFICATION_DISABLED\000"
 10075      4C455F45 
 10075      56545F50 
 10075      41535353 
 10075      5F4E4F54 
 10076              	.LASF42:
 10077 17e1 696F7373 		.ascii	"ioss_interrupts_gpio_12_IRQn\000"
 10077      5F696E74 
 10077      65727275 
 10077      7074735F 
 10077      6770696F 
 10078              	.LASF1003:
 10079 17fe 43595F42 		.ascii	"CY_BLE_EVT_SCPSC_READ_DESCR_RESPONSE\000"
 10079      4C455F45 
 10079      56545F53 
 10079      43505343 
 10079      5F524541 
 10080              	.LASF952:
 10081 1823 43595F42 		.ascii	"CY_BLE_EVT_LNSS_INDICATION_ENABLED\000"
 10081      4C455F45 
 10081      56545F4C 
 10081      4E53535F 
 10081      494E4449 
 10082              	.LASF89:
 10083 1846 63707573 		.ascii	"cpuss_interrupts_dw0_9_IRQn\000"
 10083      735F696E 
 10083      74657272 
 10083      75707473 
 10083      5F647730 
 10084              	.LASF624:
 10085 1862 43595F42 		.ascii	"CY_BLE_GAPP_CONNECTABLE_UNDIRECTED_ADV\000"
 10085      4C455F47 
 10085      4150505F 
 10085      434F4E4E 
 10085      45435441 
 10086              	.LASF596:
 10087 1889 73656375 		.ascii	"security\000"
 10087      72697479 
 10087      00
 10088              	.LASF671:
ARM GAS  C:\Users\gjl\AppData\Local\Temp\ccRZOvUj.s 			page 228


 10089 1892 7265736F 		.ascii	"resolvablePrivateAddressOnly\000"
 10089      6C766162 
 10089      6C655072 
 10089      69766174 
 10089      65416464 
 10090              	.LASF312:
 10091 18af 43595F42 		.ascii	"CY_BLE_EVT_SET_RPA_TO_COMPLETE\000"
 10091      4C455F45 
 10091      56545F53 
 10091      45545F52 
 10091      50415F54 
 10092              	.LASF281:
 10093 18ce 52544F43 		.ascii	"RTOC2_SHASH_OBJECTS\000"
 10093      325F5348 
 10093      4153485F 
 10093      4F424A45 
 10093      43545300 
 10094              	.LASF561:
 10095 18e2 63795F73 		.ascii	"cy_stc_ble_gatt_err_param_t\000"
 10095      74635F62 
 10095      6C655F67 
 10095      6174745F 
 10095      6572725F 
 10096              	.LASF342:
 10097 18fe 43595F42 		.ascii	"CY_BLE_EVT_SET_EVENT_MASK_COMPLETE\000"
 10097      4C455F45 
 10097      56545F53 
 10097      45545F45 
 10097      56454E54 
 10098              	.LASF545:
 10099 1921 43595F42 		.ascii	"CY_BLE_GATT_ERR_PROCEDURE_ALREADY_IN_PROGRESS\000"
 10099      4C455F47 
 10099      4154545F 
 10099      4552525F 
 10099      50524F43 
 10100              	.LASF316:
 10101 194f 43595F42 		.ascii	"CY_BLE_EVT_REMOVE_DEVICE_FROM_RPA_LIST_COMPLETE\000"
 10101      4C455F45 
 10101      56545F52 
 10101      454D4F56 
 10101      455F4445 
 10102              	.LASF120:
 10103 197f 74637077 		.ascii	"tcpwm_0_interrupts_0_IRQn\000"
 10103      6D5F305F 
 10103      696E7465 
 10103      72727570 
 10103      74735F30 
 10104              	.LASF580:
 10105 1999 43595F42 		.ascii	"CY_BLE_GAP_AUTH_ERROR_UNSPECIFIED_REASON\000"
 10105      4C455F47 
 10105      41505F41 
 10105      5554485F 
 10105      4552524F 
 10106              	.LASF776:
 10107 19c2 43595F42 		.ascii	"CY_BLE_EVT_AIOSC_READ_CHAR_RESPONSE\000"
 10107      4C455F45 
 10107      56545F41 
ARM GAS  C:\Users\gjl\AppData\Local\Temp\ccRZOvUj.s 			page 229


 10107      494F5343 
 10107      5F524541 
 10108              	.LASF1018:
 10109 19e6 43595F42 		.ascii	"CY_BLE_EVT_UDSC_INDICATION\000"
 10109      4C455F45 
 10109      56545F55 
 10109      4453435F 
 10109      494E4449 
 10110              	.LASF417:
 10111 1a01 43595F42 		.ascii	"CY_BLE_ERROR_NO_DEVICE_ENTITY\000"
 10111      4C455F45 
 10111      52524F52 
 10111      5F4E4F5F 
 10111      44455649 
 10112              	.LASF575:
 10113 1a1f 43595F42 		.ascii	"CY_BLE_GAP_AUTH_ERROR_AUTHENTICATION_REQ_NOT_MET\000"
 10113      4C455F47 
 10113      41505F41 
 10113      5554485F 
 10113      4552524F 
 10114              	.LASF6:
 10115 1a50 5F5F7569 		.ascii	"__uint8_t\000"
 10115      6E74385F 
 10115      7400
 10116              	.LASF1044:
 10117 1a5a 43595F42 		.ascii	"CY_BLE_EVT_BTSS_NOTIFICATION_ENABLED\000"
 10117      4C455F45 
 10117      56545F42 
 10117      5453535F 
 10117      4E4F5449 
 10118              	.LASF155:
 10119 1a7f 7564625F 		.ascii	"udb_interrupts_3_IRQn\000"
 10119      696E7465 
 10119      72727570 
 10119      74735F33 
 10119      5F495251 
 10120              	.LASF118:
 10121 1a95 63707573 		.ascii	"cpuss_interrupts_cm4_cti_0_IRQn\000"
 10121      735F696E 
 10121      74657272 
 10121      75707473 
 10121      5F636D34 
 10122              	.LASF549:
 10123 1ab5 61637475 		.ascii	"actualLen\000"
 10123      616C4C65 
 10123      6E00
 10124              	.LASF392:
 10125 1abf 43595F42 		.ascii	"CY_BLE_EVT_GATTS_DATA_SIGNED_CMD_REQ\000"
 10125      4C455F45 
 10125      56545F47 
 10125      41545453 
 10125      5F444154 
 10126              	.LASF101:
 10127 1ae4 63707573 		.ascii	"cpuss_interrupts_dw1_5_IRQn\000"
 10127      735F696E 
 10127      74657272 
 10127      75707473 
ARM GAS  C:\Users\gjl\AppData\Local\Temp\ccRZOvUj.s 			page 230


 10127      5F647731 
 10128              	.LASF913:
 10129 1b00 43595F42 		.ascii	"CY_BLE_EVT_HPSC_NOTIFICATION\000"
 10129      4C455F45 
 10129      56545F48 
 10129      5053435F 
 10129      4E4F5449 
 10130              	.LASF360:
 10131 1b1d 43595F42 		.ascii	"CY_BLE_EVT_GAP_OOB_GENERATED_NOTIFICATION\000"
 10131      4C455F45 
 10131      56545F47 
 10131      41505F4F 
 10131      4F425F47 
 10132              	.LASF257:
 10133 1b47 52544F43 		.ascii	"RTOC1_SYSCALL_TABLE_ADDR\000"
 10133      315F5359 
 10133      5343414C 
 10133      4C5F5441 
 10133      424C455F 
 10134              	.LASF856:
 10135 1b60 43595F42 		.ascii	"CY_BLE_EVT_CSCSS_INDICATION_CONFIRMATION\000"
 10135      4C455F45 
 10135      56545F43 
 10135      53435353 
 10135      5F494E44 
 10136              	.LASF146:
 10137 1b89 74637077 		.ascii	"tcpwm_1_interrupts_18_IRQn\000"
 10137      6D5F315F 
 10137      696E7465 
 10137      72727570 
 10137      74735F31 
 10138              	.LASF440:
 10139 1ba4 62644164 		.ascii	"bdAddr\000"
 10139      647200
 10140              	.LASF443:
 10141 1bab 43595F42 		.ascii	"CY_BLE_LL_PWR_LVL_NEG_20_DBM\000"
 10141      4C455F4C 
 10141      4C5F5057 
 10141      525F4C56 
 10141      4C5F4E45 
 10142              	.LASF746:
 10143 1bc8 63795F73 		.ascii	"cy_stc_ble_config_t\000"
 10143      74635F62 
 10143      6C655F63 
 10143      6F6E6669 
 10143      675F7400 
 10144              	.LASF106:
 10145 1bdc 63707573 		.ascii	"cpuss_interrupts_dw1_10_IRQn\000"
 10145      735F696E 
 10145      74657272 
 10145      75707473 
 10145      5F647731 
 10146              	.LASF293:
 10147 1bf9 43595F42 		.ascii	"CY_BLE_EVT_INVALID\000"
 10147      4C455F45 
 10147      56545F49 
 10147      4E56414C 
ARM GAS  C:\Users\gjl\AppData\Local\Temp\ccRZOvUj.s 			page 231


 10147      494400
 10148              	.LASF921:
 10149 1c0c 43595F42 		.ascii	"CY_BLE_EVT_HRSC_NOTIFICATION\000"
 10149      4C455F45 
 10149      56545F48 
 10149      5253435F 
 10149      4E4F5449 
 10150              	.LASF59:
 10151 1c29 63707573 		.ascii	"cpuss_interrupts_ipc_4_IRQn\000"
 10151      735F696E 
 10151      74657272 
 10151      75707473 
 10151      5F697063 
 10152              	.LASF630:
 10153 1c45 61647649 		.ascii	"advIntvMin\000"
 10153      6E74764D 
 10153      696E00
 10154              	.LASF1128:
 10155 1c50 43795F42 		.ascii	"Cy_BLE_GetAdvertisementState\000"
 10155      4C455F47 
 10155      65744164 
 10155      76657274 
 10155      6973656D 
 10156              	.LASF817:
 10157 1c6d 43595F42 		.ascii	"CY_BLE_EVT_BLSC_READ_CHAR_RESPONSE\000"
 10157      4C455F45 
 10157      56545F42 
 10157      4C53435F 
 10157      52454144 
 10158              	.LASF1025:
 10159 1c90 43595F42 		.ascii	"CY_BLE_EVT_WPTSS_NOTIFICATION_ENABLED\000"
 10159      4C455F45 
 10159      56545F57 
 10159      50545353 
 10159      5F4E4F54 
 10160              	.LASF373:
 10161 1cb6 43595F42 		.ascii	"CY_BLE_EVT_GATT_DISCONNECT_IND\000"
 10161      4C455F45 
 10161      56545F47 
 10161      4154545F 
 10161      44495343 
 10162              	.LASF724:
 10163 1cd5 63795F73 		.ascii	"cy_stc_ble_flash_storage_t\000"
 10163      74635F62 
 10163      6C655F66 
 10163      6C617368 
 10163      5F73746F 
 10164              	.LASF231:
 10165 1cf0 464C4153 		.ascii	"FLASH_BOOT_ATTRIBUTE\000"
 10165      485F424F 
 10165      4F545F41 
 10165      54545249 
 10165      42555445 
 10166              	.LASF743:
 10167 1d05 63616C6C 		.ascii	"callbackFunc\000"
 10167      6261636B 
 10167      46756E63 
ARM GAS  C:\Users\gjl\AppData\Local\Temp\ccRZOvUj.s 			page 232


 10167      00
 10168              	.LASF932:
 10169 1d12 43595F42 		.ascii	"CY_BLE_EVT_HTSC_NOTIFICATION\000"
 10169      4C455F45 
 10169      56545F48 
 10169      5453435F 
 10169      4E4F5449 
 10170              	.LASF515:
 10171 1d2f 43595F42 		.ascii	"CY_BLE_GATT_ERR_REQUEST_NOT_SUPPORTED\000"
 10171      4C455F47 
 10171      4154545F 
 10171      4552525F 
 10171      52455155 
 10172              	.LASF912:
 10173 1d55 43595F42 		.ascii	"CY_BLE_EVT_HPSS_WRITE_CHAR\000"
 10173      4C455F45 
 10173      56545F48 
 10173      5053535F 
 10173      57524954 
 10174              	.LASF405:
 10175 1d70 43595F42 		.ascii	"CY_BLE_EVT_L2CAP_CBFC_TX_CREDIT_IND\000"
 10175      4C455F45 
 10175      56545F4C 
 10175      32434150 
 10175      5F434246 
 10176              	.LASF734:
 10177 1d94 64697363 		.ascii	"discoveryInfo\000"
 10177      6F766572 
 10177      79496E66 
 10177      6F00
 10178              	.LASF883:
 10179 1da2 43595F42 		.ascii	"CY_BLE_EVT_ESSC_WRITE_CHAR_RESPONSE\000"
 10179      4C455F45 
 10179      56545F45 
 10179      5353435F 
 10179      57524954 
 10180              	.LASF129:
 10181 1dc6 74637077 		.ascii	"tcpwm_1_interrupts_1_IRQn\000"
 10181      6D5F315F 
 10181      696E7465 
 10181      72727570 
 10181      74735F31 
 10182              	.LASF579:
 10183 1de0 43595F42 		.ascii	"CY_BLE_GAP_AUTH_ERROR_COMMAND_NOT_SUPPORTED\000"
 10183      4C455F47 
 10183      41505F41 
 10183      5554485F 
 10183      4552524F 
 10184              	.LASF234:
 10185 1e0c 464C4153 		.ascii	"FLASH_BOOT_CORE_CPUID\000"
 10185      485F424F 
 10185      4F545F43 
 10185      4F52455F 
 10185      43505549 
 10186              	.LASF298:
 10187 1e22 43595F42 		.ascii	"CY_BLE_EVT_PENDING_FLASH_WRITE\000"
 10187      4C455F45 
ARM GAS  C:\Users\gjl\AppData\Local\Temp\ccRZOvUj.s 			page 233


 10187      56545F50 
 10187      454E4449 
 10187      4E475F46 
 10188              	.LASF363:
 10189 1e41 43595F42 		.ascii	"CY_BLE_EVT_GAP_SMP_NEGOTIATED_AUTH_INFO\000"
 10189      4C455F45 
 10189      56545F47 
 10189      41505F53 
 10189      4D505F4E 
 10190              	.LASF447:
 10191 1e69 43595F42 		.ascii	"CY_BLE_LL_PWR_LVL_0_DBM\000"
 10191      4C455F4C 
 10191      4C5F5057 
 10191      525F4C56 
 10191      4C5F305F 
 10192              	.LASF576:
 10193 1e81 43595F42 		.ascii	"CY_BLE_GAP_AUTH_ERROR_CONFIRM_VALUE_NOT_MATCH\000"
 10193      4C455F47 
 10193      41505F41 
 10193      5554485F 
 10193      4552524F 
 10194              	.LASF21:
 10195 1eaf 4E6F6E4D 		.ascii	"NonMaskableInt_IRQn\000"
 10195      61736B61 
 10195      626C6549 
 10195      6E745F49 
 10195      52516E00 
 10196              	.LASF255:
 10197 1ec3 52544F43 		.ascii	"RTOC1_UNIQUE_ID_ADDR\000"
 10197      315F554E 
 10197      49515545 
 10197      5F49445F 
 10197      41444452 
 10198              	.LASF785:
 10199 1ed8 43595F42 		.ascii	"CY_BLE_EVT_ANCSC_WRITE_CHAR_RESPONSE\000"
 10199      4C455F45 
 10199      56545F41 
 10199      4E435343 
 10199      5F575249 
 10200              	.LASF495:
 10201 1efd 43595F42 		.ascii	"CY_BLE_GATT_READ_BY_GROUP_RSP\000"
 10201      4C455F47 
 10201      4154545F 
 10201      52454144 
 10201      5F42595F 
 10202              	.LASF86:
 10203 1f1b 63707573 		.ascii	"cpuss_interrupts_dw0_6_IRQn\000"
 10203      735F696E 
 10203      74657272 
 10203      75707473 
 10203      5F647730 
 10204              	.LASF320:
 10205 1f37 43595F42 		.ascii	"CY_BLE_EVT_SET_DEFAULT_PHY_COMPLETE\000"
 10205      4C455F45 
 10205      56545F53 
 10205      45545F44 
 10205      45464155 
ARM GAS  C:\Users\gjl\AppData\Local\Temp\ccRZOvUj.s 			page 234


 10206              	.LASF908:
 10207 1f5b 43595F42 		.ascii	"CY_BLE_EVT_HIDSC_READ_DESCR_RESPONSE\000"
 10207      4C455F45 
 10207      56545F48 
 10207      49445343 
 10207      5F524541 
 10208              	.LASF241:
 10209 1f80 544F4331 		.ascii	"TOC1_OBJECT_SIZE\000"
 10209      5F4F424A 
 10209      4543545F 
 10209      53495A45 
 10209      00
 10210              	.LASF753:
 10211 1f91 43595F42 		.ascii	"CY_BLE_EVT_GATTS_INDICATION_DISABLED\000"
 10211      4C455F45 
 10211      56545F47 
 10211      41545453 
 10211      5F494E44 
 10212              	.LASF198:
 10213 1fb6 4353505F 		.ascii	"CSP_PANEL_ID\000"
 10213      50414E45 
 10213      4C5F4944 
 10213      00
 10214              	.LASF483:
 10215 1fc3 43595F42 		.ascii	"CY_BLE_GATT_FIND_INFO_RSP\000"
 10215      4C455F47 
 10215      4154545F 
 10215      46494E44 
 10215      5F494E46 
 10216              	.LASF722:
 10217 1fdd 63636364 		.ascii	"cccdCount\000"
 10217      436F756E 
 10217      7400
 10218              	.LASF407:
 10219 1fe7 43595F42 		.ascii	"CY_BLE_EVT_MAX\000"
 10219      4C455F45 
 10219      56545F4D 
 10219      415800
 10220              	.LASF1079:
 10221 1ff6 6C654D61 		.ascii	"leMask\000"
 10221      736B00
 10222              	.LASF1040:
 10223 1ffd 43595F42 		.ascii	"CY_BLE_EVT_WSSC_INDICATION\000"
 10223      4C455F45 
 10223      56545F57 
 10223      5353435F 
 10223      494E4449 
 10224              	.LASF421:
 10225 2018 43595F42 		.ascii	"CY_BLE_ERROR_SEC_FAILED\000"
 10225      4C455F45 
 10225      52524F52 
 10225      5F534543 
 10225      5F464149 
 10226              	.LASF869:
 10227 2030 43595F42 		.ascii	"CY_BLE_EVT_CTSC_READ_DESCR_RESPONSE\000"
 10227      4C455F45 
 10227      56545F43 
ARM GAS  C:\Users\gjl\AppData\Local\Temp\ccRZOvUj.s 			page 235


 10227      5453435F 
 10227      52454144 
 10228              	.LASF959:
 10229 2054 43595F42 		.ascii	"CY_BLE_EVT_LNSC_NOTIFICATION\000"
 10229      4C455F45 
 10229      56545F4C 
 10229      4E53435F 
 10229      4E4F5449 
 10230              	.LASF454:
 10231 2071 43595F42 		.ascii	"CY_BLE_GAP_ADV_TO\000"
 10231      4C455F47 
 10231      41505F41 
 10231      44565F54 
 10231      4F00
 10232              	.LASF167:
 10233 2083 7564625F 		.ascii	"udb_interrupts_15_IRQn\000"
 10233      696E7465 
 10233      72727570 
 10233      74735F31 
 10233      355F4952 
 10234              	.LASF177:
 10235 209a 756E636F 		.ascii	"unconnected_IRQn\000"
 10235      6E6E6563 
 10235      7465645F 
 10235      4952516E 
 10235      00
 10236              	.LASF289:
 10237 20ab 646F7562 		.ascii	"double\000"
 10237      6C6500
 10238              	.LASF901:
 10239 20b2 43595F42 		.ascii	"CY_BLE_EVT_HIDSS_REPORT_MODE_ENTER\000"
 10239      4C455F45 
 10239      56545F48 
 10239      49445353 
 10239      5F524550 
 10240              	.LASF150:
 10241 20d5 74637077 		.ascii	"tcpwm_1_interrupts_22_IRQn\000"
 10241      6D5F315F 
 10241      696E7465 
 10241      72727570 
 10241      74735F32 
 10242              	.LASF819:
 10243 20f0 43595F42 		.ascii	"CY_BLE_EVT_BLSC_WRITE_DESCR_RESPONSE\000"
 10243      4C455F45 
 10243      56545F42 
 10243      4C53435F 
 10243      57524954 
 10244              	.LASF213:
 10245 2115 5354414E 		.ascii	"STANDARD_MPU_STRUCT\000"
 10245      44415244 
 10245      5F4D5055 
 10245      5F535452 
 10245      55435400 
 10246              	.LASF429:
 10247 2129 43595F42 		.ascii	"CY_BLE_ERROR_FLASH_WRITE\000"
 10247      4C455F45 
 10247      52524F52 
ARM GAS  C:\Users\gjl\AppData\Local\Temp\ccRZOvUj.s 			page 236


 10247      5F464C41 
 10247      53485F57 
 10248              	.LASF152:
 10249 2142 7564625F 		.ascii	"udb_interrupts_0_IRQn\000"
 10249      696E7465 
 10249      72727570 
 10249      74735F30 
 10249      5F495251 
 10250              	.LASF863:
 10251 2158 43595F42 		.ascii	"CY_BLE_EVT_CSCSC_WRITE_DESCR_RESPONSE\000"
 10251      4C455F45 
 10251      56545F43 
 10251      53435343 
 10251      5F575249 
 10252              	.LASF798:
 10253 217e 43595F42 		.ascii	"CY_BLE_EVT_BASS_NOTIFICATION_DISABLED\000"
 10253      4C455F45 
 10253      56545F42 
 10253      4153535F 
 10253      4E4F5449 
 10254              	.LASF857:
 10255 21a4 43595F42 		.ascii	"CY_BLE_EVT_CSCSS_WRITE_CHAR\000"
 10255      4C455F45 
 10255      56545F43 
 10255      53435353 
 10255      5F575249 
 10256              	.LASF168:
 10257 21c0 70617373 		.ascii	"pass_interrupt_sar_IRQn\000"
 10257      5F696E74 
 10257      65727275 
 10257      70745F73 
 10257      61725F49 
 10258              	.LASF504:
 10259 21d8 43595F42 		.ascii	"CY_BLE_GATT_HANDLE_VALUE_IND\000"
 10259      4C455F47 
 10259      4154545F 
 10259      48414E44 
 10259      4C455F56 
 10260              	.LASF996:
 10261 21f5 43595F42 		.ascii	"CY_BLE_EVT_RSCSC_WRITE_DESCR_RESPONSE\000"
 10261      4C455F45 
 10261      56545F52 
 10261      53435343 
 10261      5F575249 
 10262              	.LASF848:
 10263 221b 43595F42 		.ascii	"CY_BLE_EVT_CPSC_READ_DESCR_RESPONSE\000"
 10263      4C455F45 
 10263      56545F43 
 10263      5053435F 
 10263      52454144 
 10264              	.LASF350:
 10265 223f 43595F42 		.ascii	"CY_BLE_EVT_GAP_AUTH_FAILED\000"
 10265      4C455F45 
 10265      56545F47 
 10265      41505F41 
 10265      5554485F 
 10266              	.LASF170:
ARM GAS  C:\Users\gjl\AppData\Local\Temp\ccRZOvUj.s 			page 237


 10267 225a 61756469 		.ascii	"audioss_interrupt_pdm_IRQn\000"
 10267      6F73735F 
 10267      696E7465 
 10267      72727570 
 10267      745F7064 
 10268              	.LASF629:
 10269 2275 63795F65 		.ascii	"cy_en_ble_gapp_adv_t\000"
 10269      6E5F626C 
 10269      655F6761 
 10269      70705F61 
 10269      64765F74 
 10270              	.LASF960:
 10271 228a 43595F42 		.ascii	"CY_BLE_EVT_LNSC_READ_CHAR_RESPONSE\000"
 10271      4C455F45 
 10271      56545F4C 
 10271      4E53435F 
 10271      52454144 
 10272              	.LASF879:
 10273 22ad 43595F42 		.ascii	"CY_BLE_EVT_ESSS_DESCR_WRITE\000"
 10273      4C455F45 
 10273      56545F45 
 10273      5353535F 
 10273      44455343 
 10274              	.LASF602:
 10275 22c9 73746174 		.ascii	"status\000"
 10275      757300
 10276              	.LASF98:
 10277 22d0 63707573 		.ascii	"cpuss_interrupts_dw1_2_IRQn\000"
 10277      735F696E 
 10277      74657272 
 10277      75707473 
 10277      5F647731 
 10278              	.LASF1042:
 10279 22ec 43595F42 		.ascii	"CY_BLE_EVT_WSSC_READ_DESCR_RESPONSE\000"
 10279      4C455F45 
 10279      56545F57 
 10279      5353435F 
 10279      52454144 
 10280              	.LASF1099:
 10281 2310 63795F62 		.ascii	"cy_ble_pairStatus\000"
 10281      6C655F70 
 10281      61697253 
 10281      74617475 
 10281      7300
 10282              	.LASF418:
 10283 2322 43595F42 		.ascii	"CY_BLE_ERROR_DEVICE_ALREADY_EXISTS\000"
 10283      4C455F45 
 10283      52524F52 
 10283      5F444556 
 10283      4943455F 
 10284              	.LASF400:
 10285 2345 43595F42 		.ascii	"CY_BLE_EVT_L2CAP_CBFC_CONN_CNF\000"
 10285      4C455F45 
 10285      56545F4C 
 10285      32434150 
 10285      5F434246 
 10286              	.LASF537:
ARM GAS  C:\Users\gjl\AppData\Local\Temp\ccRZOvUj.s 			page 238


 10287 2364 43595F42 		.ascii	"CY_BLE_GATTS_ERR_HPS_INVALID_REQUEST\000"
 10287      4C455F47 
 10287      41545453 
 10287      5F455252 
 10287      5F485053 
 10288              	.LASF1045:
 10289 2389 43595F42 		.ascii	"CY_BLE_EVT_BTSS_NOTIFICATION_DISABLED\000"
 10289      4C455F45 
 10289      56545F42 
 10289      5453535F 
 10289      4E4F5449 
 10290              	.LASF641:
 10291 23af 7363616E 		.ascii	"scanRspData\000"
 10291      52737044 
 10291      61746100 
 10292              	.LASF779:
 10293 23bb 43595F42 		.ascii	"CY_BLE_EVT_AIOSC_WRITE_DESCR_RESPONSE\000"
 10293      4C455F45 
 10293      56545F41 
 10293      494F5343 
 10293      5F575249 
 10294              	.LASF143:
 10295 23e1 74637077 		.ascii	"tcpwm_1_interrupts_15_IRQn\000"
 10295      6D5F315F 
 10295      696E7465 
 10295      72727570 
 10295      74735F31 
 10296              	.LASF822:
 10297 23fc 43595F42 		.ascii	"CY_BLE_EVT_BMSC_WRITE_CHAR_RESPONSE\000"
 10297      4C455F45 
 10297      56545F42 
 10297      4D53435F 
 10297      57524954 
 10298              	.LASF862:
 10299 2420 43595F42 		.ascii	"CY_BLE_EVT_CSCSC_READ_DESCR_RESPONSE\000"
 10299      4C455F45 
 10299      56545F43 
 10299      53435343 
 10299      5F524541 
 10300              	.LASF507:
 10301 2445 43595F42 		.ascii	"CY_BLE_GATT_UNKNOWN_PDU_IND\000"
 10301      4C455F47 
 10301      4154545F 
 10301      554E4B4E 
 10301      4F574E5F 
 10302              	.LASF978:
 10303 2461 43595F42 		.ascii	"CY_BLE_EVT_PLXSC_INDICATION\000"
 10303      4C455F45 
 10303      56545F50 
 10303      4C585343 
 10303      5F494E44 
 10304              	.LASF56:
 10305 247d 63707573 		.ascii	"cpuss_interrupts_ipc_1_IRQn\000"
 10305      735F696E 
 10305      74657272 
 10305      75707473 
 10305      5F697063 
ARM GAS  C:\Users\gjl\AppData\Local\Temp\ccRZOvUj.s 			page 239


 10306              	.LASF328:
 10307 2499 43595F42 		.ascii	"CY_BLE_EVT_GET_RSSI_COMPLETE\000"
 10307      4C455F45 
 10307      56545F47 
 10307      45545F52 
 10307      5353495F 
 10308              	.LASF397:
 10309 24b6 43595F42 		.ascii	"CY_BLE_EVT_L2CAP_CONN_PARAM_UPDATE_RSP\000"
 10309      4C455F45 
 10309      56545F4C 
 10309      32434150 
 10309      5F434F4E 
 10310              	.LASF1012:
 10311 24dd 43595F42 		.ascii	"CY_BLE_EVT_UDSS_INDICATION_DISABLED\000"
 10311      4C455F45 
 10311      56545F55 
 10311      4453535F 
 10311      494E4449 
 10312              	.LASF903:
 10313 2501 43595F42 		.ascii	"CY_BLE_EVT_HIDSS_EXIT_SUSPEND\000"
 10313      4C455F45 
 10313      56545F48 
 10313      49445353 
 10313      5F455849 
 10314              	.LASF826:
 10315 251f 43595F42 		.ascii	"CY_BLE_EVT_CGMSS_INDICATION_CONFIRMED\000"
 10315      4C455F45 
 10315      56545F43 
 10315      474D5353 
 10315      5F494E44 
 10316              	.LASF313:
 10317 2545 43595F42 		.ascii	"CY_BLE_EVT_SET_RPA_ENABLE_COMPLETE\000"
 10317      4C455F45 
 10317      56545F53 
 10317      45545F52 
 10317      50415F45 
 10318              	.LASF510:
 10319 2568 43595F42 		.ascii	"CY_BLE_GATT_ERR_INVALID_HANDLE\000"
 10319      4C455F47 
 10319      4154545F 
 10319      4552525F 
 10319      494E5641 
 10320              	.LASF243:
 10321 2587 544F4331 		.ascii	"TOC1_FHASH_OBJECTS\000"
 10321      5F464841 
 10321      53485F4F 
 10321      424A4543 
 10321      545300
 10322              	.LASF881:
 10323 259a 43595F42 		.ascii	"CY_BLE_EVT_ESSC_INDICATION\000"
 10323      4C455F45 
 10323      56545F45 
 10323      5353435F 
 10323      494E4449 
 10324              	.LASF956:
 10325 25b5 43595F42 		.ascii	"CY_BLE_EVT_LNSS_NOTIFICATION_DISABLED\000"
 10325      4C455F45 
ARM GAS  C:\Users\gjl\AppData\Local\Temp\ccRZOvUj.s 			page 240


 10325      56545F4C 
 10325      4E53535F 
 10325      4E4F5449 
 10326              	.LASF174:
 10327 25db 7573625F 		.ascii	"usb_interrupt_med_IRQn\000"
 10327      696E7465 
 10327      72727570 
 10327      745F6D65 
 10327      645F4952 
 10328              	.LASF1030:
 10329 25f2 43595F42 		.ascii	"CY_BLE_EVT_WPTSS_WRITE_CHAR\000"
 10329      4C455F45 
 10329      56545F57 
 10329      50545353 
 10329      5F575249 
 10330              	.LASF1111:
 10331 260e 43795F42 		.ascii	"Cy_BLE_GATTS_WriteRsp\000"
 10331      4C455F47 
 10331      41545453 
 10331      5F577269 
 10331      74655273 
 10332              	.LASF804:
 10333 2624 43595F42 		.ascii	"CY_BLE_EVT_BCSS_INDICATION_DISABLED\000"
 10333      4C455F45 
 10333      56545F42 
 10333      4353535F 
 10333      494E4449 
 10334              	.LASF1085:
 10335 2648 636F6E6E 		.ascii	"connEnhanceParam\000"
 10335      456E6861 
 10335      6E636550 
 10335      6172616D 
 10335      00
 10336              	.LASF954:
 10337 2659 43595F42 		.ascii	"CY_BLE_EVT_LNSS_INDICATION_CONFIRMED\000"
 10337      4C455F45 
 10337      56545F4C 
 10337      4E53535F 
 10337      494E4449 
 10338              	.LASF707:
 10339 267e 7065726D 		.ascii	"permission\000"
 10339      69737369 
 10339      6F6E00
 10340              	.LASF511:
 10341 2689 43595F42 		.ascii	"CY_BLE_GATT_ERR_READ_NOT_PERMITTED\000"
 10341      4C455F47 
 10341      4154545F 
 10341      4552525F 
 10341      52454144 
 10342              	.LASF1092:
 10343 26ac 63795F62 		.ascii	"cy_ble_sflashDeviceAddress\000"
 10343      6C655F73 
 10343      666C6173 
 10343      68446576 
 10343      69636541 
 10344              	.LASF518:
 10345 26c7 43595F42 		.ascii	"CY_BLE_GATT_ERR_PREPARE_WRITE_QUEUE_FULL\000"
ARM GAS  C:\Users\gjl\AppData\Local\Temp\ccRZOvUj.s 			page 241


 10345      4C455F47 
 10345      4154545F 
 10345      4552525F 
 10345      50524550 
 10346              	.LASF654:
 10347 26f0 43595F42 		.ascii	"CY_BLE_ADV_STATE_ADVERTISING\000"
 10347      4C455F41 
 10347      44565F53 
 10347      54415445 
 10347      5F414456 
 10348              	.LASF514:
 10349 270d 43595F42 		.ascii	"CY_BLE_GATT_ERR_INSUFFICIENT_AUTHENTICATION\000"
 10349      4C455F47 
 10349      4154545F 
 10349      4552525F 
 10349      494E5355 
 10350              	.LASF378:
 10351 2739 43595F42 		.ascii	"CY_BLE_EVT_GATTC_FIND_INFO_RSP\000"
 10351      4C455F45 
 10351      56545F47 
 10351      41545443 
 10351      5F46494E 
 10352              	.LASF83:
 10353 2758 63707573 		.ascii	"cpuss_interrupts_dw0_3_IRQn\000"
 10353      735F696E 
 10353      74657272 
 10353      75707473 
 10353      5F647730 
 10354              	.LASF1091:
 10355 2774 63795F62 		.ascii	"cy_ble_eventHandlerFlag\000"
 10355      6C655F65 
 10355      76656E74 
 10355      48616E64 
 10355      6C657246 
 10356              	.LASF1105:
 10357 278c 63795F62 		.ascii	"cy_ble_configPtr\000"
 10357      6C655F63 
 10357      6F6E6669 
 10357      67507472 
 10357      00
 10358              	.LASF1047:
 10359 279d 43595F42 		.ascii	"CY_BLE_EVT_BTSS_WRITE_CMD_REQ\000"
 10359      4C455F45 
 10359      56545F42 
 10359      5453535F 
 10359      57524954 
 10360              	.LASF335:
 10361 27bb 43595F42 		.ascii	"CY_BLE_EVT_AES_CCM_ENCRYPT_COMPLETE\000"
 10361      4C455F45 
 10361      56545F41 
 10361      45535F43 
 10361      434D5F45 
 10362              	.LASF744:
 10363 27df 64657669 		.ascii	"deviceAddress\000"
 10363      63654164 
 10363      64726573 
 10363      7300
ARM GAS  C:\Users\gjl\AppData\Local\Temp\ccRZOvUj.s 			page 242


 10364              	.LASF464:
 10365 27ed 63795F73 		.ascii	"cy_stc_ble_conn_handle_t\000"
 10365      74635F62 
 10365      6C655F63 
 10365      6F6E6E5F 
 10365      68616E64 
 10366              	.LASF472:
 10367 2806 616C6C6F 		.ascii	"allocFree\000"
 10367      63467265 
 10367      6500
 10368              	.LASF706:
 10369 2810 61747454 		.ascii	"attType\000"
 10369      79706500 
 10370              	.LASF1035:
 10371 2818 43595F42 		.ascii	"CY_BLE_EVT_WPTSC_READ_DESCR_RESPONSE\000"
 10371      4C455F45 
 10371      56545F57 
 10371      50545343 
 10371      5F524541 
 10372              	.LASF562:
 10373 283d 71756575 		.ascii	"queueBuffer\000"
 10373      65427566 
 10373      66657200 
 10374              	.LASF554:
 10375 2849 63795F73 		.ascii	"cy_stc_ble_gatt_xchg_mtu_param_t\000"
 10375      74635F62 
 10375      6C655F67 
 10375      6174745F 
 10375      78636867 
 10376              	.LASF474:
 10377 286a 63795F73 		.ascii	"cy_stc_ble_memory_request_t\000"
 10377      74635F62 
 10377      6C655F6D 
 10377      656D6F72 
 10377      795F7265 
 10378              	.LASF376:
 10379 2886 43595F42 		.ascii	"CY_BLE_EVT_GATTC_READ_BY_GROUP_TYPE_RSP\000"
 10379      4C455F45 
 10379      56545F47 
 10379      41545443 
 10379      5F524541 
 10380              	.LASF620:
 10381 28ae 7363616E 		.ascii	"scanFilterPolicy\000"
 10381      46696C74 
 10381      6572506F 
 10381      6C696379 
 10381      00
 10382              	.LASF1100:
 10383 28bf 63795F62 		.ascii	"cy_ble_pendingFlashWrite\000"
 10383      6C655F70 
 10383      656E6469 
 10383      6E67466C 
 10383      61736857 
 10384              	.LASF1062:
 10385 28d8 6576656E 		.ascii	"eventParam\000"
 10385      74506172 
 10385      616D00
ARM GAS  C:\Users\gjl\AppData\Local\Temp\ccRZOvUj.s 			page 243


 10386              	.LASF164:
 10387 28e3 7564625F 		.ascii	"udb_interrupts_12_IRQn\000"
 10387      696E7465 
 10387      72727570 
 10387      74735F31 
 10387      325F4952 
 10388              	.LASF7:
 10389 28fa 5F5F7569 		.ascii	"__uint16_t\000"
 10389      6E743136 
 10389      5F7400
 10390              	.LASF814:
 10391 2905 43595F42 		.ascii	"CY_BLE_EVT_BLSS_NOTIFICATION_DISABLED\000"
 10391      4C455F45 
 10391      56545F42 
 10391      4C53535F 
 10391      4E4F5449 
 10392              	.LASF732:
 10393 292b 64697363 		.ascii	"discoveryModeInfo\000"
 10393      6F766572 
 10393      794D6F64 
 10393      65496E66 
 10393      6F00
 10394              	.LASF420:
 10395 293d 43595F42 		.ascii	"CY_BLE_ERROR_GAP_ROLE\000"
 10395      4C455F45 
 10395      52524F52 
 10395      5F474150 
 10395      5F524F4C 
 10396              	.LASF604:
 10397 2953 636F6E6E 		.ascii	"connLatency\000"
 10397      4C617465 
 10397      6E637900 
 10398              	.LASF1027:
 10399 295f 43595F42 		.ascii	"CY_BLE_EVT_WPTSS_INDICATION_ENABLED\000"
 10399      4C455F45 
 10399      56545F57 
 10399      50545353 
 10399      5F494E44 
 10400              	.LASF872:
 10401 2983 43595F42 		.ascii	"CY_BLE_EVT_DISC_READ_CHAR_RESPONSE\000"
 10401      4C455F45 
 10401      56545F44 
 10401      4953435F 
 10401      52454144 
 10402              	.LASF265:
 10403 29a6 544F4332 		.ascii	"TOC2_FIRST_USER_APP_FORMAT\000"
 10403      5F464952 
 10403      53545F55 
 10403      5345525F 
 10403      4150505F 
 10404              	.LASF423:
 10405 29c1 43595F42 		.ascii	"CY_BLE_ERROR_L2CAP_PSM_ALREADY_REGISTERED\000"
 10405      4C455F45 
 10405      52524F52 
 10405      5F4C3243 
 10405      41505F50 
 10406              	.LASF902:
ARM GAS  C:\Users\gjl\AppData\Local\Temp\ccRZOvUj.s 			page 244


 10407 29eb 43595F42 		.ascii	"CY_BLE_EVT_HIDSS_SUSPEND\000"
 10407      4C455F45 
 10407      56545F48 
 10407      49445353 
 10407      5F535553 
 10408              	.LASF825:
 10409 2a04 43595F42 		.ascii	"CY_BLE_EVT_CGMSS_INDICATION_DISABLED\000"
 10409      4C455F45 
 10409      56545F43 
 10409      474D5353 
 10409      5F494E44 
 10410              	.LASF658:
 10411 2a29 43595F42 		.ascii	"CY_BLE_CONN_STATE_CLIENT_DISCONNECTED_DISCOVERED\000"
 10411      4C455F43 
 10411      4F4E4E5F 
 10411      53544154 
 10411      455F434C 
 10412              	.LASF924:
 10413 2a5a 43595F42 		.ascii	"CY_BLE_EVT_HRSC_READ_DESCR_RESPONSE\000"
 10413      4C455F45 
 10413      56545F48 
 10413      5253435F 
 10413      52454144 
 10414              	.LASF1036:
 10415 2a7e 43595F42 		.ascii	"CY_BLE_EVT_WPTSC_WRITE_DESCR_RESPONSE\000"
 10415      4C455F45 
 10415      56545F57 
 10415      50545343 
 10415      5F575249 
 10416              	.LASF211:
 10417 2aa4 5354414E 		.ascii	"STANDARD_SMPU_STRUCT_SLAVE_ATTR\000"
 10417      44415244 
 10417      5F534D50 
 10417      555F5354 
 10417      52554354 
 10418              	.LASF790:
 10419 2ac4 43595F42 		.ascii	"CY_BLE_EVT_ANSS_NOTIFICATION_DISABLED\000"
 10419      4C455F45 
 10419      56545F41 
 10419      4E53535F 
 10419      4E4F5449 
 10420              	.LASF622:
 10421 2aea 66696C74 		.ascii	"filterDuplicates\000"
 10421      65724475 
 10421      706C6963 
 10421      61746573 
 10421      00
 10422              	.LASF369:
 10423 2afb 43595F42 		.ascii	"CY_BLE_EVT_GAP_CONN_ESTB\000"
 10423      4C455F45 
 10423      56545F47 
 10423      41505F43 
 10423      4F4E4E5F 
 10424              	.LASF226:
 10425 2b14 43505553 		.ascii	"CPUSS_TRIM_ROM_CTL_LP\000"
 10425      535F5452 
 10425      494D5F52 
ARM GAS  C:\Users\gjl\AppData\Local\Temp\ccRZOvUj.s 			page 245


 10425      4F4D5F43 
 10425      544C5F4C 
 10426              	.LASF741:
 10427 2b2a 61757468 		.ascii	"authInfo\000"
 10427      496E666F 
 10427      00
 10428              	.LASF693:
 10429 2b33 63795F73 		.ascii	"cy_stc_ble_gatts_write_cmd_req_param_t\000"
 10429      74635F62 
 10429      6C655F67 
 10429      61747473 
 10429      5F777269 
 10430              	.LASF372:
 10431 2b5a 43595F42 		.ascii	"CY_BLE_EVT_GATT_CONNECT_IND\000"
 10431      4C455F45 
 10431      56545F47 
 10431      4154545F 
 10431      434F4E4E 
 10432              	.LASF710:
 10433 2b76 63795F73 		.ascii	"cy_stc_ble_gatts_db_t\000"
 10433      74635F62 
 10433      6C655F67 
 10433      61747473 
 10433      5F64625F 
 10434              	.LASF717:
 10435 2b8c 63795F73 		.ascii	"cy_stc_ble_l2cap_conn_update_rsp_param_t\000"
 10435      74635F62 
 10435      6C655F6C 
 10435      32636170 
 10435      5F636F6E 
 10436              	.LASF39:
 10437 2bb5 696F7373 		.ascii	"ioss_interrupts_gpio_9_IRQn\000"
 10437      5F696E74 
 10437      65727275 
 10437      7074735F 
 10437      6770696F 
 10438              	.LASF248:
 10439 2bd1 544F4331 		.ascii	"TOC1_BOOT_PROTECTION_ADDR\000"
 10439      5F424F4F 
 10439      545F5052 
 10439      4F544543 
 10439      54494F4E 
 10440              	.LASF664:
 10441 2beb 43595F42 		.ascii	"CY_BLE_CONN_STATE_CLIENT_DISCOVERED\000"
 10441      4C455F43 
 10441      4F4E4E5F 
 10441      53544154 
 10441      455F434C 
 10442              	.LASF140:
 10443 2c0f 74637077 		.ascii	"tcpwm_1_interrupts_12_IRQn\000"
 10443      6D5F315F 
 10443      696E7465 
 10443      72727570 
 10443      74735F31 
 10444              	.LASF469:
 10445 2c2a 63795F73 		.ascii	"cy_stc_ble_tx_pwr_lvl_info_t\000"
 10445      74635F62 
ARM GAS  C:\Users\gjl\AppData\Local\Temp\ccRZOvUj.s 			page 246


 10445      6C655F74 
 10445      785F7077 
 10445      725F6C76 
 10446              	.LASF352:
 10447 2c47 43595F42 		.ascii	"CY_BLE_EVT_GAP_DEVICE_CONNECTED\000"
 10447      4C455F45 
 10447      56545F47 
 10447      41505F44 
 10447      45564943 
 10448              	.LASF791:
 10449 2c67 43595F42 		.ascii	"CY_BLE_EVT_ANSS_WRITE_CHAR\000"
 10449      4C455F45 
 10449      56545F41 
 10449      4E53535F 
 10449      57524954 
 10450              	.LASF945:
 10451 2c82 43595F42 		.ascii	"CY_BLE_EVT_IPSC_READ_DESCR_RESPONSE\000"
 10451      4C455F45 
 10451      56545F49 
 10451      5053435F 
 10451      52454144 
 10452              	.LASF262:
 10453 2ca6 544F4332 		.ascii	"TOC2_KEY_BLOCK_ADDR\000"
 10453      5F4B4559 
 10453      5F424C4F 
 10453      434B5F41 
 10453      44445200 
 10454              	.LASF715:
 10455 2cba 63795F73 		.ascii	"cy_stc_ble_l2cap_state_info_t\000"
 10455      74635F62 
 10455      6C655F6C 
 10455      32636170 
 10455      5F737461 
 10456              	.LASF719:
 10457 2cd8 5F426F6F 		.ascii	"_Bool\000"
 10457      6C00
 10458              	.LASF285:
 10459 2cde 52544F43 		.ascii	"RTOC2_CRC_ADDR\000"
 10459      325F4352 
 10459      435F4144 
 10459      445200
 10460              	.LASF684:
 10461 2ced 736C6F77 		.ascii	"slowScanEnabled\000"
 10461      5363616E 
 10461      456E6162 
 10461      6C656400 
 10462              	.LASF979:
 10463 2cfd 43595F42 		.ascii	"CY_BLE_EVT_PLXSC_NOTIFICATION\000"
 10463      4C455F45 
 10463      56545F50 
 10463      4C585343 
 10463      5F4E4F54 
 10464              	.LASF670:
 10465 2d1b 63656E74 		.ascii	"centralAddrResolutionCharHandle\000"
 10465      72616C41 
 10465      64647252 
 10465      65736F6C 
ARM GAS  C:\Users\gjl\AppData\Local\Temp\ccRZOvUj.s 			page 247


 10465      7574696F 
 10466              	.LASF54:
 10467 2d3b 626C6573 		.ascii	"bless_interrupt_IRQn\000"
 10467      735F696E 
 10467      74657272 
 10467      7570745F 
 10467      4952516E 
 10468              	.LASF69:
 10469 2d50 63707573 		.ascii	"cpuss_interrupts_ipc_14_IRQn\000"
 10469      735F696E 
 10469      74657272 
 10469      75707473 
 10469      5F697063 
 10470              	.LASF479:
 10471 2d6d 43595F42 		.ascii	"CY_BLE_GATT_ERROR_RSP\000"
 10471      4C455F47 
 10471      4154545F 
 10471      4552524F 
 10471      525F5253 
 10472              	.LASF877:
 10473 2d83 43595F42 		.ascii	"CY_BLE_EVT_ESSS_INDICATION_CONFIRMATION\000"
 10473      4C455F45 
 10473      56545F45 
 10473      5353535F 
 10473      494E4449 
 10474              	.LASF269:
 10475 2dab 544F4332 		.ascii	"TOC2_SIGNATURE_VERIF_KEY\000"
 10475      5F534947 
 10475      4E415455 
 10475      52455F56 
 10475      45524946 
 10476              	.LASF866:
 10477 2dc4 43595F42 		.ascii	"CY_BLE_EVT_CTSS_WRITE_CHAR\000"
 10477      4C455F45 
 10477      56545F43 
 10477      5453535F 
 10477      57524954 
 10478              	.LASF395:
 10479 2ddf 43595F42 		.ascii	"CY_BLE_EVT_GATTC_LONG_PROCEDURE_END\000"
 10479      4C455F45 
 10479      56545F47 
 10479      41545443 
 10479      5F4C4F4E 
 10480              	.LASF918:
 10481 2e03 43595F42 		.ascii	"CY_BLE_EVT_HRSS_ENERGY_EXPENDED_RESET\000"
 10481      4C455F45 
 10481      56545F48 
 10481      5253535F 
 10481      454E4552 
 10482              	.LASF700:
 10483 2e29 61747447 		.ascii	"attGenericValLen\000"
 10483      656E6572 
 10483      69635661 
 10483      6C4C656E 
 10483      00
 10484              	.LASF329:
 10485 2e3a 43595F42 		.ascii	"CY_BLE_EVT_GET_TX_PWR_COMPLETE\000"
ARM GAS  C:\Users\gjl\AppData\Local\Temp\ccRZOvUj.s 			page 248


 10485      4C455F45 
 10485      56545F47 
 10485      45545F54 
 10485      585F5057 
 10486              	.LASF886:
 10487 2e59 43595F42 		.ascii	"CY_BLE_EVT_GLSS_INDICATION_ENABLED\000"
 10487      4C455F45 
 10487      56545F47 
 10487      4C53535F 
 10487      494E4449 
 10488              	.LASF379:
 10489 2e7c 43595F42 		.ascii	"CY_BLE_EVT_GATTC_FIND_BY_TYPE_VALUE_RSP\000"
 10489      4C455F45 
 10489      56545F47 
 10489      41545443 
 10489      5F46494E 
 10490              	.LASF778:
 10491 2ea4 43595F42 		.ascii	"CY_BLE_EVT_AIOSC_READ_DESCR_RESPONSE\000"
 10491      4C455F45 
 10491      56545F41 
 10491      494F5343 
 10491      5F524541 
 10492              	.LASF764:
 10493 2ec9 43595F42 		.ascii	"CY_BLE_EVT_GATTC_CHAR_DISCOVERY_COMPLETE\000"
 10493      4C455F45 
 10493      56545F47 
 10493      41545443 
 10493      5F434841 
 10494              	.LASF80:
 10495 2ef2 63707573 		.ascii	"cpuss_interrupts_dw0_0_IRQn\000"
 10495      735F696E 
 10495      74657272 
 10495      75707473 
 10495      5F647730 
 10496              	.LASF180:
 10497 2f0e 53495F52 		.ascii	"SI_REVISION_ID\000"
 10497      45564953 
 10497      494F4E5F 
 10497      494400
 10498              	.LASF539:
 10499 2f1d 43595F42 		.ascii	"CY_BLE_GATT_ERR_ANS_COMMAND_NOT_SUPPORTED\000"
 10499      4C455F47 
 10499      4154545F 
 10499      4552525F 
 10499      414E535F 
 10500              	.LASF451:
 10501 2f47 43595F42 		.ascii	"CY_BLE_LL_CONN_CH_TYPE\000"
 10501      4C455F4C 
 10501      4C5F434F 
 10501      4E4E5F43 
 10501      485F5459 
 10502              	.LASF208:
 10503 2f5e 44455649 		.ascii	"DEVICE_UID\000"
 10503      43455F55 
 10503      494400
 10504              	.LASF95:
 10505 2f69 63707573 		.ascii	"cpuss_interrupts_dw0_15_IRQn\000"
ARM GAS  C:\Users\gjl\AppData\Local\Temp\ccRZOvUj.s 			page 249


 10505      735F696E 
 10505      74657272 
 10505      75707473 
 10505      5F647730 
 10506              	.LASF181:
 10507 2f86 53494C49 		.ascii	"SILICON_ID\000"
 10507      434F4E5F 
 10507      494400
 10508              	.LASF127:
 10509 2f91 74637077 		.ascii	"tcpwm_0_interrupts_7_IRQn\000"
 10509      6D5F305F 
 10509      696E7465 
 10509      72727570 
 10509      74735F37 
 10510              	.LASF50:
 10511 2fab 73727373 		.ascii	"srss_interrupt_mcwdt_1_IRQn\000"
 10511      5F696E74 
 10511      65727275 
 10511      70745F6D 
 10511      63776474 
 10512              	.LASF112:
 10513 2fc7 63707573 		.ascii	"cpuss_interrupts_fault_0_IRQn\000"
 10513      735F696E 
 10513      74657272 
 10513      75707473 
 10513      5F666175 
 10514              	.LASF1007:
 10515 2fe5 43595F42 		.ascii	"CY_BLE_EVT_TPSC_NOTIFICATION\000"
 10515      4C455F45 
 10515      56545F54 
 10515      5053435F 
 10515      4E4F5449 
 10516              	.LASF1095:
 10517 3002 63795F62 		.ascii	"cy_ble_advIndex\000"
 10517      6C655F61 
 10517      6476496E 
 10517      64657800 
 10518              	.LASF1063:
 10519 3012 67617474 		.ascii	"gattErr\000"
 10519      45727200 
 10520              	.LASF652:
 10521 301a 43595F42 		.ascii	"CY_BLE_ADV_STATE_STOPPED\000"
 10521      4C455F41 
 10521      44565F53 
 10521      54415445 
 10521      5F53544F 
 10522              	.LASF260:
 10523 3033 544F4332 		.ascii	"TOC2_OBJECT_SIZE\000"
 10523      5F4F424A 
 10523      4543545F 
 10523      53495A45 
 10523      00
 10524              	.LASF374:
 10525 3044 43595F42 		.ascii	"CY_BLE_EVT_GATTS_XCNHG_MTU_REQ\000"
 10525      4C455F45 
 10525      56545F47 
 10525      41545453 
ARM GAS  C:\Users\gjl\AppData\Local\Temp\ccRZOvUj.s 			page 250


 10525      5F58434E 
 10526              	.LASF364:
 10527 3063 43595F42 		.ascii	"CY_BLE_EVT_GAP_DEVICE_ADDR_GEN_COMPLETE\000"
 10527      4C455F45 
 10527      56545F47 
 10527      41505F44 
 10527      45564943 
 10528              	.LASF844:
 10529 308b 43595F42 		.ascii	"CY_BLE_EVT_CPSC_NOTIFICATION\000"
 10529      4C455F45 
 10529      56545F43 
 10529      5053435F 
 10529      4E4F5449 
 10530              	.LASF730:
 10531 30a8 67617474 		.ascii	"gattDbIndexCount\000"
 10531      4462496E 
 10531      64657843 
 10531      6F756E74 
 10531      00
 10532              	.LASF696:
 10533 30b9 61637475 		.ascii	"actualLength\000"
 10533      616C4C65 
 10533      6E677468 
 10533      00
 10534              	.LASF962:
 10535 30c6 43595F42 		.ascii	"CY_BLE_EVT_LNSC_READ_DESCR_RESPONSE\000"
 10535      4C455F45 
 10535      56545F4C 
 10535      4E53435F 
 10535      52454144 
 10536              	.LASF698:
 10537 30ea 63795F73 		.ascii	"cy_stc_ble_gatts_att_gen_val_len_t\000"
 10537      74635F62 
 10537      6C655F67 
 10537      61747473 
 10537      5F617474 
 10538              	.LASF973:
 10539 310d 43595F42 		.ascii	"CY_BLE_EVT_PLXSS_INDICATION_DISABLED\000"
 10539      4C455F45 
 10539      56545F50 
 10539      4C585353 
 10539      5F494E44 
 10540              	.LASF933:
 10541 3132 43595F42 		.ascii	"CY_BLE_EVT_HTSC_INDICATION\000"
 10541      4C455F45 
 10541      56545F48 
 10541      5453435F 
 10541      494E4449 
 10542              	.LASF446:
 10543 314d 43595F42 		.ascii	"CY_BLE_LL_PWR_LVL_NEG_6_DBM\000"
 10543      4C455F4C 
 10543      4C5F5057 
 10543      525F4C56 
 10543      4C5F4E45 
 10544              	.LASF382:
 10545 3169 43595F42 		.ascii	"CY_BLE_EVT_GATTC_READ_MULTI_RSP\000"
 10545      4C455F45 
ARM GAS  C:\Users\gjl\AppData\Local\Temp\ccRZOvUj.s 			page 251


 10545      56545F47 
 10545      41545443 
 10545      5F524541 
 10546              	.LASF948:
 10547 3189 43595F42 		.ascii	"CY_BLE_EVT_IPSC_READ_BLOB_RSP\000"
 10547      4C455F45 
 10547      56545F49 
 10547      5053435F 
 10547      52454144 
 10548              	.LASF998:
 10549 31a7 43595F42 		.ascii	"CY_BLE_EVT_RTUSC_READ_CHAR_RESPONSE\000"
 10549      4C455F45 
 10549      56545F52 
 10549      54555343 
 10549      5F524541 
 10550              	.LASF422:
 10551 31cb 43595F42 		.ascii	"CY_BLE_ERROR_L2CAP_PSM_WRONG_ENCODING\000"
 10551      4C455F45 
 10551      52524F52 
 10551      5F4C3243 
 10551      41505F50 
 10552              	.LASF611:
 10553 31f1 70656572 		.ascii	"peerResolvablePvtAddr\000"
 10553      5265736F 
 10553      6C766162 
 10553      6C655076 
 10553      74416464 
 10554              	.LASF245:
 10555 3207 544F4331 		.ascii	"TOC1_UNIQUE_ID_ADDR\000"
 10555      5F554E49 
 10555      5155455F 
 10555      49445F41 
 10555      44445200 
 10556              	.LASF413:
 10557 321b 43595F42 		.ascii	"CY_BLE_ERROR_MEMORY_ALLOCATION_FAILED\000"
 10557      4C455F45 
 10557      52524F52 
 10557      5F4D454D 
 10557      4F52595F 
 10558              	.LASF651:
 10559 3241 63795F65 		.ascii	"cy_en_ble_state_t\000"
 10559      6E5F626C 
 10559      655F7374 
 10559      6174655F 
 10559      7400
 10560              	.LASF867:
 10561 3253 43595F42 		.ascii	"CY_BLE_EVT_CTSC_NOTIFICATION\000"
 10561      4C455F45 
 10561      56545F43 
 10561      5453435F 
 10561      4E4F5449 
 10562              	.LASF186:
 10563 3270 4449455F 		.ascii	"DIE_WAFER\000"
 10563      57414645 
 10563      5200
 10564              	.LASF36:
 10565 327a 696F7373 		.ascii	"ioss_interrupts_gpio_6_IRQn\000"
ARM GAS  C:\Users\gjl\AppData\Local\Temp\ccRZOvUj.s 			page 252


 10565      5F696E74 
 10565      65727275 
 10565      7074735F 
 10565      6770696F 
 10566              	.LASF910:
 10567 3296 43595F42 		.ascii	"CY_BLE_EVT_HPSS_NOTIFICATION_ENABLED\000"
 10567      4C455F45 
 10567      56545F48 
 10567      5053535F 
 10567      4E4F5449 
 10568              	.LASF685:
 10569 32bb 736C6F77 		.ascii	"slowScanInterval\000"
 10569      5363616E 
 10569      496E7465 
 10569      7276616C 
 10569      00
 10570              	.LASF492:
 10571 32cc 43595F42 		.ascii	"CY_BLE_GATT_READ_MULTIPLE_REQ\000"
 10571      4C455F47 
 10571      4154545F 
 10571      52454144 
 10571      5F4D554C 
 10572              	.LASF628:
 10573 32ea 43595F42 		.ascii	"CY_BLE_GAPP_CONNECTABLE_LOW_DC_DIRECTED_ADV\000"
 10573      4C455F47 
 10573      4150505F 
 10573      434F4E4E 
 10573      45435441 
 10574              	.LASF239:
 10575 3316 424F4F54 		.ascii	"BOOT_PROT_SETTINGS\000"
 10575      5F50524F 
 10575      545F5345 
 10575      5454494E 
 10575      475300
 10576              	.LASF524:
 10577 3329 43595F42 		.ascii	"CY_BLE_GATT_ERR_INSUFFICIENT_ENCRYPTION\000"
 10577      4C455F47 
 10577      4154545F 
 10577      4552525F 
 10577      494E5355 
 10578              	.LASF565:
 10579 3351 63795F73 		.ascii	"cy_stc_ble_prepare_write_request_memory_t\000"
 10579      74635F62 
 10579      6C655F70 
 10579      72657061 
 10579      72655F77 
 10580              	.LASF703:
 10581 337b 61747456 		.ascii	"attValueUuid\000"
 10581      616C7565 
 10581      55756964 
 10581      00
 10582              	.LASF462:
 10583 3388 62644861 		.ascii	"bdHandle\000"
 10583      6E646C65 
 10583      00
 10584              	.LASF25:
 10585 3391 55736167 		.ascii	"UsageFault_IRQn\000"
ARM GAS  C:\Users\gjl\AppData\Local\Temp\ccRZOvUj.s 			page 253


 10585      65466175 
 10585      6C745F49 
 10585      52516E00 
 10586              	.LASF66:
 10587 33a1 63707573 		.ascii	"cpuss_interrupts_ipc_11_IRQn\000"
 10587      735F696E 
 10587      74657272 
 10587      75707473 
 10587      5F697063 
 10588              	.LASF136:
 10589 33be 74637077 		.ascii	"tcpwm_1_interrupts_8_IRQn\000"
 10589      6D5F315F 
 10589      696E7465 
 10589      72727570 
 10589      74735F38 
 10590              	.LASF672:
 10591 33d8 63795F73 		.ascii	"cy_stc_ble_gaps_t\000"
 10591      74635F62 
 10591      6C655F67 
 10591      6170735F 
 10591      7400
 10592              	.LASF27:
 10593 33ea 44656275 		.ascii	"DebugMonitor_IRQn\000"
 10593      674D6F6E 
 10593      69746F72 
 10593      5F495251 
 10593      6E00
 10594              	.LASF1064:
 10595 33fc 6576656E 		.ascii	"eventHandlerFunc\000"
 10595      7448616E 
 10595      646C6572 
 10595      46756E63 
 10595      00
 10596              	.LASF1122:
 10597 340d 43795F42 		.ascii	"Cy_BLE_UnregisterHostPMCallbacks\000"
 10597      4C455F55 
 10597      6E726567 
 10597      69737465 
 10597      72486F73 
 10598              	.LASF680:
 10599 342e 63795F73 		.ascii	"cy_stc_ble_gapp_adv_params_t\000"
 10599      74635F62 
 10599      6C655F67 
 10599      6170705F 
 10599      6164765F 
 10600              	.LASF1016:
 10601 344b 43595F42 		.ascii	"CY_BLE_EVT_UDSS_READ_CHAR\000"
 10601      4C455F45 
 10601      56545F55 
 10601      4453535F 
 10601      52454144 
 10602              	.LASF888:
 10603 3465 43595F42 		.ascii	"CY_BLE_EVT_GLSS_INDICATION_CONFIRMED\000"
 10603      4C455F45 
 10603      56545F47 
 10603      4C53535F 
 10603      494E4449 
ARM GAS  C:\Users\gjl\AppData\Local\Temp\ccRZOvUj.s 			page 254


 10604              	.LASF1071:
 10605 348a 43795F42 		.ascii	"Cy_BLE_IsDeviceAddressValid\000"
 10605      4C455F49 
 10605      73446576 
 10605      69636541 
 10605      64647265 
 10606              	.LASF880:
 10607 34a6 43595F42 		.ascii	"CY_BLE_EVT_ESSC_NOTIFICATION\000"
 10607      4C455F45 
 10607      56545F45 
 10607      5353435F 
 10607      4E4F5449 
 10608              	.LASF893:
 10609 34c3 43595F42 		.ascii	"CY_BLE_EVT_GLSC_NOTIFICATION\000"
 10609      4C455F45 
 10609      56545F47 
 10609      4C53435F 
 10609      4E4F5449 
 10610              	.LASF938:
 10611 34e0 43595F42 		.ascii	"CY_BLE_EVT_IASS_WRITE_CHAR_CMD\000"
 10611      4C455F45 
 10611      56545F49 
 10611      4153535F 
 10611      57524954 
 10612              	.LASF1013:
 10613 34ff 43595F42 		.ascii	"CY_BLE_EVT_UDSS_INDICATION_CONFIRMED\000"
 10613      4C455F45 
 10613      56545F55 
 10613      4453535F 
 10613      494E4449 
 10614              	.LASF968:
 10615 3524 43595F42 		.ascii	"CY_BLE_EVT_PASSC_NOTIFICATION\000"
 10615      4C455F45 
 10615      56545F50 
 10615      41535343 
 10615      5F4E4F54 
 10616              	.LASF735:
 10617 3542 67617063 		.ascii	"gapcScanParams\000"
 10617      5363616E 
 10617      50617261 
 10617      6D7300
 10618              	.LASF1069:
 10619 3551 43795F42 		.ascii	"Cy_BLE_InvokeServiceEventHandler\000"
 10619      4C455F49 
 10619      6E766F6B 
 10619      65536572 
 10619      76696365 
 10620              	.LASF192:
 10621 3572 4449455F 		.ascii	"DIE_MONTH\000"
 10621      4D4F4E54 
 10621      4800
 10622              	.LASF296:
 10623 357c 43595F42 		.ascii	"CY_BLE_EVT_STACK_BUSY_STATUS\000"
 10623      4C455F45 
 10623      56545F53 
 10623      5441434B 
 10623      5F425553 
ARM GAS  C:\Users\gjl\AppData\Local\Temp\ccRZOvUj.s 			page 255


 10624              	.LASF919:
 10625 3599 43595F42 		.ascii	"CY_BLE_EVT_HRSS_NOTIFICATION_ENABLED\000"
 10625      4C455F45 
 10625      56545F48 
 10625      5253535F 
 10625      4E4F5449 
 10626              	.LASF210:
 10627 35be 5354414E 		.ascii	"STANDARD_SMPU_STRUCT_SLAVE_ADDR\000"
 10627      44415244 
 10627      5F534D50 
 10627      555F5354 
 10627      52554354 
 10628              	.LASF1077:
 10629 35de 65765061 		.ascii	"evParam\000"
 10629      72616D00 
 10630              	.LASF302:
 10631 35e6 43595F42 		.ascii	"CY_BLE_EVT_READ_AUTH_PAYLOAD_TO_COMPLETE\000"
 10631      4C455F45 
 10631      56545F52 
 10631      4541445F 
 10631      41555448 
 10632              	.LASF256:
 10633 360f 52544F43 		.ascii	"RTOC1_FB_OBJECT_ADDR\000"
 10633      315F4642 
 10633      5F4F424A 
 10633      4543545F 
 10633      41444452 
 10634              	.LASF317:
 10635 3624 43595F42 		.ascii	"CY_BLE_EVT_ADD_DEVICE_TO_WHITE_LIST_COMPLETE\000"
 10635      4C455F45 
 10635      56545F41 
 10635      44445F44 
 10635      45564943 
 10636              	.LASF692:
 10637 3651 63795F73 		.ascii	"cy_stc_ble_gapc_scan_params_t\000"
 10637      74635F62 
 10637      6C655F67 
 10637      6170635F 
 10637      7363616E 
 10638              	.LASF430:
 10639 366f 43595F42 		.ascii	"CY_BLE_ERROR_MIC_AUTH_FAILED\000"
 10639      4C455F45 
 10639      52524F52 
 10639      5F4D4943 
 10639      5F415554 
 10640              	.LASF1129:
 10641 368c 43795F42 		.ascii	"Cy_BLE_SendWriteResponse\000"
 10641      4C455F53 
 10641      656E6457 
 10641      72697465 
 10641      52657370 
 10642              	.LASF1055:
 10643 36a5 63795F62 		.ascii	"cy_ble_event_handle_t\000"
 10643      6C655F65 
 10643      76656E74 
 10643      5F68616E 
 10643      646C655F 
ARM GAS  C:\Users\gjl\AppData\Local\Temp\ccRZOvUj.s 			page 256


 10644              	.LASF92:
 10645 36bb 63707573 		.ascii	"cpuss_interrupts_dw0_12_IRQn\000"
 10645      735F696E 
 10645      74657272 
 10645      75707473 
 10645      5F647730 
 10646              	.LASF829:
 10647 36d8 43595F42 		.ascii	"CY_BLE_EVT_CGMSS_WRITE_CHAR\000"
 10647      4C455F45 
 10647      56545F43 
 10647      474D5353 
 10647      5F575249 
 10648              	.LASF525:
 10649 36f4 43595F42 		.ascii	"CY_BLE_GATT_ERR_UNSUPPORTED_GROUP_TYPE\000"
 10649      4C455F47 
 10649      4154545F 
 10649      4552525F 
 10649      554E5355 
 10650              	.LASF484:
 10651 371b 43595F42 		.ascii	"CY_BLE_GATT_FIND_BY_TYPE_VALUE_REQ\000"
 10651      4C455F47 
 10651      4154545F 
 10651      46494E44 
 10651      5F42595F 
 10652              	.LASF124:
 10653 373e 74637077 		.ascii	"tcpwm_0_interrupts_4_IRQn\000"
 10653      6D5F305F 
 10653      696E7465 
 10653      72727570 
 10653      74735F34 
 10654              	.LASF311:
 10655 3758 43595F42 		.ascii	"CY_BLE_EVT_GET_LOCAL_RPA_COMPLETE\000"
 10655      4C455F45 
 10655      56545F47 
 10655      45545F4C 
 10655      4F43414C 
 10656              	.LASF377:
 10657 377a 43595F42 		.ascii	"CY_BLE_EVT_GATTC_READ_BY_TYPE_RSP\000"
 10657      4C455F45 
 10657      56545F47 
 10657      41545443 
 10657      5F524541 
 10658              	.LASF850:
 10659 379c 43595F42 		.ascii	"CY_BLE_EVT_CPSC_SCAN_PROGRESS_RESULT\000"
 10659      4C455F45 
 10659      56545F43 
 10659      5053435F 
 10659      5343414E 
 10660              	.LASF1082:
 10661 37c1 67507265 		.ascii	"gPrepWriteReqMem\000"
 10661      70577269 
 10661      74655265 
 10661      714D656D 
 10661      00
 10662              	.LASF398:
 10663 37d2 43595F42 		.ascii	"CY_BLE_EVT_L2CAP_COMMAND_REJ\000"
 10663      4C455F45 
ARM GAS  C:\Users\gjl\AppData\Local\Temp\ccRZOvUj.s 			page 257


 10663      56545F4C 
 10663      32434150 
 10663      5F434F4D 
 10664              	.LASF79:
 10665 37ef 6373645F 		.ascii	"csd_interrupt_IRQn\000"
 10665      696E7465 
 10665      72727570 
 10665      745F4952 
 10665      516E00
 10666              	.LASF159:
 10667 3802 7564625F 		.ascii	"udb_interrupts_7_IRQn\000"
 10667      696E7465 
 10667      72727570 
 10667      74735F37 
 10667      5F495251 
 10668              	.LASF619:
 10669 3818 6F776E41 		.ascii	"ownAddrType\000"
 10669      64647254 
 10669      79706500 
 10670              	.LASF47:
 10671 3824 6C70636F 		.ascii	"lpcomp_interrupt_IRQn\000"
 10671      6D705F69 
 10671      6E746572 
 10671      72757074 
 10671      5F495251 
 10672              	.LASF597:
 10673 383a 626F6E64 		.ascii	"bonding\000"
 10673      696E6700 
 10674              	.LASF380:
 10675 3842 43595F42 		.ascii	"CY_BLE_EVT_GATTC_READ_RSP\000"
 10675      4C455F45 
 10675      56545F47 
 10675      41545443 
 10675      5F524541 
 10676              	.LASF725:
 10677 385c 7478506F 		.ascii	"txPowerLevelAdv\000"
 10677      7765724C 
 10677      6576656C 
 10677      41647600 
 10678              	.LASF1026:
 10679 386c 43595F42 		.ascii	"CY_BLE_EVT_WPTSS_NOTIFICATION_DISABLED\000"
 10679      4C455F45 
 10679      56545F57 
 10679      50545353 
 10679      5F4E4F54 
 10680              	.LASF542:
 10681 3893 43595F42 		.ascii	"CY_BLE_GATT_ERR_ANCS_INVALID_PARAMETER\000"
 10681      4C455F47 
 10681      4154545F 
 10681      4552525F 
 10681      414E4353 
 10682              	.LASF972:
 10683 38ba 43595F42 		.ascii	"CY_BLE_EVT_PLXSS_INDICATION_ENABLED\000"
 10683      4C455F45 
 10683      56545F50 
 10683      4C585353 
 10683      5F494E44 
ARM GAS  C:\Users\gjl\AppData\Local\Temp\ccRZOvUj.s 			page 258


 10684              	.LASF322:
 10685 38de 43595F42 		.ascii	"CY_BLE_EVT_PHY_UPDATE_COMPLETE\000"
 10685      4C455F45 
 10685      56545F50 
 10685      48595F55 
 10685      50444154 
 10686              	.LASF105:
 10687 38fd 63707573 		.ascii	"cpuss_interrupts_dw1_9_IRQn\000"
 10687      735F696E 
 10687      74657272 
 10687      75707473 
 10687      5F647731 
 10688              	.LASF449:
 10689 3919 63795F65 		.ascii	"cy_en_ble_bless_pwr_lvl_t\000"
 10689      6E5F626C 
 10689      655F626C 
 10689      6573735F 
 10689      7077725F 
 10690              	.LASF8:
 10691 3933 73686F72 		.ascii	"short unsigned int\000"
 10691      7420756E 
 10691      7369676E 
 10691      65642069 
 10691      6E7400
 10692              	.LASF319:
 10693 3946 43595F42 		.ascii	"CY_BLE_EVT_GET_PHY_COMPLETE\000"
 10693      4C455F45 
 10693      56545F47 
 10693      45545F50 
 10693      48595F43 
 10694              	.LASF1065:
 10695 3962 6572725F 		.ascii	"err_param\000"
 10695      70617261 
 10695      6D00
 10696              	.LASF431:
 10697 396c 43595F42 		.ascii	"CY_BLE_ERROR_HARDWARE_FAILURE\000"
 10697      4C455F45 
 10697      52524F52 
 10697      5F484152 
 10697      44574152 
 10698              	.LASF323:
 10699 398a 43595F42 		.ascii	"CY_BLE_EVT_SET_PRIVACY_MODE_COMPLETE\000"
 10699      4C455F45 
 10699      56545F53 
 10699      45545F50 
 10699      52495641 
 10700              	.LASF1011:
 10701 39af 43595F42 		.ascii	"CY_BLE_EVT_UDSS_INDICATION_ENABLED\000"
 10701      4C455F45 
 10701      56545F55 
 10701      4453535F 
 10701      494E4449 
 10702              	.LASF555:
 10703 39d2 68616E64 		.ascii	"handleValPair\000"
 10703      6C655661 
 10703      6C506169 
 10703      7200
ARM GAS  C:\Users\gjl\AppData\Local\Temp\ccRZOvUj.s 			page 259


 10704              	.LASF875:
 10705 39e0 43595F42 		.ascii	"CY_BLE_EVT_ESSS_INDICATION_ENABLED\000"
 10705      4C455F45 
 10705      56545F45 
 10705      5353535F 
 10705      494E4449 
 10706              	.LASF182:
 10707 3a03 52455345 		.ascii	"RESERVED1\000"
 10707      52564544 
 10707      3100
 10708              	.LASF184:
 10709 3a0d 52455345 		.ascii	"RESERVED2\000"
 10709      52564544 
 10709      3200
 10710              	.LASF194:
 10711 3a17 52455345 		.ascii	"RESERVED3\000"
 10711      52564544 
 10711      3300
 10712              	.LASF197:
 10713 3a21 52455345 		.ascii	"RESERVED4\000"
 10713      52564544 
 10713      3400
 10714              	.LASF199:
 10715 3a2b 52455345 		.ascii	"RESERVED5\000"
 10715      52564544 
 10715      3500
 10716              	.LASF202:
 10717 3a35 52455345 		.ascii	"RESERVED6\000"
 10717      52564544 
 10717      3600
 10718              	.LASF207:
 10719 3a3f 52455345 		.ascii	"RESERVED7\000"
 10719      52564544 
 10719      3700
 10720              	.LASF215:
 10721 3a49 52455345 		.ascii	"RESERVED8\000"
 10721      52564544 
 10721      3800
 10722              	.LASF217:
 10723 3a53 52455345 		.ascii	"RESERVED9\000"
 10723      52564544 
 10723      3900
 10724              	.LASF926:
 10725 3a5d 43595F42 		.ascii	"CY_BLE_EVT_HTSS_NOTIFICATION_ENABLED\000"
 10725      4C455F45 
 10725      56545F48 
 10725      5453535F 
 10725      4E4F5449 
 10726              	.LASF1127:
 10727 3a82 433A5C47 		.ascii	"C:\\Git\\PSoC6-101-Videos\\Projects_ScreenCapture\\"
 10727      69745C50 
 10727      536F4336 
 10727      2D313031 
 10727      2D566964 
 10728 3ab1 50536F43 		.ascii	"PSoC 6_101\\MainController.cydsn\000"
 10728      20365F31 
 10728      30315C4D 
ARM GAS  C:\Users\gjl\AppData\Local\Temp\ccRZOvUj.s 			page 260


 10728      61696E43 
 10728      6F6E7472 
 10729              	.LASF991:
 10730 3ad1 43595F42 		.ascii	"CY_BLE_EVT_RSCSC_NOTIFICATION\000"
 10730      4C455F45 
 10730      56545F52 
 10730      53435343 
 10730      5F4E4F54 
 10731              	.LASF482:
 10732 3aef 43595F42 		.ascii	"CY_BLE_GATT_FIND_INFO_REQ\000"
 10732      4C455F47 
 10732      4154545F 
 10732      46494E44 
 10732      5F494E46 
 10733              	.LASF610:
 10734 3b09 6C6F6361 		.ascii	"localResolvablePvtAddr\000"
 10734      6C526573 
 10734      6F6C7661 
 10734      626C6550 
 10734      76744164 
 10735              	.LASF410:
 10736 3b20 43595F42 		.ascii	"CY_BLE_INFO_FLASH_WRITE_IN_PROGRESS\000"
 10736      4C455F49 
 10736      4E464F5F 
 10736      464C4153 
 10736      485F5752 
 10737              	.LASF110:
 10738 3b44 63707573 		.ascii	"cpuss_interrupts_dw1_14_IRQn\000"
 10738      735F696E 
 10738      74657272 
 10738      75707473 
 10738      5F647731 
 10739              	.LASF922:
 10740 3b61 43595F42 		.ascii	"CY_BLE_EVT_HRSC_READ_CHAR_RESPONSE\000"
 10740      4C455F45 
 10740      56545F48 
 10740      5253435F 
 10740      52454144 
 10741              	.LASF63:
 10742 3b84 63707573 		.ascii	"cpuss_interrupts_ipc_8_IRQn\000"
 10742      735F696E 
 10742      74657272 
 10742      75707473 
 10742      5F697063 
 10743              	.LASF33:
 10744 3ba0 696F7373 		.ascii	"ioss_interrupts_gpio_3_IRQn\000"
 10744      5F696E74 
 10744      65727275 
 10744      7074735F 
 10744      6770696F 
 10745              	.LASF567:
 10746 3bbc 43595F42 		.ascii	"CY_BLE_GAP_IOCAP_DISPLAY_YESNO\000"
 10746      4C455F47 
 10746      41505F49 
 10746      4F434150 
 10746      5F444953 
 10747              	.LASF592:
ARM GAS  C:\Users\gjl\AppData\Local\Temp\ccRZOvUj.s 			page 261


 10748 3bdb 43595F42 		.ascii	"CY_BLE_GAP_PUBLIC_IDENTITY_ADDR_TYPE\000"
 10748      4C455F47 
 10748      41505F50 
 10748      55424C49 
 10748      435F4944 
 10749              	.LASF24:
 10750 3c00 42757346 		.ascii	"BusFault_IRQn\000"
 10750      61756C74 
 10750      5F495251 
 10750      6E00
 10751              	.LASF751:
 10752 3c0e 43595F42 		.ascii	"CY_BLE_EVT_GATTS_EVT_CCCD_CORRUPT\000"
 10752      4C455F45 
 10752      56545F47 
 10752      41545453 
 10752      5F455654 
 10753              	.LASF800:
 10754 3c30 43595F42 		.ascii	"CY_BLE_EVT_BASC_READ_CHAR_RESPONSE\000"
 10754      4C455F45 
 10754      56545F42 
 10754      4153435F 
 10754      52454144 
 10755              	.LASF705:
 10756 3c53 61747448 		.ascii	"attHandle\000"
 10756      616E646C 
 10756      6500
 10757              	.LASF437:
 10758 3c5d 43595F42 		.ascii	"CY_BLE_ERROR_INVALID_STATE\000"
 10758      4C455F45 
 10758      52524F52 
 10758      5F494E56 
 10758      414C4944 
 10759              	.LASF999:
 10760 3c78 43595F42 		.ascii	"CY_BLE_EVT_SCPSS_NOTIFICATION_ENABLED\000"
 10760      4C455F45 
 10760      56545F53 
 10760      43505353 
 10760      5F4E4F54 
 10761              	.LASF16:
 10762 3c9e 75696E74 		.ascii	"uint8_t\000"
 10762      385F7400 
 10763              	.LASF133:
 10764 3ca6 74637077 		.ascii	"tcpwm_1_interrupts_5_IRQn\000"
 10764      6D5F315F 
 10764      696E7465 
 10764      72727570 
 10764      74735F35 
 10765              	.LASF1124:
 10766 3cc0 43795F42 		.ascii	"Cy_BLE_GATTS_ReadAttributeValueCCCDReqHandler\000"
 10766      4C455F47 
 10766      41545453 
 10766      5F526561 
 10766      64417474 
 10767              	.LASF455:
 10768 3cee 43595F42 		.ascii	"CY_BLE_GAP_SCAN_TO\000"
 10768      4C455F47 
 10768      41505F53 
ARM GAS  C:\Users\gjl\AppData\Local\Temp\ccRZOvUj.s 			page 262


 10768      43414E5F 
 10768      544F00
 10769              	.LASF387:
 10770 3d01 43595F42 		.ascii	"CY_BLE_EVT_GATTS_EXEC_WRITE_REQ\000"
 10770      4C455F45 
 10770      56545F47 
 10770      41545453 
 10770      5F455845 
 10771              	.LASF943:
 10772 3d21 43595F42 		.ascii	"CY_BLE_EVT_IPSC_READ_MULTIPLE_CHAR_RESPONSE\000"
 10772      4C455F45 
 10772      56545F49 
 10772      5053435F 
 10772      52454144 
 10773              	.LASF1017:
 10774 3d4d 43595F42 		.ascii	"CY_BLE_EVT_UDSS_WRITE_CHAR\000"
 10774      4C455F45 
 10774      56545F55 
 10774      4453535F 
 10774      57524954 
 10775              	.LASF757:
 10776 3d68 43595F42 		.ascii	"CY_BLE_EVT_GATTC_CHAR_DISCOVERY_FAILED\000"
 10776      4C455F45 
 10776      56545F47 
 10776      41545443 
 10776      5F434841 
 10777              	.LASF788:
 10778 3d8f 43595F42 		.ascii	"CY_BLE_EVT_ANCSC_ERROR_RESPONSE\000"
 10778      4C455F45 
 10778      56545F41 
 10778      4E435343 
 10778      5F455252 
 10779              	.LASF51:
 10780 3daf 73727373 		.ascii	"srss_interrupt_backup_IRQn\000"
 10780      5F696E74 
 10780      65727275 
 10780      70745F62 
 10780      61636B75 
 10781              	.LASF43:
 10782 3dca 696F7373 		.ascii	"ioss_interrupts_gpio_13_IRQn\000"
 10782      5F696E74 
 10782      65727275 
 10782      7074735F 
 10782      6770696F 
 10783              	.LASF345:
 10784 3de7 43595F42 		.ascii	"CY_BLE_EVT_GAPC_SCAN_PROGRESS_RESULT\000"
 10784      4C455F45 
 10784      56545F47 
 10784      4150435F 
 10784      5343414E 
 10785              	.LASF550:
 10786 3e0c 63795F73 		.ascii	"cy_stc_ble_gatt_value_t\000"
 10786      74635F62 
 10786      6C655F67 
 10786      6174745F 
 10786      76616C75 
 10787              	.LASF339:
ARM GAS  C:\Users\gjl\AppData\Local\Temp\ccRZOvUj.s 			page 263


 10788 3e24 43595F42 		.ascii	"CY_BLE_EVT_RADIO_TEMPERATURE\000"
 10788      4C455F45 
 10788      56545F52 
 10788      4144494F 
 10788      5F54454D 
 10789              	.LASF755:
 10790 3e41 43595F42 		.ascii	"CY_BLE_EVT_GATTC_SRVC_DISCOVERY_FAILED\000"
 10790      4C455F45 
 10790      56545F47 
 10790      41545443 
 10790      5F535256 
 10791              	.LASF223:
 10792 3e68 52414449 		.ascii	"RADIO_LDO_TRIMS\000"
 10792      4F5F4C44 
 10792      4F5F5452 
 10792      494D5300 
 10793              	.LASF169:
 10794 3e78 61756469 		.ascii	"audioss_interrupt_i2s_IRQn\000"
 10794      6F73735F 
 10794      696E7465 
 10794      72727570 
 10794      745F6932 
 10795              	.LASF1037:
 10796 3e93 43595F42 		.ascii	"CY_BLE_EVT_WSSS_INDICATION_ENABLED\000"
 10796      4C455F45 
 10796      56545F57 
 10796      5353535F 
 10796      494E4449 
 10797              	.LASF600:
 10798 3eb6 70616972 		.ascii	"pairingProperties\000"
 10798      696E6750 
 10798      726F7065 
 10798      72746965 
 10798      7300
 10799              	.LASF739:
 10800 3ec8 61747456 		.ascii	"attValuesCCCD\000"
 10800      616C7565 
 10800      73434343 
 10800      4400
 10801              	.LASF649:
 10802 3ed6 43595F42 		.ascii	"CY_BLE_STATE_INITIALIZING\000"
 10802      4C455F53 
 10802      54415445 
 10802      5F494E49 
 10802      5449414C 
 10803              	.LASF321:
 10804 3ef0 43595F42 		.ascii	"CY_BLE_EVT_SET_PHY_COMPLETE\000"
 10804      4C455F45 
 10804      56545F53 
 10804      45545F50 
 10804      48595F43 
 10805              	.LASF288:
 10806 3f0c 666C6F61 		.ascii	"float\000"
 10806      7400
 10807              	.LASF277:
 10808 3f12 52544F43 		.ascii	"RTOC2_FIRST_USER_APP_ADDR\000"
 10808      325F4649 
ARM GAS  C:\Users\gjl\AppData\Local\Temp\ccRZOvUj.s 			page 264


 10808      5253545F 
 10808      55534552 
 10808      5F415050 
 10809              	.LASF368:
 10810 3f2c 43595F42 		.ascii	"CY_BLE_EVT_GAP_CREATE_CONN_CANCEL_COMPLETE\000"
 10810      4C455F45 
 10810      56545F47 
 10810      41505F43 
 10810      52454154 
 10811              	.LASF815:
 10812 3f57 43595F42 		.ascii	"CY_BLE_EVT_BLSC_INDICATION\000"
 10812      4C455F45 
 10812      56545F42 
 10812      4C53435F 
 10812      494E4449 
 10813              	.LASF588:
 10814 3f72 43595F42 		.ascii	"CY_BLE_GAP_AUTH_ERROR_LINK_DISCONNECTED\000"
 10814      4C455F47 
 10814      41505F41 
 10814      5554485F 
 10814      4552524F 
 10815              	.LASF4:
 10816 3f9a 756E7369 		.ascii	"unsigned char\000"
 10816      676E6564 
 10816      20636861 
 10816      7200
 10817              	.LASF290:
 10818 3fa8 696E7472 		.ascii	"intrSrc\000"
 10818      53726300 
 10819              	.LASF797:
 10820 3fb0 43595F42 		.ascii	"CY_BLE_EVT_BASS_NOTIFICATION_ENABLED\000"
 10820      4C455F45 
 10820      56545F42 
 10820      4153535F 
 10820      4E4F5449 
 10821              	.LASF736:
 10822 3fd5 666C6173 		.ascii	"flashStorage\000"
 10822      6853746F 
 10822      72616765 
 10822      00
 10823              	.LASF605:
 10824 3fe2 73757065 		.ascii	"supervisionTO\000"
 10824      72766973 
 10824      696F6E54 
 10824      4F00
 10825              	.LASF371:
 10826 3ff0 43595F42 		.ascii	"CY_BLE_EVT_GATTC_ERROR_RSP\000"
 10826      4C455F45 
 10826      56545F47 
 10826      41545443 
 10826      5F455252 
 10827              	.LASF448:
 10828 400b 43595F42 		.ascii	"CY_BLE_LL_PWR_LVL_MAX\000"
 10828      4C455F4C 
 10828      4C5F5057 
 10828      525F4C56 
 10828      4C5F4D41 
ARM GAS  C:\Users\gjl\AppData\Local\Temp\ccRZOvUj.s 			page 265


 10829              	.LASF427:
 10830 4021 43595F42 		.ascii	"CY_BLE_ERROR_UNSUPPORTED_FEATURE_OR_PARAMETER_VALUE"
 10830      4C455F45 
 10830      52524F52 
 10830      5F554E53 
 10830      5550504F 
 10831 4054 00       		.ascii	"\000"
 10832              	.LASF121:
 10833 4055 74637077 		.ascii	"tcpwm_0_interrupts_1_IRQn\000"
 10833      6D5F305F 
 10833      696E7465 
 10833      72727570 
 10833      74735F31 
 10834              	.LASF593:
 10835 406f 43595F42 		.ascii	"CY_BLE_GAP_RANDOM_IDENTITY_ADDR_TYPE\000"
 10835      4C455F47 
 10835      41505F52 
 10835      414E444F 
 10835      4D5F4944 
 10836              	.LASF989:
 10837 4094 43595F42 		.ascii	"CY_BLE_EVT_RSCSS_INDICATION_CONFIRMATION\000"
 10837      4C455F45 
 10837      56545F52 
 10837      53435353 
 10837      5F494E44 
 10838              	.LASF607:
 10839 40bd 73757065 		.ascii	"supervisionTo\000"
 10839      72766973 
 10839      696F6E54 
 10839      6F00
 10840              	.LASF1112:
 10841 40cb 43795F42 		.ascii	"Cy_BLE_SetLeEventMask\000"
 10841      4C455F53 
 10841      65744C65 
 10841      4576656E 
 10841      744D6173 
 10842              	.LASF362:
 10843 40e1 43595F42 		.ascii	"CY_BLE_EVT_GAPC_DIRECT_ADV_REPORT\000"
 10843      4C455F45 
 10843      56545F47 
 10843      4150435F 
 10843      44495245 
 10844              	.LASF434:
 10845 4103 43595F42 		.ascii	"CY_BLE_ERROR_IND_DISABLED\000"
 10845      4C455F45 
 10845      52524F52 
 10845      5F494E44 
 10845      5F444953 
 10846              	.LASF811:
 10847 411d 43595F42 		.ascii	"CY_BLE_EVT_BLSS_INDICATION_DISABLED\000"
 10847      4C455F45 
 10847      56545F42 
 10847      4C53535F 
 10847      494E4449 
 10848              	.LASF599:
 10849 4141 61757468 		.ascii	"authErr\000"
 10849      45727200 
ARM GAS  C:\Users\gjl\AppData\Local\Temp\ccRZOvUj.s 			page 266


 10850              	.LASF72:
 10851 4149 7363625F 		.ascii	"scb_1_interrupt_IRQn\000"
 10851      315F696E 
 10851      74657272 
 10851      7570745F 
 10851      4952516E 
 10852              	.LASF156:
 10853 415e 7564625F 		.ascii	"udb_interrupts_4_IRQn\000"
 10853      696E7465 
 10853      72727570 
 10853      74735F34 
 10853      5F495251 
 10854              	.LASF394:
 10855 4174 43595F42 		.ascii	"CY_BLE_EVT_GATTS_READ_CHAR_VAL_ACCESS_REQ\000"
 10855      4C455F45 
 10855      56545F47 
 10855      41545453 
 10855      5F524541 
 10856              	.LASF1121:
 10857 419e 43795F53 		.ascii	"Cy_SysLib_Delay\000"
 10857      79734C69 
 10857      625F4465 
 10857      6C617900 
 10858              	.LASF102:
 10859 41ae 63707573 		.ascii	"cpuss_interrupts_dw1_6_IRQn\000"
 10859      735F696E 
 10859      74657272 
 10859      75707473 
 10859      5F647731 
 10860              	.LASF218:
 10861 41ca 43534456 		.ascii	"CSDV2_CSD0_ADC_VREF0\000"
 10861      325F4353 
 10861      44305F41 
 10861      44435F56 
 10861      52454630 
 10862              	.LASF219:
 10863 41df 43534456 		.ascii	"CSDV2_CSD0_ADC_VREF1\000"
 10863      325F4353 
 10863      44305F41 
 10863      44435F56 
 10863      52454631 
 10864              	.LASF220:
 10865 41f4 43534456 		.ascii	"CSDV2_CSD0_ADC_VREF2\000"
 10865      325F4353 
 10865      44305F41 
 10865      44435F56 
 10865      52454632 
 10866              	.LASF871:
 10867 4209 43595F42 		.ascii	"CY_BLE_EVT_CTSC_WRITE_CHAR_RESPONSE\000"
 10867      4C455F45 
 10867      56545F43 
 10867      5453435F 
 10867      57524954 
 10868              	.LASF74:
 10869 422d 7363625F 		.ascii	"scb_3_interrupt_IRQn\000"
 10869      335F696E 
 10869      74657272 
ARM GAS  C:\Users\gjl\AppData\Local\Temp\ccRZOvUj.s 			page 267


 10869      7570745F 
 10869      4952516E 
 10870              	.LASF570:
 10871 4242 43595F42 		.ascii	"CY_BLE_GAP_IOCAP_KEYBOARD_DISPLAY\000"
 10871      4C455F47 
 10871      41505F49 
 10871      4F434150 
 10871      5F4B4559 
 10872              	.LASF882:
 10873 4264 43595F42 		.ascii	"CY_BLE_EVT_ESSC_READ_CHAR_RESPONSE\000"
 10873      4C455F45 
 10873      56545F45 
 10873      5353435F 
 10873      52454144 
 10874              	.LASF837:
 10875 4287 43595F42 		.ascii	"CY_BLE_EVT_CPSS_NOTIFICATION_DISABLED\000"
 10875      4C455F45 
 10875      56545F43 
 10875      5053535F 
 10875      4E4F5449 
 10876              	.LASF493:
 10877 42ad 43595F42 		.ascii	"CY_BLE_GATT_READ_MULTIPLE_RSP\000"
 10877      4C455F47 
 10877      4154545F 
 10877      52454144 
 10877      5F4D554C 
 10878              	.LASF916:
 10879 42cb 43595F42 		.ascii	"CY_BLE_EVT_HPSC_WRITE_DESCR_RESPONSE\000"
 10879      4C455F45 
 10879      56545F48 
 10879      5053435F 
 10879      57524954 
 10880              	.LASF76:
 10881 42f0 7363625F 		.ascii	"scb_5_interrupt_IRQn\000"
 10881      355F696E 
 10881      74657272 
 10881      7570745F 
 10881      4952516E 
 10882              	.LASF45:
 10883 4305 696F7373 		.ascii	"ioss_interrupt_gpio_IRQn\000"
 10883      5F696E74 
 10883      65727275 
 10883      70745F67 
 10883      70696F5F 
 10884              	.LASF276:
 10885 431e 52544F43 		.ascii	"RTOC2_SMIF_CFG_STRUCT_ADDR\000"
 10885      325F534D 
 10885      49465F43 
 10885      46475F53 
 10885      54525543 
 10886              	.LASF365:
 10887 4339 43595F42 		.ascii	"CY_BLE_EVT_GAP_KEYS_GEN_COMPLETE\000"
 10887      4C455F45 
 10887      56545F47 
 10887      41505F4B 
 10887      4559535F 
 10888              	.LASF147:
ARM GAS  C:\Users\gjl\AppData\Local\Temp\ccRZOvUj.s 			page 268


 10889 435a 74637077 		.ascii	"tcpwm_1_interrupts_19_IRQn\000"
 10889      6D5F315F 
 10889      696E7465 
 10889      72727570 
 10889      74735F31 
 10890              	.LASF585:
 10891 4375 43595F42 		.ascii	"CY_BLE_GAP_AUTH_ERROR_BR_EDR_PAIRING_IN_PROGRESS\000"
 10891      4C455F47 
 10891      41505F41 
 10891      5554485F 
 10891      4552524F 
 10892              	.LASF107:
 10893 43a6 63707573 		.ascii	"cpuss_interrupts_dw1_11_IRQn\000"
 10893      735F696E 
 10893      74657272 
 10893      75707473 
 10893      5F647731 
 10894              	.LASF847:
 10895 43c3 43595F42 		.ascii	"CY_BLE_EVT_CPSC_WRITE_CHAR_RESPONSE\000"
 10895      4C455F45 
 10895      56545F43 
 10895      5053435F 
 10895      57524954 
 10896              	.LASF78:
 10897 43e7 7363625F 		.ascii	"scb_7_interrupt_IRQn\000"
 10897      375F696E 
 10897      74657272 
 10897      7570745F 
 10897      4952516E 
 10898              	.LASF388:
 10899 43fc 43595F42 		.ascii	"CY_BLE_EVT_GATTC_EXEC_WRITE_RSP\000"
 10899      4C455F45 
 10899      56545F47 
 10899      41545443 
 10899      5F455845 
 10900              	.LASF60:
 10901 441c 63707573 		.ascii	"cpuss_interrupts_ipc_5_IRQn\000"
 10901      735F696E 
 10901      74657272 
 10901      75707473 
 10901      5F697063 
 10902              	.LASF30:
 10903 4438 696F7373 		.ascii	"ioss_interrupts_gpio_0_IRQn\000"
 10903      5F696E74 
 10903      65727275 
 10903      7074735F 
 10903      6770696F 
 10904              	.LASF752:
 10905 4454 43595F42 		.ascii	"CY_BLE_EVT_GATTS_INDICATION_ENABLED\000"
 10905      4C455F45 
 10905      56545F47 
 10905      41545453 
 10905      5F494E44 
 10906              	.LASF1107:
 10907 4478 63795F62 		.ascii	"cy_ble_busyStatus\000"
 10907      6C655F62 
 10907      75737953 
ARM GAS  C:\Users\gjl\AppData\Local\Temp\ccRZOvUj.s 			page 269


 10907      74617475 
 10907      7300
 10908              	.LASF1048:
 10909 448a 43595F42 		.ascii	"CY_BLE_EVT_BTSS_PREP_WRITE_REQ\000"
 10909      4C455F45 
 10909      56545F42 
 10909      5453535F 
 10909      50524550 
 10910              	.LASF381:
 10911 44a9 43595F42 		.ascii	"CY_BLE_EVT_GATTC_READ_BLOB_RSP\000"
 10911      4C455F45 
 10911      56545F47 
 10911      41545443 
 10911      5F524541 
 10912              	.LASF441:
 10913 44c8 74797065 		.ascii	"type\000"
 10913      00
 10914              	.LASF1073:
 10915 44cd 43795F42 		.ascii	"Cy_BLE_GetConnectionState\000"
 10915      4C455F47 
 10915      6574436F 
 10915      6E6E6563 
 10915      74696F6E 
 10916              	.LASF643:
 10917 44e7 63795F73 		.ascii	"cy_stc_ble_gapp_scan_rsp_data_t\000"
 10917      74635F62 
 10917      6C655F67 
 10917      6170705F 
 10917      7363616E 
 10918              	.LASF22:
 10919 4507 48617264 		.ascii	"HardFault_IRQn\000"
 10919      4661756C 
 10919      745F4952 
 10919      516E00
 10920              	.LASF1072:
 10921 4516 61646472 		.ascii	"addressValid\000"
 10921      65737356 
 10921      616C6964 
 10921      00
 10922              	.LASF833:
 10923 4523 43595F42 		.ascii	"CY_BLE_EVT_CGMSC_WRITE_CHAR_RESPONSE\000"
 10923      4C455F45 
 10923      56545F43 
 10923      474D5343 
 10923      5F575249 
 10924              	.LASF453:
 10925 4548 63795F65 		.ascii	"cy_en_ble_bless_phy_ch_grp_id_t\000"
 10925      6E5F626C 
 10925      655F626C 
 10925      6573735F 
 10925      7068795F 
 10926              	.LASF861:
 10927 4568 43595F42 		.ascii	"CY_BLE_EVT_CSCSC_WRITE_CHAR_RESPONSE\000"
 10927      4C455F45 
 10927      56545F43 
 10927      53435343 
 10927      5F575249 
ARM GAS  C:\Users\gjl\AppData\Local\Temp\ccRZOvUj.s 			page 270


 10928              	.LASF1020:
 10929 458d 43595F42 		.ascii	"CY_BLE_EVT_UDSC_READ_CHAR_RESPONSE\000"
 10929      4C455F45 
 10929      56545F55 
 10929      4453435F 
 10929      52454144 
 10930              	.LASF1022:
 10931 45b0 43595F42 		.ascii	"CY_BLE_EVT_UDSC_READ_DESCR_RESPONSE\000"
 10931      4C455F45 
 10931      56545F55 
 10931      4453435F 
 10931      52454144 
 10932              	.LASF130:
 10933 45d4 74637077 		.ascii	"tcpwm_1_interrupts_2_IRQn\000"
 10933      6D5F315F 
 10933      696E7465 
 10933      72727570 
 10933      74735F32 
 10934              	.LASF683:
 10935 45ee 66617374 		.ascii	"fastScanTimeOut\000"
 10935      5363616E 
 10935      54696D65 
 10935      4F757400 
 10936              	.LASF349:
 10937 45fe 43595F42 		.ascii	"CY_BLE_EVT_GAP_AUTH_COMPLETE\000"
 10937      4C455F45 
 10937      56545F47 
 10937      41505F41 
 10937      5554485F 
 10938              	.LASF1054:
 10939 461b 43595F42 		.ascii	"CY_BLE_EVT_GATTC_DISC_DESCR_GET_RANGE\000"
 10939      4C455F45 
 10939      56545F47 
 10939      41545443 
 10939      5F444953 
 10940              	.LASF988:
 10941 4641 43595F42 		.ascii	"CY_BLE_EVT_RSCSS_INDICATION_DISABLED\000"
 10941      4C455F45 
 10941      56545F52 
 10941      53435353 
 10941      5F494E44 
 10942              	.LASF116:
 10943 4666 63707573 		.ascii	"cpuss_interrupts_cm0_cti_0_IRQn\000"
 10943      735F696E 
 10943      74657272 
 10943      75707473 
 10943      5F636D30 
 10944              	.LASF615:
 10945 4686 64697363 		.ascii	"discProcedure\000"
 10945      50726F63 
 10945      65647572 
 10945      6500
 10946              	.LASF925:
 10947 4694 43595F42 		.ascii	"CY_BLE_EVT_HRSC_WRITE_DESCR_RESPONSE\000"
 10947      4C455F45 
 10947      56545F48 
 10947      5253435F 
ARM GAS  C:\Users\gjl\AppData\Local\Temp\ccRZOvUj.s 			page 271


 10947      57524954 
 10948              	.LASF40:
 10949 46b9 696F7373 		.ascii	"ioss_interrupts_gpio_10_IRQn\000"
 10949      5F696E74 
 10949      65727275 
 10949      7074735F 
 10949      6770696F 
 10950              	.LASF808:
 10951 46d6 43595F42 		.ascii	"CY_BLE_EVT_BCSC_READ_DESCR_RESPONSE\000"
 10951      4C455F45 
 10951      56545F42 
 10951      4353435F 
 10951      52454144 
 10952              	.LASF485:
 10953 46fa 43595F42 		.ascii	"CY_BLE_GATT_FIND_BY_TYPE_VALUE_RSP\000"
 10953      4C455F47 
 10953      4154545F 
 10953      46494E44 
 10953      5F42595F 
 10954              	.LASF838:
 10955 471d 43595F42 		.ascii	"CY_BLE_EVT_CPSS_INDICATION_ENABLED\000"
 10955      4C455F45 
 10955      56545F43 
 10955      5053535F 
 10955      494E4449 
 10956              	.LASF1094:
 10957 4740 63795F62 		.ascii	"cy_ble_advState\000"
 10957      6C655F61 
 10957      64765374 
 10957      61746500 
 10958              	.LASF87:
 10959 4750 63707573 		.ascii	"cpuss_interrupts_dw0_7_IRQn\000"
 10959      735F696E 
 10959      74657272 
 10959      75707473 
 10959      5F647730 
 10960              	.LASF929:
 10961 476c 43595F42 		.ascii	"CY_BLE_EVT_HTSS_INDICATION_DISABLED\000"
 10961      4C455F45 
 10961      56545F48 
 10961      5453535F 
 10961      494E4449 
 10962              	.LASF1024:
 10963 4790 43595F42 		.ascii	"CY_BLE_EVT_UDSC_ERROR_RESPONSE\000"
 10963      4C455F45 
 10963      56545F55 
 10963      4453435F 
 10963      4552524F 
 10964              	.LASF566:
 10965 47af 43595F42 		.ascii	"CY_BLE_GAP_IOCAP_DISPLAY_ONLY\000"
 10965      4C455F47 
 10965      41505F49 
 10965      4F434150 
 10965      5F444953 
 10966              	.LASF292:
 10967 47cd 63795F73 		.ascii	"cy_stc_sysint_t\000"
 10967      74635F73 
ARM GAS  C:\Users\gjl\AppData\Local\Temp\ccRZOvUj.s 			page 272


 10967      7973696E 
 10967      745F7400 
 10968              	.LASF415:
 10969 47dd 43595F42 		.ascii	"CY_BLE_ERROR_OOB_NOT_AVAILABLE\000"
 10969      4C455F45 
 10969      52524F52 
 10969      5F4F4F42 
 10969      5F4E4F54 
 10970              	.LASF679:
 10971 47fc 736C6F77 		.ascii	"slowAdvTimeOut\000"
 10971      41647654 
 10971      696D654F 
 10971      757400
 10972              	.LASF251:
 10973 480b 52544F43 		.ascii	"RTOC1_OBJECT_SIZE\000"
 10973      315F4F42 
 10973      4A454354 
 10973      5F53495A 
 10973      4500
 10974              	.LASF399:
 10975 481d 43595F42 		.ascii	"CY_BLE_EVT_L2CAP_CBFC_CONN_IND\000"
 10975      4C455F45 
 10975      56545F4C 
 10975      32434150 
 10975      5F434246 
 10976              	.LASF836:
 10977 483c 43595F42 		.ascii	"CY_BLE_EVT_CPSS_NOTIFICATION_ENABLED\000"
 10977      4C455F45 
 10977      56545F43 
 10977      5053535F 
 10977      4E4F5449 
 10978              	.LASF486:
 10979 4861 43595F42 		.ascii	"CY_BLE_GATT_READ_BY_TYPE_REQ\000"
 10979      4C455F47 
 10979      4154545F 
 10979      52454144 
 10979      5F42595F 
 10980              	.LASF11:
 10981 487e 5F5F7569 		.ascii	"__uint32_t\000"
 10981      6E743332 
 10981      5F7400
 10982              	.LASF151:
 10983 4889 74637077 		.ascii	"tcpwm_1_interrupts_23_IRQn\000"
 10983      6D5F315F 
 10983      696E7465 
 10983      72727570 
 10983      74735F32 
 10984              	.LASF603:
 10985 48a4 636F6E6E 		.ascii	"connIntv\000"
 10985      496E7476 
 10985      00
 10986              	.LASF551:
 10987 48ad 76616C75 		.ascii	"value\000"
 10987      6500
 10988              	.LASF358:
 10989 48b3 43595F42 		.ascii	"CY_BLE_EVT_GAP_NUMERIC_COMPARISON_REQUEST\000"
 10989      4C455F45 
ARM GAS  C:\Users\gjl\AppData\Local\Temp\ccRZOvUj.s 			page 273


 10989      56545F47 
 10989      41505F4E 
 10989      554D4552 
 10990              	.LASF977:
 10991 48dd 43595F42 		.ascii	"CY_BLE_EVT_PLXSS_WRITE_CHAR\000"
 10991      4C455F45 
 10991      56545F50 
 10991      4C585353 
 10991      5F575249 
 10992              	.LASF1104:
 10993 48f9 63795F62 		.ascii	"cy_ble_stackMemoryRam\000"
 10993      6C655F73 
 10993      7461636B 
 10993      4D656D6F 
 10993      72795261 
 10994              	.LASF325:
 10995 490f 43595F42 		.ascii	"CY_BLE_EVT_SOFT_RESET_COMPLETE\000"
 10995      4C455F45 
 10995      56545F53 
 10995      4F46545F 
 10995      52455345 
 10996              	.LASF343:
 10997 492e 43595F42 		.ascii	"CY_BLE_EVT_SET_CE_LENGTH_COMPLETE\000"
 10997      4C455F45 
 10997      56545F53 
 10997      45545F43 
 10997      455F4C45 
 10998              	.LASF878:
 10999 4950 43595F42 		.ascii	"CY_BLE_EVT_ESSS_WRITE_CHAR\000"
 10999      4C455F45 
 10999      56545F45 
 10999      5353535F 
 10999      57524954 
 11000              	.LASF937:
 11001 496b 43595F42 		.ascii	"CY_BLE_EVT_HTSC_WRITE_DESCR_RESPONSE\000"
 11001      4C455F45 
 11001      56545F48 
 11001      5453435F 
 11001      57524954 
 11002              	.LASF1033:
 11003 4990 43595F42 		.ascii	"CY_BLE_EVT_WPTSC_WRITE_CHAR_RESPONSE\000"
 11003      4C455F45 
 11003      56545F57 
 11003      50545343 
 11003      5F575249 
 11004              	.LASF556:
 11005 49b5 63795F73 		.ascii	"cy_stc_ble_gatt_write_param_t\000"
 11005      74635F62 
 11005      6C655F67 
 11005      6174745F 
 11005      77726974 
 11006              	.LASF558:
 11007 49d3 6572726F 		.ascii	"errorCode\000"
 11007      72436F64 
 11007      6500
 11008              	.LASF153:
 11009 49dd 7564625F 		.ascii	"udb_interrupts_1_IRQn\000"
ARM GAS  C:\Users\gjl\AppData\Local\Temp\ccRZOvUj.s 			page 274


 11009      696E7465 
 11009      72727570 
 11009      74735F31 
 11009      5F495251 
 11010              	.LASF200:
 11011 49f3 4C444F5F 		.ascii	"LDO_0P9V_TRIM\000"
 11011      30503956 
 11011      5F545249 
 11011      4D00
 11012              	.LASF216:
 11013 4a01 50494C4F 		.ascii	"PILO_FREQ_STEP\000"
 11013      5F465245 
 11013      515F5354 
 11013      455000
 11014              	.LASF842:
 11015 4a10 43595F42 		.ascii	"CY_BLE_EVT_CPSS_BROADCAST_DISABLED\000"
 11015      4C455F45 
 11015      56545F43 
 11015      5053535F 
 11015      42524F41 
 11016              	.LASF905:
 11017 4a33 43595F42 		.ascii	"CY_BLE_EVT_HIDSC_NOTIFICATION\000"
 11017      4C455F45 
 11017      56545F48 
 11017      49445343 
 11017      5F4E4F54 
 11018              	.LASF99:
 11019 4a51 63707573 		.ascii	"cpuss_interrupts_dw1_3_IRQn\000"
 11019      735F696E 
 11019      74657272 
 11019      75707473 
 11019      5F647731 
 11020              	.LASF341:
 11021 4a6d 43595F42 		.ascii	"CY_BLE_EVT_AES_CMAC_GEN_COMPLETE\000"
 11021      4C455F45 
 11021      56545F41 
 11021      45535F43 
 11021      4D41435F 
 11022              	.LASF898:
 11023 4a8e 43595F42 		.ascii	"CY_BLE_EVT_HIDSS_NOTIFICATION_ENABLED\000"
 11023      4C455F45 
 11023      56545F48 
 11023      49445353 
 11023      5F4E4F54 
 11024              	.LASF812:
 11025 4ab4 43595F42 		.ascii	"CY_BLE_EVT_BLSS_INDICATION_CONFIRMED\000"
 11025      4C455F45 
 11025      56545F42 
 11025      4C53535F 
 11025      494E4449 
 11026              	.LASF612:
 11027 4ad9 726F6C65 		.ascii	"role\000"
 11027      00
 11028              	.LASF294:
 11029 4ade 43595F42 		.ascii	"CY_BLE_EVT_STACK_ON\000"
 11029      4C455F45 
 11029      56545F53 
ARM GAS  C:\Users\gjl\AppData\Local\Temp\ccRZOvUj.s 			page 275


 11029      5441434B 
 11029      5F4F4E00 
 11030              	.LASF923:
 11031 4af2 43595F42 		.ascii	"CY_BLE_EVT_HRSC_WRITE_CHAR_RESPONSE\000"
 11031      4C455F45 
 11031      56545F48 
 11031      5253435F 
 11031      57524954 
 11032              	.LASF1057:
 11033 4b16 636F756E 		.ascii	"count\000"
 11033      7400
 11034              	.LASF279:
 11035 4b1c 52544F43 		.ascii	"RTOC2_SECOND_USER_APP_ADDR\000"
 11035      325F5345 
 11035      434F4E44 
 11035      5F555345 
 11035      525F4150 
 11036              	.LASF834:
 11037 4b37 43595F42 		.ascii	"CY_BLE_EVT_CGMSC_READ_DESCR_RESPONSE\000"
 11037      4C455F45 
 11037      56545F43 
 11037      474D5343 
 11037      5F524541 
 11038              	.LASF1004:
 11039 4b5c 43595F42 		.ascii	"CY_BLE_EVT_SCPSC_WRITE_DESCR_RESPONSE\000"
 11039      4C455F45 
 11039      56545F53 
 11039      43505343 
 11039      5F575249 
 11040              	.LASF196:
 11041 4b82 5341525F 		.ascii	"SAR_TEMP_OFFSET\000"
 11041      54454D50 
 11041      5F4F4646 
 11041      53455400 
 11042              	.LASF682:
 11043 4b92 66617374 		.ascii	"fastScanWindow\000"
 11043      5363616E 
 11043      57696E64 
 11043      6F7700
 11044              	.LASF419:
 11045 4ba1 43595F42 		.ascii	"CY_BLE_ERROR_REPEATED_ATTEMPTS\000"
 11045      4C455F45 
 11045      52524F52 
 11045      5F524550 
 11045      45415445 
 11046              	.LASF144:
 11047 4bc0 74637077 		.ascii	"tcpwm_1_interrupts_16_IRQn\000"
 11047      6D5F315F 
 11047      696E7465 
 11047      72727570 
 11047      74735F31 
 11048              	.LASF232:
 11049 4bdb 464C4153 		.ascii	"FLASH_BOOT_N_CORES\000"
 11049      485F424F 
 11049      4F545F4E 
 11049      5F434F52 
 11049      455300
ARM GAS  C:\Users\gjl\AppData\Local\Temp\ccRZOvUj.s 			page 276


 11050              	.LASF895:
 11051 4bee 43595F42 		.ascii	"CY_BLE_EVT_GLSC_WRITE_CHAR_RESPONSE\000"
 11051      4C455F45 
 11051      56545F47 
 11051      4C53435F 
 11051      57524954 
 11052              	.LASF681:
 11053 4c12 66617374 		.ascii	"fastScanInterval\000"
 11053      5363616E 
 11053      496E7465 
 11053      7276616C 
 11053      00
 11054              	.LASF57:
 11055 4c23 63707573 		.ascii	"cpuss_interrupts_ipc_2_IRQn\000"
 11055      735F696E 
 11055      74657272 
 11055      75707473 
 11055      5F697063 
 11056              	.LASF305:
 11057 4c3f 43595F42 		.ascii	"CY_BLE_EVT_LE_PING_AUTH_TIMEOUT\000"
 11057      4C455F45 
 11057      56545F4C 
 11057      455F5049 
 11057      4E475F41 
 11058              	.LASF191:
 11059 4c5f 4449455F 		.ascii	"DIE_DAY\000"
 11059      44415900 
 11060              	.LASF606:
 11061 4c67 63795F73 		.ascii	"cy_stc_ble_gap_conn_param_updated_in_controller_t\000"
 11061      74635F62 
 11061      6C655F67 
 11061      61705F63 
 11061      6F6E6E5F 
 11062              	.LASF442:
 11063 4c99 63795F73 		.ascii	"cy_stc_ble_bd_addr_t\000"
 11063      74635F62 
 11063      6C655F62 
 11063      645F6164 
 11063      64725F74 
 11064              	.LASF771:
 11065 4cae 43595F42 		.ascii	"CY_BLE_EVT_AIOSS_INDICATION_CONFIRMED\000"
 11065      4C455F45 
 11065      56545F41 
 11065      494F5353 
 11065      5F494E44 
 11066              	.LASF578:
 11067 4cd4 43595F42 		.ascii	"CY_BLE_GAP_AUTH_ERROR_INSUFFICIENT_ENCRYPTION_KEY_S"
 11067      4C455F47 
 11067      41505F41 
 11067      5554485F 
 11067      4552524F 
 11068 4d07 495A4500 		.ascii	"IZE\000"
 11069              	.LASF690:
 11070 4d0b 67617063 		.ascii	"gapcConnectionSlaveLatency\000"
 11070      436F6E6E 
 11070      65637469 
 11070      6F6E536C 
ARM GAS  C:\Users\gjl\AppData\Local\Temp\ccRZOvUj.s 			page 277


 11070      6176654C 
 11071              	.LASF944:
 11072 4d26 43595F42 		.ascii	"CY_BLE_EVT_IPSC_WRITE_CHAR_RESPONSE\000"
 11072      4C455F45 
 11072      56545F49 
 11072      5053435F 
 11072      57524954 
 11073              	.LASF1031:
 11074 4d4a 43595F42 		.ascii	"CY_BLE_EVT_WPTSC_NOTIFICATION\000"
 11074      4C455F45 
 11074      56545F57 
 11074      50545343 
 11074      5F4E4F54 
 11075              	.LASF927:
 11076 4d68 43595F42 		.ascii	"CY_BLE_EVT_HTSS_NOTIFICATION_DISABLED\000"
 11076      4C455F45 
 11076      56545F48 
 11076      5453535F 
 11076      4E4F5449 
 11077              	.LASF830:
 11078 4d8e 43595F42 		.ascii	"CY_BLE_EVT_CGMSC_INDICATION\000"
 11078      4C455F45 
 11078      56545F43 
 11078      474D5343 
 11078      5F494E44 
 11079              	.LASF802:
 11080 4daa 43595F42 		.ascii	"CY_BLE_EVT_BASC_WRITE_DESCR_RESPONSE\000"
 11080      4C455F45 
 11080      56545F42 
 11080      4153435F 
 11080      57524954 
 11081              	.LASF864:
 11082 4dcf 43595F42 		.ascii	"CY_BLE_EVT_CTSS_NOTIFICATION_ENABLED\000"
 11082      4C455F45 
 11082      56545F43 
 11082      5453535F 
 11082      4E4F5449 
 11083              	.LASF250:
 11084 4df4 544F4331 		.ascii	"TOC1_CRC_ADDR\000"
 11084      5F435243 
 11084      5F414444 
 11084      5200
 11085              	.LASF385:
 11086 4e02 43595F42 		.ascii	"CY_BLE_EVT_GATTS_WRITE_CMD_REQ\000"
 11086      4C455F45 
 11086      56545F47 
 11086      41545453 
 11086      5F575249 
 11087              	.LASF816:
 11088 4e21 43595F42 		.ascii	"CY_BLE_EVT_BLSC_NOTIFICATION\000"
 11088      4C455F45 
 11088      56545F42 
 11088      4C53435F 
 11088      4E4F5449 
 11089              	.LASF406:
 11090 4e3e 43595F42 		.ascii	"CY_BLE_EVT_L2CAP_CBFC_DATA_WRITE_IND\000"
 11090      4C455F45 
ARM GAS  C:\Users\gjl\AppData\Local\Temp\ccRZOvUj.s 			page 278


 11090      56545F4C 
 11090      32434150 
 11090      5F434246 
 11091              	.LASF314:
 11092 4e63 43595F42 		.ascii	"CY_BLE_EVT_SET_HOST_CHANNEL_COMPLETE\000"
 11092      4C455F45 
 11092      56545F53 
 11092      45545F48 
 11092      4F53545F 
 11093              	.LASF853:
 11094 4e88 43595F42 		.ascii	"CY_BLE_EVT_CSCSS_NOTIFICATION_DISABLED\000"
 11094      4C455F45 
 11094      56545F43 
 11094      53435353 
 11094      5F4E4F54 
 11095              	.LASF1090:
 11096 4eaf 49544D5F 		.ascii	"ITM_RxBuffer\000"
 11096      52784275 
 11096      66666572 
 11096      00
 11097              	.LASF229:
 11098 4ebc 464C4153 		.ascii	"FLASH_BOOT_OBJECT_SIZE\000"
 11098      485F424F 
 11098      4F545F4F 
 11098      424A4543 
 11098      545F5349 
 11099              	.LASF1075:
 11100 4ed3 6348616E 		.ascii	"cHandle\000"
 11100      646C6500 
 11101              	.LASF845:
 11102 4edb 43595F42 		.ascii	"CY_BLE_EVT_CPSC_INDICATION\000"
 11102      4C455F45 
 11102      56545F43 
 11102      5053435F 
 11102      494E4449 
 11103              	.LASF84:
 11104 4ef6 63707573 		.ascii	"cpuss_interrupts_dw0_4_IRQn\000"
 11104      735F696E 
 11104      74657272 
 11104      75707473 
 11104      5F647730 
 11105              	.LASF569:
 11106 4f12 43595F42 		.ascii	"CY_BLE_GAP_IOCAP_NOINPUT_NOOUTPUT\000"
 11106      4C455F47 
 11106      41505F49 
 11106      4F434150 
 11106      5F4E4F49 
 11107              	.LASF540:
 11108 4f34 43595F42 		.ascii	"CY_BLE_GATT_ERR_ANCS_UNKNOWN_COMMAND\000"
 11108      4C455F47 
 11108      4154545F 
 11108      4552525F 
 11108      414E4353 
 11109              	.LASF114:
 11110 4f59 63707573 		.ascii	"cpuss_interrupt_crypto_IRQn\000"
 11110      735F696E 
 11110      74657272 
ARM GAS  C:\Users\gjl\AppData\Local\Temp\ccRZOvUj.s 			page 279


 11110      7570745F 
 11110      63727970 
 11111              	.LASF416:
 11112 4f75 43595F42 		.ascii	"CY_BLE_ERROR_NO_CONNECTION\000"
 11112      4C455F45 
 11112      52524F52 
 11112      5F4E4F5F 
 11112      434F4E4E 
 11113              	.LASF669:
 11114 4f90 70726566 		.ascii	"prefConnParamCharHandle\000"
 11114      436F6E6E 
 11114      50617261 
 11114      6D436861 
 11114      7248616E 
 11115              	.LASF519:
 11116 4fa8 43595F42 		.ascii	"CY_BLE_GATT_ERR_ATTRIBUTE_NOT_FOUND\000"
 11116      4C455F47 
 11116      4154545F 
 11116      4552525F 
 11116      41545452 
 11117              	.LASF324:
 11118 4fcc 43595F42 		.ascii	"CY_BLE_EVT_LL_CNTRL_PROC_PENDING_COMPLETE\000"
 11118      4C455F45 
 11118      56545F4C 
 11118      4C5F434E 
 11118      54524C5F 
 11119              	.LASF828:
 11120 4ff6 43595F42 		.ascii	"CY_BLE_EVT_CGMSS_NOTIFICATION_DISABLED\000"
 11120      4C455F45 
 11120      56545F43 
 11120      474D5353 
 11120      5F4E4F54 
 11121              	.LASF840:
 11122 501d 43595F42 		.ascii	"CY_BLE_EVT_CPSS_INDICATION_CONFIRMED\000"
 11122      4C455F45 
 11122      56545F43 
 11122      5053535F 
 11122      494E4449 
 11123              	.LASF1056:
 11124 5042 73657276 		.ascii	"serviceEventHandler\000"
 11124      69636545 
 11124      76656E74 
 11124      48616E64 
 11124      6C657200 
 11125              	.LASF148:
 11126 5056 74637077 		.ascii	"tcpwm_1_interrupts_20_IRQn\000"
 11126      6D5F315F 
 11126      696E7465 
 11126      72727570 
 11126      74735F32 
 11127              	.LASF642:
 11128 5071 7363616E 		.ascii	"scanRspDataLen\000"
 11128      52737044 
 11128      6174614C 
 11128      656E00
 11129              	.LASF777:
 11130 5080 43595F42 		.ascii	"CY_BLE_EVT_AIOSC_WRITE_CHAR_RESPONSE\000"
ARM GAS  C:\Users\gjl\AppData\Local\Temp\ccRZOvUj.s 			page 280


 11130      4C455F45 
 11130      56545F41 
 11130      494F5343 
 11130      5F575249 
 11131              	.LASF227:
 11132 50a5 43505553 		.ascii	"CPUSS_TRIM_RAM_CTL_LP\000"
 11132      535F5452 
 11132      494D5F52 
 11132      414D5F43 
 11132      544C5F4C 
 11133              	.LASF165:
 11134 50bb 7564625F 		.ascii	"udb_interrupts_13_IRQn\000"
 11134      696E7465 
 11134      72727570 
 11134      74735F31 
 11134      335F4952 
 11135              	.LASF436:
 11136 50d2 43595F42 		.ascii	"CY_BLE_ERROR_CONTROLLER_BUSY\000"
 11136      4C455F45 
 11136      52524F52 
 11136      5F434F4E 
 11136      54524F4C 
 11137              	.LASF1116:
 11138 50ef 43795F42 		.ascii	"Cy_BLE_GATTS_ExchangeMtuRsp\000"
 11138      4C455F47 
 11138      41545453 
 11138      5F457863 
 11138      68616E67 
 11139              	.LASF647:
 11140 510b 63795F73 		.ascii	"cy_stc_ble_gapp_disc_mode_info_t\000"
 11140      74635F62 
 11140      6C655F67 
 11140      6170705F 
 11140      64697363 
 11141              	.LASF1061:
 11142 512c 43795F42 		.ascii	"Cy_BLE_SetConnectionState\000"
 11142      4C455F53 
 11142      6574436F 
 11142      6E6E6563 
 11142      74696F6E 
 11143              	.LASF723:
 11144 5146 626F756E 		.ascii	"boundedDevCount\000"
 11144      64656444 
 11144      6576436F 
 11144      756E7400 
 11145              	.LASF475:
 11146 5156 72656173 		.ascii	"reasonCode\000"
 11146      6F6E436F 
 11146      646500
 11147              	.LASF809:
 11148 5161 43595F42 		.ascii	"CY_BLE_EVT_BCSC_WRITE_DESCR_RESPONSE\000"
 11148      4C455F45 
 11148      56545F42 
 11148      4353435F 
 11148      57524954 
 11149              	.LASF678:
 11150 5186 736C6F77 		.ascii	"slowAdvIntervalMax\000"
ARM GAS  C:\Users\gjl\AppData\Local\Temp\ccRZOvUj.s 			page 281


 11150      41647649 
 11150      6E746572 
 11150      76616C4D 
 11150      617800
 11151              	.LASF737:
 11152 5199 67617474 		.ascii	"gatts\000"
 11152      7300
 11153              	.LASF478:
 11154 519f 63795F73 		.ascii	"cy_stc_ble_timeout_param_t\000"
 11154      74635F62 
 11154      6C655F74 
 11154      696D656F 
 11154      75745F70 
 11155              	.LASF96:
 11156 51ba 63707573 		.ascii	"cpuss_interrupts_dw1_0_IRQn\000"
 11156      735F696E 
 11156      74657272 
 11156      75707473 
 11156      5F647731 
 11157              	.LASF367:
 11158 51d6 43595F42 		.ascii	"CY_BLE_EVT_GAP_GEN_SET_LOCAL_P256_KEYS_COMPLETE\000"
 11158      4C455F45 
 11158      56545F47 
 11158      41505F47 
 11158      454E5F53 
 11159              	.LASF404:
 11160 5206 43595F42 		.ascii	"CY_BLE_EVT_L2CAP_CBFC_RX_CREDIT_IND\000"
 11160      4C455F45 
 11160      56545F4C 
 11160      32434150 
 11160      5F434246 
 11161              	.LASF640:
 11162 522a 63795F73 		.ascii	"cy_stc_ble_gapp_disc_data_t\000"
 11162      74635F62 
 11162      6C655F67 
 11162      6170705F 
 11162      64697363 
 11163              	.LASF238:
 11164 5246 5055424C 		.ascii	"PUBLIC_KEY\000"
 11164      49435F4B 
 11164      455900
 11165              	.LASF403:
 11166 5251 43595F42 		.ascii	"CY_BLE_EVT_L2CAP_CBFC_DATA_READ\000"
 11166      4C455F45 
 11166      56545F4C 
 11166      32434150 
 11166      5F434246 
 11167              	.LASF900:
 11168 5271 43595F42 		.ascii	"CY_BLE_EVT_HIDSS_BOOT_MODE_ENTER\000"
 11168      4C455F45 
 11168      56545F48 
 11168      49445353 
 11168      5F424F4F 
 11169              	.LASF957:
 11170 5292 43595F42 		.ascii	"CY_BLE_EVT_LNSS_WRITE_CHAR\000"
 11170      4C455F45 
 11170      56545F4C 
ARM GAS  C:\Users\gjl\AppData\Local\Temp\ccRZOvUj.s 			page 282


 11170      4E53535F 
 11170      57524954 
 11171              	.LASF1029:
 11172 52ad 43595F42 		.ascii	"CY_BLE_EVT_WPTSS_INDICATION_CONFIRMED\000"
 11172      4C455F45 
 11172      56545F57 
 11172      50545353 
 11172      5F494E44 
 11173              	.LASF141:
 11174 52d3 74637077 		.ascii	"tcpwm_1_interrupts_13_IRQn\000"
 11174      6D5F315F 
 11174      696E7465 
 11174      72727570 
 11174      74735F31 
 11175              	.LASF334:
 11176 52ee 43595F42 		.ascii	"CY_BLE_EVT_AES_ENCRYPT_COMPLETE\000"
 11176      4C455F45 
 11176      56545F41 
 11176      45535F45 
 11176      4E435259 
 11177              	.LASF961:
 11178 530e 43595F42 		.ascii	"CY_BLE_EVT_LNSC_WRITE_CHAR_RESPONSE\000"
 11178      4C455F45 
 11178      56545F4C 
 11178      4E53435F 
 11178      57524954 
 11179              	.LASF286:
 11180 5332 53464C41 		.ascii	"SFLASH_Type\000"
 11180      53485F54 
 11180      79706500 
 11181              	.LASF720:
 11182 533e 73746163 		.ascii	"stackFlashptr\000"
 11182      6B466C61 
 11182      73687074 
 11182      7200
 11183              	.LASF638:
 11184 534c 61647644 		.ascii	"advData\000"
 11184      61746100 
 11185              	.LASF1051:
 11186 5354 43595F42 		.ascii	"CY_BLE_EVT_GATTC_DISC_INCL\000"
 11186      4C455F45 
 11186      56545F47 
 11186      41545443 
 11186      5F444953 
 11187              	.LASF516:
 11188 536f 43595F42 		.ascii	"CY_BLE_GATT_ERR_INVALID_OFFSET\000"
 11188      4C455F47 
 11188      4154545F 
 11188      4552525F 
 11188      494E5641 
 11189              	.LASF634:
 11190 538e 64697265 		.ascii	"directAddr\000"
 11190      63744164 
 11190      647200
 11191              	.LASF982:
 11192 5399 43595F42 		.ascii	"CY_BLE_EVT_PLXSC_READ_DESCR_RESPONSE\000"
 11192      4C455F45 
ARM GAS  C:\Users\gjl\AppData\Local\Temp\ccRZOvUj.s 			page 283


 11192      56545F50 
 11192      4C585343 
 11192      5F524541 
 11193              	.LASF584:
 11194 53be 43595F42 		.ascii	"CY_BLE_GAP_AUTH_ERROR_NUMERIC_COMPARISON_FAILED\000"
 11194      4C455F47 
 11194      41505F41 
 11194      5554485F 
 11194      4552524F 
 11195              	.LASF5:
 11196 53ee 73686F72 		.ascii	"short int\000"
 11196      7420696E 
 11196      7400
 11197              	.LASF70:
 11198 53f8 63707573 		.ascii	"cpuss_interrupts_ipc_15_IRQn\000"
 11198      735F696E 
 11198      74657272 
 11198      75707473 
 11198      5F697063 
 11199              	.LASF784:
 11200 5415 43595F42 		.ascii	"CY_BLE_EVT_ANCSC_NOTIFICATION\000"
 11200      4C455F45 
 11200      56545F41 
 11200      4E435343 
 11200      5F4E4F54 
 11201              	.LASF1098:
 11202 5433 63795F62 		.ascii	"cy_ble_devConnRole\000"
 11202      6C655F64 
 11202      6576436F 
 11202      6E6E526F 
 11202      6C6500
 11203              	.LASF758:
 11204 5446 43595F42 		.ascii	"CY_BLE_EVT_GATTC_DESCR_DISCOVERY_FAILED\000"
 11204      4C455F45 
 11204      56545F47 
 11204      41545443 
 11204      5F444553 
 11205              	.LASF254:
 11206 546e 52544F43 		.ascii	"RTOC1_SFLASH_GENERAL_TRIM_ADDR\000"
 11206      315F5346 
 11206      4C415348 
 11206      5F47454E 
 11206      4552414C 
 11207              	.LASF201:
 11208 548d 4C444F5F 		.ascii	"LDO_1P1V_TRIM\000"
 11208      31503156 
 11208      5F545249 
 11208      4D00
 11209              	.LASF849:
 11210 549b 43595F42 		.ascii	"CY_BLE_EVT_CPSC_WRITE_DESCR_RESPONSE\000"
 11210      4C455F45 
 11210      56545F43 
 11210      5053435F 
 11210      57524954 
 11211              	.LASF179:
 11212 54c0 52455345 		.ascii	"RESERVED\000"
 11212      52564544 
ARM GAS  C:\Users\gjl\AppData\Local\Temp\ccRZOvUj.s 			page 284


 11212      00
 11213              	.LASF931:
 11214 54c9 43595F42 		.ascii	"CY_BLE_EVT_HTSS_WRITE_CHAR\000"
 11214      4C455F45 
 11214      56545F48 
 11214      5453535F 
 11214      57524954 
 11215              	.LASF487:
 11216 54e4 43595F42 		.ascii	"CY_BLE_GATT_READ_BY_TYPE_RSP\000"
 11216      4C455F47 
 11216      4154545F 
 11216      52454144 
 11216      5F42595F 
 11217              	.LASF939:
 11218 5501 43595F42 		.ascii	"CY_BLE_EVT_IPSS_READ_CHAR\000"
 11218      4C455F45 
 11218      56545F49 
 11218      5053535F 
 11218      52454144 
 11219              	.LASF411:
 11220 551b 43595F42 		.ascii	"CY_BLE_ERROR_INVALID_PARAMETER\000"
 11220      4C455F45 
 11220      52524F52 
 11220      5F494E56 
 11220      414C4944 
 11221              	.LASF950:
 11222 553a 43595F42 		.ascii	"CY_BLE_EVT_LLSC_READ_CHAR_RESPONSE\000"
 11222      4C455F45 
 11222      56545F4C 
 11222      4C53435F 
 11222      52454144 
 11223              	.LASF81:
 11224 555d 63707573 		.ascii	"cpuss_interrupts_dw0_1_IRQn\000"
 11224      735F696E 
 11224      74657272 
 11224      75707473 
 11224      5F647730 
 11225              	.LASF571:
 11226 5579 63795F65 		.ascii	"cy_en_ble_gap_iocap_t\000"
 11226      6E5F626C 
 11226      655F6761 
 11226      705F696F 
 11226      6361705F 
 11227              	.LASF587:
 11228 558f 43595F42 		.ascii	"CY_BLE_GAP_AUTH_ERROR_AUTHENTICATION_TIMEOUT\000"
 11228      4C455F47 
 11228      41505F41 
 11228      5554485F 
 11228      4552524F 
 11229              	.LASF967:
 11230 55bc 43595F42 		.ascii	"CY_BLE_EVT_PASSS_WRITE_CHAR\000"
 11230      4C455F45 
 11230      56545F50 
 11230      41535353 
 11230      5F575249 
 11231              	.LASF984:
 11232 55d8 43595F42 		.ascii	"CY_BLE_EVT_PLXSC_TIMEOUT\000"
ARM GAS  C:\Users\gjl\AppData\Local\Temp\ccRZOvUj.s 			page 285


 11232      4C455F45 
 11232      56545F50 
 11232      4C585343 
 11232      5F54494D 
 11233              	.LASF745:
 11234 55f1 626C6573 		.ascii	"blessIsrConfig\000"
 11234      73497372 
 11234      436F6E66 
 11234      696700
 11235              	.LASF267:
 11236 5600 544F4332 		.ascii	"TOC2_SECOND_USER_APP_FORMAT\000"
 11236      5F534543 
 11236      4F4E445F 
 11236      55534552 
 11236      5F415050 
 11237              	.LASF432:
 11238 561c 43595F42 		.ascii	"CY_BLE_ERROR_GATT_DB_INVALID_ATTR_HANDLE\000"
 11238      4C455F45 
 11238      52524F52 
 11238      5F474154 
 11238      545F4442 
 11239              	.LASF212:
 11240 5645 5354414E 		.ascii	"STANDARD_SMPU_STRUCT_MASTER_ATTR\000"
 11240      44415244 
 11240      5F534D50 
 11240      555F5354 
 11240      52554354 
 11241              	.LASF520:
 11242 5666 43595F42 		.ascii	"CY_BLE_GATT_ERR_ATTRIBUTE_NOT_LONG\000"
 11242      4C455F47 
 11242      4154545F 
 11242      4552525F 
 11242      41545452 
 11243              	.LASF209:
 11244 5689 4D415354 		.ascii	"MASTER_KEY\000"
 11244      45525F4B 
 11244      455900
 11245              	.LASF729:
 11246 5694 73696C69 		.ascii	"siliconDeviceAddressEnabled\000"
 11246      636F6E44 
 11246      65766963 
 11246      65416464 
 11246      72657373 
 11247              	.LASF662:
 11248 56b0 43595F42 		.ascii	"CY_BLE_CONN_STATE_CLIENT_CHAR_DISCOVERING\000"
 11248      4C455F43 
 11248      4F4E4E5F 
 11248      53544154 
 11248      455F434C 
 11249              	.LASF113:
 11250 56da 63707573 		.ascii	"cpuss_interrupts_fault_1_IRQn\000"
 11250      735F696E 
 11250      74657272 
 11250      75707473 
 11250      5F666175 
 11251              	.LASF949:
 11252 56f8 43595F42 		.ascii	"CY_BLE_EVT_LLSS_WRITE_CHAR_REQ\000"
ARM GAS  C:\Users\gjl\AppData\Local\Temp\ccRZOvUj.s 			page 286


 11252      4C455F45 
 11252      56545F4C 
 11252      4C53535F 
 11252      57524954 
 11253              	.LASF548:
 11254 5717 63795F62 		.ascii	"cy_ble_gatt_db_attr_handle_t\000"
 11254      6C655F67 
 11254      6174745F 
 11254      64625F61 
 11254      7474725F 
 11255              	.LASF115:
 11256 5734 63707573 		.ascii	"cpuss_interrupt_fm_IRQn\000"
 11256      735F696E 
 11256      74657272 
 11256      7570745F 
 11256      666D5F49 
 11257              	.LASF490:
 11258 574c 43595F42 		.ascii	"CY_BLE_GATT_READ_BLOB_REQ\000"
 11258      4C455F47 
 11258      4154545F 
 11258      52454144 
 11258      5F424C4F 
 11259              	.LASF526:
 11260 5766 43595F42 		.ascii	"CY_BLE_GATT_ERR_INSUFFICIENT_RESOURCE\000"
 11260      4C455F47 
 11260      4154545F 
 11260      4552525F 
 11260      494E5355 
 11261              	.LASF162:
 11262 578c 7564625F 		.ascii	"udb_interrupts_10_IRQn\000"
 11262      696E7465 
 11262      72727570 
 11262      74735F31 
 11262      305F4952 
 11263              	.LASF750:
 11264 57a3 43595F42 		.ascii	"CY_BLE_KEY_EXCHANGE_INFO_REQUEST_REPLY\000"
 11264      4C455F4B 
 11264      45595F45 
 11264      58434841 
 11264      4E47455F 
 11265              	.LASF273:
 11266 57ca 52544F43 		.ascii	"RTOC2_OBJECT_SIZE\000"
 11266      325F4F42 
 11266      4A454354 
 11266      5F53495A 
 11266      4500
 11267              	.LASF909:
 11268 57dc 43595F42 		.ascii	"CY_BLE_EVT_HIDSC_WRITE_DESCR_RESPONSE\000"
 11268      4C455F45 
 11268      56545F48 
 11268      49445343 
 11268      5F575249 
 11269              	.LASF347:
 11270 5802 43595F42 		.ascii	"CY_BLE_EVT_GAP_PASSKEY_ENTRY_REQUEST\000"
 11270      4C455F45 
 11270      56545F47 
 11270      41505F50 
ARM GAS  C:\Users\gjl\AppData\Local\Temp\ccRZOvUj.s 			page 287


 11270      4153534B 
 11271              	.LASF175:
 11272 5827 7573625F 		.ascii	"usb_interrupt_lo_IRQn\000"
 11272      696E7465 
 11272      72727570 
 11272      745F6C6F 
 11272      5F495251 
 11273              	.LASF10:
 11274 583d 6C6F6E67 		.ascii	"long int\000"
 11274      20696E74 
 11274      00
 11275              	.LASF677:
 11276 5846 736C6F77 		.ascii	"slowAdvIntervalMin\000"
 11276      41647649 
 11276      6E746572 
 11276      76616C4D 
 11276      696E00
 11277              	.LASF402:
 11278 5859 43595F42 		.ascii	"CY_BLE_EVT_L2CAP_CBFC_DISCONN_CNF\000"
 11278      4C455F45 
 11278      56545F4C 
 11278      32434150 
 11278      5F434246 
 11279              	.LASF775:
 11280 587b 43595F42 		.ascii	"CY_BLE_EVT_AIOSC_INDICATION\000"
 11280      4C455F45 
 11280      56545F41 
 11280      494F5343 
 11280      5F494E44 
 11281              	.LASF9:
 11282 5897 5F5F696E 		.ascii	"__int32_t\000"
 11282      7433325F 
 11282      7400
 11283              	.LASF344:
 11284 58a1 43595F42 		.ascii	"CY_BLE_EVT_SET_CONN_PRIORITY_COMPLETE\000"
 11284      4C455F45 
 11284      56545F53 
 11284      45545F43 
 11284      4F4E4E5F 
 11285              	.LASF646:
 11286 58c7 61647654 		.ascii	"advTo\000"
 11286      6F00
 11287              	.LASF687:
 11288 58cd 736C6F77 		.ascii	"slowScanTimeOut\000"
 11288      5363616E 
 11288      54696D65 
 11288      4F757400 
 11289              	.LASF1093:
 11290 58dd 63795F62 		.ascii	"cy_ble_state\000"
 11290      6C655F73 
 11290      74617465 
 11290      00
 11291              	.LASF459:
 11292 58ea 43595F42 		.ascii	"CY_BLE_PREPARED_WRITE_REQUEST\000"
 11292      4C455F50 
 11292      52455041 
 11292      5245445F 
ARM GAS  C:\Users\gjl\AppData\Local\Temp\ccRZOvUj.s 			page 288


 11292      57524954 
 11293              	.LASF138:
 11294 5908 74637077 		.ascii	"tcpwm_1_interrupts_10_IRQn\000"
 11294      6D5F315F 
 11294      696E7465 
 11294      72727570 
 11294      74735F31 
 11295              	.LASF831:
 11296 5923 43595F42 		.ascii	"CY_BLE_EVT_CGMSC_NOTIFICATION\000"
 11296      4C455F45 
 11296      56545F43 
 11296      474D5343 
 11296      5F4E4F54 
 11297              	.LASF976:
 11298 5941 43595F42 		.ascii	"CY_BLE_EVT_PLXSS_NOTIFICATION_DISABLED\000"
 11298      4C455F45 
 11298      56545F50 
 11298      4C585353 
 11298      5F4E4F54 
 11299              	.LASF667:
 11300 5968 64657669 		.ascii	"deviceNameCharHandle\000"
 11300      63654E61 
 11300      6D654368 
 11300      61724861 
 11300      6E646C65 
 11301              	.LASF37:
 11302 597d 696F7373 		.ascii	"ioss_interrupts_gpio_7_IRQn\000"
 11302      5F696E74 
 11302      65727275 
 11302      7074735F 
 11302      6770696F 
 11303              	.LASF1059:
 11304 5999 73746174 		.ascii	"state\000"
 11304      6500
 11305              	.LASF268:
 11306 599f 544F4332 		.ascii	"TOC2_SHASH_OBJECTS\000"
 11306      5F534841 
 11306      53485F4F 
 11306      424A4543 
 11306      545300
 11307              	.LASF594:
 11308 59b2 63795F65 		.ascii	"cy_en_ble_gap_adv_addr_type_t\000"
 11308      6E5F626C 
 11308      655F6761 
 11308      705F6164 
 11308      765F6164 
 11309              	.LASF1110:
 11310 59d0 43795F42 		.ascii	"Cy_BLE_GATTS_ErrorRsp\000"
 11310      4C455F47 
 11310      41545453 
 11310      5F457272 
 11310      6F725273 
 11311              	.LASF870:
 11312 59e6 43595F42 		.ascii	"CY_BLE_EVT_CTSC_WRITE_DESCR_RESPONSE\000"
 11312      4C455F45 
 11312      56545F43 
 11312      5453435F 
ARM GAS  C:\Users\gjl\AppData\Local\Temp\ccRZOvUj.s 			page 289


 11312      57524954 
 11313              	.LASF67:
 11314 5a0b 63707573 		.ascii	"cpuss_interrupts_ipc_12_IRQn\000"
 11314      735F696E 
 11314      74657272 
 11314      75707473 
 11314      5F697063 
 11315              	.LASF666:
 11316 5a28 73657276 		.ascii	"serviceHandle\000"
 11316      69636548 
 11316      616E646C 
 11316      6500
 11317              	.LASF137:
 11318 5a36 74637077 		.ascii	"tcpwm_1_interrupts_9_IRQn\000"
 11318      6D5F315F 
 11318      696E7465 
 11318      72727570 
 11318      74735F39 
 11319              	.LASF975:
 11320 5a50 43595F42 		.ascii	"CY_BLE_EVT_PLXSS_NOTIFICATION_ENABLED\000"
 11320      4C455F45 
 11320      56545F50 
 11320      4C585353 
 11320      5F4E4F54 
 11321              	.LASF428:
 11322 5a76 43595F42 		.ascii	"CY_BLE_ERROR_FLASH_WRITE_NOT_PERMITED\000"
 11322      4C455F45 
 11322      52524F52 
 11322      5F464C41 
 11322      53485F57 
 11323              	.LASF1119:
 11324 5a9c 43795F42 		.ascii	"Cy_BLE_ChangeAdDeviceAddress\000"
 11324      4C455F43 
 11324      68616E67 
 11324      65416444 
 11324      65766963 
 11325              	.LASF14:
 11326 5ab9 73697A65 		.ascii	"sizetype\000"
 11326      74797065 
 11326      00
 11327              	.LASF203:
 11328 5ac2 424C455F 		.ascii	"BLE_DEVICE_ADDRESS\000"
 11328      44455649 
 11328      43455F41 
 11328      44445245 
 11328      535300
 11329              	.LASF1068:
 11330 5ad5 43795F42 		.ascii	"Cy_BLE_RegisterServiceEventHandler\000"
 11330      4C455F52 
 11330      65676973 
 11330      74657253 
 11330      65727669 
 11331              	.LASF689:
 11332 5af8 67617063 		.ascii	"gapcConnectionIntervalMax\000"
 11332      436F6E6E 
 11332      65637469 
 11332      6F6E496E 
ARM GAS  C:\Users\gjl\AppData\Local\Temp\ccRZOvUj.s 			page 290


 11332      74657276 
 11333              	.LASF1089:
 11334 5b12 6D747550 		.ascii	"mtuParam\000"
 11334      6172616D 
 11334      00
 11335              	.LASF93:
 11336 5b1b 63707573 		.ascii	"cpuss_interrupts_dw0_13_IRQn\000"
 11336      735F696E 
 11336      74657272 
 11336      75707473 
 11336      5F647730 
 11337              	.LASF408:
 11338 5b38 63795F65 		.ascii	"cy_en_ble_event_t\000"
 11338      6E5F626C 
 11338      655F6576 
 11338      656E745F 
 11338      7400
 11339              	.LASF547:
 11340 5b4a 63795F65 		.ascii	"cy_en_ble_gatt_err_code_t\000"
 11340      6E5F626C 
 11340      655F6761 
 11340      74745F65 
 11340      72725F63 
 11341              	.LASF941:
 11342 5b64 43595F42 		.ascii	"CY_BLE_EVT_IPSS_WRITE_CHAR_CMD\000"
 11342      4C455F45 
 11342      56545F49 
 11342      5053535F 
 11342      57524954 
 11343              	.LASF653:
 11344 5b83 43595F42 		.ascii	"CY_BLE_ADV_STATE_ADV_INITIATED\000"
 11344      4C455F41 
 11344      44565F53 
 11344      54415445 
 11344      5F414456 
 11345              	.LASF375:
 11346 5ba2 43595F42 		.ascii	"CY_BLE_EVT_GATTC_XCHNG_MTU_RSP\000"
 11346      4C455F45 
 11346      56545F47 
 11346      41545443 
 11346      5F584348 
 11347              	.LASF659:
 11348 5bc1 43595F42 		.ascii	"CY_BLE_CONN_STATE_CONNECTED\000"
 11348      4C455F43 
 11348      4F4E4E5F 
 11348      53544154 
 11348      455F434F 
 11349              	.LASF438:
 11350 5bdd 43595F42 		.ascii	"CY_BLE_ERROR_MAX\000"
 11350      4C455F45 
 11350      52524F52 
 11350      5F4D4158 
 11350      00
 11351              	.LASF354:
 11352 5bee 43595F42 		.ascii	"CY_BLE_EVT_GAP_ENCRYPT_CHANGE\000"
 11352      4C455F45 
 11352      56545F47 
ARM GAS  C:\Users\gjl\AppData\Local\Temp\ccRZOvUj.s 			page 291


 11352      41505F45 
 11352      4E435259 
 11353              	.LASF468:
 11354 5c0c 70777243 		.ascii	"pwrConfigParam\000"
 11354      6F6E6669 
 11354      67506172 
 11354      616D00
 11355              	.LASF183:
 11356 5c1b 46414D49 		.ascii	"FAMILY_ID\000"
 11356      4C595F49 
 11356      4400
 11357              	.LASF125:
 11358 5c25 74637077 		.ascii	"tcpwm_0_interrupts_5_IRQn\000"
 11358      6D5F305F 
 11358      696E7465 
 11358      72727570 
 11358      74735F35 
 11359              	.LASF252:
 11360 5c3f 52544F43 		.ascii	"RTOC1_MAGIC_NUMBER\000"
 11360      315F4D41 
 11360      4749435F 
 11360      4E554D42 
 11360      455200
 11361              	.LASF795:
 11362 5c52 43595F42 		.ascii	"CY_BLE_EVT_ANSC_READ_DESCR_RESPONSE\000"
 11362      4C455F45 
 11362      56545F41 
 11362      4E53435F 
 11362      52454144 
 11363              	.LASF253:
 11364 5c76 52544F43 		.ascii	"RTOC1_FHASH_OBJECTS\000"
 11364      315F4648 
 11364      4153485F 
 11364      4F424A45 
 11364      43545300 
 11365              	.LASF409:
 11366 5c8a 43595F42 		.ascii	"CY_BLE_SUCCESS\000"
 11366      4C455F53 
 11366      55434345 
 11366      535300
 11367              	.LASF583:
 11368 5c99 43595F42 		.ascii	"CY_BLE_GAP_AUTH_ERROR_DHKEY_CHECK_FAILED\000"
 11368      4C455F47 
 11368      41505F41 
 11368      5554485F 
 11368      4552524F 
 11369              	.LASF660:
 11370 5cc2 43595F42 		.ascii	"CY_BLE_CONN_STATE_CLIENT_SRVC_DISCOVERING\000"
 11370      4C455F43 
 11370      4F4E4E5F 
 11370      53544154 
 11370      455F434C 
 11371              	.LASF178:
 11372 5cec 4952516E 		.ascii	"IRQn_Type\000"
 11372      5F547970 
 11372      6500
 11373              	.LASF315:
ARM GAS  C:\Users\gjl\AppData\Local\Temp\ccRZOvUj.s 			page 292


 11374 5cf6 43595F42 		.ascii	"CY_BLE_EVT_ADD_DEVICE_TO_RPA_LIST_COMPLETE\000"
 11374      4C455F45 
 11374      56545F41 
 11374      44445F44 
 11374      45564943 
 11375              	.LASF760:
 11376 5d21 43595F42 		.ascii	"CY_BLE_EVT_GATTC_CHAR_DUPLICATION\000"
 11376      4C455F45 
 11376      56545F47 
 11376      41545443 
 11376      5F434841 
 11377              	.LASF987:
 11378 5d43 43595F42 		.ascii	"CY_BLE_EVT_RSCSS_INDICATION_ENABLED\000"
 11378      4C455F45 
 11378      56545F52 
 11378      53435353 
 11378      5F494E44 
 11379              	.LASF444:
 11380 5d67 43595F42 		.ascii	"CY_BLE_LL_PWR_LVL_NEG_16_DBM\000"
 11380      4C455F4C 
 11380      4C5F5057 
 11380      525F4C56 
 11380      4C5F4E45 
 11381              	.LASF338:
 11382 5d84 43595F42 		.ascii	"CY_BLE_EVT_STACK_SHUTDOWN_COMPLETE\000"
 11382      4C455F45 
 11382      56545F53 
 11382      5441434B 
 11382      5F534855 
 11383              	.LASF160:
 11384 5da7 7564625F 		.ascii	"udb_interrupts_8_IRQn\000"
 11384      696E7465 
 11384      72727570 
 11384      74735F38 
 11384      5F495251 
 11385              	.LASF425:
 11386 5dbd 43595F42 		.ascii	"CY_BLE_ERROR_L2CAP_CONNECTION_ENTITY_NOT_FOUND\000"
 11386      4C455F45 
 11386      52524F52 
 11386      5F4C3243 
 11386      41505F43 
 11387              	.LASF1086:
 11388 5dec 74457650 		.ascii	"tEvParam\000"
 11388      6172616D 
 11388      00
 11389              	.LASF435:
 11390 5df5 43595F42 		.ascii	"CY_BLE_ERROR_CHAR_IS_NOT_DISCOVERED\000"
 11390      4C455F45 
 11390      52524F52 
 11390      5F434841 
 11390      525F4953 
 11391              	.LASF818:
 11392 5e19 43595F42 		.ascii	"CY_BLE_EVT_BLSC_READ_DESCR_RESPONSE\000"
 11392      4C455F45 
 11392      56545F42 
 11392      4C53435F 
 11392      52454144 
ARM GAS  C:\Users\gjl\AppData\Local\Temp\ccRZOvUj.s 			page 293


 11393              	.LASF357:
 11394 5e3d 43595F42 		.ascii	"CY_BLE_EVT_GAP_KEYINFO_EXCHNGE_CMPLT\000"
 11394      4C455F45 
 11394      56545F47 
 11394      41505F4B 
 11394      4559494E 
 11395              	.LASF876:
 11396 5e62 43595F42 		.ascii	"CY_BLE_EVT_ESSS_INDICATION_DISABLED\000"
 11396      4C455F45 
 11396      56545F45 
 11396      5353535F 
 11396      494E4449 
 11397              	.LASF552:
 11398 5e86 61747472 		.ascii	"attrHandle\000"
 11398      48616E64 
 11398      6C6500
 11399              	.LASF793:
 11400 5e91 43595F42 		.ascii	"CY_BLE_EVT_ANSC_READ_CHAR_RESPONSE\000"
 11400      4C455F45 
 11400      56545F41 
 11400      4E53435F 
 11400      52454144 
 11401              	.LASF691:
 11402 5eb4 67617063 		.ascii	"gapcConnectionTimeOut\000"
 11402      436F6E6E 
 11402      65637469 
 11402      6F6E5469 
 11402      6D654F75 
 11403              	.LASF111:
 11404 5eca 63707573 		.ascii	"cpuss_interrupts_dw1_15_IRQn\000"
 11404      735F696E 
 11404      74657272 
 11404      75707473 
 11404      5F647731 
 11405              	.LASF663:
 11406 5ee7 43595F42 		.ascii	"CY_BLE_CONN_STATE_CLIENT_DESCR_DISCOVERING\000"
 11406      4C455F43 
 11406      4F4E4E5F 
 11406      53544154 
 11406      455F434C 
 11407              	.LASF64:
 11408 5f12 63707573 		.ascii	"cpuss_interrupts_ipc_9_IRQn\000"
 11408      735F696E 
 11408      74657272 
 11408      75707473 
 11408      5F697063 
 11409              	.LASF34:
 11410 5f2e 696F7373 		.ascii	"ioss_interrupts_gpio_4_IRQn\000"
 11410      5F696E74 
 11410      65727275 
 11410      7074735F 
 11410      6770696F 
 11411              	.LASF1070:
 11412 5f4a 6576656E 		.ascii	"eventCode\000"
 11412      74436F64 
 11412      6500
 11413              	.LASF970:
ARM GAS  C:\Users\gjl\AppData\Local\Temp\ccRZOvUj.s 			page 294


 11414 5f54 43595F42 		.ascii	"CY_BLE_EVT_PASSC_READ_DESCR_RESPONSE\000"
 11414      4C455F45 
 11414      56545F50 
 11414      41535343 
 11414      5F524541 
 11415              	.LASF391:
 11416 5f79 43595F42 		.ascii	"CY_BLE_EVT_GATTS_HANDLE_VALUE_CNF\000"
 11416      4C455F45 
 11416      56545F47 
 11416      41545453 
 11416      5F48414E 
 11417              	.LASF636:
 11418 5f9b 61647646 		.ascii	"advFilterPolicy\000"
 11418      696C7465 
 11418      72506F6C 
 11418      69637900 
 11419              	.LASF568:
 11420 5fab 43595F42 		.ascii	"CY_BLE_GAP_IOCAP_KEYBOARD_ONLY\000"
 11420      4C455F47 
 11420      41505F49 
 11420      4F434150 
 11420      5F4B4559 
 11421              	.LASF278:
 11422 5fca 52544F43 		.ascii	"RTOC2_FIRST_USER_APP_FORMAT\000"
 11422      325F4649 
 11422      5253545F 
 11422      55534552 
 11422      5F415050 
 11423              	.LASF1058:
 11424 5fe6 63795F73 		.ascii	"cy_stc_ble_event_handler_t\000"
 11424      74635F62 
 11424      6C655F65 
 11424      76656E74 
 11424      5F68616E 
 11425              	.LASF499:
 11426 6001 43595F42 		.ascii	"CY_BLE_GATT_PREPARE_WRITE_REQ\000"
 11426      4C455F47 
 11426      4154545F 
 11426      50524550 
 11426      4152455F 
 11427              	.LASF1078:
 11428 601f 62644164 		.ascii	"bdAddrLoc\000"
 11428      64724C6F 
 11428      6300
 11429              	.LASF747:
 11430 6029 43595F42 		.ascii	"CY_BLE_AUTHENTICATION_REQUEST_REPLY\000"
 11430      4C455F41 
 11430      55544845 
 11430      4E544943 
 11430      4154494F 
 11431              	.LASF134:
 11432 604d 74637077 		.ascii	"tcpwm_1_interrupts_6_IRQn\000"
 11432      6D5F315F 
 11432      696E7465 
 11432      72727570 
 11432      74735F36 
 11433              	.LASF193:
ARM GAS  C:\Users\gjl\AppData\Local\Temp\ccRZOvUj.s 			page 295


 11434 6067 4449455F 		.ascii	"DIE_YEAR\000"
 11434      59454152 
 11434      00
 11435              	.LASF1001:
 11436 6070 43595F42 		.ascii	"CY_BLE_EVT_SCPSS_SCAN_INT_WIN_WRITE_CHAR\000"
 11436      4C455F45 
 11436      56545F53 
 11436      43505353 
 11436      5F534341 
 11437              	.LASF3:
 11438 6099 7369676E 		.ascii	"signed char\000"
 11438      65642063 
 11438      68617200 
 11439              	.LASF452:
 11440 60a5 43595F42 		.ascii	"CY_BLE_LL_MAX_CH_TYPE\000"
 11440      4C455F4C 
 11440      4C5F4D41 
 11440      585F4348 
 11440      5F545950 
 11441              	.LASF533:
 11442 60bb 43595F42 		.ascii	"CY_BLE_GATT_ERR_MISSING_CRC\000"
 11442      4C455F47 
 11442      4154545F 
 11442      4552525F 
 11442      4D495353 
 11443              	.LASF412:
 11444 60d7 43595F42 		.ascii	"CY_BLE_ERROR_INVALID_OPERATION\000"
 11444      4C455F45 
 11444      52524F52 
 11444      5F494E56 
 11444      414C4944 
 11445              	.LASF1108:
 11446 60f6 63795F62 		.ascii	"cy_ble_cmdStatus\000"
 11446      6C655F63 
 11446      6D645374 
 11446      61747573 
 11446      00
 11447              	.LASF789:
 11448 6107 43595F42 		.ascii	"CY_BLE_EVT_ANSS_NOTIFICATION_ENABLED\000"
 11448      4C455F45 
 11448      56545F41 
 11448      4E53535F 
 11448      4E4F5449 
 11449              	.LASF242:
 11450 612c 544F4331 		.ascii	"TOC1_MAGIC_NUMBER\000"
 11450      5F4D4147 
 11450      49435F4E 
 11450      554D4245 
 11450      5200
 11451              	.LASF506:
 11452 613e 43595F42 		.ascii	"CY_BLE_GATT_SIGNED_WRITE_CMD\000"
 11452      4C455F47 
 11452      4154545F 
 11452      5349474E 
 11452      45445F57 
 11453              	.LASF44:
 11454 615b 696F7373 		.ascii	"ioss_interrupts_gpio_14_IRQn\000"
ARM GAS  C:\Users\gjl\AppData\Local\Temp\ccRZOvUj.s 			page 296


 11454      5F696E74 
 11454      65727275 
 11454      7074735F 
 11454      6770696F 
 11455              	.LASF259:
 11456 6178 52544F43 		.ascii	"RTOC1_CRC_ADDR\000"
 11456      315F4352 
 11456      435F4144 
 11456      445200
 11457              	.LASF530:
 11458 6187 43595F42 		.ascii	"CY_BLE_GATT_ERR_HTS_OUT_OF_RANGE\000"
 11458      4C455F47 
 11458      4154545F 
 11458      4552525F 
 11458      4854535F 
 11459              	.LASF1021:
 11460 61a8 43595F42 		.ascii	"CY_BLE_EVT_UDSC_WRITE_CHAR_RESPONSE\000"
 11460      4C455F45 
 11460      56545F55 
 11460      4453435F 
 11460      57524954 
 11461              	.LASF1006:
 11462 61cc 43595F42 		.ascii	"CY_BLE_EVT_TPSS_NOTIFICATION_DISABLED\000"
 11462      4C455F45 
 11462      56545F54 
 11462      5053535F 
 11462      4E4F5449 
 11463              	.LASF90:
 11464 61f2 63707573 		.ascii	"cpuss_interrupts_dw0_10_IRQn\000"
 11464      735F696E 
 11464      74657272 
 11464      75707473 
 11464      5F647730 
 11465              	.LASF491:
 11466 620f 43595F42 		.ascii	"CY_BLE_GATT_READ_BLOB_RSP\000"
 11466      4C455F47 
 11466      4154545F 
 11466      52454144 
 11466      5F424C4F 
 11467              	.LASF517:
 11468 6229 43595F42 		.ascii	"CY_BLE_GATT_ERR_INSUFFICIENT_AUTHORIZATION\000"
 11468      4C455F47 
 11468      4154545F 
 11468      4552525F 
 11468      494E5355 
 11469              	.LASF553:
 11470 6254 63795F73 		.ascii	"cy_stc_ble_gatt_handle_value_pair_t\000"
 11470      74635F62 
 11470      6C655F67 
 11470      6174745F 
 11470      68616E64 
 11471              	.LASF773:
 11472 6278 43595F42 		.ascii	"CY_BLE_EVT_AIOSS_DESCR_WRITE\000"
 11472      4C455F45 
 11472      56545F41 
 11472      494F5353 
 11472      5F444553 
ARM GAS  C:\Users\gjl\AppData\Local\Temp\ccRZOvUj.s 			page 297


 11473              	.LASF676:
 11474 6295 736C6F77 		.ascii	"slowAdvEnable\000"
 11474      41647645 
 11474      6E61626C 
 11474      6500
 11475              	.LASF995:
 11476 62a3 43595F42 		.ascii	"CY_BLE_EVT_RSCSC_READ_DESCR_RESPONSE\000"
 11476      4C455F45 
 11476      56545F52 
 11476      53435343 
 11476      5F524541 
 11477              	.LASF958:
 11478 62c8 43595F42 		.ascii	"CY_BLE_EVT_LNSC_INDICATION\000"
 11478      4C455F45 
 11478      56545F4C 
 11478      4E53435F 
 11478      494E4449 
 11479              	.LASF122:
 11480 62e3 74637077 		.ascii	"tcpwm_0_interrupts_2_IRQn\000"
 11480      6D5F305F 
 11480      696E7465 
 11480      72727570 
 11480      74735F32 
 11481              	.LASF389:
 11482 62fd 43595F42 		.ascii	"CY_BLE_EVT_GATTC_HANDLE_VALUE_NTF\000"
 11482      4C455F45 
 11482      56545F47 
 11482      41545443 
 11482      5F48414E 
 11483              	.LASF892:
 11484 631f 43595F42 		.ascii	"CY_BLE_EVT_GLSC_INDICATION\000"
 11484      4C455F45 
 11484      56545F47 
 11484      4C53435F 
 11484      494E4449 
 11485              	.LASF171:
 11486 633a 70726F66 		.ascii	"profile_interrupt_IRQn\000"
 11486      696C655F 
 11486      696E7465 
 11486      72727570 
 11486      745F4952 
 11487              	.LASF868:
 11488 6351 43595F42 		.ascii	"CY_BLE_EVT_CTSC_READ_CHAR_RESPONSE\000"
 11488      4C455F45 
 11488      56545F43 
 11488      5453435F 
 11488      52454144 
 11489              	.LASF990:
 11490 6374 43595F42 		.ascii	"CY_BLE_EVT_RSCSS_WRITE_CHAR\000"
 11490      4C455F45 
 11490      56545F52 
 11490      53435353 
 11490      5F575249 
 11491              	.LASF936:
 11492 6390 43595F42 		.ascii	"CY_BLE_EVT_HTSC_READ_DESCR_RESPONSE\000"
 11492      4C455F45 
 11492      56545F48 
ARM GAS  C:\Users\gjl\AppData\Local\Temp\ccRZOvUj.s 			page 298


 11492      5453435F 
 11492      52454144 
 11493              	.LASF336:
 11494 63b4 43595F42 		.ascii	"CY_BLE_EVT_AES_CCM_DECRYPT_COMPLETE\000"
 11494      4C455F45 
 11494      56545F41 
 11494      45535F43 
 11494      434D5F44 
 11495              	.LASF701:
 11496 63d8 63795F73 		.ascii	"cy_stc_ble_gatts_att_pack_val_len_t\000"
 11496      74635F62 
 11496      6C655F67 
 11496      61747473 
 11496      5F617474 
 11497              	.LASF759:
 11498 63fc 43595F42 		.ascii	"CY_BLE_EVT_GATTC_SRVC_DUPLICATION\000"
 11498      4C455F45 
 11498      56545F47 
 11498      41545443 
 11498      5F535256 
 11499              	.LASF157:
 11500 641e 7564625F 		.ascii	"udb_interrupts_5_IRQn\000"
 11500      696E7465 
 11500      72727570 
 11500      74735F35 
 11500      5F495251 
 11501              	.LASF1126:
 11502 6434 47656E65 		.ascii	"Generated_Source\\PSoC6\\pdl\\middleware\\ble\\cy_b"
 11502      72617465 
 11502      645F536F 
 11502      75726365 
 11502      5C50536F 
 11503 6462 6C655F65 		.ascii	"le_event_handler.c\000"
 11503      76656E74 
 11503      5F68616E 
 11503      646C6572 
 11503      2E6300
 11504              	.LASF616:
 11505 6475 7363616E 		.ascii	"scanType\000"
 11505      54797065 
 11505      00
 11506              	.LASF904:
 11507 647e 43595F42 		.ascii	"CY_BLE_EVT_HIDSS_REPORT_WRITE_CHAR\000"
 11507      4C455F45 
 11507      56545F48 
 11507      49445353 
 11507      5F524550 
 11508              	.LASF590:
 11509 64a1 43595F42 		.ascii	"CY_BLE_GAP_PUBLIC_ADDR_TYPE\000"
 11509      4C455F47 
 11509      41505F50 
 11509      55424C49 
 11509      435F4144 
 11510              	.LASF1000:
 11511 64bd 43595F42 		.ascii	"CY_BLE_EVT_SCPSS_NOTIFICATION_DISABLED\000"
 11511      4C455F45 
 11511      56545F53 
ARM GAS  C:\Users\gjl\AppData\Local\Temp\ccRZOvUj.s 			page 299


 11511      43505353 
 11511      5F4E4F54 
 11512              	.LASF103:
 11513 64e4 63707573 		.ascii	"cpuss_interrupts_dw1_7_IRQn\000"
 11513      735F696E 
 11513      74657272 
 11513      75707473 
 11513      5F647731 
 11514              	.LASF327:
 11515 6500 43595F42 		.ascii	"CY_BLE_EVT_GET_DEVICE_ADDR_COMPLETE\000"
 11515      4C455F45 
 11515      56545F47 
 11515      45545F44 
 11515      45564943 
 11516              	.LASF17:
 11517 6524 75696E74 		.ascii	"uint16_t\000"
 11517      31365F74 
 11517      00
 11518              	.LASF1008:
 11519 652d 43595F42 		.ascii	"CY_BLE_EVT_TPSC_READ_CHAR_RESPONSE\000"
 11519      4C455F45 
 11519      56545F54 
 11519      5053435F 
 11519      52454144 
 11520              	.LASF426:
 11521 6550 43595F42 		.ascii	"CY_BLE_ERROR_L2CAP_PSM_NOT_IN_RANGE\000"
 11521      4C455F45 
 11521      52524F52 
 11521      5F4C3243 
 11521      41505F50 
 11522              	.LASF598:
 11523 6574 656B6579 		.ascii	"ekeySize\000"
 11523      53697A65 
 11523      00
 11524              	.LASF1005:
 11525 657d 43595F42 		.ascii	"CY_BLE_EVT_TPSS_NOTIFICATION_ENABLED\000"
 11525      4C455F45 
 11525      56545F54 
 11525      5053535F 
 11525      4E4F5449 
 11526              	.LASF733:
 11527 65a2 67617070 		.ascii	"gappAdvParams\000"
 11527      41647650 
 11527      6172616D 
 11527      7300
 11528              	.LASF531:
 11529 65b0 43595F42 		.ascii	"CY_BLE_GATTS_ERR_PROCEDURE_ALREADY_IN_PROGRESS\000"
 11529      4C455F47 
 11529      41545453 
 11529      5F455252 
 11529      5F50524F 
 11530              	.LASF915:
 11531 65df 43595F42 		.ascii	"CY_BLE_EVT_HPSC_READ_DESCR_RESPONSE\000"
 11531      4C455F45 
 11531      56545F48 
 11531      5053435F 
 11531      52454144 
ARM GAS  C:\Users\gjl\AppData\Local\Temp\ccRZOvUj.s 			page 300


 11532              	.LASF13:
 11533 6603 6C6F6E67 		.ascii	"long long unsigned int\000"
 11533      206C6F6E 
 11533      6720756E 
 11533      7369676E 
 11533      65642069 
 11534              	.LASF858:
 11535 661a 43595F42 		.ascii	"CY_BLE_EVT_CSCSC_NOTIFICATION\000"
 11535      4C455F45 
 11535      56545F43 
 11535      53435343 
 11535      5F4E4F54 
 11536              	.LASF873:
 11537 6638 43595F42 		.ascii	"CY_BLE_EVT_ESSS_NOTIFICATION_ENABLED\000"
 11537      4C455F45 
 11537      56545F45 
 11537      5353535F 
 11537      4E4F5449 
 11538              	.LASF749:
 11539 665d 43595F42 		.ascii	"CY_BLE_LONG_TERM_KEY_REQUEST_REPLY\000"
 11539      4C455F4C 
 11539      4F4E475F 
 11539      5445524D 
 11539      5F4B4559 
 11540              	.LASF337:
 11541 6680 43595F42 		.ascii	"CY_BLE_EVT_SET_SLAVE_LATENCY_MODE_COMPLETE\000"
 11541      4C455F45 
 11541      56545F53 
 11541      45545F53 
 11541      4C415645 
 11542              	.LASF291:
 11543 66ab 696E7472 		.ascii	"intrPriority\000"
 11543      5072696F 
 11543      72697479 
 11543      00
 11544              	.LASF108:
 11545 66b8 63707573 		.ascii	"cpuss_interrupts_dw1_12_IRQn\000"
 11545      735F696E 
 11545      74657272 
 11545      75707473 
 11545      5F647731 
 11546              	.LASF827:
 11547 66d5 43595F42 		.ascii	"CY_BLE_EVT_CGMSS_NOTIFICATION_ENABLED\000"
 11547      4C455F45 
 11547      56545F43 
 11547      474D5353 
 11547      5F4E4F54 
 11548              	.LASF993:
 11549 66fb 43595F42 		.ascii	"CY_BLE_EVT_RSCSC_READ_CHAR_RESPONSE\000"
 11549      4C455F45 
 11549      56545F52 
 11549      53435343 
 11549      5F524541 
 11550              	.LASF61:
 11551 671f 63707573 		.ascii	"cpuss_interrupts_ipc_6_IRQn\000"
 11551      735F696E 
 11551      74657272 
ARM GAS  C:\Users\gjl\AppData\Local\Temp\ccRZOvUj.s 			page 301


 11551      75707473 
 11551      5F697063 
 11552              	.LASF31:
 11553 673b 696F7373 		.ascii	"ioss_interrupts_gpio_1_IRQn\000"
 11553      5F696E74 
 11553      65727275 
 11553      7074735F 
 11553      6770696F 
 11554              	.LASF498:
 11555 6757 43595F42 		.ascii	"CY_BLE_GATT_WRITE_CMD\000"
 11555      4C455F47 
 11555      4154545F 
 11555      57524954 
 11555      455F434D 
 11556              	.LASF713:
 11557 676d 63795F73 		.ascii	"cy_stc_ble_gatts_t\000"
 11557      74635F62 
 11557      6C655F67 
 11557      61747473 
 11557      5F7400
 11558              	.LASF983:
 11559 6780 43595F42 		.ascii	"CY_BLE_EVT_PLXSC_WRITE_DESCR_RESPONSE\000"
 11559      4C455F45 
 11559      56545F50 
 11559      4C585343 
 11559      5F575249 
 11560              	.LASF348:
 11561 67a6 43595F42 		.ascii	"CY_BLE_EVT_GAP_PASSKEY_DISPLAY_REQUEST\000"
 11561      4C455F45 
 11561      56545F47 
 11561      41505F50 
 11561      4153534B 
 11562              	.LASF740:
 11563 67cd 67617474 		.ascii	"gattDB\000"
 11563      444200
 11564              	.LASF792:
 11565 67d4 43595F42 		.ascii	"CY_BLE_EVT_ANSC_NOTIFICATION\000"
 11565      4C455F45 
 11565      56545F41 
 11565      4E53435F 
 11565      4E4F5449 
 11566              	.LASF655:
 11567 67f1 43595F42 		.ascii	"CY_BLE_ADV_STATE_STOP_INITIATED\000"
 11567      4C455F41 
 11567      44565F53 
 11567      54415445 
 11567      5F53544F 
 11568              	.LASF781:
 11569 6811 43595F42 		.ascii	"CY_BLE_EVT_ANCSS_NOTIFICATION_ENABLED\000"
 11569      4C455F45 
 11569      56545F41 
 11569      4E435353 
 11569      5F4E4F54 
 11570              	.LASF1113:
 11571 6837 43795F42 		.ascii	"Cy_BLE_SetTxPowerLevel\000"
 11571      4C455F53 
 11571      65745478 
ARM GAS  C:\Users\gjl\AppData\Local\Temp\ccRZOvUj.s 			page 302


 11571      506F7765 
 11571      724C6576 
 11572              	.LASF766:
 11573 684e 43595F42 		.ascii	"CY_BLE_EVT_GATTC_DISCOVERY_COMPLETE\000"
 11573      4C455F45 
 11573      56545F47 
 11573      41545443 
 11573      5F444953 
 11574              	.LASF955:
 11575 6872 43595F42 		.ascii	"CY_BLE_EVT_LNSS_NOTIFICATION_ENABLED\000"
 11575      4C455F45 
 11575      56545F4C 
 11575      4E53535F 
 11575      4E4F5449 
 11576              	.LASF131:
 11577 6897 74637077 		.ascii	"tcpwm_1_interrupts_3_IRQn\000"
 11577      6D5F315F 
 11577      696E7465 
 11577      72727570 
 11577      74735F33 
 11578              	.LASF46:
 11579 68b1 696F7373 		.ascii	"ioss_interrupt_vdd_IRQn\000"
 11579      5F696E74 
 11579      65727275 
 11579      70745F76 
 11579      64645F49 
 11580              	.LASF708:
 11581 68c9 61747445 		.ascii	"attEndHandle\000"
 11581      6E644861 
 11581      6E646C65 
 11581      00
 11582              	.LASF41:
 11583 68d6 696F7373 		.ascii	"ioss_interrupts_gpio_11_IRQn\000"
 11583      5F696E74 
 11583      65727275 
 11583      7074735F 
 11583      6770696F 
 11584              	.LASF572:
 11585 68f3 43595F42 		.ascii	"CY_BLE_GAP_AUTH_ERROR_NONE\000"
 11585      4C455F47 
 11585      41505F41 
 11585      5554485F 
 11585      4552524F 
 11586              	.LASF688:
 11587 690e 67617063 		.ascii	"gapcConnectionIntervalMin\000"
 11587      436F6E6E 
 11587      65637469 
 11587      6F6E496E 
 11587      74657276 
 11588              	.LASF88:
 11589 6928 63707573 		.ascii	"cpuss_interrupts_dw0_8_IRQn\000"
 11589      735F696E 
 11589      74657272 
 11589      75707473 
 11589      5F647730 
 11590              	.LASF246:
 11591 6944 544F4331 		.ascii	"TOC1_FB_OBJECT_ADDR\000"
ARM GAS  C:\Users\gjl\AppData\Local\Temp\ccRZOvUj.s 			page 303


 11591      5F46425F 
 11591      4F424A45 
 11591      43545F41 
 11591      44445200 
 11592              	.LASF920:
 11593 6958 43595F42 		.ascii	"CY_BLE_EVT_HRSS_NOTIFICATION_DISABLED\000"
 11593      4C455F45 
 11593      56545F48 
 11593      5253535F 
 11593      4E4F5449 
 11594              	.LASF1038:
 11595 697e 43595F42 		.ascii	"CY_BLE_EVT_WSSS_INDICATION_DISABLED\000"
 11595      4C455F45 
 11595      56545F57 
 11595      5353535F 
 11595      494E4449 
 11596              	.LASF702:
 11597 69a2 61747446 		.ascii	"attFormatValue\000"
 11597      6F726D61 
 11597      7456616C 
 11597      756500
 11598              	.LASF1120:
 11599 69b1 43795F42 		.ascii	"Cy_BLE_GAP_SetIoCap\000"
 11599      4C455F47 
 11599      41505F53 
 11599      6574496F 
 11599      43617000 
 11600              	.LASF280:
 11601 69c5 52544F43 		.ascii	"RTOC2_SECOND_USER_APP_FORMAT\000"
 11601      325F5345 
 11601      434F4E44 
 11601      5F555345 
 11601      525F4150 
 11602              	.LASF501:
 11603 69e2 43595F42 		.ascii	"CY_BLE_GATT_EXECUTE_WRITE_REQ\000"
 11603      4C455F47 
 11603      4154545F 
 11603      45584543 
 11603      5554455F 
 11604              	.LASF914:
 11605 6a00 43595F42 		.ascii	"CY_BLE_EVT_HPSC_READ_CHAR_RESPONSE\000"
 11605      4C455F45 
 11605      56545F48 
 11605      5053435F 
 11605      52454144 
 11606              	.LASF529:
 11607 6a23 43595F42 		.ascii	"CY_BLE_GATT_ERR_CPS_INAPPROPRIATE_CONNECTION_PARAME"
 11607      4C455F47 
 11607      4154545F 
 11607      4552525F 
 11607      4350535F 
 11608 6a56 54455253 		.ascii	"TERS\000"
 11608      00
 11609              	.LASF841:
 11610 6a5b 43595F42 		.ascii	"CY_BLE_EVT_CPSS_BROADCAST_ENABLED\000"
 11610      4C455F45 
 11610      56545F43 
ARM GAS  C:\Users\gjl\AppData\Local\Temp\ccRZOvUj.s 			page 304


 11610      5053535F 
 11610      42524F41 
 11611              	.LASF854:
 11612 6a7d 43595F42 		.ascii	"CY_BLE_EVT_CSCSS_INDICATION_ENABLED\000"
 11612      4C455F45 
 11612      56545F43 
 11612      53435353 
 11612      5F494E44 
 11613              	.LASF997:
 11614 6aa1 43595F42 		.ascii	"CY_BLE_EVT_RTUSS_WRITE_CHAR_CMD\000"
 11614      4C455F45 
 11614      56545F52 
 11614      54555353 
 11614      5F575249 
 11615              	.LASF461:
 11616 6ac1 63795F65 		.ascii	"cy_en_ble_protocol_req_t\000"
 11616      6E5F626C 
 11616      655F7072 
 11616      6F746F63 
 11616      6F6C5F72 
 11617              	.LASF940:
 11618 6ada 43595F42 		.ascii	"CY_BLE_EVT_IPSS_WRITE_CHAR\000"
 11618      4C455F45 
 11618      56545F49 
 11618      5053535F 
 11618      57524954 
 11619              	.LASF15:
 11620 6af5 63686172 		.ascii	"char\000"
 11620      00
 11621              	.LASF591:
 11622 6afa 43595F42 		.ascii	"CY_BLE_GAP_RANDOM_RESOLVABLE_ADDR_TYPE\000"
 11622      4C455F47 
 11622      41505F52 
 11622      414E444F 
 11622      4D5F5245 
 11623              	.LASF946:
 11624 6b21 43595F42 		.ascii	"CY_BLE_EVT_IPSC_WRITE_DESCR_RESPONSE\000"
 11624      4C455F45 
 11624      56545F49 
 11624      5053435F 
 11624      57524954 
 11625              	.LASF154:
 11626 6b46 7564625F 		.ascii	"udb_interrupts_2_IRQn\000"
 11626      696E7465 
 11626      72727570 
 11626      74735F32 
 11626      5F495251 
 11627              	.LASF820:
 11628 6b5c 43595F42 		.ascii	"CY_BLE_EVT_BMSS_WRITE_CHAR\000"
 11628      4C455F45 
 11628      56545F42 
 11628      4D53535F 
 11628      57524954 
 11629              	.LASF100:
 11630 6b77 63707573 		.ascii	"cpuss_interrupts_dw1_4_IRQn\000"
 11630      735F696E 
 11630      74657272 
ARM GAS  C:\Users\gjl\AppData\Local\Temp\ccRZOvUj.s 			page 305


 11630      75707473 
 11630      5F647731 
 11631              	.LASF1050:
 11632 6b93 43595F42 		.ascii	"CY_BLE_EVT_GATTC_DISC_SERVICE\000"
 11632      4C455F45 
 11632      56545F47 
 11632      41545443 
 11632      5F444953 
 11633              	.LASF333:
 11634 6bb1 43595F42 		.ascii	"CY_BLE_EVT_RANDOM_NUM_GEN_COMPLETE\000"
 11634      4C455F45 
 11634      56545F52 
 11634      414E444F 
 11634      4D5F4E55 
 11635              	.LASF697:
 11636 6bd4 61747447 		.ascii	"attGenericVal\000"
 11636      656E6572 
 11636      69635661 
 11636      6C00
 11637              	.LASF930:
 11638 6be2 43595F42 		.ascii	"CY_BLE_EVT_HTSS_INDICATION_CONFIRMED\000"
 11638      4C455F45 
 11638      56545F48 
 11638      5453535F 
 11638      494E4449 
 11639              	.LASF359:
 11640 6c07 43595F42 		.ascii	"CY_BLE_EVT_GAP_KEYPRESS_NOTIFICATION\000"
 11640      4C455F45 
 11640      56545F47 
 11640      41505F4B 
 11640      45595052 
 11641              	.LASF145:
 11642 6c2c 74637077 		.ascii	"tcpwm_1_interrupts_17_IRQn\000"
 11642      6D5F315F 
 11642      696E7465 
 11642      72727570 
 11642      74735F31 
 11643              	.LASF774:
 11644 6c47 43595F42 		.ascii	"CY_BLE_EVT_AIOSC_NOTIFICATION\000"
 11644      4C455F45 
 11644      56545F41 
 11644      494F5343 
 11644      5F4E4F54 
 11645              	.LASF272:
 11646 6c65 544F4332 		.ascii	"TOC2_CRC_ADDR\000"
 11646      5F435243 
 11646      5F414444 
 11646      5200
 11647              	.LASF721:
 11648 6c73 61747456 		.ascii	"attValuesCCCDFlashMemory\000"
 11648      616C7565 
 11648      73434343 
 11648      44466C61 
 11648      73684D65 
 11649              	.LASF508:
 11650 6c8c 63795F65 		.ascii	"cy_en_ble_gatt_pdu_t\000"
 11650      6E5F626C 
ARM GAS  C:\Users\gjl\AppData\Local\Temp\ccRZOvUj.s 			page 306


 11650      655F6761 
 11650      74745F70 
 11650      64755F74 
 11651              	.LASF308:
 11652 6ca1 43595F42 		.ascii	"CY_BLE_EVT_GET_DATA_LENGTH_COMPLETE\000"
 11652      4C455F45 
 11652      56545F47 
 11652      45545F44 
 11652      4154415F 
 11653              	.LASF846:
 11654 6cc5 43595F42 		.ascii	"CY_BLE_EVT_CPSC_READ_CHAR_RESPONSE\000"
 11654      4C455F45 
 11654      56545F43 
 11654      5053435F 
 11654      52454144 
 11655              	.LASF843:
 11656 6ce8 43595F42 		.ascii	"CY_BLE_EVT_CPSS_WRITE_CHAR\000"
 11656      4C455F45 
 11656      56545F43 
 11656      5053535F 
 11656      57524954 
 11657              	.LASF500:
 11658 6d03 43595F42 		.ascii	"CY_BLE_GATT_PREPARE_WRITE_RSP\000"
 11658      4C455F47 
 11658      4154545F 
 11658      50524550 
 11658      4152455F 
 11659              	.LASF726:
 11660 6d21 7478506F 		.ascii	"txPowerLevelConn\000"
 11660      7765724C 
 11660      6576656C 
 11660      436F6E6E 
 11660      00
 11661              	.LASF275:
 11662 6d32 52544F43 		.ascii	"RTOC2_KEY_BLOCK_ADDR\000"
 11662      325F4B45 
 11662      595F424C 
 11662      4F434B5F 
 11662      41444452 
 11663              	.LASF609:
 11664 6d47 70656572 		.ascii	"peerBdAddrType\000"
 11664      42644164 
 11664      64725479 
 11664      706500
 11665              	.LASF639:
 11666 6d56 61647644 		.ascii	"advDataLen\000"
 11666      6174614C 
 11666      656E00
 11667              	.LASF58:
 11668 6d61 63707573 		.ascii	"cpuss_interrupts_ipc_3_IRQn\000"
 11668      735F696E 
 11668      74657272 
 11668      75707473 
 11668      5F697063 
 11669              	.LASF796:
 11670 6d7d 43595F42 		.ascii	"CY_BLE_EVT_ANSC_WRITE_DESCR_RESPONSE\000"
 11670      4C455F45 
ARM GAS  C:\Users\gjl\AppData\Local\Temp\ccRZOvUj.s 			page 307


 11670      56545F41 
 11670      4E53435F 
 11670      57524954 
 11671              	.LASF731:
 11672 6da2 63795F73 		.ascii	"cy_stc_ble_params_t\000"
 11672      74635F62 
 11672      6C655F70 
 11672      6172616D 
 11672      735F7400 
 11673              	.LASF346:
 11674 6db6 43595F42 		.ascii	"CY_BLE_EVT_GAP_AUTH_REQ\000"
 11674      4C455F45 
 11674      56545F47 
 11674      41505F41 
 11674      5554485F 
 11675              	.LASF699:
 11676 6dce 6D617841 		.ascii	"maxAttrLength\000"
 11676      7474724C 
 11676      656E6774 
 11676      6800
 11677              	.LASF261:
 11678 6ddc 544F4332 		.ascii	"TOC2_MAGIC_NUMBER\000"
 11678      5F4D4147 
 11678      49435F4E 
 11678      554D4245 
 11678      5200
 11679              	.LASF981:
 11680 6dee 43595F42 		.ascii	"CY_BLE_EVT_PLXSC_WRITE_CHAR_RESPONSE\000"
 11680      4C455F45 
 11680      56545F50 
 11680      4C585343 
 11680      5F575249 
 11681              	.LASF282:
 11682 6e13 52544F43 		.ascii	"RTOC2_SIGNATURE_VERIF_KEY\000"
 11682      325F5349 
 11682      474E4154 
 11682      5552455F 
 11682      56455249 
 11683              	.LASF1039:
 11684 6e2d 43595F42 		.ascii	"CY_BLE_EVT_WSSS_INDICATION_CONFIRMED\000"
 11684      4C455F45 
 11684      56545F57 
 11684      5353535F 
 11684      494E4449 
 11685              	.LASF1043:
 11686 6e52 43595F42 		.ascii	"CY_BLE_EVT_WSSC_WRITE_DESCR_RESPONSE\000"
 11686      4C455F45 
 11686      56545F57 
 11686      5353435F 
 11686      57524954 
 11687              	.LASF386:
 11688 6e77 43595F42 		.ascii	"CY_BLE_EVT_GATTS_PREP_WRITE_REQ\000"
 11688      4C455F45 
 11688      56545F47 
 11688      41545453 
 11688      5F505245 
 11689              	.LASF765:
ARM GAS  C:\Users\gjl\AppData\Local\Temp\ccRZOvUj.s 			page 308


 11690 6e97 43595F42 		.ascii	"CY_BLE_EVT_GATTC_DISC_SKIPPED_SERVICE\000"
 11690      4C455F45 
 11690      56545F47 
 11690      41545443 
 11690      5F444953 
 11691              	.LASF128:
 11692 6ebd 74637077 		.ascii	"tcpwm_1_interrupts_0_IRQn\000"
 11692      6D5F315F 
 11692      696E7465 
 11692      72727570 
 11692      74735F30 
 11693              	.LASF20:
 11694 6ed7 52657365 		.ascii	"Reset_IRQn\000"
 11694      745F4952 
 11694      516E00
 11695              	.LASF992:
 11696 6ee2 43595F42 		.ascii	"CY_BLE_EVT_RSCSC_INDICATION\000"
 11696      4C455F45 
 11696      56545F52 
 11696      53435343 
 11696      5F494E44 
 11697              	.LASF709:
 11698 6efe 61747456 		.ascii	"attValue\000"
 11698      616C7565 
 11698      00
 11699              	.LASF617:
 11700 6f07 7363616E 		.ascii	"scanIntv\000"
 11700      496E7476 
 11700      00
 11701              	.LASF538:
 11702 6f10 43595F42 		.ascii	"CY_BLE_GATTS_ERR_NETWORK_NOT_AVAILABLE\000"
 11702      4C455F47 
 11702      41545453 
 11702      5F455252 
 11702      5F4E4554 
 11703              	.LASF947:
 11704 6f37 43595F42 		.ascii	"CY_BLE_EVT_IPSC_ERROR_RESPONSE\000"
 11704      4C455F45 
 11704      56545F49 
 11704      5053435F 
 11704      4552524F 
 11705              	.LASF1087:
 11706 6f56 74636F6E 		.ascii	"tconnHandle\000"
 11706      6E48616E 
 11706      646C6500 
 11707              	.LASF85:
 11708 6f62 63707573 		.ascii	"cpuss_interrupts_dw0_5_IRQn\000"
 11708      735F696E 
 11708      74657272 
 11708      75707473 
 11708      5F647730 
 11709              	.LASF890:
 11710 6f7e 43595F42 		.ascii	"CY_BLE_EVT_GLSS_NOTIFICATION_DISABLED\000"
 11710      4C455F45 
 11710      56545F47 
 11710      4C53535F 
 11710      4E4F5449 
ARM GAS  C:\Users\gjl\AppData\Local\Temp\ccRZOvUj.s 			page 309


 11711              	.LASF783:
 11712 6fa4 43595F42 		.ascii	"CY_BLE_EVT_ANCSS_WRITE_CHAR\000"
 11712      4C455F45 
 11712      56545F41 
 11712      4E435353 
 11712      5F575249 
 11713              	.LASF768:
 11714 6fc0 43595F42 		.ascii	"CY_BLE_EVT_AIOSS_NOTIFICATION_DISABLED\000"
 11714      4C455F45 
 11714      56545F41 
 11714      494F5353 
 11714      5F4E4F54 
 11715              	.LASF263:
 11716 6fe7 544F4332 		.ascii	"TOC2_SMIF_CFG_STRUCT_ADDR\000"
 11716      5F534D49 
 11716      465F4346 
 11716      475F5354 
 11716      52554354 
 11717              	.LASF353:
 11718 7001 43595F42 		.ascii	"CY_BLE_EVT_GAP_DEVICE_DISCONNECTED\000"
 11718      4C455F45 
 11718      56545F47 
 11718      41505F44 
 11718      45564943 
 11719              	.LASF521:
 11720 7024 43595F42 		.ascii	"CY_BLE_GATT_ERR_INSUFFICIENT_ENC_KEY_SIZE\000"
 11720      4C455F47 
 11720      4154545F 
 11720      4552525F 
 11720      494E5355 
 11721              	.LASF543:
 11722 704e 43595F42 		.ascii	"CY_BLE_GATT_ERR_ANCS_ACTION_FAILED\000"
 11722      4C455F47 
 11722      4154545F 
 11722      4552525F 
 11722      414E4353 
 11723              	.LASF581:
 11724 7071 43595F42 		.ascii	"CY_BLE_GAP_AUTH_ERROR_REPEATED_ATTEMPTS\000"
 11724      4C455F47 
 11724      41505F41 
 11724      5554485F 
 11724      4552524F 
 11725              	.LASF528:
 11726 7099 43595F42 		.ascii	"CY_BLE_GATT_ERR_USER_DATA_ACCESS_NOT_PERMITTED\000"
 11726      4C455F47 
 11726      4154545F 
 11726      4552525F 
 11726      55534552 
 11727              	.LASF264:
 11728 70c8 544F4332 		.ascii	"TOC2_FIRST_USER_APP_ADDR\000"
 11728      5F464952 
 11728      53545F55 
 11728      5345525F 
 11728      4150505F 
 11729              	.LASF874:
 11730 70e1 43595F42 		.ascii	"CY_BLE_EVT_ESSS_NOTIFICATION_DISABLED\000"
 11730      4C455F45 
ARM GAS  C:\Users\gjl\AppData\Local\Temp\ccRZOvUj.s 			page 310


 11730      56545F45 
 11730      5353535F 
 11730      4E4F5449 
 11731              	.LASF149:
 11732 7107 74637077 		.ascii	"tcpwm_1_interrupts_21_IRQn\000"
 11732      6D5F315F 
 11732      696E7465 
 11732      72727570 
 11732      74735F32 
 11733              	.LASF225:
 11734 7122 43505553 		.ascii	"CPUSS_TRIM_RAM_CTL_ULP\000"
 11734      535F5452 
 11734      494D5F52 
 11734      414D5F43 
 11734      544C5F55 
 11735              	.LASF718:
 11736 7139 63795F62 		.ascii	"cy_ble_callback_t\000"
 11736      6C655F63 
 11736      616C6C62 
 11736      61636B5F 
 11736      7400
 11737              	.LASF1102:
 11738 714b 63795F62 		.ascii	"cy_ble_attValuesCccdMultiple\000"
 11738      6C655F61 
 11738      74745661 
 11738      6C756573 
 11738      43636364 
 11739              	.LASF303:
 11740 7168 43595F42 		.ascii	"CY_BLE_EVT_GET_CHANNEL_MAP_COMPLETE\000"
 11740      4C455F45 
 11740      56545F47 
 11740      45545F43 
 11740      48414E4E 
 11741              	.LASF166:
 11742 718c 7564625F 		.ascii	"udb_interrupts_14_IRQn\000"
 11742      696E7465 
 11742      72727570 
 11742      74735F31 
 11742      345F4952 
 11743              	.LASF295:
 11744 71a3 43595F42 		.ascii	"CY_BLE_EVT_TIMEOUT\000"
 11744      4C455F45 
 11744      56545F54 
 11744      494D454F 
 11744      555400
 11745              	.LASF648:
 11746 71b6 43595F42 		.ascii	"CY_BLE_STATE_STOPPED\000"
 11746      4C455F53 
 11746      54415445 
 11746      5F53544F 
 11746      50504544 
 11747              	.LASF1109:
 11748 71cb 63795F62 		.ascii	"cy_ble_advertisingIntervalType\000"
 11748      6C655F61 
 11748      64766572 
 11748      74697369 
 11748      6E67496E 
ARM GAS  C:\Users\gjl\AppData\Local\Temp\ccRZOvUj.s 			page 311


 11749              	.LASF1081:
 11750 71ea 6D656D52 		.ascii	"memReq\000"
 11750      657100
 11751              	.LASF780:
 11752 71f1 43595F42 		.ascii	"CY_BLE_EVT_AIOSC_ERROR_RESPONSE\000"
 11752      4C455F45 
 11752      56545F41 
 11752      494F5343 
 11752      5F455252 
 11753              	.LASF586:
 11754 7211 43595F42 		.ascii	"CY_BLE_GAP_AUTH_ERROR_CROSS_TRANSPORT_KEY_GEN_DER_N"
 11754      4C455F47 
 11754      41505F41 
 11754      5554485F 
 11754      4552524F 
 11755 7244 4F545F41 		.ascii	"OT_ALLOWED\000"
 11755      4C4C4F57 
 11755      454400
 11756              	.LASF657:
 11757 724f 43595F42 		.ascii	"CY_BLE_CONN_STATE_DISCONNECTED\000"
 11757      4C455F43 
 11757      4F4E4E5F 
 11757      53544154 
 11757      455F4449 
 11758              	.LASF665:
 11759 726e 63795F65 		.ascii	"cy_en_ble_conn_state_t\000"
 11759      6E5F626C 
 11759      655F636F 
 11759      6E6E5F73 
 11759      74617465 
 11760              	.LASF712:
 11761 7285 63636364 		.ascii	"cccdHandle\000"
 11761      48616E64 
 11761      6C6500
 11762              	.LASF1041:
 11763 7290 43595F42 		.ascii	"CY_BLE_EVT_WSSC_READ_CHAR_RESPONSE\000"
 11763      4C455F45 
 11763      56545F57 
 11763      5353435F 
 11763      52454144 
 11764              	.LASF1010:
 11765 72b3 43595F42 		.ascii	"CY_BLE_EVT_TPSC_WRITE_DESCR_RESPONSE\000"
 11765      4C455F45 
 11765      56545F54 
 11765      5053435F 
 11765      57524954 
 11766              	.LASF1083:
 11767 72d8 636F6E6E 		.ascii	"connectedHandle\000"
 11767      65637465 
 11767      6448616E 
 11767      646C6500 
 11768              	.LASF456:
 11769 72e8 43595F42 		.ascii	"CY_BLE_GATT_RSP_TO\000"
 11769      4C455F47 
 11769      4154545F 
 11769      5253505F 
 11769      544F00
ARM GAS  C:\Users\gjl\AppData\Local\Temp\ccRZOvUj.s 			page 312


 11770              	.LASF532:
 11771 72fb 43595F42 		.ascii	"CY_BLE_GATT_ERR_OP_CODE_NOT_SUPPORTED\000"
 11771      4C455F47 
 11771      4154545F 
 11771      4552525F 
 11771      4F505F43 
 11772              	.LASF1125:
 11773 7321 474E5520 		.ascii	"GNU C11 5.4.1 20160609 (release) [ARM/embedded-5-br"
 11773      43313120 
 11773      352E342E 
 11773      31203230 
 11773      31363036 
 11774 7354 616E6368 		.ascii	"anch revision 237715] -mcpu=cortex-m4 -mfloat-abi=s"
 11774      20726576 
 11774      6973696F 
 11774      6E203233 
 11774      37373135 
 11775 7387 6F667466 		.ascii	"oftfp -mfpu=fpv4-sp-d16 -mthumb -g -Og -ffunction-s"
 11775      70202D6D 
 11775      6670753D 
 11775      66707634 
 11775      2D73702D 
 11776 73ba 65637469 		.ascii	"ections -ffat-lto-objects\000"
 11776      6F6E7320 
 11776      2D666661 
 11776      742D6C74 
 11776      6F2D6F62 
 11777              	.LASF885:
 11778 73d4 43595F42 		.ascii	"CY_BLE_EVT_ESSC_WRITE_DESCR_RESPONSE\000"
 11778      4C455F45 
 11778      56545F45 
 11778      5353435F 
 11778      57524954 
 11779              	.LASF97:
 11780 73f9 63707573 		.ascii	"cpuss_interrupts_dw1_1_IRQn\000"
 11780      735F696E 
 11780      74657272 
 11780      75707473 
 11780      5F647731 
 11781              	.LASF527:
 11782 7415 43595F42 		.ascii	"CY_BLE_GATT_ERR_HEART_RATE_CONTROL_POINT_NOT_SUPPOR"
 11782      4C455F47 
 11782      4154545F 
 11782      4552525F 
 11782      48454152 
 11783 7448 54454400 		.ascii	"TED\000"
 11784              	.LASF26:
 11785 744c 53564361 		.ascii	"SVCall_IRQn\000"
 11785      6C6C5F49 
 11785      52516E00 
 11786              	.LASF728:
 11787 7458 73656375 		.ascii	"securityPairingMethod\000"
 11787      72697479 
 11787      50616972 
 11787      696E674D 
 11787      6574686F 
 11788              	.LASF557:
ARM GAS  C:\Users\gjl\AppData\Local\Temp\ccRZOvUj.s 			page 313


 11789 746e 6F70436F 		.ascii	"opCode\000"
 11789      646500
 11790              	.LASF142:
 11791 7475 74637077 		.ascii	"tcpwm_1_interrupts_14_IRQn\000"
 11791      6D5F315F 
 11791      696E7465 
 11791      72727570 
 11791      74735F31 
 11792              	.LASF835:
 11793 7490 43595F42 		.ascii	"CY_BLE_EVT_CGMSC_WRITE_DESCR_RESPONSE\000"
 11793      4C455F45 
 11793      56545F43 
 11793      474D5343 
 11793      5F575249 
 11794              	.LASF805:
 11795 74b6 43595F42 		.ascii	"CY_BLE_EVT_BCSS_INDICATION_CONFIRMED\000"
 11795      4C455F45 
 11795      56545F42 
 11795      4353535F 
 11795      494E4449 
 11796              	.LASF1002:
 11797 74db 43595F42 		.ascii	"CY_BLE_EVT_SCPSC_NOTIFICATION\000"
 11797      4C455F45 
 11797      56545F53 
 11797      43505343 
 11797      5F4E4F54 
 11798              	.LASF668:
 11799 74f9 61707065 		.ascii	"appearanceCharHandle\000"
 11799      6172616E 
 11799      63654368 
 11799      61724861 
 11799      6E646C65 
 11800              	.LASF1066:
 11801 750e 61706952 		.ascii	"apiResult\000"
 11801      6573756C 
 11801      7400
 11802              	.LASF928:
 11803 7518 43595F42 		.ascii	"CY_BLE_EVT_HTSS_INDICATION_ENABLED\000"
 11803      4C455F45 
 11803      56545F48 
 11803      5453535F 
 11803      494E4449 
 11804              	.LASF1106:
 11805 753b 63795F62 		.ascii	"cy_ble_eventHandler\000"
 11805      6C655F65 
 11805      76656E74 
 11805      48616E64 
 11805      6C657200 
 11806              	.LASF963:
 11807 754f 43595F42 		.ascii	"CY_BLE_EVT_LNSC_WRITE_DESCR_RESPONSE\000"
 11807      4C455F45 
 11807      56545F4C 
 11807      4E53435F 
 11807      57524954 
 11808              	.LASF28:
 11809 7574 50656E64 		.ascii	"PendSV_IRQn\000"
 11809      53565F49 
ARM GAS  C:\Users\gjl\AppData\Local\Temp\ccRZOvUj.s 			page 314


 11809      52516E00 
 11810              	.LASF383:
 11811 7580 43595F42 		.ascii	"CY_BLE_EVT_GATTS_WRITE_REQ\000"
 11811      4C455F45 
 11811      56545F47 
 11811      41545453 
 11811      5F575249 
 11812              	.LASF299:
 11813 759b 43595F42 		.ascii	"CY_BLE_EVT_FLASH_CORRUPT\000"
 11813      4C455F45 
 11813      56545F46 
 11813      4C415348 
 11813      5F434F52 
 11814              	.LASF787:
 11815 75b4 43595F42 		.ascii	"CY_BLE_EVT_ANCSC_WRITE_DESCR_RESPONSE\000"
 11815      4C455F45 
 11815      56545F41 
 11815      4E435343 
 11815      5F575249 
 11816              	.LASF55:
 11817 75da 63707573 		.ascii	"cpuss_interrupts_ipc_0_IRQn\000"
 11817      735F696E 
 11817      74657272 
 11817      75707473 
 11817      5F697063 
 11818              	.LASF786:
 11819 75f6 43595F42 		.ascii	"CY_BLE_EVT_ANCSC_READ_DESCR_RESPONSE\000"
 11819      4C455F45 
 11819      56545F41 
 11819      4E435343 
 11819      5F524541 
 11820              	.LASF803:
 11821 761b 43595F42 		.ascii	"CY_BLE_EVT_BCSS_INDICATION_ENABLED\000"
 11821      4C455F45 
 11821      56545F42 
 11821      4353535F 
 11821      494E4449 
 11822              	.LASF1046:
 11823 763e 43595F42 		.ascii	"CY_BLE_EVT_BTSS_WRITE_REQ\000"
 11823      4C455F45 
 11823      56545F42 
 11823      5453535F 
 11823      57524954 
 11824              	.LASF859:
 11825 7658 43595F42 		.ascii	"CY_BLE_EVT_CSCSC_INDICATION\000"
 11825      4C455F45 
 11825      56545F43 
 11825      53435343 
 11825      5F494E44 
 11826              	.LASF224:
 11827 7674 43505553 		.ascii	"CPUSS_TRIM_ROM_CTL_ULP\000"
 11827      535F5452 
 11827      494D5F52 
 11827      4F4D5F43 
 11827      544C5F55 
 11828              	.LASF505:
 11829 768b 43595F42 		.ascii	"CY_BLE_GATT_HANDLE_VALUE_CNF\000"
ARM GAS  C:\Users\gjl\AppData\Local\Temp\ccRZOvUj.s 			page 315


 11829      4C455F47 
 11829      4154545F 
 11829      48414E44 
 11829      4C455F56 
 11830              	.LASF53:
 11831 76a8 70617373 		.ascii	"pass_interrupt_ctbs_IRQn\000"
 11831      5F696E74 
 11831      65727275 
 11831      70745F63 
 11831      7462735F 
 11832              	.LASF18:
 11833 76c1 696E7433 		.ascii	"int32_t\000"
 11833      325F7400 
 11834              	.LASF564:
 11835 76c9 70726570 		.ascii	"prepareWriteQueueSize\000"
 11835      61726557 
 11835      72697465 
 11835      51756575 
 11835      6553697A 
 11836              	.LASF772:
 11837 76df 43595F42 		.ascii	"CY_BLE_EVT_AIOSS_WRITE_CHAR\000"
 11837      4C455F45 
 11837      56545F41 
 11837      494F5353 
 11837      5F575249 
 11838              	.LASF458:
 11839 76fb 63795F65 		.ascii	"cy_en_ble_to_reason_code_t\000"
 11839      6E5F626C 
 11839      655F746F 
 11839      5F726561 
 11839      736F6E5F 
 11840              	.LASF674:
 11841 7716 66617374 		.ascii	"fastAdvIntervalMax\000"
 11841      41647649 
 11841      6E746572 
 11841      76616C4D 
 11841      617800
 11842              	.LASF695:
 11843 7729 63795F73 		.ascii	"cy_stc_ble_gatts_char_val_read_req_t\000"
 11843      74635F62 
 11843      6C655F67 
 11843      61747473 
 11843      5F636861 
 11844              	.LASF714:
 11845 774e 666C6F77 		.ascii	"flowState\000"
 11845      53746174 
 11845      6500
 11846              	.LASF23:
 11847 7758 4D656D6F 		.ascii	"MemoryManagement_IRQn\000"
 11847      72794D61 
 11847      6E616765 
 11847      6D656E74 
 11847      5F495251 
 11848              	.LASF332:
 11849 776e 43595F42 		.ascii	"CY_BLE_EVT_SET_CLK_CONFIG_COMPLETE\000"
 11849      4C455F45 
 11849      56545F53 
ARM GAS  C:\Users\gjl\AppData\Local\Temp\ccRZOvUj.s 			page 316


 11849      45545F43 
 11849      4C4B5F43 
 11850              	.LASF985:
 11851 7791 43595F42 		.ascii	"CY_BLE_EVT_RSCSS_NOTIFICATION_ENABLED\000"
 11851      4C455F45 
 11851      56545F52 
 11851      53435353 
 11851      5F4E4F54 
 11852              	.LASF889:
 11853 77b7 43595F42 		.ascii	"CY_BLE_EVT_GLSS_NOTIFICATION_ENABLED\000"
 11853      4C455F45 
 11853      56545F47 
 11853      4C53535F 
 11853      4E4F5449 
 11854              	.LASF502:
 11855 77dc 43595F42 		.ascii	"CY_BLE_GATT_EXECUTE_WRITE_RSP\000"
 11855      4C455F47 
 11855      4154545F 
 11855      45584543 
 11855      5554455F 
 11856              	.LASF221:
 11857 77fa 5057525F 		.ascii	"PWR_TRIM_WAKE_CTL\000"
 11857      5452494D 
 11857      5F57414B 
 11857      455F4354 
 11857      4C00
 11858              	.LASF851:
 11859 780c 43595F42 		.ascii	"CY_BLE_EVT_CPSC_TIMEOUT\000"
 11859      4C455F45 
 11859      56545F43 
 11859      5053435F 
 11859      54494D45 
 11860              	.LASF1009:
 11861 7824 43595F42 		.ascii	"CY_BLE_EVT_TPSC_READ_DESCR_RESPONSE\000"
 11861      4C455F45 
 11861      56545F54 
 11861      5053435F 
 11861      52454144 
 11862              	.LASF401:
 11863 7848 43595F42 		.ascii	"CY_BLE_EVT_L2CAP_CBFC_DISCONN_IND\000"
 11863      4C455F45 
 11863      56545F4C 
 11863      32434150 
 11863      5F434246 
 11864              	.LASF236:
 11865 786a 464C4153 		.ascii	"FLASH_BOOT_CODE\000"
 11865      485F424F 
 11865      4F545F43 
 11865      4F444500 
 11866              	.LASF326:
 11867 787a 43595F42 		.ascii	"CY_BLE_EVT_SET_DEVICE_ADDR_COMPLETE\000"
 11867      4C455F45 
 11867      56545F53 
 11867      45545F44 
 11867      45564943 
 11868              	.LASF865:
 11869 789e 43595F42 		.ascii	"CY_BLE_EVT_CTSS_NOTIFICATION_DISABLED\000"
ARM GAS  C:\Users\gjl\AppData\Local\Temp\ccRZOvUj.s 			page 317


 11869      4C455F45 
 11869      56545F43 
 11869      5453535F 
 11869      4E4F5449 
 11870              	.LASF82:
 11871 78c4 63707573 		.ascii	"cpuss_interrupts_dw0_2_IRQn\000"
 11871      735F696E 
 11871      74657272 
 11871      75707473 
 11871      5F647730 
 11872              	.LASF433:
 11873 78e0 43595F42 		.ascii	"CY_BLE_ERROR_NTF_DISABLED\000"
 11873      4C455F45 
 11873      52524F52 
 11873      5F4E5446 
 11873      5F444953 
 11874              	.LASF266:
 11875 78fa 544F4332 		.ascii	"TOC2_SECOND_USER_APP_ADDR\000"
 11875      5F534543 
 11875      4F4E445F 
 11875      55534552 
 11875      5F415050 
 11876              	.LASF0:
 11877 7914 756E7369 		.ascii	"unsigned int\000"
 11877      676E6564 
 11877      20696E74 
 11877      00
 11878              	.LASF476:
 11879 7921 43595F42 		.ascii	"CY_BLE_HANDLE\000"
 11879      4C455F48 
 11879      414E444C 
 11879      4500
 11880              	.LASF614:
 11881 792f 63795F73 		.ascii	"cy_stc_ble_gap_enhance_conn_complete_param_t\000"
 11881      74635F62 
 11881      6C655F67 
 11881      61705F65 
 11881      6E68616E 
 11882              	.LASF71:
 11883 795c 7363625F 		.ascii	"scb_0_interrupt_IRQn\000"
 11883      305F696E 
 11883      74657272 
 11883      7570745F 
 11883      4952516E 
 11884              	.LASF535:
 11885 7971 43595F42 		.ascii	"CY_BLE_GATTS_ERR_OPERATION_FAILED\000"
 11885      4C455F47 
 11885      41545453 
 11885      5F455252 
 11885      5F4F5045 
 11886              		.ident	"GCC: (GNU Tools for ARM Embedded Processors) 5.4.1 20160609 (release) [ARM/embedded-5-bran
