ARM GAS  C:\Users\gjl\AppData\Local\Temp\ccRZOvUj.s 			page 1


   1              		.syntax unified
   2              		.cpu cortex-m4
   3              		.eabi_attribute 27, 1
   4              		.fpu fpv4-sp-d16
   5              		.eabi_attribute 20, 1
   6              		.eabi_attribute 21, 1
   7              		.eabi_attribute 23, 3
   8              		.eabi_attribute 24, 1
   9              		.eabi_attribute 25, 1
  10              		.eabi_attribute 26, 1
  11              		.eabi_attribute 30, 1
  12              		.eabi_attribute 34, 1
  13              		.eabi_attribute 18, 4
  14              		.thumb
  15              		.syntax unified
  16              		.file	"cy_ble_event_handler.c"
  17              		.text
  18              	.Ltext0:
  19              		.cfi_sections	.debug_frame
  20              		.section	.text.Cy_BLE_SendWriteResponse,"ax",%progbits
  21              		.align	2
  22              		.thumb
  23              		.thumb_func
  24              		.type	Cy_BLE_SendWriteResponse, %function
  25              	Cy_BLE_SendWriteResponse:
  26              	.LFB288:
  27              		.file 1 "Generated_Source\\PSoC6\\pdl\\middleware\\ble\\cy_ble_event_handler.c"
   1:Generated_Source\PSoC6\pdl\middleware\ble/cy_ble_event_handler.c **** /***************************************************************************//**
   2:Generated_Source\PSoC6\pdl\middleware\ble/cy_ble_event_handler.c **** * \file cy_ble_event_handler.c
   3:Generated_Source\PSoC6\pdl\middleware\ble/cy_ble_event_handler.c **** * \version 2.0
   4:Generated_Source\PSoC6\pdl\middleware\ble/cy_ble_event_handler.c **** *
   5:Generated_Source\PSoC6\pdl\middleware\ble/cy_ble_event_handler.c **** * \brief
   6:Generated_Source\PSoC6\pdl\middleware\ble/cy_ble_event_handler.c **** *  This file contains the source code for the Event Handler State Machine
   7:Generated_Source\PSoC6\pdl\middleware\ble/cy_ble_event_handler.c **** *  of the BLE Middleware.
   8:Generated_Source\PSoC6\pdl\middleware\ble/cy_ble_event_handler.c **** *
   9:Generated_Source\PSoC6\pdl\middleware\ble/cy_ble_event_handler.c **** ********************************************************************************
  10:Generated_Source\PSoC6\pdl\middleware\ble/cy_ble_event_handler.c **** * \copyright
  11:Generated_Source\PSoC6\pdl\middleware\ble/cy_ble_event_handler.c **** * Copyright 2017-2018, Cypress Semiconductor Corporation.  All rights reserved.
  12:Generated_Source\PSoC6\pdl\middleware\ble/cy_ble_event_handler.c **** * You may use this file only in accordance with the license, terms, conditions,
  13:Generated_Source\PSoC6\pdl\middleware\ble/cy_ble_event_handler.c **** * disclaimers, and limitations in the end user license agreement accompanying
  14:Generated_Source\PSoC6\pdl\middleware\ble/cy_ble_event_handler.c **** * the software package with which this file was provided.
  15:Generated_Source\PSoC6\pdl\middleware\ble/cy_ble_event_handler.c **** *******************************************************************************/
  16:Generated_Source\PSoC6\pdl\middleware\ble/cy_ble_event_handler.c **** 
  17:Generated_Source\PSoC6\pdl\middleware\ble/cy_ble_event_handler.c **** #include "cy_ble_event_handler.h"
  18:Generated_Source\PSoC6\pdl\middleware\ble/cy_ble_event_handler.c **** 
  19:Generated_Source\PSoC6\pdl\middleware\ble/cy_ble_event_handler.c **** /* C binding of definitions if building with C++ compiler */
  20:Generated_Source\PSoC6\pdl\middleware\ble/cy_ble_event_handler.c **** #ifdef __cplusplus
  21:Generated_Source\PSoC6\pdl\middleware\ble/cy_ble_event_handler.c **** extern "C" {
  22:Generated_Source\PSoC6\pdl\middleware\ble/cy_ble_event_handler.c **** #endif /* __cplusplus */
  23:Generated_Source\PSoC6\pdl\middleware\ble/cy_ble_event_handler.c **** 
  24:Generated_Source\PSoC6\pdl\middleware\ble/cy_ble_event_handler.c **** #if (CY_BLE_MODE_PROFILE)
  25:Generated_Source\PSoC6\pdl\middleware\ble/cy_ble_event_handler.c **** 
  26:Generated_Source\PSoC6\pdl\middleware\ble/cy_ble_event_handler.c **** /***************************************
  27:Generated_Source\PSoC6\pdl\middleware\ble/cy_ble_event_handler.c **** * Private Function Prototypes
  28:Generated_Source\PSoC6\pdl\middleware\ble/cy_ble_event_handler.c **** ***************************************/
  29:Generated_Source\PSoC6\pdl\middleware\ble/cy_ble_event_handler.c **** 
  30:Generated_Source\PSoC6\pdl\middleware\ble/cy_ble_event_handler.c **** static void Cy_BLE_TimeOutEventHandler(const cy_stc_ble_timeout_param_t *eventParam);
ARM GAS  C:\Users\gjl\AppData\Local\Temp\ccRZOvUj.s 			page 2


  31:Generated_Source\PSoC6\pdl\middleware\ble/cy_ble_event_handler.c **** static void Cy_BLE_L2Cap_ConnParamUpdateRspEventHandler(const cy_stc_ble_l2cap_conn_update_rsp_para
  32:Generated_Source\PSoC6\pdl\middleware\ble/cy_ble_event_handler.c **** static void Cy_BLE_GAP_ConnUpdateCompleteEventHandler(const cy_stc_ble_gap_conn_param_updated_in_co
  33:Generated_Source\PSoC6\pdl\middleware\ble/cy_ble_event_handler.c **** 
  34:Generated_Source\PSoC6\pdl\middleware\ble/cy_ble_event_handler.c **** 
  35:Generated_Source\PSoC6\pdl\middleware\ble/cy_ble_event_handler.c **** #if (CY_BLE_GATT_ROLE_SERVER)
  36:Generated_Source\PSoC6\pdl\middleware\ble/cy_ble_event_handler.c **** static void Cy_BLE_SendWriteResponse(const cy_stc_ble_gatts_write_cmd_req_param_t *eventParam,
  37:Generated_Source\PSoC6\pdl\middleware\ble/cy_ble_event_handler.c ****                                      cy_en_ble_gatt_err_code_t gattErr);
  38:Generated_Source\PSoC6\pdl\middleware\ble/cy_ble_event_handler.c **** #endif /* CY_BLE_GATT_ROLE_SERVER */
  39:Generated_Source\PSoC6\pdl\middleware\ble/cy_ble_event_handler.c **** 
  40:Generated_Source\PSoC6\pdl\middleware\ble/cy_ble_event_handler.c **** #if (CY_BLE_GATT_ROLE_CLIENT)
  41:Generated_Source\PSoC6\pdl\middleware\ble/cy_ble_event_handler.c **** static void Cy_BLE_GAPC_DiscoverCharacteristicsEventHandler(cy_stc_ble_disc_char_info_t *discCharIn
  42:Generated_Source\PSoC6\pdl\middleware\ble/cy_ble_event_handler.c **** #endif /* CY_BLE_GATT_ROLE_CLIENT */
  43:Generated_Source\PSoC6\pdl\middleware\ble/cy_ble_event_handler.c **** 
  44:Generated_Source\PSoC6\pdl\middleware\ble/cy_ble_event_handler.c **** 
  45:Generated_Source\PSoC6\pdl\middleware\ble/cy_ble_event_handler.c **** /***************************************
  46:Generated_Source\PSoC6\pdl\middleware\ble/cy_ble_event_handler.c **** * Global Variables
  47:Generated_Source\PSoC6\pdl\middleware\ble/cy_ble_event_handler.c **** ***************************************/
  48:Generated_Source\PSoC6\pdl\middleware\ble/cy_ble_event_handler.c **** volatile uint8_t cy_ble_busyStatus[CY_BLE_CONN_COUNT];
  49:Generated_Source\PSoC6\pdl\middleware\ble/cy_ble_event_handler.c **** volatile uint8_t cy_ble_eventHandlerFlag;
  50:Generated_Source\PSoC6\pdl\middleware\ble/cy_ble_event_handler.c **** volatile uint32_t cy_ble_cmdStatus;
  51:Generated_Source\PSoC6\pdl\middleware\ble/cy_ble_event_handler.c **** 
  52:Generated_Source\PSoC6\pdl\middleware\ble/cy_ble_event_handler.c **** #if (CY_BLE_GAP_ROLE_PERIPHERAL || CY_BLE_GAP_ROLE_BROADCASTER)
  53:Generated_Source\PSoC6\pdl\middleware\ble/cy_ble_event_handler.c **** uint8_t cy_ble_advertisingIntervalType;
  54:Generated_Source\PSoC6\pdl\middleware\ble/cy_ble_event_handler.c **** #endif /* CY_BLE_GAP_ROLE_PERIPHERAL || CY_BLE_GAP_ROLE_BROADCASTER) */
  55:Generated_Source\PSoC6\pdl\middleware\ble/cy_ble_event_handler.c **** 
  56:Generated_Source\PSoC6\pdl\middleware\ble/cy_ble_event_handler.c **** #if (CY_BLE_GAP_ROLE_CENTRAL || CY_BLE_GAP_ROLE_OBSERVER)
  57:Generated_Source\PSoC6\pdl\middleware\ble/cy_ble_event_handler.c **** uint8_t cy_ble_scanningIntervalType;
  58:Generated_Source\PSoC6\pdl\middleware\ble/cy_ble_event_handler.c **** #endif /* CY_BLE_GAP_ROLE_CENTRAL || CY_BLE_GAP_ROLE_OBSERVER */
  59:Generated_Source\PSoC6\pdl\middleware\ble/cy_ble_event_handler.c **** 
  60:Generated_Source\PSoC6\pdl\middleware\ble/cy_ble_event_handler.c **** #if (CY_BLE_GATT_ROLE_CLIENT)
  61:Generated_Source\PSoC6\pdl\middleware\ble/cy_ble_event_handler.c **** cy_stc_ble_discovery_t cy_ble_discovery[CY_BLE_GATTC_COUNT];
  62:Generated_Source\PSoC6\pdl\middleware\ble/cy_ble_event_handler.c **** cy_stc_ble_disc_srvc_info_t cy_ble_serverInfo[CY_BLE_GATTC_COUNT][CY_BLE_SRVI_COUNT];
  63:Generated_Source\PSoC6\pdl\middleware\ble/cy_ble_event_handler.c **** #endif /* CY_BLE_GATT_ROLE_CLIENT */
  64:Generated_Source\PSoC6\pdl\middleware\ble/cy_ble_event_handler.c **** 
  65:Generated_Source\PSoC6\pdl\middleware\ble/cy_ble_event_handler.c **** #if (CY_BLE_GAP_ROLE_PERIPHERAL || CY_BLE_GAP_ROLE_CENTRAL)
  66:Generated_Source\PSoC6\pdl\middleware\ble/cy_ble_event_handler.c **** cy_stc_ble_event_handler_t cy_ble_eventHandler;
  67:Generated_Source\PSoC6\pdl\middleware\ble/cy_ble_event_handler.c **** 
  68:Generated_Source\PSoC6\pdl\middleware\ble/cy_ble_event_handler.c **** 
  69:Generated_Source\PSoC6\pdl\middleware\ble/cy_ble_event_handler.c **** /******************************************************************************
  70:Generated_Source\PSoC6\pdl\middleware\ble/cy_ble_event_handler.c **** * Function Name: Cy_BLE_RegisterServiceEventHandler
  71:Generated_Source\PSoC6\pdl\middleware\ble/cy_ble_event_handler.c **** ***************************************************************************//**
  72:Generated_Source\PSoC6\pdl\middleware\ble/cy_ble_event_handler.c **** *
  73:Generated_Source\PSoC6\pdl\middleware\ble/cy_ble_event_handler.c **** *  Registration Service Event Handler
  74:Generated_Source\PSoC6\pdl\middleware\ble/cy_ble_event_handler.c **** *
  75:Generated_Source\PSoC6\pdl\middleware\ble/cy_ble_event_handler.c **** *  \param  eventHandlerFunc: The pointer to the callback procedure.
  76:Generated_Source\PSoC6\pdl\middleware\ble/cy_ble_event_handler.c **** *
  77:Generated_Source\PSoC6\pdl\middleware\ble/cy_ble_event_handler.c **** *  \return
  78:Generated_Source\PSoC6\pdl\middleware\ble/cy_ble_event_handler.c **** *  cy_en_ble_api_result_t : Return value indicates if the function succeeded or
  79:Generated_Source\PSoC6\pdl\middleware\ble/cy_ble_event_handler.c **** *  failed. The following are possible error codes.
  80:Generated_Source\PSoC6\pdl\middleware\ble/cy_ble_event_handler.c **** *
  81:Generated_Source\PSoC6\pdl\middleware\ble/cy_ble_event_handler.c **** *   Error Codes                           | Description
  82:Generated_Source\PSoC6\pdl\middleware\ble/cy_ble_event_handler.c **** *   ------------                          | -----------
  83:Generated_Source\PSoC6\pdl\middleware\ble/cy_ble_event_handler.c **** *   CY_BLE_SUCCESS                        | The function completed successfully.
  84:Generated_Source\PSoC6\pdl\middleware\ble/cy_ble_event_handler.c **** *   CY_BLE_ERROR_INVALID_PARAMETER        | On specifying NULL as input parameter.
  85:Generated_Source\PSoC6\pdl\middleware\ble/cy_ble_event_handler.c **** *   CY_BLE_ERROR_MEMORY_ALLOCATION_FAILED | Buffer overflow in the registration callback.
  86:Generated_Source\PSoC6\pdl\middleware\ble/cy_ble_event_handler.c **** *
  87:Generated_Source\PSoC6\pdl\middleware\ble/cy_ble_event_handler.c **** ******************************************************************************/
ARM GAS  C:\Users\gjl\AppData\Local\Temp\ccRZOvUj.s 			page 3


  88:Generated_Source\PSoC6\pdl\middleware\ble/cy_ble_event_handler.c **** cy_en_ble_api_result_t Cy_BLE_RegisterServiceEventHandler(cy_ble_event_handle_t eventHandlerFunc)
  89:Generated_Source\PSoC6\pdl\middleware\ble/cy_ble_event_handler.c **** {
  90:Generated_Source\PSoC6\pdl\middleware\ble/cy_ble_event_handler.c ****     cy_en_ble_api_result_t apiResult = CY_BLE_SUCCESS;
  91:Generated_Source\PSoC6\pdl\middleware\ble/cy_ble_event_handler.c ****     uint8_t existFlag = 0u;
  92:Generated_Source\PSoC6\pdl\middleware\ble/cy_ble_event_handler.c **** 
  93:Generated_Source\PSoC6\pdl\middleware\ble/cy_ble_event_handler.c ****     if(eventHandlerFunc == NULL)
  94:Generated_Source\PSoC6\pdl\middleware\ble/cy_ble_event_handler.c ****     {
  95:Generated_Source\PSoC6\pdl\middleware\ble/cy_ble_event_handler.c ****         apiResult = CY_BLE_ERROR_INVALID_PARAMETER;
  96:Generated_Source\PSoC6\pdl\middleware\ble/cy_ble_event_handler.c ****     }
  97:Generated_Source\PSoC6\pdl\middleware\ble/cy_ble_event_handler.c ****     else
  98:Generated_Source\PSoC6\pdl\middleware\ble/cy_ble_event_handler.c ****     {
  99:Generated_Source\PSoC6\pdl\middleware\ble/cy_ble_event_handler.c ****         /* Check if eventHandlerFunc has been already registered */
 100:Generated_Source\PSoC6\pdl\middleware\ble/cy_ble_event_handler.c ****         uint32_t idx;
 101:Generated_Source\PSoC6\pdl\middleware\ble/cy_ble_event_handler.c ****         for(idx = 0u; (idx < cy_ble_eventHandler.count) && (existFlag == 0u); idx++)
 102:Generated_Source\PSoC6\pdl\middleware\ble/cy_ble_event_handler.c ****         {
 103:Generated_Source\PSoC6\pdl\middleware\ble/cy_ble_event_handler.c ****             if(cy_ble_eventHandler.serviceEventHandler[idx] == eventHandlerFunc)
 104:Generated_Source\PSoC6\pdl\middleware\ble/cy_ble_event_handler.c ****             {
 105:Generated_Source\PSoC6\pdl\middleware\ble/cy_ble_event_handler.c ****                 existFlag = 1u;
 106:Generated_Source\PSoC6\pdl\middleware\ble/cy_ble_event_handler.c ****             }
 107:Generated_Source\PSoC6\pdl\middleware\ble/cy_ble_event_handler.c ****         }
 108:Generated_Source\PSoC6\pdl\middleware\ble/cy_ble_event_handler.c ****     }
 109:Generated_Source\PSoC6\pdl\middleware\ble/cy_ble_event_handler.c ****     /* Register eventHandlerFunc callback */
 110:Generated_Source\PSoC6\pdl\middleware\ble/cy_ble_event_handler.c ****     if((apiResult == CY_BLE_SUCCESS) && (existFlag == 0u))
 111:Generated_Source\PSoC6\pdl\middleware\ble/cy_ble_event_handler.c ****     {
 112:Generated_Source\PSoC6\pdl\middleware\ble/cy_ble_event_handler.c ****         if(cy_ble_eventHandler.count < CY_BLE_MAX_SRVI)
 113:Generated_Source\PSoC6\pdl\middleware\ble/cy_ble_event_handler.c ****         {
 114:Generated_Source\PSoC6\pdl\middleware\ble/cy_ble_event_handler.c ****             cy_ble_eventHandler.serviceEventHandler[cy_ble_eventHandler.count] = eventHandlerFunc;
 115:Generated_Source\PSoC6\pdl\middleware\ble/cy_ble_event_handler.c ****             cy_ble_eventHandler.count += 1u;
 116:Generated_Source\PSoC6\pdl\middleware\ble/cy_ble_event_handler.c ****         }
 117:Generated_Source\PSoC6\pdl\middleware\ble/cy_ble_event_handler.c ****         else
 118:Generated_Source\PSoC6\pdl\middleware\ble/cy_ble_event_handler.c ****         {
 119:Generated_Source\PSoC6\pdl\middleware\ble/cy_ble_event_handler.c ****             apiResult = CY_BLE_ERROR_MEMORY_ALLOCATION_FAILED;
 120:Generated_Source\PSoC6\pdl\middleware\ble/cy_ble_event_handler.c ****         }
 121:Generated_Source\PSoC6\pdl\middleware\ble/cy_ble_event_handler.c ****     }
 122:Generated_Source\PSoC6\pdl\middleware\ble/cy_ble_event_handler.c **** 
 123:Generated_Source\PSoC6\pdl\middleware\ble/cy_ble_event_handler.c ****     return(apiResult);
 124:Generated_Source\PSoC6\pdl\middleware\ble/cy_ble_event_handler.c **** }
 125:Generated_Source\PSoC6\pdl\middleware\ble/cy_ble_event_handler.c **** 
 126:Generated_Source\PSoC6\pdl\middleware\ble/cy_ble_event_handler.c **** /******************************************************************************
 127:Generated_Source\PSoC6\pdl\middleware\ble/cy_ble_event_handler.c **** * Function Name: Cy_BLE_InvokeServiceEventHandler
 128:Generated_Source\PSoC6\pdl\middleware\ble/cy_ble_event_handler.c **** ***************************************************************************//**
 129:Generated_Source\PSoC6\pdl\middleware\ble/cy_ble_event_handler.c **** *
 130:Generated_Source\PSoC6\pdl\middleware\ble/cy_ble_event_handler.c **** *  Invoke registered service event handlers.
 131:Generated_Source\PSoC6\pdl\middleware\ble/cy_ble_event_handler.c **** *
 132:Generated_Source\PSoC6\pdl\middleware\ble/cy_ble_event_handler.c **** *  \param eventCode:   The event code.
 133:Generated_Source\PSoC6\pdl\middleware\ble/cy_ble_event_handler.c **** *  \param eventParam:  The event parameters.
 134:Generated_Source\PSoC6\pdl\middleware\ble/cy_ble_event_handler.c **** *
 135:Generated_Source\PSoC6\pdl\middleware\ble/cy_ble_event_handler.c **** * \return
 136:Generated_Source\PSoC6\pdl\middleware\ble/cy_ble_event_handler.c **** *  A return value of type cy_en_ble_gatt_err_code_t.
 137:Generated_Source\PSoC6\pdl\middleware\ble/cy_ble_event_handler.c **** *
 138:Generated_Source\PSoC6\pdl\middleware\ble/cy_ble_event_handler.c **** ******************************************************************************/
 139:Generated_Source\PSoC6\pdl\middleware\ble/cy_ble_event_handler.c **** cy_en_ble_gatt_err_code_t Cy_BLE_InvokeServiceEventHandler(uint32_t eventCode,
 140:Generated_Source\PSoC6\pdl\middleware\ble/cy_ble_event_handler.c ****                                                            void *eventParam)
 141:Generated_Source\PSoC6\pdl\middleware\ble/cy_ble_event_handler.c **** {
 142:Generated_Source\PSoC6\pdl\middleware\ble/cy_ble_event_handler.c ****     uint32_t idx;
 143:Generated_Source\PSoC6\pdl\middleware\ble/cy_ble_event_handler.c ****     cy_en_ble_gatt_err_code_t gattErr = CY_BLE_GATT_ERR_NONE;
 144:Generated_Source\PSoC6\pdl\middleware\ble/cy_ble_event_handler.c **** 
ARM GAS  C:\Users\gjl\AppData\Local\Temp\ccRZOvUj.s 			page 4


 145:Generated_Source\PSoC6\pdl\middleware\ble/cy_ble_event_handler.c ****     for(idx = 0u; (idx < cy_ble_eventHandler.count) && ((cy_ble_eventHandlerFlag & CY_BLE_CALLBACK)
 146:Generated_Source\PSoC6\pdl\middleware\ble/cy_ble_event_handler.c ****     {
 147:Generated_Source\PSoC6\pdl\middleware\ble/cy_ble_event_handler.c ****         gattErr = cy_ble_eventHandler.serviceEventHandler[idx](eventCode, eventParam);
 148:Generated_Source\PSoC6\pdl\middleware\ble/cy_ble_event_handler.c ****     }
 149:Generated_Source\PSoC6\pdl\middleware\ble/cy_ble_event_handler.c **** 
 150:Generated_Source\PSoC6\pdl\middleware\ble/cy_ble_event_handler.c ****     return(gattErr);
 151:Generated_Source\PSoC6\pdl\middleware\ble/cy_ble_event_handler.c **** }
 152:Generated_Source\PSoC6\pdl\middleware\ble/cy_ble_event_handler.c **** #endif /* CY_BLE_GAP_ROLE_PERIPHERAL || CY_BLE_GAP_ROLE_CENTRAL */
 153:Generated_Source\PSoC6\pdl\middleware\ble/cy_ble_event_handler.c **** 
 154:Generated_Source\PSoC6\pdl\middleware\ble/cy_ble_event_handler.c **** #if (CY_BLE_GATT_ROLE_SERVER)
 155:Generated_Source\PSoC6\pdl\middleware\ble/cy_ble_event_handler.c **** 
 156:Generated_Source\PSoC6\pdl\middleware\ble/cy_ble_event_handler.c **** 
 157:Generated_Source\PSoC6\pdl\middleware\ble/cy_ble_event_handler.c **** /******************************************************************************
 158:Generated_Source\PSoC6\pdl\middleware\ble/cy_ble_event_handler.c **** * Function Name: Cy_BLE_SendWriteResponse
 159:Generated_Source\PSoC6\pdl\middleware\ble/cy_ble_event_handler.c **** ***************************************************************************//**
 160:Generated_Source\PSoC6\pdl\middleware\ble/cy_ble_event_handler.c **** *
 161:Generated_Source\PSoC6\pdl\middleware\ble/cy_ble_event_handler.c **** *  Sends the Write Response to Write Request when event was handled by service.
 162:Generated_Source\PSoC6\pdl\middleware\ble/cy_ble_event_handler.c **** *
 163:Generated_Source\PSoC6\pdl\middleware\ble/cy_ble_event_handler.c **** *  \param eventParam - The event parameter.
 164:Generated_Source\PSoC6\pdl\middleware\ble/cy_ble_event_handler.c **** *  \param gattErr - The error code.
 165:Generated_Source\PSoC6\pdl\middleware\ble/cy_ble_event_handler.c **** *
 166:Generated_Source\PSoC6\pdl\middleware\ble/cy_ble_event_handler.c **** * \return
 167:Generated_Source\PSoC6\pdl\middleware\ble/cy_ble_event_handler.c **** *  None.
 168:Generated_Source\PSoC6\pdl\middleware\ble/cy_ble_event_handler.c **** *
 169:Generated_Source\PSoC6\pdl\middleware\ble/cy_ble_event_handler.c **** ******************************************************************************/
 170:Generated_Source\PSoC6\pdl\middleware\ble/cy_ble_event_handler.c **** static void Cy_BLE_SendWriteResponse(const cy_stc_ble_gatts_write_cmd_req_param_t *eventParam,
 171:Generated_Source\PSoC6\pdl\middleware\ble/cy_ble_event_handler.c ****                                      cy_en_ble_gatt_err_code_t gattErr)
 172:Generated_Source\PSoC6\pdl\middleware\ble/cy_ble_event_handler.c **** {
  28              		.loc 1 172 0
  29              		.cfi_startproc
  30              		@ args = 0, pretend = 0, frame = 8
  31              		@ frame_needed = 0, uses_anonymous_args = 0
  32              	.LVL0:
 173:Generated_Source\PSoC6\pdl\middleware\ble/cy_ble_event_handler.c ****     /* Send response when event was handled by the service */
 174:Generated_Source\PSoC6\pdl\middleware\ble/cy_ble_event_handler.c ****     if((cy_ble_eventHandlerFlag & CY_BLE_CALLBACK) == 0u)
  33              		.loc 1 174 0
  34 0000 0E4B     		ldr	r3, .L6
  35 0002 1B78     		ldrb	r3, [r3]	@ zero_extendqisi2
  36 0004 13F0010F 		tst	r3, #1
  37 0008 17D1     		bne	.L5
 172:Generated_Source\PSoC6\pdl\middleware\ble/cy_ble_event_handler.c ****     /* Send response when event was handled by the service */
  38              		.loc 1 172 0
  39 000a 00B5     		push	{lr}
  40              		.cfi_def_cfa_offset 4
  41              		.cfi_offset 14, -4
  42 000c 83B0     		sub	sp, sp, #12
  43              		.cfi_def_cfa_offset 16
 175:Generated_Source\PSoC6\pdl\middleware\ble/cy_ble_event_handler.c ****     {
 176:Generated_Source\PSoC6\pdl\middleware\ble/cy_ble_event_handler.c ****         if(gattErr != CY_BLE_GATT_ERR_NONE)
  44              		.loc 1 176 0
  45 000e 71B1     		cbz	r1, .L3
  46              	.LBB38:
 177:Generated_Source\PSoC6\pdl\middleware\ble/cy_ble_event_handler.c ****         {
 178:Generated_Source\PSoC6\pdl\middleware\ble/cy_ble_event_handler.c ****             cy_stc_ble_gatt_err_param_t err_param =
  47              		.loc 1 178 0
  48 0010 8389     		ldrh	r3, [r0, #12]
  49 0012 ADF80030 		strh	r3, [sp]	@ movhi
ARM GAS  C:\Users\gjl\AppData\Local\Temp\ccRZOvUj.s 			page 5


 179:Generated_Source\PSoC6\pdl\middleware\ble/cy_ble_event_handler.c ****             {
 180:Generated_Source\PSoC6\pdl\middleware\ble/cy_ble_event_handler.c ****                 .errInfo.opCode     = CY_BLE_GATT_WRITE_REQ,
 181:Generated_Source\PSoC6\pdl\middleware\ble/cy_ble_event_handler.c ****                 .errInfo.attrHandle = eventParam->handleValPair.attrHandle,
  50              		.loc 1 181 0
  51 0016 0389     		ldrh	r3, [r0, #8]
 178:Generated_Source\PSoC6\pdl\middleware\ble/cy_ble_event_handler.c ****             {
  52              		.loc 1 178 0
  53 0018 ADF80230 		strh	r3, [sp, #2]	@ movhi
  54 001c 1223     		movs	r3, #18
  55 001e 8DF80430 		strb	r3, [sp, #4]
  56 0022 8DF80510 		strb	r1, [sp, #5]
 182:Generated_Source\PSoC6\pdl\middleware\ble/cy_ble_event_handler.c ****                 .errInfo.errorCode  = gattErr,
 183:Generated_Source\PSoC6\pdl\middleware\ble/cy_ble_event_handler.c ****                 .connHandle         = eventParam->connHandle
 184:Generated_Source\PSoC6\pdl\middleware\ble/cy_ble_event_handler.c ****             };
 185:Generated_Source\PSoC6\pdl\middleware\ble/cy_ble_event_handler.c ****             /* Send an Error Response */
 186:Generated_Source\PSoC6\pdl\middleware\ble/cy_ble_event_handler.c ****             (void)Cy_BLE_GATTS_ErrorRsp(&err_param);
  57              		.loc 1 186 0
  58 0026 6846     		mov	r0, sp
  59              	.LVL1:
  60 0028 FFF7FEFF 		bl	Cy_BLE_GATTS_ErrorRsp
  61              	.LVL2:
  62              	.LBE38:
  63 002c 02E0     		b	.L1
  64              	.LVL3:
  65              	.L3:
 187:Generated_Source\PSoC6\pdl\middleware\ble/cy_ble_event_handler.c ****         }
 188:Generated_Source\PSoC6\pdl\middleware\ble/cy_ble_event_handler.c ****         else
 189:Generated_Source\PSoC6\pdl\middleware\ble/cy_ble_event_handler.c ****         {
 190:Generated_Source\PSoC6\pdl\middleware\ble/cy_ble_event_handler.c ****             (void)Cy_BLE_GATTS_WriteRsp(eventParam->connHandle);
  66              		.loc 1 190 0
  67 002e C068     		ldr	r0, [r0, #12]
  68              	.LVL4:
  69 0030 FFF7FEFF 		bl	Cy_BLE_GATTS_WriteRsp
  70              	.LVL5:
  71              	.L1:
 191:Generated_Source\PSoC6\pdl\middleware\ble/cy_ble_event_handler.c ****         }
 192:Generated_Source\PSoC6\pdl\middleware\ble/cy_ble_event_handler.c ****     }
 193:Generated_Source\PSoC6\pdl\middleware\ble/cy_ble_event_handler.c **** }
  72              		.loc 1 193 0
  73 0034 03B0     		add	sp, sp, #12
  74              		.cfi_def_cfa_offset 4
  75              		@ sp needed
  76 0036 5DF804FB 		ldr	pc, [sp], #4
  77              	.LVL6:
  78              	.L5:
  79              		.cfi_def_cfa_offset 0
  80              		.cfi_restore 14
  81 003a 7047     		bx	lr
  82              	.L7:
  83              		.align	2
  84              	.L6:
  85 003c 00000000 		.word	cy_ble_eventHandlerFlag
  86              		.cfi_endproc
  87              	.LFE288:
  88              		.size	Cy_BLE_SendWriteResponse, .-Cy_BLE_SendWriteResponse
  89              		.section	.text.Cy_BLE_RegisterServiceEventHandler,"ax",%progbits
  90              		.align	2
ARM GAS  C:\Users\gjl\AppData\Local\Temp\ccRZOvUj.s 			page 6


  91              		.global	Cy_BLE_RegisterServiceEventHandler
  92              		.thumb
  93              		.thumb_func
  94              		.type	Cy_BLE_RegisterServiceEventHandler, %function
  95              	Cy_BLE_RegisterServiceEventHandler:
  96              	.LFB286:
  89:Generated_Source\PSoC6\pdl\middleware\ble/cy_ble_event_handler.c ****     cy_en_ble_api_result_t apiResult = CY_BLE_SUCCESS;
  97              		.loc 1 89 0
  98              		.cfi_startproc
  99              		@ args = 0, pretend = 0, frame = 0
 100              		@ frame_needed = 0, uses_anonymous_args = 0
 101              		@ link register save eliminated.
 102              	.LVL7:
 103 0000 10B4     		push	{r4}
 104              		.cfi_def_cfa_offset 4
 105              		.cfi_offset 4, -4
 106              	.LVL8:
  93:Generated_Source\PSoC6\pdl\middleware\ble/cy_ble_event_handler.c ****     {
 107              		.loc 1 93 0
 108 0002 0446     		mov	r4, r0
 109 0004 88B1     		cbz	r0, .L14
 110 0006 0023     		movs	r3, #0
 111 0008 1946     		mov	r1, r3
 112 000a 06E0     		b	.L10
 113              	.LVL9:
 114              	.L12:
 115              	.LBB39:
 103:Generated_Source\PSoC6\pdl\middleware\ble/cy_ble_event_handler.c ****             {
 116              		.loc 1 103 0
 117 000c 104A     		ldr	r2, .L19
 118 000e 52F82320 		ldr	r2, [r2, r3, lsl #2]
 119 0012 9442     		cmp	r4, r2
 120 0014 00D1     		bne	.L11
 105:Generated_Source\PSoC6\pdl\middleware\ble/cy_ble_event_handler.c ****             }
 121              		.loc 1 105 0
 122 0016 0121     		movs	r1, #1
 123              	.LVL10:
 124              	.L11:
 101:Generated_Source\PSoC6\pdl\middleware\ble/cy_ble_event_handler.c ****         {
 125              		.loc 1 101 0 discriminator 2
 126 0018 0133     		adds	r3, r3, #1
 127              	.LVL11:
 128              	.L10:
 101:Generated_Source\PSoC6\pdl\middleware\ble/cy_ble_event_handler.c ****         {
 129              		.loc 1 101 0 is_stmt 0 discriminator 1
 130 001a 0D4A     		ldr	r2, .L19
 131 001c 1279     		ldrb	r2, [r2, #4]	@ zero_extendqisi2
 132 001e 9342     		cmp	r3, r2
 133 0020 06D2     		bcs	.L16
 101:Generated_Source\PSoC6\pdl\middleware\ble/cy_ble_event_handler.c ****         {
 134              		.loc 1 101 0 discriminator 3
 135 0022 0029     		cmp	r1, #0
 136 0024 F2D0     		beq	.L12
 137              	.LBE39:
  90:Generated_Source\PSoC6\pdl\middleware\ble/cy_ble_event_handler.c ****     uint8_t existFlag = 0u;
 138              		.loc 1 90 0 is_stmt 1
 139 0026 0020     		movs	r0, #0
ARM GAS  C:\Users\gjl\AppData\Local\Temp\ccRZOvUj.s 			page 7


 140              	.LVL12:
 141              	.LBB40:
 142 0028 03E0     		b	.L9
 143              	.LVL13:
 144              	.L14:
 145              	.LBE40:
  91:Generated_Source\PSoC6\pdl\middleware\ble/cy_ble_event_handler.c **** 
 146              		.loc 1 91 0
 147 002a 0021     		movs	r1, #0
  95:Generated_Source\PSoC6\pdl\middleware\ble/cy_ble_event_handler.c ****     }
 148              		.loc 1 95 0
 149 002c 0948     		ldr	r0, .L19+4
 150              	.LVL14:
 151 002e 00E0     		b	.L9
 152              	.LVL15:
 153              	.L16:
  90:Generated_Source\PSoC6\pdl\middleware\ble/cy_ble_event_handler.c ****     uint8_t existFlag = 0u;
 154              		.loc 1 90 0
 155 0030 0020     		movs	r0, #0
 156              	.LVL16:
 157              	.L9:
 110:Generated_Source\PSoC6\pdl\middleware\ble/cy_ble_event_handler.c ****     {
 158              		.loc 1 110 0
 159 0032 50B9     		cbnz	r0, .L13
 110:Generated_Source\PSoC6\pdl\middleware\ble/cy_ble_event_handler.c ****     {
 160              		.loc 1 110 0 is_stmt 0 discriminator 1
 161 0034 49B9     		cbnz	r1, .L13
 112:Generated_Source\PSoC6\pdl\middleware\ble/cy_ble_event_handler.c ****         {
 162              		.loc 1 112 0 is_stmt 1
 163 0036 064B     		ldr	r3, .L19
 164 0038 1B79     		ldrb	r3, [r3, #4]	@ zero_extendqisi2
 165 003a 2BB9     		cbnz	r3, .L17
 114:Generated_Source\PSoC6\pdl\middleware\ble/cy_ble_event_handler.c ****             cy_ble_eventHandler.count += 1u;
 166              		.loc 1 114 0
 167 003c 044A     		ldr	r2, .L19
 168 003e 42F82340 		str	r4, [r2, r3, lsl #2]
 115:Generated_Source\PSoC6\pdl\middleware\ble/cy_ble_event_handler.c ****         }
 169              		.loc 1 115 0
 170 0042 0133     		adds	r3, r3, #1
 171 0044 1371     		strb	r3, [r2, #4]
 172 0046 00E0     		b	.L13
 173              	.L17:
 119:Generated_Source\PSoC6\pdl\middleware\ble/cy_ble_event_handler.c ****         }
 174              		.loc 1 119 0
 175 0048 0348     		ldr	r0, .L19+8
 176              	.LVL17:
 177              	.L13:
 124:Generated_Source\PSoC6\pdl\middleware\ble/cy_ble_event_handler.c **** 
 178              		.loc 1 124 0
 179 004a 5DF8044B 		ldr	r4, [sp], #4
 180              		.cfi_restore 4
 181              		.cfi_def_cfa_offset 0
 182              	.LVL18:
 183 004e 7047     		bx	lr
 184              	.L20:
 185              		.align	2
 186              	.L19:
ARM GAS  C:\Users\gjl\AppData\Local\Temp\ccRZOvUj.s 			page 8


 187 0050 00000000 		.word	cy_ble_eventHandler
 188 0054 01001600 		.word	1441793
 189 0058 03001600 		.word	1441795
 190              		.cfi_endproc
 191              	.LFE286:
 192              		.size	Cy_BLE_RegisterServiceEventHandler, .-Cy_BLE_RegisterServiceEventHandler
 193              		.section	.text.Cy_BLE_InvokeServiceEventHandler,"ax",%progbits
 194              		.align	2
 195              		.global	Cy_BLE_InvokeServiceEventHandler
 196              		.thumb
 197              		.thumb_func
 198              		.type	Cy_BLE_InvokeServiceEventHandler, %function
 199              	Cy_BLE_InvokeServiceEventHandler:
 200              	.LFB287:
 141:Generated_Source\PSoC6\pdl\middleware\ble/cy_ble_event_handler.c ****     uint32_t idx;
 201              		.loc 1 141 0
 202              		.cfi_startproc
 203              		@ args = 0, pretend = 0, frame = 0
 204              		@ frame_needed = 0, uses_anonymous_args = 0
 205              	.LVL19:
 206 0000 70B5     		push	{r4, r5, r6, lr}
 207              		.cfi_def_cfa_offset 16
 208              		.cfi_offset 4, -16
 209              		.cfi_offset 5, -12
 210              		.cfi_offset 6, -8
 211              		.cfi_offset 14, -4
 212 0002 0646     		mov	r6, r0
 213 0004 0D46     		mov	r5, r1
 214              	.LVL20:
 143:Generated_Source\PSoC6\pdl\middleware\ble/cy_ble_event_handler.c **** 
 215              		.loc 1 143 0
 216 0006 0020     		movs	r0, #0
 217              	.LVL21:
 145:Generated_Source\PSoC6\pdl\middleware\ble/cy_ble_event_handler.c ****     {
 218              		.loc 1 145 0
 219 0008 0446     		mov	r4, r0
 220 000a 06E0     		b	.L22
 221              	.LVL22:
 222              	.L24:
 147:Generated_Source\PSoC6\pdl\middleware\ble/cy_ble_event_handler.c ****     }
 223              		.loc 1 147 0 discriminator 4
 224 000c 084B     		ldr	r3, .L26
 225 000e 53F82430 		ldr	r3, [r3, r4, lsl #2]
 226 0012 2946     		mov	r1, r5
 227 0014 3046     		mov	r0, r6
 228              	.LVL23:
 229 0016 9847     		blx	r3
 230              	.LVL24:
 145:Generated_Source\PSoC6\pdl\middleware\ble/cy_ble_event_handler.c ****     {
 231              		.loc 1 145 0 discriminator 4
 232 0018 0134     		adds	r4, r4, #1
 233              	.LVL25:
 234              	.L22:
 145:Generated_Source\PSoC6\pdl\middleware\ble/cy_ble_event_handler.c ****     {
 235              		.loc 1 145 0 is_stmt 0 discriminator 1
 236 001a 054B     		ldr	r3, .L26
 237 001c 1B79     		ldrb	r3, [r3, #4]	@ zero_extendqisi2
ARM GAS  C:\Users\gjl\AppData\Local\Temp\ccRZOvUj.s 			page 9


 238 001e 9C42     		cmp	r4, r3
 239 0020 04D2     		bcs	.L23
 145:Generated_Source\PSoC6\pdl\middleware\ble/cy_ble_event_handler.c ****     {
 240              		.loc 1 145 0 discriminator 3
 241 0022 044B     		ldr	r3, .L26+4
 242 0024 1B78     		ldrb	r3, [r3]	@ zero_extendqisi2
 243 0026 13F0010F 		tst	r3, #1
 244 002a EFD1     		bne	.L24
 245              	.L23:
 151:Generated_Source\PSoC6\pdl\middleware\ble/cy_ble_event_handler.c **** #endif /* CY_BLE_GAP_ROLE_PERIPHERAL || CY_BLE_GAP_ROLE_CENTRAL */
 246              		.loc 1 151 0 is_stmt 1
 247 002c 70BD     		pop	{r4, r5, r6, pc}
 248              	.LVL26:
 249              	.L27:
 250 002e 00BF     		.align	2
 251              	.L26:
 252 0030 00000000 		.word	cy_ble_eventHandler
 253 0034 00000000 		.word	cy_ble_eventHandlerFlag
 254              		.cfi_endproc
 255              	.LFE287:
 256              		.size	Cy_BLE_InvokeServiceEventHandler, .-Cy_BLE_InvokeServiceEventHandler
 257              		.section	.text.Cy_BLE_IsDeviceAddressValid,"ax",%progbits
 258              		.align	2
 259              		.global	Cy_BLE_IsDeviceAddressValid
 260              		.thumb
 261              		.thumb_func
 262              		.type	Cy_BLE_IsDeviceAddressValid, %function
 263              	Cy_BLE_IsDeviceAddressValid:
 264              	.LFB290:
 194:Generated_Source\PSoC6\pdl\middleware\ble/cy_ble_event_handler.c **** 
 195:Generated_Source\PSoC6\pdl\middleware\ble/cy_ble_event_handler.c **** 
 196:Generated_Source\PSoC6\pdl\middleware\ble/cy_ble_event_handler.c **** #endif /* CY_BLE_GATT_ROLE_SERVER */
 197:Generated_Source\PSoC6\pdl\middleware\ble/cy_ble_event_handler.c **** 
 198:Generated_Source\PSoC6\pdl\middleware\ble/cy_ble_event_handler.c **** 
 199:Generated_Source\PSoC6\pdl\middleware\ble/cy_ble_event_handler.c **** 
 200:Generated_Source\PSoC6\pdl\middleware\ble/cy_ble_event_handler.c **** /******************************************************************************
 201:Generated_Source\PSoC6\pdl\middleware\ble/cy_ble_event_handler.c **** * Function Name: Cy_BLE_TimeOutEventHandler
 202:Generated_Source\PSoC6\pdl\middleware\ble/cy_ble_event_handler.c **** ***************************************************************************//**
 203:Generated_Source\PSoC6\pdl\middleware\ble/cy_ble_event_handler.c **** *
 204:Generated_Source\PSoC6\pdl\middleware\ble/cy_ble_event_handler.c **** *  Handles a CY_BLE_EVT_TIMEOUT event from the BLE Stack.
 205:Generated_Source\PSoC6\pdl\middleware\ble/cy_ble_event_handler.c **** *
 206:Generated_Source\PSoC6\pdl\middleware\ble/cy_ble_event_handler.c **** *  \param eventParam: The pointer to a structure of type cy_stc_ble_timeout_param_t.
 207:Generated_Source\PSoC6\pdl\middleware\ble/cy_ble_event_handler.c **** *
 208:Generated_Source\PSoC6\pdl\middleware\ble/cy_ble_event_handler.c **** * \return
 209:Generated_Source\PSoC6\pdl\middleware\ble/cy_ble_event_handler.c **** *  None
 210:Generated_Source\PSoC6\pdl\middleware\ble/cy_ble_event_handler.c **** *
 211:Generated_Source\PSoC6\pdl\middleware\ble/cy_ble_event_handler.c **** ******************************************************************************/
 212:Generated_Source\PSoC6\pdl\middleware\ble/cy_ble_event_handler.c **** static void Cy_BLE_TimeOutEventHandler(const cy_stc_ble_timeout_param_t *eventParam)
 213:Generated_Source\PSoC6\pdl\middleware\ble/cy_ble_event_handler.c **** {
 214:Generated_Source\PSoC6\pdl\middleware\ble/cy_ble_event_handler.c ****     if(eventParam->reasonCode == CY_BLE_GATT_RSP_TO)
 215:Generated_Source\PSoC6\pdl\middleware\ble/cy_ble_event_handler.c ****     {
 216:Generated_Source\PSoC6\pdl\middleware\ble/cy_ble_event_handler.c ****     #if (CY_BLE_GATT_ROLE_CLIENT)
 217:Generated_Source\PSoC6\pdl\middleware\ble/cy_ble_event_handler.c ****         {
 218:Generated_Source\PSoC6\pdl\middleware\ble/cy_ble_event_handler.c ****             uint32_t discIdx = Cy_BLE_GetDiscoveryIdx(eventParam->CY_BLE_HANDLE.connHandle);
 219:Generated_Source\PSoC6\pdl\middleware\ble/cy_ble_event_handler.c ****             if((discIdx < CY_BLE_GATTC_COUNT) && (cy_ble_discovery[discIdx].autoDiscoveryFlag != 0u
 220:Generated_Source\PSoC6\pdl\middleware\ble/cy_ble_event_handler.c ****             {
 221:Generated_Source\PSoC6\pdl\middleware\ble/cy_ble_event_handler.c ****                 switch(Cy_BLE_GetConnectionState(eventParam->CY_BLE_HANDLE.connHandle))
ARM GAS  C:\Users\gjl\AppData\Local\Temp\ccRZOvUj.s 			page 10


 222:Generated_Source\PSoC6\pdl\middleware\ble/cy_ble_event_handler.c ****                 {
 223:Generated_Source\PSoC6\pdl\middleware\ble/cy_ble_event_handler.c ****                     case CY_BLE_CONN_STATE_CLIENT_SRVC_DISCOVERING:
 224:Generated_Source\PSoC6\pdl\middleware\ble/cy_ble_event_handler.c ****                         Cy_BLE_ApplCallback((uint32_t)CY_BLE_EVT_GATTC_SRVC_DISCOVERY_FAILED,
 225:Generated_Source\PSoC6\pdl\middleware\ble/cy_ble_event_handler.c ****                                             (cy_stc_ble_conn_handle_t*)&eventParam->CY_BLE_HANDLE.c
 226:Generated_Source\PSoC6\pdl\middleware\ble/cy_ble_event_handler.c ****                         break;
 227:Generated_Source\PSoC6\pdl\middleware\ble/cy_ble_event_handler.c **** 
 228:Generated_Source\PSoC6\pdl\middleware\ble/cy_ble_event_handler.c ****                     case CY_BLE_CONN_STATE_CLIENT_INCL_DISCOVERING:
 229:Generated_Source\PSoC6\pdl\middleware\ble/cy_ble_event_handler.c ****                         Cy_BLE_ApplCallback((uint32_t)CY_BLE_EVT_GATTC_INCL_DISCOVERY_FAILED,
 230:Generated_Source\PSoC6\pdl\middleware\ble/cy_ble_event_handler.c ****                                             (cy_stc_ble_conn_handle_t*)&eventParam->CY_BLE_HANDLE.c
 231:Generated_Source\PSoC6\pdl\middleware\ble/cy_ble_event_handler.c ****                         break;
 232:Generated_Source\PSoC6\pdl\middleware\ble/cy_ble_event_handler.c **** 
 233:Generated_Source\PSoC6\pdl\middleware\ble/cy_ble_event_handler.c ****                     case CY_BLE_CONN_STATE_CLIENT_CHAR_DISCOVERING:
 234:Generated_Source\PSoC6\pdl\middleware\ble/cy_ble_event_handler.c ****                         Cy_BLE_ApplCallback((uint32_t)CY_BLE_EVT_GATTC_CHAR_DISCOVERY_FAILED,
 235:Generated_Source\PSoC6\pdl\middleware\ble/cy_ble_event_handler.c ****                                             (cy_stc_ble_conn_handle_t*)&eventParam->CY_BLE_HANDLE.c
 236:Generated_Source\PSoC6\pdl\middleware\ble/cy_ble_event_handler.c ****                         break;
 237:Generated_Source\PSoC6\pdl\middleware\ble/cy_ble_event_handler.c **** 
 238:Generated_Source\PSoC6\pdl\middleware\ble/cy_ble_event_handler.c ****                     case CY_BLE_CONN_STATE_CLIENT_DESCR_DISCOVERING:
 239:Generated_Source\PSoC6\pdl\middleware\ble/cy_ble_event_handler.c ****                         Cy_BLE_ApplCallback((uint32_t)CY_BLE_EVT_GATTC_DESCR_DISCOVERY_FAILED,
 240:Generated_Source\PSoC6\pdl\middleware\ble/cy_ble_event_handler.c ****                                             (cy_stc_ble_conn_handle_t*)&eventParam->CY_BLE_HANDLE.c
 241:Generated_Source\PSoC6\pdl\middleware\ble/cy_ble_event_handler.c ****                         break;
 242:Generated_Source\PSoC6\pdl\middleware\ble/cy_ble_event_handler.c **** 
 243:Generated_Source\PSoC6\pdl\middleware\ble/cy_ble_event_handler.c ****                     default:        /* Other states should not be set in Auto discovery mode */
 244:Generated_Source\PSoC6\pdl\middleware\ble/cy_ble_event_handler.c ****                         break;
 245:Generated_Source\PSoC6\pdl\middleware\ble/cy_ble_event_handler.c ****                 }
 246:Generated_Source\PSoC6\pdl\middleware\ble/cy_ble_event_handler.c ****                 cy_ble_discovery[discIdx].autoDiscoveryFlag = 0u;
 247:Generated_Source\PSoC6\pdl\middleware\ble/cy_ble_event_handler.c ****                 Cy_BLE_SetConnectionState(eventParam->CY_BLE_HANDLE.connHandle, CY_BLE_CONN_STATE_C
 248:Generated_Source\PSoC6\pdl\middleware\ble/cy_ble_event_handler.c ****             }
 249:Generated_Source\PSoC6\pdl\middleware\ble/cy_ble_event_handler.c ****         }
 250:Generated_Source\PSoC6\pdl\middleware\ble/cy_ble_event_handler.c ****     #endif /* CY_BLE_GATT_ROLE_CLIENT */
 251:Generated_Source\PSoC6\pdl\middleware\ble/cy_ble_event_handler.c ****     }
 252:Generated_Source\PSoC6\pdl\middleware\ble/cy_ble_event_handler.c **** 
 253:Generated_Source\PSoC6\pdl\middleware\ble/cy_ble_event_handler.c ****     #if (CY_BLE_GAP_ROLE_CENTRAL)
 254:Generated_Source\PSoC6\pdl\middleware\ble/cy_ble_event_handler.c ****     /* Connection procedure timeout */
 255:Generated_Source\PSoC6\pdl\middleware\ble/cy_ble_event_handler.c ****     if((eventParam->reasonCode == CY_BLE_GENERIC_APP_TO) &&
 256:Generated_Source\PSoC6\pdl\middleware\ble/cy_ble_event_handler.c ****        (cy_ble_connectingTimeout.timerHandle == eventParam->timerHandle))
 257:Generated_Source\PSoC6\pdl\middleware\ble/cy_ble_event_handler.c ****     {
 258:Generated_Source\PSoC6\pdl\middleware\ble/cy_ble_event_handler.c ****         if(Cy_BLE_GetState() == CY_BLE_STATE_CONNECTING)
 259:Generated_Source\PSoC6\pdl\middleware\ble/cy_ble_event_handler.c ****         {
 260:Generated_Source\PSoC6\pdl\middleware\ble/cy_ble_event_handler.c ****             (void)Cy_BLE_GAPC_CancelDeviceConnection();
 261:Generated_Source\PSoC6\pdl\middleware\ble/cy_ble_event_handler.c ****         }
 262:Generated_Source\PSoC6\pdl\middleware\ble/cy_ble_event_handler.c ****     }
 263:Generated_Source\PSoC6\pdl\middleware\ble/cy_ble_event_handler.c ****     #endif /* CY_BLE_GAP_ROLE_CENTRAL */
 264:Generated_Source\PSoC6\pdl\middleware\ble/cy_ble_event_handler.c **** }
 265:Generated_Source\PSoC6\pdl\middleware\ble/cy_ble_event_handler.c **** 
 266:Generated_Source\PSoC6\pdl\middleware\ble/cy_ble_event_handler.c **** 
 267:Generated_Source\PSoC6\pdl\middleware\ble/cy_ble_event_handler.c **** #if (CY_BLE_GATT_ROLE_SERVER || CY_BLE_GATT_ROLE_CLIENT)
 268:Generated_Source\PSoC6\pdl\middleware\ble/cy_ble_event_handler.c **** 
 269:Generated_Source\PSoC6\pdl\middleware\ble/cy_ble_event_handler.c **** /******************************************************************************
 270:Generated_Source\PSoC6\pdl\middleware\ble/cy_ble_event_handler.c **** * Function Name: Cy_BLE_IsDeviceAddressValid
 271:Generated_Source\PSoC6\pdl\middleware\ble/cy_ble_event_handler.c **** ***************************************************************************//**
 272:Generated_Source\PSoC6\pdl\middleware\ble/cy_ble_event_handler.c **** *
 273:Generated_Source\PSoC6\pdl\middleware\ble/cy_ble_event_handler.c **** *  This function verifies that the device address is valid (not equal zero)
 274:Generated_Source\PSoC6\pdl\middleware\ble/cy_ble_event_handler.c **** *    
 275:Generated_Source\PSoC6\pdl\middleware\ble/cy_ble_event_handler.c **** *  \param deviceAddress: The pointer to the BD address of
 276:Generated_Source\PSoC6\pdl\middleware\ble/cy_ble_event_handler.c **** *                        type #cy_stc_ble_gap_bd_addr_t.
 277:Generated_Source\PSoC6\pdl\middleware\ble/cy_ble_event_handler.c **** *
 278:Generated_Source\PSoC6\pdl\middleware\ble/cy_ble_event_handler.c **** *  \return
ARM GAS  C:\Users\gjl\AppData\Local\Temp\ccRZOvUj.s 			page 11


 279:Generated_Source\PSoC6\pdl\middleware\ble/cy_ble_event_handler.c **** *   A non-zero value when a device address is valid
 280:Generated_Source\PSoC6\pdl\middleware\ble/cy_ble_event_handler.c **** *
 281:Generated_Source\PSoC6\pdl\middleware\ble/cy_ble_event_handler.c **** ******************************************************************************/
 282:Generated_Source\PSoC6\pdl\middleware\ble/cy_ble_event_handler.c **** uint8_t Cy_BLE_IsDeviceAddressValid(const cy_stc_ble_gap_bd_addr_t *deviceAddress)
 283:Generated_Source\PSoC6\pdl\middleware\ble/cy_ble_event_handler.c **** {
 265              		.loc 1 283 0
 266              		.cfi_startproc
 267              		@ args = 0, pretend = 0, frame = 0
 268              		@ frame_needed = 0, uses_anonymous_args = 0
 269              		@ link register save eliminated.
 270              	.LVL27:
 284:Generated_Source\PSoC6\pdl\middleware\ble/cy_ble_event_handler.c ****     uint8_t addressValid = 0u;
 285:Generated_Source\PSoC6\pdl\middleware\ble/cy_ble_event_handler.c ****     uint32_t i;
 286:Generated_Source\PSoC6\pdl\middleware\ble/cy_ble_event_handler.c **** 
 287:Generated_Source\PSoC6\pdl\middleware\ble/cy_ble_event_handler.c ****     if(deviceAddress->type == CY_BLE_GAP_ADDR_TYPE_PUBLIC)
 271              		.loc 1 287 0
 272 0000 8379     		ldrb	r3, [r0, #6]	@ zero_extendqisi2
 273 0002 2BB1     		cbz	r3, .L32
 284:Generated_Source\PSoC6\pdl\middleware\ble/cy_ble_event_handler.c ****     uint8_t addressValid = 0u;
 274              		.loc 1 284 0
 275 0004 0020     		movs	r0, #0
 276              	.LVL28:
 277 0006 7047     		bx	lr
 278              	.LVL29:
 279              	.L31:
 288:Generated_Source\PSoC6\pdl\middleware\ble/cy_ble_event_handler.c ****     {
 289:Generated_Source\PSoC6\pdl\middleware\ble/cy_ble_event_handler.c ****         for(i = 0u; i < CY_BLE_GAP_BD_ADDR_SIZE; i++)
 290:Generated_Source\PSoC6\pdl\middleware\ble/cy_ble_event_handler.c ****         {
 291:Generated_Source\PSoC6\pdl\middleware\ble/cy_ble_event_handler.c ****             if(deviceAddress->bdAddr[i] != 0u)
 280              		.loc 1 291 0
 281 0008 C25C     		ldrb	r2, [r0, r3]	@ zero_extendqisi2
 282 000a 32B9     		cbnz	r2, .L33
 289:Generated_Source\PSoC6\pdl\middleware\ble/cy_ble_event_handler.c ****         {
 283              		.loc 1 289 0 discriminator 2
 284 000c 0133     		adds	r3, r3, #1
 285              	.LVL30:
 286 000e 00E0     		b	.L29
 287              	.LVL31:
 288              	.L32:
 289 0010 0023     		movs	r3, #0
 290              	.L29:
 291              	.LVL32:
 289:Generated_Source\PSoC6\pdl\middleware\ble/cy_ble_event_handler.c ****         {
 292              		.loc 1 289 0 is_stmt 0 discriminator 1
 293 0012 052B     		cmp	r3, #5
 294 0014 F8D9     		bls	.L31
 284:Generated_Source\PSoC6\pdl\middleware\ble/cy_ble_event_handler.c ****     uint8_t addressValid = 0u;
 295              		.loc 1 284 0 is_stmt 1
 296 0016 0020     		movs	r0, #0
 297              	.LVL33:
 298 0018 7047     		bx	lr
 299              	.LVL34:
 300              	.L33:
 292:Generated_Source\PSoC6\pdl\middleware\ble/cy_ble_event_handler.c ****             {
 293:Generated_Source\PSoC6\pdl\middleware\ble/cy_ble_event_handler.c ****                 addressValid = 1u;
 301              		.loc 1 293 0
 302 001a 0120     		movs	r0, #1
ARM GAS  C:\Users\gjl\AppData\Local\Temp\ccRZOvUj.s 			page 12


 303              	.LVL35:
 294:Generated_Source\PSoC6\pdl\middleware\ble/cy_ble_event_handler.c ****                 break;
 295:Generated_Source\PSoC6\pdl\middleware\ble/cy_ble_event_handler.c ****             }
 296:Generated_Source\PSoC6\pdl\middleware\ble/cy_ble_event_handler.c ****         }
 297:Generated_Source\PSoC6\pdl\middleware\ble/cy_ble_event_handler.c ****     }
 298:Generated_Source\PSoC6\pdl\middleware\ble/cy_ble_event_handler.c **** 
 299:Generated_Source\PSoC6\pdl\middleware\ble/cy_ble_event_handler.c ****     return(addressValid);
 300:Generated_Source\PSoC6\pdl\middleware\ble/cy_ble_event_handler.c **** }
 304              		.loc 1 300 0
 305 001c 7047     		bx	lr
 306              		.cfi_endproc
 307              	.LFE290:
 308              		.size	Cy_BLE_IsDeviceAddressValid, .-Cy_BLE_IsDeviceAddressValid
 309 001e 00BF     		.section	.text.Cy_BLE_EventHandler,"ax",%progbits
 310              		.align	2
 311              		.global	Cy_BLE_EventHandler
 312              		.thumb
 313              		.thumb_func
 314              		.type	Cy_BLE_EventHandler, %function
 315              	Cy_BLE_EventHandler:
 316              	.LFB293:
 301:Generated_Source\PSoC6\pdl\middleware\ble/cy_ble_event_handler.c **** #endif /* CY_BLE_GATT_ROLE_SERVER || CY_BLE_GATT_ROLE_CLIENT */
 302:Generated_Source\PSoC6\pdl\middleware\ble/cy_ble_event_handler.c **** 
 303:Generated_Source\PSoC6\pdl\middleware\ble/cy_ble_event_handler.c **** 
 304:Generated_Source\PSoC6\pdl\middleware\ble/cy_ble_event_handler.c **** /******************************************************************************
 305:Generated_Source\PSoC6\pdl\middleware\ble/cy_ble_event_handler.c **** * Function Name: Cy_BLE_L2Cap_ConnParamUpdateRspEventHandler
 306:Generated_Source\PSoC6\pdl\middleware\ble/cy_ble_event_handler.c **** ***************************************************************************//**
 307:Generated_Source\PSoC6\pdl\middleware\ble/cy_ble_event_handler.c **** *
 308:Generated_Source\PSoC6\pdl\middleware\ble/cy_ble_event_handler.c **** *  Handles an L2CAP connection parameter response event from
 309:Generated_Source\PSoC6\pdl\middleware\ble/cy_ble_event_handler.c **** *  the BLE Stack.
 310:Generated_Source\PSoC6\pdl\middleware\ble/cy_ble_event_handler.c **** *
 311:Generated_Source\PSoC6\pdl\middleware\ble/cy_ble_event_handler.c **** *  \param eventParam:
 312:Generated_Source\PSoC6\pdl\middleware\ble/cy_ble_event_handler.c **** *      * Accepted = 0x0000
 313:Generated_Source\PSoC6\pdl\middleware\ble/cy_ble_event_handler.c **** *      * Rejected = 0x0001
 314:Generated_Source\PSoC6\pdl\middleware\ble/cy_ble_event_handler.c **** *
 315:Generated_Source\PSoC6\pdl\middleware\ble/cy_ble_event_handler.c **** * \return
 316:Generated_Source\PSoC6\pdl\middleware\ble/cy_ble_event_handler.c **** *  None
 317:Generated_Source\PSoC6\pdl\middleware\ble/cy_ble_event_handler.c **** *
 318:Generated_Source\PSoC6\pdl\middleware\ble/cy_ble_event_handler.c **** ******************************************************************************/
 319:Generated_Source\PSoC6\pdl\middleware\ble/cy_ble_event_handler.c **** static void Cy_BLE_L2Cap_ConnParamUpdateRspEventHandler(const cy_stc_ble_l2cap_conn_update_rsp_para
 320:Generated_Source\PSoC6\pdl\middleware\ble/cy_ble_event_handler.c **** {
 321:Generated_Source\PSoC6\pdl\middleware\ble/cy_ble_event_handler.c ****     /* Unreferenced variable warning workaround */
 322:Generated_Source\PSoC6\pdl\middleware\ble/cy_ble_event_handler.c ****     if(eventParam->result != 0u)
 323:Generated_Source\PSoC6\pdl\middleware\ble/cy_ble_event_handler.c ****     {
 324:Generated_Source\PSoC6\pdl\middleware\ble/cy_ble_event_handler.c ****     }
 325:Generated_Source\PSoC6\pdl\middleware\ble/cy_ble_event_handler.c **** }
 326:Generated_Source\PSoC6\pdl\middleware\ble/cy_ble_event_handler.c **** 
 327:Generated_Source\PSoC6\pdl\middleware\ble/cy_ble_event_handler.c **** 
 328:Generated_Source\PSoC6\pdl\middleware\ble/cy_ble_event_handler.c **** /******************************************************************************
 329:Generated_Source\PSoC6\pdl\middleware\ble/cy_ble_event_handler.c **** * Function Name: Cy_BLE_GAP_ConnUpdateCompleteEventHandler
 330:Generated_Source\PSoC6\pdl\middleware\ble/cy_ble_event_handler.c **** ***************************************************************************//**
 331:Generated_Source\PSoC6\pdl\middleware\ble/cy_ble_event_handler.c **** *
 332:Generated_Source\PSoC6\pdl\middleware\ble/cy_ble_event_handler.c **** *  Handles a CY_BLE_EVT_GAP_CONNECTION_UPDATE_COMPLETE event from
 333:Generated_Source\PSoC6\pdl\middleware\ble/cy_ble_event_handler.c **** *  the BLE Stack.
 334:Generated_Source\PSoC6\pdl\middleware\ble/cy_ble_event_handler.c **** *
 335:Generated_Source\PSoC6\pdl\middleware\ble/cy_ble_event_handler.c **** *  \param eventParam: The pointer to the data structure specified by the event.
 336:Generated_Source\PSoC6\pdl\middleware\ble/cy_ble_event_handler.c **** *
ARM GAS  C:\Users\gjl\AppData\Local\Temp\ccRZOvUj.s 			page 13


 337:Generated_Source\PSoC6\pdl\middleware\ble/cy_ble_event_handler.c **** * \return
 338:Generated_Source\PSoC6\pdl\middleware\ble/cy_ble_event_handler.c **** *  None
 339:Generated_Source\PSoC6\pdl\middleware\ble/cy_ble_event_handler.c **** *
 340:Generated_Source\PSoC6\pdl\middleware\ble/cy_ble_event_handler.c **** ******************************************************************************/
 341:Generated_Source\PSoC6\pdl\middleware\ble/cy_ble_event_handler.c **** static void Cy_BLE_GAP_ConnUpdateCompleteEventHandler(const cy_stc_ble_gap_conn_param_updated_in_co
 342:Generated_Source\PSoC6\pdl\middleware\ble/cy_ble_event_handler.c **** {
 343:Generated_Source\PSoC6\pdl\middleware\ble/cy_ble_event_handler.c ****     /* Unreferenced variable warning workaround */
 344:Generated_Source\PSoC6\pdl\middleware\ble/cy_ble_event_handler.c ****     if(eventParam != 0u)
 345:Generated_Source\PSoC6\pdl\middleware\ble/cy_ble_event_handler.c ****     {
 346:Generated_Source\PSoC6\pdl\middleware\ble/cy_ble_event_handler.c ****     }
 347:Generated_Source\PSoC6\pdl\middleware\ble/cy_ble_event_handler.c **** }
 348:Generated_Source\PSoC6\pdl\middleware\ble/cy_ble_event_handler.c **** 
 349:Generated_Source\PSoC6\pdl\middleware\ble/cy_ble_event_handler.c **** 
 350:Generated_Source\PSoC6\pdl\middleware\ble/cy_ble_event_handler.c **** /******************************************************************************
 351:Generated_Source\PSoC6\pdl\middleware\ble/cy_ble_event_handler.c **** * Function Name: Cy_BLE_EventHandler
 352:Generated_Source\PSoC6\pdl\middleware\ble/cy_ble_event_handler.c **** ***************************************************************************//**
 353:Generated_Source\PSoC6\pdl\middleware\ble/cy_ble_event_handler.c **** *
 354:Generated_Source\PSoC6\pdl\middleware\ble/cy_ble_event_handler.c **** *  Handles events from the BLE Stack.
 355:Generated_Source\PSoC6\pdl\middleware\ble/cy_ble_event_handler.c **** *
 356:Generated_Source\PSoC6\pdl\middleware\ble/cy_ble_event_handler.c **** *  \param event:   The event code.
 357:Generated_Source\PSoC6\pdl\middleware\ble/cy_ble_event_handler.c **** *  \param evParam: The event parameters.
 358:Generated_Source\PSoC6\pdl\middleware\ble/cy_ble_event_handler.c **** *
 359:Generated_Source\PSoC6\pdl\middleware\ble/cy_ble_event_handler.c **** * \return
 360:Generated_Source\PSoC6\pdl\middleware\ble/cy_ble_event_handler.c **** *  None.
 361:Generated_Source\PSoC6\pdl\middleware\ble/cy_ble_event_handler.c **** *
 362:Generated_Source\PSoC6\pdl\middleware\ble/cy_ble_event_handler.c **** ******************************************************************************/
 363:Generated_Source\PSoC6\pdl\middleware\ble/cy_ble_event_handler.c **** void Cy_BLE_EventHandler(cy_en_ble_event_t event,
 364:Generated_Source\PSoC6\pdl\middleware\ble/cy_ble_event_handler.c ****                          void *evParam)
 365:Generated_Source\PSoC6\pdl\middleware\ble/cy_ble_event_handler.c **** {
 317              		.loc 1 365 0
 318              		.cfi_startproc
 319              		@ args = 0, pretend = 0, frame = 48
 320              		@ frame_needed = 0, uses_anonymous_args = 0
 321              	.LVL36:
 322 0000 70B5     		push	{r4, r5, r6, lr}
 323              		.cfi_def_cfa_offset 16
 324              		.cfi_offset 4, -16
 325              		.cfi_offset 5, -12
 326              		.cfi_offset 6, -8
 327              		.cfi_offset 14, -4
 328 0002 8CB0     		sub	sp, sp, #48
 329              		.cfi_def_cfa_offset 64
 330 0004 0446     		mov	r4, r0
 331 0006 0D46     		mov	r5, r1
 366:Generated_Source\PSoC6\pdl\middleware\ble/cy_ble_event_handler.c ****     cy_ble_eventHandlerFlag |= CY_BLE_CALLBACK;
 332              		.loc 1 366 0
 333 0008 B94A     		ldr	r2, .L109
 334 000a 1378     		ldrb	r3, [r2]	@ zero_extendqisi2
 335 000c 43F00103 		orr	r3, r3, #1
 336 0010 1370     		strb	r3, [r2]
 367:Generated_Source\PSoC6\pdl\middleware\ble/cy_ble_event_handler.c **** 
 368:Generated_Source\PSoC6\pdl\middleware\ble/cy_ble_event_handler.c ****     /* Common Profile event handling */
 369:Generated_Source\PSoC6\pdl\middleware\ble/cy_ble_event_handler.c ****     switch(event)
 337              		.loc 1 369 0
 338 0012 44F20A03 		movw	r3, #16394
 339 0016 9842     		cmp	r0, r3
 340 0018 00F0E981 		beq	.L36
ARM GAS  C:\Users\gjl\AppData\Local\Temp\ccRZOvUj.s 			page 14


 341 001c 36D8     		bhi	.L37
 342 001e 41F20403 		movw	r3, #4100
 343 0022 9842     		cmp	r0, r3
 344 0024 00F02183 		beq	.L38
 345 0028 14D8     		bhi	.L39
 346 002a 41F20103 		movw	r3, #4097
 347 002e 9842     		cmp	r0, r3
 348 0030 00F0FC80 		beq	.L40
 349 0034 03D8     		bhi	.L41
 350 0036 B0F5805F 		cmp	r0, #4096
 351 003a 65D0     		beq	.L42
 352 003c 1AE3     		b	.L35
 353              	.L41:
 354 003e 41F20203 		movw	r3, #4098
 355 0042 9842     		cmp	r0, r3
 356 0044 00F0F580 		beq	.L43
 357 0048 41F20303 		movw	r3, #4099
 358 004c 9842     		cmp	r0, r3
 359 004e 00F02981 		beq	.L44
 360 0052 0FE3     		b	.L35
 361              	.L39:
 362 0054 44F20403 		movw	r3, #16388
 363 0058 9842     		cmp	r0, r3
 364 005a 00F03681 		beq	.L45
 365 005e 0AD8     		bhi	.L46
 366 0060 42F20403 		movw	r3, #8196
 367 0064 9842     		cmp	r0, r3
 368 0066 00F0B780 		beq	.L47
 369 006a 43F21203 		movw	r3, #12306
 370 006e 9842     		cmp	r0, r3
 371 0070 00F0A780 		beq	.L48
 372 0074 FEE2     		b	.L35
 373              	.L46:
 374 0076 44F20603 		movw	r3, #16390
 375 007a 9842     		cmp	r0, r3
 376 007c 00F00282 		beq	.L49
 377 0080 44F20803 		movw	r3, #16392
 378 0084 9842     		cmp	r0, r3
 379 0086 00F0F981 		beq	.L50
 380 008a F3E2     		b	.L35
 381              	.L37:
 382 008c 45F20E03 		movw	r3, #20494
 383 0090 9842     		cmp	r0, r3
 384 0092 00F0B482 		beq	.L51
 385 0096 1BD8     		bhi	.L52
 386 0098 45F20203 		movw	r3, #20482
 387 009c 9842     		cmp	r0, r3
 388 009e 00F07D82 		beq	.L53
 389 00a2 0AD8     		bhi	.L54
 390 00a4 44F21003 		movw	r3, #16400
 391 00a8 9842     		cmp	r0, r3
 392 00aa 00F0A381 		beq	.L55
 393 00ae 45F20103 		movw	r3, #20481
 394 00b2 9842     		cmp	r0, r3
 395 00b4 00F02582 		beq	.L56
 396 00b8 DCE2     		b	.L35
 397              	.L54:
ARM GAS  C:\Users\gjl\AppData\Local\Temp\ccRZOvUj.s 			page 15


 398 00ba 45F20303 		movw	r3, #20483
 399 00be 9842     		cmp	r0, r3
 400 00c0 00F08582 		beq	.L57
 401 00c4 45F20C03 		movw	r3, #20492
 402 00c8 9842     		cmp	r0, r3
 403 00ca 00F08A82 		beq	.L58
 404 00ce D1E2     		b	.L35
 405              	.L52:
 406 00d0 45F21403 		movw	r3, #20500
 407 00d4 9842     		cmp	r0, r3
 408 00d6 00F0BD82 		beq	.L59
 409 00da 0AD8     		bhi	.L60
 410 00dc 45F20F03 		movw	r3, #20495
 411 00e0 9842     		cmp	r0, r3
 412 00e2 00F0B182 		beq	.L61
 413 00e6 45F21003 		movw	r3, #20496
 414 00ea 9842     		cmp	r0, r3
 415 00ec 00F0AF82 		beq	.L62
 416 00f0 C0E2     		b	.L35
 417              	.L60:
 418 00f2 45F21703 		movw	r3, #20503
 419 00f6 9842     		cmp	r0, r3
 420 00f8 00F0AF82 		beq	.L63
 421 00fc 46F20103 		movw	r3, #24577
 422 0100 9842     		cmp	r0, r3
 423 0102 00F0FB81 		beq	.L64
 424 0106 B5E2     		b	.L35
 425              	.L42:
 370:Generated_Source\PSoC6\pdl\middleware\ble/cy_ble_event_handler.c ****     {
 371:Generated_Source\PSoC6\pdl\middleware\ble/cy_ble_event_handler.c ****         /**********************************************************
 372:Generated_Source\PSoC6\pdl\middleware\ble/cy_ble_event_handler.c ****          * General events
 373:Generated_Source\PSoC6\pdl\middleware\ble/cy_ble_event_handler.c ****          ************************************************************/
 374:Generated_Source\PSoC6\pdl\middleware\ble/cy_ble_event_handler.c ****         case CY_BLE_EVT_STACK_ON:
 375:Generated_Source\PSoC6\pdl\middleware\ble/cy_ble_event_handler.c **** 
 376:Generated_Source\PSoC6\pdl\middleware\ble/cy_ble_event_handler.c ****         #if (CY_BLE_GATT_ROLE_SERVER || CY_BLE_GATT_ROLE_CLIENT)
 377:Generated_Source\PSoC6\pdl\middleware\ble/cy_ble_event_handler.c ****             {
 378:Generated_Source\PSoC6\pdl\middleware\ble/cy_ble_event_handler.c ****                 /* Set a device address  */
 379:Generated_Source\PSoC6\pdl\middleware\ble/cy_ble_event_handler.c ****                 if(Cy_BLE_IsDeviceAddressValid(cy_ble_sflashDeviceAddress) != 0u)
 426              		.loc 1 379 0
 427 0108 7A4B     		ldr	r3, .L109+4
 428 010a 1E68     		ldr	r6, [r3]
 429 010c 3046     		mov	r0, r6
 430              	.LVL37:
 431 010e FFF7FEFF 		bl	Cy_BLE_IsDeviceAddressValid
 432              	.LVL38:
 433 0112 60B1     		cbz	r0, .L65
 380:Generated_Source\PSoC6\pdl\middleware\ble/cy_ble_event_handler.c ****                 {
 381:Generated_Source\PSoC6\pdl\middleware\ble/cy_ble_event_handler.c ****                     (void)Cy_BLE_GAP_SetBdAddress(cy_ble_sflashDeviceAddress);
 434              		.loc 1 381 0
 435 0114 3046     		mov	r0, r6
 436 0116 FFF7FEFF 		bl	Cy_BLE_GAP_SetBdAddress
 437              	.LVL39:
 382:Generated_Source\PSoC6\pdl\middleware\ble/cy_ble_event_handler.c ****                 #if (CY_BLE_GAP_ROLE_PERIPHERAL || CY_BLE_GAP_ROLE_BROADCASTER)
 383:Generated_Source\PSoC6\pdl\middleware\ble/cy_ble_event_handler.c ****                     Cy_BLE_ChangeAdDeviceAddress(cy_ble_sflashDeviceAddress, 0u);
 438              		.loc 1 383 0
 439 011a 764E     		ldr	r6, .L109+4
 440 011c 0021     		movs	r1, #0
ARM GAS  C:\Users\gjl\AppData\Local\Temp\ccRZOvUj.s 			page 16


 441 011e 3068     		ldr	r0, [r6]
 442 0120 FFF7FEFF 		bl	Cy_BLE_ChangeAdDeviceAddress
 443              	.LVL40:
 384:Generated_Source\PSoC6\pdl\middleware\ble/cy_ble_event_handler.c ****                     Cy_BLE_ChangeAdDeviceAddress(cy_ble_sflashDeviceAddress, 1u);
 444              		.loc 1 384 0
 445 0124 0121     		movs	r1, #1
 446 0126 3068     		ldr	r0, [r6]
 447 0128 FFF7FEFF 		bl	Cy_BLE_ChangeAdDeviceAddress
 448              	.LVL41:
 449 012c 37E0     		b	.L66
 450              	.L65:
 385:Generated_Source\PSoC6\pdl\middleware\ble/cy_ble_event_handler.c ****                 #endif /* CY_BLE_GAP_ROLE_PERIPHERAL || CY_BLE_GAP_ROLE_BROADCASTER */
 386:Generated_Source\PSoC6\pdl\middleware\ble/cy_ble_event_handler.c ****                 }
 387:Generated_Source\PSoC6\pdl\middleware\ble/cy_ble_event_handler.c ****                 else
 388:Generated_Source\PSoC6\pdl\middleware\ble/cy_ble_event_handler.c ****                 {
 389:Generated_Source\PSoC6\pdl\middleware\ble/cy_ble_event_handler.c ****                     if(cy_ble_configPtr->params->siliconDeviceAddressEnabled != 0u)
 451              		.loc 1 389 0
 452 012e 724B     		ldr	r3, .L109+8
 453 0130 1A68     		ldr	r2, [r3]
 454 0132 936A     		ldr	r3, [r2, #40]
 455 0134 1B79     		ldrb	r3, [r3, #4]	@ zero_extendqisi2
 456 0136 1BB3     		cbz	r3, .L67
 457              	.LBB87:
 390:Generated_Source\PSoC6\pdl\middleware\ble/cy_ble_event_handler.c ****                     {
 391:Generated_Source\PSoC6\pdl\middleware\ble/cy_ble_event_handler.c ****                         uint32_t bdAddrLoc;
 392:Generated_Source\PSoC6\pdl\middleware\ble/cy_ble_event_handler.c ****                         bdAddrLoc = ((uint32_t)SFLASH->DIE_X & (uint32_t)CY_BLE_SFLASH_DIE_X_MASK) 
 458              		.loc 1 392 0
 459 0138 4FF0B051 		mov	r1, #369098752
 460 013c 91F80436 		ldrb	r3, [r1, #1540]	@ zero_extendqisi2
 461 0140 03F03F03 		and	r3, r3, #63
 393:Generated_Source\PSoC6\pdl\middleware\ble/cy_ble_event_handler.c ****                                     ((uint32_t)(((uint32_t)SFLASH->DIE_Y) & ((uint32_t)CY_BLE_SFLAS
 462              		.loc 1 393 0
 463 0144 91F80506 		ldrb	r0, [r1, #1541]	@ zero_extendqisi2
 464 0148 00F03F00 		and	r0, r0, #63
 392:Generated_Source\PSoC6\pdl\middleware\ble/cy_ble_event_handler.c ****                                     ((uint32_t)(((uint32_t)SFLASH->DIE_Y) & ((uint32_t)CY_BLE_SFLAS
 465              		.loc 1 392 0
 466 014c 43EA8013 		orr	r3, r3, r0, lsl #6
 394:Generated_Source\PSoC6\pdl\middleware\ble/cy_ble_event_handler.c ****                                      CY_BLE_SFLASH_DIE_X_BITS) |
 395:Generated_Source\PSoC6\pdl\middleware\ble/cy_ble_event_handler.c ****                                     ((uint32_t)(((uint32_t)SFLASH->DIE_WAFER) & ((uint32_t)CY_BLE_S
 467              		.loc 1 395 0
 468 0150 91F80306 		ldrb	r0, [r1, #1539]	@ zero_extendqisi2
 469 0154 00F01F00 		and	r0, r0, #31
 394:Generated_Source\PSoC6\pdl\middleware\ble/cy_ble_event_handler.c ****                                      CY_BLE_SFLASH_DIE_X_BITS) |
 470              		.loc 1 394 0
 471 0158 43EA0033 		orr	r3, r3, r0, lsl #12
 396:Generated_Source\PSoC6\pdl\middleware\ble/cy_ble_event_handler.c ****                                      CY_BLE_SFLASH_DIE_XY_BITS) |
 397:Generated_Source\PSoC6\pdl\middleware\ble/cy_ble_event_handler.c ****                                     ((uint32_t)(((uint32_t)SFLASH->DIE_LOT[0]) & ((uint32_t)CY_BLE_
 472              		.loc 1 397 0
 473 015c 91F80016 		ldrb	r1, [r1, #1536]	@ zero_extendqisi2
 474 0160 01F07F01 		and	r1, r1, #127
 392:Generated_Source\PSoC6\pdl\middleware\ble/cy_ble_event_handler.c ****                                     ((uint32_t)(((uint32_t)SFLASH->DIE_Y) & ((uint32_t)CY_BLE_SFLAS
 475              		.loc 1 392 0
 476 0164 43EA4143 		orr	r3, r3, r1, lsl #17
 477              	.LVL42:
 398:Generated_Source\PSoC6\pdl\middleware\ble/cy_ble_event_handler.c ****                                      CY_BLE_SFLASH_DIE_XYWAFER_BITS);
 399:Generated_Source\PSoC6\pdl\middleware\ble/cy_ble_event_handler.c **** 
 400:Generated_Source\PSoC6\pdl\middleware\ble/cy_ble_event_handler.c ****                         cy_ble_configPtr->deviceAddress->bdAddr[0] = (uint8_t)bdAddrLoc;
ARM GAS  C:\Users\gjl\AppData\Local\Temp\ccRZOvUj.s 			page 17


 478              		.loc 1 400 0
 479 0168 126B     		ldr	r2, [r2, #48]
 480 016a 1370     		strb	r3, [r2]
 401:Generated_Source\PSoC6\pdl\middleware\ble/cy_ble_event_handler.c ****                         cy_ble_configPtr->deviceAddress->bdAddr[1] = (uint8_t)(bdAddrLoc >> 8u);
 481              		.loc 1 401 0
 482 016c 624A     		ldr	r2, .L109+8
 483 016e 1168     		ldr	r1, [r2]
 484 0170 096B     		ldr	r1, [r1, #48]
 485 0172 C3F30720 		ubfx	r0, r3, #8, #8
 486 0176 4870     		strb	r0, [r1, #1]
 402:Generated_Source\PSoC6\pdl\middleware\ble/cy_ble_event_handler.c ****                         cy_ble_configPtr->deviceAddress->bdAddr[2] = (uint8_t)(bdAddrLoc >> 16u);
 487              		.loc 1 402 0
 488 0178 1268     		ldr	r2, [r2]
 489 017a 126B     		ldr	r2, [r2, #48]
 490 017c 1B0C     		lsrs	r3, r3, #16
 491              	.LVL43:
 492 017e 9370     		strb	r3, [r2, #2]
 493              	.L67:
 494              	.LBE87:
 403:Generated_Source\PSoC6\pdl\middleware\ble/cy_ble_event_handler.c ****                     }
 404:Generated_Source\PSoC6\pdl\middleware\ble/cy_ble_event_handler.c ****                     (void)Cy_BLE_GAP_SetBdAddress(cy_ble_configPtr->deviceAddress);
 495              		.loc 1 404 0
 496 0180 5D4E     		ldr	r6, .L109+8
 497 0182 3368     		ldr	r3, [r6]
 498 0184 186B     		ldr	r0, [r3, #48]
 499 0186 FFF7FEFF 		bl	Cy_BLE_GAP_SetBdAddress
 500              	.LVL44:
 405:Generated_Source\PSoC6\pdl\middleware\ble/cy_ble_event_handler.c **** 
 406:Generated_Source\PSoC6\pdl\middleware\ble/cy_ble_event_handler.c ****                 #if (CY_BLE_GAP_ROLE_PERIPHERAL || CY_BLE_GAP_ROLE_BROADCASTER)
 407:Generated_Source\PSoC6\pdl\middleware\ble/cy_ble_event_handler.c ****                     Cy_BLE_ChangeAdDeviceAddress(cy_ble_configPtr->deviceAddress, 0u);
 501              		.loc 1 407 0
 502 018a 3368     		ldr	r3, [r6]
 503 018c 0021     		movs	r1, #0
 504 018e 186B     		ldr	r0, [r3, #48]
 505 0190 FFF7FEFF 		bl	Cy_BLE_ChangeAdDeviceAddress
 506              	.LVL45:
 408:Generated_Source\PSoC6\pdl\middleware\ble/cy_ble_event_handler.c ****                     Cy_BLE_ChangeAdDeviceAddress(cy_ble_configPtr->deviceAddress, 1u);
 507              		.loc 1 408 0
 508 0194 3368     		ldr	r3, [r6]
 509 0196 0121     		movs	r1, #1
 510 0198 186B     		ldr	r0, [r3, #48]
 511 019a FFF7FEFF 		bl	Cy_BLE_ChangeAdDeviceAddress
 512              	.LVL46:
 513              	.L66:
 409:Generated_Source\PSoC6\pdl\middleware\ble/cy_ble_event_handler.c ****                 #endif /* CY_BLE_GAP_ROLE_PERIPHERAL || CY_BLE_GAP_ROLE_BROADCASTER */
 410:Generated_Source\PSoC6\pdl\middleware\ble/cy_ble_event_handler.c ****                 }
 411:Generated_Source\PSoC6\pdl\middleware\ble/cy_ble_event_handler.c ****                 /* Set the device IO Capability  */
 412:Generated_Source\PSoC6\pdl\middleware\ble/cy_ble_event_handler.c ****                 (void)Cy_BLE_GAP_SetIoCap((cy_en_ble_gap_iocap_t*)&cy_ble_configPtr->params->securi
 514              		.loc 1 412 0
 515 019e 564B     		ldr	r3, .L109+8
 516 01a0 1B68     		ldr	r3, [r3]
 517 01a2 986A     		ldr	r0, [r3, #40]
 518 01a4 0230     		adds	r0, r0, #2
 519 01a6 FFF7FEFF 		bl	Cy_BLE_GAP_SetIoCap
 520              	.LVL47:
 521              	.LBB88:
 413:Generated_Source\PSoC6\pdl\middleware\ble/cy_ble_event_handler.c ****                 {
ARM GAS  C:\Users\gjl\AppData\Local\Temp\ccRZOvUj.s 			page 18


 414:Generated_Source\PSoC6\pdl\middleware\ble/cy_ble_event_handler.c ****                     /* Enable all 4.1 events and configured 4.2 events */
 415:Generated_Source\PSoC6\pdl\middleware\ble/cy_ble_event_handler.c ****                     uint8_t leMask[CY_BLE_LE_MASK_LENGTH] = { CY_LO8(CY_BLE_LE_MASK),
 522              		.loc 1 415 0
 523 01aa 544A     		ldr	r2, .L109+12
 524 01ac 05AB     		add	r3, sp, #20
 525 01ae 1068     		ldr	r0, [r2]	@ unaligned
 526 01b0 5168     		ldr	r1, [r2, #4]	@ unaligned
 527 01b2 03C3     		stmia	r3!, {r0, r1}
 416:Generated_Source\PSoC6\pdl\middleware\ble/cy_ble_event_handler.c ****                                                               CY_HI8(CY_BLE_LE_MASK),0u,  0u, 0u, 0
 417:Generated_Source\PSoC6\pdl\middleware\ble/cy_ble_event_handler.c ****                     (void)Cy_BLE_SetLeEventMask(leMask);
 528              		.loc 1 417 0
 529 01b4 05A8     		add	r0, sp, #20
 530 01b6 FFF7FEFF 		bl	Cy_BLE_SetLeEventMask
 531              	.LVL48:
 532              	.LBE88:
 418:Generated_Source\PSoC6\pdl\middleware\ble/cy_ble_event_handler.c ****                 }
 419:Generated_Source\PSoC6\pdl\middleware\ble/cy_ble_event_handler.c ****             }
 420:Generated_Source\PSoC6\pdl\middleware\ble/cy_ble_event_handler.c ****         #endif /* CY_BLE_GATT_ROLE_SERVER || CY_BLE_GATT_ROLE_CLIENT */
 421:Generated_Source\PSoC6\pdl\middleware\ble/cy_ble_event_handler.c ****             Cy_BLE_SetState(CY_BLE_STATE_ON);
 533              		.loc 1 421 0
 534 01ba 0222     		movs	r2, #2
 535 01bc 504B     		ldr	r3, .L109+16
 536 01be 1A70     		strb	r2, [r3]
 422:Generated_Source\PSoC6\pdl\middleware\ble/cy_ble_event_handler.c ****             break;
 537              		.loc 1 422 0
 538 01c0 58E2     		b	.L35
 539              	.LVL49:
 540              	.L48:
 423:Generated_Source\PSoC6\pdl\middleware\ble/cy_ble_event_handler.c **** 
 424:Generated_Source\PSoC6\pdl\middleware\ble/cy_ble_event_handler.c ****         case CY_BLE_EVT_STACK_SHUTDOWN_COMPLETE:
 425:Generated_Source\PSoC6\pdl\middleware\ble/cy_ble_event_handler.c ****             Cy_BLE_SetState(CY_BLE_STATE_STOPPED);
 541              		.loc 1 425 0
 542 01c2 0023     		movs	r3, #0
 543 01c4 4E4A     		ldr	r2, .L109+16
 544 01c6 1370     		strb	r3, [r2]
 545              	.LVL50:
 546              	.LBB89:
 547              	.LBB90:
 548              		.file 2 "Generated_Source\\PSoC6\\pdl\\middleware\\ble\\cy_ble_gap.h"
   1:Generated_Source\PSoC6\pdl\middleware\ble/cy_ble_gap.h **** /***************************************************************************//**
   2:Generated_Source\PSoC6\pdl\middleware\ble/cy_ble_gap.h **** * \file cy_ble_gap.h
   3:Generated_Source\PSoC6\pdl\middleware\ble/cy_ble_gap.h **** * \version 2.0
   4:Generated_Source\PSoC6\pdl\middleware\ble/cy_ble_gap.h **** *
   5:Generated_Source\PSoC6\pdl\middleware\ble/cy_ble_gap.h **** * \brief
   6:Generated_Source\PSoC6\pdl\middleware\ble/cy_ble_gap.h **** *  Contains the prototypes and constants used in the BLE GAP profile.
   7:Generated_Source\PSoC6\pdl\middleware\ble/cy_ble_gap.h **** *
   8:Generated_Source\PSoC6\pdl\middleware\ble/cy_ble_gap.h **** ********************************************************************************
   9:Generated_Source\PSoC6\pdl\middleware\ble/cy_ble_gap.h **** * \copyright
  10:Generated_Source\PSoC6\pdl\middleware\ble/cy_ble_gap.h **** * Copyright 2017-2018, Cypress Semiconductor Corporation.  All rights reserved.
  11:Generated_Source\PSoC6\pdl\middleware\ble/cy_ble_gap.h **** * You may use this file only in accordance with the license, terms, conditions,
  12:Generated_Source\PSoC6\pdl\middleware\ble/cy_ble_gap.h **** * disclaimers, and limitations in the end user license agreement accompanying
  13:Generated_Source\PSoC6\pdl\middleware\ble/cy_ble_gap.h **** * the software package with which this file was provided.
  14:Generated_Source\PSoC6\pdl\middleware\ble/cy_ble_gap.h **** *******************************************************************************/
  15:Generated_Source\PSoC6\pdl\middleware\ble/cy_ble_gap.h **** 
  16:Generated_Source\PSoC6\pdl\middleware\ble/cy_ble_gap.h **** 
  17:Generated_Source\PSoC6\pdl\middleware\ble/cy_ble_gap.h **** #ifndef CY_BLE_GAP_H
  18:Generated_Source\PSoC6\pdl\middleware\ble/cy_ble_gap.h **** #define CY_BLE_GAP_H
ARM GAS  C:\Users\gjl\AppData\Local\Temp\ccRZOvUj.s 			page 19


  19:Generated_Source\PSoC6\pdl\middleware\ble/cy_ble_gap.h ****     
  20:Generated_Source\PSoC6\pdl\middleware\ble/cy_ble_gap.h **** #include "cy_ble_config.h"
  21:Generated_Source\PSoC6\pdl\middleware\ble/cy_ble_gap.h **** 
  22:Generated_Source\PSoC6\pdl\middleware\ble/cy_ble_gap.h **** /***************************************
  23:Generated_Source\PSoC6\pdl\middleware\ble/cy_ble_gap.h **** * BLE Stack includes
  24:Generated_Source\PSoC6\pdl\middleware\ble/cy_ble_gap.h **** ***************************************/
  25:Generated_Source\PSoC6\pdl\middleware\ble/cy_ble_gap.h **** #include "cy_ble_stack_gatt.h"    
  26:Generated_Source\PSoC6\pdl\middleware\ble/cy_ble_gap.h **** #include "cy_ble_stack_gap.h"
  27:Generated_Source\PSoC6\pdl\middleware\ble/cy_ble_gap.h **** #include "cy_ble_stack_gap_central.h"
  28:Generated_Source\PSoC6\pdl\middleware\ble/cy_ble_gap.h **** #include "cy_ble_stack_gap_peripheral.h"
  29:Generated_Source\PSoC6\pdl\middleware\ble/cy_ble_gap.h **** 
  30:Generated_Source\PSoC6\pdl\middleware\ble/cy_ble_gap.h **** /* C binding of definitions if building with C++ compiler */
  31:Generated_Source\PSoC6\pdl\middleware\ble/cy_ble_gap.h **** #ifdef __cplusplus
  32:Generated_Source\PSoC6\pdl\middleware\ble/cy_ble_gap.h **** extern "C" {
  33:Generated_Source\PSoC6\pdl\middleware\ble/cy_ble_gap.h **** #endif /* __cplusplus */
  34:Generated_Source\PSoC6\pdl\middleware\ble/cy_ble_gap.h **** 
  35:Generated_Source\PSoC6\pdl\middleware\ble/cy_ble_gap.h **** /***************************************
  36:Generated_Source\PSoC6\pdl\middleware\ble/cy_ble_gap.h **** * Conditional Compilation Parameters
  37:Generated_Source\PSoC6\pdl\middleware\ble/cy_ble_gap.h **** ***************************************/
  38:Generated_Source\PSoC6\pdl\middleware\ble/cy_ble_gap.h **** /**
  39:Generated_Source\PSoC6\pdl\middleware\ble/cy_ble_gap.h ****  * The BLE operation mode.
  40:Generated_Source\PSoC6\pdl\middleware\ble/cy_ble_gap.h ****  */
  41:Generated_Source\PSoC6\pdl\middleware\ble/cy_ble_gap.h **** #define CY_BLE_MODE                          (CY_BLE_CONFIG_MODE)
  42:Generated_Source\PSoC6\pdl\middleware\ble/cy_ble_gap.h **** 
  43:Generated_Source\PSoC6\pdl\middleware\ble/cy_ble_gap.h **** /** 
  44:Generated_Source\PSoC6\pdl\middleware\ble/cy_ble_gap.h ****  * Maximum number of BLE connections
  45:Generated_Source\PSoC6\pdl\middleware\ble/cy_ble_gap.h ****  * This parameter displays how many BLE connections (both Central and 
  46:Generated_Source\PSoC6\pdl\middleware\ble/cy_ble_gap.h ****  * Peripheral) are allowed. Valid range is from 1 to 4.
  47:Generated_Source\PSoC6\pdl\middleware\ble/cy_ble_gap.h ****  */
  48:Generated_Source\PSoC6\pdl\middleware\ble/cy_ble_gap.h **** #define CY_BLE_CONN_COUNT                    (CY_BLE_CONFIG_CONN_COUNT)
  49:Generated_Source\PSoC6\pdl\middleware\ble/cy_ble_gap.h ****  
  50:Generated_Source\PSoC6\pdl\middleware\ble/cy_ble_gap.h **** /**
  51:Generated_Source\PSoC6\pdl\middleware\ble/cy_ble_gap.h ****  * The GAP Role 
  52:Generated_Source\PSoC6\pdl\middleware\ble/cy_ble_gap.h ****  * The following defined mask can be used:
  53:Generated_Source\PSoC6\pdl\middleware\ble/cy_ble_gap.h ****  * CY_BLE_GAP_PERIPHERAL  (0x01u) - device operates as peripheral.
  54:Generated_Source\PSoC6\pdl\middleware\ble/cy_ble_gap.h ****  * CY_BLE_GAP_CENTRAL     (0x02u) - device operates as central. 
  55:Generated_Source\PSoC6\pdl\middleware\ble/cy_ble_gap.h ****  * CY_BLE_GAP_BROADCASTER (0x04u) - device operates as broadcaster.
  56:Generated_Source\PSoC6\pdl\middleware\ble/cy_ble_gap.h ****  * CY_BLE_GAP_OBSERVER    (0x08u) - device operates as observer.
  57:Generated_Source\PSoC6\pdl\middleware\ble/cy_ble_gap.h ****  * CY_BLE_GAP_HCI         (0x00u) - used when BLE operates in HCI mode.
  58:Generated_Source\PSoC6\pdl\middleware\ble/cy_ble_gap.h ****  */ 
  59:Generated_Source\PSoC6\pdl\middleware\ble/cy_ble_gap.h **** #define CY_BLE_GAP_ROLE                       (CY_BLE_CONFIG_GAP_ROLE)
  60:Generated_Source\PSoC6\pdl\middleware\ble/cy_ble_gap.h **** 
  61:Generated_Source\PSoC6\pdl\middleware\ble/cy_ble_gap.h **** /** The number of GAP Peripheral configurations structures */
  62:Generated_Source\PSoC6\pdl\middleware\ble/cy_ble_gap.h **** #define CY_BLE_GAP_PERIPHERAL_COUNT           (CY_BLE_CONFIG_GAP_PERIPHERAL_COUNT)
  63:Generated_Source\PSoC6\pdl\middleware\ble/cy_ble_gap.h **** 
  64:Generated_Source\PSoC6\pdl\middleware\ble/cy_ble_gap.h **** /** The number of GAP Broadcaster configurations structures */
  65:Generated_Source\PSoC6\pdl\middleware\ble/cy_ble_gap.h **** #define CY_BLE_GAP_BROADCASTER_COUNT          (CY_BLE_CONFIG_GAP_BROADCASTER_COUNT)
  66:Generated_Source\PSoC6\pdl\middleware\ble/cy_ble_gap.h **** 
  67:Generated_Source\PSoC6\pdl\middleware\ble/cy_ble_gap.h **** /** The number of GAP Central configurations structures */
  68:Generated_Source\PSoC6\pdl\middleware\ble/cy_ble_gap.h **** #define CY_BLE_GAP_CENTRAL_COUNT              (CY_BLE_CONFIG_GAP_CENTRAL_COUNT)
  69:Generated_Source\PSoC6\pdl\middleware\ble/cy_ble_gap.h **** 
  70:Generated_Source\PSoC6\pdl\middleware\ble/cy_ble_gap.h **** /** The number of GAP Observer configurations structures */
  71:Generated_Source\PSoC6\pdl\middleware\ble/cy_ble_gap.h **** #define CY_BLE_GAP_OBSERVER_COUNT             (CY_BLE_CONFIG_GAP_OBSERVER_COUNT)
  72:Generated_Source\PSoC6\pdl\middleware\ble/cy_ble_gap.h **** 
  73:Generated_Source\PSoC6\pdl\middleware\ble/cy_ble_gap.h **** /** The number of Security configurations structures */
  74:Generated_Source\PSoC6\pdl\middleware\ble/cy_ble_gap.h **** #define CY_BLE_AUTH_INFO_COUNT                (CY_BLE_CONFIG_AUTH_INFO_COUNT)
  75:Generated_Source\PSoC6\pdl\middleware\ble/cy_ble_gap.h **** 
ARM GAS  C:\Users\gjl\AppData\Local\Temp\ccRZOvUj.s 			page 20


  76:Generated_Source\PSoC6\pdl\middleware\ble/cy_ble_gap.h **** /** The Bonding Requirement structures */
  77:Generated_Source\PSoC6\pdl\middleware\ble/cy_ble_gap.h **** #define CY_BLE_BONDING_REQUIREMENT            (CY_BLE_CONFIG_BONDING_REQUIREMENT)
  78:Generated_Source\PSoC6\pdl\middleware\ble/cy_ble_gap.h **** 
  79:Generated_Source\PSoC6\pdl\middleware\ble/cy_ble_gap.h **** /** The GAP Role defines */
  80:Generated_Source\PSoC6\pdl\middleware\ble/cy_ble_gap.h **** #define CY_BLE_GAP_ROLE_PERIPHERAL            (0u != (CY_BLE_GAP_ROLE & CY_BLE_GAP_PERIPHERAL))
  81:Generated_Source\PSoC6\pdl\middleware\ble/cy_ble_gap.h **** #define CY_BLE_GAP_ROLE_CENTRAL               (0u != (CY_BLE_GAP_ROLE & CY_BLE_GAP_CENTRAL))
  82:Generated_Source\PSoC6\pdl\middleware\ble/cy_ble_gap.h **** #define CY_BLE_GAP_ROLE_OBSERVER              (0u != (CY_BLE_GAP_ROLE & CY_BLE_GAP_OBSERVER))
  83:Generated_Source\PSoC6\pdl\middleware\ble/cy_ble_gap.h **** #define CY_BLE_GAP_ROLE_BROADCASTER           (0u != (CY_BLE_GAP_ROLE & CY_BLE_GAP_BROADCASTER))
  84:Generated_Source\PSoC6\pdl\middleware\ble/cy_ble_gap.h **** 
  85:Generated_Source\PSoC6\pdl\middleware\ble/cy_ble_gap.h **** #define CY_BLE_GAPP_CONF_COUNT                (CY_BLE_GAP_PERIPHERAL_COUNT + CY_BLE_GAP_BROADCASTER
  86:Generated_Source\PSoC6\pdl\middleware\ble/cy_ble_gap.h **** #define CY_BLE_GAPC_CONF_COUNT                (CY_BLE_GAP_CENTRAL_COUNT + CY_BLE_GAP_OBSERVER_COUNT
  87:Generated_Source\PSoC6\pdl\middleware\ble/cy_ble_gap.h **** 
  88:Generated_Source\PSoC6\pdl\middleware\ble/cy_ble_gap.h **** /***************************************
  89:Generated_Source\PSoC6\pdl\middleware\ble/cy_ble_gap.h **** * Type Definitions
  90:Generated_Source\PSoC6\pdl\middleware\ble/cy_ble_gap.h **** ***************************************/
  91:Generated_Source\PSoC6\pdl\middleware\ble/cy_ble_gap.h **** 
  92:Generated_Source\PSoC6\pdl\middleware\ble/cy_ble_gap.h **** #if (CY_BLE_MODE_PROFILE)
  93:Generated_Source\PSoC6\pdl\middleware\ble/cy_ble_gap.h **** 
  94:Generated_Source\PSoC6\pdl\middleware\ble/cy_ble_gap.h **** /***************************************
  95:Generated_Source\PSoC6\pdl\middleware\ble/cy_ble_gap.h **** * Enumerated Types and Structures
  96:Generated_Source\PSoC6\pdl\middleware\ble/cy_ble_gap.h **** ***************************************/
  97:Generated_Source\PSoC6\pdl\middleware\ble/cy_ble_gap.h **** 
  98:Generated_Source\PSoC6\pdl\middleware\ble/cy_ble_gap.h **** /**
  99:Generated_Source\PSoC6\pdl\middleware\ble/cy_ble_gap.h ****  * \addtogroup group_ble_common_api_gap_definitions
 100:Generated_Source\PSoC6\pdl\middleware\ble/cy_ble_gap.h ****  * @{
 101:Generated_Source\PSoC6\pdl\middleware\ble/cy_ble_gap.h ****  */
 102:Generated_Source\PSoC6\pdl\middleware\ble/cy_ble_gap.h **** 
 103:Generated_Source\PSoC6\pdl\middleware\ble/cy_ble_gap.h **** /** BLE state machine type */
 104:Generated_Source\PSoC6\pdl\middleware\ble/cy_ble_gap.h **** typedef enum
 105:Generated_Source\PSoC6\pdl\middleware\ble/cy_ble_gap.h **** {
 106:Generated_Source\PSoC6\pdl\middleware\ble/cy_ble_gap.h ****     CY_BLE_STATE_STOPPED,                             /**< BLE is turned off */
 107:Generated_Source\PSoC6\pdl\middleware\ble/cy_ble_gap.h ****     CY_BLE_STATE_INITIALIZING,                        /**< Initializing state */
 108:Generated_Source\PSoC6\pdl\middleware\ble/cy_ble_gap.h ****     CY_BLE_STATE_ON,                                  /**< BLE is turned on */
 109:Generated_Source\PSoC6\pdl\middleware\ble/cy_ble_gap.h **** #if (CY_BLE_GAP_ROLE_CENTRAL)
 110:Generated_Source\PSoC6\pdl\middleware\ble/cy_ble_gap.h ****     CY_BLE_STATE_CONNECTING,                          /**< Connecting */
 111:Generated_Source\PSoC6\pdl\middleware\ble/cy_ble_gap.h **** #endif /* CY_BLE_GAP_ROLE_CENTRAL */
 112:Generated_Source\PSoC6\pdl\middleware\ble/cy_ble_gap.h **** } cy_en_ble_state_t;
 113:Generated_Source\PSoC6\pdl\middleware\ble/cy_ble_gap.h **** 
 114:Generated_Source\PSoC6\pdl\middleware\ble/cy_ble_gap.h **** 
 115:Generated_Source\PSoC6\pdl\middleware\ble/cy_ble_gap.h **** /** Scanning state machine type */
 116:Generated_Source\PSoC6\pdl\middleware\ble/cy_ble_gap.h **** typedef enum
 117:Generated_Source\PSoC6\pdl\middleware\ble/cy_ble_gap.h **** {
 118:Generated_Source\PSoC6\pdl\middleware\ble/cy_ble_gap.h ****     CY_BLE_SCAN_STATE_STOPPED,                        /**< Scanning is stopped */
 119:Generated_Source\PSoC6\pdl\middleware\ble/cy_ble_gap.h ****     CY_BLE_SCAN_STATE_SCAN_INITIATED,                 /**< Scanning is initiated */
 120:Generated_Source\PSoC6\pdl\middleware\ble/cy_ble_gap.h ****     CY_BLE_SCAN_STATE_SCANNING,                       /**< Scanning process */
 121:Generated_Source\PSoC6\pdl\middleware\ble/cy_ble_gap.h ****     CY_BLE_SCAN_STATE_STOP_INITIATED                  /**< Stop scanning is initiated */
 122:Generated_Source\PSoC6\pdl\middleware\ble/cy_ble_gap.h **** } cy_en_ble_scan_state_t;
 123:Generated_Source\PSoC6\pdl\middleware\ble/cy_ble_gap.h **** 
 124:Generated_Source\PSoC6\pdl\middleware\ble/cy_ble_gap.h **** /** Advertising state machine type */
 125:Generated_Source\PSoC6\pdl\middleware\ble/cy_ble_gap.h **** typedef enum
 126:Generated_Source\PSoC6\pdl\middleware\ble/cy_ble_gap.h **** {
 127:Generated_Source\PSoC6\pdl\middleware\ble/cy_ble_gap.h ****     CY_BLE_ADV_STATE_STOPPED,                         /**< Advertising is stopped */
 128:Generated_Source\PSoC6\pdl\middleware\ble/cy_ble_gap.h ****     CY_BLE_ADV_STATE_ADV_INITIATED,                   /**< Advertising is initiated */
 129:Generated_Source\PSoC6\pdl\middleware\ble/cy_ble_gap.h ****     CY_BLE_ADV_STATE_ADVERTISING,                     /**< Advertising process */
 130:Generated_Source\PSoC6\pdl\middleware\ble/cy_ble_gap.h ****     CY_BLE_ADV_STATE_STOP_INITIATED                   /**< Stop advertising is initiated */
 131:Generated_Source\PSoC6\pdl\middleware\ble/cy_ble_gap.h **** } cy_en_ble_adv_state_t;
 132:Generated_Source\PSoC6\pdl\middleware\ble/cy_ble_gap.h **** 
ARM GAS  C:\Users\gjl\AppData\Local\Temp\ccRZOvUj.s 			page 21


 133:Generated_Source\PSoC6\pdl\middleware\ble/cy_ble_gap.h **** /** Connection state machine type */
 134:Generated_Source\PSoC6\pdl\middleware\ble/cy_ble_gap.h **** typedef enum
 135:Generated_Source\PSoC6\pdl\middleware\ble/cy_ble_gap.h **** {
 136:Generated_Source\PSoC6\pdl\middleware\ble/cy_ble_gap.h ****     CY_BLE_CONN_STATE_DISCONNECTED,                   /**< Essentially idle state */
 137:Generated_Source\PSoC6\pdl\middleware\ble/cy_ble_gap.h ****     CY_BLE_CONN_STATE_CLIENT_DISCONNECTED_DISCOVERED, /**< Server is disconnected but discovered */
 138:Generated_Source\PSoC6\pdl\middleware\ble/cy_ble_gap.h ****     CY_BLE_CONN_STATE_CONNECTED,                      /**< Peer device is connected for this and fo
 139:Generated_Source\PSoC6\pdl\middleware\ble/cy_ble_gap.h ****     CY_BLE_CONN_STATE_CLIENT_SRVC_DISCOVERING,        /**< Server services are being discovered */
 140:Generated_Source\PSoC6\pdl\middleware\ble/cy_ble_gap.h ****     CY_BLE_CONN_STATE_CLIENT_INCL_DISCOVERING,        /**< Server included services are being disco
 141:Generated_Source\PSoC6\pdl\middleware\ble/cy_ble_gap.h ****     CY_BLE_CONN_STATE_CLIENT_CHAR_DISCOVERING,        /**< Server characteristics are being discove
 142:Generated_Source\PSoC6\pdl\middleware\ble/cy_ble_gap.h ****     CY_BLE_CONN_STATE_CLIENT_DESCR_DISCOVERING,       /**< Server char. descriptors are being disco
 143:Generated_Source\PSoC6\pdl\middleware\ble/cy_ble_gap.h ****     CY_BLE_CONN_STATE_CLIENT_DISCOVERED               /**< Server is discovered */
 144:Generated_Source\PSoC6\pdl\middleware\ble/cy_ble_gap.h **** } cy_en_ble_conn_state_t;
 145:Generated_Source\PSoC6\pdl\middleware\ble/cy_ble_gap.h **** 
 146:Generated_Source\PSoC6\pdl\middleware\ble/cy_ble_gap.h **** /** Structure with Generic Access Profile Service (GAPS) attribute handles */
 147:Generated_Source\PSoC6\pdl\middleware\ble/cy_ble_gap.h **** typedef struct
 148:Generated_Source\PSoC6\pdl\middleware\ble/cy_ble_gap.h **** {
 149:Generated_Source\PSoC6\pdl\middleware\ble/cy_ble_gap.h ****     /** Service handle*/
 150:Generated_Source\PSoC6\pdl\middleware\ble/cy_ble_gap.h ****     cy_ble_gatt_db_attr_handle_t serviceHandle;
 151:Generated_Source\PSoC6\pdl\middleware\ble/cy_ble_gap.h **** 
 152:Generated_Source\PSoC6\pdl\middleware\ble/cy_ble_gap.h ****     /** Handle of the GAPS Device Name Characteristic */
 153:Generated_Source\PSoC6\pdl\middleware\ble/cy_ble_gap.h ****     cy_ble_gatt_db_attr_handle_t deviceNameCharHandle;
 154:Generated_Source\PSoC6\pdl\middleware\ble/cy_ble_gap.h **** 
 155:Generated_Source\PSoC6\pdl\middleware\ble/cy_ble_gap.h ****     /** Handle of the GAPS Appearance Characteristic */
 156:Generated_Source\PSoC6\pdl\middleware\ble/cy_ble_gap.h ****     cy_ble_gatt_db_attr_handle_t appearanceCharHandle;
 157:Generated_Source\PSoC6\pdl\middleware\ble/cy_ble_gap.h **** 
 158:Generated_Source\PSoC6\pdl\middleware\ble/cy_ble_gap.h ****     /** Handle of the GAPS Peripheral Preferred Connection Parameters Characteristic */
 159:Generated_Source\PSoC6\pdl\middleware\ble/cy_ble_gap.h ****     cy_ble_gatt_db_attr_handle_t prefConnParamCharHandle;
 160:Generated_Source\PSoC6\pdl\middleware\ble/cy_ble_gap.h **** 
 161:Generated_Source\PSoC6\pdl\middleware\ble/cy_ble_gap.h ****     /** Handle of the GAPS Central Address Resolution characteristic */
 162:Generated_Source\PSoC6\pdl\middleware\ble/cy_ble_gap.h ****     cy_ble_gatt_db_attr_handle_t centralAddrResolutionCharHandle;
 163:Generated_Source\PSoC6\pdl\middleware\ble/cy_ble_gap.h **** 
 164:Generated_Source\PSoC6\pdl\middleware\ble/cy_ble_gap.h ****     /** Handle of the GAPS Resolvable Private Address Only characteristic */
 165:Generated_Source\PSoC6\pdl\middleware\ble/cy_ble_gap.h ****     cy_ble_gatt_db_attr_handle_t resolvablePrivateAddressOnly;
 166:Generated_Source\PSoC6\pdl\middleware\ble/cy_ble_gap.h **** } cy_stc_ble_gaps_t;
 167:Generated_Source\PSoC6\pdl\middleware\ble/cy_ble_gap.h **** 
 168:Generated_Source\PSoC6\pdl\middleware\ble/cy_ble_gap.h **** /** GAP Service characteristics server's GATT DB handles structure type */
 169:Generated_Source\PSoC6\pdl\middleware\ble/cy_ble_gap.h **** typedef struct
 170:Generated_Source\PSoC6\pdl\middleware\ble/cy_ble_gap.h **** {
 171:Generated_Source\PSoC6\pdl\middleware\ble/cy_ble_gap.h ****     /** Handle of the GAPS Device Name Characteristic */
 172:Generated_Source\PSoC6\pdl\middleware\ble/cy_ble_gap.h ****     cy_ble_gatt_db_attr_handle_t deviceNameCharHandle;
 173:Generated_Source\PSoC6\pdl\middleware\ble/cy_ble_gap.h **** 
 174:Generated_Source\PSoC6\pdl\middleware\ble/cy_ble_gap.h ****     /** Handle of the GAPS Appearance Characteristic */
 175:Generated_Source\PSoC6\pdl\middleware\ble/cy_ble_gap.h ****     cy_ble_gatt_db_attr_handle_t appearanceCharHandle;
 176:Generated_Source\PSoC6\pdl\middleware\ble/cy_ble_gap.h **** 
 177:Generated_Source\PSoC6\pdl\middleware\ble/cy_ble_gap.h ****     /** Handle of the GAPS Peripheral Privacy Flag Parameters Characteristic */
 178:Generated_Source\PSoC6\pdl\middleware\ble/cy_ble_gap.h ****     cy_ble_gatt_db_attr_handle_t periphPrivacyCharHandle;
 179:Generated_Source\PSoC6\pdl\middleware\ble/cy_ble_gap.h **** 
 180:Generated_Source\PSoC6\pdl\middleware\ble/cy_ble_gap.h ****     /** Handle of the GAPS Reconnection Address Characteristic */
 181:Generated_Source\PSoC6\pdl\middleware\ble/cy_ble_gap.h ****     cy_ble_gatt_db_attr_handle_t reconnAddrCharHandle;
 182:Generated_Source\PSoC6\pdl\middleware\ble/cy_ble_gap.h **** 
 183:Generated_Source\PSoC6\pdl\middleware\ble/cy_ble_gap.h ****     /** Handle of the GAPS Peripheral Preferred Connection Parameters Characteristic */
 184:Generated_Source\PSoC6\pdl\middleware\ble/cy_ble_gap.h ****     cy_ble_gatt_db_attr_handle_t prefConnParamCharHandle;
 185:Generated_Source\PSoC6\pdl\middleware\ble/cy_ble_gap.h **** 
 186:Generated_Source\PSoC6\pdl\middleware\ble/cy_ble_gap.h ****     /** Handle of the GAPS Central Address Resolution characteristic */
 187:Generated_Source\PSoC6\pdl\middleware\ble/cy_ble_gap.h ****     cy_ble_gatt_db_attr_handle_t centralAddrResolutionCharHandle;
 188:Generated_Source\PSoC6\pdl\middleware\ble/cy_ble_gap.h **** 
 189:Generated_Source\PSoC6\pdl\middleware\ble/cy_ble_gap.h ****     /** Handle of the GAPS Resolvable Private Address Only characteristic */
ARM GAS  C:\Users\gjl\AppData\Local\Temp\ccRZOvUj.s 			page 22


 190:Generated_Source\PSoC6\pdl\middleware\ble/cy_ble_gap.h ****     cy_ble_gatt_db_attr_handle_t resolvablePrivateAddressOnly;
 191:Generated_Source\PSoC6\pdl\middleware\ble/cy_ble_gap.h **** }cy_stc_ble_gapc_t;
 192:Generated_Source\PSoC6\pdl\middleware\ble/cy_ble_gap.h **** 
 193:Generated_Source\PSoC6\pdl\middleware\ble/cy_ble_gap.h **** /* Stack mode defines */
 194:Generated_Source\PSoC6\pdl\middleware\ble/cy_ble_gap.h **** 
 195:Generated_Source\PSoC6\pdl\middleware\ble/cy_ble_gap.h **** /** Advertisement SIG assigned numbers */
 196:Generated_Source\PSoC6\pdl\middleware\ble/cy_ble_gap.h **** typedef enum
 197:Generated_Source\PSoC6\pdl\middleware\ble/cy_ble_gap.h **** {
 198:Generated_Source\PSoC6\pdl\middleware\ble/cy_ble_gap.h ****     /** Flags */
 199:Generated_Source\PSoC6\pdl\middleware\ble/cy_ble_gap.h ****     CY_BLE_GAP_ADV_FLAGS = 0x01u,
 200:Generated_Source\PSoC6\pdl\middleware\ble/cy_ble_gap.h **** 
 201:Generated_Source\PSoC6\pdl\middleware\ble/cy_ble_gap.h ****     /** Incomplete List of 16-bit Service Class UUIDs */
 202:Generated_Source\PSoC6\pdl\middleware\ble/cy_ble_gap.h ****     CY_BLE_GAP_ADV_INCOMPL_16UUID,
 203:Generated_Source\PSoC6\pdl\middleware\ble/cy_ble_gap.h **** 
 204:Generated_Source\PSoC6\pdl\middleware\ble/cy_ble_gap.h ****     /** Complete List of 16-bit Service Class UUIDs */
 205:Generated_Source\PSoC6\pdl\middleware\ble/cy_ble_gap.h ****     CY_BLE_GAP_ADV_COMPL_16UUID,
 206:Generated_Source\PSoC6\pdl\middleware\ble/cy_ble_gap.h **** 
 207:Generated_Source\PSoC6\pdl\middleware\ble/cy_ble_gap.h ****     /** Incomplete List of 32-bit Service Class UUIDs */
 208:Generated_Source\PSoC6\pdl\middleware\ble/cy_ble_gap.h ****     CY_BLE_GAP_ADV_INCOMPL_32_UUID,
 209:Generated_Source\PSoC6\pdl\middleware\ble/cy_ble_gap.h **** 
 210:Generated_Source\PSoC6\pdl\middleware\ble/cy_ble_gap.h ****     /** Complete List of 32-bit Service Class UUIDs */
 211:Generated_Source\PSoC6\pdl\middleware\ble/cy_ble_gap.h ****     CY_BLE_GAP_ADV_COMPL_32_UUID,
 212:Generated_Source\PSoC6\pdl\middleware\ble/cy_ble_gap.h **** 
 213:Generated_Source\PSoC6\pdl\middleware\ble/cy_ble_gap.h ****     /** Incomplete List of 128-bit Service Class UUIDs */
 214:Generated_Source\PSoC6\pdl\middleware\ble/cy_ble_gap.h ****     CY_BLE_GAP_ADV_INCOMPL_128_UUID,
 215:Generated_Source\PSoC6\pdl\middleware\ble/cy_ble_gap.h **** 
 216:Generated_Source\PSoC6\pdl\middleware\ble/cy_ble_gap.h ****     /** Complete List of 128-bit Service Class UUIDs */
 217:Generated_Source\PSoC6\pdl\middleware\ble/cy_ble_gap.h ****     CY_BLE_GAP_ADV_COMPL_128_UUID,
 218:Generated_Source\PSoC6\pdl\middleware\ble/cy_ble_gap.h **** 
 219:Generated_Source\PSoC6\pdl\middleware\ble/cy_ble_gap.h ****     /** Shortened Local Name */
 220:Generated_Source\PSoC6\pdl\middleware\ble/cy_ble_gap.h ****     CY_BLE_GAP_ADV_SHORT_NAME,
 221:Generated_Source\PSoC6\pdl\middleware\ble/cy_ble_gap.h **** 
 222:Generated_Source\PSoC6\pdl\middleware\ble/cy_ble_gap.h ****     /** Complete Local Name */
 223:Generated_Source\PSoC6\pdl\middleware\ble/cy_ble_gap.h ****     CY_BLE_GAP_ADV_COMPL_NAME,
 224:Generated_Source\PSoC6\pdl\middleware\ble/cy_ble_gap.h **** 
 225:Generated_Source\PSoC6\pdl\middleware\ble/cy_ble_gap.h ****     /** Tx Power Level */
 226:Generated_Source\PSoC6\pdl\middleware\ble/cy_ble_gap.h ****     CY_BLE_GAP_ADV_TX_PWR_LVL,
 227:Generated_Source\PSoC6\pdl\middleware\ble/cy_ble_gap.h **** 
 228:Generated_Source\PSoC6\pdl\middleware\ble/cy_ble_gap.h ****     /** Class of Device */
 229:Generated_Source\PSoC6\pdl\middleware\ble/cy_ble_gap.h ****     CY_BLE_GAP_ADV_CLASS_OF_DEVICE = 0x0Du,
 230:Generated_Source\PSoC6\pdl\middleware\ble/cy_ble_gap.h **** 
 231:Generated_Source\PSoC6\pdl\middleware\ble/cy_ble_gap.h ****     /** Simple Pairing Hash C */
 232:Generated_Source\PSoC6\pdl\middleware\ble/cy_ble_gap.h ****     CY_BLE_GAP_ADV_SMPL_PAIR_HASH_C,
 233:Generated_Source\PSoC6\pdl\middleware\ble/cy_ble_gap.h **** 
 234:Generated_Source\PSoC6\pdl\middleware\ble/cy_ble_gap.h ****     /** Simple Pairing Randomizer R */
 235:Generated_Source\PSoC6\pdl\middleware\ble/cy_ble_gap.h ****     CY_BLE_GAP_ADV_SMPL_PAIR_RANDOM_R,
 236:Generated_Source\PSoC6\pdl\middleware\ble/cy_ble_gap.h **** 
 237:Generated_Source\PSoC6\pdl\middleware\ble/cy_ble_gap.h ****     /** Device ID*/
 238:Generated_Source\PSoC6\pdl\middleware\ble/cy_ble_gap.h ****     CY_BLE_GAP_ADV_DEVICE_ID,
 239:Generated_Source\PSoC6\pdl\middleware\ble/cy_ble_gap.h **** 
 240:Generated_Source\PSoC6\pdl\middleware\ble/cy_ble_gap.h ****     /** Security Manager TK Value */
 241:Generated_Source\PSoC6\pdl\middleware\ble/cy_ble_gap.h ****     CY_BLE_GAP_ADV_SCRT_MNGR_TK_VAL = 0x10u,
 242:Generated_Source\PSoC6\pdl\middleware\ble/cy_ble_gap.h **** 
 243:Generated_Source\PSoC6\pdl\middleware\ble/cy_ble_gap.h ****     /** Security Manager Out of Band Flags */
 244:Generated_Source\PSoC6\pdl\middleware\ble/cy_ble_gap.h ****     CY_BLE_GAP_ADV_SCRT_MNGR_OOB_FLAGS,
 245:Generated_Source\PSoC6\pdl\middleware\ble/cy_ble_gap.h **** 
 246:Generated_Source\PSoC6\pdl\middleware\ble/cy_ble_gap.h ****     /** Slave Connection Interval Range */
ARM GAS  C:\Users\gjl\AppData\Local\Temp\ccRZOvUj.s 			page 23


 247:Generated_Source\PSoC6\pdl\middleware\ble/cy_ble_gap.h ****     CY_BLE_GAP_ADV_SLAVE_CONN_INTRV_RANGE,
 248:Generated_Source\PSoC6\pdl\middleware\ble/cy_ble_gap.h **** 
 249:Generated_Source\PSoC6\pdl\middleware\ble/cy_ble_gap.h ****     /** List of 16-bit Service Solicitation UUIDs */
 250:Generated_Source\PSoC6\pdl\middleware\ble/cy_ble_gap.h ****     CY_BLE_GAP_ADV_SOLICIT_16UUID = 0x14u,
 251:Generated_Source\PSoC6\pdl\middleware\ble/cy_ble_gap.h **** 
 252:Generated_Source\PSoC6\pdl\middleware\ble/cy_ble_gap.h ****     /** List of 128-bit Service Solicitation UUIDs */
 253:Generated_Source\PSoC6\pdl\middleware\ble/cy_ble_gap.h ****     CY_BLE_GAP_ADV_SOLICIT_128UUID,
 254:Generated_Source\PSoC6\pdl\middleware\ble/cy_ble_gap.h **** 
 255:Generated_Source\PSoC6\pdl\middleware\ble/cy_ble_gap.h ****     /** Service Data - 16-bit UUID */
 256:Generated_Source\PSoC6\pdl\middleware\ble/cy_ble_gap.h ****     CY_BLE_GAP_ADV_SRVC_DATA_16UUID,
 257:Generated_Source\PSoC6\pdl\middleware\ble/cy_ble_gap.h **** 
 258:Generated_Source\PSoC6\pdl\middleware\ble/cy_ble_gap.h ****     /** Public Target Address */
 259:Generated_Source\PSoC6\pdl\middleware\ble/cy_ble_gap.h ****     CY_BLE_GAP_ADV_PUBLIC_TARGET_ADDR,
 260:Generated_Source\PSoC6\pdl\middleware\ble/cy_ble_gap.h **** 
 261:Generated_Source\PSoC6\pdl\middleware\ble/cy_ble_gap.h ****     /** Random Target Address */
 262:Generated_Source\PSoC6\pdl\middleware\ble/cy_ble_gap.h ****     CY_BLE_GAP_ADV_RANDOM_TARGET_ADDR,
 263:Generated_Source\PSoC6\pdl\middleware\ble/cy_ble_gap.h **** 
 264:Generated_Source\PSoC6\pdl\middleware\ble/cy_ble_gap.h ****     /** Appearance */
 265:Generated_Source\PSoC6\pdl\middleware\ble/cy_ble_gap.h ****     CY_BLE_GAP_ADV_APPEARANCE,
 266:Generated_Source\PSoC6\pdl\middleware\ble/cy_ble_gap.h **** 
 267:Generated_Source\PSoC6\pdl\middleware\ble/cy_ble_gap.h ****     /** Advertising Interval */
 268:Generated_Source\PSoC6\pdl\middleware\ble/cy_ble_gap.h ****     CY_BLE_GAP_ADV_ADVERT_INTERVAL,
 269:Generated_Source\PSoC6\pdl\middleware\ble/cy_ble_gap.h **** 
 270:Generated_Source\PSoC6\pdl\middleware\ble/cy_ble_gap.h ****     /** LE Bluetooth Device Address */
 271:Generated_Source\PSoC6\pdl\middleware\ble/cy_ble_gap.h ****     CY_BLE_GAP_ADV_LE_BT_DEVICE_ADDR,
 272:Generated_Source\PSoC6\pdl\middleware\ble/cy_ble_gap.h **** 
 273:Generated_Source\PSoC6\pdl\middleware\ble/cy_ble_gap.h ****     /** LE Role */
 274:Generated_Source\PSoC6\pdl\middleware\ble/cy_ble_gap.h ****     CY_BLE_GAP_ADV_LE_ROLE,
 275:Generated_Source\PSoC6\pdl\middleware\ble/cy_ble_gap.h **** 
 276:Generated_Source\PSoC6\pdl\middleware\ble/cy_ble_gap.h ****     /** Simple Pairing Hash C-256 */
 277:Generated_Source\PSoC6\pdl\middleware\ble/cy_ble_gap.h ****     CY_BLE_GAP_ADV_SMPL_PAIR_HASH_C256,
 278:Generated_Source\PSoC6\pdl\middleware\ble/cy_ble_gap.h **** 
 279:Generated_Source\PSoC6\pdl\middleware\ble/cy_ble_gap.h ****     /** Simple Pairing Randomizer R-256 */
 280:Generated_Source\PSoC6\pdl\middleware\ble/cy_ble_gap.h ****     CY_BLE_GAP_ADV_SMPL_PAIR_RANDOM_R256,
 281:Generated_Source\PSoC6\pdl\middleware\ble/cy_ble_gap.h **** 
 282:Generated_Source\PSoC6\pdl\middleware\ble/cy_ble_gap.h ****     /** List of 32-bit Service Solicitation UUIDs */
 283:Generated_Source\PSoC6\pdl\middleware\ble/cy_ble_gap.h ****     CY_BLE_GAP_ADV_SOLICIT_32UUID,
 284:Generated_Source\PSoC6\pdl\middleware\ble/cy_ble_gap.h **** 
 285:Generated_Source\PSoC6\pdl\middleware\ble/cy_ble_gap.h ****     /** Service Data - 32-bit UUID */
 286:Generated_Source\PSoC6\pdl\middleware\ble/cy_ble_gap.h ****     CY_BLE_GAP_ADV_SRVC_DATA_32UUID,
 287:Generated_Source\PSoC6\pdl\middleware\ble/cy_ble_gap.h **** 
 288:Generated_Source\PSoC6\pdl\middleware\ble/cy_ble_gap.h ****     /** Service Data - 128-bit UUID */
 289:Generated_Source\PSoC6\pdl\middleware\ble/cy_ble_gap.h ****     CY_BLE_GAP_ADV_SRVC_DATA_128UUID,
 290:Generated_Source\PSoC6\pdl\middleware\ble/cy_ble_gap.h **** 
 291:Generated_Source\PSoC6\pdl\middleware\ble/cy_ble_gap.h ****     /** 3D Information Data */
 292:Generated_Source\PSoC6\pdl\middleware\ble/cy_ble_gap.h ****     CY_BLE_GAP_ADV_3D_INFO_DATA = 0x3D,
 293:Generated_Source\PSoC6\pdl\middleware\ble/cy_ble_gap.h **** 
 294:Generated_Source\PSoC6\pdl\middleware\ble/cy_ble_gap.h ****     /** Manufacturer Specific Data */
 295:Generated_Source\PSoC6\pdl\middleware\ble/cy_ble_gap.h ****     CY_BLE_GAP_ADV_MANUFACTURER_SPECIFIC_DATA = 0xFF
 296:Generated_Source\PSoC6\pdl\middleware\ble/cy_ble_gap.h **** }cy_en_ble_gap_adv_assign_numbers_t;
 297:Generated_Source\PSoC6\pdl\middleware\ble/cy_ble_gap.h **** 
 298:Generated_Source\PSoC6\pdl\middleware\ble/cy_ble_gap.h **** /** GAPP advertising configuration parameters structure */
 299:Generated_Source\PSoC6\pdl\middleware\ble/cy_ble_gap.h **** typedef struct
 300:Generated_Source\PSoC6\pdl\middleware\ble/cy_ble_gap.h **** {
 301:Generated_Source\PSoC6\pdl\middleware\ble/cy_ble_gap.h ****     /** The minimum interval for fast advertising the data and establishing the LE Connection */
 302:Generated_Source\PSoC6\pdl\middleware\ble/cy_ble_gap.h ****     uint16_t fastAdvIntervalMin;
 303:Generated_Source\PSoC6\pdl\middleware\ble/cy_ble_gap.h **** 
ARM GAS  C:\Users\gjl\AppData\Local\Temp\ccRZOvUj.s 			page 24


 304:Generated_Source\PSoC6\pdl\middleware\ble/cy_ble_gap.h ****     /** The maximum interval for fast advertising the data and establishing the LE Connection */
 305:Generated_Source\PSoC6\pdl\middleware\ble/cy_ble_gap.h ****     uint16_t fastAdvIntervalMax;
 306:Generated_Source\PSoC6\pdl\middleware\ble/cy_ble_gap.h **** 
 307:Generated_Source\PSoC6\pdl\middleware\ble/cy_ble_gap.h ****     /** The timeout value of  fast advertising with fast advertising interval parameters */
 308:Generated_Source\PSoC6\pdl\middleware\ble/cy_ble_gap.h ****     uint16_t fastAdvTimeOut;
 309:Generated_Source\PSoC6\pdl\middleware\ble/cy_ble_gap.h **** 
 310:Generated_Source\PSoC6\pdl\middleware\ble/cy_ble_gap.h ****     /** Slow advertising enable */
 311:Generated_Source\PSoC6\pdl\middleware\ble/cy_ble_gap.h ****     uint8_t  slowAdvEnable;
 312:Generated_Source\PSoC6\pdl\middleware\ble/cy_ble_gap.h **** 
 313:Generated_Source\PSoC6\pdl\middleware\ble/cy_ble_gap.h ****     /** The minimum interval for slow advertising the data and establishing the LE Connection */
 314:Generated_Source\PSoC6\pdl\middleware\ble/cy_ble_gap.h ****     uint16_t slowAdvIntervalMin;
 315:Generated_Source\PSoC6\pdl\middleware\ble/cy_ble_gap.h **** 
 316:Generated_Source\PSoC6\pdl\middleware\ble/cy_ble_gap.h ****     /** The maximum interval for slow  advertising the data and establishing the LE Connection */
 317:Generated_Source\PSoC6\pdl\middleware\ble/cy_ble_gap.h ****     uint16_t slowAdvIntervalMax;
 318:Generated_Source\PSoC6\pdl\middleware\ble/cy_ble_gap.h **** 
 319:Generated_Source\PSoC6\pdl\middleware\ble/cy_ble_gap.h ****     /** The timeout value of slow advertising with slow advertising interval parameters */
 320:Generated_Source\PSoC6\pdl\middleware\ble/cy_ble_gap.h ****     uint16_t slowAdvTimeOut;
 321:Generated_Source\PSoC6\pdl\middleware\ble/cy_ble_gap.h **** }cy_stc_ble_gapp_adv_params_t;
 322:Generated_Source\PSoC6\pdl\middleware\ble/cy_ble_gap.h **** 
 323:Generated_Source\PSoC6\pdl\middleware\ble/cy_ble_gap.h **** /** GAPC advertising configuration parameters structure */
 324:Generated_Source\PSoC6\pdl\middleware\ble/cy_ble_gap.h **** typedef struct
 325:Generated_Source\PSoC6\pdl\middleware\ble/cy_ble_gap.h **** {
 326:Generated_Source\PSoC6\pdl\middleware\ble/cy_ble_gap.h ****     /** The scan interval when operating in Fast connection */
 327:Generated_Source\PSoC6\pdl\middleware\ble/cy_ble_gap.h ****     uint16_t fastScanInterval;
 328:Generated_Source\PSoC6\pdl\middleware\ble/cy_ble_gap.h **** 
 329:Generated_Source\PSoC6\pdl\middleware\ble/cy_ble_gap.h ****     /** Defines the scan window when operating in Fast connection */
 330:Generated_Source\PSoC6\pdl\middleware\ble/cy_ble_gap.h ****     uint16_t fastScanWindow;
 331:Generated_Source\PSoC6\pdl\middleware\ble/cy_ble_gap.h **** 
 332:Generated_Source\PSoC6\pdl\middleware\ble/cy_ble_gap.h ****     /** The timeout value of scanning with fast scan parameters */
 333:Generated_Source\PSoC6\pdl\middleware\ble/cy_ble_gap.h ****     uint16_t fastScanTimeOut;
 334:Generated_Source\PSoC6\pdl\middleware\ble/cy_ble_gap.h **** 
 335:Generated_Source\PSoC6\pdl\middleware\ble/cy_ble_gap.h ****     /** Slow scan enable/disable */
 336:Generated_Source\PSoC6\pdl\middleware\ble/cy_ble_gap.h ****     uint8_t  slowScanEnabled;
 337:Generated_Source\PSoC6\pdl\middleware\ble/cy_ble_gap.h **** 
 338:Generated_Source\PSoC6\pdl\middleware\ble/cy_ble_gap.h ****     /** The scan interval when operating in Slow connection */
 339:Generated_Source\PSoC6\pdl\middleware\ble/cy_ble_gap.h ****     uint16_t slowScanInterval;
 340:Generated_Source\PSoC6\pdl\middleware\ble/cy_ble_gap.h **** 
 341:Generated_Source\PSoC6\pdl\middleware\ble/cy_ble_gap.h ****     /** Defines the scan window when operating in Slow connection */
 342:Generated_Source\PSoC6\pdl\middleware\ble/cy_ble_gap.h ****     uint16_t slowScanWindow;
 343:Generated_Source\PSoC6\pdl\middleware\ble/cy_ble_gap.h **** 
 344:Generated_Source\PSoC6\pdl\middleware\ble/cy_ble_gap.h ****     /** The timeout value of scanning with Slow scan parameters */
 345:Generated_Source\PSoC6\pdl\middleware\ble/cy_ble_gap.h ****     uint16_t slowScanTimeOut;
 346:Generated_Source\PSoC6\pdl\middleware\ble/cy_ble_gap.h **** 
 347:Generated_Source\PSoC6\pdl\middleware\ble/cy_ble_gap.h ****     /** The minimum permissible connection time value to be used during a connection event */
 348:Generated_Source\PSoC6\pdl\middleware\ble/cy_ble_gap.h ****     uint16_t gapcConnectionIntervalMin;
 349:Generated_Source\PSoC6\pdl\middleware\ble/cy_ble_gap.h **** 
 350:Generated_Source\PSoC6\pdl\middleware\ble/cy_ble_gap.h ****     /** The maximum permissible connection time value to be used during a connection event */
 351:Generated_Source\PSoC6\pdl\middleware\ble/cy_ble_gap.h ****     uint16_t gapcConnectionIntervalMax;
 352:Generated_Source\PSoC6\pdl\middleware\ble/cy_ble_gap.h **** 
 353:Generated_Source\PSoC6\pdl\middleware\ble/cy_ble_gap.h ****     /** Defines the maximum time between two received Data Packet PDUs before
 354:Generated_Source\PSoC6\pdl\middleware\ble/cy_ble_gap.h ****      *  the connection is considered lost */
 355:Generated_Source\PSoC6\pdl\middleware\ble/cy_ble_gap.h ****     uint16_t gapcConnectionSlaveLatency;
 356:Generated_Source\PSoC6\pdl\middleware\ble/cy_ble_gap.h **** 
 357:Generated_Source\PSoC6\pdl\middleware\ble/cy_ble_gap.h ****     /** Defines the LE link supervision timeout interval */
 358:Generated_Source\PSoC6\pdl\middleware\ble/cy_ble_gap.h ****     uint16_t gapcConnectionTimeOut;
 359:Generated_Source\PSoC6\pdl\middleware\ble/cy_ble_gap.h **** }cy_stc_ble_gapc_scan_params_t;
 360:Generated_Source\PSoC6\pdl\middleware\ble/cy_ble_gap.h **** 
ARM GAS  C:\Users\gjl\AppData\Local\Temp\ccRZOvUj.s 			page 25


 361:Generated_Source\PSoC6\pdl\middleware\ble/cy_ble_gap.h **** /** Store BLE Application Data parameter into flash */
 362:Generated_Source\PSoC6\pdl\middleware\ble/cy_ble_gap.h **** typedef struct
 363:Generated_Source\PSoC6\pdl\middleware\ble/cy_ble_gap.h **** {
 364:Generated_Source\PSoC6\pdl\middleware\ble/cy_ble_gap.h ****     /** Source buffer */
 365:Generated_Source\PSoC6\pdl\middleware\ble/cy_ble_gap.h ****     const uint8_t *srcBuff;
 366:Generated_Source\PSoC6\pdl\middleware\ble/cy_ble_gap.h **** 
 367:Generated_Source\PSoC6\pdl\middleware\ble/cy_ble_gap.h ****     /** Destination buffer */
 368:Generated_Source\PSoC6\pdl\middleware\ble/cy_ble_gap.h ****     const uint8_t *destAddr;
 369:Generated_Source\PSoC6\pdl\middleware\ble/cy_ble_gap.h **** 
 370:Generated_Source\PSoC6\pdl\middleware\ble/cy_ble_gap.h ****     /** Source buffer length */
 371:Generated_Source\PSoC6\pdl\middleware\ble/cy_ble_gap.h ****     uint32_t      buffLen;
 372:Generated_Source\PSoC6\pdl\middleware\ble/cy_ble_gap.h ****     
 373:Generated_Source\PSoC6\pdl\middleware\ble/cy_ble_gap.h ****     /** Write mode: blocking (default) / non-blocking */
 374:Generated_Source\PSoC6\pdl\middleware\ble/cy_ble_gap.h ****     uint32_t      writeMode;
 375:Generated_Source\PSoC6\pdl\middleware\ble/cy_ble_gap.h ****     
 376:Generated_Source\PSoC6\pdl\middleware\ble/cy_ble_gap.h **** } cy_stc_ble_app_flash_param_t;
 377:Generated_Source\PSoC6\pdl\middleware\ble/cy_ble_gap.h **** 
 378:Generated_Source\PSoC6\pdl\middleware\ble/cy_ble_gap.h **** /** @} group_ble_common_api_gap_definitions */
 379:Generated_Source\PSoC6\pdl\middleware\ble/cy_ble_gap.h ****  
 380:Generated_Source\PSoC6\pdl\middleware\ble/cy_ble_gap.h **** /***************************************
 381:Generated_Source\PSoC6\pdl\middleware\ble/cy_ble_gap.h **** * API Constants
 382:Generated_Source\PSoC6\pdl\middleware\ble/cy_ble_gap.h **** ***************************************/
 383:Generated_Source\PSoC6\pdl\middleware\ble/cy_ble_gap.h **** #define CY_BLE_AD_TYPE_MORE16UUID                  (0x02u)
 384:Generated_Source\PSoC6\pdl\middleware\ble/cy_ble_gap.h **** #define CY_BLE_AD_TYPE_CMPL16UUID                  (0x03u)
 385:Generated_Source\PSoC6\pdl\middleware\ble/cy_ble_gap.h **** #define CY_BLE_AD_TYPE_MORE32UUID                  (0x04u)
 386:Generated_Source\PSoC6\pdl\middleware\ble/cy_ble_gap.h **** #define CY_BLE_AD_TYPE_CMPL32UUID                  (0x05u)
 387:Generated_Source\PSoC6\pdl\middleware\ble/cy_ble_gap.h **** #define CY_BLE_AD_TYPE_MORE128UUID                 (0x06u)
 388:Generated_Source\PSoC6\pdl\middleware\ble/cy_ble_gap.h **** #define CY_BLE_AD_TYPE_CMPL128UUID                 (0x07u)
 389:Generated_Source\PSoC6\pdl\middleware\ble/cy_ble_gap.h **** 
 390:Generated_Source\PSoC6\pdl\middleware\ble/cy_ble_gap.h **** #define CY_BLE_AD_TYPE_SERVICE_DATA                (0x16u)
 391:Generated_Source\PSoC6\pdl\middleware\ble/cy_ble_gap.h **** #define CY_BLE_AD_SERVICE_DATA_OVERHEAD            (0x03u)
 392:Generated_Source\PSoC6\pdl\middleware\ble/cy_ble_gap.h **** 
 393:Generated_Source\PSoC6\pdl\middleware\ble/cy_ble_gap.h **** #define CY_BLE_DISCOVERY_IDLE                      (0x00u)
 394:Generated_Source\PSoC6\pdl\middleware\ble/cy_ble_gap.h **** #define CY_BLE_DISCOVERY_SERVICE                   (0x01u)
 395:Generated_Source\PSoC6\pdl\middleware\ble/cy_ble_gap.h **** #define CY_BLE_DISCOVERY_CHAR                      (0x02u)
 396:Generated_Source\PSoC6\pdl\middleware\ble/cy_ble_gap.h **** #define CY_BLE_DISCOVERY_DESCR                     (0x03u)
 397:Generated_Source\PSoC6\pdl\middleware\ble/cy_ble_gap.h **** #define CY_BLE_DISCOVERY_DONE                      (0x04u)
 398:Generated_Source\PSoC6\pdl\middleware\ble/cy_ble_gap.h **** 
 399:Generated_Source\PSoC6\pdl\middleware\ble/cy_ble_gap.h **** /* Cy_BLE_NextCharDscrDiscovery parameters */
 400:Generated_Source\PSoC6\pdl\middleware\ble/cy_ble_gap.h **** #define CY_BLE_DISCOVERY_INIT                      (0x00u)
 401:Generated_Source\PSoC6\pdl\middleware\ble/cy_ble_gap.h **** #define CY_BLE_DISCOVERY_CONTINUE                  (0x01u)
 402:Generated_Source\PSoC6\pdl\middleware\ble/cy_ble_gap.h **** 
 403:Generated_Source\PSoC6\pdl\middleware\ble/cy_ble_gap.h **** #define CY_BLE_SFLASH_DIE_X_MASK                   (0x3Fu)
 404:Generated_Source\PSoC6\pdl\middleware\ble/cy_ble_gap.h **** #define CY_BLE_SFLASH_DIE_X_BITS                   (6u)
 405:Generated_Source\PSoC6\pdl\middleware\ble/cy_ble_gap.h **** #define CY_BLE_SFLASH_DIE_Y_MASK                   (0x3Fu)
 406:Generated_Source\PSoC6\pdl\middleware\ble/cy_ble_gap.h **** #define CY_BLE_SFLASH_DIE_Y_BITS                   (6u)
 407:Generated_Source\PSoC6\pdl\middleware\ble/cy_ble_gap.h **** #define CY_BLE_SFLASH_DIE_XY_BITS                  (CY_BLE_SFLASH_DIE_X_BITS + CY_BLE_SFLASH_DIE_Y_
 408:Generated_Source\PSoC6\pdl\middleware\ble/cy_ble_gap.h **** #define CY_BLE_SFLASH_DIE_WAFER_MASK               (0x1Fu)
 409:Generated_Source\PSoC6\pdl\middleware\ble/cy_ble_gap.h **** #define CY_BLE_SFLASH_DIE_WAFER_BITS               (5u)
 410:Generated_Source\PSoC6\pdl\middleware\ble/cy_ble_gap.h **** #define CY_BLE_SFLASH_DIE_XYWAFER_BITS             (CY_BLE_SFLASH_DIE_XY_BITS + CY_BLE_SFLASH_DIE_W
 411:Generated_Source\PSoC6\pdl\middleware\ble/cy_ble_gap.h **** #define CY_BLE_SFLASH_DIE_LOT_MASK                 (0x7Fu)
 412:Generated_Source\PSoC6\pdl\middleware\ble/cy_ble_gap.h **** #define CY_BLE_SFLASH_DIE_LOT_BITS                 (7u)
 413:Generated_Source\PSoC6\pdl\middleware\ble/cy_ble_gap.h **** 
 414:Generated_Source\PSoC6\pdl\middleware\ble/cy_ble_gap.h **** /* Device address stored by user in ROW4 of the SFLASH */
 415:Generated_Source\PSoC6\pdl\middleware\ble/cy_ble_gap.h **** #define CY_BLE_SFLASH_DEVICE_ADDRESS_PTR           ((cy_stc_ble_gap_bd_addr_t*)(SFLASH->BLE_DEVICE_
 416:Generated_Source\PSoC6\pdl\middleware\ble/cy_ble_gap.h **** #define CY_BLE_AD_STRUCTURE_MAX_LENGTH             (31u)
 417:Generated_Source\PSoC6\pdl\middleware\ble/cy_ble_gap.h **** 
ARM GAS  C:\Users\gjl\AppData\Local\Temp\ccRZOvUj.s 			page 26


 418:Generated_Source\PSoC6\pdl\middleware\ble/cy_ble_gap.h **** /* AD types for complete, shortened local name and device address */
 419:Generated_Source\PSoC6\pdl\middleware\ble/cy_ble_gap.h **** #define CY_BLE_SHORT_LOCAL_NAME                    (0x08u)  /**< Shortened Local Name */
 420:Generated_Source\PSoC6\pdl\middleware\ble/cy_ble_gap.h **** #define CY_BLE_COMPLETE_LOCAL_NAME                 (0x09u)  /**< Complete Local Name */
 421:Generated_Source\PSoC6\pdl\middleware\ble/cy_ble_gap.h **** #define CY_BLE_ADV_DEVICE_ADDR                     (0x1Bu)  /**< LE Bluetooth Device Address */
 422:Generated_Source\PSoC6\pdl\middleware\ble/cy_ble_gap.h **** 
 423:Generated_Source\PSoC6\pdl\middleware\ble/cy_ble_gap.h **** #define CY_BLE_ADVERTISING_FAST                    (0x00u)
 424:Generated_Source\PSoC6\pdl\middleware\ble/cy_ble_gap.h **** #define CY_BLE_ADVERTISING_SLOW                    (0x01u)
 425:Generated_Source\PSoC6\pdl\middleware\ble/cy_ble_gap.h **** #define CY_BLE_ADVERTISING_CUSTOM                  (0x02u)
 426:Generated_Source\PSoC6\pdl\middleware\ble/cy_ble_gap.h **** 
 427:Generated_Source\PSoC6\pdl\middleware\ble/cy_ble_gap.h **** #define CY_BLE_SCANNING_FAST                       (0x00u)
 428:Generated_Source\PSoC6\pdl\middleware\ble/cy_ble_gap.h **** #define CY_BLE_SCANNING_SLOW                       (0x01u)
 429:Generated_Source\PSoC6\pdl\middleware\ble/cy_ble_gap.h **** #define CY_BLE_SCANNING_CUSTOM                     (0x02u)
 430:Generated_Source\PSoC6\pdl\middleware\ble/cy_ble_gap.h **** 
 431:Generated_Source\PSoC6\pdl\middleware\ble/cy_ble_gap.h **** #define CY_BLE_PENDING_STACK_FLASH_WRITE_BIT       (0x01u)
 432:Generated_Source\PSoC6\pdl\middleware\ble/cy_ble_gap.h **** #define CY_BLE_PENDING_CCCD_FLASH_WRITE_BIT        (0x02u)
 433:Generated_Source\PSoC6\pdl\middleware\ble/cy_ble_gap.h **** #define CY_BLE_PENDING_CCCD_FLASH_CLEAR_BIT        (0x04u)
 434:Generated_Source\PSoC6\pdl\middleware\ble/cy_ble_gap.h **** #define CY_BLE_PENDING_CCCD_FLASH_CLEAR_ALL_BIT    (0x08u)
 435:Generated_Source\PSoC6\pdl\middleware\ble/cy_ble_gap.h **** #define CY_BLE_PENDING_CCCD_FLASH_CLEAR_MASK \
 436:Generated_Source\PSoC6\pdl\middleware\ble/cy_ble_gap.h ****     (CY_BLE_PENDING_CCCD_FLASH_CLEAR_BIT | CY_BLE_PENDING_CCCD_FLASH_CLEAR_ALL_BIT)
 437:Generated_Source\PSoC6\pdl\middleware\ble/cy_ble_gap.h ****   
 438:Generated_Source\PSoC6\pdl\middleware\ble/cy_ble_gap.h **** /**
 439:Generated_Source\PSoC6\pdl\middleware\ble/cy_ble_gap.h ****  * \addtogroup group_ble_common_api_macros
 440:Generated_Source\PSoC6\pdl\middleware\ble/cy_ble_gap.h ****  * @{
 441:Generated_Source\PSoC6\pdl\middleware\ble/cy_ble_gap.h ****  */
 442:Generated_Source\PSoC6\pdl\middleware\ble/cy_ble_gap.h ****  
 443:Generated_Source\PSoC6\pdl\middleware\ble/cy_ble_gap.h **** /* GAP Advertisement Flags */
 444:Generated_Source\PSoC6\pdl\middleware\ble/cy_ble_gap.h **** #define CY_BLE_GAP_ADV_FLAG_LE_LIMITED_DISC_MODE        (0x01u)     /**< LE Limited Discoverable Mo
 445:Generated_Source\PSoC6\pdl\middleware\ble/cy_ble_gap.h **** #define CY_BLE_GAP_ADV_FLAG_LE_GENERAL_DISC_MODE        (0x02u)     /**< LE General Discoverable Mo
 446:Generated_Source\PSoC6\pdl\middleware\ble/cy_ble_gap.h **** #define CY_BLE_GAP_ADV_FLAG_BR_EDR_NOT_SUPPORTED        (0x04u)     /**< BR/EDR not supported. */
 447:Generated_Source\PSoC6\pdl\middleware\ble/cy_ble_gap.h **** #define CY_BLE_GAP_ADV_FLAG_LE_BR_EDR_CONTROLLER        (0x08u)     /**< Simultaneous LE and BR/EDR
 448:Generated_Source\PSoC6\pdl\middleware\ble/cy_ble_gap.h **** #define CY_BLE_GAP_ADV_FLAG_LE_BR_EDR_HOST              (0x10u)     /**< Simultaneous LE and BR/EDR
 449:Generated_Source\PSoC6\pdl\middleware\ble/cy_ble_gap.h **** #define CY_BLE_GAP_ADV_FLAGS_PACKET_LENGTH              (0x02u)     /**< Length of flags in an adve
 450:Generated_Source\PSoC6\pdl\middleware\ble/cy_ble_gap.h **** 
 451:Generated_Source\PSoC6\pdl\middleware\ble/cy_ble_gap.h **** /* GAP Advertising interval min and max */
 452:Generated_Source\PSoC6\pdl\middleware\ble/cy_ble_gap.h **** #define CY_BLE_GAP_ADV_ADVERT_INTERVAL_MIN              (0x0020u)   /**< Minimum Advertising interv
 453:Generated_Source\PSoC6\pdl\middleware\ble/cy_ble_gap.h ****                                                                      *   i.e. 20 ms. */
 454:Generated_Source\PSoC6\pdl\middleware\ble/cy_ble_gap.h **** #define CY_BLE_GAP_ADV_ADVERT_INTERVAL_NONCON_MIN       (0x00A0u)   /**< Minimum Advertising interv
 455:Generated_Source\PSoC6\pdl\middleware\ble/cy_ble_gap.h ****                                                                      *   for non connectable mode, 
 456:Generated_Source\PSoC6\pdl\middleware\ble/cy_ble_gap.h **** #define CY_BLE_GAP_ADV_ADVERT_INTERVAL_MAX              (0x4000u)   /**< Maximum Advertising interv
 457:Generated_Source\PSoC6\pdl\middleware\ble/cy_ble_gap.h ****                                                                      *   i.e. 10.24 s. */
 458:Generated_Source\PSoC6\pdl\middleware\ble/cy_ble_gap.h **** #define CY_BLE_GAP_ADV_ADVERT_INTERVAL_PACKET_LENGTH    (0x03u)     /**< Length of the Advertising 
 459:Generated_Source\PSoC6\pdl\middleware\ble/cy_ble_gap.h ****                                                                      *   an advertisement packet */
 460:Generated_Source\PSoC6\pdl\middleware\ble/cy_ble_gap.h **** #define CY_BLE_GAPC_CONNECTING_TIMEOUT                  (30u)       /**< Seconds */
 461:Generated_Source\PSoC6\pdl\middleware\ble/cy_ble_gap.h **** #define CY_BLE_INVALID_CONN_HANDLE_VALUE                (0xFFu)     /**< Invalid Connection Handle 
 462:Generated_Source\PSoC6\pdl\middleware\ble/cy_ble_gap.h **** 
 463:Generated_Source\PSoC6\pdl\middleware\ble/cy_ble_gap.h **** /* Write mode for Cy_BLE_StoreAppData */
 464:Generated_Source\PSoC6\pdl\middleware\ble/cy_ble_gap.h **** #define CY_BLE_STORE_DATA_MODE_BLOCKING                 (0x0u)      /**< Blocking write */
 465:Generated_Source\PSoC6\pdl\middleware\ble/cy_ble_gap.h **** #define CY_BLE_STORE_DATA_MODE_NON_BLOCKING             (0x1u)      /**< Non-blocking write */
 466:Generated_Source\PSoC6\pdl\middleware\ble/cy_ble_gap.h **** 
 467:Generated_Source\PSoC6\pdl\middleware\ble/cy_ble_gap.h **** /** @} group_ble_common_api_macros */
 468:Generated_Source\PSoC6\pdl\middleware\ble/cy_ble_gap.h **** 
 469:Generated_Source\PSoC6\pdl\middleware\ble/cy_ble_gap.h **** /***************************************
 470:Generated_Source\PSoC6\pdl\middleware\ble/cy_ble_gap.h **** * Private Function Prototypes
 471:Generated_Source\PSoC6\pdl\middleware\ble/cy_ble_gap.h **** ***************************************/
 472:Generated_Source\PSoC6\pdl\middleware\ble/cy_ble_gap.h **** void Cy_BLE_ServiceInit(void);
 473:Generated_Source\PSoC6\pdl\middleware\ble/cy_ble_gap.h **** uint32_t Cy_BLE_GetDiscoveryIdx(cy_stc_ble_conn_handle_t connHandle);
 474:Generated_Source\PSoC6\pdl\middleware\ble/cy_ble_gap.h **** 
ARM GAS  C:\Users\gjl\AppData\Local\Temp\ccRZOvUj.s 			page 27


 475:Generated_Source\PSoC6\pdl\middleware\ble/cy_ble_gap.h **** /***************************************
 476:Generated_Source\PSoC6\pdl\middleware\ble/cy_ble_gap.h **** * Function Prototypes
 477:Generated_Source\PSoC6\pdl\middleware\ble/cy_ble_gap.h **** ***************************************/
 478:Generated_Source\PSoC6\pdl\middleware\ble/cy_ble_gap.h **** /**
 479:Generated_Source\PSoC6\pdl\middleware\ble/cy_ble_gap.h ****  * \addtogroup group_ble_common_api_functions
 480:Generated_Source\PSoC6\pdl\middleware\ble/cy_ble_gap.h ****  * @{
 481:Generated_Source\PSoC6\pdl\middleware\ble/cy_ble_gap.h ****  */
 482:Generated_Source\PSoC6\pdl\middleware\ble/cy_ble_gap.h **** 
 483:Generated_Source\PSoC6\pdl\middleware\ble/cy_ble_gap.h **** cy_en_ble_api_result_t Cy_BLE_StoreAppData(const cy_stc_ble_app_flash_param_t *param);
 484:Generated_Source\PSoC6\pdl\middleware\ble/cy_ble_gap.h **** 
 485:Generated_Source\PSoC6\pdl\middleware\ble/cy_ble_gap.h **** #if ((CY_BLE_GAP_ROLE_PERIPHERAL || CY_BLE_GAP_ROLE_CENTRAL) && (CY_BLE_BONDING_REQUIREMENT == CY_B
 486:Generated_Source\PSoC6\pdl\middleware\ble/cy_ble_gap.h **** cy_en_ble_api_result_t Cy_BLE_StoreBondingData(void);
 487:Generated_Source\PSoC6\pdl\middleware\ble/cy_ble_gap.h **** cy_en_ble_api_result_t Cy_BLE_GAP_RemoveBondedDevice(cy_stc_ble_gap_bd_addr_t* bdAddr);
 488:Generated_Source\PSoC6\pdl\middleware\ble/cy_ble_gap.h **** #endif /* (CY_BLE_GAP_ROLE_PERIPHERAL || CY_BLE_GAP_ROLE_CENTRAL) && (CY_BLE_BONDING_REQUIREMENT ==
 489:Generated_Source\PSoC6\pdl\middleware\ble/cy_ble_gap.h **** 
 490:Generated_Source\PSoC6\pdl\middleware\ble/cy_ble_gap.h **** #if (CY_BLE_GAP_ROLE_PERIPHERAL || CY_BLE_GAP_ROLE_CENTRAL)
 491:Generated_Source\PSoC6\pdl\middleware\ble/cy_ble_gap.h **** bool Cy_BLE_IsPeerConnected(uint8_t *bdAddr);
 492:Generated_Source\PSoC6\pdl\middleware\ble/cy_ble_gap.h **** bool Cy_BLE_IsDevicePaired(cy_stc_ble_conn_handle_t *connHandle);
 493:Generated_Source\PSoC6\pdl\middleware\ble/cy_ble_gap.h **** uint8_t Cy_BLE_GetDeviceRole(cy_stc_ble_conn_handle_t *connHandle);
 494:Generated_Source\PSoC6\pdl\middleware\ble/cy_ble_gap.h **** 
 495:Generated_Source\PSoC6\pdl\middleware\ble/cy_ble_gap.h **** cy_en_ble_api_result_t Cy_BLE_GetRssiPeer(uint8_t  bdHandle);
 496:Generated_Source\PSoC6\pdl\middleware\ble/cy_ble_gap.h **** #endif /* (CY_BLE_GAP_ROLE_PERIPHERAL || CY_BLE_GAP_ROLE_CENTRAL) */
 497:Generated_Source\PSoC6\pdl\middleware\ble/cy_ble_gap.h **** /** @} group_ble_common_api_functions */
 498:Generated_Source\PSoC6\pdl\middleware\ble/cy_ble_gap.h **** 
 499:Generated_Source\PSoC6\pdl\middleware\ble/cy_ble_gap.h **** /**
 500:Generated_Source\PSoC6\pdl\middleware\ble/cy_ble_gap.h ****  * \addtogroup group_ble_common_api_gap_peripheral_functions
 501:Generated_Source\PSoC6\pdl\middleware\ble/cy_ble_gap.h ****  * @{
 502:Generated_Source\PSoC6\pdl\middleware\ble/cy_ble_gap.h ****  */
 503:Generated_Source\PSoC6\pdl\middleware\ble/cy_ble_gap.h ****  
 504:Generated_Source\PSoC6\pdl\middleware\ble/cy_ble_gap.h **** #if (CY_BLE_GAP_ROLE_PERIPHERAL || CY_BLE_GAP_ROLE_BROADCASTER)
 505:Generated_Source\PSoC6\pdl\middleware\ble/cy_ble_gap.h **** cy_en_ble_api_result_t Cy_BLE_GAPP_StartAdvertisement(uint8_t advertisingIntervalType, uint8_t adve
 506:Generated_Source\PSoC6\pdl\middleware\ble/cy_ble_gap.h **** cy_en_ble_api_result_t Cy_BLE_GAPP_StopAdvertisement(void);
 507:Generated_Source\PSoC6\pdl\middleware\ble/cy_ble_gap.h **** 
 508:Generated_Source\PSoC6\pdl\middleware\ble/cy_ble_gap.h **** /** \cond IGNORE */
 509:Generated_Source\PSoC6\pdl\middleware\ble/cy_ble_gap.h **** void Cy_BLE_ChangeAdDeviceAddress(const cy_stc_ble_gap_bd_addr_t* bdAddr, uint8_t dest);
 510:Generated_Source\PSoC6\pdl\middleware\ble/cy_ble_gap.h **** /** \endcond */
 511:Generated_Source\PSoC6\pdl\middleware\ble/cy_ble_gap.h **** 
 512:Generated_Source\PSoC6\pdl\middleware\ble/cy_ble_gap.h **** #endif /* CY_BLE_GAP_ROLE_PERIPHERAL */
 513:Generated_Source\PSoC6\pdl\middleware\ble/cy_ble_gap.h **** 
 514:Generated_Source\PSoC6\pdl\middleware\ble/cy_ble_gap.h **** /** @} group_ble_common_api_gap_peripheral_functions */
 515:Generated_Source\PSoC6\pdl\middleware\ble/cy_ble_gap.h **** 
 516:Generated_Source\PSoC6\pdl\middleware\ble/cy_ble_gap.h **** /**
 517:Generated_Source\PSoC6\pdl\middleware\ble/cy_ble_gap.h ****  * \addtogroup group_ble_common_api_gap_central_functions
 518:Generated_Source\PSoC6\pdl\middleware\ble/cy_ble_gap.h ****  * @{
 519:Generated_Source\PSoC6\pdl\middleware\ble/cy_ble_gap.h ****  */
 520:Generated_Source\PSoC6\pdl\middleware\ble/cy_ble_gap.h ****  
 521:Generated_Source\PSoC6\pdl\middleware\ble/cy_ble_gap.h **** #if (CY_BLE_GAP_ROLE_CENTRAL || CY_BLE_GAP_ROLE_OBSERVER)
 522:Generated_Source\PSoC6\pdl\middleware\ble/cy_ble_gap.h **** cy_en_ble_api_result_t Cy_BLE_GAPC_StartScan(uint8_t scanningIntervalType, uint8_t scanParamIndex);
 523:Generated_Source\PSoC6\pdl\middleware\ble/cy_ble_gap.h **** cy_en_ble_api_result_t Cy_BLE_GAPC_StopScan(void);
 524:Generated_Source\PSoC6\pdl\middleware\ble/cy_ble_gap.h **** #endif /* CY_BLE_GAP_ROLE_CENTRAL || CY_BLE_GAP_ROLE_OBSERVER */
 525:Generated_Source\PSoC6\pdl\middleware\ble/cy_ble_gap.h **** 
 526:Generated_Source\PSoC6\pdl\middleware\ble/cy_ble_gap.h **** #if (CY_BLE_GAP_ROLE_CENTRAL)
 527:Generated_Source\PSoC6\pdl\middleware\ble/cy_ble_gap.h **** cy_en_ble_api_result_t Cy_BLE_GAPC_ConnectDevice(const cy_stc_ble_gap_bd_addr_t * address, uint8_t 
 528:Generated_Source\PSoC6\pdl\middleware\ble/cy_ble_gap.h **** cy_en_ble_api_result_t Cy_BLE_GAPC_CancelDeviceConnection(void);
 529:Generated_Source\PSoC6\pdl\middleware\ble/cy_ble_gap.h **** #endif /* CY_BLE_GAP_ROLE_CENTRAL */
 530:Generated_Source\PSoC6\pdl\middleware\ble/cy_ble_gap.h **** 
 531:Generated_Source\PSoC6\pdl\middleware\ble/cy_ble_gap.h **** /** @} group_ble_common_api_gap_central_functions */
ARM GAS  C:\Users\gjl\AppData\Local\Temp\ccRZOvUj.s 			page 28


 532:Generated_Source\PSoC6\pdl\middleware\ble/cy_ble_gap.h **** 
 533:Generated_Source\PSoC6\pdl\middleware\ble/cy_ble_gap.h **** /***************************************
 534:Generated_Source\PSoC6\pdl\middleware\ble/cy_ble_gap.h **** * External data references
 535:Generated_Source\PSoC6\pdl\middleware\ble/cy_ble_gap.h **** ***************************************/
 536:Generated_Source\PSoC6\pdl\middleware\ble/cy_ble_gap.h **** extern volatile uint8_t cy_ble_eventHandlerFlag;
 537:Generated_Source\PSoC6\pdl\middleware\ble/cy_ble_gap.h **** extern cy_stc_ble_gap_bd_addr_t *cy_ble_sflashDeviceAddress;
 538:Generated_Source\PSoC6\pdl\middleware\ble/cy_ble_gap.h **** extern cy_stc_ble_gap_bd_addr_t cy_ble_deviceAddress;
 539:Generated_Source\PSoC6\pdl\middleware\ble/cy_ble_gap.h **** extern cy_en_ble_state_t cy_ble_state;
 540:Generated_Source\PSoC6\pdl\middleware\ble/cy_ble_gap.h **** 
 541:Generated_Source\PSoC6\pdl\middleware\ble/cy_ble_gap.h **** #if ((CY_BLE_GAP_ROLE_PERIPHERAL || CY_BLE_GAP_ROLE_CENTRAL))
 542:Generated_Source\PSoC6\pdl\middleware\ble/cy_ble_gap.h **** extern cy_stc_ble_gap_auth_info_t cy_ble_authInfo[CY_BLE_AUTH_INFO_COUNT];
 543:Generated_Source\PSoC6\pdl\middleware\ble/cy_ble_gap.h **** #endif /* ((CY_BLE_GAP_ROLE_PERIPHERAL || CY_BLE_GAP_ROLE_CENTRAL)) */
 544:Generated_Source\PSoC6\pdl\middleware\ble/cy_ble_gap.h **** 
 545:Generated_Source\PSoC6\pdl\middleware\ble/cy_ble_gap.h **** #if (CY_BLE_GAP_ROLE_PERIPHERAL || CY_BLE_GAP_ROLE_BROADCASTER)
 546:Generated_Source\PSoC6\pdl\middleware\ble/cy_ble_gap.h **** extern cy_en_ble_adv_state_t cy_ble_advState;
 547:Generated_Source\PSoC6\pdl\middleware\ble/cy_ble_gap.h **** extern uint8_t cy_ble_advIndex;
 548:Generated_Source\PSoC6\pdl\middleware\ble/cy_ble_gap.h **** #endif  /* (CY_BLE_GAP_ROLE_PERIPHERAL || CY_BLE_GAP_ROLE_BROADCASTER) */
 549:Generated_Source\PSoC6\pdl\middleware\ble/cy_ble_gap.h **** 
 550:Generated_Source\PSoC6\pdl\middleware\ble/cy_ble_gap.h **** #if (CY_BLE_GAP_ROLE_CENTRAL || CY_BLE_GAP_ROLE_OBSERVER)
 551:Generated_Source\PSoC6\pdl\middleware\ble/cy_ble_gap.h **** extern cy_en_ble_scan_state_t cy_ble_scanState;
 552:Generated_Source\PSoC6\pdl\middleware\ble/cy_ble_gap.h **** extern uint8_t cy_ble_scanIndex;
 553:Generated_Source\PSoC6\pdl\middleware\ble/cy_ble_gap.h **** #endif /* (CY_BLE_GAP_ROLE_CENTRAL || CY_BLE_GAP_ROLE_OBSERVER) */
 554:Generated_Source\PSoC6\pdl\middleware\ble/cy_ble_gap.h **** 
 555:Generated_Source\PSoC6\pdl\middleware\ble/cy_ble_gap.h **** #if ((CY_BLE_GAP_ROLE_PERIPHERAL || CY_BLE_GAP_ROLE_CENTRAL))
 556:Generated_Source\PSoC6\pdl\middleware\ble/cy_ble_gap.h **** extern cy_stc_ble_conn_handle_t cy_ble_connHandle[CY_BLE_CONN_COUNT];
 557:Generated_Source\PSoC6\pdl\middleware\ble/cy_ble_gap.h **** extern cy_en_ble_conn_state_t cy_ble_connState[CY_BLE_CONN_COUNT];
 558:Generated_Source\PSoC6\pdl\middleware\ble/cy_ble_gap.h **** 
 559:Generated_Source\PSoC6\pdl\middleware\ble/cy_ble_gap.h **** extern volatile uint8_t cy_ble_devConnRole[CY_BLE_CONN_COUNT];                                     
 560:Generated_Source\PSoC6\pdl\middleware\ble/cy_ble_gap.h **** extern volatile bool cy_ble_pairStatus[CY_BLE_CONN_COUNT];
 561:Generated_Source\PSoC6\pdl\middleware\ble/cy_ble_gap.h **** 
 562:Generated_Source\PSoC6\pdl\middleware\ble/cy_ble_gap.h **** #endif /* ((CY_BLE_GAP_ROLE_PERIPHERAL || CY_BLE_GAP_ROLE_CENTRAL)) */
 563:Generated_Source\PSoC6\pdl\middleware\ble/cy_ble_gap.h **** 
 564:Generated_Source\PSoC6\pdl\middleware\ble/cy_ble_gap.h **** #if (CY_BLE_GAP_ROLE_CENTRAL || CY_BLE_GAP_ROLE_OBSERVER)
 565:Generated_Source\PSoC6\pdl\middleware\ble/cy_ble_gap.h **** extern cy_stc_ble_gapc_disc_info_t cy_ble_discoveryInfo[CY_BLE_GAPC_CONF_COUNT];
 566:Generated_Source\PSoC6\pdl\middleware\ble/cy_ble_gap.h **** #endif /* CY_BLE_GAP_ROLE_CENTRAL || CY_BLE_GAP_ROLE_OBSERVER */
 567:Generated_Source\PSoC6\pdl\middleware\ble/cy_ble_gap.h **** 
 568:Generated_Source\PSoC6\pdl\middleware\ble/cy_ble_gap.h **** #if (CY_BLE_GAP_ROLE_CENTRAL)
 569:Generated_Source\PSoC6\pdl\middleware\ble/cy_ble_gap.h **** extern cy_stc_ble_gapc_conn_info_t cy_ble_connectionParameters;
 570:Generated_Source\PSoC6\pdl\middleware\ble/cy_ble_gap.h **** extern cy_stc_ble_timer_info_t cy_ble_connectingTimeout;
 571:Generated_Source\PSoC6\pdl\middleware\ble/cy_ble_gap.h **** #endif /* CY_BLE_GAP_ROLE_CENTRAL */
 572:Generated_Source\PSoC6\pdl\middleware\ble/cy_ble_gap.h **** 
 573:Generated_Source\PSoC6\pdl\middleware\ble/cy_ble_gap.h **** #if (CY_BLE_GAP_ROLE_PERIPHERAL || CY_BLE_GAP_ROLE_BROADCASTER)
 574:Generated_Source\PSoC6\pdl\middleware\ble/cy_ble_gap.h **** extern cy_stc_ble_gapp_disc_mode_info_t cy_ble_discoveryModeInfo[CY_BLE_GAPP_CONF_COUNT];
 575:Generated_Source\PSoC6\pdl\middleware\ble/cy_ble_gap.h **** extern cy_stc_ble_gapp_disc_param_t cy_ble_discoveryParam[CY_BLE_GAPP_CONF_COUNT];
 576:Generated_Source\PSoC6\pdl\middleware\ble/cy_ble_gap.h **** extern cy_stc_ble_gapp_disc_data_t cy_ble_discoveryData[CY_BLE_GAPP_CONF_COUNT];
 577:Generated_Source\PSoC6\pdl\middleware\ble/cy_ble_gap.h **** extern cy_stc_ble_gapp_scan_rsp_data_t cy_ble_scanRspData[CY_BLE_GAPP_CONF_COUNT];
 578:Generated_Source\PSoC6\pdl\middleware\ble/cy_ble_gap.h **** #endif /* CY_BLE_GAP_ROLE_PERIPHERAL || CY_BLE_GAP_ROLE_BROADCASTER */
 579:Generated_Source\PSoC6\pdl\middleware\ble/cy_ble_gap.h **** 
 580:Generated_Source\PSoC6\pdl\middleware\ble/cy_ble_gap.h **** #if ((CY_BLE_GAP_ROLE_PERIPHERAL || CY_BLE_GAP_ROLE_CENTRAL) && (CY_BLE_BONDING_REQUIREMENT == CY_B
 581:Generated_Source\PSoC6\pdl\middleware\ble/cy_ble_gap.h **** 
 582:Generated_Source\PSoC6\pdl\middleware\ble/cy_ble_gap.h **** /**
 583:Generated_Source\PSoC6\pdl\middleware\ble/cy_ble_gap.h ****  * \addtogroup group_ble_common_api_global_variables
 584:Generated_Source\PSoC6\pdl\middleware\ble/cy_ble_gap.h ****  * @{
 585:Generated_Source\PSoC6\pdl\middleware\ble/cy_ble_gap.h ****  */  
 586:Generated_Source\PSoC6\pdl\middleware\ble/cy_ble_gap.h **** /** This is a two-bit variable that contains status of pending write to flash operation.
 587:Generated_Source\PSoC6\pdl\middleware\ble/cy_ble_gap.h ****  * This variable is initialized to zero in Cy_BLE_Init().
 588:Generated_Source\PSoC6\pdl\middleware\ble/cy_ble_gap.h ****  * CY_BLE_PENDING_CCCD_FLASH_WRITE_BIT flag is set after write to CCCD event when a
ARM GAS  C:\Users\gjl\AppData\Local\Temp\ccRZOvUj.s 			page 29


 589:Generated_Source\PSoC6\pdl\middleware\ble/cy_ble_gap.h ****  * peer device supports bonding (cy_ble_peerBonding[eventParam->connHandle.attId] == CY_BLE_GAP_BON
 590:Generated_Source\PSoC6\pdl\middleware\ble/cy_ble_gap.h ****  * CY_BLE_PENDING_STACK_FLASH_WRITE_BIT flag is set after CY_BLE_EVT_PENDING_FLASH_WRITE event.
 591:Generated_Source\PSoC6\pdl\middleware\ble/cy_ble_gap.h ****  * Cy_BLE_StoreBondingData() should be called to store pending bonding data.
 592:Generated_Source\PSoC6\pdl\middleware\ble/cy_ble_gap.h ****  * This function automatically clears pending bits after write operation is complete.
 593:Generated_Source\PSoC6\pdl\middleware\ble/cy_ble_gap.h ****  */
 594:Generated_Source\PSoC6\pdl\middleware\ble/cy_ble_gap.h **** extern uint8_t cy_ble_pendingFlashWrite;
 595:Generated_Source\PSoC6\pdl\middleware\ble/cy_ble_gap.h **** /** @} group_ble_common_api_global_variables */
 596:Generated_Source\PSoC6\pdl\middleware\ble/cy_ble_gap.h ****     
 597:Generated_Source\PSoC6\pdl\middleware\ble/cy_ble_gap.h **** /** Bonding type setting of peer device, CY_BLE_GAP_BONDING_NONE or CY_BLE_GAP_BONDING.
 598:Generated_Source\PSoC6\pdl\middleware\ble/cy_ble_gap.h ****  * It is initialized after pairing with peer device and used for cy_ble_pendingFlashWrite variable
 599:Generated_Source\PSoC6\pdl\middleware\ble/cy_ble_gap.h ****  * setting.
 600:Generated_Source\PSoC6\pdl\middleware\ble/cy_ble_gap.h ****  */
 601:Generated_Source\PSoC6\pdl\middleware\ble/cy_ble_gap.h **** extern uint8_t cy_ble_peerBonding[CY_BLE_CONN_COUNT];
 602:Generated_Source\PSoC6\pdl\middleware\ble/cy_ble_gap.h **** 
 603:Generated_Source\PSoC6\pdl\middleware\ble/cy_ble_gap.h **** #endif  /* (CY_BLE_BONDING_REQUIREMENT == CY_BLE_BONDING_YES) */
 604:Generated_Source\PSoC6\pdl\middleware\ble/cy_ble_gap.h **** 
 605:Generated_Source\PSoC6\pdl\middleware\ble/cy_ble_gap.h **** 
 606:Generated_Source\PSoC6\pdl\middleware\ble/cy_ble_gap.h **** /***************************************
 607:Generated_Source\PSoC6\pdl\middleware\ble/cy_ble_gap.h **** * Exported Functions (MACROS)
 608:Generated_Source\PSoC6\pdl\middleware\ble/cy_ble_gap.h **** ***************************************/
 609:Generated_Source\PSoC6\pdl\middleware\ble/cy_ble_gap.h **** #if ((CY_BLE_GAP_ROLE_PERIPHERAL || CY_BLE_GAP_ROLE_CENTRAL))
 610:Generated_Source\PSoC6\pdl\middleware\ble/cy_ble_gap.h ****    
 611:Generated_Source\PSoC6\pdl\middleware\ble/cy_ble_gap.h **** /******************************************************************************
 612:Generated_Source\PSoC6\pdl\middleware\ble/cy_ble_gap.h **** * Function Name: Cy_BLE_GetConnHandleIdx
 613:Generated_Source\PSoC6\pdl\middleware\ble/cy_ble_gap.h **** ***************************************************************************//**
 614:Generated_Source\PSoC6\pdl\middleware\ble/cy_ble_gap.h **** *
 615:Generated_Source\PSoC6\pdl\middleware\ble/cy_ble_gap.h **** *  This function searches the array of connection handles (cy_ble_connHandle[])
 616:Generated_Source\PSoC6\pdl\middleware\ble/cy_ble_gap.h **** *  for the location (index) of a handle that corresponds to the input parameter
 617:Generated_Source\PSoC6\pdl\middleware\ble/cy_ble_gap.h **** *  connHandle. bdHandle.
 618:Generated_Source\PSoC6\pdl\middleware\ble/cy_ble_gap.h **** *
 619:Generated_Source\PSoC6\pdl\middleware\ble/cy_ble_gap.h **** *  This function is designated for internal usage. 
 620:Generated_Source\PSoC6\pdl\middleware\ble/cy_ble_gap.h **** *    
 621:Generated_Source\PSoC6\pdl\middleware\ble/cy_ble_gap.h **** *  \param connHandle: The connection handle.
 622:Generated_Source\PSoC6\pdl\middleware\ble/cy_ble_gap.h **** *
 623:Generated_Source\PSoC6\pdl\middleware\ble/cy_ble_gap.h **** *  \return
 624:Generated_Source\PSoC6\pdl\middleware\ble/cy_ble_gap.h **** *  retValue: the index of connHandle  
 625:Generated_Source\PSoC6\pdl\middleware\ble/cy_ble_gap.h **** *    
 626:Generated_Source\PSoC6\pdl\middleware\ble/cy_ble_gap.h **** ******************************************************************************/
 627:Generated_Source\PSoC6\pdl\middleware\ble/cy_ble_gap.h **** __STATIC_INLINE uint8_t Cy_BLE_GetConnHandleIdx(cy_stc_ble_conn_handle_t connHandle)
 628:Generated_Source\PSoC6\pdl\middleware\ble/cy_ble_gap.h **** {
 629:Generated_Source\PSoC6\pdl\middleware\ble/cy_ble_gap.h ****     uint8_t idx;
 630:Generated_Source\PSoC6\pdl\middleware\ble/cy_ble_gap.h ****     uint8_t retValue = CY_BLE_CONN_COUNT;
 631:Generated_Source\PSoC6\pdl\middleware\ble/cy_ble_gap.h **** 
 632:Generated_Source\PSoC6\pdl\middleware\ble/cy_ble_gap.h ****     for(idx = 0u; idx < CY_BLE_CONN_COUNT; idx++)
 633:Generated_Source\PSoC6\pdl\middleware\ble/cy_ble_gap.h ****     {
 634:Generated_Source\PSoC6\pdl\middleware\ble/cy_ble_gap.h ****         if(cy_ble_connHandle[idx].bdHandle == connHandle.bdHandle)
 635:Generated_Source\PSoC6\pdl\middleware\ble/cy_ble_gap.h ****         {
 636:Generated_Source\PSoC6\pdl\middleware\ble/cy_ble_gap.h ****             retValue = idx;
 637:Generated_Source\PSoC6\pdl\middleware\ble/cy_ble_gap.h ****             break;
 638:Generated_Source\PSoC6\pdl\middleware\ble/cy_ble_gap.h ****         }
 639:Generated_Source\PSoC6\pdl\middleware\ble/cy_ble_gap.h ****     }
 640:Generated_Source\PSoC6\pdl\middleware\ble/cy_ble_gap.h ****     if(retValue == CY_BLE_CONN_COUNT)
 641:Generated_Source\PSoC6\pdl\middleware\ble/cy_ble_gap.h ****     {
 642:Generated_Source\PSoC6\pdl\middleware\ble/cy_ble_gap.h ****         /* HALT in debug mode */
 643:Generated_Source\PSoC6\pdl\middleware\ble/cy_ble_gap.h ****         CY_ASSERT(retValue != CY_BLE_CONN_COUNT);
 644:Generated_Source\PSoC6\pdl\middleware\ble/cy_ble_gap.h ****         retValue = 0u;
 645:Generated_Source\PSoC6\pdl\middleware\ble/cy_ble_gap.h ****     }
ARM GAS  C:\Users\gjl\AppData\Local\Temp\ccRZOvUj.s 			page 30


 646:Generated_Source\PSoC6\pdl\middleware\ble/cy_ble_gap.h **** 
 647:Generated_Source\PSoC6\pdl\middleware\ble/cy_ble_gap.h ****     return(retValue);
 648:Generated_Source\PSoC6\pdl\middleware\ble/cy_ble_gap.h **** }
 649:Generated_Source\PSoC6\pdl\middleware\ble/cy_ble_gap.h **** #endif  /* ((CY_BLE_GAP_ROLE_PERIPHERAL || CY_BLE_GAP_ROLE_CENTRAL)) */
 650:Generated_Source\PSoC6\pdl\middleware\ble/cy_ble_gap.h **** 
 651:Generated_Source\PSoC6\pdl\middleware\ble/cy_ble_gap.h **** /**
 652:Generated_Source\PSoC6\pdl\middleware\ble/cy_ble_gap.h ****  * \addtogroup group_ble_common_api_functions
 653:Generated_Source\PSoC6\pdl\middleware\ble/cy_ble_gap.h ****  * @{
 654:Generated_Source\PSoC6\pdl\middleware\ble/cy_ble_gap.h **** */
 655:Generated_Source\PSoC6\pdl\middleware\ble/cy_ble_gap.h **** /******************************************************************************
 656:Generated_Source\PSoC6\pdl\middleware\ble/cy_ble_gap.h **** * Function Name: Cy_BLE_GetState
 657:Generated_Source\PSoC6\pdl\middleware\ble/cy_ble_gap.h **** ***************************************************************************//**
 658:Generated_Source\PSoC6\pdl\middleware\ble/cy_ble_gap.h **** *
 659:Generated_Source\PSoC6\pdl\middleware\ble/cy_ble_gap.h **** *  This function is used to determine the current state of the BLE Middleware
 660:Generated_Source\PSoC6\pdl\middleware\ble/cy_ble_gap.h **** *  state machine :
 661:Generated_Source\PSoC6\pdl\middleware\ble/cy_ble_gap.h **** *
 662:Generated_Source\PSoC6\pdl\middleware\ble/cy_ble_gap.h **** *  \image html ble_middleware_state_machine.png
 663:Generated_Source\PSoC6\pdl\middleware\ble/cy_ble_gap.h **** *
 664:Generated_Source\PSoC6\pdl\middleware\ble/cy_ble_gap.h **** *  The BLE Middleware is in the state #CY_BLE_STATE_INITIALIZING after the 
 665:Generated_Source\PSoC6\pdl\middleware\ble/cy_ble_gap.h **** *  Cy_BLE_Enable() is called and until the #CY_BLE_EVT_STACK_ON event is not 
 666:Generated_Source\PSoC6\pdl\middleware\ble/cy_ble_gap.h **** *  received. After successful initialization the state is changed to 
 667:Generated_Source\PSoC6\pdl\middleware\ble/cy_ble_gap.h **** *  #CY_BLE_STATE_ON.
 668:Generated_Source\PSoC6\pdl\middleware\ble/cy_ble_gap.h **** *
 669:Generated_Source\PSoC6\pdl\middleware\ble/cy_ble_gap.h **** *  The BLE Middleware is in the state #CY_BLE_STATE_STOPPED 
 670:Generated_Source\PSoC6\pdl\middleware\ble/cy_ble_gap.h **** *  when the #CY_BLE_EVT_STACK_SHUTDOWN_COMPLETE event is received (after the 
 671:Generated_Source\PSoC6\pdl\middleware\ble/cy_ble_gap.h **** *  Cy_BLE_Disable() is called).
 672:Generated_Source\PSoC6\pdl\middleware\ble/cy_ble_gap.h **** *  
 673:Generated_Source\PSoC6\pdl\middleware\ble/cy_ble_gap.h **** *  For GAP Central role when the Cy_BLE_GAPC_ConnectDevice() is called, the state
 674:Generated_Source\PSoC6\pdl\middleware\ble/cy_ble_gap.h **** *  is changed to #CY_BLE_STATE_CONNECTING. After successful connection indicated
 675:Generated_Source\PSoC6\pdl\middleware\ble/cy_ble_gap.h **** *  by #CY_BLE_EVT_GAP_DEVICE_CONNECTED or #CY_BLE_EVT_GAP_ENHANCE_CONN_COMPLETE
 676:Generated_Source\PSoC6\pdl\middleware\ble/cy_ble_gap.h **** *  event or the timeout indicated by #CY_BLE_EVT_TIMEOUT event, the state is
 677:Generated_Source\PSoC6\pdl\middleware\ble/cy_ble_gap.h **** *  changed to #CY_BLE_STATE_ON.
 678:Generated_Source\PSoC6\pdl\middleware\ble/cy_ble_gap.h **** *
 679:Generated_Source\PSoC6\pdl\middleware\ble/cy_ble_gap.h **** * \return
 680:Generated_Source\PSoC6\pdl\middleware\ble/cy_ble_gap.h **** * \ref cy_en_ble_state_t : The current BLE Middleware state. The following are 
 681:Generated_Source\PSoC6\pdl\middleware\ble/cy_ble_gap.h **** *                         possible states:
 682:Generated_Source\PSoC6\pdl\middleware\ble/cy_ble_gap.h **** *
 683:Generated_Source\PSoC6\pdl\middleware\ble/cy_ble_gap.h **** *   State                      | Description
 684:Generated_Source\PSoC6\pdl\middleware\ble/cy_ble_gap.h **** *   -------------------------- | -----------
 685:Generated_Source\PSoC6\pdl\middleware\ble/cy_ble_gap.h **** *   CY_BLE_STATE_STOPPED       | BLE is turned off.
 686:Generated_Source\PSoC6\pdl\middleware\ble/cy_ble_gap.h **** *   CY_BLE_STATE_INITIALIZING  | BLE is initializing (waiting for #CY_BLE_EVT_STACK_ON event).
 687:Generated_Source\PSoC6\pdl\middleware\ble/cy_ble_gap.h **** *   CY_BLE_STATE_ON            | BLE is turned on.
 688:Generated_Source\PSoC6\pdl\middleware\ble/cy_ble_gap.h **** *   CY_BLE_STATE_CONNECTING    | BLE is connecting.
 689:Generated_Source\PSoC6\pdl\middleware\ble/cy_ble_gap.h **** 
 690:Generated_Source\PSoC6\pdl\middleware\ble/cy_ble_gap.h **** ******************************************************************************/
 691:Generated_Source\PSoC6\pdl\middleware\ble/cy_ble_gap.h **** #define Cy_BLE_GetState()    (cy_ble_state)
 692:Generated_Source\PSoC6\pdl\middleware\ble/cy_ble_gap.h **** 
 693:Generated_Source\PSoC6\pdl\middleware\ble/cy_ble_gap.h **** /** \cond IGNORE */
 694:Generated_Source\PSoC6\pdl\middleware\ble/cy_ble_gap.h **** /******************************************************************************
 695:Generated_Source\PSoC6\pdl\middleware\ble/cy_ble_gap.h **** * Function Name: Cy_BLE_SetState
 696:Generated_Source\PSoC6\pdl\middleware\ble/cy_ble_gap.h **** ***************************************************************************//**
 697:Generated_Source\PSoC6\pdl\middleware\ble/cy_ble_gap.h **** *
 698:Generated_Source\PSoC6\pdl\middleware\ble/cy_ble_gap.h **** *  Used to set the BLE Middleware state machine's state.
 699:Generated_Source\PSoC6\pdl\middleware\ble/cy_ble_gap.h **** *
 700:Generated_Source\PSoC6\pdl\middleware\ble/cy_ble_gap.h **** *  \param state: The desired state to which the event handler's
 701:Generated_Source\PSoC6\pdl\middleware\ble/cy_ble_gap.h **** *   state machine should be set. The parameter state is a variable
 702:Generated_Source\PSoC6\pdl\middleware\ble/cy_ble_gap.h **** *   of type cy_en_ble_state_t.
ARM GAS  C:\Users\gjl\AppData\Local\Temp\ccRZOvUj.s 			page 31


 703:Generated_Source\PSoC6\pdl\middleware\ble/cy_ble_gap.h **** *
 704:Generated_Source\PSoC6\pdl\middleware\ble/cy_ble_gap.h **** * \return
 705:Generated_Source\PSoC6\pdl\middleware\ble/cy_ble_gap.h **** *  None
 706:Generated_Source\PSoC6\pdl\middleware\ble/cy_ble_gap.h **** *
 707:Generated_Source\PSoC6\pdl\middleware\ble/cy_ble_gap.h **** ******************************************************************************/
 708:Generated_Source\PSoC6\pdl\middleware\ble/cy_ble_gap.h **** #define Cy_BLE_SetState(state)    (cy_ble_state = (state))
 709:Generated_Source\PSoC6\pdl\middleware\ble/cy_ble_gap.h **** /** \endcond */
 710:Generated_Source\PSoC6\pdl\middleware\ble/cy_ble_gap.h **** 
 711:Generated_Source\PSoC6\pdl\middleware\ble/cy_ble_gap.h **** #if (CY_BLE_GAP_ROLE_PERIPHERAL || CY_BLE_GAP_ROLE_BROADCASTER)
 712:Generated_Source\PSoC6\pdl\middleware\ble/cy_ble_gap.h **** 
 713:Generated_Source\PSoC6\pdl\middleware\ble/cy_ble_gap.h **** 
 714:Generated_Source\PSoC6\pdl\middleware\ble/cy_ble_gap.h **** /******************************************************************************
 715:Generated_Source\PSoC6\pdl\middleware\ble/cy_ble_gap.h **** * Function Name: Cy_BLE_GetAdvertisementState
 716:Generated_Source\PSoC6\pdl\middleware\ble/cy_ble_gap.h **** ***************************************************************************//**
 717:Generated_Source\PSoC6\pdl\middleware\ble/cy_ble_gap.h **** *    
 718:Generated_Source\PSoC6\pdl\middleware\ble/cy_ble_gap.h **** *  This function returns the state of the link layer hardware advertisement
 719:Generated_Source\PSoC6\pdl\middleware\ble/cy_ble_gap.h **** *  engine.
 720:Generated_Source\PSoC6\pdl\middleware\ble/cy_ble_gap.h **** *
 721:Generated_Source\PSoC6\pdl\middleware\ble/cy_ble_gap.h **** *  \image html ble_advertisement_state_machine.png
 722:Generated_Source\PSoC6\pdl\middleware\ble/cy_ble_gap.h **** *
 723:Generated_Source\PSoC6\pdl\middleware\ble/cy_ble_gap.h **** *  When Cy_BLE_GAPP_StartAdvertisement() is called, the state is set to
 724:Generated_Source\PSoC6\pdl\middleware\ble/cy_ble_gap.h **** *  #CY_BLE_ADV_STATE_ADV_INITIATED. It automatically changes to
 725:Generated_Source\PSoC6\pdl\middleware\ble/cy_ble_gap.h **** *  #CY_BLE_ADV_STATE_ADVERTISING when #CY_BLE_EVT_GAPP_ADVERTISEMENT_START_STOP
 726:Generated_Source\PSoC6\pdl\middleware\ble/cy_ble_gap.h **** *  event is received. When Cy_BLE_GAPP_StopAdvertisement() is called, the
 727:Generated_Source\PSoC6\pdl\middleware\ble/cy_ble_gap.h **** *  state is set to #CY_BLE_ADV_STATE_STOP_INITIATED. It automatically changes
 728:Generated_Source\PSoC6\pdl\middleware\ble/cy_ble_gap.h **** *  to #CY_BLE_ADV_STATE_STOPPED when the #CY_BLE_EVT_GAPP_ADVERTISEMENT_START_STOP
 729:Generated_Source\PSoC6\pdl\middleware\ble/cy_ble_gap.h **** *  event is received.
 730:Generated_Source\PSoC6\pdl\middleware\ble/cy_ble_gap.h **** *
 731:Generated_Source\PSoC6\pdl\middleware\ble/cy_ble_gap.h **** * \return
 732:Generated_Source\PSoC6\pdl\middleware\ble/cy_ble_gap.h **** * \ref cy_en_ble_adv_state_t :The current advertising state. The following are 
 733:Generated_Source\PSoC6\pdl\middleware\ble/cy_ble_gap.h **** *                              possible states.
 734:Generated_Source\PSoC6\pdl\middleware\ble/cy_ble_gap.h **** *
 735:Generated_Source\PSoC6\pdl\middleware\ble/cy_ble_gap.h **** *               State                |         Description
 736:Generated_Source\PSoC6\pdl\middleware\ble/cy_ble_gap.h **** *   -------------------------------- | -----------------------------
 737:Generated_Source\PSoC6\pdl\middleware\ble/cy_ble_gap.h **** *   CY_BLE_ADV_STATE_STOPPED         | Advertising is stopped.
 738:Generated_Source\PSoC6\pdl\middleware\ble/cy_ble_gap.h **** *   CY_BLE_ADV_STATE_ADV_INITIATED   | Advertising is initiated.
 739:Generated_Source\PSoC6\pdl\middleware\ble/cy_ble_gap.h **** *   CY_BLE_ADV_STATE_ADVERTISING     | Advertising is initiated.
 740:Generated_Source\PSoC6\pdl\middleware\ble/cy_ble_gap.h **** *   CY_BLE_ADV_STATE_STOP_INITIATED  | Stop advertising is initiated.
 741:Generated_Source\PSoC6\pdl\middleware\ble/cy_ble_gap.h **** *
 742:Generated_Source\PSoC6\pdl\middleware\ble/cy_ble_gap.h **** ******************************************************************************/
 743:Generated_Source\PSoC6\pdl\middleware\ble/cy_ble_gap.h **** __STATIC_INLINE cy_en_ble_adv_state_t Cy_BLE_GetAdvertisementState(void)
 744:Generated_Source\PSoC6\pdl\middleware\ble/cy_ble_gap.h **** {
 745:Generated_Source\PSoC6\pdl\middleware\ble/cy_ble_gap.h ****     return(cy_ble_advState);
 746:Generated_Source\PSoC6\pdl\middleware\ble/cy_ble_gap.h **** }
 747:Generated_Source\PSoC6\pdl\middleware\ble/cy_ble_gap.h **** 
 748:Generated_Source\PSoC6\pdl\middleware\ble/cy_ble_gap.h **** /** \cond IGNORE */
 749:Generated_Source\PSoC6\pdl\middleware\ble/cy_ble_gap.h **** /******************************************************************************
 750:Generated_Source\PSoC6\pdl\middleware\ble/cy_ble_gap.h **** * Function Name: Cy_BLE_SetAdvertisementState
 751:Generated_Source\PSoC6\pdl\middleware\ble/cy_ble_gap.h **** ***************************************************************************//**
 752:Generated_Source\PSoC6\pdl\middleware\ble/cy_ble_gap.h **** *
 753:Generated_Source\PSoC6\pdl\middleware\ble/cy_ble_gap.h **** *  Used to set the state of the link layer hardware advertisement engine.
 754:Generated_Source\PSoC6\pdl\middleware\ble/cy_ble_gap.h **** *
 755:Generated_Source\PSoC6\pdl\middleware\ble/cy_ble_gap.h **** *  \param state: The desired state.
 756:Generated_Source\PSoC6\pdl\middleware\ble/cy_ble_gap.h **** *
 757:Generated_Source\PSoC6\pdl\middleware\ble/cy_ble_gap.h **** * \return
 758:Generated_Source\PSoC6\pdl\middleware\ble/cy_ble_gap.h **** *  None
 759:Generated_Source\PSoC6\pdl\middleware\ble/cy_ble_gap.h **** *
ARM GAS  C:\Users\gjl\AppData\Local\Temp\ccRZOvUj.s 			page 32


 760:Generated_Source\PSoC6\pdl\middleware\ble/cy_ble_gap.h **** ******************************************************************************/
 761:Generated_Source\PSoC6\pdl\middleware\ble/cy_ble_gap.h **** __STATIC_INLINE void Cy_BLE_SetAdvertisementState(cy_en_ble_adv_state_t state)
 762:Generated_Source\PSoC6\pdl\middleware\ble/cy_ble_gap.h **** {
 763:Generated_Source\PSoC6\pdl\middleware\ble/cy_ble_gap.h ****     cy_ble_advState = state;
 549              		.loc 2 763 0
 550 01c8 4E4A     		ldr	r2, .L109+20
 551 01ca 1370     		strb	r3, [r2]
 552              	.LVL51:
 553              	.LBE90:
 554              	.LBE89:
 426:Generated_Source\PSoC6\pdl\middleware\ble/cy_ble_event_handler.c **** 
 427:Generated_Source\PSoC6\pdl\middleware\ble/cy_ble_event_handler.c ****         #if (CY_BLE_GAP_ROLE_PERIPHERAL || CY_BLE_GAP_ROLE_BROADCASTER)
 428:Generated_Source\PSoC6\pdl\middleware\ble/cy_ble_event_handler.c ****             Cy_BLE_SetAdvertisementState(CY_BLE_ADV_STATE_STOPPED);
 429:Generated_Source\PSoC6\pdl\middleware\ble/cy_ble_event_handler.c ****         #endif  /* (CY_BLE_GAP_ROLE_PERIPHERAL || CY_BLE_GAP_ROLE_BROADCASTER) */
 430:Generated_Source\PSoC6\pdl\middleware\ble/cy_ble_event_handler.c **** 
 431:Generated_Source\PSoC6\pdl\middleware\ble/cy_ble_event_handler.c ****         #if (CY_BLE_GAP_ROLE_CENTRAL || CY_BLE_GAP_ROLE_OBSERVER)
 432:Generated_Source\PSoC6\pdl\middleware\ble/cy_ble_event_handler.c ****             Cy_BLE_SetScanState(CY_BLE_SCAN_STATE_STOPPED);
 433:Generated_Source\PSoC6\pdl\middleware\ble/cy_ble_event_handler.c ****         #endif /* (CY_BLE_GAP_ROLE_CENTRAL || CY_BLE_GAP_ROLE_OBSERVER) */
 434:Generated_Source\PSoC6\pdl\middleware\ble/cy_ble_event_handler.c ****             
 435:Generated_Source\PSoC6\pdl\middleware\ble/cy_ble_event_handler.c ****             /**
 436:Generated_Source\PSoC6\pdl\middleware\ble/cy_ble_event_handler.c ****              * Adding a delay of 10ms to ensure that the controller is completely 
 437:Generated_Source\PSoC6\pdl\middleware\ble/cy_ble_event_handler.c ****              * shut-down before generating the event to the application.
 438:Generated_Source\PSoC6\pdl\middleware\ble/cy_ble_event_handler.c ****              * Controller generates CY_BLE_EVT_STACK_SHUTDOWN_COMPLETE event immediately 
 439:Generated_Source\PSoC6\pdl\middleware\ble/cy_ble_event_handler.c ****              * after accepting the shut-down command (before resetting the controller), 
 440:Generated_Source\PSoC6\pdl\middleware\ble/cy_ble_event_handler.c ****              * once this behaviour is fixed, this delay will no longer be required 
 441:Generated_Source\PSoC6\pdl\middleware\ble/cy_ble_event_handler.c ****              */
 442:Generated_Source\PSoC6\pdl\middleware\ble/cy_ble_event_handler.c ****             #if(CY_BLE_STACK_MODE_HOST_IPC)
 443:Generated_Source\PSoC6\pdl\middleware\ble/cy_ble_event_handler.c ****                 Cy_SysLib_Delay(10u);
 555              		.loc 1 443 0
 556 01cc 0A20     		movs	r0, #10
 557              	.LVL52:
 558 01ce FFF7FEFF 		bl	Cy_SysLib_Delay
 559              	.LVL53:
 444:Generated_Source\PSoC6\pdl\middleware\ble/cy_ble_event_handler.c ****             #endif /* CY_BLE_STACK_MODE_HOST_IPC */   
 445:Generated_Source\PSoC6\pdl\middleware\ble/cy_ble_event_handler.c ****             
 446:Generated_Source\PSoC6\pdl\middleware\ble/cy_ble_event_handler.c ****             /* Unregister BLE callback for Deepsleep/Sleep */
 447:Generated_Source\PSoC6\pdl\middleware\ble/cy_ble_event_handler.c ****             Cy_BLE_UnregisterHostPMCallbacks();
 560              		.loc 1 447 0
 561 01d2 FFF7FEFF 		bl	Cy_BLE_UnregisterHostPMCallbacks
 562              	.LVL54:
 448:Generated_Source\PSoC6\pdl\middleware\ble/cy_ble_event_handler.c ****             break;
 563              		.loc 1 448 0
 564 01d6 4DE2     		b	.L35
 565              	.LVL55:
 566              	.L47:
 449:Generated_Source\PSoC6\pdl\middleware\ble/cy_ble_event_handler.c **** 
 450:Generated_Source\PSoC6\pdl\middleware\ble/cy_ble_event_handler.c ****         case CY_BLE_EVT_LE_SET_EVENT_MASK_COMPLETE:
 451:Generated_Source\PSoC6\pdl\middleware\ble/cy_ble_event_handler.c ****         #if (CY_BLE_MODE_PROFILE)
 452:Generated_Source\PSoC6\pdl\middleware\ble/cy_ble_event_handler.c ****             {
 453:Generated_Source\PSoC6\pdl\middleware\ble/cy_ble_event_handler.c ****                 if((cy_ble_cmdStatus & CY_BLE_STATUS_SET_TX_PWR_LVL) == 0u)
 567              		.loc 1 453 0
 568 01d8 4B4B     		ldr	r3, .L109+24
 569 01da 1B68     		ldr	r3, [r3]
 570 01dc 13F0010F 		tst	r3, #1
 571 01e0 40F04882 		bne	.L35
 572              	.LBB91:
 454:Generated_Source\PSoC6\pdl\middleware\ble/cy_ble_event_handler.c ****                 {
ARM GAS  C:\Users\gjl\AppData\Local\Temp\ccRZOvUj.s 			page 33


 455:Generated_Source\PSoC6\pdl\middleware\ble/cy_ble_event_handler.c ****                     cy_stc_ble_tx_pwr_lvl_info_t bleSsPowerLevel = { .pwrConfigParam.bdHandle = 0x0
 573              		.loc 1 455 0
 574 01e4 0023     		movs	r3, #0
 575 01e6 ADF81430 		strh	r3, [sp, #20]	@ movhi
 576 01ea 8DF81630 		strb	r3, [sp, #22]
 456:Generated_Source\PSoC6\pdl\middleware\ble/cy_ble_event_handler.c **** 
 457:Generated_Source\PSoC6\pdl\middleware\ble/cy_ble_event_handler.c ****                     /* Set the Tx Power Level for advertising and connection channels */
 458:Generated_Source\PSoC6\pdl\middleware\ble/cy_ble_event_handler.c ****                     bleSsPowerLevel.blePwrLevel = cy_ble_configPtr->params->txPowerLevelAdv;
 577              		.loc 1 458 0
 578 01ee 424E     		ldr	r6, .L109+8
 579 01f0 3368     		ldr	r3, [r6]
 580 01f2 9B6A     		ldr	r3, [r3, #40]
 581 01f4 93F90030 		ldrsb	r3, [r3]
 582 01f8 8DF81430 		strb	r3, [sp, #20]
 459:Generated_Source\PSoC6\pdl\middleware\ble/cy_ble_event_handler.c ****                     bleSsPowerLevel.pwrConfigParam.bleSsChId = CY_BLE_LL_ADV_CH_TYPE;
 460:Generated_Source\PSoC6\pdl\middleware\ble/cy_ble_event_handler.c ****                     (void)Cy_BLE_SetTxPowerLevel(&bleSsPowerLevel);
 583              		.loc 1 460 0
 584 01fc 05A8     		add	r0, sp, #20
 585              	.LVL56:
 586 01fe FFF7FEFF 		bl	Cy_BLE_SetTxPowerLevel
 587              	.LVL57:
 461:Generated_Source\PSoC6\pdl\middleware\ble/cy_ble_event_handler.c **** 
 462:Generated_Source\PSoC6\pdl\middleware\ble/cy_ble_event_handler.c ****                     bleSsPowerLevel.blePwrLevel = cy_ble_configPtr->params->txPowerLevelConn;
 588              		.loc 1 462 0
 589 0202 3368     		ldr	r3, [r6]
 590 0204 9B6A     		ldr	r3, [r3, #40]
 591 0206 93F90130 		ldrsb	r3, [r3, #1]
 592 020a 8DF81430 		strb	r3, [sp, #20]
 463:Generated_Source\PSoC6\pdl\middleware\ble/cy_ble_event_handler.c ****                     bleSsPowerLevel.pwrConfigParam.bleSsChId = CY_BLE_LL_CONN_CH_TYPE;
 593              		.loc 1 463 0
 594 020e 0123     		movs	r3, #1
 595 0210 8DF81530 		strb	r3, [sp, #21]
 464:Generated_Source\PSoC6\pdl\middleware\ble/cy_ble_event_handler.c ****                     bleSsPowerLevel.pwrConfigParam.bdHandle = 0xFFu; /* Set the tx power level valu
 596              		.loc 1 464 0
 597 0214 FF23     		movs	r3, #255
 598 0216 8DF81630 		strb	r3, [sp, #22]
 465:Generated_Source\PSoC6\pdl\middleware\ble/cy_ble_event_handler.c ****                     (void)Cy_BLE_SetTxPowerLevel(&bleSsPowerLevel);
 599              		.loc 1 465 0
 600 021a 05A8     		add	r0, sp, #20
 601 021c FFF7FEFF 		bl	Cy_BLE_SetTxPowerLevel
 602              	.LVL58:
 466:Generated_Source\PSoC6\pdl\middleware\ble/cy_ble_event_handler.c ****                     
 467:Generated_Source\PSoC6\pdl\middleware\ble/cy_ble_event_handler.c ****                     /* Set flag that executed Cy_BLE_SetTxPowerLevel during BLE start-up  */
 468:Generated_Source\PSoC6\pdl\middleware\ble/cy_ble_event_handler.c ****                     cy_ble_cmdStatus |= CY_BLE_STATUS_SET_TX_PWR_LVL;
 603              		.loc 1 468 0
 604 0220 394A     		ldr	r2, .L109+24
 605 0222 1368     		ldr	r3, [r2]
 606 0224 43F00103 		orr	r3, r3, #1
 607 0228 1360     		str	r3, [r2]
 608 022a 23E2     		b	.L35
 609              	.LVL59:
 610              	.L40:
 611              	.LBE91:
 469:Generated_Source\PSoC6\pdl\middleware\ble/cy_ble_event_handler.c ****                 }
 470:Generated_Source\PSoC6\pdl\middleware\ble/cy_ble_event_handler.c ****             }
 471:Generated_Source\PSoC6\pdl\middleware\ble/cy_ble_event_handler.c ****         #endif /* CY_BLE_MODE_PROFILE */
 472:Generated_Source\PSoC6\pdl\middleware\ble/cy_ble_event_handler.c ****             break;
ARM GAS  C:\Users\gjl\AppData\Local\Temp\ccRZOvUj.s 			page 34


 473:Generated_Source\PSoC6\pdl\middleware\ble/cy_ble_event_handler.c ****             
 474:Generated_Source\PSoC6\pdl\middleware\ble/cy_ble_event_handler.c ****         case CY_BLE_EVT_TIMEOUT:
 475:Generated_Source\PSoC6\pdl\middleware\ble/cy_ble_event_handler.c ****             Cy_BLE_TimeOutEventHandler((cy_stc_ble_timeout_param_t*)evParam);
 476:Generated_Source\PSoC6\pdl\middleware\ble/cy_ble_event_handler.c ****         #if (CY_BLE_GAP_ROLE_PERIPHERAL || CY_BLE_GAP_ROLE_CENTRAL)
 477:Generated_Source\PSoC6\pdl\middleware\ble/cy_ble_event_handler.c ****             (void)Cy_BLE_InvokeServiceEventHandler((uint32_t)event, (void*)evParam);
 612              		.loc 1 477 0
 613 022c FFF7FEFF 		bl	Cy_BLE_InvokeServiceEventHandler
 614              	.LVL60:
 478:Generated_Source\PSoC6\pdl\middleware\ble/cy_ble_event_handler.c ****         #endif /*(CY_BLE_GAP_ROLE_PERIPHERAL || CY_BLE_GAP_ROLE_CENTRAL)*/
 479:Generated_Source\PSoC6\pdl\middleware\ble/cy_ble_event_handler.c ****             break;
 615              		.loc 1 479 0
 616 0230 20E2     		b	.L35
 617              	.LVL61:
 618              	.L43:
 480:Generated_Source\PSoC6\pdl\middleware\ble/cy_ble_event_handler.c **** 
 481:Generated_Source\PSoC6\pdl\middleware\ble/cy_ble_event_handler.c ****         case CY_BLE_EVT_STACK_BUSY_STATUS:
 482:Generated_Source\PSoC6\pdl\middleware\ble/cy_ble_event_handler.c ****         #if (CY_BLE_GAP_ROLE_PERIPHERAL || CY_BLE_GAP_ROLE_CENTRAL)
 483:Generated_Source\PSoC6\pdl\middleware\ble/cy_ble_event_handler.c ****             cy_ble_busyStatus[Cy_BLE_GetConnHandleByBdHandle(((cy_stc_ble_l2cap_state_info_t*)evPar
 619              		.loc 1 483 0
 620 0232 4978     		ldrb	r1, [r1, #1]	@ zero_extendqisi2
 621              	.LVL62:
 622              	.LBB92:
 623              	.LBB93:
 764:Generated_Source\PSoC6\pdl\middleware\ble/cy_ble_gap.h **** }
 765:Generated_Source\PSoC6\pdl\middleware\ble/cy_ble_gap.h **** /** \endcond */
 766:Generated_Source\PSoC6\pdl\middleware\ble/cy_ble_gap.h **** 
 767:Generated_Source\PSoC6\pdl\middleware\ble/cy_ble_gap.h **** #endif /* (CY_BLE_GAP_ROLE_PERIPHERAL || CY_BLE_GAP_ROLE_BROADCASTER) */
 768:Generated_Source\PSoC6\pdl\middleware\ble/cy_ble_gap.h **** 
 769:Generated_Source\PSoC6\pdl\middleware\ble/cy_ble_gap.h **** #if (CY_BLE_GAP_ROLE_CENTRAL || CY_BLE_GAP_ROLE_OBSERVER)
 770:Generated_Source\PSoC6\pdl\middleware\ble/cy_ble_gap.h **** 
 771:Generated_Source\PSoC6\pdl\middleware\ble/cy_ble_gap.h **** /******************************************************************************
 772:Generated_Source\PSoC6\pdl\middleware\ble/cy_ble_gap.h **** * Function Name: Cy_BLE_GetScanState
 773:Generated_Source\PSoC6\pdl\middleware\ble/cy_ble_gap.h **** ***************************************************************************//**
 774:Generated_Source\PSoC6\pdl\middleware\ble/cy_ble_gap.h **** *    
 775:Generated_Source\PSoC6\pdl\middleware\ble/cy_ble_gap.h **** *  This returns the state of the link layer hardware scan engine.
 776:Generated_Source\PSoC6\pdl\middleware\ble/cy_ble_gap.h **** *
 777:Generated_Source\PSoC6\pdl\middleware\ble/cy_ble_gap.h **** *  \image html ble_scanning_state_machine.png
 778:Generated_Source\PSoC6\pdl\middleware\ble/cy_ble_gap.h **** *   
 779:Generated_Source\PSoC6\pdl\middleware\ble/cy_ble_gap.h **** *  When Cy_BLE_GAPC_StartScan() is called the state is set to
 780:Generated_Source\PSoC6\pdl\middleware\ble/cy_ble_gap.h **** *  #CY_BLE_SCAN_STATE_SCAN_INITIATED. It automatically changes to
 781:Generated_Source\PSoC6\pdl\middleware\ble/cy_ble_gap.h **** *  #CY_BLE_SCAN_STATE_SCANNING when the #CY_BLE_EVT_GAPC_SCAN_START_STOP event is
 782:Generated_Source\PSoC6\pdl\middleware\ble/cy_ble_gap.h **** *  received. 
 783:Generated_Source\PSoC6\pdl\middleware\ble/cy_ble_gap.h **** *  When Cy_BLE_GAPC_StopScan() is called, the state is set to
 784:Generated_Source\PSoC6\pdl\middleware\ble/cy_ble_gap.h **** *  #CY_BLE_SCAN_STATE_STOP_INITIATED. It automatically changes to
 785:Generated_Source\PSoC6\pdl\middleware\ble/cy_ble_gap.h **** *  #CY_BLE_SCAN_STATE_STOPPED when the #CY_BLE_EVT_GAPC_SCAN_START_STOP event is
 786:Generated_Source\PSoC6\pdl\middleware\ble/cy_ble_gap.h **** *  received.
 787:Generated_Source\PSoC6\pdl\middleware\ble/cy_ble_gap.h **** *
 788:Generated_Source\PSoC6\pdl\middleware\ble/cy_ble_gap.h **** *  \return
 789:Generated_Source\PSoC6\pdl\middleware\ble/cy_ble_gap.h **** *  \ref cy_en_ble_scan_state_t : The current scan state. The following are 
 790:Generated_Source\PSoC6\pdl\middleware\ble/cy_ble_gap.h **** *                                possible states.
 791:Generated_Source\PSoC6\pdl\middleware\ble/cy_ble_gap.h **** *
 792:Generated_Source\PSoC6\pdl\middleware\ble/cy_ble_gap.h **** *               State                |         Description
 793:Generated_Source\PSoC6\pdl\middleware\ble/cy_ble_gap.h **** *   -------------------------------- | -----------------------------
 794:Generated_Source\PSoC6\pdl\middleware\ble/cy_ble_gap.h **** *   CY_BLE_SCAN_STATE_STOPPED        | Scanning is stopped.
 795:Generated_Source\PSoC6\pdl\middleware\ble/cy_ble_gap.h **** *   CY_BLE_SCAN_STATE_SCAN_INITIATED | Scanning is initiated.
 796:Generated_Source\PSoC6\pdl\middleware\ble/cy_ble_gap.h **** *   CY_BLE_SCAN_STATE_SCANNING       | Scanning process.
 797:Generated_Source\PSoC6\pdl\middleware\ble/cy_ble_gap.h **** *   CY_BLE_SCAN_STATE_STOP_INITIATED | Stop scanning is initiated.
ARM GAS  C:\Users\gjl\AppData\Local\Temp\ccRZOvUj.s 			page 35


 798:Generated_Source\PSoC6\pdl\middleware\ble/cy_ble_gap.h **** *
 799:Generated_Source\PSoC6\pdl\middleware\ble/cy_ble_gap.h **** ******************************************************************************/
 800:Generated_Source\PSoC6\pdl\middleware\ble/cy_ble_gap.h **** __STATIC_INLINE cy_en_ble_scan_state_t Cy_BLE_GetScanState(void)
 801:Generated_Source\PSoC6\pdl\middleware\ble/cy_ble_gap.h **** {
 802:Generated_Source\PSoC6\pdl\middleware\ble/cy_ble_gap.h ****     return(cy_ble_scanState);
 803:Generated_Source\PSoC6\pdl\middleware\ble/cy_ble_gap.h **** }
 804:Generated_Source\PSoC6\pdl\middleware\ble/cy_ble_gap.h **** 
 805:Generated_Source\PSoC6\pdl\middleware\ble/cy_ble_gap.h **** /** \cond IGNORE */
 806:Generated_Source\PSoC6\pdl\middleware\ble/cy_ble_gap.h **** /******************************************************************************
 807:Generated_Source\PSoC6\pdl\middleware\ble/cy_ble_gap.h **** * Function Name: Cy_BLE_SetScanState
 808:Generated_Source\PSoC6\pdl\middleware\ble/cy_ble_gap.h **** ***************************************************************************//**
 809:Generated_Source\PSoC6\pdl\middleware\ble/cy_ble_gap.h **** *
 810:Generated_Source\PSoC6\pdl\middleware\ble/cy_ble_gap.h **** *  Used to set the state of the link layer hardware scan engine.
 811:Generated_Source\PSoC6\pdl\middleware\ble/cy_ble_gap.h **** *
 812:Generated_Source\PSoC6\pdl\middleware\ble/cy_ble_gap.h **** *  \param state: The desired state.
 813:Generated_Source\PSoC6\pdl\middleware\ble/cy_ble_gap.h **** *
 814:Generated_Source\PSoC6\pdl\middleware\ble/cy_ble_gap.h **** *  \return
 815:Generated_Source\PSoC6\pdl\middleware\ble/cy_ble_gap.h **** *  None
 816:Generated_Source\PSoC6\pdl\middleware\ble/cy_ble_gap.h **** *
 817:Generated_Source\PSoC6\pdl\middleware\ble/cy_ble_gap.h **** ******************************************************************************/
 818:Generated_Source\PSoC6\pdl\middleware\ble/cy_ble_gap.h **** __STATIC_INLINE void Cy_BLE_SetScanState(cy_en_ble_scan_state_t state)
 819:Generated_Source\PSoC6\pdl\middleware\ble/cy_ble_gap.h **** {
 820:Generated_Source\PSoC6\pdl\middleware\ble/cy_ble_gap.h ****     cy_ble_scanState = state;
 821:Generated_Source\PSoC6\pdl\middleware\ble/cy_ble_gap.h **** }
 822:Generated_Source\PSoC6\pdl\middleware\ble/cy_ble_gap.h **** /** \endcond */
 823:Generated_Source\PSoC6\pdl\middleware\ble/cy_ble_gap.h **** 
 824:Generated_Source\PSoC6\pdl\middleware\ble/cy_ble_gap.h **** #endif  /* (CY_BLE_GAP_ROLE_CENTRAL || CY_BLE_GAP_ROLE_OBSERVER) */
 825:Generated_Source\PSoC6\pdl\middleware\ble/cy_ble_gap.h **** 
 826:Generated_Source\PSoC6\pdl\middleware\ble/cy_ble_gap.h ****  
 827:Generated_Source\PSoC6\pdl\middleware\ble/cy_ble_gap.h **** #if ((CY_BLE_GAP_ROLE_PERIPHERAL || CY_BLE_GAP_ROLE_CENTRAL))
 828:Generated_Source\PSoC6\pdl\middleware\ble/cy_ble_gap.h **** 
 829:Generated_Source\PSoC6\pdl\middleware\ble/cy_ble_gap.h **** /******************************************************************************
 830:Generated_Source\PSoC6\pdl\middleware\ble/cy_ble_gap.h **** * Function Name: Cy_BLE_GetConnectionState
 831:Generated_Source\PSoC6\pdl\middleware\ble/cy_ble_gap.h **** ***************************************************************************//**
 832:Generated_Source\PSoC6\pdl\middleware\ble/cy_ble_gap.h **** *  This function returns the state of the BLE link for the specified connection
 833:Generated_Source\PSoC6\pdl\middleware\ble/cy_ble_gap.h **** *  handle.
 834:Generated_Source\PSoC6\pdl\middleware\ble/cy_ble_gap.h **** *
 835:Generated_Source\PSoC6\pdl\middleware\ble/cy_ble_gap.h **** *  The state is set to #CY_BLE_CONN_STATE_CONNECTED when #CY_BLE_EVT_GATT_CONNECT_IND
 836:Generated_Source\PSoC6\pdl\middleware\ble/cy_ble_gap.h **** *  event is received with the corresponding connection handle.
 837:Generated_Source\PSoC6\pdl\middleware\ble/cy_ble_gap.h **** *  The state is set to #CY_BLE_CONN_STATE_DISCONNECTED when the
 838:Generated_Source\PSoC6\pdl\middleware\ble/cy_ble_gap.h **** *  #CY_BLE_EVT_GATT_DISCONNECT_IND event is received.
 839:Generated_Source\PSoC6\pdl\middleware\ble/cy_ble_gap.h **** *
 840:Generated_Source\PSoC6\pdl\middleware\ble/cy_ble_gap.h **** *  For GATT Client role when Cy_BLE_GATTC_StartDiscovery() is called, the state
 841:Generated_Source\PSoC6\pdl\middleware\ble/cy_ble_gap.h **** *  indicates the current flow of the discovery procedure by
 842:Generated_Source\PSoC6\pdl\middleware\ble/cy_ble_gap.h **** *  #CY_BLE_CONN_STATE_CLIENT_SRVC_DISCOVERING,
 843:Generated_Source\PSoC6\pdl\middleware\ble/cy_ble_gap.h **** *  #CY_BLE_CONN_STATE_CLIENT_INCL_DISCOVERING,
 844:Generated_Source\PSoC6\pdl\middleware\ble/cy_ble_gap.h **** *  #CY_BLE_CONN_STATE_CLIENT_CHAR_DISCOVERING,
 845:Generated_Source\PSoC6\pdl\middleware\ble/cy_ble_gap.h **** *  #CY_BLE_CONN_STATE_CLIENT_DESCR_DISCOVERING and changes to
 846:Generated_Source\PSoC6\pdl\middleware\ble/cy_ble_gap.h **** *  #CY_BLE_CONN_STATE_CLIENT_DISCOVERED when the procedure successfully completes.
 847:Generated_Source\PSoC6\pdl\middleware\ble/cy_ble_gap.h **** *
 848:Generated_Source\PSoC6\pdl\middleware\ble/cy_ble_gap.h **** *  The state changes from #CY_BLE_CONN_STATE_CLIENT_DISCOVERED to
 849:Generated_Source\PSoC6\pdl\middleware\ble/cy_ble_gap.h **** *  #CY_BLE_CONN_STATE_CLIENT_DISCONNECTED_DISCOVERED when
 850:Generated_Source\PSoC6\pdl\middleware\ble/cy_ble_gap.h **** *  the #CY_BLE_EVT_GATT_DISCONNECT_IND event is received.
 851:Generated_Source\PSoC6\pdl\middleware\ble/cy_ble_gap.h **** *  The state comes backs to #CY_BLE_CONN_STATE_CLIENT_DISCOVERED when
 852:Generated_Source\PSoC6\pdl\middleware\ble/cy_ble_gap.h **** *  #CY_BLE_EVT_GATT_CONNECT_IND event is received and resolvable device
 853:Generated_Source\PSoC6\pdl\middleware\ble/cy_ble_gap.h **** *  address is not changed.
 854:Generated_Source\PSoC6\pdl\middleware\ble/cy_ble_gap.h **** *
ARM GAS  C:\Users\gjl\AppData\Local\Temp\ccRZOvUj.s 			page 36


 855:Generated_Source\PSoC6\pdl\middleware\ble/cy_ble_gap.h **** *  \param connHandle: The connection handle.
 856:Generated_Source\PSoC6\pdl\middleware\ble/cy_ble_gap.h **** *
 857:Generated_Source\PSoC6\pdl\middleware\ble/cy_ble_gap.h **** * \return
 858:Generated_Source\PSoC6\pdl\middleware\ble/cy_ble_gap.h **** * \ref cy_en_ble_conn_state_t : The current client state. The following are 
 859:Generated_Source\PSoC6\pdl\middleware\ble/cy_ble_gap.h **** *                               possible states.
 860:Generated_Source\PSoC6\pdl\middleware\ble/cy_ble_gap.h **** *
 861:Generated_Source\PSoC6\pdl\middleware\ble/cy_ble_gap.h **** *               State                                |         Description
 862:Generated_Source\PSoC6\pdl\middleware\ble/cy_ble_gap.h **** *   ------------------------------------------------ | -----------------------------
 863:Generated_Source\PSoC6\pdl\middleware\ble/cy_ble_gap.h **** *   CY_BLE_CONN_STATE_DISCONNECTED                   | Essentially idle state
 864:Generated_Source\PSoC6\pdl\middleware\ble/cy_ble_gap.h **** *   CY_BLE_CONN_STATE_CLIENT_DISCONNECTED_DISCOVERED | Server is disconnected but discovered.
 865:Generated_Source\PSoC6\pdl\middleware\ble/cy_ble_gap.h **** *   CY_BLE_CONN_STATE_CONNECTED                      | Peer device is connected for this and follow
 866:Generated_Source\PSoC6\pdl\middleware\ble/cy_ble_gap.h **** *   CY_BLE_CONN_STATE_CLIENT_SRVC_DISCOVERING        | Server services are being discovered.
 867:Generated_Source\PSoC6\pdl\middleware\ble/cy_ble_gap.h **** *   CY_BLE_CONN_STATE_CLIENT_INCL_DISCOVERING        | Server included services are being discovere
 868:Generated_Source\PSoC6\pdl\middleware\ble/cy_ble_gap.h **** *   CY_BLE_CONN_STATE_CLIENT_CHAR_DISCOVERING        | Server characteristics are being discovered
 869:Generated_Source\PSoC6\pdl\middleware\ble/cy_ble_gap.h **** *   CY_BLE_CONN_STATE_CLIENT_DESCR_DISCOVERING       | Server char. descriptors are being discovere
 870:Generated_Source\PSoC6\pdl\middleware\ble/cy_ble_gap.h **** *   CY_BLE_CONN_STATE_CLIENT_DISCOVERED              | Server is discovered   
 871:Generated_Source\PSoC6\pdl\middleware\ble/cy_ble_gap.h **** *
 872:Generated_Source\PSoC6\pdl\middleware\ble/cy_ble_gap.h **** *
 873:Generated_Source\PSoC6\pdl\middleware\ble/cy_ble_gap.h **** ******************************************************************************/
 874:Generated_Source\PSoC6\pdl\middleware\ble/cy_ble_gap.h **** __STATIC_INLINE cy_en_ble_conn_state_t Cy_BLE_GetConnectionState(cy_stc_ble_conn_handle_t connHandl
 875:Generated_Source\PSoC6\pdl\middleware\ble/cy_ble_gap.h **** {
 876:Generated_Source\PSoC6\pdl\middleware\ble/cy_ble_gap.h ****     return((connHandle.attId < CY_BLE_CONN_COUNT) ? cy_ble_connState[connHandle.attId] : CY_BLE_CON
 877:Generated_Source\PSoC6\pdl\middleware\ble/cy_ble_gap.h **** }
 878:Generated_Source\PSoC6\pdl\middleware\ble/cy_ble_gap.h **** 
 879:Generated_Source\PSoC6\pdl\middleware\ble/cy_ble_gap.h **** /** \cond IGNORE */
 880:Generated_Source\PSoC6\pdl\middleware\ble/cy_ble_gap.h **** /******************************************************************************
 881:Generated_Source\PSoC6\pdl\middleware\ble/cy_ble_gap.h **** * Function Name: Cy_BLE_SetConnectionState
 882:Generated_Source\PSoC6\pdl\middleware\ble/cy_ble_gap.h **** ***************************************************************************//**
 883:Generated_Source\PSoC6\pdl\middleware\ble/cy_ble_gap.h **** *
 884:Generated_Source\PSoC6\pdl\middleware\ble/cy_ble_gap.h **** *  Used to set BLE link state for the specified connection handle.
 885:Generated_Source\PSoC6\pdl\middleware\ble/cy_ble_gap.h **** *
 886:Generated_Source\PSoC6\pdl\middleware\ble/cy_ble_gap.h **** *  \param connHandle: Peer device handle
 887:Generated_Source\PSoC6\pdl\middleware\ble/cy_ble_gap.h **** *  \param state:  The state that is desired to be set
 888:Generated_Source\PSoC6\pdl\middleware\ble/cy_ble_gap.h **** *
 889:Generated_Source\PSoC6\pdl\middleware\ble/cy_ble_gap.h **** ******************************************************************************/
 890:Generated_Source\PSoC6\pdl\middleware\ble/cy_ble_gap.h **** __STATIC_INLINE void Cy_BLE_SetConnectionState(cy_stc_ble_conn_handle_t connHandle,
 891:Generated_Source\PSoC6\pdl\middleware\ble/cy_ble_gap.h ****                                                cy_en_ble_conn_state_t state)
 892:Generated_Source\PSoC6\pdl\middleware\ble/cy_ble_gap.h **** {
 893:Generated_Source\PSoC6\pdl\middleware\ble/cy_ble_gap.h ****     if(connHandle.attId < CY_BLE_CONN_COUNT)
 894:Generated_Source\PSoC6\pdl\middleware\ble/cy_ble_gap.h ****     {
 895:Generated_Source\PSoC6\pdl\middleware\ble/cy_ble_gap.h ****         cy_ble_connState[connHandle.attId] = state;
 896:Generated_Source\PSoC6\pdl\middleware\ble/cy_ble_gap.h ****     }
 897:Generated_Source\PSoC6\pdl\middleware\ble/cy_ble_gap.h ****     else
 898:Generated_Source\PSoC6\pdl\middleware\ble/cy_ble_gap.h ****     {
 899:Generated_Source\PSoC6\pdl\middleware\ble/cy_ble_gap.h ****         /* Halt in debug mode*/
 900:Generated_Source\PSoC6\pdl\middleware\ble/cy_ble_gap.h ****         CY_ASSERT(connHandle.attId >= CY_BLE_CONN_COUNT);
 901:Generated_Source\PSoC6\pdl\middleware\ble/cy_ble_gap.h ****     }
 902:Generated_Source\PSoC6\pdl\middleware\ble/cy_ble_gap.h **** }
 903:Generated_Source\PSoC6\pdl\middleware\ble/cy_ble_gap.h **** /** \endcond */
 904:Generated_Source\PSoC6\pdl\middleware\ble/cy_ble_gap.h **** 
 905:Generated_Source\PSoC6\pdl\middleware\ble/cy_ble_gap.h **** /******************************************************************************
 906:Generated_Source\PSoC6\pdl\middleware\ble/cy_ble_gap.h **** * Function Name: Cy_BLE_GetNumOfActiveConn
 907:Generated_Source\PSoC6\pdl\middleware\ble/cy_ble_gap.h **** ***************************************************************************//**
 908:Generated_Source\PSoC6\pdl\middleware\ble/cy_ble_gap.h **** *
 909:Generated_Source\PSoC6\pdl\middleware\ble/cy_ble_gap.h **** *  Used to get active number of connections.
 910:Generated_Source\PSoC6\pdl\middleware\ble/cy_ble_gap.h **** *
 911:Generated_Source\PSoC6\pdl\middleware\ble/cy_ble_gap.h **** *  \return
ARM GAS  C:\Users\gjl\AppData\Local\Temp\ccRZOvUj.s 			page 37


 912:Generated_Source\PSoC6\pdl\middleware\ble/cy_ble_gap.h **** *  connNum - number of active connections
 913:Generated_Source\PSoC6\pdl\middleware\ble/cy_ble_gap.h **** *
 914:Generated_Source\PSoC6\pdl\middleware\ble/cy_ble_gap.h **** ******************************************************************************/
 915:Generated_Source\PSoC6\pdl\middleware\ble/cy_ble_gap.h **** __STATIC_INLINE uint8_t Cy_BLE_GetNumOfActiveConn(void)
 916:Generated_Source\PSoC6\pdl\middleware\ble/cy_ble_gap.h **** {
 917:Generated_Source\PSoC6\pdl\middleware\ble/cy_ble_gap.h ****     uint32_t i;
 918:Generated_Source\PSoC6\pdl\middleware\ble/cy_ble_gap.h ****     uint8_t connNum = 0u;
 919:Generated_Source\PSoC6\pdl\middleware\ble/cy_ble_gap.h **** 
 920:Generated_Source\PSoC6\pdl\middleware\ble/cy_ble_gap.h ****     for(i = 0u; i < CY_BLE_CONN_COUNT; i++)
 921:Generated_Source\PSoC6\pdl\middleware\ble/cy_ble_gap.h ****     {
 922:Generated_Source\PSoC6\pdl\middleware\ble/cy_ble_gap.h ****         if(cy_ble_connState[i] >= CY_BLE_CONN_STATE_CONNECTED)
 923:Generated_Source\PSoC6\pdl\middleware\ble/cy_ble_gap.h ****         {
 924:Generated_Source\PSoC6\pdl\middleware\ble/cy_ble_gap.h ****             connNum++;
 925:Generated_Source\PSoC6\pdl\middleware\ble/cy_ble_gap.h ****         }
 926:Generated_Source\PSoC6\pdl\middleware\ble/cy_ble_gap.h ****     }
 927:Generated_Source\PSoC6\pdl\middleware\ble/cy_ble_gap.h **** 
 928:Generated_Source\PSoC6\pdl\middleware\ble/cy_ble_gap.h ****     return(connNum);
 929:Generated_Source\PSoC6\pdl\middleware\ble/cy_ble_gap.h **** }
 930:Generated_Source\PSoC6\pdl\middleware\ble/cy_ble_gap.h **** 
 931:Generated_Source\PSoC6\pdl\middleware\ble/cy_ble_gap.h **** 
 932:Generated_Source\PSoC6\pdl\middleware\ble/cy_ble_gap.h **** /******************************************************************************
 933:Generated_Source\PSoC6\pdl\middleware\ble/cy_ble_gap.h **** * Function Name: Cy_BLE_GetConnHandleByBdHandle
 934:Generated_Source\PSoC6\pdl\middleware\ble/cy_ble_gap.h **** ***************************************************************************//**
 935:Generated_Source\PSoC6\pdl\middleware\ble/cy_ble_gap.h **** *
 936:Generated_Source\PSoC6\pdl\middleware\ble/cy_ble_gap.h **** *  Used to get connection handle by bdHandle
 937:Generated_Source\PSoC6\pdl\middleware\ble/cy_ble_gap.h **** *  This function halts in debug mode if bdHandle does not exist in the connected device
 938:Generated_Source\PSoC6\pdl\middleware\ble/cy_ble_gap.h **** *  list
 939:Generated_Source\PSoC6\pdl\middleware\ble/cy_ble_gap.h **** *
 940:Generated_Source\PSoC6\pdl\middleware\ble/cy_ble_gap.h **** *  \param bdHandle: Peer device handle
 941:Generated_Source\PSoC6\pdl\middleware\ble/cy_ble_gap.h **** *
 942:Generated_Source\PSoC6\pdl\middleware\ble/cy_ble_gap.h **** *  \return
 943:Generated_Source\PSoC6\pdl\middleware\ble/cy_ble_gap.h **** *  * connHandle: Full connection handle.
 944:Generated_Source\PSoC6\pdl\middleware\ble/cy_ble_gap.h **** *  * connHandle.attId = CY_BLE_INVALID_CONN_HANDLE_VALUE: invalid bdHandle
 945:Generated_Source\PSoC6\pdl\middleware\ble/cy_ble_gap.h **** *
 946:Generated_Source\PSoC6\pdl\middleware\ble/cy_ble_gap.h **** ******************************************************************************/
 947:Generated_Source\PSoC6\pdl\middleware\ble/cy_ble_gap.h **** __STATIC_INLINE cy_stc_ble_conn_handle_t Cy_BLE_GetConnHandleByBdHandle(uint8_t bdHandle)
 948:Generated_Source\PSoC6\pdl\middleware\ble/cy_ble_gap.h **** {
 949:Generated_Source\PSoC6\pdl\middleware\ble/cy_ble_gap.h ****     uint32_t i;
 950:Generated_Source\PSoC6\pdl\middleware\ble/cy_ble_gap.h ****     cy_stc_ble_conn_handle_t cHandle =
 624              		.loc 2 950 0
 625 0234 354B     		ldr	r3, .L109+28
 626 0236 1B88     		ldrh	r3, [r3]	@ unaligned
 627 0238 ADF81430 		strh	r3, [sp, #20]	@ unaligned
 628              	.LVL63:
 951:Generated_Source\PSoC6\pdl\middleware\ble/cy_ble_gap.h ****     {
 952:Generated_Source\PSoC6\pdl\middleware\ble/cy_ble_gap.h ****         .attId    = CY_BLE_INVALID_CONN_HANDLE_VALUE,
 953:Generated_Source\PSoC6\pdl\middleware\ble/cy_ble_gap.h ****         .bdHandle = CY_BLE_INVALID_CONN_HANDLE_VALUE
 954:Generated_Source\PSoC6\pdl\middleware\ble/cy_ble_gap.h ****     };
 955:Generated_Source\PSoC6\pdl\middleware\ble/cy_ble_gap.h **** 
 956:Generated_Source\PSoC6\pdl\middleware\ble/cy_ble_gap.h ****     for(i = 0u; i < CY_BLE_CONN_COUNT; i++)
 629              		.loc 2 956 0
 630 023c 0023     		movs	r3, #0
 631 023e 19E0     		b	.L68
 632              	.LVL64:
 633              	.L72:
 634 0240 334A     		ldr	r2, .L109+32
 635 0242 32F81320 		ldrh	r2, [r2, r3, lsl #1]	@ unaligned
ARM GAS  C:\Users\gjl\AppData\Local\Temp\ccRZOvUj.s 			page 38


 636 0246 ADF80820 		strh	r2, [sp, #8]	@ unaligned
 637              	.LBB94:
 638              	.LBB95:
 876:Generated_Source\PSoC6\pdl\middleware\ble/cy_ble_gap.h **** }
 639              		.loc 2 876 0
 640 024a 9DF80920 		ldrb	r2, [sp, #9]	@ zero_extendqisi2
 641 024e 12B9     		cbnz	r2, .L104
 642 0250 3048     		ldr	r0, .L109+36
 643 0252 825C     		ldrb	r2, [r0, r2]	@ zero_extendqisi2
 644 0254 00E0     		b	.L69
 645              	.L104:
 646 0256 0022     		movs	r2, #0
 647              	.L69:
 648              	.LBE95:
 649              	.LBE94:
 957:Generated_Source\PSoC6\pdl\middleware\ble/cy_ble_gap.h ****     {
 958:Generated_Source\PSoC6\pdl\middleware\ble/cy_ble_gap.h ****         if((Cy_BLE_GetConnectionState(cy_ble_connHandle[i]) >= CY_BLE_CONN_STATE_CONNECTED) &&
 650              		.loc 2 958 0
 651 0258 012A     		cmp	r2, #1
 652 025a 0AD9     		bls	.L70
 959:Generated_Source\PSoC6\pdl\middleware\ble/cy_ble_gap.h ****                 (cy_ble_connHandle[i].bdHandle == bdHandle))
 653              		.loc 2 959 0
 654 025c 2C4A     		ldr	r2, .L109+32
 655 025e 12F81320 		ldrb	r2, [r2, r3, lsl #1]	@ zero_extendqisi2
 958:Generated_Source\PSoC6\pdl\middleware\ble/cy_ble_gap.h ****                 (cy_ble_connHandle[i].bdHandle == bdHandle))
 656              		.loc 2 958 0
 657 0262 9142     		cmp	r1, r2
 658 0264 05D1     		bne	.L70
 960:Generated_Source\PSoC6\pdl\middleware\ble/cy_ble_gap.h ****         {
 961:Generated_Source\PSoC6\pdl\middleware\ble/cy_ble_gap.h ****             cHandle = cy_ble_connHandle[i];
 659              		.loc 2 961 0
 660 0266 2A4A     		ldr	r2, .L109+32
 661 0268 32F81330 		ldrh	r3, [r2, r3, lsl #1]	@ unaligned
 662              	.LVL65:
 663 026c ADF81430 		strh	r3, [sp, #20]	@ unaligned
 664 0270 02E0     		b	.L71
 665              	.LVL66:
 666              	.L70:
 956:Generated_Source\PSoC6\pdl\middleware\ble/cy_ble_gap.h ****     {
 667              		.loc 2 956 0
 668 0272 0133     		adds	r3, r3, #1
 669              	.LVL67:
 670              	.L68:
 671 0274 002B     		cmp	r3, #0
 672 0276 E3D0     		beq	.L72
 673              	.LVL68:
 674              	.L71:
 962:Generated_Source\PSoC6\pdl\middleware\ble/cy_ble_gap.h ****             break;
 963:Generated_Source\PSoC6\pdl\middleware\ble/cy_ble_gap.h ****         }
 964:Generated_Source\PSoC6\pdl\middleware\ble/cy_ble_gap.h ****     }
 965:Generated_Source\PSoC6\pdl\middleware\ble/cy_ble_gap.h ****     if(cHandle.attId == CY_BLE_INVALID_CONN_HANDLE_VALUE)
 675              		.loc 2 965 0
 676 0278 9DF81530 		ldrb	r3, [sp, #21]	@ zero_extendqisi2
 677 027c FF2B     		cmp	r3, #255
 678 027e 05D1     		bne	.L73
 966:Generated_Source\PSoC6\pdl\middleware\ble/cy_ble_gap.h ****     {
 967:Generated_Source\PSoC6\pdl\middleware\ble/cy_ble_gap.h ****         /* HALT in debug mode */
ARM GAS  C:\Users\gjl\AppData\Local\Temp\ccRZOvUj.s 			page 39


 968:Generated_Source\PSoC6\pdl\middleware\ble/cy_ble_gap.h ****         CY_ASSERT(cHandle.attId != CY_BLE_INVALID_CONN_HANDLE_VALUE);
 679              		.loc 2 968 0
 680 0280 04D1     		bne	.L73
 681 0282 4FF47271 		mov	r1, #968
 682              	.LVL69:
 683 0286 2448     		ldr	r0, .L109+40
 684 0288 FFF7FEFF 		bl	Cy_SysLib_AssertFailed
 685              	.LVL70:
 686              	.L73:
 969:Generated_Source\PSoC6\pdl\middleware\ble/cy_ble_gap.h ****     }
 970:Generated_Source\PSoC6\pdl\middleware\ble/cy_ble_gap.h **** 
 971:Generated_Source\PSoC6\pdl\middleware\ble/cy_ble_gap.h ****     return cHandle;
 687              		.loc 2 971 0
 688 028c BDF81430 		ldrh	r3, [sp, #20]
 689 0290 ADF82030 		strh	r3, [sp, #32]	@ movhi
 690 0294 ADF81C30 		strh	r3, [sp, #28]	@ movhi
 691              	.LBE93:
 692              	.LBE92:
 693              		.loc 1 483 0
 694 0298 C3F30723 		ubfx	r3, r3, #8, #8
 484:Generated_Source\PSoC6\pdl\middleware\ble/cy_ble_event_handler.c ****                 ((cy_stc_ble_l2cap_state_info_t*)evParam)->flowState;
 695              		.loc 1 484 0
 696 029c 2978     		ldrb	r1, [r5]	@ zero_extendqisi2
 483:Generated_Source\PSoC6\pdl\middleware\ble/cy_ble_event_handler.c ****                 ((cy_stc_ble_l2cap_state_info_t*)evParam)->flowState;
 697              		.loc 1 483 0
 698 029e 1F4A     		ldr	r2, .L109+44
 699 02a0 D154     		strb	r1, [r2, r3]
 485:Generated_Source\PSoC6\pdl\middleware\ble/cy_ble_event_handler.c ****         #endif /*(CY_BLE_GAP_ROLE_PERIPHERAL || CY_BLE_GAP_ROLE_CENTRAL)*/
 486:Generated_Source\PSoC6\pdl\middleware\ble/cy_ble_event_handler.c ****             break;
 700              		.loc 1 486 0
 701 02a2 E7E1     		b	.L35
 702              	.LVL71:
 703              	.L44:
 704              	.LBB96:
 487:Generated_Source\PSoC6\pdl\middleware\ble/cy_ble_event_handler.c **** 
 488:Generated_Source\PSoC6\pdl\middleware\ble/cy_ble_event_handler.c ****         case CY_BLE_EVT_MEMORY_REQUEST:
 489:Generated_Source\PSoC6\pdl\middleware\ble/cy_ble_event_handler.c ****         #if (CY_BLE_MODE_PROFILE)
 490:Generated_Source\PSoC6\pdl\middleware\ble/cy_ble_event_handler.c ****             {
 491:Generated_Source\PSoC6\pdl\middleware\ble/cy_ble_event_handler.c ****                 cy_stc_ble_memory_request_t *memReq = (cy_stc_ble_memory_request_t*)evParam;
 492:Generated_Source\PSoC6\pdl\middleware\ble/cy_ble_event_handler.c ****                 if(memReq->request == CY_BLE_PREPARED_WRITE_REQUEST)
 705              		.loc 1 492 0
 706 02a4 0B78     		ldrb	r3, [r1]	@ zero_extendqisi2
 707 02a6 002B     		cmp	r3, #0
 708 02a8 40F0E481 		bne	.L35
 493:Generated_Source\PSoC6\pdl\middleware\ble/cy_ble_event_handler.c ****                 {
 494:Generated_Source\PSoC6\pdl\middleware\ble/cy_ble_event_handler.c ****             #if (CY_BLE_GATT_ENABLE_EXTERNAL_PREP_WRITE_BUFF == 0u)
 495:Generated_Source\PSoC6\pdl\middleware\ble/cy_ble_event_handler.c ****                     /* Stack requests to provide memory to process a remote request */
 496:Generated_Source\PSoC6\pdl\middleware\ble/cy_ble_event_handler.c ****                     if(memReq->allocFree == CY_BLE_ALLOC_MEMORY)
 709              		.loc 1 496 0
 710 02ac 0B7A     		ldrb	r3, [r1, #8]	@ zero_extendqisi2
 711 02ae 33B9     		cbnz	r3, .L74
 712              	.LBB97:
 497:Generated_Source\PSoC6\pdl\middleware\ble/cy_ble_event_handler.c ****                     {
 498:Generated_Source\PSoC6\pdl\middleware\ble/cy_ble_event_handler.c ****                         static cy_stc_ble_prepare_write_request_memory_t gPrepWriteReqMem;
 499:Generated_Source\PSoC6\pdl\middleware\ble/cy_ble_event_handler.c **** 
 500:Generated_Source\PSoC6\pdl\middleware\ble/cy_ble_event_handler.c ****                         /* Configure and return a statically allocated buffer at the end of the cy_
 501:Generated_Source\PSoC6\pdl\middleware\ble/cy_ble_event_handler.c ****                         gPrepWriteReqMem.prepareWriteQueueSize = CY_BLE_GATT_MAX_PREPARE_BUFF_COUNT
ARM GAS  C:\Users\gjl\AppData\Local\Temp\ccRZOvUj.s 			page 40


 713              		.loc 1 501 0
 714 02b0 1B4B     		ldr	r3, .L109+48
 715 02b2 0022     		movs	r2, #0
 716 02b4 DA80     		strh	r2, [r3, #6]	@ movhi
 502:Generated_Source\PSoC6\pdl\middleware\ble/cy_ble_event_handler.c ****                         gPrepWriteReqMem.totalAttrValueLength = CY_BLE_GATT_PREPARE_LENGTH_ALIGN;
 717              		.loc 1 502 0
 718 02b6 9A80     		strh	r2, [r3, #4]	@ movhi
 503:Generated_Source\PSoC6\pdl\middleware\ble/cy_ble_event_handler.c ****                         gPrepWriteReqMem.queueBuffer = &cy_ble_stackMemoryRam[CY_BLE_STACK_RAM_SIZE
 719              		.loc 1 503 0
 720 02b8 1A4A     		ldr	r2, .L109+52
 721 02ba 1A60     		str	r2, [r3]
 504:Generated_Source\PSoC6\pdl\middleware\ble/cy_ble_event_handler.c ****                                                                               CY_BLE_GATT_PREPARE_W
 505:Generated_Source\PSoC6\pdl\middleware\ble/cy_ble_event_handler.c ****                         memReq->configMemory = &gPrepWriteReqMem;
 722              		.loc 1 505 0
 723 02bc 4B60     		str	r3, [r1, #4]
 724              	.L74:
 725              	.LBE97:
 506:Generated_Source\PSoC6\pdl\middleware\ble/cy_ble_event_handler.c ****                     }
 507:Generated_Source\PSoC6\pdl\middleware\ble/cy_ble_event_handler.c ****                     /* Clear the CY_BLE_CALLBACK flag not to provide a handled event to the applica
 508:Generated_Source\PSoC6\pdl\middleware\ble/cy_ble_event_handler.c ****                     cy_ble_eventHandlerFlag &= (uint8_t) ~CY_BLE_CALLBACK;
 726              		.loc 1 508 0
 727 02be 0C4A     		ldr	r2, .L109
 728 02c0 1378     		ldrb	r3, [r2]	@ zero_extendqisi2
 729 02c2 03F0FE03 		and	r3, r3, #254
 730 02c6 1370     		strb	r3, [r2]
 731 02c8 D4E1     		b	.L35
 732              	.LVL72:
 733              	.L45:
 734              	.LBE96:
 735              	.LBB98:
 509:Generated_Source\PSoC6\pdl\middleware\ble/cy_ble_event_handler.c ****             #endif  /* CY_BLE_GATT_ENABLE_EXTERNAL_PREP_WRITE_BUFF == 0u */
 510:Generated_Source\PSoC6\pdl\middleware\ble/cy_ble_event_handler.c ****                 }
 511:Generated_Source\PSoC6\pdl\middleware\ble/cy_ble_event_handler.c ****             }
 512:Generated_Source\PSoC6\pdl\middleware\ble/cy_ble_event_handler.c ****         #endif /* CY_BLE_MODE_PROFILE */
 513:Generated_Source\PSoC6\pdl\middleware\ble/cy_ble_event_handler.c ****             break;
 514:Generated_Source\PSoC6\pdl\middleware\ble/cy_ble_event_handler.c **** 
 515:Generated_Source\PSoC6\pdl\middleware\ble/cy_ble_event_handler.c ****         /**********************************************************
 516:Generated_Source\PSoC6\pdl\middleware\ble/cy_ble_event_handler.c ****          * GAP events
 517:Generated_Source\PSoC6\pdl\middleware\ble/cy_ble_event_handler.c ****          ************************************************************/
 518:Generated_Source\PSoC6\pdl\middleware\ble/cy_ble_event_handler.c ****         case CY_BLE_EVT_GAP_AUTH_REQ:
 519:Generated_Source\PSoC6\pdl\middleware\ble/cy_ble_event_handler.c ****             break;
 520:Generated_Source\PSoC6\pdl\middleware\ble/cy_ble_event_handler.c **** 
 521:Generated_Source\PSoC6\pdl\middleware\ble/cy_ble_event_handler.c ****         case CY_BLE_EVT_GAP_AUTH_COMPLETE:
 522:Generated_Source\PSoC6\pdl\middleware\ble/cy_ble_event_handler.c ****         #if ((CY_BLE_GAP_ROLE_PERIPHERAL || CY_BLE_GAP_ROLE_CENTRAL) && (CY_BLE_BONDING_REQUIREMENT
 523:Generated_Source\PSoC6\pdl\middleware\ble/cy_ble_event_handler.c ****             {
 524:Generated_Source\PSoC6\pdl\middleware\ble/cy_ble_event_handler.c ****                 cy_stc_ble_conn_handle_t connectedHandle;
 525:Generated_Source\PSoC6\pdl\middleware\ble/cy_ble_event_handler.c ****                 connectedHandle = Cy_BLE_GetConnHandleByBdHandle(((cy_stc_ble_gap_auth_info_t*)evPa
 736              		.loc 1 525 0
 737 02ca 4979     		ldrb	r1, [r1, #5]	@ zero_extendqisi2
 738              	.LVL73:
 739              	.LBB99:
 740              	.LBB100:
 950:Generated_Source\PSoC6\pdl\middleware\ble/cy_ble_gap.h ****     {
 741              		.loc 2 950 0
 742 02cc 0F4B     		ldr	r3, .L109+28
 743 02ce 1B88     		ldrh	r3, [r3]	@ unaligned
 744 02d0 ADF81430 		strh	r3, [sp, #20]	@ unaligned
ARM GAS  C:\Users\gjl\AppData\Local\Temp\ccRZOvUj.s 			page 41


 745              	.LVL74:
 956:Generated_Source\PSoC6\pdl\middleware\ble/cy_ble_gap.h ****     {
 746              		.loc 2 956 0
 747 02d4 0023     		movs	r3, #0
 748 02d6 36E0     		b	.L75
 749              	.LVL75:
 750              	.L79:
 751 02d8 0D4A     		ldr	r2, .L109+32
 752 02da 32F81320 		ldrh	r2, [r2, r3, lsl #1]	@ unaligned
 753 02de ADF80C20 		strh	r2, [sp, #12]	@ unaligned
 754              	.LBB101:
 755              	.LBB102:
 876:Generated_Source\PSoC6\pdl\middleware\ble/cy_ble_gap.h **** }
 756              		.loc 2 876 0
 757 02e2 9DF80D20 		ldrb	r2, [sp, #13]	@ zero_extendqisi2
 758 02e6 FAB9     		cbnz	r2, .L105
 759 02e8 0A48     		ldr	r0, .L109+36
 760 02ea 825C     		ldrb	r2, [r0, r2]	@ zero_extendqisi2
 761 02ec 1DE0     		b	.L76
 762              	.L110:
 763 02ee 00BF     		.align	2
 764              	.L109:
 765 02f0 00000000 		.word	cy_ble_eventHandlerFlag
 766 02f4 00000000 		.word	cy_ble_sflashDeviceAddress
 767 02f8 00000000 		.word	cy_ble_configPtr
 768 02fc 00000000 		.word	.LANCHOR0
 769 0300 00000000 		.word	cy_ble_state
 770 0304 00000000 		.word	cy_ble_advState
 771 0308 00000000 		.word	cy_ble_cmdStatus
 772 030c 08000000 		.word	.LANCHOR0+8
 773 0310 00000000 		.word	cy_ble_connHandle
 774 0314 00000000 		.word	cy_ble_connState
 775 0318 00000000 		.word	.LC2
 776 031c 00000000 		.word	cy_ble_busyStatus
 777 0320 00000000 		.word	.LANCHOR1
 778 0324 54290000 		.word	cy_ble_stackMemoryRam+10580
 779              	.L105:
 780 0328 0022     		movs	r2, #0
 781              	.L76:
 782              	.LBE102:
 783              	.LBE101:
 958:Generated_Source\PSoC6\pdl\middleware\ble/cy_ble_gap.h ****                 (cy_ble_connHandle[i].bdHandle == bdHandle))
 784              		.loc 2 958 0
 785 032a 012A     		cmp	r2, #1
 786 032c 0AD9     		bls	.L77
 959:Generated_Source\PSoC6\pdl\middleware\ble/cy_ble_gap.h ****         {
 787              		.loc 2 959 0
 788 032e B54A     		ldr	r2, .L111
 789 0330 12F81320 		ldrb	r2, [r2, r3, lsl #1]	@ zero_extendqisi2
 958:Generated_Source\PSoC6\pdl\middleware\ble/cy_ble_gap.h ****                 (cy_ble_connHandle[i].bdHandle == bdHandle))
 790              		.loc 2 958 0
 791 0334 9142     		cmp	r1, r2
 792 0336 05D1     		bne	.L77
 961:Generated_Source\PSoC6\pdl\middleware\ble/cy_ble_gap.h ****             break;
 793              		.loc 2 961 0
 794 0338 B24A     		ldr	r2, .L111
 795 033a 32F81330 		ldrh	r3, [r2, r3, lsl #1]	@ unaligned
ARM GAS  C:\Users\gjl\AppData\Local\Temp\ccRZOvUj.s 			page 42


 796              	.LVL76:
 797 033e ADF81430 		strh	r3, [sp, #20]	@ unaligned
 798 0342 02E0     		b	.L78
 799              	.LVL77:
 800              	.L77:
 956:Generated_Source\PSoC6\pdl\middleware\ble/cy_ble_gap.h ****     {
 801              		.loc 2 956 0
 802 0344 0133     		adds	r3, r3, #1
 803              	.LVL78:
 804              	.L75:
 805 0346 002B     		cmp	r3, #0
 806 0348 C6D0     		beq	.L79
 807              	.LVL79:
 808              	.L78:
 965:Generated_Source\PSoC6\pdl\middleware\ble/cy_ble_gap.h ****     {
 809              		.loc 2 965 0
 810 034a 9DF81530 		ldrb	r3, [sp, #21]	@ zero_extendqisi2
 811 034e FF2B     		cmp	r3, #255
 812 0350 05D1     		bne	.L80
 968:Generated_Source\PSoC6\pdl\middleware\ble/cy_ble_gap.h ****     }
 813              		.loc 2 968 0
 814 0352 04D1     		bne	.L80
 815 0354 4FF47271 		mov	r1, #968
 816              	.LVL80:
 817 0358 AB48     		ldr	r0, .L111+4
 818 035a FFF7FEFF 		bl	Cy_SysLib_AssertFailed
 819              	.LVL81:
 820              	.L80:
 821              		.loc 2 971 0
 822 035e BDF81430 		ldrh	r3, [sp, #20]
 823 0362 ADF82430 		strh	r3, [sp, #36]	@ movhi
 824 0366 ADF81430 		strh	r3, [sp, #20]	@ movhi
 825              	.LBE100:
 826              	.LBE99:
 526:Generated_Source\PSoC6\pdl\middleware\ble/cy_ble_event_handler.c ****                 cy_ble_peerBonding[connectedHandle.attId] = ((cy_stc_ble_gap_auth_info_t*)evParam)-
 827              		.loc 1 526 0
 828 036a C3F30723 		ubfx	r3, r3, #8, #8
 829 036e 6978     		ldrb	r1, [r5, #1]	@ zero_extendqisi2
 830 0370 A64A     		ldr	r2, .L111+8
 831 0372 D154     		strb	r1, [r2, r3]
 832              	.LBE98:
 527:Generated_Source\PSoC6\pdl\middleware\ble/cy_ble_event_handler.c ****             }
 528:Generated_Source\PSoC6\pdl\middleware\ble/cy_ble_event_handler.c ****         #endif  /* CY_BLE_BONDING_REQUIREMENT == CY_BLE_BONDING_YES */
 529:Generated_Source\PSoC6\pdl\middleware\ble/cy_ble_event_handler.c ****         
 530:Generated_Source\PSoC6\pdl\middleware\ble/cy_ble_event_handler.c ****         #if ((CY_BLE_GAP_ROLE_PERIPHERAL || CY_BLE_GAP_ROLE_CENTRAL))
 531:Generated_Source\PSoC6\pdl\middleware\ble/cy_ble_event_handler.c ****             if(((cy_stc_ble_gap_auth_info_t *)evParam)->authErr == CY_BLE_GAP_AUTH_ERROR_NONE)
 833              		.loc 1 531 0
 834 0374 EB78     		ldrb	r3, [r5, #3]	@ zero_extendqisi2
 835 0376 002B     		cmp	r3, #0
 836 0378 40F07C81 		bne	.L35
 837              	.LBB103:
 532:Generated_Source\PSoC6\pdl\middleware\ble/cy_ble_event_handler.c ****             {
 533:Generated_Source\PSoC6\pdl\middleware\ble/cy_ble_event_handler.c ****                 cy_stc_ble_conn_handle_t connectedHandle;
 534:Generated_Source\PSoC6\pdl\middleware\ble/cy_ble_event_handler.c ****                 connectedHandle = Cy_BLE_GetConnHandleByBdHandle(((cy_stc_ble_gap_auth_info_t *)evP
 838              		.loc 1 534 0
 839 037c 6979     		ldrb	r1, [r5, #5]	@ zero_extendqisi2
 840              	.LVL82:
ARM GAS  C:\Users\gjl\AppData\Local\Temp\ccRZOvUj.s 			page 43


 841              	.LBB104:
 842              	.LBB105:
 950:Generated_Source\PSoC6\pdl\middleware\ble/cy_ble_gap.h ****     {
 843              		.loc 2 950 0
 844 037e A44B     		ldr	r3, .L111+12
 845 0380 1B88     		ldrh	r3, [r3]	@ unaligned
 846 0382 ADF81430 		strh	r3, [sp, #20]	@ unaligned
 847              	.LVL83:
 956:Generated_Source\PSoC6\pdl\middleware\ble/cy_ble_gap.h ****     {
 848              		.loc 2 956 0
 849 0386 0023     		movs	r3, #0
 850 0388 19E0     		b	.L81
 851              	.LVL84:
 852              	.L85:
 853 038a 9E4A     		ldr	r2, .L111
 854 038c 32F81320 		ldrh	r2, [r2, r3, lsl #1]	@ unaligned
 855 0390 ADF81020 		strh	r2, [sp, #16]	@ unaligned
 856              	.LBB106:
 857              	.LBB107:
 876:Generated_Source\PSoC6\pdl\middleware\ble/cy_ble_gap.h **** }
 858              		.loc 2 876 0
 859 0394 9DF81120 		ldrb	r2, [sp, #17]	@ zero_extendqisi2
 860 0398 12B9     		cbnz	r2, .L106
 861 039a 9E48     		ldr	r0, .L111+16
 862 039c 825C     		ldrb	r2, [r0, r2]	@ zero_extendqisi2
 863 039e 00E0     		b	.L82
 864              	.L106:
 865 03a0 0022     		movs	r2, #0
 866              	.L82:
 867              	.LBE107:
 868              	.LBE106:
 958:Generated_Source\PSoC6\pdl\middleware\ble/cy_ble_gap.h ****                 (cy_ble_connHandle[i].bdHandle == bdHandle))
 869              		.loc 2 958 0
 870 03a2 012A     		cmp	r2, #1
 871 03a4 0AD9     		bls	.L83
 959:Generated_Source\PSoC6\pdl\middleware\ble/cy_ble_gap.h ****         {
 872              		.loc 2 959 0
 873 03a6 974A     		ldr	r2, .L111
 874 03a8 12F81320 		ldrb	r2, [r2, r3, lsl #1]	@ zero_extendqisi2
 958:Generated_Source\PSoC6\pdl\middleware\ble/cy_ble_gap.h ****                 (cy_ble_connHandle[i].bdHandle == bdHandle))
 875              		.loc 2 958 0
 876 03ac 9142     		cmp	r1, r2
 877 03ae 05D1     		bne	.L83
 961:Generated_Source\PSoC6\pdl\middleware\ble/cy_ble_gap.h ****             break;
 878              		.loc 2 961 0
 879 03b0 944A     		ldr	r2, .L111
 880 03b2 32F81330 		ldrh	r3, [r2, r3, lsl #1]	@ unaligned
 881              	.LVL85:
 882 03b6 ADF81430 		strh	r3, [sp, #20]	@ unaligned
 883 03ba 02E0     		b	.L84
 884              	.LVL86:
 885              	.L83:
 956:Generated_Source\PSoC6\pdl\middleware\ble/cy_ble_gap.h ****     {
 886              		.loc 2 956 0
 887 03bc 0133     		adds	r3, r3, #1
 888              	.LVL87:
 889              	.L81:
ARM GAS  C:\Users\gjl\AppData\Local\Temp\ccRZOvUj.s 			page 44


 890 03be 002B     		cmp	r3, #0
 891 03c0 E3D0     		beq	.L85
 892              	.LVL88:
 893              	.L84:
 965:Generated_Source\PSoC6\pdl\middleware\ble/cy_ble_gap.h ****     {
 894              		.loc 2 965 0
 895 03c2 9DF81530 		ldrb	r3, [sp, #21]	@ zero_extendqisi2
 896 03c6 FF2B     		cmp	r3, #255
 897 03c8 05D1     		bne	.L86
 968:Generated_Source\PSoC6\pdl\middleware\ble/cy_ble_gap.h ****     }
 898              		.loc 2 968 0
 899 03ca 04D1     		bne	.L86
 900 03cc 4FF47271 		mov	r1, #968
 901              	.LVL89:
 902 03d0 8D48     		ldr	r0, .L111+4
 903 03d2 FFF7FEFF 		bl	Cy_SysLib_AssertFailed
 904              	.LVL90:
 905              	.L86:
 906              		.loc 2 971 0
 907 03d6 BDF81430 		ldrh	r3, [sp, #20]
 908 03da ADF82830 		strh	r3, [sp, #40]	@ movhi
 909 03de ADF81430 		strh	r3, [sp, #20]	@ movhi
 910              	.LBE105:
 911              	.LBE104:
 535:Generated_Source\PSoC6\pdl\middleware\ble/cy_ble_event_handler.c ****                 cy_ble_pairStatus[connectedHandle.attId] = true;
 912              		.loc 1 535 0
 913 03e2 C3F30723 		ubfx	r3, r3, #8, #8
 914 03e6 0121     		movs	r1, #1
 915 03e8 8B4A     		ldr	r2, .L111+20
 916 03ea D154     		strb	r1, [r2, r3]
 917 03ec 42E1     		b	.L35
 918              	.LVL91:
 919              	.L36:
 920              	.LBE103:
 536:Generated_Source\PSoC6\pdl\middleware\ble/cy_ble_event_handler.c ****             }
 537:Generated_Source\PSoC6\pdl\middleware\ble/cy_ble_event_handler.c ****         #endif /* ((CY_BLE_GAP_ROLE_PERIPHERAL || CY_BLE_GAP_ROLE_CENTRAL)) */ 
 538:Generated_Source\PSoC6\pdl\middleware\ble/cy_ble_event_handler.c ****             break;
 539:Generated_Source\PSoC6\pdl\middleware\ble/cy_ble_event_handler.c **** 
 540:Generated_Source\PSoC6\pdl\middleware\ble/cy_ble_event_handler.c ****         case CY_BLE_EVT_GAP_CONNECTION_UPDATE_COMPLETE:
 541:Generated_Source\PSoC6\pdl\middleware\ble/cy_ble_event_handler.c ****             Cy_BLE_GAP_ConnUpdateCompleteEventHandler((const cy_stc_ble_gap_conn_param_updated_in_c
 542:Generated_Source\PSoC6\pdl\middleware\ble/cy_ble_event_handler.c ****         #if (CY_BLE_GAP_ROLE_PERIPHERAL || CY_BLE_GAP_ROLE_CENTRAL)
 543:Generated_Source\PSoC6\pdl\middleware\ble/cy_ble_event_handler.c ****             (void)Cy_BLE_InvokeServiceEventHandler((uint32_t)event, (void*)evParam);
 921              		.loc 1 543 0
 922 03ee FFF7FEFF 		bl	Cy_BLE_InvokeServiceEventHandler
 923              	.LVL92:
 544:Generated_Source\PSoC6\pdl\middleware\ble/cy_ble_event_handler.c ****         #endif /*(CY_BLE_GAP_ROLE_PERIPHERAL || CY_BLE_GAP_ROLE_CENTRAL) */
 545:Generated_Source\PSoC6\pdl\middleware\ble/cy_ble_event_handler.c ****             break;
 924              		.loc 1 545 0
 925 03f2 3FE1     		b	.L35
 926              	.LVL93:
 927              	.L55:
 928              	.LBB108:
 546:Generated_Source\PSoC6\pdl\middleware\ble/cy_ble_event_handler.c **** 
 547:Generated_Source\PSoC6\pdl\middleware\ble/cy_ble_event_handler.c ****     #if (CY_BLE_LL_PRIVACY_FEATURE != 0u)
 548:Generated_Source\PSoC6\pdl\middleware\ble/cy_ble_event_handler.c ****         case CY_BLE_EVT_GAP_ENHANCE_CONN_COMPLETE:
 549:Generated_Source\PSoC6\pdl\middleware\ble/cy_ble_event_handler.c ****         {
 550:Generated_Source\PSoC6\pdl\middleware\ble/cy_ble_event_handler.c ****             cy_stc_ble_gap_conn_param_updated_in_controller_t connCParam;
ARM GAS  C:\Users\gjl\AppData\Local\Temp\ccRZOvUj.s 			page 45


 551:Generated_Source\PSoC6\pdl\middleware\ble/cy_ble_event_handler.c ****             cy_stc_ble_gap_enhance_conn_complete_param_t *connEnhanceParam;
 552:Generated_Source\PSoC6\pdl\middleware\ble/cy_ble_event_handler.c ****             
 553:Generated_Source\PSoC6\pdl\middleware\ble/cy_ble_event_handler.c ****             connEnhanceParam = (cy_stc_ble_gap_enhance_conn_complete_param_t*)evParam;
 554:Generated_Source\PSoC6\pdl\middleware\ble/cy_ble_event_handler.c ****             connCParam.status = connEnhanceParam->status;
 555:Generated_Source\PSoC6\pdl\middleware\ble/cy_ble_event_handler.c ****             connCParam.connIntv = connEnhanceParam->connIntv;
 556:Generated_Source\PSoC6\pdl\middleware\ble/cy_ble_event_handler.c ****             connCParam.connLatency = connEnhanceParam->connLatency;
 557:Generated_Source\PSoC6\pdl\middleware\ble/cy_ble_event_handler.c ****             connCParam.supervisionTO = connEnhanceParam->supervisionTo;
 558:Generated_Source\PSoC6\pdl\middleware\ble/cy_ble_event_handler.c ****             Cy_BLE_GAP_ConnUpdateCompleteEventHandler((const cy_stc_ble_gap_conn_param_updated_in_c
 559:Generated_Source\PSoC6\pdl\middleware\ble/cy_ble_event_handler.c **** 
 560:Generated_Source\PSoC6\pdl\middleware\ble/cy_ble_event_handler.c ****             /* Advertising is automatically stopped if a Slave is connected, so update the adv stat
 561:Generated_Source\PSoC6\pdl\middleware\ble/cy_ble_event_handler.c ****              *  CY_BLE_ADV_STATE_STOPPED  */
 562:Generated_Source\PSoC6\pdl\middleware\ble/cy_ble_event_handler.c ****             #if (CY_BLE_GAP_ROLE_PERIPHERAL || CY_BLE_GAP_ROLE_BROADCASTER)
 563:Generated_Source\PSoC6\pdl\middleware\ble/cy_ble_event_handler.c ****                 if(connEnhanceParam->role == (uint8_t)CY_BLE_GAP_LL_ROLE_SLAVE)
 929              		.loc 1 563 0
 930 03f4 0B7E     		ldrb	r3, [r1, #24]	@ zero_extendqisi2
 931 03f6 012B     		cmp	r3, #1
 932 03f8 02D1     		bne	.L87
 933              	.LVL94:
 934              	.LBB109:
 935              	.LBB110:
 763:Generated_Source\PSoC6\pdl\middleware\ble/cy_ble_gap.h **** }
 936              		.loc 2 763 0
 937 03fa 0022     		movs	r2, #0
 938 03fc 874B     		ldr	r3, .L111+24
 939 03fe 1A70     		strb	r2, [r3]
 940              	.LVL95:
 941              	.L87:
 942              	.LBE110:
 943              	.LBE109:
 944              	.LBE108:
 945              	.LBB111:
 564:Generated_Source\PSoC6\pdl\middleware\ble/cy_ble_event_handler.c ****                 {
 565:Generated_Source\PSoC6\pdl\middleware\ble/cy_ble_event_handler.c ****                     Cy_BLE_SetAdvertisementState(CY_BLE_ADV_STATE_STOPPED);
 566:Generated_Source\PSoC6\pdl\middleware\ble/cy_ble_event_handler.c ****                 }
 567:Generated_Source\PSoC6\pdl\middleware\ble/cy_ble_event_handler.c ****             #endif  /* (CY_BLE_GAP_ROLE_PERIPHERAL || CY_BLE_GAP_ROLE_BROADCASTER) */
 568:Generated_Source\PSoC6\pdl\middleware\ble/cy_ble_event_handler.c ****         }
 569:Generated_Source\PSoC6\pdl\middleware\ble/cy_ble_event_handler.c ****     #else
 570:Generated_Source\PSoC6\pdl\middleware\ble/cy_ble_event_handler.c ****         case CY_BLE_EVT_GAP_DEVICE_CONNECTED:
 571:Generated_Source\PSoC6\pdl\middleware\ble/cy_ble_event_handler.c ****             Cy_BLE_GAP_ConnUpdateCompleteEventHandler((const cy_stc_ble_gap_conn_param_updated_in_c
 572:Generated_Source\PSoC6\pdl\middleware\ble/cy_ble_event_handler.c **** 
 573:Generated_Source\PSoC6\pdl\middleware\ble/cy_ble_event_handler.c ****             /* Advertising is automatically stopped if a Slave is connected, so update the adv stat
 574:Generated_Source\PSoC6\pdl\middleware\ble/cy_ble_event_handler.c ****             #if (CY_BLE_GAP_ROLE_PERIPHERAL || CY_BLE_GAP_ROLE_BROADCASTER)
 575:Generated_Source\PSoC6\pdl\middleware\ble/cy_ble_event_handler.c ****                 if(((cy_stc_ble_gap_connected_param_t*)evParam)->role == CY_BLE_GAP_LL_ROLE_SLAVE)
 576:Generated_Source\PSoC6\pdl\middleware\ble/cy_ble_event_handler.c ****                 {
 577:Generated_Source\PSoC6\pdl\middleware\ble/cy_ble_event_handler.c ****                     Cy_BLE_SetAdvertisementState(CY_BLE_ADV_STATE_STOPPED);
 578:Generated_Source\PSoC6\pdl\middleware\ble/cy_ble_event_handler.c ****                 }
 579:Generated_Source\PSoC6\pdl\middleware\ble/cy_ble_event_handler.c ****             #endif /* (CY_BLE_GAP_ROLE_PERIPHERAL || CY_BLE_GAP_ROLE_BROADCASTER) */
 580:Generated_Source\PSoC6\pdl\middleware\ble/cy_ble_event_handler.c ****     #endif         /* CY_BLE_LL_PRIVACY_FEATURE != 0u */
 581:Generated_Source\PSoC6\pdl\middleware\ble/cy_ble_event_handler.c ****             #if (CY_BLE_GAP_ROLE_CENTRAL)
 582:Generated_Source\PSoC6\pdl\middleware\ble/cy_ble_event_handler.c ****                 if(cy_ble_connectingTimeout.timeout != 0u)
 583:Generated_Source\PSoC6\pdl\middleware\ble/cy_ble_event_handler.c ****                 {
 584:Generated_Source\PSoC6\pdl\middleware\ble/cy_ble_event_handler.c ****                     (void)Cy_BLE_StopTimer(&cy_ble_connectingTimeout);
 585:Generated_Source\PSoC6\pdl\middleware\ble/cy_ble_event_handler.c ****                 }
 586:Generated_Source\PSoC6\pdl\middleware\ble/cy_ble_event_handler.c ****             #endif /* CY_BLE_GAP_ROLE_CENTRAL */
 587:Generated_Source\PSoC6\pdl\middleware\ble/cy_ble_event_handler.c ****             
 588:Generated_Source\PSoC6\pdl\middleware\ble/cy_ble_event_handler.c ****             #if ((CY_BLE_GAP_ROLE_PERIPHERAL || CY_BLE_GAP_ROLE_CENTRAL))
 589:Generated_Source\PSoC6\pdl\middleware\ble/cy_ble_event_handler.c ****             /* Store information about role of device connected (Master/Slave)*/
ARM GAS  C:\Users\gjl\AppData\Local\Temp\ccRZOvUj.s 			page 46


 590:Generated_Source\PSoC6\pdl\middleware\ble/cy_ble_event_handler.c ****             {   
 591:Generated_Source\PSoC6\pdl\middleware\ble/cy_ble_event_handler.c ****                 #if (CY_BLE_LL_PRIVACY_FEATURE != 0u)
 592:Generated_Source\PSoC6\pdl\middleware\ble/cy_ble_event_handler.c ****                     cy_stc_ble_gap_enhance_conn_complete_param_t *tEvParam = 
 593:Generated_Source\PSoC6\pdl\middleware\ble/cy_ble_event_handler.c ****                         (cy_stc_ble_gap_enhance_conn_complete_param_t *)evParam;
 594:Generated_Source\PSoC6\pdl\middleware\ble/cy_ble_event_handler.c ****                 #else
 595:Generated_Source\PSoC6\pdl\middleware\ble/cy_ble_event_handler.c ****                     cy_stc_ble_gap_connected_param_t *tEvParam = (cy_stc_ble_gap_connected_param_t 
 596:Generated_Source\PSoC6\pdl\middleware\ble/cy_ble_event_handler.c ****                 #endif /* (CY_BLE_LL_PRIVACY_FEATURE != 0u) */    
 597:Generated_Source\PSoC6\pdl\middleware\ble/cy_ble_event_handler.c ****                 
 598:Generated_Source\PSoC6\pdl\middleware\ble/cy_ble_event_handler.c ****                 cy_stc_ble_conn_handle_t tconnHandle = Cy_BLE_GetConnHandleByBdHandle(tEvParam->bdH
 946              		.loc 1 598 0
 947 0400 E97E     		ldrb	r1, [r5, #27]	@ zero_extendqisi2
 948              	.LVL96:
 949              	.LBB112:
 950              	.LBB113:
 950:Generated_Source\PSoC6\pdl\middleware\ble/cy_ble_gap.h ****     {
 951              		.loc 2 950 0
 952 0402 834B     		ldr	r3, .L111+12
 953 0404 1B88     		ldrh	r3, [r3]	@ unaligned
 954 0406 ADF81030 		strh	r3, [sp, #16]	@ unaligned
 955              	.LVL97:
 956:Generated_Source\PSoC6\pdl\middleware\ble/cy_ble_gap.h ****     {
 956              		.loc 2 956 0
 957 040a 0023     		movs	r3, #0
 958 040c 19E0     		b	.L88
 959              	.LVL98:
 960              	.L92:
 961 040e 7D4A     		ldr	r2, .L111
 962 0410 32F81320 		ldrh	r2, [r2, r3, lsl #1]	@ unaligned
 963 0414 ADF81420 		strh	r2, [sp, #20]	@ unaligned
 964              	.LBB114:
 965              	.LBB115:
 876:Generated_Source\PSoC6\pdl\middleware\ble/cy_ble_gap.h **** }
 966              		.loc 2 876 0
 967 0418 9DF81520 		ldrb	r2, [sp, #21]	@ zero_extendqisi2
 968 041c 12B9     		cbnz	r2, .L107
 969 041e 7D48     		ldr	r0, .L111+16
 970 0420 825C     		ldrb	r2, [r0, r2]	@ zero_extendqisi2
 971 0422 00E0     		b	.L89
 972              	.L107:
 973 0424 0022     		movs	r2, #0
 974              	.L89:
 975              	.LBE115:
 976              	.LBE114:
 958:Generated_Source\PSoC6\pdl\middleware\ble/cy_ble_gap.h ****                 (cy_ble_connHandle[i].bdHandle == bdHandle))
 977              		.loc 2 958 0
 978 0426 012A     		cmp	r2, #1
 979 0428 0AD9     		bls	.L90
 959:Generated_Source\PSoC6\pdl\middleware\ble/cy_ble_gap.h ****         {
 980              		.loc 2 959 0
 981 042a 764A     		ldr	r2, .L111
 982 042c 12F81320 		ldrb	r2, [r2, r3, lsl #1]	@ zero_extendqisi2
 958:Generated_Source\PSoC6\pdl\middleware\ble/cy_ble_gap.h ****                 (cy_ble_connHandle[i].bdHandle == bdHandle))
 983              		.loc 2 958 0
 984 0430 9142     		cmp	r1, r2
 985 0432 05D1     		bne	.L90
 961:Generated_Source\PSoC6\pdl\middleware\ble/cy_ble_gap.h ****             break;
 986              		.loc 2 961 0
ARM GAS  C:\Users\gjl\AppData\Local\Temp\ccRZOvUj.s 			page 47


 987 0434 734A     		ldr	r2, .L111
 988 0436 32F81330 		ldrh	r3, [r2, r3, lsl #1]	@ unaligned
 989              	.LVL99:
 990 043a ADF81030 		strh	r3, [sp, #16]	@ unaligned
 991 043e 02E0     		b	.L91
 992              	.LVL100:
 993              	.L90:
 956:Generated_Source\PSoC6\pdl\middleware\ble/cy_ble_gap.h ****     {
 994              		.loc 2 956 0
 995 0440 0133     		adds	r3, r3, #1
 996              	.LVL101:
 997              	.L88:
 998 0442 002B     		cmp	r3, #0
 999 0444 E3D0     		beq	.L92
 1000              	.LVL102:
 1001              	.L91:
 965:Generated_Source\PSoC6\pdl\middleware\ble/cy_ble_gap.h ****     {
 1002              		.loc 2 965 0
 1003 0446 9DF81130 		ldrb	r3, [sp, #17]	@ zero_extendqisi2
 1004 044a FF2B     		cmp	r3, #255
 1005 044c 05D1     		bne	.L93
 968:Generated_Source\PSoC6\pdl\middleware\ble/cy_ble_gap.h ****     }
 1006              		.loc 2 968 0
 1007 044e 04D1     		bne	.L93
 1008 0450 4FF47271 		mov	r1, #968
 1009              	.LVL103:
 1010 0454 6C48     		ldr	r0, .L111+4
 1011 0456 FFF7FEFF 		bl	Cy_SysLib_AssertFailed
 1012              	.LVL104:
 1013              	.L93:
 1014              		.loc 2 971 0
 1015 045a BDF81030 		ldrh	r3, [sp, #16]
 1016 045e ADF82C30 		strh	r3, [sp, #44]	@ movhi
 1017 0462 ADF81030 		strh	r3, [sp, #16]	@ movhi
 1018              	.LBE113:
 1019              	.LBE112:
 599:Generated_Source\PSoC6\pdl\middleware\ble/cy_ble_event_handler.c ****                 if( tconnHandle.attId != CY_BLE_INVALID_CONN_HANDLE_VALUE)   
 1020              		.loc 1 599 0
 1021 0466 C3F30723 		ubfx	r3, r3, #8, #8
 1022 046a FF2B     		cmp	r3, #255
 1023 046c 02D0     		beq	.L94
 600:Generated_Source\PSoC6\pdl\middleware\ble/cy_ble_event_handler.c ****                 {
 601:Generated_Source\PSoC6\pdl\middleware\ble/cy_ble_event_handler.c ****                     cy_ble_devConnRole[tconnHandle.attId] = tEvParam->role;
 1024              		.loc 1 601 0
 1025 046e 297E     		ldrb	r1, [r5, #24]	@ zero_extendqisi2
 1026 0470 6B4A     		ldr	r2, .L111+28
 1027 0472 D154     		strb	r1, [r2, r3]
 1028              	.L94:
 1029              	.LBE111:
 602:Generated_Source\PSoC6\pdl\middleware\ble/cy_ble_event_handler.c ****                 }
 603:Generated_Source\PSoC6\pdl\middleware\ble/cy_ble_event_handler.c ****             }
 604:Generated_Source\PSoC6\pdl\middleware\ble/cy_ble_event_handler.c ****             #endif /*((CY_BLE_GAP_ROLE_PERIPHERAL || CY_BLE_GAP_ROLE_CENTRAL))*/
 605:Generated_Source\PSoC6\pdl\middleware\ble/cy_ble_event_handler.c ****         
 606:Generated_Source\PSoC6\pdl\middleware\ble/cy_ble_event_handler.c ****             Cy_BLE_SetState(CY_BLE_STATE_ON);
 1030              		.loc 1 606 0
 1031 0474 0222     		movs	r2, #2
 1032 0476 6B4B     		ldr	r3, .L111+32
ARM GAS  C:\Users\gjl\AppData\Local\Temp\ccRZOvUj.s 			page 48


 1033 0478 1A70     		strb	r2, [r3]
 607:Generated_Source\PSoC6\pdl\middleware\ble/cy_ble_event_handler.c ****             break;
 1034              		.loc 1 607 0
 1035 047a FBE0     		b	.L35
 1036              	.LVL105:
 1037              	.L50:
 608:Generated_Source\PSoC6\pdl\middleware\ble/cy_ble_event_handler.c **** 
 609:Generated_Source\PSoC6\pdl\middleware\ble/cy_ble_event_handler.c ****         case CY_BLE_EVT_GAP_DEVICE_DISCONNECTED:
 610:Generated_Source\PSoC6\pdl\middleware\ble/cy_ble_event_handler.c ****             Cy_BLE_SetState(CY_BLE_STATE_ON);
 1038              		.loc 1 610 0
 1039 047c 0222     		movs	r2, #2
 1040 047e 694B     		ldr	r3, .L111+32
 1041 0480 1A70     		strb	r2, [r3]
 611:Generated_Source\PSoC6\pdl\middleware\ble/cy_ble_event_handler.c ****             break;
 1042              		.loc 1 611 0
 1043 0482 F7E0     		b	.L35
 1044              	.L49:
 612:Generated_Source\PSoC6\pdl\middleware\ble/cy_ble_event_handler.c ****         
 613:Generated_Source\PSoC6\pdl\middleware\ble/cy_ble_event_handler.c ****         #if (CY_BLE_GAP_ROLE_PERIPHERAL || CY_BLE_GAP_ROLE_BROADCASTER)
 614:Generated_Source\PSoC6\pdl\middleware\ble/cy_ble_event_handler.c ****         case CY_BLE_EVT_GAPP_ADVERTISEMENT_START_STOP:
 615:Generated_Source\PSoC6\pdl\middleware\ble/cy_ble_event_handler.c ****         #if (CY_BLE_GAP_ROLE_PERIPHERAL || CY_BLE_GAP_ROLE_CENTRAL)
 616:Generated_Source\PSoC6\pdl\middleware\ble/cy_ble_event_handler.c ****             (void)Cy_BLE_InvokeServiceEventHandler((uint32_t)event, (void*)evParam);
 1045              		.loc 1 616 0
 1046 0484 FFF7FEFF 		bl	Cy_BLE_InvokeServiceEventHandler
 1047              	.LVL106:
 617:Generated_Source\PSoC6\pdl\middleware\ble/cy_ble_event_handler.c ****         #endif /* (CY_BLE_GAP_ROLE_PERIPHERAL || CY_BLE_GAP_ROLE_CENTRAL) */
 618:Generated_Source\PSoC6\pdl\middleware\ble/cy_ble_event_handler.c **** 
 619:Generated_Source\PSoC6\pdl\middleware\ble/cy_ble_event_handler.c ****             if((cy_ble_eventHandlerFlag & CY_BLE_CALLBACK) != 0u)
 1048              		.loc 1 619 0
 1049 0488 674B     		ldr	r3, .L111+36
 1050 048a 1B78     		ldrb	r3, [r3]	@ zero_extendqisi2
 1051 048c 13F0010F 		tst	r3, #1
 1052 0490 00F0F080 		beq	.L35
 1053              	.LBB116:
 1054              	.LBB117:
 745:Generated_Source\PSoC6\pdl\middleware\ble/cy_ble_gap.h **** }
 1055              		.loc 2 745 0
 1056 0494 614B     		ldr	r3, .L111+24
 1057 0496 1B78     		ldrb	r3, [r3]	@ zero_extendqisi2
 1058              	.LBE117:
 1059              	.LBE116:
 620:Generated_Source\PSoC6\pdl\middleware\ble/cy_ble_event_handler.c ****             {
 621:Generated_Source\PSoC6\pdl\middleware\ble/cy_ble_event_handler.c ****                 /* After Cy_BLE_GAPP_StartAdvertisement, the first event indicates that advertising
 622:Generated_Source\PSoC6\pdl\middleware\ble/cy_ble_event_handler.c ****                 if(Cy_BLE_GetAdvertisementState() == CY_BLE_ADV_STATE_ADV_INITIATED)
 1060              		.loc 1 622 0
 1061 0498 012B     		cmp	r3, #1
 1062 049a 03D1     		bne	.L95
 1063              	.LVL107:
 1064              	.LBB118:
 1065              	.LBB119:
 763:Generated_Source\PSoC6\pdl\middleware\ble/cy_ble_gap.h **** }
 1066              		.loc 2 763 0
 1067 049c 0222     		movs	r2, #2
 1068 049e 5F4B     		ldr	r3, .L111+24
 1069 04a0 1A70     		strb	r2, [r3]
 1070 04a2 E7E0     		b	.L35
 1071              	.LVL108:
ARM GAS  C:\Users\gjl\AppData\Local\Temp\ccRZOvUj.s 			page 49


 1072              	.L95:
 1073              	.LBE119:
 1074              	.LBE118:
 623:Generated_Source\PSoC6\pdl\middleware\ble/cy_ble_event_handler.c ****                 {
 624:Generated_Source\PSoC6\pdl\middleware\ble/cy_ble_event_handler.c ****                     Cy_BLE_SetAdvertisementState(CY_BLE_ADV_STATE_ADVERTISING);
 625:Generated_Source\PSoC6\pdl\middleware\ble/cy_ble_event_handler.c ****                 }
 626:Generated_Source\PSoC6\pdl\middleware\ble/cy_ble_event_handler.c ****                 /* When the application initiated a stop advertisement */
 627:Generated_Source\PSoC6\pdl\middleware\ble/cy_ble_event_handler.c ****                 else if(Cy_BLE_GetAdvertisementState() == CY_BLE_ADV_STATE_STOP_INITIATED)
 1075              		.loc 1 627 0
 1076 04a4 032B     		cmp	r3, #3
 1077 04a6 03D1     		bne	.L96
 1078              	.LVL109:
 1079              	.LBB120:
 1080              	.LBB121:
 763:Generated_Source\PSoC6\pdl\middleware\ble/cy_ble_gap.h **** }
 1081              		.loc 2 763 0
 1082 04a8 0022     		movs	r2, #0
 1083 04aa 5C4B     		ldr	r3, .L111+24
 1084 04ac 1A70     		strb	r2, [r3]
 1085 04ae E1E0     		b	.L35
 1086              	.LVL110:
 1087              	.L96:
 1088              	.LBE121:
 1089              	.LBE120:
 628:Generated_Source\PSoC6\pdl\middleware\ble/cy_ble_event_handler.c ****                 {
 629:Generated_Source\PSoC6\pdl\middleware\ble/cy_ble_event_handler.c ****                     Cy_BLE_SetAdvertisementState(CY_BLE_ADV_STATE_STOPPED);
 630:Generated_Source\PSoC6\pdl\middleware\ble/cy_ble_event_handler.c ****                 }
 631:Generated_Source\PSoC6\pdl\middleware\ble/cy_ble_event_handler.c ****                 else /* The following event indicates that advertising has been stopped */
 632:Generated_Source\PSoC6\pdl\middleware\ble/cy_ble_event_handler.c ****                 {
 633:Generated_Source\PSoC6\pdl\middleware\ble/cy_ble_event_handler.c ****                     if(Cy_BLE_GetAdvertisementState() == CY_BLE_ADV_STATE_ADVERTISING)
 1090              		.loc 1 633 0
 1091 04b0 022B     		cmp	r3, #2
 1092 04b2 40F0DF80 		bne	.L35
 1093              	.LVL111:
 1094              	.LBB122:
 1095              	.LBB123:
 763:Generated_Source\PSoC6\pdl\middleware\ble/cy_ble_gap.h **** }
 1096              		.loc 2 763 0
 1097 04b6 0022     		movs	r2, #0
 1098 04b8 584B     		ldr	r3, .L111+24
 1099 04ba 1A70     		strb	r2, [r3]
 1100              	.LVL112:
 1101              	.LBE123:
 1102              	.LBE122:
 634:Generated_Source\PSoC6\pdl\middleware\ble/cy_ble_event_handler.c ****                     {
 635:Generated_Source\PSoC6\pdl\middleware\ble/cy_ble_event_handler.c ****                         Cy_BLE_SetAdvertisementState(CY_BLE_ADV_STATE_STOPPED);
 636:Generated_Source\PSoC6\pdl\middleware\ble/cy_ble_event_handler.c ****                         if((cy_ble_configPtr->gappAdvParams[cy_ble_advIndex].slowAdvEnable != 0u) &
 1103              		.loc 1 636 0
 1104 04bc 5B4B     		ldr	r3, .L111+40
 1105 04be 1B68     		ldr	r3, [r3]
 1106 04c0 5B68     		ldr	r3, [r3, #4]
 1107 04c2 5B4A     		ldr	r2, .L111+44
 1108 04c4 1178     		ldrb	r1, [r2]	@ zero_extendqisi2
 1109 04c6 C1EBC102 		rsb	r2, r1, r1, lsl #3
 1110 04ca 03EB4203 		add	r3, r3, r2, lsl #1
 1111 04ce 9A79     		ldrb	r2, [r3, #6]	@ zero_extendqisi2
 1112 04d0 002A     		cmp	r2, #0
ARM GAS  C:\Users\gjl\AppData\Local\Temp\ccRZOvUj.s 			page 50


 1113 04d2 00F0CF80 		beq	.L35
 637:Generated_Source\PSoC6\pdl\middleware\ble/cy_ble_event_handler.c ****                            (cy_ble_configPtr->gappAdvParams[cy_ble_advIndex].fastAdvTimeOut != 0u))
 1114              		.loc 1 637 0 discriminator 1
 1115 04d6 9B88     		ldrh	r3, [r3, #4]
 636:Generated_Source\PSoC6\pdl\middleware\ble/cy_ble_event_handler.c ****                            (cy_ble_configPtr->gappAdvParams[cy_ble_advIndex].fastAdvTimeOut != 0u))
 1116              		.loc 1 636 0 discriminator 1
 1117 04d8 002B     		cmp	r3, #0
 1118 04da 00F0CB80 		beq	.L35
 638:Generated_Source\PSoC6\pdl\middleware\ble/cy_ble_event_handler.c ****                         {
 639:Generated_Source\PSoC6\pdl\middleware\ble/cy_ble_event_handler.c ****                             if(cy_ble_advertisingIntervalType == CY_BLE_ADVERTISING_FAST)
 1119              		.loc 1 639 0
 1120 04de 554B     		ldr	r3, .L111+48
 1121 04e0 1B78     		ldrb	r3, [r3]	@ zero_extendqisi2
 1122 04e2 002B     		cmp	r3, #0
 1123 04e4 40F0C680 		bne	.L35
 640:Generated_Source\PSoC6\pdl\middleware\ble/cy_ble_event_handler.c ****                             {
 641:Generated_Source\PSoC6\pdl\middleware\ble/cy_ble_event_handler.c ****                                 /* When fast advertising time out occur: Start slow advertising */
 642:Generated_Source\PSoC6\pdl\middleware\ble/cy_ble_event_handler.c ****                                 if(Cy_BLE_GAPP_StartAdvertisement(CY_BLE_ADVERTISING_SLOW, cy_ble_a
 1124              		.loc 1 642 0
 1125 04e8 0120     		movs	r0, #1
 1126 04ea FFF7FEFF 		bl	Cy_BLE_GAPP_StartAdvertisement
 1127              	.LVL113:
 1128 04ee 0028     		cmp	r0, #0
 1129 04f0 40F0C080 		bne	.L35
 1130              	.LVL114:
 1131              	.LBB124:
 1132              	.LBB125:
 763:Generated_Source\PSoC6\pdl\middleware\ble/cy_ble_gap.h **** }
 1133              		.loc 2 763 0
 1134 04f4 0122     		movs	r2, #1
 1135 04f6 494B     		ldr	r3, .L111+24
 1136 04f8 1A70     		strb	r2, [r3]
 1137 04fa BBE0     		b	.L35
 1138              	.LVL115:
 1139              	.L64:
 1140              	.LBE125:
 1141              	.LBE124:
 643:Generated_Source\PSoC6\pdl\middleware\ble/cy_ble_event_handler.c ****                                    CY_BLE_SUCCESS)
 644:Generated_Source\PSoC6\pdl\middleware\ble/cy_ble_event_handler.c ****                                 {
 645:Generated_Source\PSoC6\pdl\middleware\ble/cy_ble_event_handler.c ****                                     Cy_BLE_SetAdvertisementState(CY_BLE_ADV_STATE_ADV_INITIATED);
 646:Generated_Source\PSoC6\pdl\middleware\ble/cy_ble_event_handler.c ****                                 }
 647:Generated_Source\PSoC6\pdl\middleware\ble/cy_ble_event_handler.c ****                             }
 648:Generated_Source\PSoC6\pdl\middleware\ble/cy_ble_event_handler.c ****                         }
 649:Generated_Source\PSoC6\pdl\middleware\ble/cy_ble_event_handler.c ****                     }
 650:Generated_Source\PSoC6\pdl\middleware\ble/cy_ble_event_handler.c ****                 }
 651:Generated_Source\PSoC6\pdl\middleware\ble/cy_ble_event_handler.c ****             }
 652:Generated_Source\PSoC6\pdl\middleware\ble/cy_ble_event_handler.c ****             break;
 653:Generated_Source\PSoC6\pdl\middleware\ble/cy_ble_event_handler.c ****         #endif /* CY_BLE_GAP_ROLE_PERIPHERAL || CY_BLE_GAP_ROLE_BROADCASTER */
 654:Generated_Source\PSoC6\pdl\middleware\ble/cy_ble_event_handler.c **** 
 655:Generated_Source\PSoC6\pdl\middleware\ble/cy_ble_event_handler.c ****         #if (CY_BLE_GAP_ROLE_CENTRAL || CY_BLE_GAP_ROLE_OBSERVER)
 656:Generated_Source\PSoC6\pdl\middleware\ble/cy_ble_event_handler.c ****         case CY_BLE_EVT_GAPC_SCAN_START_STOP:
 657:Generated_Source\PSoC6\pdl\middleware\ble/cy_ble_event_handler.c ****         #if (CY_BLE_GAP_ROLE_CENTRAL)
 658:Generated_Source\PSoC6\pdl\middleware\ble/cy_ble_event_handler.c ****             (void)Cy_BLE_InvokeServiceEventHandler((uint32_t)event, (void*)evParam);
 659:Generated_Source\PSoC6\pdl\middleware\ble/cy_ble_event_handler.c ****         #endif /* (CY_BLE_GAP_ROLE_CENTRAL) */
 660:Generated_Source\PSoC6\pdl\middleware\ble/cy_ble_event_handler.c **** 
 661:Generated_Source\PSoC6\pdl\middleware\ble/cy_ble_event_handler.c ****             if((cy_ble_eventHandlerFlag & CY_BLE_CALLBACK) != 0u)
 662:Generated_Source\PSoC6\pdl\middleware\ble/cy_ble_event_handler.c ****             {
ARM GAS  C:\Users\gjl\AppData\Local\Temp\ccRZOvUj.s 			page 51


 663:Generated_Source\PSoC6\pdl\middleware\ble/cy_ble_event_handler.c ****                 /* After Cy_BLE_GAPC_StartScan, the first event indicates that scanning has been st
 664:Generated_Source\PSoC6\pdl\middleware\ble/cy_ble_event_handler.c ****                 if(Cy_BLE_GetScanState() == CY_BLE_SCAN_STATE_SCAN_INITIATED)
 665:Generated_Source\PSoC6\pdl\middleware\ble/cy_ble_event_handler.c ****                 {
 666:Generated_Source\PSoC6\pdl\middleware\ble/cy_ble_event_handler.c ****                     Cy_BLE_SetScanState(CY_BLE_SCAN_STATE_SCANNING);
 667:Generated_Source\PSoC6\pdl\middleware\ble/cy_ble_event_handler.c ****                 }
 668:Generated_Source\PSoC6\pdl\middleware\ble/cy_ble_event_handler.c ****                 /* When the application initiated stop scanning */
 669:Generated_Source\PSoC6\pdl\middleware\ble/cy_ble_event_handler.c ****                 else if(Cy_BLE_GetScanState() == CY_BLE_SCAN_STATE_STOP_INITIATED)
 670:Generated_Source\PSoC6\pdl\middleware\ble/cy_ble_event_handler.c ****                 {
 671:Generated_Source\PSoC6\pdl\middleware\ble/cy_ble_event_handler.c ****                     Cy_BLE_SetScanState(CY_BLE_SCAN_STATE_STOPPED);
 672:Generated_Source\PSoC6\pdl\middleware\ble/cy_ble_event_handler.c ****                 }
 673:Generated_Source\PSoC6\pdl\middleware\ble/cy_ble_event_handler.c ****                 else /* The following event indicates that scanning has been stopped by BLE Stack *
 674:Generated_Source\PSoC6\pdl\middleware\ble/cy_ble_event_handler.c ****                 {
 675:Generated_Source\PSoC6\pdl\middleware\ble/cy_ble_event_handler.c ****                     if(Cy_BLE_GetScanState() == CY_BLE_SCAN_STATE_SCANNING)
 676:Generated_Source\PSoC6\pdl\middleware\ble/cy_ble_event_handler.c ****                     {
 677:Generated_Source\PSoC6\pdl\middleware\ble/cy_ble_event_handler.c ****                         Cy_BLE_SetScanState(CY_BLE_SCAN_STATE_STOPPED);
 678:Generated_Source\PSoC6\pdl\middleware\ble/cy_ble_event_handler.c ****                         if((cy_ble_configPtr->gapcScanParams[cy_ble_scanIndex].slowScanEnabled != 0
 679:Generated_Source\PSoC6\pdl\middleware\ble/cy_ble_event_handler.c ****                            (cy_ble_configPtr->gapcScanParams[cy_ble_scanIndex].fastScanTimeOut != 0
 680:Generated_Source\PSoC6\pdl\middleware\ble/cy_ble_event_handler.c ****                         {
 681:Generated_Source\PSoC6\pdl\middleware\ble/cy_ble_event_handler.c ****                             if(cy_ble_scanningIntervalType == CY_BLE_SCANNING_FAST)
 682:Generated_Source\PSoC6\pdl\middleware\ble/cy_ble_event_handler.c ****                             {
 683:Generated_Source\PSoC6\pdl\middleware\ble/cy_ble_event_handler.c ****                                 /* When a fast scanning timeout occurs: Start slow scanning */
 684:Generated_Source\PSoC6\pdl\middleware\ble/cy_ble_event_handler.c ****                                 if(Cy_BLE_GAPC_StartScan(CY_BLE_SCANNING_SLOW, cy_ble_scanIndex) ==
 685:Generated_Source\PSoC6\pdl\middleware\ble/cy_ble_event_handler.c ****                                 {
 686:Generated_Source\PSoC6\pdl\middleware\ble/cy_ble_event_handler.c ****                                     Cy_BLE_SetScanState(CY_BLE_SCAN_STATE_SCAN_INITIATED);
 687:Generated_Source\PSoC6\pdl\middleware\ble/cy_ble_event_handler.c ****                                 }
 688:Generated_Source\PSoC6\pdl\middleware\ble/cy_ble_event_handler.c ****                             }
 689:Generated_Source\PSoC6\pdl\middleware\ble/cy_ble_event_handler.c ****                         }
 690:Generated_Source\PSoC6\pdl\middleware\ble/cy_ble_event_handler.c ****                     }
 691:Generated_Source\PSoC6\pdl\middleware\ble/cy_ble_event_handler.c ****                 }
 692:Generated_Source\PSoC6\pdl\middleware\ble/cy_ble_event_handler.c ****             }
 693:Generated_Source\PSoC6\pdl\middleware\ble/cy_ble_event_handler.c ****             break;
 694:Generated_Source\PSoC6\pdl\middleware\ble/cy_ble_event_handler.c ****         #endif /* CY_BLE_GAP_ROLE_CENTRAL || CY_BLE_GAP_ROLE_OBSERVER */
 695:Generated_Source\PSoC6\pdl\middleware\ble/cy_ble_event_handler.c **** 
 696:Generated_Source\PSoC6\pdl\middleware\ble/cy_ble_event_handler.c ****         /**********************************************************
 697:Generated_Source\PSoC6\pdl\middleware\ble/cy_ble_event_handler.c ****          * L2AP events
 698:Generated_Source\PSoC6\pdl\middleware\ble/cy_ble_event_handler.c ****          ************************************************************/
 699:Generated_Source\PSoC6\pdl\middleware\ble/cy_ble_event_handler.c ****         case CY_BLE_EVT_L2CAP_CONN_PARAM_UPDATE_RSP:
 700:Generated_Source\PSoC6\pdl\middleware\ble/cy_ble_event_handler.c ****             Cy_BLE_L2Cap_ConnParamUpdateRspEventHandler((cy_stc_ble_l2cap_conn_update_rsp_param_t*)
 701:Generated_Source\PSoC6\pdl\middleware\ble/cy_ble_event_handler.c **** 
 702:Generated_Source\PSoC6\pdl\middleware\ble/cy_ble_event_handler.c ****         #if (CY_BLE_GAP_ROLE_PERIPHERAL || CY_BLE_GAP_ROLE_CENTRAL)
 703:Generated_Source\PSoC6\pdl\middleware\ble/cy_ble_event_handler.c ****             (void)Cy_BLE_InvokeServiceEventHandler((uint32_t)event, (void*)evParam);
 1142              		.loc 1 703 0
 1143 04fc FFF7FEFF 		bl	Cy_BLE_InvokeServiceEventHandler
 1144              	.LVL116:
 704:Generated_Source\PSoC6\pdl\middleware\ble/cy_ble_event_handler.c ****         #endif /* (CY_BLE_GAP_ROLE_PERIPHERAL || CY_BLE_GAP_ROLE_CENTRAL) */
 705:Generated_Source\PSoC6\pdl\middleware\ble/cy_ble_event_handler.c ****             break;
 1145              		.loc 1 705 0
 1146 0500 B8E0     		b	.L35
 1147              	.LVL117:
 1148              	.L56:
 1149 0502 0B88     		ldrh	r3, [r1]	@ unaligned
 1150 0504 ADF80030 		strh	r3, [sp]	@ unaligned
 1151              	.LVL118:
 1152              	.LBB126:
 1153              	.LBB127:
 893:Generated_Source\PSoC6\pdl\middleware\ble/cy_ble_gap.h ****     {
 1154              		.loc 2 893 0
ARM GAS  C:\Users\gjl\AppData\Local\Temp\ccRZOvUj.s 			page 52


 1155 0508 9DF80130 		ldrb	r3, [sp, #1]	@ zero_extendqisi2
 1156 050c 1BB9     		cbnz	r3, .L97
 895:Generated_Source\PSoC6\pdl\middleware\ble/cy_ble_gap.h ****     }
 1157              		.loc 2 895 0
 1158 050e 0221     		movs	r1, #2
 1159              	.LVL119:
 1160 0510 404A     		ldr	r2, .L111+16
 1161 0512 D154     		strb	r1, [r2, r3]
 1162 0514 05E0     		b	.L98
 1163              	.LVL120:
 1164              	.L97:
 900:Generated_Source\PSoC6\pdl\middleware\ble/cy_ble_gap.h ****     }
 1165              		.loc 2 900 0
 1166 0516 23B9     		cbnz	r3, .L98
 1167 0518 4FF46171 		mov	r1, #900
 1168              	.LVL121:
 1169 051c 3A48     		ldr	r0, .L111+4
 1170              	.LVL122:
 1171 051e FFF7FEFF 		bl	Cy_SysLib_AssertFailed
 1172              	.LVL123:
 1173              	.L98:
 1174              	.LBE127:
 1175              	.LBE126:
 706:Generated_Source\PSoC6\pdl\middleware\ble/cy_ble_event_handler.c **** 
 707:Generated_Source\PSoC6\pdl\middleware\ble/cy_ble_event_handler.c ****             /**********************************************************
 708:Generated_Source\PSoC6\pdl\middleware\ble/cy_ble_event_handler.c ****              * GATT events
 709:Generated_Source\PSoC6\pdl\middleware\ble/cy_ble_event_handler.c ****              ************************************************************/
 710:Generated_Source\PSoC6\pdl\middleware\ble/cy_ble_event_handler.c ****         #if ((CY_BLE_GATT_ROLE_SERVER) || (CY_BLE_GATT_ROLE_CLIENT))
 711:Generated_Source\PSoC6\pdl\middleware\ble/cy_ble_event_handler.c ****         case CY_BLE_EVT_GATT_CONNECT_IND:
 712:Generated_Source\PSoC6\pdl\middleware\ble/cy_ble_event_handler.c ****         #if (CY_BLE_GATT_ROLE_CLIENT)
 713:Generated_Source\PSoC6\pdl\middleware\ble/cy_ble_event_handler.c ****             /* If connected to the same device which is already discovered */
 714:Generated_Source\PSoC6\pdl\middleware\ble/cy_ble_event_handler.c ****             if((Cy_BLE_GetConnectionState(*(cy_stc_ble_conn_handle_t*)evParam) ==
 715:Generated_Source\PSoC6\pdl\middleware\ble/cy_ble_event_handler.c ****                 CY_BLE_CONN_STATE_CLIENT_DISCONNECTED_DISCOVERED) &&
 716:Generated_Source\PSoC6\pdl\middleware\ble/cy_ble_event_handler.c ****                (((cy_stc_ble_conn_handle_t*)evParam)->bdHandle ==
 717:Generated_Source\PSoC6\pdl\middleware\ble/cy_ble_event_handler.c ****                 cy_ble_connHandle[((cy_stc_ble_conn_handle_t*)evParam)->attId].bdHandle))
 718:Generated_Source\PSoC6\pdl\middleware\ble/cy_ble_event_handler.c ****             {   /* Set a discovered state */
 719:Generated_Source\PSoC6\pdl\middleware\ble/cy_ble_event_handler.c ****                 Cy_BLE_SetConnectionState(*(cy_stc_ble_conn_handle_t*)evParam, CY_BLE_CONN_STATE_CL
 720:Generated_Source\PSoC6\pdl\middleware\ble/cy_ble_event_handler.c ****             }
 721:Generated_Source\PSoC6\pdl\middleware\ble/cy_ble_event_handler.c ****             else    /* Connected to a new device */
 722:Generated_Source\PSoC6\pdl\middleware\ble/cy_ble_event_handler.c ****         #endif /* CY_BLE_GATT_ROLE_CLIENT */
 723:Generated_Source\PSoC6\pdl\middleware\ble/cy_ble_event_handler.c ****             {
 724:Generated_Source\PSoC6\pdl\middleware\ble/cy_ble_event_handler.c ****                 /* Clear the discovery index for the Client role */
 725:Generated_Source\PSoC6\pdl\middleware\ble/cy_ble_event_handler.c ****             #if (CY_BLE_GATT_ROLE_CLIENT)
 726:Generated_Source\PSoC6\pdl\middleware\ble/cy_ble_event_handler.c ****                 (void)Cy_BLE_GATTC_RemoveConnHandle(*(cy_stc_ble_conn_handle_t*)evParam);
 727:Generated_Source\PSoC6\pdl\middleware\ble/cy_ble_event_handler.c ****             #endif /* CY_BLE_GATT_ROLE_CLIENT */
 728:Generated_Source\PSoC6\pdl\middleware\ble/cy_ble_event_handler.c ****                 Cy_BLE_SetConnectionState(*(cy_stc_ble_conn_handle_t*)evParam, CY_BLE_CONN_STATE_CO
 729:Generated_Source\PSoC6\pdl\middleware\ble/cy_ble_event_handler.c ****                 cy_ble_connHandle[((cy_stc_ble_conn_handle_t*)evParam)->attId] = *(cy_stc_ble_conn_
 1176              		.loc 1 729 0
 1177 0522 6A78     		ldrb	r2, [r5, #1]	@ zero_extendqisi2
 1178 0524 2988     		ldrh	r1, [r5]	@ unaligned
 1179 0526 374B     		ldr	r3, .L111
 1180 0528 23F81210 		strh	r1, [r3, r2, lsl #1]	@ unaligned
 730:Generated_Source\PSoC6\pdl\middleware\ble/cy_ble_event_handler.c ****             }
 731:Generated_Source\PSoC6\pdl\middleware\ble/cy_ble_event_handler.c **** 
 732:Generated_Source\PSoC6\pdl\middleware\ble/cy_ble_event_handler.c ****             cy_ble_busyStatus[((cy_stc_ble_conn_handle_t*)evParam)->attId] = CY_BLE_STACK_STATE_FRE
 1181              		.loc 1 732 0
 1182 052c 6B78     		ldrb	r3, [r5, #1]	@ zero_extendqisi2
ARM GAS  C:\Users\gjl\AppData\Local\Temp\ccRZOvUj.s 			page 53


 1183 052e 0021     		movs	r1, #0
 1184 0530 414A     		ldr	r2, .L111+52
 1185 0532 D154     		strb	r1, [r2, r3]
 733:Generated_Source\PSoC6\pdl\middleware\ble/cy_ble_event_handler.c **** 
 734:Generated_Source\PSoC6\pdl\middleware\ble/cy_ble_event_handler.c ****         #if ((CY_BLE_GATT_ROLE_SERVER) && (CY_BLE_GATT_DB_CCCD_COUNT != 0u) && \
 735:Generated_Source\PSoC6\pdl\middleware\ble/cy_ble_event_handler.c ****             (CY_BLE_BONDING_REQUIREMENT == CY_BLE_BONDING_YES))
 736:Generated_Source\PSoC6\pdl\middleware\ble/cy_ble_event_handler.c ****             
 737:Generated_Source\PSoC6\pdl\middleware\ble/cy_ble_event_handler.c ****             /* Initialize the CCCD values in the RAM when bonding is enabled */
 738:Generated_Source\PSoC6\pdl\middleware\ble/cy_ble_event_handler.c ****             (void)memcpy((uint8_t*)cy_ble_attValuesCccdMultiple[((cy_stc_ble_conn_handle_t*)evParam
 1186              		.loc 1 738 0
 1187 0534 C3EBC301 		rsb	r1, r3, r3, lsl #3
 1188 0538 404E     		ldr	r6, .L111+56
 1189 053a 8819     		adds	r0, r1, r6
 739:Generated_Source\PSoC6\pdl\middleware\ble/cy_ble_event_handler.c ****                          cy_ble_configPtr->flashStorage->attValuesCCCDFlashMemory[((cy_stc_ble_conn
 1190              		.loc 1 739 0
 1191 053c 3B4B     		ldr	r3, .L111+40
 1192 053e 1B68     		ldr	r3, [r3]
 1193 0540 1B69     		ldr	r3, [r3, #16]
 1194 0542 2A78     		ldrb	r2, [r5]	@ zero_extendqisi2
 1195 0544 C2EBC202 		rsb	r2, r2, r2, lsl #3
 1196 0548 02F58352 		add	r2, r2, #4192
 1197 054c 1344     		add	r3, r3, r2
 738:Generated_Source\PSoC6\pdl\middleware\ble/cy_ble_event_handler.c ****                          cy_ble_configPtr->flashStorage->attValuesCCCDFlashMemory[((cy_stc_ble_conn
 1198              		.loc 1 738 0
 1199 054e 53F8062F 		ldr	r2, [r3, #6]!	@ unaligned
 1200 0552 8A51     		str	r2, [r1, r6]	@ unaligned
 1201 0554 9A88     		ldrh	r2, [r3, #4]	@ unaligned
 1202 0556 9B79     		ldrb	r3, [r3, #6]	@ zero_extendqisi2
 1203 0558 8280     		strh	r2, [r0, #4]	@ unaligned
 1204 055a 8371     		strb	r3, [r0, #6]
 1205              	.LBB128:
 740:Generated_Source\PSoC6\pdl\middleware\ble/cy_ble_event_handler.c ****                                                                                    bdHandle],
 741:Generated_Source\PSoC6\pdl\middleware\ble/cy_ble_event_handler.c ****                          CY_BLE_GATT_DB_CCCD_COUNT + CY_BLE_CCCD_CRC_BYTE);
 742:Generated_Source\PSoC6\pdl\middleware\ble/cy_ble_event_handler.c **** 
 743:Generated_Source\PSoC6\pdl\middleware\ble/cy_ble_event_handler.c ****             /* Check CRC for CCCD data */
 744:Generated_Source\PSoC6\pdl\middleware\ble/cy_ble_event_handler.c ****             {
 745:Generated_Source\PSoC6\pdl\middleware\ble/cy_ble_event_handler.c ****                 uint8_t cccdCrc = Cy_BLE_HAL_CalcCRC8(cy_ble_attValuesCccdMultiple[((cy_stc_ble_con
 1206              		.loc 1 745 0
 1207 055c 6878     		ldrb	r0, [r5, #1]	@ zero_extendqisi2
 1208 055e C0EBC000 		rsb	r0, r0, r0, lsl #3
 1209 0562 0621     		movs	r1, #6
 1210 0564 3044     		add	r0, r0, r6
 1211 0566 FFF7FEFF 		bl	Cy_BLE_HAL_CalcCRC8
 1212              	.LVL124:
 746:Generated_Source\PSoC6\pdl\middleware\ble/cy_ble_event_handler.c ****                                                       CY_BLE_GATT_DB_CCCD_COUNT);
 747:Generated_Source\PSoC6\pdl\middleware\ble/cy_ble_event_handler.c **** 
 748:Generated_Source\PSoC6\pdl\middleware\ble/cy_ble_event_handler.c ****                 if(cy_ble_attValuesCccdMultiple[((cy_stc_ble_conn_handle_t*)evParam)->attId][CY_BLE
 1213              		.loc 1 748 0
 1214 056a 6B78     		ldrb	r3, [r5, #1]	@ zero_extendqisi2
 1215 056c C3EBC303 		rsb	r3, r3, r3, lsl #3
 1216 0570 3344     		add	r3, r3, r6
 1217 0572 9B79     		ldrb	r3, [r3, #6]	@ zero_extendqisi2
 1218 0574 9842     		cmp	r0, r3
 1219 0576 0CD0     		beq	.L99
 749:Generated_Source\PSoC6\pdl\middleware\ble/cy_ble_event_handler.c ****                 {
 750:Generated_Source\PSoC6\pdl\middleware\ble/cy_ble_event_handler.c ****                     /* Inform that the CRC for CCCD is wrong */
 751:Generated_Source\PSoC6\pdl\middleware\ble/cy_ble_event_handler.c ****                     Cy_BLE_ApplCallback((uint32_t)CY_BLE_EVT_GATTS_EVT_CCCD_CORRUPT, NULL);
ARM GAS  C:\Users\gjl\AppData\Local\Temp\ccRZOvUj.s 			page 54


 1220              		.loc 1 751 0
 1221 0578 314B     		ldr	r3, .L111+60
 1222 057a 1B68     		ldr	r3, [r3]
 1223 057c 0021     		movs	r1, #0
 1224 057e 3148     		ldr	r0, .L111+64
 1225              	.LVL125:
 1226 0580 9847     		blx	r3
 1227              	.LVL126:
 752:Generated_Source\PSoC6\pdl\middleware\ble/cy_ble_event_handler.c ****                     
 753:Generated_Source\PSoC6\pdl\middleware\ble/cy_ble_event_handler.c ****                     /* Clean the CCCD buffer in the RAM */
 754:Generated_Source\PSoC6\pdl\middleware\ble/cy_ble_event_handler.c ****                     (void)memset((uint8_t*)cy_ble_attValuesCccdMultiple[((cy_stc_ble_conn_handle_t*
 1228              		.loc 1 754 0
 1229 0582 6B78     		ldrb	r3, [r5, #1]	@ zero_extendqisi2
 1230 0584 C3EBC303 		rsb	r3, r3, r3, lsl #3
 1231 0588 9819     		adds	r0, r3, r6
 1232 058a 0022     		movs	r2, #0
 1233 058c 9A51     		str	r2, [r3, r6]	@ unaligned
 1234 058e C0F80320 		str	r2, [r0, #3]	@ unaligned
 1235              	.L99:
 1236              	.LBE128:
 755:Generated_Source\PSoC6\pdl\middleware\ble/cy_ble_event_handler.c ****                                   0, CY_BLE_GATT_DB_CCCD_COUNT + CY_BLE_CCCD_CRC_BYTE);
 756:Generated_Source\PSoC6\pdl\middleware\ble/cy_ble_event_handler.c ****                 }            
 757:Generated_Source\PSoC6\pdl\middleware\ble/cy_ble_event_handler.c ****             }        
 758:Generated_Source\PSoC6\pdl\middleware\ble/cy_ble_event_handler.c ****         #endif /* CY_BLE_GATT_ROLE_SERVER && (CY_BLE_BONDING_REQUIREMENT == CY_BLE_BONDING_YES) */
 759:Generated_Source\PSoC6\pdl\middleware\ble/cy_ble_event_handler.c **** 
 760:Generated_Source\PSoC6\pdl\middleware\ble/cy_ble_event_handler.c ****             (void)Cy_BLE_InvokeServiceEventHandler((uint32_t)event, (void*)evParam);
 1237              		.loc 1 760 0
 1238 0592 2946     		mov	r1, r5
 1239 0594 2046     		mov	r0, r4
 1240 0596 FFF7FEFF 		bl	Cy_BLE_InvokeServiceEventHandler
 1241              	.LVL127:
 761:Generated_Source\PSoC6\pdl\middleware\ble/cy_ble_event_handler.c ****             break;
 1242              		.loc 1 761 0
 1243 059a 6BE0     		b	.L35
 1244              	.LVL128:
 1245              	.L53:
 1246 059c 0B88     		ldrh	r3, [r1]	@ unaligned
 1247 059e ADF80430 		strh	r3, [sp, #4]	@ unaligned
 1248              	.LVL129:
 1249              	.LBB129:
 1250              	.LBB130:
 893:Generated_Source\PSoC6\pdl\middleware\ble/cy_ble_gap.h ****     {
 1251              		.loc 2 893 0
 1252 05a2 9DF80530 		ldrb	r3, [sp, #5]	@ zero_extendqisi2
 1253 05a6 1BB9     		cbnz	r3, .L100
 895:Generated_Source\PSoC6\pdl\middleware\ble/cy_ble_gap.h ****     }
 1254              		.loc 2 895 0
 1255 05a8 0021     		movs	r1, #0
 1256              	.LVL130:
 1257 05aa 1A4A     		ldr	r2, .L111+16
 1258 05ac D154     		strb	r1, [r2, r3]
 1259 05ae 05E0     		b	.L101
 1260              	.LVL131:
 1261              	.L100:
 900:Generated_Source\PSoC6\pdl\middleware\ble/cy_ble_gap.h ****     }
 1262              		.loc 2 900 0
 1263 05b0 23B9     		cbnz	r3, .L101
ARM GAS  C:\Users\gjl\AppData\Local\Temp\ccRZOvUj.s 			page 55


 1264 05b2 4FF46171 		mov	r1, #900
 1265              	.LVL132:
 1266 05b6 1448     		ldr	r0, .L111+4
 1267              	.LVL133:
 1268 05b8 FFF7FEFF 		bl	Cy_SysLib_AssertFailed
 1269              	.LVL134:
 1270              	.L101:
 1271              	.LBE130:
 1272              	.LBE129:
 762:Generated_Source\PSoC6\pdl\middleware\ble/cy_ble_event_handler.c **** 
 763:Generated_Source\PSoC6\pdl\middleware\ble/cy_ble_event_handler.c ****         case CY_BLE_EVT_GATT_DISCONNECT_IND:
 764:Generated_Source\PSoC6\pdl\middleware\ble/cy_ble_event_handler.c ****         #if (CY_BLE_GATT_ROLE_CLIENT)
 765:Generated_Source\PSoC6\pdl\middleware\ble/cy_ble_event_handler.c ****             if((Cy_BLE_GetConnectionState(*(cy_stc_ble_conn_handle_t*)evParam) == CY_BLE_CONN_STATE
 766:Generated_Source\PSoC6\pdl\middleware\ble/cy_ble_event_handler.c ****                (CY_BLE_BONDING_REQUIREMENT == CY_BLE_BONDING_YES))
 767:Generated_Source\PSoC6\pdl\middleware\ble/cy_ble_event_handler.c ****             {
 768:Generated_Source\PSoC6\pdl\middleware\ble/cy_ble_event_handler.c ****                 Cy_BLE_SetConnectionState(*(cy_stc_ble_conn_handle_t*)evParam,
 769:Generated_Source\PSoC6\pdl\middleware\ble/cy_ble_event_handler.c ****                                           CY_BLE_CONN_STATE_CLIENT_DISCONNECTED_DISCOVERED);
 770:Generated_Source\PSoC6\pdl\middleware\ble/cy_ble_event_handler.c ****             }
 771:Generated_Source\PSoC6\pdl\middleware\ble/cy_ble_event_handler.c ****             else
 772:Generated_Source\PSoC6\pdl\middleware\ble/cy_ble_event_handler.c ****         #endif /* CY_BLE_GATT_ROLE_CLIENT */
