ARM GAS  C:\Users\gjl\AppData\Local\Temp\ccShrItW.s 			page 1


   1              		.syntax unified
   2              		.cpu cortex-m4
   3              		.eabi_attribute 27, 1
   4              		.fpu fpv4-sp-d16
   5              		.eabi_attribute 20, 1
   6              		.eabi_attribute 21, 1
   7              		.eabi_attribute 23, 3
   8              		.eabi_attribute 24, 1
   9              		.eabi_attribute 25, 1
  10              		.eabi_attribute 26, 1
  11              		.eabi_attribute 30, 1
  12              		.eabi_attribute 34, 1
  13              		.eabi_attribute 18, 4
  14              		.thumb
  15              		.syntax unified
  16              		.file	"cy_ipc_sema.c"
  17              		.text
  18              	.Ltext0:
  19              		.cfi_sections	.debug_frame
  20              		.section	.text.Cy_IPC_Sema_Init,"ax",%progbits
  21              		.align	2
  22              		.global	Cy_IPC_Sema_Init
  23              		.thumb
  24              		.thumb_func
  25              		.type	Cy_IPC_Sema_Init, %function
  26              	Cy_IPC_Sema_Init:
  27              	.LFB144:
  28              		.file 1 "Generated_Source\\PSoC6\\pdl\\drivers\\peripheral\\ipc\\cy_ipc_sema.c"
   1:Generated_Source\PSoC6\pdl\drivers\peripheral\ipc/cy_ipc_sema.c **** /***************************************************************************//**
   2:Generated_Source\PSoC6\pdl\drivers\peripheral\ipc/cy_ipc_sema.c **** * \file cy_ipc_sema.c
   3:Generated_Source\PSoC6\pdl\drivers\peripheral\ipc/cy_ipc_sema.c **** * \version 1.10.1
   4:Generated_Source\PSoC6\pdl\drivers\peripheral\ipc/cy_ipc_sema.c **** *
   5:Generated_Source\PSoC6\pdl\drivers\peripheral\ipc/cy_ipc_sema.c **** *  Description:
   6:Generated_Source\PSoC6\pdl\drivers\peripheral\ipc/cy_ipc_sema.c **** *   IPC Semaphore Driver - This source file contains the source code for the
   7:Generated_Source\PSoC6\pdl\drivers\peripheral\ipc/cy_ipc_sema.c **** *   semaphore level APIs for the IPC interface.
   8:Generated_Source\PSoC6\pdl\drivers\peripheral\ipc/cy_ipc_sema.c **** *
   9:Generated_Source\PSoC6\pdl\drivers\peripheral\ipc/cy_ipc_sema.c **** ********************************************************************************
  10:Generated_Source\PSoC6\pdl\drivers\peripheral\ipc/cy_ipc_sema.c **** * Copyright 2016-2018, Cypress Semiconductor Corporation.  All rights reserved.
  11:Generated_Source\PSoC6\pdl\drivers\peripheral\ipc/cy_ipc_sema.c **** * You may use this file only in accordance with the license, terms, conditions,
  12:Generated_Source\PSoC6\pdl\drivers\peripheral\ipc/cy_ipc_sema.c **** * disclaimers, and limitations in the end user license agreement accompanying
  13:Generated_Source\PSoC6\pdl\drivers\peripheral\ipc/cy_ipc_sema.c **** * the software package with which this file was provided.
  14:Generated_Source\PSoC6\pdl\drivers\peripheral\ipc/cy_ipc_sema.c **** *******************************************************************************/
  15:Generated_Source\PSoC6\pdl\drivers\peripheral\ipc/cy_ipc_sema.c **** 
  16:Generated_Source\PSoC6\pdl\drivers\peripheral\ipc/cy_ipc_sema.c **** #include "ipc/cy_ipc_drv.h"
  17:Generated_Source\PSoC6\pdl\drivers\peripheral\ipc/cy_ipc_sema.c **** #include "ipc/cy_ipc_sema.h"
  18:Generated_Source\PSoC6\pdl\drivers\peripheral\ipc/cy_ipc_sema.c **** #include "syslib/cy_syslib.h"
  19:Generated_Source\PSoC6\pdl\drivers\peripheral\ipc/cy_ipc_sema.c **** #include <string.h> /* The memset() definition */
  20:Generated_Source\PSoC6\pdl\drivers\peripheral\ipc/cy_ipc_sema.c **** 
  21:Generated_Source\PSoC6\pdl\drivers\peripheral\ipc/cy_ipc_sema.c **** /* Defines a mask to Check if semaphore count is a multiple of 32 */
  22:Generated_Source\PSoC6\pdl\drivers\peripheral\ipc/cy_ipc_sema.c **** #define CY_IPC_SEMA_PER_WORD_MASK    (CY_IPC_SEMA_PER_WORD - 1ul)
  23:Generated_Source\PSoC6\pdl\drivers\peripheral\ipc/cy_ipc_sema.c **** 
  24:Generated_Source\PSoC6\pdl\drivers\peripheral\ipc/cy_ipc_sema.c **** /* Pointer to IPC structure used for semaphores */
  25:Generated_Source\PSoC6\pdl\drivers\peripheral\ipc/cy_ipc_sema.c **** static IPC_STRUCT_Type* cy_semaIpcStruct;
  26:Generated_Source\PSoC6\pdl\drivers\peripheral\ipc/cy_ipc_sema.c **** 
  27:Generated_Source\PSoC6\pdl\drivers\peripheral\ipc/cy_ipc_sema.c **** /*
  28:Generated_Source\PSoC6\pdl\drivers\peripheral\ipc/cy_ipc_sema.c **** * Internal IPC semaphore control data structure.
  29:Generated_Source\PSoC6\pdl\drivers\peripheral\ipc/cy_ipc_sema.c **** */
ARM GAS  C:\Users\gjl\AppData\Local\Temp\ccShrItW.s 			page 2


  30:Generated_Source\PSoC6\pdl\drivers\peripheral\ipc/cy_ipc_sema.c **** typedef struct
  31:Generated_Source\PSoC6\pdl\drivers\peripheral\ipc/cy_ipc_sema.c **** {
  32:Generated_Source\PSoC6\pdl\drivers\peripheral\ipc/cy_ipc_sema.c ****     uint32_t maxSema;      /* Maximum semaphores in system */
  33:Generated_Source\PSoC6\pdl\drivers\peripheral\ipc/cy_ipc_sema.c ****     uint32_t *arrayPtr;    /* Pointer to semaphores array  */
  34:Generated_Source\PSoC6\pdl\drivers\peripheral\ipc/cy_ipc_sema.c **** } cy_stc_ipc_sema_t;
  35:Generated_Source\PSoC6\pdl\drivers\peripheral\ipc/cy_ipc_sema.c **** 
  36:Generated_Source\PSoC6\pdl\drivers\peripheral\ipc/cy_ipc_sema.c **** /*******************************************************************************
  37:Generated_Source\PSoC6\pdl\drivers\peripheral\ipc/cy_ipc_sema.c **** * Function Name: Cy_IPC_Sema_Init
  38:Generated_Source\PSoC6\pdl\drivers\peripheral\ipc/cy_ipc_sema.c **** ****************************************************************************//**
  39:Generated_Source\PSoC6\pdl\drivers\peripheral\ipc/cy_ipc_sema.c **** *
  40:Generated_Source\PSoC6\pdl\drivers\peripheral\ipc/cy_ipc_sema.c **** * This function initializes the semaphores subsystem. The user must create an
  41:Generated_Source\PSoC6\pdl\drivers\peripheral\ipc/cy_ipc_sema.c **** * array of unsigned 32-bit words to hold the semaphore bits. The number
  42:Generated_Source\PSoC6\pdl\drivers\peripheral\ipc/cy_ipc_sema.c **** * of semaphores will be the size of the array * 32. The total semaphores count
  43:Generated_Source\PSoC6\pdl\drivers\peripheral\ipc/cy_ipc_sema.c **** * will always be a multiple of 32.
  44:Generated_Source\PSoC6\pdl\drivers\peripheral\ipc/cy_ipc_sema.c **** *
  45:Generated_Source\PSoC6\pdl\drivers\peripheral\ipc/cy_ipc_sema.c **** * \note In a multi-CPU system this init function should be called with all
  46:Generated_Source\PSoC6\pdl\drivers\peripheral\ipc/cy_ipc_sema.c **** * initialized parameters on one CPU only to provide a pointer to SRAM that can
  47:Generated_Source\PSoC6\pdl\drivers\peripheral\ipc/cy_ipc_sema.c **** * be shared between all the CPUs in the system that will use semaphores.
  48:Generated_Source\PSoC6\pdl\drivers\peripheral\ipc/cy_ipc_sema.c **** * On other CPUs user must specify the IPC semaphores channel and pass 0 / NULL
  49:Generated_Source\PSoC6\pdl\drivers\peripheral\ipc/cy_ipc_sema.c **** * to count and memPtr parameters correspondingly.
  50:Generated_Source\PSoC6\pdl\drivers\peripheral\ipc/cy_ipc_sema.c **** *
  51:Generated_Source\PSoC6\pdl\drivers\peripheral\ipc/cy_ipc_sema.c **** * \param ipcChannel
  52:Generated_Source\PSoC6\pdl\drivers\peripheral\ipc/cy_ipc_sema.c **** * The IPC channel number used for semaphores
  53:Generated_Source\PSoC6\pdl\drivers\peripheral\ipc/cy_ipc_sema.c **** *
  54:Generated_Source\PSoC6\pdl\drivers\peripheral\ipc/cy_ipc_sema.c **** * \param count
  55:Generated_Source\PSoC6\pdl\drivers\peripheral\ipc/cy_ipc_sema.c **** *  The maximum number of semaphores to be supported (multiple of 32).
  56:Generated_Source\PSoC6\pdl\drivers\peripheral\ipc/cy_ipc_sema.c **** *
  57:Generated_Source\PSoC6\pdl\drivers\peripheral\ipc/cy_ipc_sema.c **** * \param memPtr
  58:Generated_Source\PSoC6\pdl\drivers\peripheral\ipc/cy_ipc_sema.c **** *  This points to the array of (count/32) words that contain the semaphore data.
  59:Generated_Source\PSoC6\pdl\drivers\peripheral\ipc/cy_ipc_sema.c **** *
  60:Generated_Source\PSoC6\pdl\drivers\peripheral\ipc/cy_ipc_sema.c **** * \return Status of the operation
  61:Generated_Source\PSoC6\pdl\drivers\peripheral\ipc/cy_ipc_sema.c **** *    \retval CY_IPC_SEMA_SUCCESS: Successfully initialized
  62:Generated_Source\PSoC6\pdl\drivers\peripheral\ipc/cy_ipc_sema.c **** *    \retval CY_IPC_SEMA_BAD_PARAM:     Memory pointer is NULL and count is not zero,
  63:Generated_Source\PSoC6\pdl\drivers\peripheral\ipc/cy_ipc_sema.c **** *                             or count not multiple of 32
  64:Generated_Source\PSoC6\pdl\drivers\peripheral\ipc/cy_ipc_sema.c **** *    \retval CY_IPC_SEMA_ERROR_LOCKED:  Could not acquire semaphores IPC channel
  65:Generated_Source\PSoC6\pdl\drivers\peripheral\ipc/cy_ipc_sema.c **** *
  66:Generated_Source\PSoC6\pdl\drivers\peripheral\ipc/cy_ipc_sema.c **** * \funcusage
  67:Generated_Source\PSoC6\pdl\drivers\peripheral\ipc/cy_ipc_sema.c **** * \snippet IPC_sut_01.cydsn/main_cm4.c snippet_Cy_IPC_Sema_Init
  68:Generated_Source\PSoC6\pdl\drivers\peripheral\ipc/cy_ipc_sema.c **** *
  69:Generated_Source\PSoC6\pdl\drivers\peripheral\ipc/cy_ipc_sema.c **** *******************************************************************************/
  70:Generated_Source\PSoC6\pdl\drivers\peripheral\ipc/cy_ipc_sema.c **** cy_en_ipcsema_status_t Cy_IPC_Sema_Init(uint32_t ipcChannel,
  71:Generated_Source\PSoC6\pdl\drivers\peripheral\ipc/cy_ipc_sema.c ****                                         uint32_t count, uint32_t memPtr[])
  72:Generated_Source\PSoC6\pdl\drivers\peripheral\ipc/cy_ipc_sema.c **** {
  29              		.loc 1 72 0
  30              		.cfi_startproc
  31              		@ args = 0, pretend = 0, frame = 0
  32              		@ frame_needed = 0, uses_anonymous_args = 0
  33              	.LVL0:
  73:Generated_Source\PSoC6\pdl\drivers\peripheral\ipc/cy_ipc_sema.c ****     /* Structure containing semaphores control data */
  74:Generated_Source\PSoC6\pdl\drivers\peripheral\ipc/cy_ipc_sema.c ****     static cy_stc_ipc_sema_t       cy_semaData;
  75:Generated_Source\PSoC6\pdl\drivers\peripheral\ipc/cy_ipc_sema.c **** 
  76:Generated_Source\PSoC6\pdl\drivers\peripheral\ipc/cy_ipc_sema.c ****     cy_en_ipcsema_status_t retStatus = CY_IPC_SEMA_BAD_PARAM;
  77:Generated_Source\PSoC6\pdl\drivers\peripheral\ipc/cy_ipc_sema.c **** 
  78:Generated_Source\PSoC6\pdl\drivers\peripheral\ipc/cy_ipc_sema.c ****     if (ipcChannel >= CY_IPC_CHANNELS)
  34              		.loc 1 78 0
  35 0000 0F28     		cmp	r0, #15
  36 0002 40D8     		bhi	.L6
ARM GAS  C:\Users\gjl\AppData\Local\Temp\ccShrItW.s 			page 3


  72:Generated_Source\PSoC6\pdl\drivers\peripheral\ipc/cy_ipc_sema.c ****     /* Structure containing semaphores control data */
  37              		.loc 1 72 0
  38 0004 F8B5     		push	{r3, r4, r5, r6, r7, lr}
  39              		.cfi_def_cfa_offset 24
  40              		.cfi_offset 3, -24
  41              		.cfi_offset 4, -20
  42              		.cfi_offset 5, -16
  43              		.cfi_offset 6, -12
  44              		.cfi_offset 7, -8
  45              		.cfi_offset 14, -4
  46 0006 1546     		mov	r5, r2
  47 0008 0E46     		mov	r6, r1
  48 000a 0446     		mov	r4, r0
  79:Generated_Source\PSoC6\pdl\drivers\peripheral\ipc/cy_ipc_sema.c ****     {
  80:Generated_Source\PSoC6\pdl\drivers\peripheral\ipc/cy_ipc_sema.c ****         retStatus = CY_IPC_SEMA_BAD_PARAM;
  81:Generated_Source\PSoC6\pdl\drivers\peripheral\ipc/cy_ipc_sema.c ****     }
  82:Generated_Source\PSoC6\pdl\drivers\peripheral\ipc/cy_ipc_sema.c ****     else
  83:Generated_Source\PSoC6\pdl\drivers\peripheral\ipc/cy_ipc_sema.c ****     {
  84:Generated_Source\PSoC6\pdl\drivers\peripheral\ipc/cy_ipc_sema.c ****         if( (NULL == memPtr) && (0u == count))
  49              		.loc 1 84 0
  50 000c 82B9     		cbnz	r2, .L3
  51              		.loc 1 84 0 is_stmt 0 discriminator 1
  52 000e 79B9     		cbnz	r1, .L3
  53              	.LVL1:
  54              	.LBB20:
  55              	.LBB21:
  56              		.file 2 "Generated_Source\\PSoC6\\pdl\\drivers/peripheral/ipc/cy_ipc_drv.h"
   1:Generated_Source\PSoC6\pdl\drivers\peripheral\ipc/cy_ipc_drv.h **** /***************************************************************************//**
   2:Generated_Source\PSoC6\pdl\drivers\peripheral\ipc/cy_ipc_drv.h **** * \file cy_ipc_drv.h
   3:Generated_Source\PSoC6\pdl\drivers\peripheral\ipc/cy_ipc_drv.h **** * \version 1.10.1
   4:Generated_Source\PSoC6\pdl\drivers\peripheral\ipc/cy_ipc_drv.h **** *
   5:Generated_Source\PSoC6\pdl\drivers\peripheral\ipc/cy_ipc_drv.h **** * Provides an API declaration of the IPC driver.
   6:Generated_Source\PSoC6\pdl\drivers\peripheral\ipc/cy_ipc_drv.h **** *
   7:Generated_Source\PSoC6\pdl\drivers\peripheral\ipc/cy_ipc_drv.h **** ********************************************************************************
   8:Generated_Source\PSoC6\pdl\drivers\peripheral\ipc/cy_ipc_drv.h **** * \copyright
   9:Generated_Source\PSoC6\pdl\drivers\peripheral\ipc/cy_ipc_drv.h **** * Copyright 2016-2018, Cypress Semiconductor Corporation. All rights reserved.
  10:Generated_Source\PSoC6\pdl\drivers\peripheral\ipc/cy_ipc_drv.h **** * You may use this file only in accordance with the license, terms, conditions,
  11:Generated_Source\PSoC6\pdl\drivers\peripheral\ipc/cy_ipc_drv.h **** * disclaimers, and limitations in the end user license agreement accompanying
  12:Generated_Source\PSoC6\pdl\drivers\peripheral\ipc/cy_ipc_drv.h **** * the software package with which this file was provided.
  13:Generated_Source\PSoC6\pdl\drivers\peripheral\ipc/cy_ipc_drv.h **** *******************************************************************************/
  14:Generated_Source\PSoC6\pdl\drivers\peripheral\ipc/cy_ipc_drv.h **** 
  15:Generated_Source\PSoC6\pdl\drivers\peripheral\ipc/cy_ipc_drv.h **** #ifndef CY_IPC_DRV_H
  16:Generated_Source\PSoC6\pdl\drivers\peripheral\ipc/cy_ipc_drv.h **** #define CY_IPC_DRV_H
  17:Generated_Source\PSoC6\pdl\drivers\peripheral\ipc/cy_ipc_drv.h **** 
  18:Generated_Source\PSoC6\pdl\drivers\peripheral\ipc/cy_ipc_drv.h **** 
  19:Generated_Source\PSoC6\pdl\drivers\peripheral\ipc/cy_ipc_drv.h **** /**
  20:Generated_Source\PSoC6\pdl\drivers\peripheral\ipc/cy_ipc_drv.h **** * \defgroup group_ipc Inter Process Communication (IPC)
  21:Generated_Source\PSoC6\pdl\drivers\peripheral\ipc/cy_ipc_drv.h **** * \{
  22:Generated_Source\PSoC6\pdl\drivers\peripheral\ipc/cy_ipc_drv.h **** * The inter-processor communication (IPC) driver provides a safe and reliable
  23:Generated_Source\PSoC6\pdl\drivers\peripheral\ipc/cy_ipc_drv.h **** * method to transfer data between CPUs. Hardware locking ensures that only one
  24:Generated_Source\PSoC6\pdl\drivers\peripheral\ipc/cy_ipc_drv.h **** * device can acquire and transfer data at a time so no data is lost or
  25:Generated_Source\PSoC6\pdl\drivers\peripheral\ipc/cy_ipc_drv.h **** * overwritten by asynchronous processes or CPUs.
  26:Generated_Source\PSoC6\pdl\drivers\peripheral\ipc/cy_ipc_drv.h **** *
  27:Generated_Source\PSoC6\pdl\drivers\peripheral\ipc/cy_ipc_drv.h **** * There are three parts to the API:
  28:Generated_Source\PSoC6\pdl\drivers\peripheral\ipc/cy_ipc_drv.h **** *     - Driver-level (DRV) API - used internally by Semaphore and Pipe levels
  29:Generated_Source\PSoC6\pdl\drivers\peripheral\ipc/cy_ipc_drv.h **** *     - Pipe-level (PIPE) API - establishes a communication channel between
  30:Generated_Source\PSoC6\pdl\drivers\peripheral\ipc/cy_ipc_drv.h **** *       processors
ARM GAS  C:\Users\gjl\AppData\Local\Temp\ccShrItW.s 			page 4


  31:Generated_Source\PSoC6\pdl\drivers\peripheral\ipc/cy_ipc_drv.h **** *     - Semaphore-level (SEMA) API - enables users to set and clear flags to
  32:Generated_Source\PSoC6\pdl\drivers\peripheral\ipc/cy_ipc_drv.h **** *       synchronize operations.
  33:Generated_Source\PSoC6\pdl\drivers\peripheral\ipc/cy_ipc_drv.h **** *
  34:Generated_Source\PSoC6\pdl\drivers\peripheral\ipc/cy_ipc_drv.h **** * Firmware does not need to use the DRV API. It can implement IPC functionality
  35:Generated_Source\PSoC6\pdl\drivers\peripheral\ipc/cy_ipc_drv.h **** * entirely with the PIPE and SEMA APIs.
  36:Generated_Source\PSoC6\pdl\drivers\peripheral\ipc/cy_ipc_drv.h **** *
  37:Generated_Source\PSoC6\pdl\drivers\peripheral\ipc/cy_ipc_drv.h **** * \section group_ipc_background Background
  38:Generated_Source\PSoC6\pdl\drivers\peripheral\ipc/cy_ipc_drv.h **** *
  39:Generated_Source\PSoC6\pdl\drivers\peripheral\ipc/cy_ipc_drv.h **** * IPC is implemented in hardware as a collection of individual communication
  40:Generated_Source\PSoC6\pdl\drivers\peripheral\ipc/cy_ipc_drv.h **** * channels, each with a set of 32-bit registers. The IPC design implements a set
  41:Generated_Source\PSoC6\pdl\drivers\peripheral\ipc/cy_ipc_drv.h **** * of interrupts that enable each processor to notify the other that data is
  42:Generated_Source\PSoC6\pdl\drivers\peripheral\ipc/cy_ipc_drv.h **** * available, or has been processed. There is also a locking mechanism that
  43:Generated_Source\PSoC6\pdl\drivers\peripheral\ipc/cy_ipc_drv.h **** * allows only one CPU to gain access at a time.
  44:Generated_Source\PSoC6\pdl\drivers\peripheral\ipc/cy_ipc_drv.h **** *
  45:Generated_Source\PSoC6\pdl\drivers\peripheral\ipc/cy_ipc_drv.h **** * The Driver-level API manages each channel's registers to implement IPC
  46:Generated_Source\PSoC6\pdl\drivers\peripheral\ipc/cy_ipc_drv.h **** * functionality. For information on the IPC registers, see the IPC chapter of
  47:Generated_Source\PSoC6\pdl\drivers\peripheral\ipc/cy_ipc_drv.h **** * the Technical Reference Manual (TRM).
  48:Generated_Source\PSoC6\pdl\drivers\peripheral\ipc/cy_ipc_drv.h **** *
  49:Generated_Source\PSoC6\pdl\drivers\peripheral\ipc/cy_ipc_drv.h **** * At the hardware level, communication is a five-step process.
  50:Generated_Source\PSoC6\pdl\drivers\peripheral\ipc/cy_ipc_drv.h **** *     -#  The sending processor acquires a channel
  51:Generated_Source\PSoC6\pdl\drivers\peripheral\ipc/cy_ipc_drv.h **** *     -#  It puts data into the channel
  52:Generated_Source\PSoC6\pdl\drivers\peripheral\ipc/cy_ipc_drv.h **** *     -#  The sender generates a notify event (interrupt)
  53:Generated_Source\PSoC6\pdl\drivers\peripheral\ipc/cy_ipc_drv.h **** *     -#  The receiving processor identifies the sender and retrieves the data
  54:Generated_Source\PSoC6\pdl\drivers\peripheral\ipc/cy_ipc_drv.h **** *     -#  The receiving processor generates a release event (interrupt)
  55:Generated_Source\PSoC6\pdl\drivers\peripheral\ipc/cy_ipc_drv.h **** *
  56:Generated_Source\PSoC6\pdl\drivers\peripheral\ipc/cy_ipc_drv.h **** * \image html ipc_driver.png
  57:Generated_Source\PSoC6\pdl\drivers\peripheral\ipc/cy_ipc_drv.h **** *
  58:Generated_Source\PSoC6\pdl\drivers\peripheral\ipc/cy_ipc_drv.h **** * These transactions are handled transparently by the DRV-level API. Use the
  59:Generated_Source\PSoC6\pdl\drivers\peripheral\ipc/cy_ipc_drv.h **** * PIPE and SEMA layers of the API to implement communication in your application.
  60:Generated_Source\PSoC6\pdl\drivers\peripheral\ipc/cy_ipc_drv.h **** * The data transferred is limited to a single 32-bit value. As implemented by
  61:Generated_Source\PSoC6\pdl\drivers\peripheral\ipc/cy_ipc_drv.h **** * the PIPE API, that value is a pointer to a data structure of arbitrary size
  62:Generated_Source\PSoC6\pdl\drivers\peripheral\ipc/cy_ipc_drv.h **** * and complexity.
  63:Generated_Source\PSoC6\pdl\drivers\peripheral\ipc/cy_ipc_drv.h **** *
  64:Generated_Source\PSoC6\pdl\drivers\peripheral\ipc/cy_ipc_drv.h **** * \section group_ipc_overview Overview
  65:Generated_Source\PSoC6\pdl\drivers\peripheral\ipc/cy_ipc_drv.h **** *
  66:Generated_Source\PSoC6\pdl\drivers\peripheral\ipc/cy_ipc_drv.h **** * The Pipe is the key element in the PDL design. A pipe is typically a
  67:Generated_Source\PSoC6\pdl\drivers\peripheral\ipc/cy_ipc_drv.h **** * full-duplex communication channel between CPU cores. A pipe allows a single
  68:Generated_Source\PSoC6\pdl\drivers\peripheral\ipc/cy_ipc_drv.h **** * conduit to transfer messages or data to and from multiple processes or CPUs.
  69:Generated_Source\PSoC6\pdl\drivers\peripheral\ipc/cy_ipc_drv.h **** *
  70:Generated_Source\PSoC6\pdl\drivers\peripheral\ipc/cy_ipc_drv.h **** * A pipe has two endpoints, one on each core. Each endpoint contains a dedicated
  71:Generated_Source\PSoC6\pdl\drivers\peripheral\ipc/cy_ipc_drv.h **** * IPC channel and an interrupt. IPC channels 0-7 and IPC interrupts 0-7 are
  72:Generated_Source\PSoC6\pdl\drivers\peripheral\ipc/cy_ipc_drv.h **** * reserved for system use.
  73:Generated_Source\PSoC6\pdl\drivers\peripheral\ipc/cy_ipc_drv.h **** *
  74:Generated_Source\PSoC6\pdl\drivers\peripheral\ipc/cy_ipc_drv.h **** * The pipe also contains the number of clients it supports, and for each client
  75:Generated_Source\PSoC6\pdl\drivers\peripheral\ipc/cy_ipc_drv.h **** * a callback function. So the pipe can service a number of clients, each with a
  76:Generated_Source\PSoC6\pdl\drivers\peripheral\ipc/cy_ipc_drv.h **** * separate callback function, on either endpoint. The number of clients a pipe
  77:Generated_Source\PSoC6\pdl\drivers\peripheral\ipc/cy_ipc_drv.h **** * supports is the sum of each endpoint's clients.
  78:Generated_Source\PSoC6\pdl\drivers\peripheral\ipc/cy_ipc_drv.h **** *
  79:Generated_Source\PSoC6\pdl\drivers\peripheral\ipc/cy_ipc_drv.h **** * This design enables any number of processes on the sending core to put
  80:Generated_Source\PSoC6\pdl\drivers\peripheral\ipc/cy_ipc_drv.h **** * arbitrary data into a single pipe. The first element of that data is the
  81:Generated_Source\PSoC6\pdl\drivers\peripheral\ipc/cy_ipc_drv.h **** * client ID of the client that should handle the data.
  82:Generated_Source\PSoC6\pdl\drivers\peripheral\ipc/cy_ipc_drv.h **** *
  83:Generated_Source\PSoC6\pdl\drivers\peripheral\ipc/cy_ipc_drv.h **** * An interrupt notifies the receiving core that data is available. The receiving
  84:Generated_Source\PSoC6\pdl\drivers\peripheral\ipc/cy_ipc_drv.h **** * core parses the data to identify the client, and then dispatches the event to
  85:Generated_Source\PSoC6\pdl\drivers\peripheral\ipc/cy_ipc_drv.h **** * the appropriate client via the client callback function. An interrupt notifies
  86:Generated_Source\PSoC6\pdl\drivers\peripheral\ipc/cy_ipc_drv.h **** * the sending core that the receiver is finished. In this way a single pipe can
  87:Generated_Source\PSoC6\pdl\drivers\peripheral\ipc/cy_ipc_drv.h **** * manage arbitrary data transfers between cores with data flowing in either
ARM GAS  C:\Users\gjl\AppData\Local\Temp\ccShrItW.s 			page 5


  88:Generated_Source\PSoC6\pdl\drivers\peripheral\ipc/cy_ipc_drv.h **** * direction.
  89:Generated_Source\PSoC6\pdl\drivers\peripheral\ipc/cy_ipc_drv.h **** *
  90:Generated_Source\PSoC6\pdl\drivers\peripheral\ipc/cy_ipc_drv.h **** * \image html ipc_ints.png
  91:Generated_Source\PSoC6\pdl\drivers\peripheral\ipc/cy_ipc_drv.h **** *
  92:Generated_Source\PSoC6\pdl\drivers\peripheral\ipc/cy_ipc_drv.h **** * The application can use semaphores to control access to shared resources, as
  93:Generated_Source\PSoC6\pdl\drivers\peripheral\ipc/cy_ipc_drv.h **** * required by the application's logic.
  94:Generated_Source\PSoC6\pdl\drivers\peripheral\ipc/cy_ipc_drv.h **** *
  95:Generated_Source\PSoC6\pdl\drivers\peripheral\ipc/cy_ipc_drv.h **** * The PDL provides two specific files that set up default IPC functionality.
  96:Generated_Source\PSoC6\pdl\drivers\peripheral\ipc/cy_ipc_drv.h **** * They are cy_ipc_config.h and cy_ipc_config.c. You can modify these files based
  97:Generated_Source\PSoC6\pdl\drivers\peripheral\ipc/cy_ipc_drv.h **** * on the requirements of your design. If you use PSoC Creator as a development
  98:Generated_Source\PSoC6\pdl\drivers\peripheral\ipc/cy_ipc_drv.h **** * environment, it will not overwrite your changes when you generate the
  99:Generated_Source\PSoC6\pdl\drivers\peripheral\ipc/cy_ipc_drv.h **** * application or build your code.
 100:Generated_Source\PSoC6\pdl\drivers\peripheral\ipc/cy_ipc_drv.h **** *
 101:Generated_Source\PSoC6\pdl\drivers\peripheral\ipc/cy_ipc_drv.h **** * \section group_ipc_pipe_layer PIPE layer
 102:Generated_Source\PSoC6\pdl\drivers\peripheral\ipc/cy_ipc_drv.h **** *
 103:Generated_Source\PSoC6\pdl\drivers\peripheral\ipc/cy_ipc_drv.h **** * A pipe is a communication channel between two endpoints. PSoC 6 devices support
 104:Generated_Source\PSoC6\pdl\drivers\peripheral\ipc/cy_ipc_drv.h **** * 16 IPC channels, and 16 IPC interrupts, each numbered 0-15. IPC Channels 0-7
 105:Generated_Source\PSoC6\pdl\drivers\peripheral\ipc/cy_ipc_drv.h **** * and IPC interrupts 0-7 are reserved for system use. Channels 8-15 and
 106:Generated_Source\PSoC6\pdl\drivers\peripheral\ipc/cy_ipc_drv.h **** * interrupts 8-15 are available for application use.
 107:Generated_Source\PSoC6\pdl\drivers\peripheral\ipc/cy_ipc_drv.h **** *
 108:Generated_Source\PSoC6\pdl\drivers\peripheral\ipc/cy_ipc_drv.h **** * A full duplex pipe uses two IPC channels, one per endpoint. Each endpoint
 109:Generated_Source\PSoC6\pdl\drivers\peripheral\ipc/cy_ipc_drv.h **** * specifies all the information required to process a message (either sent or
 110:Generated_Source\PSoC6\pdl\drivers\peripheral\ipc/cy_ipc_drv.h **** * received). Each endpoint is configured to use an IPC channel, and an IPC
 111:Generated_Source\PSoC6\pdl\drivers\peripheral\ipc/cy_ipc_drv.h **** * interrupt. Common practice is to use the interrupt with the same number as
 112:Generated_Source\PSoC6\pdl\drivers\peripheral\ipc/cy_ipc_drv.h **** * the IPC channel. However, IPC Interrupts are not directly associated with the
 113:Generated_Source\PSoC6\pdl\drivers\peripheral\ipc/cy_ipc_drv.h **** * IPC channels, so any channel can use any interrupt.  Any IPC channel can
 114:Generated_Source\PSoC6\pdl\drivers\peripheral\ipc/cy_ipc_drv.h **** * trigger 0, 1 or all the IPC interrupts at once, depending on the Notify or
 115:Generated_Source\PSoC6\pdl\drivers\peripheral\ipc/cy_ipc_drv.h **** * Release masks used.
 116:Generated_Source\PSoC6\pdl\drivers\peripheral\ipc/cy_ipc_drv.h **** *
 117:Generated_Source\PSoC6\pdl\drivers\peripheral\ipc/cy_ipc_drv.h **** * It is also possible to set up a one-directional pipe, using a single IPC
 118:Generated_Source\PSoC6\pdl\drivers\peripheral\ipc/cy_ipc_drv.h **** * channel. In this design one processor is always the sender, and the other is
 119:Generated_Source\PSoC6\pdl\drivers\peripheral\ipc/cy_ipc_drv.h **** * always the receiver. However, there are still two endpoints.
 120:Generated_Source\PSoC6\pdl\drivers\peripheral\ipc/cy_ipc_drv.h **** *
 121:Generated_Source\PSoC6\pdl\drivers\peripheral\ipc/cy_ipc_drv.h **** * A pipe supports an arbitrary number of clients with an array of callback
 122:Generated_Source\PSoC6\pdl\drivers\peripheral\ipc/cy_ipc_drv.h **** * functions, one per client. The client ID is the index number into the array
 123:Generated_Source\PSoC6\pdl\drivers\peripheral\ipc/cy_ipc_drv.h **** * for the client. After a pipe is configured and initialized, the application
 124:Generated_Source\PSoC6\pdl\drivers\peripheral\ipc/cy_ipc_drv.h **** * calls Cy_IPC_Pipe_RegisterCallback() once per client to register each client's
 125:Generated_Source\PSoC6\pdl\drivers\peripheral\ipc/cy_ipc_drv.h **** * callback function. Multiple clients can use the same callback function. The
 126:Generated_Source\PSoC6\pdl\drivers\peripheral\ipc/cy_ipc_drv.h **** * endpoints in a pipe share the callback array.
 127:Generated_Source\PSoC6\pdl\drivers\peripheral\ipc/cy_ipc_drv.h **** *
 128:Generated_Source\PSoC6\pdl\drivers\peripheral\ipc/cy_ipc_drv.h **** * Use Cy_IPC_Pipe_SendMessage() to send data. You specify both the "to" and
 129:Generated_Source\PSoC6\pdl\drivers\peripheral\ipc/cy_ipc_drv.h **** * "from" endpoints, and a callback function to be used when the data transfer is
 130:Generated_Source\PSoC6\pdl\drivers\peripheral\ipc/cy_ipc_drv.h **** * complete. The data is a 32-bit void pointer. The data pointed to is arbitrary,
 131:Generated_Source\PSoC6\pdl\drivers\peripheral\ipc/cy_ipc_drv.h **** * and can be an array, a structure, or a location in memory. The only limitation
 132:Generated_Source\PSoC6\pdl\drivers\peripheral\ipc/cy_ipc_drv.h **** * is that the first element of the data must be a 32-bit unsigned word containing
 133:Generated_Source\PSoC6\pdl\drivers\peripheral\ipc/cy_ipc_drv.h **** * a client ID number. The ID number is the index into the callback array.
 134:Generated_Source\PSoC6\pdl\drivers\peripheral\ipc/cy_ipc_drv.h **** *
 135:Generated_Source\PSoC6\pdl\drivers\peripheral\ipc/cy_ipc_drv.h **** * When a message is sent, the receiving endpoint's interrupt handler is called.
 136:Generated_Source\PSoC6\pdl\drivers\peripheral\ipc/cy_ipc_drv.h **** * The ISR can perform any task required by the design. However, as part of its
 137:Generated_Source\PSoC6\pdl\drivers\peripheral\ipc/cy_ipc_drv.h **** * function it calls \ref Cy_IPC_Pipe_ExecCallback. This function retrieves the
 138:Generated_Source\PSoC6\pdl\drivers\peripheral\ipc/cy_ipc_drv.h **** * client ID from the data and calls the associated callback function.
 139:Generated_Source\PSoC6\pdl\drivers\peripheral\ipc/cy_ipc_drv.h **** * The user-supplied callback function handles the data in whatever way is
 140:Generated_Source\PSoC6\pdl\drivers\peripheral\ipc/cy_ipc_drv.h **** * appropriate based on the application logic.
 141:Generated_Source\PSoC6\pdl\drivers\peripheral\ipc/cy_ipc_drv.h **** *
 142:Generated_Source\PSoC6\pdl\drivers\peripheral\ipc/cy_ipc_drv.h **** * After the callback function is returned by the receiver, it invokes the release
 143:Generated_Source\PSoC6\pdl\drivers\peripheral\ipc/cy_ipc_drv.h **** * callback function defined by the sender of the message.
 144:Generated_Source\PSoC6\pdl\drivers\peripheral\ipc/cy_ipc_drv.h **** *
ARM GAS  C:\Users\gjl\AppData\Local\Temp\ccShrItW.s 			page 6


 145:Generated_Source\PSoC6\pdl\drivers\peripheral\ipc/cy_ipc_drv.h **** * \section group_ipc_sema_layer SEMA Layer
 146:Generated_Source\PSoC6\pdl\drivers\peripheral\ipc/cy_ipc_drv.h **** *
 147:Generated_Source\PSoC6\pdl\drivers\peripheral\ipc/cy_ipc_drv.h **** * A semaphore is a flag the application uses to control access to a shared
 148:Generated_Source\PSoC6\pdl\drivers\peripheral\ipc/cy_ipc_drv.h **** * resource. The SEMA-level API uses an IPC channel to implement
 149:Generated_Source\PSoC6\pdl\drivers\peripheral\ipc/cy_ipc_drv.h **** * semaphores. Startup code sets up a default semaphore system. The
 150:Generated_Source\PSoC6\pdl\drivers\peripheral\ipc/cy_ipc_drv.h **** * default system creates an array of 128 semaphores (four 32-bit values).
 151:Generated_Source\PSoC6\pdl\drivers\peripheral\ipc/cy_ipc_drv.h **** * Semaphores 0-15 are reserved for system use. See
 152:Generated_Source\PSoC6\pdl\drivers\peripheral\ipc/cy_ipc_drv.h **** * Configuration Considerations - SEMA.
 153:Generated_Source\PSoC6\pdl\drivers\peripheral\ipc/cy_ipc_drv.h **** *
 154:Generated_Source\PSoC6\pdl\drivers\peripheral\ipc/cy_ipc_drv.h **** * Functions are available to initialize the semaphore system, to set or
 155:Generated_Source\PSoC6\pdl\drivers\peripheral\ipc/cy_ipc_drv.h **** * clear a semaphore, or to get the semaphore's current status. Application
 156:Generated_Source\PSoC6\pdl\drivers\peripheral\ipc/cy_ipc_drv.h **** * logic uses SEMA functions to relate a particular semaphore to a particular
 157:Generated_Source\PSoC6\pdl\drivers\peripheral\ipc/cy_ipc_drv.h **** * shared resource, and set, clear, or check the flag when accessing the
 158:Generated_Source\PSoC6\pdl\drivers\peripheral\ipc/cy_ipc_drv.h **** * shared resource.
 159:Generated_Source\PSoC6\pdl\drivers\peripheral\ipc/cy_ipc_drv.h **** *
 160:Generated_Source\PSoC6\pdl\drivers\peripheral\ipc/cy_ipc_drv.h **** * \section group_ipc_configuration_cypipe Configuration Considerations - CYPIPE
 161:Generated_Source\PSoC6\pdl\drivers\peripheral\ipc/cy_ipc_drv.h **** *
 162:Generated_Source\PSoC6\pdl\drivers\peripheral\ipc/cy_ipc_drv.h **** * There are none. The cy_ipc_config files set up the required CYPIPE for system
 163:Generated_Source\PSoC6\pdl\drivers\peripheral\ipc/cy_ipc_drv.h **** * use. Do not modify the CYPIPE. It uses IPC channels 5 and 6 to implement full
 164:Generated_Source\PSoC6\pdl\drivers\peripheral\ipc/cy_ipc_drv.h **** * duplex communication between cores. On the CM0+ the notify interrupt is
 165:Generated_Source\PSoC6\pdl\drivers\peripheral\ipc/cy_ipc_drv.h **** * assigned to NVIC IRQn 27. See System Interrupt (SysInt) for background.
 166:Generated_Source\PSoC6\pdl\drivers\peripheral\ipc/cy_ipc_drv.h **** *
 167:Generated_Source\PSoC6\pdl\drivers\peripheral\ipc/cy_ipc_drv.h **** * To create your own pipe you should make 3 steps:
 168:Generated_Source\PSoC6\pdl\drivers\peripheral\ipc/cy_ipc_drv.h **** *   -# Define pipe callbacks processing interrupt handler
 169:Generated_Source\PSoC6\pdl\drivers\peripheral\ipc/cy_ipc_drv.h **** *   -# Define your pipe configuration by cy_stc_ipc_pipe_config_t type structure
 170:Generated_Source\PSoC6\pdl\drivers\peripheral\ipc/cy_ipc_drv.h **** *   -# Call Cy_IPC_Pipe_Init() to initialize your pipe on both cores
 171:Generated_Source\PSoC6\pdl\drivers\peripheral\ipc/cy_ipc_drv.h **** *
 172:Generated_Source\PSoC6\pdl\drivers\peripheral\ipc/cy_ipc_drv.h **** * \section group_ipc_configuration_sema Configuration Considerations - SEMA
 173:Generated_Source\PSoC6\pdl\drivers\peripheral\ipc/cy_ipc_drv.h **** *
 174:Generated_Source\PSoC6\pdl\drivers\peripheral\ipc/cy_ipc_drv.h **** * Startup code calls Cy_IPC_SystemSemaInit() (in cy_ipc_config.c) to set up
 175:Generated_Source\PSoC6\pdl\drivers\peripheral\ipc/cy_ipc_drv.h **** * semaphore functionality. This function calls the PDL init function
 176:Generated_Source\PSoC6\pdl\drivers\peripheral\ipc/cy_ipc_drv.h **** * Cy_IPC_Sema_Init() with default values. By default the semaphore system
 177:Generated_Source\PSoC6\pdl\drivers\peripheral\ipc/cy_ipc_drv.h **** * uses IPC channel 4, and creates 128 semaphores. Do <b>not</b> change the IPC
 178:Generated_Source\PSoC6\pdl\drivers\peripheral\ipc/cy_ipc_drv.h **** * channel. You can change the number of semaphores.
 179:Generated_Source\PSoC6\pdl\drivers\peripheral\ipc/cy_ipc_drv.h **** *
 180:Generated_Source\PSoC6\pdl\drivers\peripheral\ipc/cy_ipc_drv.h **** * To change the number of semaphores, modify this line of code in cy_ipc_config.h.
 181:Generated_Source\PSoC6\pdl\drivers\peripheral\ipc/cy_ipc_drv.h **** *
 182:Generated_Source\PSoC6\pdl\drivers\peripheral\ipc/cy_ipc_drv.h **** * \code
 183:Generated_Source\PSoC6\pdl\drivers\peripheral\ipc/cy_ipc_drv.h **** * #define CY_IPC_SEMA_COUNT               (uint32_t)(128u)
 184:Generated_Source\PSoC6\pdl\drivers\peripheral\ipc/cy_ipc_drv.h **** * \endcode
 185:Generated_Source\PSoC6\pdl\drivers\peripheral\ipc/cy_ipc_drv.h **** *
 186:Generated_Source\PSoC6\pdl\drivers\peripheral\ipc/cy_ipc_drv.h **** * The file cy_ipc_config.c declares array ipcSemaArray to hold the semaphore
 187:Generated_Source\PSoC6\pdl\drivers\peripheral\ipc/cy_ipc_drv.h **** * flags based on the size defined for this symbol. Use increments of 32. You
 188:Generated_Source\PSoC6\pdl\drivers\peripheral\ipc/cy_ipc_drv.h **** * must have at least 32 semaphores. Semaphores 0-15 are reserved for
 189:Generated_Source\PSoC6\pdl\drivers\peripheral\ipc/cy_ipc_drv.h **** * system use. Your application can use semaphores greater than 15.
 190:Generated_Source\PSoC6\pdl\drivers\peripheral\ipc/cy_ipc_drv.h **** *
 191:Generated_Source\PSoC6\pdl\drivers\peripheral\ipc/cy_ipc_drv.h **** * \section group_ipc_more_information More Information
 192:Generated_Source\PSoC6\pdl\drivers\peripheral\ipc/cy_ipc_drv.h **** *
 193:Generated_Source\PSoC6\pdl\drivers\peripheral\ipc/cy_ipc_drv.h **** * Cy_IPC_SystemSemaInit() and Cy_IPC_SystemPipeInit() functions are called in the
 194:Generated_Source\PSoC6\pdl\drivers\peripheral\ipc/cy_ipc_drv.h **** * SystemInit function. If the default startup file is not used, or SystemInit is
 195:Generated_Source\PSoC6\pdl\drivers\peripheral\ipc/cy_ipc_drv.h **** * not called in your project, call the following three functions prior to
 196:Generated_Source\PSoC6\pdl\drivers\peripheral\ipc/cy_ipc_drv.h **** * executing any flash or EmEEPROM write or erase operation. For example:
 197:Generated_Source\PSoC6\pdl\drivers\peripheral\ipc/cy_ipc_drv.h **** *  -# Cy_IPC_SystemSemaInit()
 198:Generated_Source\PSoC6\pdl\drivers\peripheral\ipc/cy_ipc_drv.h **** *  -# Cy_IPC_SystemPipeInit()
 199:Generated_Source\PSoC6\pdl\drivers\peripheral\ipc/cy_ipc_drv.h **** *  -# Cy_Flash_Init()
 200:Generated_Source\PSoC6\pdl\drivers\peripheral\ipc/cy_ipc_drv.h **** *
 201:Generated_Source\PSoC6\pdl\drivers\peripheral\ipc/cy_ipc_drv.h **** * Also Cy_IPC_SystemPipeInit function is called to support BLE host/controller
ARM GAS  C:\Users\gjl\AppData\Local\Temp\ccShrItW.s 			page 7


 202:Generated_Source\PSoC6\pdl\drivers\peripheral\ipc/cy_ipc_drv.h **** * communication.
 203:Generated_Source\PSoC6\pdl\drivers\peripheral\ipc/cy_ipc_drv.h **** *
 204:Generated_Source\PSoC6\pdl\drivers\peripheral\ipc/cy_ipc_drv.h **** * See the technical reference manual(TRM) for more information on the IPC.
 205:Generated_Source\PSoC6\pdl\drivers\peripheral\ipc/cy_ipc_drv.h **** *
 206:Generated_Source\PSoC6\pdl\drivers\peripheral\ipc/cy_ipc_drv.h **** * \section group_ipc_MISRA MISRA-C Compliance
 207:Generated_Source\PSoC6\pdl\drivers\peripheral\ipc/cy_ipc_drv.h **** *
 208:Generated_Source\PSoC6\pdl\drivers\peripheral\ipc/cy_ipc_drv.h **** * <table class="doxtable">
 209:Generated_Source\PSoC6\pdl\drivers\peripheral\ipc/cy_ipc_drv.h **** *   <tr>
 210:Generated_Source\PSoC6\pdl\drivers\peripheral\ipc/cy_ipc_drv.h **** *     <th>MISRA Rule</th>
 211:Generated_Source\PSoC6\pdl\drivers\peripheral\ipc/cy_ipc_drv.h **** *     <th>Rule Class (Required/Advisory)</th>
 212:Generated_Source\PSoC6\pdl\drivers\peripheral\ipc/cy_ipc_drv.h **** *     <th>Rule Description</th>
 213:Generated_Source\PSoC6\pdl\drivers\peripheral\ipc/cy_ipc_drv.h **** *     <th style="width: 50%;">Description of Deviation(s)</th>
 214:Generated_Source\PSoC6\pdl\drivers\peripheral\ipc/cy_ipc_drv.h **** *   </tr>
 215:Generated_Source\PSoC6\pdl\drivers\peripheral\ipc/cy_ipc_drv.h **** *   <tr>
 216:Generated_Source\PSoC6\pdl\drivers\peripheral\ipc/cy_ipc_drv.h **** *     <td>10.3</td>
 217:Generated_Source\PSoC6\pdl\drivers\peripheral\ipc/cy_ipc_drv.h **** *     <td>R</td>
 218:Generated_Source\PSoC6\pdl\drivers\peripheral\ipc/cy_ipc_drv.h **** *     <td>The value of a complex expression of integer type shall be cast
 219:Generated_Source\PSoC6\pdl\drivers\peripheral\ipc/cy_ipc_drv.h **** *         only to a type of the same signedness that is no wider than the underlying
 220:Generated_Source\PSoC6\pdl\drivers\peripheral\ipc/cy_ipc_drv.h **** *         type of the expression.</td>
 221:Generated_Source\PSoC6\pdl\drivers\peripheral\ipc/cy_ipc_drv.h **** *     <td>The cast from integer to enumeration value is used to calculate
 222:Generated_Source\PSoC6\pdl\drivers\peripheral\ipc/cy_ipc_drv.h **** *         the interrupt vector source from the integer number of the IPC interrupt
 223:Generated_Source\PSoC6\pdl\drivers\peripheral\ipc/cy_ipc_drv.h **** *         structure, so there is no way to avoid this cast.</td>
 224:Generated_Source\PSoC6\pdl\drivers\peripheral\ipc/cy_ipc_drv.h **** *   </tr>
 225:Generated_Source\PSoC6\pdl\drivers\peripheral\ipc/cy_ipc_drv.h **** *   <tr>
 226:Generated_Source\PSoC6\pdl\drivers\peripheral\ipc/cy_ipc_drv.h **** *     <td>11.4</td>
 227:Generated_Source\PSoC6\pdl\drivers\peripheral\ipc/cy_ipc_drv.h **** *     <td>A</td>
 228:Generated_Source\PSoC6\pdl\drivers\peripheral\ipc/cy_ipc_drv.h **** *     <td>A cast should not be performed between a pointer to the void to a
 229:Generated_Source\PSoC6\pdl\drivers\peripheral\ipc/cy_ipc_drv.h **** *         pointer to the object type.</td>
 230:Generated_Source\PSoC6\pdl\drivers\peripheral\ipc/cy_ipc_drv.h **** *     <td>The cast from the void to pointer and vice versa is used to transmit
 231:Generated_Source\PSoC6\pdl\drivers\peripheral\ipc/cy_ipc_drv.h **** *         data via the \ref group_ipc channel by exchanging the pointer. We
 232:Generated_Source\PSoC6\pdl\drivers\peripheral\ipc/cy_ipc_drv.h **** *         exchange only one pointer, so there is no way to avoid this cast.</td>
 233:Generated_Source\PSoC6\pdl\drivers\peripheral\ipc/cy_ipc_drv.h **** *   </tr>
 234:Generated_Source\PSoC6\pdl\drivers\peripheral\ipc/cy_ipc_drv.h **** * </table>
 235:Generated_Source\PSoC6\pdl\drivers\peripheral\ipc/cy_ipc_drv.h **** *
 236:Generated_Source\PSoC6\pdl\drivers\peripheral\ipc/cy_ipc_drv.h **** * \section group_ipc_changelog Changelog
 237:Generated_Source\PSoC6\pdl\drivers\peripheral\ipc/cy_ipc_drv.h **** *
 238:Generated_Source\PSoC6\pdl\drivers\peripheral\ipc/cy_ipc_drv.h **** * <table class="doxtable">
 239:Generated_Source\PSoC6\pdl\drivers\peripheral\ipc/cy_ipc_drv.h **** *   <tr><th>Version</th><th>Changes</th><th>Reason for Change</th></tr>
 240:Generated_Source\PSoC6\pdl\drivers\peripheral\ipc/cy_ipc_drv.h **** *   <tr>
 241:Generated_Source\PSoC6\pdl\drivers\peripheral\ipc/cy_ipc_drv.h **** *     <td>1.10.1</td>
 242:Generated_Source\PSoC6\pdl\drivers\peripheral\ipc/cy_ipc_drv.h **** *     <td>Updated description of the \ref Cy_IPC_Pipe_Init,  
 243:Generated_Source\PSoC6\pdl\drivers\peripheral\ipc/cy_ipc_drv.h **** *         \ref Cy_IPC_Pipe_EndpointInit, \ref Cy_IPC_Sema_Set functions.
 244:Generated_Source\PSoC6\pdl\drivers\peripheral\ipc/cy_ipc_drv.h **** *         Added / updated code snippets.
 245:Generated_Source\PSoC6\pdl\drivers\peripheral\ipc/cy_ipc_drv.h **** *     </td>
 246:Generated_Source\PSoC6\pdl\drivers\peripheral\ipc/cy_ipc_drv.h **** *     <td>Documentation update and clarification</td>
 247:Generated_Source\PSoC6\pdl\drivers\peripheral\ipc/cy_ipc_drv.h **** *   </tr>
 248:Generated_Source\PSoC6\pdl\drivers\peripheral\ipc/cy_ipc_drv.h **** *   <tr>
 249:Generated_Source\PSoC6\pdl\drivers\peripheral\ipc/cy_ipc_drv.h **** *     <td>1.10</td>
 250:Generated_Source\PSoC6\pdl\drivers\peripheral\ipc/cy_ipc_drv.h **** *     <td>Added support for more IPC structures</td>
 251:Generated_Source\PSoC6\pdl\drivers\peripheral\ipc/cy_ipc_drv.h **** *     <td>New device support</td>
 252:Generated_Source\PSoC6\pdl\drivers\peripheral\ipc/cy_ipc_drv.h **** *   </tr>
 253:Generated_Source\PSoC6\pdl\drivers\peripheral\ipc/cy_ipc_drv.h **** *   <tr>
 254:Generated_Source\PSoC6\pdl\drivers\peripheral\ipc/cy_ipc_drv.h **** *     <td>1.0</td>
 255:Generated_Source\PSoC6\pdl\drivers\peripheral\ipc/cy_ipc_drv.h **** *     <td>Initial version</td>
 256:Generated_Source\PSoC6\pdl\drivers\peripheral\ipc/cy_ipc_drv.h **** *     <td></td>
 257:Generated_Source\PSoC6\pdl\drivers\peripheral\ipc/cy_ipc_drv.h **** *   </tr>
 258:Generated_Source\PSoC6\pdl\drivers\peripheral\ipc/cy_ipc_drv.h **** * </table>
ARM GAS  C:\Users\gjl\AppData\Local\Temp\ccShrItW.s 			page 8


 259:Generated_Source\PSoC6\pdl\drivers\peripheral\ipc/cy_ipc_drv.h **** *
 260:Generated_Source\PSoC6\pdl\drivers\peripheral\ipc/cy_ipc_drv.h **** * \defgroup group_ipc_drv IPC driver layer (IPC_DRV)
 261:Generated_Source\PSoC6\pdl\drivers\peripheral\ipc/cy_ipc_drv.h **** * \{
 262:Generated_Source\PSoC6\pdl\drivers\peripheral\ipc/cy_ipc_drv.h **** *   The functions of this layer are used in the higher IPC levels
 263:Generated_Source\PSoC6\pdl\drivers\peripheral\ipc/cy_ipc_drv.h **** *   (Semaphores and Pipes).
 264:Generated_Source\PSoC6\pdl\drivers\peripheral\ipc/cy_ipc_drv.h **** *   Users should not call any of these IPC functions directly.
 265:Generated_Source\PSoC6\pdl\drivers\peripheral\ipc/cy_ipc_drv.h **** *
 266:Generated_Source\PSoC6\pdl\drivers\peripheral\ipc/cy_ipc_drv.h **** *   \defgroup group_ipc_macros Macros
 267:Generated_Source\PSoC6\pdl\drivers\peripheral\ipc/cy_ipc_drv.h **** *       Macro definitions are used in the driver
 268:Generated_Source\PSoC6\pdl\drivers\peripheral\ipc/cy_ipc_drv.h **** *
 269:Generated_Source\PSoC6\pdl\drivers\peripheral\ipc/cy_ipc_drv.h **** *   \defgroup group_ipc_functions Functions
 270:Generated_Source\PSoC6\pdl\drivers\peripheral\ipc/cy_ipc_drv.h **** *       Functions are used in the driver
 271:Generated_Source\PSoC6\pdl\drivers\peripheral\ipc/cy_ipc_drv.h **** *
 272:Generated_Source\PSoC6\pdl\drivers\peripheral\ipc/cy_ipc_drv.h **** *   \defgroup group_ipc_data_structures Data Structures
 273:Generated_Source\PSoC6\pdl\drivers\peripheral\ipc/cy_ipc_drv.h **** *       Data structures are used in the driver
 274:Generated_Source\PSoC6\pdl\drivers\peripheral\ipc/cy_ipc_drv.h **** *
 275:Generated_Source\PSoC6\pdl\drivers\peripheral\ipc/cy_ipc_drv.h **** *   \defgroup group_ipc_enums Enumerated Types
 276:Generated_Source\PSoC6\pdl\drivers\peripheral\ipc/cy_ipc_drv.h **** *       Enumerations are used in the driver
 277:Generated_Source\PSoC6\pdl\drivers\peripheral\ipc/cy_ipc_drv.h **** * \}
 278:Generated_Source\PSoC6\pdl\drivers\peripheral\ipc/cy_ipc_drv.h **** *
 279:Generated_Source\PSoC6\pdl\drivers\peripheral\ipc/cy_ipc_drv.h **** * \defgroup group_ipc_sema IPC semaphores layer (IPC_SEMA)
 280:Generated_Source\PSoC6\pdl\drivers\peripheral\ipc/cy_ipc_drv.h **** * \defgroup group_ipc_pipe IPC pipes layer (IPC_PIPE)
 281:Generated_Source\PSoC6\pdl\drivers\peripheral\ipc/cy_ipc_drv.h **** *
 282:Generated_Source\PSoC6\pdl\drivers\peripheral\ipc/cy_ipc_drv.h **** */
 283:Generated_Source\PSoC6\pdl\drivers\peripheral\ipc/cy_ipc_drv.h **** 
 284:Generated_Source\PSoC6\pdl\drivers\peripheral\ipc/cy_ipc_drv.h **** /******************************************************************************/
 285:Generated_Source\PSoC6\pdl\drivers\peripheral\ipc/cy_ipc_drv.h **** /* Include files                                                              */
 286:Generated_Source\PSoC6\pdl\drivers\peripheral\ipc/cy_ipc_drv.h **** /******************************************************************************/
 287:Generated_Source\PSoC6\pdl\drivers\peripheral\ipc/cy_ipc_drv.h **** #include "syslib/cy_syslib.h"
 288:Generated_Source\PSoC6\pdl\drivers\peripheral\ipc/cy_ipc_drv.h **** #include "cy_device_headers.h"
 289:Generated_Source\PSoC6\pdl\drivers\peripheral\ipc/cy_ipc_drv.h **** #include "cy_ipc_config.h"
 290:Generated_Source\PSoC6\pdl\drivers\peripheral\ipc/cy_ipc_drv.h **** #include <stddef.h>
 291:Generated_Source\PSoC6\pdl\drivers\peripheral\ipc/cy_ipc_drv.h **** 
 292:Generated_Source\PSoC6\pdl\drivers\peripheral\ipc/cy_ipc_drv.h **** /**
 293:Generated_Source\PSoC6\pdl\drivers\peripheral\ipc/cy_ipc_drv.h **** * \addtogroup group_ipc_macros
 294:Generated_Source\PSoC6\pdl\drivers\peripheral\ipc/cy_ipc_drv.h **** * \{
 295:Generated_Source\PSoC6\pdl\drivers\peripheral\ipc/cy_ipc_drv.h **** */
 296:Generated_Source\PSoC6\pdl\drivers\peripheral\ipc/cy_ipc_drv.h **** 
 297:Generated_Source\PSoC6\pdl\drivers\peripheral\ipc/cy_ipc_drv.h **** /** Driver major version */
 298:Generated_Source\PSoC6\pdl\drivers\peripheral\ipc/cy_ipc_drv.h **** #define CY_IPC_DRV_VERSION_MAJOR       1
 299:Generated_Source\PSoC6\pdl\drivers\peripheral\ipc/cy_ipc_drv.h **** 
 300:Generated_Source\PSoC6\pdl\drivers\peripheral\ipc/cy_ipc_drv.h **** /** Driver minor version */
 301:Generated_Source\PSoC6\pdl\drivers\peripheral\ipc/cy_ipc_drv.h **** #define CY_IPC_DRV_VERSION_MINOR       10
 302:Generated_Source\PSoC6\pdl\drivers\peripheral\ipc/cy_ipc_drv.h **** 
 303:Generated_Source\PSoC6\pdl\drivers\peripheral\ipc/cy_ipc_drv.h **** /** Defines a value to indicate that no notification events are needed */
 304:Generated_Source\PSoC6\pdl\drivers\peripheral\ipc/cy_ipc_drv.h **** #define CY_IPC_NO_NOTIFICATION         (uint32_t)(0x00000000ul)
 305:Generated_Source\PSoC6\pdl\drivers\peripheral\ipc/cy_ipc_drv.h **** 
 306:Generated_Source\PSoC6\pdl\drivers\peripheral\ipc/cy_ipc_drv.h **** /* Error Code constants */
 307:Generated_Source\PSoC6\pdl\drivers\peripheral\ipc/cy_ipc_drv.h **** #define CY_IPC_ID CY_PDL_DRV_ID(0x22u)  /**< Software PDL driver ID for IPC */
 308:Generated_Source\PSoC6\pdl\drivers\peripheral\ipc/cy_ipc_drv.h **** 
 309:Generated_Source\PSoC6\pdl\drivers\peripheral\ipc/cy_ipc_drv.h **** /** Return prefix for IPC driver function status codes */
 310:Generated_Source\PSoC6\pdl\drivers\peripheral\ipc/cy_ipc_drv.h **** #define CY_IPC_ID_INFO    (uint32_t)( CY_IPC_ID | CY_PDL_STATUS_INFO )
 311:Generated_Source\PSoC6\pdl\drivers\peripheral\ipc/cy_ipc_drv.h **** /** Return prefix for IPC driver function warning return values */
 312:Generated_Source\PSoC6\pdl\drivers\peripheral\ipc/cy_ipc_drv.h **** #define CY_IPC_ID_WARNING (uint32_t)( CY_IPC_ID | CY_PDL_STATUS_WARNING)
 313:Generated_Source\PSoC6\pdl\drivers\peripheral\ipc/cy_ipc_drv.h **** /** Return prefix for IPC driver function error return values */
 314:Generated_Source\PSoC6\pdl\drivers\peripheral\ipc/cy_ipc_drv.h **** #define CY_IPC_ID_ERROR   (uint32_t)( CY_IPC_ID | CY_PDL_STATUS_ERROR)
 315:Generated_Source\PSoC6\pdl\drivers\peripheral\ipc/cy_ipc_drv.h **** 
ARM GAS  C:\Users\gjl\AppData\Local\Temp\ccShrItW.s 			page 9


 316:Generated_Source\PSoC6\pdl\drivers\peripheral\ipc/cy_ipc_drv.h **** /** Converts the IPC interrupt channel number to interrupt vector */
 317:Generated_Source\PSoC6\pdl\drivers\peripheral\ipc/cy_ipc_drv.h **** #define CY_IPC_INTR_NUM_TO_VECT(x)         ((int32_t)cpuss_interrupts_ipc_0_IRQn + (x))
 318:Generated_Source\PSoC6\pdl\drivers\peripheral\ipc/cy_ipc_drv.h **** 
 319:Generated_Source\PSoC6\pdl\drivers\peripheral\ipc/cy_ipc_drv.h **** /** \} group_ipc_macros */
 320:Generated_Source\PSoC6\pdl\drivers\peripheral\ipc/cy_ipc_drv.h **** 
 321:Generated_Source\PSoC6\pdl\drivers\peripheral\ipc/cy_ipc_drv.h **** /* end of definition in device.h */
 322:Generated_Source\PSoC6\pdl\drivers\peripheral\ipc/cy_ipc_drv.h **** 
 323:Generated_Source\PSoC6\pdl\drivers\peripheral\ipc/cy_ipc_drv.h **** 
 324:Generated_Source\PSoC6\pdl\drivers\peripheral\ipc/cy_ipc_drv.h **** /**
 325:Generated_Source\PSoC6\pdl\drivers\peripheral\ipc/cy_ipc_drv.h **** * \addtogroup group_ipc_enums
 326:Generated_Source\PSoC6\pdl\drivers\peripheral\ipc/cy_ipc_drv.h **** * \{
 327:Generated_Source\PSoC6\pdl\drivers\peripheral\ipc/cy_ipc_drv.h **** */
 328:Generated_Source\PSoC6\pdl\drivers\peripheral\ipc/cy_ipc_drv.h **** 
 329:Generated_Source\PSoC6\pdl\drivers\peripheral\ipc/cy_ipc_drv.h **** /**
 330:Generated_Source\PSoC6\pdl\drivers\peripheral\ipc/cy_ipc_drv.h **** * This is a list of ENUMs used for function return status.
 331:Generated_Source\PSoC6\pdl\drivers\peripheral\ipc/cy_ipc_drv.h **** */
 332:Generated_Source\PSoC6\pdl\drivers\peripheral\ipc/cy_ipc_drv.h **** typedef enum
 333:Generated_Source\PSoC6\pdl\drivers\peripheral\ipc/cy_ipc_drv.h **** {
 334:Generated_Source\PSoC6\pdl\drivers\peripheral\ipc/cy_ipc_drv.h ****     /** Function was successfully executed */
 335:Generated_Source\PSoC6\pdl\drivers\peripheral\ipc/cy_ipc_drv.h ****     CY_IPC_DRV_SUCCESS      = (0x00u),
 336:Generated_Source\PSoC6\pdl\drivers\peripheral\ipc/cy_ipc_drv.h ****     /** Function was not executed due to an error.
 337:Generated_Source\PSoC6\pdl\drivers\peripheral\ipc/cy_ipc_drv.h ****         Typical conditions for the error explained
 338:Generated_Source\PSoC6\pdl\drivers\peripheral\ipc/cy_ipc_drv.h ****         in the function description */
 339:Generated_Source\PSoC6\pdl\drivers\peripheral\ipc/cy_ipc_drv.h ****     CY_IPC_DRV_ERROR        = ( CY_IPC_ID_ERROR + 1ul),
 340:Generated_Source\PSoC6\pdl\drivers\peripheral\ipc/cy_ipc_drv.h **** } cy_en_ipcdrv_status_t;
 341:Generated_Source\PSoC6\pdl\drivers\peripheral\ipc/cy_ipc_drv.h **** 
 342:Generated_Source\PSoC6\pdl\drivers\peripheral\ipc/cy_ipc_drv.h **** /** \} group_ipc_enums */
 343:Generated_Source\PSoC6\pdl\drivers\peripheral\ipc/cy_ipc_drv.h **** 
 344:Generated_Source\PSoC6\pdl\drivers\peripheral\ipc/cy_ipc_drv.h **** 
 345:Generated_Source\PSoC6\pdl\drivers\peripheral\ipc/cy_ipc_drv.h **** #ifdef __cplusplus
 346:Generated_Source\PSoC6\pdl\drivers\peripheral\ipc/cy_ipc_drv.h **** extern "C" {
 347:Generated_Source\PSoC6\pdl\drivers\peripheral\ipc/cy_ipc_drv.h **** #endif
 348:Generated_Source\PSoC6\pdl\drivers\peripheral\ipc/cy_ipc_drv.h **** 
 349:Generated_Source\PSoC6\pdl\drivers\peripheral\ipc/cy_ipc_drv.h **** /** \cond INTERNAL */
 350:Generated_Source\PSoC6\pdl\drivers\peripheral\ipc/cy_ipc_drv.h **** 
 351:Generated_Source\PSoC6\pdl\drivers\peripheral\ipc/cy_ipc_drv.h **** __STATIC_INLINE void     Cy_IPC_Drv_WriteDataValue (IPC_STRUCT_Type* base, uint32_t dataValue);
 352:Generated_Source\PSoC6\pdl\drivers\peripheral\ipc/cy_ipc_drv.h **** __STATIC_INLINE uint32_t Cy_IPC_Drv_ReadDataValue (IPC_STRUCT_Type const * base);
 353:Generated_Source\PSoC6\pdl\drivers\peripheral\ipc/cy_ipc_drv.h **** 
 354:Generated_Source\PSoC6\pdl\drivers\peripheral\ipc/cy_ipc_drv.h **** __STATIC_INLINE uint32_t Cy_IPC_Drv_ExtractAcquireMask (uint32_t intMask);
 355:Generated_Source\PSoC6\pdl\drivers\peripheral\ipc/cy_ipc_drv.h **** __STATIC_INLINE uint32_t Cy_IPC_Drv_ExtractReleaseMask (uint32_t intMask);
 356:Generated_Source\PSoC6\pdl\drivers\peripheral\ipc/cy_ipc_drv.h **** 
 357:Generated_Source\PSoC6\pdl\drivers\peripheral\ipc/cy_ipc_drv.h **** /** \endcond */
 358:Generated_Source\PSoC6\pdl\drivers\peripheral\ipc/cy_ipc_drv.h **** 
 359:Generated_Source\PSoC6\pdl\drivers\peripheral\ipc/cy_ipc_drv.h **** /**
 360:Generated_Source\PSoC6\pdl\drivers\peripheral\ipc/cy_ipc_drv.h **** * \addtogroup group_ipc_functions
 361:Generated_Source\PSoC6\pdl\drivers\peripheral\ipc/cy_ipc_drv.h **** * \{
 362:Generated_Source\PSoC6\pdl\drivers\peripheral\ipc/cy_ipc_drv.h **** */
 363:Generated_Source\PSoC6\pdl\drivers\peripheral\ipc/cy_ipc_drv.h **** 
 364:Generated_Source\PSoC6\pdl\drivers\peripheral\ipc/cy_ipc_drv.h **** __STATIC_INLINE IPC_STRUCT_Type*       Cy_IPC_Drv_GetIpcBaseAddress (uint32_t ipcIndex);
 365:Generated_Source\PSoC6\pdl\drivers\peripheral\ipc/cy_ipc_drv.h **** __STATIC_INLINE IPC_INTR_STRUCT_Type*  Cy_IPC_Drv_GetIntrBaseAddr (uint32_t ipcIntrIndex);
 366:Generated_Source\PSoC6\pdl\drivers\peripheral\ipc/cy_ipc_drv.h **** 
 367:Generated_Source\PSoC6\pdl\drivers\peripheral\ipc/cy_ipc_drv.h **** __STATIC_INLINE void     Cy_IPC_Drv_AcquireNotify (IPC_STRUCT_Type * base, uint32_t notifyEventIntr
 368:Generated_Source\PSoC6\pdl\drivers\peripheral\ipc/cy_ipc_drv.h **** __STATIC_INLINE void     Cy_IPC_Drv_ReleaseNotify (IPC_STRUCT_Type * base, uint32_t notifyEventIntr
 369:Generated_Source\PSoC6\pdl\drivers\peripheral\ipc/cy_ipc_drv.h **** 
 370:Generated_Source\PSoC6\pdl\drivers\peripheral\ipc/cy_ipc_drv.h **** __STATIC_INLINE  cy_en_ipcdrv_status_t Cy_IPC_Drv_LockAcquire (IPC_STRUCT_Type const * base);
 371:Generated_Source\PSoC6\pdl\drivers\peripheral\ipc/cy_ipc_drv.h **** cy_en_ipcdrv_status_t    Cy_IPC_Drv_LockRelease (IPC_STRUCT_Type * base, uint32_t releaseEventIntr)
 372:Generated_Source\PSoC6\pdl\drivers\peripheral\ipc/cy_ipc_drv.h **** __STATIC_INLINE bool     Cy_IPC_Drv_IsLockAcquired (IPC_STRUCT_Type const * base);
ARM GAS  C:\Users\gjl\AppData\Local\Temp\ccShrItW.s 			page 10


 373:Generated_Source\PSoC6\pdl\drivers\peripheral\ipc/cy_ipc_drv.h **** __STATIC_INLINE uint32_t Cy_IPC_Drv_GetLockStatus (IPC_STRUCT_Type const * base);
 374:Generated_Source\PSoC6\pdl\drivers\peripheral\ipc/cy_ipc_drv.h **** 
 375:Generated_Source\PSoC6\pdl\drivers\peripheral\ipc/cy_ipc_drv.h **** cy_en_ipcdrv_status_t    Cy_IPC_Drv_SendMsgWord (IPC_STRUCT_Type * base, uint32_t notifyEventIntr, 
 376:Generated_Source\PSoC6\pdl\drivers\peripheral\ipc/cy_ipc_drv.h **** cy_en_ipcdrv_status_t    Cy_IPC_Drv_ReadMsgWord (IPC_STRUCT_Type const * base, uint32_t * message);
 377:Generated_Source\PSoC6\pdl\drivers\peripheral\ipc/cy_ipc_drv.h **** __STATIC_INLINE cy_en_ipcdrv_status_t Cy_IPC_Drv_SendMsgPtr (IPC_STRUCT_Type* base, uint32_t notify
 378:Generated_Source\PSoC6\pdl\drivers\peripheral\ipc/cy_ipc_drv.h **** __STATIC_INLINE cy_en_ipcdrv_status_t Cy_IPC_Drv_ReadMsgPtr (IPC_STRUCT_Type const * base, void ** 
 379:Generated_Source\PSoC6\pdl\drivers\peripheral\ipc/cy_ipc_drv.h **** 
 380:Generated_Source\PSoC6\pdl\drivers\peripheral\ipc/cy_ipc_drv.h **** __STATIC_INLINE void     Cy_IPC_Drv_SetInterruptMask (IPC_INTR_STRUCT_Type * base,
 381:Generated_Source\PSoC6\pdl\drivers\peripheral\ipc/cy_ipc_drv.h ****                                                       uint32_t ipcReleaseMask, uint32_t ipcNotifyMa
 382:Generated_Source\PSoC6\pdl\drivers\peripheral\ipc/cy_ipc_drv.h **** __STATIC_INLINE uint32_t Cy_IPC_Drv_GetInterruptMask (IPC_INTR_STRUCT_Type const * base);
 383:Generated_Source\PSoC6\pdl\drivers\peripheral\ipc/cy_ipc_drv.h **** __STATIC_INLINE uint32_t Cy_IPC_Drv_GetInterruptStatusMasked (IPC_INTR_STRUCT_Type const * base);
 384:Generated_Source\PSoC6\pdl\drivers\peripheral\ipc/cy_ipc_drv.h **** __STATIC_INLINE uint32_t Cy_IPC_Drv_GetInterruptStatus (IPC_INTR_STRUCT_Type const * base);
 385:Generated_Source\PSoC6\pdl\drivers\peripheral\ipc/cy_ipc_drv.h **** __STATIC_INLINE void     Cy_IPC_Drv_SetInterrupt (IPC_INTR_STRUCT_Type * base,
 386:Generated_Source\PSoC6\pdl\drivers\peripheral\ipc/cy_ipc_drv.h ****                                                       uint32_t ipcReleaseMask, uint32_t ipcNotifyMa
 387:Generated_Source\PSoC6\pdl\drivers\peripheral\ipc/cy_ipc_drv.h **** __STATIC_INLINE void     Cy_IPC_Drv_ClearInterrupt (IPC_INTR_STRUCT_Type * base,
 388:Generated_Source\PSoC6\pdl\drivers\peripheral\ipc/cy_ipc_drv.h ****                                                       uint32_t ipcReleaseMask, uint32_t ipcNotifyMa
 389:Generated_Source\PSoC6\pdl\drivers\peripheral\ipc/cy_ipc_drv.h **** 
 390:Generated_Source\PSoC6\pdl\drivers\peripheral\ipc/cy_ipc_drv.h **** /*******************************************************************************
 391:Generated_Source\PSoC6\pdl\drivers\peripheral\ipc/cy_ipc_drv.h **** * Function Name: Cy_IPC_Drv_GetIpcBaseAddress
 392:Generated_Source\PSoC6\pdl\drivers\peripheral\ipc/cy_ipc_drv.h **** ****************************************************************************//**
 393:Generated_Source\PSoC6\pdl\drivers\peripheral\ipc/cy_ipc_drv.h **** *
 394:Generated_Source\PSoC6\pdl\drivers\peripheral\ipc/cy_ipc_drv.h **** * This function takes an IPC channel index as a parameter and returns the base
 395:Generated_Source\PSoC6\pdl\drivers\peripheral\ipc/cy_ipc_drv.h **** * address the IPC registers corresponding to the IPC channel.
 396:Generated_Source\PSoC6\pdl\drivers\peripheral\ipc/cy_ipc_drv.h **** *
 397:Generated_Source\PSoC6\pdl\drivers\peripheral\ipc/cy_ipc_drv.h **** * \note The user is responsible for ensuring that ipcIndex does not exceed the
 398:Generated_Source\PSoC6\pdl\drivers\peripheral\ipc/cy_ipc_drv.h **** * limits.
 399:Generated_Source\PSoC6\pdl\drivers\peripheral\ipc/cy_ipc_drv.h **** *
 400:Generated_Source\PSoC6\pdl\drivers\peripheral\ipc/cy_ipc_drv.h **** * \param ipcIndex
 401:Generated_Source\PSoC6\pdl\drivers\peripheral\ipc/cy_ipc_drv.h **** * Represents the number of IPC structure. This is converted to the base address of
 402:Generated_Source\PSoC6\pdl\drivers\peripheral\ipc/cy_ipc_drv.h **** * the IPC channel registers.
 403:Generated_Source\PSoC6\pdl\drivers\peripheral\ipc/cy_ipc_drv.h **** *
 404:Generated_Source\PSoC6\pdl\drivers\peripheral\ipc/cy_ipc_drv.h **** * \return
 405:Generated_Source\PSoC6\pdl\drivers\peripheral\ipc/cy_ipc_drv.h **** * Returns a pointer to the base of the IPC registers.
 406:Generated_Source\PSoC6\pdl\drivers\peripheral\ipc/cy_ipc_drv.h **** *
 407:Generated_Source\PSoC6\pdl\drivers\peripheral\ipc/cy_ipc_drv.h **** * \funcusage
 408:Generated_Source\PSoC6\pdl\drivers\peripheral\ipc/cy_ipc_drv.h **** * \snippet IPC_sut_01.cydsn/main_cm4.c snippet_Cy_IPC_Drv_SendMsgWord
 409:Generated_Source\PSoC6\pdl\drivers\peripheral\ipc/cy_ipc_drv.h **** *
 410:Generated_Source\PSoC6\pdl\drivers\peripheral\ipc/cy_ipc_drv.h **** *******************************************************************************/
 411:Generated_Source\PSoC6\pdl\drivers\peripheral\ipc/cy_ipc_drv.h **** __STATIC_INLINE IPC_STRUCT_Type* Cy_IPC_Drv_GetIpcBaseAddress (uint32_t ipcIndex)
 412:Generated_Source\PSoC6\pdl\drivers\peripheral\ipc/cy_ipc_drv.h **** {
 413:Generated_Source\PSoC6\pdl\drivers\peripheral\ipc/cy_ipc_drv.h ****     CY_ASSERT_L1((uint32_t)CY_IPC_CHANNELS > ipcIndex);
  57              		.loc 2 413 0 is_stmt 1
  58 0010 0F28     		cmp	r0, #15
  59 0012 04D9     		bls	.L4
  60 0014 40F29D11 		movw	r1, #413
  61              	.LVL2:
  62 0018 2148     		ldr	r0, .L13
  63              	.LVL3:
  64 001a FFF7FEFF 		bl	Cy_SysLib_AssertFailed
  65              	.LVL4:
  66              	.L4:
 414:Generated_Source\PSoC6\pdl\drivers\peripheral\ipc/cy_ipc_drv.h ****     return ( (IPC_STRUCT_Type*) ( &IPC->STRUCT[ipcIndex] ) );
  67              		.loc 2 414 0
  68 001e 6001     		lsls	r0, r4, #5
  69 0020 00F18040 		add	r0, r0, #1073741824
  70 0024 00F50C10 		add	r0, r0, #2293760
  71              	.LVL5:
ARM GAS  C:\Users\gjl\AppData\Local\Temp\ccShrItW.s 			page 11


  72              	.LBE21:
  73              	.LBE20:
  85:Generated_Source\PSoC6\pdl\drivers\peripheral\ipc/cy_ipc_sema.c ****         {
  86:Generated_Source\PSoC6\pdl\drivers\peripheral\ipc/cy_ipc_sema.c ****             cy_semaIpcStruct = Cy_IPC_Drv_GetIpcBaseAddress(ipcChannel);
  74              		.loc 1 86 0
  75 0028 1E4B     		ldr	r3, .L13+4
  76 002a 1860     		str	r0, [r3]
  77              	.LVL6:
  87:Generated_Source\PSoC6\pdl\drivers\peripheral\ipc/cy_ipc_sema.c **** 
  88:Generated_Source\PSoC6\pdl\drivers\peripheral\ipc/cy_ipc_sema.c ****             retStatus = CY_IPC_SEMA_SUCCESS;
  78              		.loc 1 88 0
  79 002c 0020     		movs	r0, #0
  80 002e F8BD     		pop	{r3, r4, r5, r6, r7, pc}
  81              	.LVL7:
  82              	.L3:
  89:Generated_Source\PSoC6\pdl\drivers\peripheral\ipc/cy_ipc_sema.c ****         }
  90:Generated_Source\PSoC6\pdl\drivers\peripheral\ipc/cy_ipc_sema.c **** 
  91:Generated_Source\PSoC6\pdl\drivers\peripheral\ipc/cy_ipc_sema.c ****         /* Check for non Null pointers and count value */
  92:Generated_Source\PSoC6\pdl\drivers\peripheral\ipc/cy_ipc_sema.c ****         else if ((NULL != memPtr) && (0u != count))
  83              		.loc 1 92 0
  84 0030 5DB3     		cbz	r5, .L7
  85              		.loc 1 92 0 is_stmt 0 discriminator 1
  86 0032 66B3     		cbz	r6, .L8
  93:Generated_Source\PSoC6\pdl\drivers\peripheral\ipc/cy_ipc_sema.c ****         {
  94:Generated_Source\PSoC6\pdl\drivers\peripheral\ipc/cy_ipc_sema.c ****             /* Check if semaphore count is a multiple of 32 */
  95:Generated_Source\PSoC6\pdl\drivers\peripheral\ipc/cy_ipc_sema.c ****             if( 0ul == (count & CY_IPC_SEMA_PER_WORD_MASK))
  87              		.loc 1 95 0 is_stmt 1
  88 0034 16F01F0F 		tst	r6, #31
  89 0038 2BD1     		bne	.L9
  90              	.LVL8:
  91              	.LBB22:
  92              	.LBB23:
 413:Generated_Source\PSoC6\pdl\drivers\peripheral\ipc/cy_ipc_drv.h ****     return ( (IPC_STRUCT_Type*) ( &IPC->STRUCT[ipcIndex] ) );
  93              		.loc 2 413 0
  94 003a 0F2C     		cmp	r4, #15
  95 003c 04D9     		bls	.L5
  96 003e 40F29D11 		movw	r1, #413
  97              	.LVL9:
  98 0042 1748     		ldr	r0, .L13
  99              	.LVL10:
 100 0044 FFF7FEFF 		bl	Cy_SysLib_AssertFailed
 101              	.LVL11:
 102              	.L5:
 103              		.loc 2 414 0
 104 0048 6401     		lsls	r4, r4, #5
 105              	.LVL12:
 106 004a 04F18044 		add	r4, r4, #1073741824
 107 004e 04F50C14 		add	r4, r4, #2293760
 108              	.LVL13:
 109              	.LBE23:
 110              	.LBE22:
  96:Generated_Source\PSoC6\pdl\drivers\peripheral\ipc/cy_ipc_sema.c ****             {
  97:Generated_Source\PSoC6\pdl\drivers\peripheral\ipc/cy_ipc_sema.c ****                 cy_semaIpcStruct = Cy_IPC_Drv_GetIpcBaseAddress(ipcChannel);
 111              		.loc 1 97 0
 112 0052 144F     		ldr	r7, .L13+4
 113 0054 3C60     		str	r4, [r7]
  98:Generated_Source\PSoC6\pdl\drivers\peripheral\ipc/cy_ipc_sema.c **** 
ARM GAS  C:\Users\gjl\AppData\Local\Temp\ccShrItW.s 			page 12


  99:Generated_Source\PSoC6\pdl\drivers\peripheral\ipc/cy_ipc_sema.c ****                 cy_semaData.maxSema  = count;
 114              		.loc 1 99 0
 115 0056 7E60     		str	r6, [r7, #4]
 100:Generated_Source\PSoC6\pdl\drivers\peripheral\ipc/cy_ipc_sema.c ****                 cy_semaData.arrayPtr = memPtr;
 116              		.loc 1 100 0
 117 0058 BD60     		str	r5, [r7, #8]
 101:Generated_Source\PSoC6\pdl\drivers\peripheral\ipc/cy_ipc_sema.c **** 
 102:Generated_Source\PSoC6\pdl\drivers\peripheral\ipc/cy_ipc_sema.c ****                 /* Initialize all semaphores to released */
 103:Generated_Source\PSoC6\pdl\drivers\peripheral\ipc/cy_ipc_sema.c ****                 (void)memset(cy_semaData.arrayPtr, 0, (count /8u));
 118              		.loc 1 103 0
 119 005a F208     		lsrs	r2, r6, #3
 120 005c 0021     		movs	r1, #0
 121 005e 2846     		mov	r0, r5
 122 0060 FFF7FEFF 		bl	memset
 123              	.LVL14:
 104:Generated_Source\PSoC6\pdl\drivers\peripheral\ipc/cy_ipc_sema.c **** 
 105:Generated_Source\PSoC6\pdl\drivers\peripheral\ipc/cy_ipc_sema.c ****                 /* Make sure semaphores start out released.  */
 106:Generated_Source\PSoC6\pdl\drivers\peripheral\ipc/cy_ipc_sema.c ****                 /* Ignore the return value since it is OK if it was already released. */
 107:Generated_Source\PSoC6\pdl\drivers\peripheral\ipc/cy_ipc_sema.c ****                 (void) Cy_IPC_Drv_LockRelease (cy_semaIpcStruct, CY_IPC_NO_NOTIFICATION);
 124              		.loc 1 107 0
 125 0064 0021     		movs	r1, #0
 126 0066 2046     		mov	r0, r4
 127 0068 FFF7FEFF 		bl	Cy_IPC_Drv_LockRelease
 128              	.LVL15:
 108:Generated_Source\PSoC6\pdl\drivers\peripheral\ipc/cy_ipc_sema.c **** 
 109:Generated_Source\PSoC6\pdl\drivers\peripheral\ipc/cy_ipc_sema.c ****                  /* Set the IPC Data with the pointer to the array. */
 110:Generated_Source\PSoC6\pdl\drivers\peripheral\ipc/cy_ipc_sema.c ****                 if( CY_IPC_DRV_SUCCESS == Cy_IPC_Drv_SendMsgPtr (cy_semaIpcStruct, CY_IPC_NO_NOTIFI
 129              		.loc 1 110 0
 130 006c 3A46     		mov	r2, r7
 131 006e 52F8040B 		ldr	r0, [r2], #4
 132              	.LVL16:
 133              	.LBB24:
 134              	.LBB25:
 415:Generated_Source\PSoC6\pdl\drivers\peripheral\ipc/cy_ipc_drv.h **** }
 416:Generated_Source\PSoC6\pdl\drivers\peripheral\ipc/cy_ipc_drv.h **** 
 417:Generated_Source\PSoC6\pdl\drivers\peripheral\ipc/cy_ipc_drv.h **** /*******************************************************************************
 418:Generated_Source\PSoC6\pdl\drivers\peripheral\ipc/cy_ipc_drv.h **** * Function Name: Cy_IPC_Drv_GetIntrBaseAddr
 419:Generated_Source\PSoC6\pdl\drivers\peripheral\ipc/cy_ipc_drv.h **** ****************************************************************************//**
 420:Generated_Source\PSoC6\pdl\drivers\peripheral\ipc/cy_ipc_drv.h **** *
 421:Generated_Source\PSoC6\pdl\drivers\peripheral\ipc/cy_ipc_drv.h **** * This function takes an IPC interrupt structure index and returns the base
 422:Generated_Source\PSoC6\pdl\drivers\peripheral\ipc/cy_ipc_drv.h **** * address of the IPC interrupt registers corresponding to the IPC Interrupt.
 423:Generated_Source\PSoC6\pdl\drivers\peripheral\ipc/cy_ipc_drv.h **** *
 424:Generated_Source\PSoC6\pdl\drivers\peripheral\ipc/cy_ipc_drv.h **** * \note The user is responsible for ensuring that ipcIntrIndex does not exceed the
 425:Generated_Source\PSoC6\pdl\drivers\peripheral\ipc/cy_ipc_drv.h **** * limits.
 426:Generated_Source\PSoC6\pdl\drivers\peripheral\ipc/cy_ipc_drv.h **** *
 427:Generated_Source\PSoC6\pdl\drivers\peripheral\ipc/cy_ipc_drv.h **** * \param ipcIntrIndex
 428:Generated_Source\PSoC6\pdl\drivers\peripheral\ipc/cy_ipc_drv.h **** * Represents the number of IPC interrupt structure. This is converted to the
 429:Generated_Source\PSoC6\pdl\drivers\peripheral\ipc/cy_ipc_drv.h **** * base address of the IPC interrupt registers.
 430:Generated_Source\PSoC6\pdl\drivers\peripheral\ipc/cy_ipc_drv.h **** *
 431:Generated_Source\PSoC6\pdl\drivers\peripheral\ipc/cy_ipc_drv.h **** * \return
 432:Generated_Source\PSoC6\pdl\drivers\peripheral\ipc/cy_ipc_drv.h **** * Returns a pointer to the base of the IPC interrupt registers.
 433:Generated_Source\PSoC6\pdl\drivers\peripheral\ipc/cy_ipc_drv.h **** *
 434:Generated_Source\PSoC6\pdl\drivers\peripheral\ipc/cy_ipc_drv.h **** * \funcusage
 435:Generated_Source\PSoC6\pdl\drivers\peripheral\ipc/cy_ipc_drv.h **** * \snippet IPC_sut_01.cydsn/main_cm4.c snippet_Cy_IPC_Drv_GetInterruptStatus
 436:Generated_Source\PSoC6\pdl\drivers\peripheral\ipc/cy_ipc_drv.h **** *
 437:Generated_Source\PSoC6\pdl\drivers\peripheral\ipc/cy_ipc_drv.h **** *******************************************************************************/
 438:Generated_Source\PSoC6\pdl\drivers\peripheral\ipc/cy_ipc_drv.h **** __STATIC_INLINE IPC_INTR_STRUCT_Type* Cy_IPC_Drv_GetIntrBaseAddr (uint32_t ipcIntrIndex)
ARM GAS  C:\Users\gjl\AppData\Local\Temp\ccShrItW.s 			page 13


 439:Generated_Source\PSoC6\pdl\drivers\peripheral\ipc/cy_ipc_drv.h **** {
 440:Generated_Source\PSoC6\pdl\drivers\peripheral\ipc/cy_ipc_drv.h ****     CY_ASSERT_L1((uint32_t)CY_IPC_INTERRUPTS > ipcIntrIndex);
 441:Generated_Source\PSoC6\pdl\drivers\peripheral\ipc/cy_ipc_drv.h ****     return ( (IPC_INTR_STRUCT_Type*) ( &IPC->INTR_STRUCT[ipcIntrIndex] ) );
 442:Generated_Source\PSoC6\pdl\drivers\peripheral\ipc/cy_ipc_drv.h **** }
 443:Generated_Source\PSoC6\pdl\drivers\peripheral\ipc/cy_ipc_drv.h **** 
 444:Generated_Source\PSoC6\pdl\drivers\peripheral\ipc/cy_ipc_drv.h **** /*******************************************************************************
 445:Generated_Source\PSoC6\pdl\drivers\peripheral\ipc/cy_ipc_drv.h **** * Function Name: Cy_IPC_Drv_SetInterruptMask
 446:Generated_Source\PSoC6\pdl\drivers\peripheral\ipc/cy_ipc_drv.h **** ****************************************************************************//**
 447:Generated_Source\PSoC6\pdl\drivers\peripheral\ipc/cy_ipc_drv.h **** *
 448:Generated_Source\PSoC6\pdl\drivers\peripheral\ipc/cy_ipc_drv.h **** * This function is used to set the interrupt mask for an IPC Interrupt.
 449:Generated_Source\PSoC6\pdl\drivers\peripheral\ipc/cy_ipc_drv.h **** * The mask sets release or acquire notification events for all IPC channels.
 450:Generated_Source\PSoC6\pdl\drivers\peripheral\ipc/cy_ipc_drv.h **** *
 451:Generated_Source\PSoC6\pdl\drivers\peripheral\ipc/cy_ipc_drv.h **** * \param base
 452:Generated_Source\PSoC6\pdl\drivers\peripheral\ipc/cy_ipc_drv.h **** * This is a handle to the IPC interrupt. This handle can be calculated from the
 453:Generated_Source\PSoC6\pdl\drivers\peripheral\ipc/cy_ipc_drv.h **** * IPC interrupt number using \ref Cy_IPC_Drv_GetIntrBaseAddr.
 454:Generated_Source\PSoC6\pdl\drivers\peripheral\ipc/cy_ipc_drv.h **** *
 455:Generated_Source\PSoC6\pdl\drivers\peripheral\ipc/cy_ipc_drv.h **** * \param ipcReleaseMask
 456:Generated_Source\PSoC6\pdl\drivers\peripheral\ipc/cy_ipc_drv.h **** * An encoded list of all IPC channels that can trigger the interrupt on a
 457:Generated_Source\PSoC6\pdl\drivers\peripheral\ipc/cy_ipc_drv.h **** * release event.
 458:Generated_Source\PSoC6\pdl\drivers\peripheral\ipc/cy_ipc_drv.h **** *
 459:Generated_Source\PSoC6\pdl\drivers\peripheral\ipc/cy_ipc_drv.h **** * \param ipcNotifyMask
 460:Generated_Source\PSoC6\pdl\drivers\peripheral\ipc/cy_ipc_drv.h **** * An encoded list of all IPC channels that can trigger the interrupt on a
 461:Generated_Source\PSoC6\pdl\drivers\peripheral\ipc/cy_ipc_drv.h **** * notify event.
 462:Generated_Source\PSoC6\pdl\drivers\peripheral\ipc/cy_ipc_drv.h **** *
 463:Generated_Source\PSoC6\pdl\drivers\peripheral\ipc/cy_ipc_drv.h **** * \funcusage
 464:Generated_Source\PSoC6\pdl\drivers\peripheral\ipc/cy_ipc_drv.h **** * \snippet IPC_sut_01.cydsn/main_cm4.c snippet_Cy_IPC_Drv_GetInterruptStatusMasked
 465:Generated_Source\PSoC6\pdl\drivers\peripheral\ipc/cy_ipc_drv.h **** *
 466:Generated_Source\PSoC6\pdl\drivers\peripheral\ipc/cy_ipc_drv.h **** *******************************************************************************/
 467:Generated_Source\PSoC6\pdl\drivers\peripheral\ipc/cy_ipc_drv.h **** __STATIC_INLINE void  Cy_IPC_Drv_SetInterruptMask (IPC_INTR_STRUCT_Type* base,
 468:Generated_Source\PSoC6\pdl\drivers\peripheral\ipc/cy_ipc_drv.h ****                                               uint32_t ipcReleaseMask, uint32_t ipcNotifyMask)
 469:Generated_Source\PSoC6\pdl\drivers\peripheral\ipc/cy_ipc_drv.h **** {
 470:Generated_Source\PSoC6\pdl\drivers\peripheral\ipc/cy_ipc_drv.h ****     CY_ASSERT_L1(0ul == (ipcNotifyMask  & ~(uint32_t)(IPC_STRUCT_NOTIFY_INTR_NOTIFY_Msk)));
 471:Generated_Source\PSoC6\pdl\drivers\peripheral\ipc/cy_ipc_drv.h ****     CY_ASSERT_L1(0ul == (ipcReleaseMask & ~(uint32_t)(IPC_STRUCT_RELEASE_INTR_RELEASE_Msk)));
 472:Generated_Source\PSoC6\pdl\drivers\peripheral\ipc/cy_ipc_drv.h ****     base->INTR_MASK = _VAL2FLD( IPC_INTR_STRUCT_INTR_MASK_NOTIFY,  ipcNotifyMask) |
 473:Generated_Source\PSoC6\pdl\drivers\peripheral\ipc/cy_ipc_drv.h ****                       _VAL2FLD( IPC_INTR_STRUCT_INTR_MASK_RELEASE, ipcReleaseMask);
 474:Generated_Source\PSoC6\pdl\drivers\peripheral\ipc/cy_ipc_drv.h **** }
 475:Generated_Source\PSoC6\pdl\drivers\peripheral\ipc/cy_ipc_drv.h **** 
 476:Generated_Source\PSoC6\pdl\drivers\peripheral\ipc/cy_ipc_drv.h **** 
 477:Generated_Source\PSoC6\pdl\drivers\peripheral\ipc/cy_ipc_drv.h **** /*******************************************************************************
 478:Generated_Source\PSoC6\pdl\drivers\peripheral\ipc/cy_ipc_drv.h **** * Function Name: Cy_IPC_Drv_GetInterruptMask
 479:Generated_Source\PSoC6\pdl\drivers\peripheral\ipc/cy_ipc_drv.h **** ****************************************************************************//**
 480:Generated_Source\PSoC6\pdl\drivers\peripheral\ipc/cy_ipc_drv.h **** *
 481:Generated_Source\PSoC6\pdl\drivers\peripheral\ipc/cy_ipc_drv.h **** * This function is used to read the interrupt mask.
 482:Generated_Source\PSoC6\pdl\drivers\peripheral\ipc/cy_ipc_drv.h **** *
 483:Generated_Source\PSoC6\pdl\drivers\peripheral\ipc/cy_ipc_drv.h **** * \param base
 484:Generated_Source\PSoC6\pdl\drivers\peripheral\ipc/cy_ipc_drv.h **** * This is a handle to the IPC interrupt. This handle can be calculated from
 485:Generated_Source\PSoC6\pdl\drivers\peripheral\ipc/cy_ipc_drv.h **** * the IPC interrupt number using \ref Cy_IPC_Drv_GetIntrBaseAddr.
 486:Generated_Source\PSoC6\pdl\drivers\peripheral\ipc/cy_ipc_drv.h **** *
 487:Generated_Source\PSoC6\pdl\drivers\peripheral\ipc/cy_ipc_drv.h **** * \return
 488:Generated_Source\PSoC6\pdl\drivers\peripheral\ipc/cy_ipc_drv.h **** *   The return value is encoded as follows
 489:Generated_Source\PSoC6\pdl\drivers\peripheral\ipc/cy_ipc_drv.h **** *   <table>
 490:Generated_Source\PSoC6\pdl\drivers\peripheral\ipc/cy_ipc_drv.h **** *   <tr><th>Interrupt sources   <th>Value
 491:Generated_Source\PSoC6\pdl\drivers\peripheral\ipc/cy_ipc_drv.h **** *   <tr><td>Ipc_PORTX_RELEASE   <td>Xth bit set
 492:Generated_Source\PSoC6\pdl\drivers\peripheral\ipc/cy_ipc_drv.h **** *   <tr><td>Ipc_PORTX_NOTIFY    <td>X+16th bit set
 493:Generated_Source\PSoC6\pdl\drivers\peripheral\ipc/cy_ipc_drv.h **** *   </table>
 494:Generated_Source\PSoC6\pdl\drivers\peripheral\ipc/cy_ipc_drv.h **** *
 495:Generated_Source\PSoC6\pdl\drivers\peripheral\ipc/cy_ipc_drv.h **** * \funcusage
ARM GAS  C:\Users\gjl\AppData\Local\Temp\ccShrItW.s 			page 14


 496:Generated_Source\PSoC6\pdl\drivers\peripheral\ipc/cy_ipc_drv.h **** * \snippet IPC_sut_01.cydsn/main_cm4.c snippet_Cy_IPC_Drv_GetInterruptStatusMasked
 497:Generated_Source\PSoC6\pdl\drivers\peripheral\ipc/cy_ipc_drv.h **** *
 498:Generated_Source\PSoC6\pdl\drivers\peripheral\ipc/cy_ipc_drv.h **** *******************************************************************************/
 499:Generated_Source\PSoC6\pdl\drivers\peripheral\ipc/cy_ipc_drv.h **** __STATIC_INLINE uint32_t Cy_IPC_Drv_GetInterruptMask(IPC_INTR_STRUCT_Type const * base)
 500:Generated_Source\PSoC6\pdl\drivers\peripheral\ipc/cy_ipc_drv.h **** {
 501:Generated_Source\PSoC6\pdl\drivers\peripheral\ipc/cy_ipc_drv.h ****     return (base->INTR_MASK);
 502:Generated_Source\PSoC6\pdl\drivers\peripheral\ipc/cy_ipc_drv.h **** }
 503:Generated_Source\PSoC6\pdl\drivers\peripheral\ipc/cy_ipc_drv.h **** 
 504:Generated_Source\PSoC6\pdl\drivers\peripheral\ipc/cy_ipc_drv.h **** /*******************************************************************************
 505:Generated_Source\PSoC6\pdl\drivers\peripheral\ipc/cy_ipc_drv.h **** * Function Name: Cy_IPC_Drv_GetInterruptStatusMasked
 506:Generated_Source\PSoC6\pdl\drivers\peripheral\ipc/cy_ipc_drv.h **** ****************************************************************************//**
 507:Generated_Source\PSoC6\pdl\drivers\peripheral\ipc/cy_ipc_drv.h **** *
 508:Generated_Source\PSoC6\pdl\drivers\peripheral\ipc/cy_ipc_drv.h **** * This function is used to read the active unmasked interrupt. This function
 509:Generated_Source\PSoC6\pdl\drivers\peripheral\ipc/cy_ipc_drv.h **** * can be used in the interrupt service routine to find which source triggered
 510:Generated_Source\PSoC6\pdl\drivers\peripheral\ipc/cy_ipc_drv.h **** * the interrupt.
 511:Generated_Source\PSoC6\pdl\drivers\peripheral\ipc/cy_ipc_drv.h **** *
 512:Generated_Source\PSoC6\pdl\drivers\peripheral\ipc/cy_ipc_drv.h **** * \param base
 513:Generated_Source\PSoC6\pdl\drivers\peripheral\ipc/cy_ipc_drv.h **** * This is a handle to the IPC interrupt. This handle can be calculated from the
 514:Generated_Source\PSoC6\pdl\drivers\peripheral\ipc/cy_ipc_drv.h **** * IPC interrupt number using \ref Cy_IPC_Drv_GetIntrBaseAddr.
 515:Generated_Source\PSoC6\pdl\drivers\peripheral\ipc/cy_ipc_drv.h **** *
 516:Generated_Source\PSoC6\pdl\drivers\peripheral\ipc/cy_ipc_drv.h **** * \return
 517:Generated_Source\PSoC6\pdl\drivers\peripheral\ipc/cy_ipc_drv.h **** *   The return value is encoded as follows
 518:Generated_Source\PSoC6\pdl\drivers\peripheral\ipc/cy_ipc_drv.h **** *   <table>
 519:Generated_Source\PSoC6\pdl\drivers\peripheral\ipc/cy_ipc_drv.h **** *   <tr><th>Interrupt sources   <th>Value
 520:Generated_Source\PSoC6\pdl\drivers\peripheral\ipc/cy_ipc_drv.h **** *   <tr><td>Ipc_PORTX_RELEASE   <td>Xth bit set
 521:Generated_Source\PSoC6\pdl\drivers\peripheral\ipc/cy_ipc_drv.h **** *   <tr><td>Ipc_PORTX_NOTIFY    <td>X+16th bit set
 522:Generated_Source\PSoC6\pdl\drivers\peripheral\ipc/cy_ipc_drv.h **** *   </table>
 523:Generated_Source\PSoC6\pdl\drivers\peripheral\ipc/cy_ipc_drv.h **** *
 524:Generated_Source\PSoC6\pdl\drivers\peripheral\ipc/cy_ipc_drv.h **** * \funcusage
 525:Generated_Source\PSoC6\pdl\drivers\peripheral\ipc/cy_ipc_drv.h **** * \snippet IPC_sut_01.cydsn/main_cm4.c snippet_Cy_IPC_Drv_GetInterruptStatusMasked
 526:Generated_Source\PSoC6\pdl\drivers\peripheral\ipc/cy_ipc_drv.h **** *
 527:Generated_Source\PSoC6\pdl\drivers\peripheral\ipc/cy_ipc_drv.h **** *******************************************************************************/
 528:Generated_Source\PSoC6\pdl\drivers\peripheral\ipc/cy_ipc_drv.h **** __STATIC_INLINE uint32_t Cy_IPC_Drv_GetInterruptStatusMasked (IPC_INTR_STRUCT_Type const * base)
 529:Generated_Source\PSoC6\pdl\drivers\peripheral\ipc/cy_ipc_drv.h **** {
 530:Generated_Source\PSoC6\pdl\drivers\peripheral\ipc/cy_ipc_drv.h ****     return (base->INTR_MASKED);
 531:Generated_Source\PSoC6\pdl\drivers\peripheral\ipc/cy_ipc_drv.h **** }
 532:Generated_Source\PSoC6\pdl\drivers\peripheral\ipc/cy_ipc_drv.h **** 
 533:Generated_Source\PSoC6\pdl\drivers\peripheral\ipc/cy_ipc_drv.h **** /*******************************************************************************
 534:Generated_Source\PSoC6\pdl\drivers\peripheral\ipc/cy_ipc_drv.h **** * Function Name: Cy_IPC_Drv_GetInterruptStatus
 535:Generated_Source\PSoC6\pdl\drivers\peripheral\ipc/cy_ipc_drv.h **** ****************************************************************************//**
 536:Generated_Source\PSoC6\pdl\drivers\peripheral\ipc/cy_ipc_drv.h **** *
 537:Generated_Source\PSoC6\pdl\drivers\peripheral\ipc/cy_ipc_drv.h **** * This function is used to read the pending interrupts. Note that this read is
 538:Generated_Source\PSoC6\pdl\drivers\peripheral\ipc/cy_ipc_drv.h **** * an unmasked read of the interrupt status. Interrupt sources read as active by
 539:Generated_Source\PSoC6\pdl\drivers\peripheral\ipc/cy_ipc_drv.h **** * this function would generate interrupts only if they were not masked.
 540:Generated_Source\PSoC6\pdl\drivers\peripheral\ipc/cy_ipc_drv.h **** *
 541:Generated_Source\PSoC6\pdl\drivers\peripheral\ipc/cy_ipc_drv.h **** * \param base
 542:Generated_Source\PSoC6\pdl\drivers\peripheral\ipc/cy_ipc_drv.h **** * This is a handle to the IPC interrupt. This handle can be calculated from the
 543:Generated_Source\PSoC6\pdl\drivers\peripheral\ipc/cy_ipc_drv.h **** * IPC interrupt number using \ref Cy_IPC_Drv_GetIntrBaseAddr.
 544:Generated_Source\PSoC6\pdl\drivers\peripheral\ipc/cy_ipc_drv.h **** *
 545:Generated_Source\PSoC6\pdl\drivers\peripheral\ipc/cy_ipc_drv.h **** * \return
 546:Generated_Source\PSoC6\pdl\drivers\peripheral\ipc/cy_ipc_drv.h **** *   The return value is encoded as follows
 547:Generated_Source\PSoC6\pdl\drivers\peripheral\ipc/cy_ipc_drv.h **** *   <table>
 548:Generated_Source\PSoC6\pdl\drivers\peripheral\ipc/cy_ipc_drv.h **** *   <tr><th>Interrupt sources   <th>Value
 549:Generated_Source\PSoC6\pdl\drivers\peripheral\ipc/cy_ipc_drv.h **** *   <tr><td>Ipc_PORTX_RELEASE   <td>Xth bit set
 550:Generated_Source\PSoC6\pdl\drivers\peripheral\ipc/cy_ipc_drv.h **** *   <tr><td>Ipc_PORTX_NOTIFY    <td>X+16th bit set
 551:Generated_Source\PSoC6\pdl\drivers\peripheral\ipc/cy_ipc_drv.h **** *   </table>
 552:Generated_Source\PSoC6\pdl\drivers\peripheral\ipc/cy_ipc_drv.h **** *
ARM GAS  C:\Users\gjl\AppData\Local\Temp\ccShrItW.s 			page 15


 553:Generated_Source\PSoC6\pdl\drivers\peripheral\ipc/cy_ipc_drv.h **** * \funcusage
 554:Generated_Source\PSoC6\pdl\drivers\peripheral\ipc/cy_ipc_drv.h **** * \snippet IPC_sut_01.cydsn/main_cm4.c snippet_Cy_IPC_Drv_GetInterruptStatus
 555:Generated_Source\PSoC6\pdl\drivers\peripheral\ipc/cy_ipc_drv.h **** *
 556:Generated_Source\PSoC6\pdl\drivers\peripheral\ipc/cy_ipc_drv.h **** *******************************************************************************/
 557:Generated_Source\PSoC6\pdl\drivers\peripheral\ipc/cy_ipc_drv.h **** __STATIC_INLINE uint32_t Cy_IPC_Drv_GetInterruptStatus(IPC_INTR_STRUCT_Type const * base)
 558:Generated_Source\PSoC6\pdl\drivers\peripheral\ipc/cy_ipc_drv.h **** {
 559:Generated_Source\PSoC6\pdl\drivers\peripheral\ipc/cy_ipc_drv.h ****     return (base->INTR);
 560:Generated_Source\PSoC6\pdl\drivers\peripheral\ipc/cy_ipc_drv.h **** }
 561:Generated_Source\PSoC6\pdl\drivers\peripheral\ipc/cy_ipc_drv.h **** 
 562:Generated_Source\PSoC6\pdl\drivers\peripheral\ipc/cy_ipc_drv.h **** /*******************************************************************************
 563:Generated_Source\PSoC6\pdl\drivers\peripheral\ipc/cy_ipc_drv.h **** * Function Name: Cy_IPC_Drv_SetInterrupt
 564:Generated_Source\PSoC6\pdl\drivers\peripheral\ipc/cy_ipc_drv.h **** ****************************************************************************//**
 565:Generated_Source\PSoC6\pdl\drivers\peripheral\ipc/cy_ipc_drv.h **** *
 566:Generated_Source\PSoC6\pdl\drivers\peripheral\ipc/cy_ipc_drv.h **** * This function is used to set the interrupt source. This function can be used
 567:Generated_Source\PSoC6\pdl\drivers\peripheral\ipc/cy_ipc_drv.h **** * to activate interrupts through software.
 568:Generated_Source\PSoC6\pdl\drivers\peripheral\ipc/cy_ipc_drv.h **** * \note That interrupt sources set using this interrupt would generate interrupts
 569:Generated_Source\PSoC6\pdl\drivers\peripheral\ipc/cy_ipc_drv.h **** * only if they are not masked.
 570:Generated_Source\PSoC6\pdl\drivers\peripheral\ipc/cy_ipc_drv.h **** *
 571:Generated_Source\PSoC6\pdl\drivers\peripheral\ipc/cy_ipc_drv.h **** * \param base
 572:Generated_Source\PSoC6\pdl\drivers\peripheral\ipc/cy_ipc_drv.h **** * This is a handle to the IPC interrupt. This handle can be calculated from the
 573:Generated_Source\PSoC6\pdl\drivers\peripheral\ipc/cy_ipc_drv.h **** * IPC interrupt number using \ref Cy_IPC_Drv_GetIntrBaseAddr.
 574:Generated_Source\PSoC6\pdl\drivers\peripheral\ipc/cy_ipc_drv.h **** *
 575:Generated_Source\PSoC6\pdl\drivers\peripheral\ipc/cy_ipc_drv.h **** * \param ipcReleaseMask
 576:Generated_Source\PSoC6\pdl\drivers\peripheral\ipc/cy_ipc_drv.h **** * An encoded list of all IPC channels that can trigger the interrupt on a
 577:Generated_Source\PSoC6\pdl\drivers\peripheral\ipc/cy_ipc_drv.h **** * release event.
 578:Generated_Source\PSoC6\pdl\drivers\peripheral\ipc/cy_ipc_drv.h **** *
 579:Generated_Source\PSoC6\pdl\drivers\peripheral\ipc/cy_ipc_drv.h **** * \param ipcNotifyMask
 580:Generated_Source\PSoC6\pdl\drivers\peripheral\ipc/cy_ipc_drv.h **** * An encoded list of all IPC channels that can trigger the interrupt on a
 581:Generated_Source\PSoC6\pdl\drivers\peripheral\ipc/cy_ipc_drv.h **** * notify event.
 582:Generated_Source\PSoC6\pdl\drivers\peripheral\ipc/cy_ipc_drv.h **** *
 583:Generated_Source\PSoC6\pdl\drivers\peripheral\ipc/cy_ipc_drv.h **** * \funcusage
 584:Generated_Source\PSoC6\pdl\drivers\peripheral\ipc/cy_ipc_drv.h **** * \snippet IPC_sut_01.cydsn/main_cm4.c snippet_Cy_IPC_Drv_SetInterrupt
 585:Generated_Source\PSoC6\pdl\drivers\peripheral\ipc/cy_ipc_drv.h **** *
 586:Generated_Source\PSoC6\pdl\drivers\peripheral\ipc/cy_ipc_drv.h **** *******************************************************************************/
 587:Generated_Source\PSoC6\pdl\drivers\peripheral\ipc/cy_ipc_drv.h **** __STATIC_INLINE void  Cy_IPC_Drv_SetInterrupt(IPC_INTR_STRUCT_Type* base, uint32_t ipcReleaseMask, 
 588:Generated_Source\PSoC6\pdl\drivers\peripheral\ipc/cy_ipc_drv.h **** {
 589:Generated_Source\PSoC6\pdl\drivers\peripheral\ipc/cy_ipc_drv.h ****     CY_ASSERT_L1(0ul == (ipcNotifyMask  & ~(uint32_t)(IPC_STRUCT_NOTIFY_INTR_NOTIFY_Msk)));
 590:Generated_Source\PSoC6\pdl\drivers\peripheral\ipc/cy_ipc_drv.h ****     CY_ASSERT_L1(0ul == (ipcReleaseMask & ~(uint32_t)(IPC_STRUCT_RELEASE_INTR_RELEASE_Msk)));
 591:Generated_Source\PSoC6\pdl\drivers\peripheral\ipc/cy_ipc_drv.h ****     base->INTR_SET =  _VAL2FLD( IPC_INTR_STRUCT_INTR_NOTIFY,  ipcNotifyMask )  |
 592:Generated_Source\PSoC6\pdl\drivers\peripheral\ipc/cy_ipc_drv.h ****                       _VAL2FLD( IPC_INTR_STRUCT_INTR_RELEASE, ipcReleaseMask );
 593:Generated_Source\PSoC6\pdl\drivers\peripheral\ipc/cy_ipc_drv.h **** }
 594:Generated_Source\PSoC6\pdl\drivers\peripheral\ipc/cy_ipc_drv.h **** 
 595:Generated_Source\PSoC6\pdl\drivers\peripheral\ipc/cy_ipc_drv.h **** /*******************************************************************************
 596:Generated_Source\PSoC6\pdl\drivers\peripheral\ipc/cy_ipc_drv.h **** * Function Name: Cy_IPC_Drv_ClearInterrupt
 597:Generated_Source\PSoC6\pdl\drivers\peripheral\ipc/cy_ipc_drv.h **** ****************************************************************************//**
 598:Generated_Source\PSoC6\pdl\drivers\peripheral\ipc/cy_ipc_drv.h **** *
 599:Generated_Source\PSoC6\pdl\drivers\peripheral\ipc/cy_ipc_drv.h **** * This function is used to clear the interrupt source. Use this function to clear
 600:Generated_Source\PSoC6\pdl\drivers\peripheral\ipc/cy_ipc_drv.h **** * a pending interrupt source in the interrupt status.
 601:Generated_Source\PSoC6\pdl\drivers\peripheral\ipc/cy_ipc_drv.h **** *
 602:Generated_Source\PSoC6\pdl\drivers\peripheral\ipc/cy_ipc_drv.h **** * \param base
 603:Generated_Source\PSoC6\pdl\drivers\peripheral\ipc/cy_ipc_drv.h **** * This is a handle to the IPC interrupt. This handle can be calculated from the
 604:Generated_Source\PSoC6\pdl\drivers\peripheral\ipc/cy_ipc_drv.h **** * IPC interrupt number using \ref Cy_IPC_Drv_GetIntrBaseAddr.
 605:Generated_Source\PSoC6\pdl\drivers\peripheral\ipc/cy_ipc_drv.h **** *
 606:Generated_Source\PSoC6\pdl\drivers\peripheral\ipc/cy_ipc_drv.h **** * \param ipcReleaseMask
 607:Generated_Source\PSoC6\pdl\drivers\peripheral\ipc/cy_ipc_drv.h **** * An encoded list of all IPC channels that can trigger the interrupt on a
 608:Generated_Source\PSoC6\pdl\drivers\peripheral\ipc/cy_ipc_drv.h **** * release event.
 609:Generated_Source\PSoC6\pdl\drivers\peripheral\ipc/cy_ipc_drv.h **** *
ARM GAS  C:\Users\gjl\AppData\Local\Temp\ccShrItW.s 			page 16


 610:Generated_Source\PSoC6\pdl\drivers\peripheral\ipc/cy_ipc_drv.h **** * \param ipcNotifyMask
 611:Generated_Source\PSoC6\pdl\drivers\peripheral\ipc/cy_ipc_drv.h **** * An encoded list of all IPC channels that can trigger the interrupt on a
 612:Generated_Source\PSoC6\pdl\drivers\peripheral\ipc/cy_ipc_drv.h **** * notify event.
 613:Generated_Source\PSoC6\pdl\drivers\peripheral\ipc/cy_ipc_drv.h **** *
 614:Generated_Source\PSoC6\pdl\drivers\peripheral\ipc/cy_ipc_drv.h **** * \funcusage
 615:Generated_Source\PSoC6\pdl\drivers\peripheral\ipc/cy_ipc_drv.h **** * \snippet IPC_sut_01.cydsn/main_cm4.c snippet_Cy_IPC_Drv_GetInterruptStatusMasked
 616:Generated_Source\PSoC6\pdl\drivers\peripheral\ipc/cy_ipc_drv.h **** *
 617:Generated_Source\PSoC6\pdl\drivers\peripheral\ipc/cy_ipc_drv.h **** *******************************************************************************/
 618:Generated_Source\PSoC6\pdl\drivers\peripheral\ipc/cy_ipc_drv.h **** __STATIC_INLINE void  Cy_IPC_Drv_ClearInterrupt(IPC_INTR_STRUCT_Type* base, uint32_t ipcReleaseMask
 619:Generated_Source\PSoC6\pdl\drivers\peripheral\ipc/cy_ipc_drv.h **** {
 620:Generated_Source\PSoC6\pdl\drivers\peripheral\ipc/cy_ipc_drv.h ****     CY_ASSERT_L1(0ul == (ipcNotifyMask  & ~(uint32_t)(IPC_STRUCT_NOTIFY_INTR_NOTIFY_Msk)));
 621:Generated_Source\PSoC6\pdl\drivers\peripheral\ipc/cy_ipc_drv.h ****     CY_ASSERT_L1(0ul == (ipcReleaseMask & ~(uint32_t)(IPC_STRUCT_RELEASE_INTR_RELEASE_Msk)));
 622:Generated_Source\PSoC6\pdl\drivers\peripheral\ipc/cy_ipc_drv.h ****     base->INTR =  _VAL2FLD(IPC_INTR_STRUCT_INTR_NOTIFY,  ipcNotifyMask) |
 623:Generated_Source\PSoC6\pdl\drivers\peripheral\ipc/cy_ipc_drv.h ****                   _VAL2FLD(IPC_INTR_STRUCT_INTR_RELEASE, ipcReleaseMask);
 624:Generated_Source\PSoC6\pdl\drivers\peripheral\ipc/cy_ipc_drv.h ****     (void)base->INTR;  /* Read the register to flush the cache */
 625:Generated_Source\PSoC6\pdl\drivers\peripheral\ipc/cy_ipc_drv.h **** }
 626:Generated_Source\PSoC6\pdl\drivers\peripheral\ipc/cy_ipc_drv.h **** 
 627:Generated_Source\PSoC6\pdl\drivers\peripheral\ipc/cy_ipc_drv.h **** /** \} group_ipc_functions */
 628:Generated_Source\PSoC6\pdl\drivers\peripheral\ipc/cy_ipc_drv.h **** 
 629:Generated_Source\PSoC6\pdl\drivers\peripheral\ipc/cy_ipc_drv.h **** /** \} group_ipc */
 630:Generated_Source\PSoC6\pdl\drivers\peripheral\ipc/cy_ipc_drv.h **** 
 631:Generated_Source\PSoC6\pdl\drivers\peripheral\ipc/cy_ipc_drv.h **** /*******************************************************************************
 632:Generated_Source\PSoC6\pdl\drivers\peripheral\ipc/cy_ipc_drv.h **** * Function Name: Cy_IPC_Drv_AcquireNotify
 633:Generated_Source\PSoC6\pdl\drivers\peripheral\ipc/cy_ipc_drv.h **** ****************************************************************************//**
 634:Generated_Source\PSoC6\pdl\drivers\peripheral\ipc/cy_ipc_drv.h **** *
 635:Generated_Source\PSoC6\pdl\drivers\peripheral\ipc/cy_ipc_drv.h **** * The function generates a notify event by IPC interrupt structures.
 636:Generated_Source\PSoC6\pdl\drivers\peripheral\ipc/cy_ipc_drv.h **** *
 637:Generated_Source\PSoC6\pdl\drivers\peripheral\ipc/cy_ipc_drv.h **** * \param base
 638:Generated_Source\PSoC6\pdl\drivers\peripheral\ipc/cy_ipc_drv.h **** * This parameter is a handle that represents the base address of the registers
 639:Generated_Source\PSoC6\pdl\drivers\peripheral\ipc/cy_ipc_drv.h **** * of the IPC channel.
 640:Generated_Source\PSoC6\pdl\drivers\peripheral\ipc/cy_ipc_drv.h **** * The parameter is generally returned from a call to the \ref
 641:Generated_Source\PSoC6\pdl\drivers\peripheral\ipc/cy_ipc_drv.h **** * Cy_IPC_Drv_GetIpcBaseAddress.
 642:Generated_Source\PSoC6\pdl\drivers\peripheral\ipc/cy_ipc_drv.h **** *
 643:Generated_Source\PSoC6\pdl\drivers\peripheral\ipc/cy_ipc_drv.h **** * \param notifyEventIntr
 644:Generated_Source\PSoC6\pdl\drivers\peripheral\ipc/cy_ipc_drv.h **** * Bit encoded list of IPC interrupt structures that are triggered
 645:Generated_Source\PSoC6\pdl\drivers\peripheral\ipc/cy_ipc_drv.h **** * by a notification. Bit number correspond to number of the IPC interrupt
 646:Generated_Source\PSoC6\pdl\drivers\peripheral\ipc/cy_ipc_drv.h **** * structure.
 647:Generated_Source\PSoC6\pdl\drivers\peripheral\ipc/cy_ipc_drv.h **** *
 648:Generated_Source\PSoC6\pdl\drivers\peripheral\ipc/cy_ipc_drv.h **** * \funcusage
 649:Generated_Source\PSoC6\pdl\drivers\peripheral\ipc/cy_ipc_drv.h **** * \snippet IPC_sut_01.cydsn/main_cm4.c snippet_Cy_IPC_Drv_LockAcquire
 650:Generated_Source\PSoC6\pdl\drivers\peripheral\ipc/cy_ipc_drv.h **** *
 651:Generated_Source\PSoC6\pdl\drivers\peripheral\ipc/cy_ipc_drv.h **** *******************************************************************************/
 652:Generated_Source\PSoC6\pdl\drivers\peripheral\ipc/cy_ipc_drv.h **** __STATIC_INLINE void  Cy_IPC_Drv_AcquireNotify (IPC_STRUCT_Type* base, uint32_t notifyEventIntr)
 653:Generated_Source\PSoC6\pdl\drivers\peripheral\ipc/cy_ipc_drv.h **** {
 654:Generated_Source\PSoC6\pdl\drivers\peripheral\ipc/cy_ipc_drv.h ****     CY_ASSERT_L1(0ul == (notifyEventIntr  & ~(uint32_t)(IPC_STRUCT_NOTIFY_INTR_NOTIFY_Msk)));
 655:Generated_Source\PSoC6\pdl\drivers\peripheral\ipc/cy_ipc_drv.h ****     base->NOTIFY = _VAL2FLD(IPC_STRUCT_NOTIFY_INTR_NOTIFY, notifyEventIntr);
 656:Generated_Source\PSoC6\pdl\drivers\peripheral\ipc/cy_ipc_drv.h **** }
 657:Generated_Source\PSoC6\pdl\drivers\peripheral\ipc/cy_ipc_drv.h **** 
 658:Generated_Source\PSoC6\pdl\drivers\peripheral\ipc/cy_ipc_drv.h **** /*******************************************************************************
 659:Generated_Source\PSoC6\pdl\drivers\peripheral\ipc/cy_ipc_drv.h **** * Function Name: Cy_IPC_Drv_ReleaseNotify
 660:Generated_Source\PSoC6\pdl\drivers\peripheral\ipc/cy_ipc_drv.h **** ****************************************************************************//**
 661:Generated_Source\PSoC6\pdl\drivers\peripheral\ipc/cy_ipc_drv.h **** *
 662:Generated_Source\PSoC6\pdl\drivers\peripheral\ipc/cy_ipc_drv.h **** * The function generates a notify event to an IPC interrupt structure.
 663:Generated_Source\PSoC6\pdl\drivers\peripheral\ipc/cy_ipc_drv.h **** *
 664:Generated_Source\PSoC6\pdl\drivers\peripheral\ipc/cy_ipc_drv.h **** * \param base
 665:Generated_Source\PSoC6\pdl\drivers\peripheral\ipc/cy_ipc_drv.h **** * This parameter is a handle that represents the base address of the registers
 666:Generated_Source\PSoC6\pdl\drivers\peripheral\ipc/cy_ipc_drv.h **** * of the IPC channel.
ARM GAS  C:\Users\gjl\AppData\Local\Temp\ccShrItW.s 			page 17


 667:Generated_Source\PSoC6\pdl\drivers\peripheral\ipc/cy_ipc_drv.h **** * The parameter is generally returned from a call to the \ref
 668:Generated_Source\PSoC6\pdl\drivers\peripheral\ipc/cy_ipc_drv.h **** * Cy_IPC_Drv_GetIpcBaseAddress.
 669:Generated_Source\PSoC6\pdl\drivers\peripheral\ipc/cy_ipc_drv.h **** *
 670:Generated_Source\PSoC6\pdl\drivers\peripheral\ipc/cy_ipc_drv.h **** * \param notifyEventIntr
 671:Generated_Source\PSoC6\pdl\drivers\peripheral\ipc/cy_ipc_drv.h **** * Bit encoded list of IPC interrupt lines that are triggered by a notification.
 672:Generated_Source\PSoC6\pdl\drivers\peripheral\ipc/cy_ipc_drv.h **** *
 673:Generated_Source\PSoC6\pdl\drivers\peripheral\ipc/cy_ipc_drv.h **** * \funcusage
 674:Generated_Source\PSoC6\pdl\drivers\peripheral\ipc/cy_ipc_drv.h **** * \snippet IPC_sut_01.cydsn/main_cm4.c snippet_Cy_IPC_Drv_ReadMsgWord
 675:Generated_Source\PSoC6\pdl\drivers\peripheral\ipc/cy_ipc_drv.h **** *
 676:Generated_Source\PSoC6\pdl\drivers\peripheral\ipc/cy_ipc_drv.h **** *******************************************************************************/
 677:Generated_Source\PSoC6\pdl\drivers\peripheral\ipc/cy_ipc_drv.h **** __STATIC_INLINE void  Cy_IPC_Drv_ReleaseNotify (IPC_STRUCT_Type* base, uint32_t notifyEventIntr)
 678:Generated_Source\PSoC6\pdl\drivers\peripheral\ipc/cy_ipc_drv.h **** {
 679:Generated_Source\PSoC6\pdl\drivers\peripheral\ipc/cy_ipc_drv.h ****     CY_ASSERT_L1(0ul == (notifyEventIntr  & ~(uint32_t)(IPC_STRUCT_NOTIFY_INTR_NOTIFY_Msk)));
 680:Generated_Source\PSoC6\pdl\drivers\peripheral\ipc/cy_ipc_drv.h ****     base->RELEASE = _VAL2FLD(IPC_INTR_STRUCT_INTR_RELEASE, notifyEventIntr);
 681:Generated_Source\PSoC6\pdl\drivers\peripheral\ipc/cy_ipc_drv.h **** }
 682:Generated_Source\PSoC6\pdl\drivers\peripheral\ipc/cy_ipc_drv.h **** 
 683:Generated_Source\PSoC6\pdl\drivers\peripheral\ipc/cy_ipc_drv.h **** /*******************************************************************************
 684:Generated_Source\PSoC6\pdl\drivers\peripheral\ipc/cy_ipc_drv.h **** * Function Name: Cy_IPC_Drv_WriteDataValue
 685:Generated_Source\PSoC6\pdl\drivers\peripheral\ipc/cy_ipc_drv.h **** ****************************************************************************//**
 686:Generated_Source\PSoC6\pdl\drivers\peripheral\ipc/cy_ipc_drv.h **** *
 687:Generated_Source\PSoC6\pdl\drivers\peripheral\ipc/cy_ipc_drv.h **** * The function writes a value to the DATA register of the IPC channel.
 688:Generated_Source\PSoC6\pdl\drivers\peripheral\ipc/cy_ipc_drv.h **** *
 689:Generated_Source\PSoC6\pdl\drivers\peripheral\ipc/cy_ipc_drv.h **** * This function is internal and should not be called directly by user
 690:Generated_Source\PSoC6\pdl\drivers\peripheral\ipc/cy_ipc_drv.h **** * software.
 691:Generated_Source\PSoC6\pdl\drivers\peripheral\ipc/cy_ipc_drv.h **** *
 692:Generated_Source\PSoC6\pdl\drivers\peripheral\ipc/cy_ipc_drv.h **** * \param base
 693:Generated_Source\PSoC6\pdl\drivers\peripheral\ipc/cy_ipc_drv.h **** * This parameter is a handle that represents the base address of the registers
 694:Generated_Source\PSoC6\pdl\drivers\peripheral\ipc/cy_ipc_drv.h **** * of the IPC channel.
 695:Generated_Source\PSoC6\pdl\drivers\peripheral\ipc/cy_ipc_drv.h **** * The parameter is generally returned from a call to the \ref
 696:Generated_Source\PSoC6\pdl\drivers\peripheral\ipc/cy_ipc_drv.h **** * Cy_IPC_Drv_GetIpcBaseAddress.
 697:Generated_Source\PSoC6\pdl\drivers\peripheral\ipc/cy_ipc_drv.h **** *
 698:Generated_Source\PSoC6\pdl\drivers\peripheral\ipc/cy_ipc_drv.h **** * \param dataValue
 699:Generated_Source\PSoC6\pdl\drivers\peripheral\ipc/cy_ipc_drv.h **** * Value to be written.
 700:Generated_Source\PSoC6\pdl\drivers\peripheral\ipc/cy_ipc_drv.h **** *
 701:Generated_Source\PSoC6\pdl\drivers\peripheral\ipc/cy_ipc_drv.h **** *******************************************************************************/
 702:Generated_Source\PSoC6\pdl\drivers\peripheral\ipc/cy_ipc_drv.h **** __STATIC_INLINE void     Cy_IPC_Drv_WriteDataValue (IPC_STRUCT_Type* base, uint32_t dataValue)
 703:Generated_Source\PSoC6\pdl\drivers\peripheral\ipc/cy_ipc_drv.h **** {
 704:Generated_Source\PSoC6\pdl\drivers\peripheral\ipc/cy_ipc_drv.h ****       base->DATA = dataValue;
 705:Generated_Source\PSoC6\pdl\drivers\peripheral\ipc/cy_ipc_drv.h **** }
 706:Generated_Source\PSoC6\pdl\drivers\peripheral\ipc/cy_ipc_drv.h **** 
 707:Generated_Source\PSoC6\pdl\drivers\peripheral\ipc/cy_ipc_drv.h **** /*******************************************************************************
 708:Generated_Source\PSoC6\pdl\drivers\peripheral\ipc/cy_ipc_drv.h **** * Function Name: Cy_IPC_Drv_ReadDataValue
 709:Generated_Source\PSoC6\pdl\drivers\peripheral\ipc/cy_ipc_drv.h **** ****************************************************************************//**
 710:Generated_Source\PSoC6\pdl\drivers\peripheral\ipc/cy_ipc_drv.h **** *
 711:Generated_Source\PSoC6\pdl\drivers\peripheral\ipc/cy_ipc_drv.h **** * The function reads a value from the DATA register of the IPC channel.
 712:Generated_Source\PSoC6\pdl\drivers\peripheral\ipc/cy_ipc_drv.h **** *
 713:Generated_Source\PSoC6\pdl\drivers\peripheral\ipc/cy_ipc_drv.h **** * This function is internal and should not be called directly by user
 714:Generated_Source\PSoC6\pdl\drivers\peripheral\ipc/cy_ipc_drv.h **** * software.
 715:Generated_Source\PSoC6\pdl\drivers\peripheral\ipc/cy_ipc_drv.h **** *
 716:Generated_Source\PSoC6\pdl\drivers\peripheral\ipc/cy_ipc_drv.h **** * \param base
 717:Generated_Source\PSoC6\pdl\drivers\peripheral\ipc/cy_ipc_drv.h **** * This parameter is a handle that represents the base address of the registers
 718:Generated_Source\PSoC6\pdl\drivers\peripheral\ipc/cy_ipc_drv.h **** * of the IPC channel.
 719:Generated_Source\PSoC6\pdl\drivers\peripheral\ipc/cy_ipc_drv.h **** * The parameter is generally returned from a call to the \ref
 720:Generated_Source\PSoC6\pdl\drivers\peripheral\ipc/cy_ipc_drv.h **** * Cy_IPC_Drv_GetIpcBaseAddress.
 721:Generated_Source\PSoC6\pdl\drivers\peripheral\ipc/cy_ipc_drv.h **** *
 722:Generated_Source\PSoC6\pdl\drivers\peripheral\ipc/cy_ipc_drv.h **** * \return
 723:Generated_Source\PSoC6\pdl\drivers\peripheral\ipc/cy_ipc_drv.h **** * Value from DATA register.
ARM GAS  C:\Users\gjl\AppData\Local\Temp\ccShrItW.s 			page 18


 724:Generated_Source\PSoC6\pdl\drivers\peripheral\ipc/cy_ipc_drv.h **** *
 725:Generated_Source\PSoC6\pdl\drivers\peripheral\ipc/cy_ipc_drv.h **** *******************************************************************************/
 726:Generated_Source\PSoC6\pdl\drivers\peripheral\ipc/cy_ipc_drv.h **** __STATIC_INLINE uint32_t Cy_IPC_Drv_ReadDataValue (IPC_STRUCT_Type const * base)
 727:Generated_Source\PSoC6\pdl\drivers\peripheral\ipc/cy_ipc_drv.h **** {
 728:Generated_Source\PSoC6\pdl\drivers\peripheral\ipc/cy_ipc_drv.h ****     return (base->DATA);
 729:Generated_Source\PSoC6\pdl\drivers\peripheral\ipc/cy_ipc_drv.h **** }
 730:Generated_Source\PSoC6\pdl\drivers\peripheral\ipc/cy_ipc_drv.h **** 
 731:Generated_Source\PSoC6\pdl\drivers\peripheral\ipc/cy_ipc_drv.h **** /*******************************************************************************
 732:Generated_Source\PSoC6\pdl\drivers\peripheral\ipc/cy_ipc_drv.h **** * Function Name: Cy_IPC_Drv_IsLockAcquired
 733:Generated_Source\PSoC6\pdl\drivers\peripheral\ipc/cy_ipc_drv.h **** ****************************************************************************//**
 734:Generated_Source\PSoC6\pdl\drivers\peripheral\ipc/cy_ipc_drv.h **** *
 735:Generated_Source\PSoC6\pdl\drivers\peripheral\ipc/cy_ipc_drv.h **** * The function is used to test the status of an IPC channel. The function
 736:Generated_Source\PSoC6\pdl\drivers\peripheral\ipc/cy_ipc_drv.h **** * tells the reader if the IPC channel was in the locked or released state.
 737:Generated_Source\PSoC6\pdl\drivers\peripheral\ipc/cy_ipc_drv.h **** *
 738:Generated_Source\PSoC6\pdl\drivers\peripheral\ipc/cy_ipc_drv.h **** * \param base
 739:Generated_Source\PSoC6\pdl\drivers\peripheral\ipc/cy_ipc_drv.h **** * This parameter is a handle that represents the base address of the registers
 740:Generated_Source\PSoC6\pdl\drivers\peripheral\ipc/cy_ipc_drv.h **** * of the IPC channel.
 741:Generated_Source\PSoC6\pdl\drivers\peripheral\ipc/cy_ipc_drv.h **** * The parameter is generally returned from a call to the \ref
 742:Generated_Source\PSoC6\pdl\drivers\peripheral\ipc/cy_ipc_drv.h **** * Cy_IPC_Drv_GetIpcBaseAddress.
 743:Generated_Source\PSoC6\pdl\drivers\peripheral\ipc/cy_ipc_drv.h **** *
 744:Generated_Source\PSoC6\pdl\drivers\peripheral\ipc/cy_ipc_drv.h **** * \return
 745:Generated_Source\PSoC6\pdl\drivers\peripheral\ipc/cy_ipc_drv.h **** *   Status for the function:
 746:Generated_Source\PSoC6\pdl\drivers\peripheral\ipc/cy_ipc_drv.h **** *   true:  The IPC channel is in the Locked state.
 747:Generated_Source\PSoC6\pdl\drivers\peripheral\ipc/cy_ipc_drv.h **** *   false: The IPC channel is in the Released state.
 748:Generated_Source\PSoC6\pdl\drivers\peripheral\ipc/cy_ipc_drv.h **** *
 749:Generated_Source\PSoC6\pdl\drivers\peripheral\ipc/cy_ipc_drv.h **** * \funcusage
 750:Generated_Source\PSoC6\pdl\drivers\peripheral\ipc/cy_ipc_drv.h **** * \snippet IPC_sut_01.cydsn/main_cm4.c snippet_Cy_IPC_Drv_LockAcquire
 751:Generated_Source\PSoC6\pdl\drivers\peripheral\ipc/cy_ipc_drv.h **** *
 752:Generated_Source\PSoC6\pdl\drivers\peripheral\ipc/cy_ipc_drv.h **** *******************************************************************************/
 753:Generated_Source\PSoC6\pdl\drivers\peripheral\ipc/cy_ipc_drv.h **** __STATIC_INLINE bool Cy_IPC_Drv_IsLockAcquired (IPC_STRUCT_Type const * base)
 754:Generated_Source\PSoC6\pdl\drivers\peripheral\ipc/cy_ipc_drv.h **** {
 755:Generated_Source\PSoC6\pdl\drivers\peripheral\ipc/cy_ipc_drv.h ****     return ( 0u != _FLD2VAL(IPC_STRUCT_ACQUIRE_SUCCESS, base->LOCK_STATUS) );
 756:Generated_Source\PSoC6\pdl\drivers\peripheral\ipc/cy_ipc_drv.h **** }
 757:Generated_Source\PSoC6\pdl\drivers\peripheral\ipc/cy_ipc_drv.h **** 
 758:Generated_Source\PSoC6\pdl\drivers\peripheral\ipc/cy_ipc_drv.h **** /*******************************************************************************
 759:Generated_Source\PSoC6\pdl\drivers\peripheral\ipc/cy_ipc_drv.h **** * Function Name: Cy_IPC_Drv_GetLockStatus
 760:Generated_Source\PSoC6\pdl\drivers\peripheral\ipc/cy_ipc_drv.h **** ****************************************************************************//**
 761:Generated_Source\PSoC6\pdl\drivers\peripheral\ipc/cy_ipc_drv.h **** *
 762:Generated_Source\PSoC6\pdl\drivers\peripheral\ipc/cy_ipc_drv.h **** * The function is used to get the status of an IPC channel.
 763:Generated_Source\PSoC6\pdl\drivers\peripheral\ipc/cy_ipc_drv.h **** *
 764:Generated_Source\PSoC6\pdl\drivers\peripheral\ipc/cy_ipc_drv.h **** * \param base
 765:Generated_Source\PSoC6\pdl\drivers\peripheral\ipc/cy_ipc_drv.h **** * This parameter is a handle that represents the base address of the registers
 766:Generated_Source\PSoC6\pdl\drivers\peripheral\ipc/cy_ipc_drv.h **** * of the IPC channel.
 767:Generated_Source\PSoC6\pdl\drivers\peripheral\ipc/cy_ipc_drv.h **** * The parameter is generally returned from a call to the \ref
 768:Generated_Source\PSoC6\pdl\drivers\peripheral\ipc/cy_ipc_drv.h **** * Cy_IPC_Drv_GetIpcBaseAddress.
 769:Generated_Source\PSoC6\pdl\drivers\peripheral\ipc/cy_ipc_drv.h **** *
 770:Generated_Source\PSoC6\pdl\drivers\peripheral\ipc/cy_ipc_drv.h **** * \return
 771:Generated_Source\PSoC6\pdl\drivers\peripheral\ipc/cy_ipc_drv.h **** * Value from LOCK_STATUS register.
 772:Generated_Source\PSoC6\pdl\drivers\peripheral\ipc/cy_ipc_drv.h **** *
 773:Generated_Source\PSoC6\pdl\drivers\peripheral\ipc/cy_ipc_drv.h **** * \funcusage
 774:Generated_Source\PSoC6\pdl\drivers\peripheral\ipc/cy_ipc_drv.h **** * \snippet IPC_sut_01.cydsn/main_cm4.c snippet_Cy_IPC_Drv_GetLockStatus
 775:Generated_Source\PSoC6\pdl\drivers\peripheral\ipc/cy_ipc_drv.h **** *
 776:Generated_Source\PSoC6\pdl\drivers\peripheral\ipc/cy_ipc_drv.h **** *******************************************************************************/
 777:Generated_Source\PSoC6\pdl\drivers\peripheral\ipc/cy_ipc_drv.h **** __STATIC_INLINE uint32_t Cy_IPC_Drv_GetLockStatus (IPC_STRUCT_Type const * base)
 778:Generated_Source\PSoC6\pdl\drivers\peripheral\ipc/cy_ipc_drv.h **** {
 779:Generated_Source\PSoC6\pdl\drivers\peripheral\ipc/cy_ipc_drv.h ****     return (base->LOCK_STATUS);
 780:Generated_Source\PSoC6\pdl\drivers\peripheral\ipc/cy_ipc_drv.h **** }
ARM GAS  C:\Users\gjl\AppData\Local\Temp\ccShrItW.s 			page 19


 781:Generated_Source\PSoC6\pdl\drivers\peripheral\ipc/cy_ipc_drv.h **** 
 782:Generated_Source\PSoC6\pdl\drivers\peripheral\ipc/cy_ipc_drv.h **** /*******************************************************************************
 783:Generated_Source\PSoC6\pdl\drivers\peripheral\ipc/cy_ipc_drv.h **** * Function Name: Cy_IPC_Drv_ExtractAcquireMask
 784:Generated_Source\PSoC6\pdl\drivers\peripheral\ipc/cy_ipc_drv.h **** ****************************************************************************//**
 785:Generated_Source\PSoC6\pdl\drivers\peripheral\ipc/cy_ipc_drv.h **** *
 786:Generated_Source\PSoC6\pdl\drivers\peripheral\ipc/cy_ipc_drv.h **** * The function extracts an Acquire mask part from full interrupt mask value.
 787:Generated_Source\PSoC6\pdl\drivers\peripheral\ipc/cy_ipc_drv.h **** *
 788:Generated_Source\PSoC6\pdl\drivers\peripheral\ipc/cy_ipc_drv.h **** * This function is internal and should not be called directly by user
 789:Generated_Source\PSoC6\pdl\drivers\peripheral\ipc/cy_ipc_drv.h **** * software.
 790:Generated_Source\PSoC6\pdl\drivers\peripheral\ipc/cy_ipc_drv.h **** *
 791:Generated_Source\PSoC6\pdl\drivers\peripheral\ipc/cy_ipc_drv.h **** * \param intMask
 792:Generated_Source\PSoC6\pdl\drivers\peripheral\ipc/cy_ipc_drv.h **** * Interrupt mask value to be processed.
 793:Generated_Source\PSoC6\pdl\drivers\peripheral\ipc/cy_ipc_drv.h **** *
 794:Generated_Source\PSoC6\pdl\drivers\peripheral\ipc/cy_ipc_drv.h **** * \return
 795:Generated_Source\PSoC6\pdl\drivers\peripheral\ipc/cy_ipc_drv.h **** * Acquire mask value.
 796:Generated_Source\PSoC6\pdl\drivers\peripheral\ipc/cy_ipc_drv.h **** *
 797:Generated_Source\PSoC6\pdl\drivers\peripheral\ipc/cy_ipc_drv.h **** *******************************************************************************/
 798:Generated_Source\PSoC6\pdl\drivers\peripheral\ipc/cy_ipc_drv.h **** __STATIC_INLINE uint32_t Cy_IPC_Drv_ExtractAcquireMask (uint32_t intMask)
 799:Generated_Source\PSoC6\pdl\drivers\peripheral\ipc/cy_ipc_drv.h **** {
 800:Generated_Source\PSoC6\pdl\drivers\peripheral\ipc/cy_ipc_drv.h ****     return _FLD2VAL(IPC_INTR_STRUCT_INTR_MASK_NOTIFY, intMask);
 801:Generated_Source\PSoC6\pdl\drivers\peripheral\ipc/cy_ipc_drv.h **** }
 802:Generated_Source\PSoC6\pdl\drivers\peripheral\ipc/cy_ipc_drv.h **** 
 803:Generated_Source\PSoC6\pdl\drivers\peripheral\ipc/cy_ipc_drv.h **** /*******************************************************************************
 804:Generated_Source\PSoC6\pdl\drivers\peripheral\ipc/cy_ipc_drv.h **** * Function Name: Cy_IPC_Drv_ExtractReleaseMask
 805:Generated_Source\PSoC6\pdl\drivers\peripheral\ipc/cy_ipc_drv.h **** ****************************************************************************//**
 806:Generated_Source\PSoC6\pdl\drivers\peripheral\ipc/cy_ipc_drv.h **** *
 807:Generated_Source\PSoC6\pdl\drivers\peripheral\ipc/cy_ipc_drv.h **** * The function extracts a Release mask part from full interrupt mask value.
 808:Generated_Source\PSoC6\pdl\drivers\peripheral\ipc/cy_ipc_drv.h **** *
 809:Generated_Source\PSoC6\pdl\drivers\peripheral\ipc/cy_ipc_drv.h **** * This function is internal and should not be called directly by user
 810:Generated_Source\PSoC6\pdl\drivers\peripheral\ipc/cy_ipc_drv.h **** * software.
 811:Generated_Source\PSoC6\pdl\drivers\peripheral\ipc/cy_ipc_drv.h **** *
 812:Generated_Source\PSoC6\pdl\drivers\peripheral\ipc/cy_ipc_drv.h **** * \param intMask
 813:Generated_Source\PSoC6\pdl\drivers\peripheral\ipc/cy_ipc_drv.h **** * Interrupt mask value to be processed.
 814:Generated_Source\PSoC6\pdl\drivers\peripheral\ipc/cy_ipc_drv.h **** *
 815:Generated_Source\PSoC6\pdl\drivers\peripheral\ipc/cy_ipc_drv.h **** * \return
 816:Generated_Source\PSoC6\pdl\drivers\peripheral\ipc/cy_ipc_drv.h **** * Release mask value.
 817:Generated_Source\PSoC6\pdl\drivers\peripheral\ipc/cy_ipc_drv.h **** *
 818:Generated_Source\PSoC6\pdl\drivers\peripheral\ipc/cy_ipc_drv.h **** *******************************************************************************/
 819:Generated_Source\PSoC6\pdl\drivers\peripheral\ipc/cy_ipc_drv.h **** __STATIC_INLINE uint32_t Cy_IPC_Drv_ExtractReleaseMask (uint32_t intMask)
 820:Generated_Source\PSoC6\pdl\drivers\peripheral\ipc/cy_ipc_drv.h **** {
 821:Generated_Source\PSoC6\pdl\drivers\peripheral\ipc/cy_ipc_drv.h ****     return _FLD2VAL(IPC_INTR_STRUCT_INTR_MASK_RELEASE, intMask);
 822:Generated_Source\PSoC6\pdl\drivers\peripheral\ipc/cy_ipc_drv.h **** }
 823:Generated_Source\PSoC6\pdl\drivers\peripheral\ipc/cy_ipc_drv.h **** 
 824:Generated_Source\PSoC6\pdl\drivers\peripheral\ipc/cy_ipc_drv.h **** /*******************************************************************************
 825:Generated_Source\PSoC6\pdl\drivers\peripheral\ipc/cy_ipc_drv.h **** * Function Name: Cy_IPC_Drv_SendMsgPtr
 826:Generated_Source\PSoC6\pdl\drivers\peripheral\ipc/cy_ipc_drv.h **** ****************************************************************************//**
 827:Generated_Source\PSoC6\pdl\drivers\peripheral\ipc/cy_ipc_drv.h **** *
 828:Generated_Source\PSoC6\pdl\drivers\peripheral\ipc/cy_ipc_drv.h **** * This function is used to send a message pointer through an IPC channel.
 829:Generated_Source\PSoC6\pdl\drivers\peripheral\ipc/cy_ipc_drv.h **** * The message structure may hold a generic pointer that may contain the address
 830:Generated_Source\PSoC6\pdl\drivers\peripheral\ipc/cy_ipc_drv.h **** * of any user data type or structure. This parameter could be a pointer to a 32-bit
 831:Generated_Source\PSoC6\pdl\drivers\peripheral\ipc/cy_ipc_drv.h **** * integer, an array, or even a data structure defined in the user code. This
 832:Generated_Source\PSoC6\pdl\drivers\peripheral\ipc/cy_ipc_drv.h **** * function acts as a transfer engine for sending the pointer. Any memory
 833:Generated_Source\PSoC6\pdl\drivers\peripheral\ipc/cy_ipc_drv.h **** * management of the pointer allocation and deallocation is up to the application
 834:Generated_Source\PSoC6\pdl\drivers\peripheral\ipc/cy_ipc_drv.h **** * code.
 835:Generated_Source\PSoC6\pdl\drivers\peripheral\ipc/cy_ipc_drv.h **** * The function also has an associated notification field that will let the
 836:Generated_Source\PSoC6\pdl\drivers\peripheral\ipc/cy_ipc_drv.h **** * message notify one or multiple interrupts.
 837:Generated_Source\PSoC6\pdl\drivers\peripheral\ipc/cy_ipc_drv.h **** *
ARM GAS  C:\Users\gjl\AppData\Local\Temp\ccShrItW.s 			page 20


 838:Generated_Source\PSoC6\pdl\drivers\peripheral\ipc/cy_ipc_drv.h **** * \param base
 839:Generated_Source\PSoC6\pdl\drivers\peripheral\ipc/cy_ipc_drv.h **** * This parameter is a handle that represents the base address of the registers
 840:Generated_Source\PSoC6\pdl\drivers\peripheral\ipc/cy_ipc_drv.h **** * of the IPC channel.
 841:Generated_Source\PSoC6\pdl\drivers\peripheral\ipc/cy_ipc_drv.h **** * The parameter is generally returned from a call to the \ref
 842:Generated_Source\PSoC6\pdl\drivers\peripheral\ipc/cy_ipc_drv.h **** * Cy_IPC_Drv_GetIpcBaseAddress.
 843:Generated_Source\PSoC6\pdl\drivers\peripheral\ipc/cy_ipc_drv.h **** *
 844:Generated_Source\PSoC6\pdl\drivers\peripheral\ipc/cy_ipc_drv.h **** * \param notifyEventIntr
 845:Generated_Source\PSoC6\pdl\drivers\peripheral\ipc/cy_ipc_drv.h **** * Bit encoded list of IPC interrupt lines that are triggered during the release
 846:Generated_Source\PSoC6\pdl\drivers\peripheral\ipc/cy_ipc_drv.h **** * action.
 847:Generated_Source\PSoC6\pdl\drivers\peripheral\ipc/cy_ipc_drv.h **** *
 848:Generated_Source\PSoC6\pdl\drivers\peripheral\ipc/cy_ipc_drv.h **** * \param msgPtr
 849:Generated_Source\PSoC6\pdl\drivers\peripheral\ipc/cy_ipc_drv.h **** * The message pointer that is being sent over the IPC channel.
 850:Generated_Source\PSoC6\pdl\drivers\peripheral\ipc/cy_ipc_drv.h **** *
 851:Generated_Source\PSoC6\pdl\drivers\peripheral\ipc/cy_ipc_drv.h **** * \return   Status of the operation:
 852:Generated_Source\PSoC6\pdl\drivers\peripheral\ipc/cy_ipc_drv.h **** *   \retval CY_IPC_DRV_SUCCESS: The send operation was successful.
 853:Generated_Source\PSoC6\pdl\drivers\peripheral\ipc/cy_ipc_drv.h **** *   \retval CY_IPC_DRV_ERROR:   The IPC channel is unavailable because
 854:Generated_Source\PSoC6\pdl\drivers\peripheral\ipc/cy_ipc_drv.h **** *                               it is already locked.
 855:Generated_Source\PSoC6\pdl\drivers\peripheral\ipc/cy_ipc_drv.h **** *
 856:Generated_Source\PSoC6\pdl\drivers\peripheral\ipc/cy_ipc_drv.h **** * \funcusage
 857:Generated_Source\PSoC6\pdl\drivers\peripheral\ipc/cy_ipc_drv.h **** * \snippet IPC_sut_01.cydsn/main_cm4.c snippet_Cy_IPC_Drv_SendMsgPtr
 858:Generated_Source\PSoC6\pdl\drivers\peripheral\ipc/cy_ipc_drv.h **** *
 859:Generated_Source\PSoC6\pdl\drivers\peripheral\ipc/cy_ipc_drv.h **** *******************************************************************************/
 860:Generated_Source\PSoC6\pdl\drivers\peripheral\ipc/cy_ipc_drv.h **** __STATIC_INLINE cy_en_ipcdrv_status_t  Cy_IPC_Drv_SendMsgPtr(IPC_STRUCT_Type* base, uint32_t notify
 861:Generated_Source\PSoC6\pdl\drivers\peripheral\ipc/cy_ipc_drv.h **** {
 862:Generated_Source\PSoC6\pdl\drivers\peripheral\ipc/cy_ipc_drv.h ****     CY_ASSERT_L1(NULL != msgPtr);
 863:Generated_Source\PSoC6\pdl\drivers\peripheral\ipc/cy_ipc_drv.h ****     return Cy_IPC_Drv_SendMsgWord(base, notifyEventIntr, (uint32_t)msgPtr);
 135              		.loc 2 863 0
 136 0072 0021     		movs	r1, #0
 137 0074 FFF7FEFF 		bl	Cy_IPC_Drv_SendMsgWord
 138              	.LVL17:
 139              	.LBE25:
 140              	.LBE24:
 141              		.loc 1 110 0
 142 0078 68B9     		cbnz	r0, .L10
 111:Generated_Source\PSoC6\pdl\drivers\peripheral\ipc/cy_ipc_sema.c ****                 {
 112:Generated_Source\PSoC6\pdl\drivers\peripheral\ipc/cy_ipc_sema.c ****                     if(CY_IPC_DRV_SUCCESS == Cy_IPC_Drv_LockRelease (cy_semaIpcStruct, CY_IPC_NO_NO
 143              		.loc 1 112 0
 144 007a 0021     		movs	r1, #0
 145 007c 3868     		ldr	r0, [r7]
 146 007e FFF7FEFF 		bl	Cy_IPC_Drv_LockRelease
 147              	.LVL18:
 148 0082 50B9     		cbnz	r0, .L11
 149 0084 F8BD     		pop	{r3, r4, r5, r6, r7, pc}
 150              	.LVL19:
 151              	.L6:
 152              		.cfi_def_cfa_offset 0
 153              		.cfi_restore 3
 154              		.cfi_restore 4
 155              		.cfi_restore 5
 156              		.cfi_restore 6
 157              		.cfi_restore 7
 158              		.cfi_restore 14
  80:Generated_Source\PSoC6\pdl\drivers\peripheral\ipc/cy_ipc_sema.c ****     }
 159              		.loc 1 80 0
 160 0086 0848     		ldr	r0, .L13+8
 161              	.LVL20:
 113:Generated_Source\PSoC6\pdl\drivers\peripheral\ipc/cy_ipc_sema.c ****                     {
ARM GAS  C:\Users\gjl\AppData\Local\Temp\ccShrItW.s 			page 21


 114:Generated_Source\PSoC6\pdl\drivers\peripheral\ipc/cy_ipc_sema.c ****                         retStatus = CY_IPC_SEMA_SUCCESS;
 115:Generated_Source\PSoC6\pdl\drivers\peripheral\ipc/cy_ipc_sema.c ****                     }
 116:Generated_Source\PSoC6\pdl\drivers\peripheral\ipc/cy_ipc_sema.c ****                     else
 117:Generated_Source\PSoC6\pdl\drivers\peripheral\ipc/cy_ipc_sema.c ****                     {
 118:Generated_Source\PSoC6\pdl\drivers\peripheral\ipc/cy_ipc_sema.c ****                         /* IPC channel not released, still semaphored */
 119:Generated_Source\PSoC6\pdl\drivers\peripheral\ipc/cy_ipc_sema.c ****                         retStatus = CY_IPC_SEMA_ERROR_LOCKED;
 120:Generated_Source\PSoC6\pdl\drivers\peripheral\ipc/cy_ipc_sema.c ****                     }
 121:Generated_Source\PSoC6\pdl\drivers\peripheral\ipc/cy_ipc_sema.c ****                 }
 122:Generated_Source\PSoC6\pdl\drivers\peripheral\ipc/cy_ipc_sema.c ****                 else
 123:Generated_Source\PSoC6\pdl\drivers\peripheral\ipc/cy_ipc_sema.c ****                 {
 124:Generated_Source\PSoC6\pdl\drivers\peripheral\ipc/cy_ipc_sema.c ****                     /* Could not acquire semaphore channel */
 125:Generated_Source\PSoC6\pdl\drivers\peripheral\ipc/cy_ipc_sema.c ****                     retStatus = CY_IPC_SEMA_ERROR_LOCKED;
 126:Generated_Source\PSoC6\pdl\drivers\peripheral\ipc/cy_ipc_sema.c ****                 }
 127:Generated_Source\PSoC6\pdl\drivers\peripheral\ipc/cy_ipc_sema.c ****             }
 128:Generated_Source\PSoC6\pdl\drivers\peripheral\ipc/cy_ipc_sema.c ****             else
 129:Generated_Source\PSoC6\pdl\drivers\peripheral\ipc/cy_ipc_sema.c ****             {
 130:Generated_Source\PSoC6\pdl\drivers\peripheral\ipc/cy_ipc_sema.c ****                 retStatus = CY_IPC_SEMA_BAD_PARAM;
 131:Generated_Source\PSoC6\pdl\drivers\peripheral\ipc/cy_ipc_sema.c ****             }
 132:Generated_Source\PSoC6\pdl\drivers\peripheral\ipc/cy_ipc_sema.c ****         }
 133:Generated_Source\PSoC6\pdl\drivers\peripheral\ipc/cy_ipc_sema.c ****         else
 134:Generated_Source\PSoC6\pdl\drivers\peripheral\ipc/cy_ipc_sema.c ****         {
 135:Generated_Source\PSoC6\pdl\drivers\peripheral\ipc/cy_ipc_sema.c ****             retStatus = CY_IPC_SEMA_BAD_PARAM;
 136:Generated_Source\PSoC6\pdl\drivers\peripheral\ipc/cy_ipc_sema.c ****         }
 137:Generated_Source\PSoC6\pdl\drivers\peripheral\ipc/cy_ipc_sema.c ****     }
 138:Generated_Source\PSoC6\pdl\drivers\peripheral\ipc/cy_ipc_sema.c **** 
 139:Generated_Source\PSoC6\pdl\drivers\peripheral\ipc/cy_ipc_sema.c ****     return(retStatus);
 140:Generated_Source\PSoC6\pdl\drivers\peripheral\ipc/cy_ipc_sema.c **** }
 162              		.loc 1 140 0
 163 0088 7047     		bx	lr
 164              	.LVL21:
 165              	.L7:
 166              		.cfi_def_cfa_offset 24
 167              		.cfi_offset 3, -24
 168              		.cfi_offset 4, -20
 169              		.cfi_offset 5, -16
 170              		.cfi_offset 6, -12
 171              		.cfi_offset 7, -8
 172              		.cfi_offset 14, -4
 135:Generated_Source\PSoC6\pdl\drivers\peripheral\ipc/cy_ipc_sema.c ****         }
 173              		.loc 1 135 0
 174 008a 0748     		ldr	r0, .L13+8
 175              	.LVL22:
 176 008c F8BD     		pop	{r3, r4, r5, r6, r7, pc}
 177              	.LVL23:
 178              	.L8:
 179 008e 0648     		ldr	r0, .L13+8
 180              	.LVL24:
 181 0090 F8BD     		pop	{r3, r4, r5, r6, r7, pc}
 182              	.LVL25:
 183              	.L9:
 130:Generated_Source\PSoC6\pdl\drivers\peripheral\ipc/cy_ipc_sema.c ****             }
 184              		.loc 1 130 0
 185 0092 0548     		ldr	r0, .L13+8
 186              	.LVL26:
 187 0094 F8BD     		pop	{r3, r4, r5, r6, r7, pc}
 188              	.LVL27:
 189              	.L10:
ARM GAS  C:\Users\gjl\AppData\Local\Temp\ccShrItW.s 			page 22


 125:Generated_Source\PSoC6\pdl\drivers\peripheral\ipc/cy_ipc_sema.c ****                 }
 190              		.loc 1 125 0
 191 0096 0548     		ldr	r0, .L13+12
 192 0098 F8BD     		pop	{r3, r4, r5, r6, r7, pc}
 193              	.LVL28:
 194              	.L11:
 119:Generated_Source\PSoC6\pdl\drivers\peripheral\ipc/cy_ipc_sema.c ****                     }
 195              		.loc 1 119 0
 196 009a 0448     		ldr	r0, .L13+12
 197              	.LVL29:
 198              		.loc 1 140 0
 199 009c F8BD     		pop	{r3, r4, r5, r6, r7, pc}
 200              	.LVL30:
 201              	.L14:
 202 009e 00BF     		.align	2
 203              	.L13:
 204 00a0 00000000 		.word	.LC0
 205 00a4 00000000 		.word	.LANCHOR0
 206 00a8 03018A00 		.word	9044227
 207 00ac 01018A00 		.word	9044225
 208              		.cfi_endproc
 209              	.LFE144:
 210              		.size	Cy_IPC_Sema_Init, .-Cy_IPC_Sema_Init
 211              		.section	.text.Cy_IPC_Sema_Set,"ax",%progbits
 212              		.align	2
 213              		.global	Cy_IPC_Sema_Set
 214              		.thumb
 215              		.thumb_func
 216              		.type	Cy_IPC_Sema_Set, %function
 217              	Cy_IPC_Sema_Set:
 218              	.LFB145:
 141:Generated_Source\PSoC6\pdl\drivers\peripheral\ipc/cy_ipc_sema.c **** 
 142:Generated_Source\PSoC6\pdl\drivers\peripheral\ipc/cy_ipc_sema.c **** /*******************************************************************************
 143:Generated_Source\PSoC6\pdl\drivers\peripheral\ipc/cy_ipc_sema.c **** * Function Name: Cy_IPC_Sema_Set
 144:Generated_Source\PSoC6\pdl\drivers\peripheral\ipc/cy_ipc_sema.c **** ****************************************************************************//**
 145:Generated_Source\PSoC6\pdl\drivers\peripheral\ipc/cy_ipc_sema.c **** *
 146:Generated_Source\PSoC6\pdl\drivers\peripheral\ipc/cy_ipc_sema.c **** * This function tries to acquire a semaphore. If the
 147:Generated_Source\PSoC6\pdl\drivers\peripheral\ipc/cy_ipc_sema.c **** * semaphore is not available, this function returns immediately with
 148:Generated_Source\PSoC6\pdl\drivers\peripheral\ipc/cy_ipc_sema.c **** * CY_IPC_SEMA_LOCKED.
 149:Generated_Source\PSoC6\pdl\drivers\peripheral\ipc/cy_ipc_sema.c **** *
 150:Generated_Source\PSoC6\pdl\drivers\peripheral\ipc/cy_ipc_sema.c **** * It first acquires the IPC channel that is used for all the semaphores, sets
 151:Generated_Source\PSoC6\pdl\drivers\peripheral\ipc/cy_ipc_sema.c **** * the semaphore if it is cleared, then releases the IPC channel used for the
 152:Generated_Source\PSoC6\pdl\drivers\peripheral\ipc/cy_ipc_sema.c **** * semaphore.
 153:Generated_Source\PSoC6\pdl\drivers\peripheral\ipc/cy_ipc_sema.c **** *
 154:Generated_Source\PSoC6\pdl\drivers\peripheral\ipc/cy_ipc_sema.c **** * \param semaNumber
 155:Generated_Source\PSoC6\pdl\drivers\peripheral\ipc/cy_ipc_sema.c **** *  The semaphore number to acquire.
 156:Generated_Source\PSoC6\pdl\drivers\peripheral\ipc/cy_ipc_sema.c **** *
 157:Generated_Source\PSoC6\pdl\drivers\peripheral\ipc/cy_ipc_sema.c **** * \param preemptable
 158:Generated_Source\PSoC6\pdl\drivers\peripheral\ipc/cy_ipc_sema.c **** *  When this parameter is enabled the function can be preempted by another
 159:Generated_Source\PSoC6\pdl\drivers\peripheral\ipc/cy_ipc_sema.c **** *  task or other forms of context switching in an RTOS environment.
 160:Generated_Source\PSoC6\pdl\drivers\peripheral\ipc/cy_ipc_sema.c **** *
 161:Generated_Source\PSoC6\pdl\drivers\peripheral\ipc/cy_ipc_sema.c **** * \note
 162:Generated_Source\PSoC6\pdl\drivers\peripheral\ipc/cy_ipc_sema.c **** *  If <b>preemptable</b> is enabled (true), the user must ensure that there are
 163:Generated_Source\PSoC6\pdl\drivers\peripheral\ipc/cy_ipc_sema.c **** *  no deadlocks in the system, which can be caused by an interrupt that occurs
 164:Generated_Source\PSoC6\pdl\drivers\peripheral\ipc/cy_ipc_sema.c **** *  after the IPC channel is locked. Unless the user is ready to handle IPC
 165:Generated_Source\PSoC6\pdl\drivers\peripheral\ipc/cy_ipc_sema.c **** *  channel locks correctly at the application level, set <b>premptable</b> to
 166:Generated_Source\PSoC6\pdl\drivers\peripheral\ipc/cy_ipc_sema.c **** *  false.
ARM GAS  C:\Users\gjl\AppData\Local\Temp\ccShrItW.s 			page 23


 167:Generated_Source\PSoC6\pdl\drivers\peripheral\ipc/cy_ipc_sema.c **** *
 168:Generated_Source\PSoC6\pdl\drivers\peripheral\ipc/cy_ipc_sema.c **** * \return Status of the operation
 169:Generated_Source\PSoC6\pdl\drivers\peripheral\ipc/cy_ipc_sema.c **** *    \retval CY_IPC_SEMA_SUCCESS:      The semaphore was set successfully
 170:Generated_Source\PSoC6\pdl\drivers\peripheral\ipc/cy_ipc_sema.c **** *    \retval CY_IPC_SEMA_LOCKED:       The semaphore channel is busy or locked
 171:Generated_Source\PSoC6\pdl\drivers\peripheral\ipc/cy_ipc_sema.c **** *                              by another process
 172:Generated_Source\PSoC6\pdl\drivers\peripheral\ipc/cy_ipc_sema.c **** *    \retval CY_IPC_SEMA_NOT_ACQUIRED: Semaphore was already set
 173:Generated_Source\PSoC6\pdl\drivers\peripheral\ipc/cy_ipc_sema.c **** *    \retval CY_IPC_SEMA_OUT_OF_RANGE: The semaphore number is not valid
 174:Generated_Source\PSoC6\pdl\drivers\peripheral\ipc/cy_ipc_sema.c **** *
 175:Generated_Source\PSoC6\pdl\drivers\peripheral\ipc/cy_ipc_sema.c **** * \funcusage
 176:Generated_Source\PSoC6\pdl\drivers\peripheral\ipc/cy_ipc_sema.c **** * \snippet IPC_sut_01.cydsn/main_cm4.c snippet_Cy_IPC_Sema_Set
 177:Generated_Source\PSoC6\pdl\drivers\peripheral\ipc/cy_ipc_sema.c **** *
 178:Generated_Source\PSoC6\pdl\drivers\peripheral\ipc/cy_ipc_sema.c **** *******************************************************************************/
 179:Generated_Source\PSoC6\pdl\drivers\peripheral\ipc/cy_ipc_sema.c **** cy_en_ipcsema_status_t Cy_IPC_Sema_Set(uint32_t semaNumber, bool preemptable)
 180:Generated_Source\PSoC6\pdl\drivers\peripheral\ipc/cy_ipc_sema.c **** {
 219              		.loc 1 180 0
 220              		.cfi_startproc
 221              		@ args = 0, pretend = 0, frame = 0
 222              		@ frame_needed = 0, uses_anonymous_args = 0
 223              	.LVL31:
 224 0000 2DE9F041 		push	{r4, r5, r6, r7, r8, lr}
 225              		.cfi_def_cfa_offset 24
 226              		.cfi_offset 4, -24
 227              		.cfi_offset 5, -20
 228              		.cfi_offset 6, -16
 229              		.cfi_offset 7, -12
 230              		.cfi_offset 8, -8
 231              		.cfi_offset 14, -4
 232              	.LVL32:
 181:Generated_Source\PSoC6\pdl\drivers\peripheral\ipc/cy_ipc_sema.c ****     uint32_t semaIndex;
 182:Generated_Source\PSoC6\pdl\drivers\peripheral\ipc/cy_ipc_sema.c ****     uint32_t semaMask;
 183:Generated_Source\PSoC6\pdl\drivers\peripheral\ipc/cy_ipc_sema.c ****     uint32_t interruptState = 0ul;
 184:Generated_Source\PSoC6\pdl\drivers\peripheral\ipc/cy_ipc_sema.c **** 
 185:Generated_Source\PSoC6\pdl\drivers\peripheral\ipc/cy_ipc_sema.c ****     cy_stc_ipc_sema_t      *semaStruct;
 186:Generated_Source\PSoC6\pdl\drivers\peripheral\ipc/cy_ipc_sema.c ****     cy_en_ipcsema_status_t  retStatus = CY_IPC_SEMA_LOCKED;
 187:Generated_Source\PSoC6\pdl\drivers\peripheral\ipc/cy_ipc_sema.c **** 
 188:Generated_Source\PSoC6\pdl\drivers\peripheral\ipc/cy_ipc_sema.c ****     /* Get pointer to structure */
 189:Generated_Source\PSoC6\pdl\drivers\peripheral\ipc/cy_ipc_sema.c ****     semaStruct = (cy_stc_ipc_sema_t *)Cy_IPC_Drv_ReadDataValue(cy_semaIpcStruct);
 233              		.loc 1 189 0
 234 0004 1B4B     		ldr	r3, .L27
 235 0006 1B68     		ldr	r3, [r3]
 236              	.LVL33:
 237              	.LBB26:
 238              	.LBB27:
 728:Generated_Source\PSoC6\pdl\drivers\peripheral\ipc/cy_ipc_drv.h **** }
 239              		.loc 2 728 0
 240 0008 DC68     		ldr	r4, [r3, #12]
 241              	.LVL34:
 242              	.LBE27:
 243              	.LBE26:
 190:Generated_Source\PSoC6\pdl\drivers\peripheral\ipc/cy_ipc_sema.c **** 
 191:Generated_Source\PSoC6\pdl\drivers\peripheral\ipc/cy_ipc_sema.c ****     if (semaNumber < semaStruct->maxSema)
 244              		.loc 1 191 0
 245 000a 2368     		ldr	r3, [r4]
 246 000c 8342     		cmp	r3, r0
 247 000e 2CD9     		bls	.L21
 248 0010 0D46     		mov	r5, r1
 192:Generated_Source\PSoC6\pdl\drivers\peripheral\ipc/cy_ipc_sema.c ****     {
ARM GAS  C:\Users\gjl\AppData\Local\Temp\ccShrItW.s 			page 24


 193:Generated_Source\PSoC6\pdl\drivers\peripheral\ipc/cy_ipc_sema.c ****         semaIndex = semaNumber / CY_IPC_SEMA_PER_WORD;
 249              		.loc 1 193 0
 250 0012 4609     		lsrs	r6, r0, #5
 251              	.LVL35:
 194:Generated_Source\PSoC6\pdl\drivers\peripheral\ipc/cy_ipc_sema.c ****         semaMask = (uint32_t)(1ul << (semaNumber - (semaIndex * CY_IPC_SEMA_PER_WORD) ));
 252              		.loc 1 194 0
 253 0014 A0EB4610 		sub	r0, r0, r6, lsl #5
 254              	.LVL36:
 255 0018 0123     		movs	r3, #1
 256 001a 03FA00F8 		lsl	r8, r3, r0
 257              	.LVL37:
 195:Generated_Source\PSoC6\pdl\drivers\peripheral\ipc/cy_ipc_sema.c **** 
 196:Generated_Source\PSoC6\pdl\drivers\peripheral\ipc/cy_ipc_sema.c ****         if (!preemptable)
 258              		.loc 1 196 0
 259 001e 19B9     		cbnz	r1, .L22
 197:Generated_Source\PSoC6\pdl\drivers\peripheral\ipc/cy_ipc_sema.c ****         {
 198:Generated_Source\PSoC6\pdl\drivers\peripheral\ipc/cy_ipc_sema.c ****             interruptState = Cy_SysLib_EnterCriticalSection();
 260              		.loc 1 198 0
 261 0020 FFF7FEFF 		bl	Cy_SysLib_EnterCriticalSection
 262              	.LVL38:
 263 0024 0746     		mov	r7, r0
 264              	.LVL39:
 265 0026 00E0     		b	.L17
 266              	.LVL40:
 267              	.L22:
 183:Generated_Source\PSoC6\pdl\drivers\peripheral\ipc/cy_ipc_sema.c **** 
 268              		.loc 1 183 0
 269 0028 0027     		movs	r7, #0
 270              	.LVL41:
 271              	.L17:
 199:Generated_Source\PSoC6\pdl\drivers\peripheral\ipc/cy_ipc_sema.c ****         }
 200:Generated_Source\PSoC6\pdl\drivers\peripheral\ipc/cy_ipc_sema.c **** 
 201:Generated_Source\PSoC6\pdl\drivers\peripheral\ipc/cy_ipc_sema.c ****         /* Check to make sure the IPC channel is released
 202:Generated_Source\PSoC6\pdl\drivers\peripheral\ipc/cy_ipc_sema.c ****            If so, check if specific channel can be locked. */
 203:Generated_Source\PSoC6\pdl\drivers\peripheral\ipc/cy_ipc_sema.c ****         if(CY_IPC_DRV_SUCCESS == Cy_IPC_Drv_LockAcquire (cy_semaIpcStruct))
 272              		.loc 1 203 0
 273 002a 124B     		ldr	r3, .L27
 274 002c 1868     		ldr	r0, [r3]
 275              	.LVL42:
 276              	.LBB28:
 277              	.LBB29:
 864:Generated_Source\PSoC6\pdl\drivers\peripheral\ipc/cy_ipc_drv.h **** }
 865:Generated_Source\PSoC6\pdl\drivers\peripheral\ipc/cy_ipc_drv.h **** 
 866:Generated_Source\PSoC6\pdl\drivers\peripheral\ipc/cy_ipc_drv.h **** /*******************************************************************************
 867:Generated_Source\PSoC6\pdl\drivers\peripheral\ipc/cy_ipc_drv.h **** * Function Name: Cy_IPC_Drv_ReadMsgPtr
 868:Generated_Source\PSoC6\pdl\drivers\peripheral\ipc/cy_ipc_drv.h **** ****************************************************************************//**
 869:Generated_Source\PSoC6\pdl\drivers\peripheral\ipc/cy_ipc_drv.h **** *
 870:Generated_Source\PSoC6\pdl\drivers\peripheral\ipc/cy_ipc_drv.h **** * This function is used to read a 32-bit pointer message through an IPC channel.
 871:Generated_Source\PSoC6\pdl\drivers\peripheral\ipc/cy_ipc_drv.h **** *
 872:Generated_Source\PSoC6\pdl\drivers\peripheral\ipc/cy_ipc_drv.h **** * \param base
 873:Generated_Source\PSoC6\pdl\drivers\peripheral\ipc/cy_ipc_drv.h **** * This parameter is a handle that represents the base address of the registers
 874:Generated_Source\PSoC6\pdl\drivers\peripheral\ipc/cy_ipc_drv.h **** * of the IPC channel.
 875:Generated_Source\PSoC6\pdl\drivers\peripheral\ipc/cy_ipc_drv.h **** * The parameter is generally returned from a call to the \ref
 876:Generated_Source\PSoC6\pdl\drivers\peripheral\ipc/cy_ipc_drv.h **** * Cy_IPC_Drv_GetIpcBaseAddress.
 877:Generated_Source\PSoC6\pdl\drivers\peripheral\ipc/cy_ipc_drv.h **** *
 878:Generated_Source\PSoC6\pdl\drivers\peripheral\ipc/cy_ipc_drv.h **** * \param msgPtr
 879:Generated_Source\PSoC6\pdl\drivers\peripheral\ipc/cy_ipc_drv.h **** * Pointer variable to hold the data pointer that is being read from the IPC
ARM GAS  C:\Users\gjl\AppData\Local\Temp\ccShrItW.s 			page 25


 880:Generated_Source\PSoC6\pdl\drivers\peripheral\ipc/cy_ipc_drv.h **** * channel.
 881:Generated_Source\PSoC6\pdl\drivers\peripheral\ipc/cy_ipc_drv.h **** *
 882:Generated_Source\PSoC6\pdl\drivers\peripheral\ipc/cy_ipc_drv.h **** *
 883:Generated_Source\PSoC6\pdl\drivers\peripheral\ipc/cy_ipc_drv.h **** * \return Status of the operation
 884:Generated_Source\PSoC6\pdl\drivers\peripheral\ipc/cy_ipc_drv.h **** *   \retval CY_IPC_DRV_SUCCESS: The function executed successfully and the IPC
 885:Generated_Source\PSoC6\pdl\drivers\peripheral\ipc/cy_ipc_drv.h **** *                       was acquired.
 886:Generated_Source\PSoC6\pdl\drivers\peripheral\ipc/cy_ipc_drv.h **** *   \retval CY_IPC_DRV_ERROR:   The function encountered an error because the IPC
 887:Generated_Source\PSoC6\pdl\drivers\peripheral\ipc/cy_ipc_drv.h **** *                       channel was already in a released state meaning the data
 888:Generated_Source\PSoC6\pdl\drivers\peripheral\ipc/cy_ipc_drv.h **** *                       in it is invalid.
 889:Generated_Source\PSoC6\pdl\drivers\peripheral\ipc/cy_ipc_drv.h **** *
 890:Generated_Source\PSoC6\pdl\drivers\peripheral\ipc/cy_ipc_drv.h **** * \funcusage
 891:Generated_Source\PSoC6\pdl\drivers\peripheral\ipc/cy_ipc_drv.h **** * \snippet IPC_sut_01.cydsn/main_cm4.c snippet_Cy_IPC_Drv_ReadMsgPtr
 892:Generated_Source\PSoC6\pdl\drivers\peripheral\ipc/cy_ipc_drv.h **** *
 893:Generated_Source\PSoC6\pdl\drivers\peripheral\ipc/cy_ipc_drv.h **** *******************************************************************************/
 894:Generated_Source\PSoC6\pdl\drivers\peripheral\ipc/cy_ipc_drv.h **** __STATIC_INLINE  cy_en_ipcdrv_status_t  Cy_IPC_Drv_ReadMsgPtr (IPC_STRUCT_Type const * base, void *
 895:Generated_Source\PSoC6\pdl\drivers\peripheral\ipc/cy_ipc_drv.h **** {
 896:Generated_Source\PSoC6\pdl\drivers\peripheral\ipc/cy_ipc_drv.h ****     CY_ASSERT_L1(NULL != msgPtr);
 897:Generated_Source\PSoC6\pdl\drivers\peripheral\ipc/cy_ipc_drv.h ****     return Cy_IPC_Drv_ReadMsgWord(base, (uint32_t *)msgPtr);
 898:Generated_Source\PSoC6\pdl\drivers\peripheral\ipc/cy_ipc_drv.h **** }
 899:Generated_Source\PSoC6\pdl\drivers\peripheral\ipc/cy_ipc_drv.h **** 
 900:Generated_Source\PSoC6\pdl\drivers\peripheral\ipc/cy_ipc_drv.h **** /*******************************************************************************
 901:Generated_Source\PSoC6\pdl\drivers\peripheral\ipc/cy_ipc_drv.h **** * Function Name: Cy_IPC_Drv_LockAcquire
 902:Generated_Source\PSoC6\pdl\drivers\peripheral\ipc/cy_ipc_drv.h **** ****************************************************************************//**
 903:Generated_Source\PSoC6\pdl\drivers\peripheral\ipc/cy_ipc_drv.h **** *
 904:Generated_Source\PSoC6\pdl\drivers\peripheral\ipc/cy_ipc_drv.h **** * This function is used to acquire the IPC channel.
 905:Generated_Source\PSoC6\pdl\drivers\peripheral\ipc/cy_ipc_drv.h **** *
 906:Generated_Source\PSoC6\pdl\drivers\peripheral\ipc/cy_ipc_drv.h **** * \param base
 907:Generated_Source\PSoC6\pdl\drivers\peripheral\ipc/cy_ipc_drv.h **** * This parameter is a handle that represents the base address of the registers
 908:Generated_Source\PSoC6\pdl\drivers\peripheral\ipc/cy_ipc_drv.h **** * of the IPC channel.
 909:Generated_Source\PSoC6\pdl\drivers\peripheral\ipc/cy_ipc_drv.h **** * The parameter is generally returned from a call to the \ref
 910:Generated_Source\PSoC6\pdl\drivers\peripheral\ipc/cy_ipc_drv.h **** * Cy_IPC_Drv_GetIpcBaseAddress
 911:Generated_Source\PSoC6\pdl\drivers\peripheral\ipc/cy_ipc_drv.h **** *
 912:Generated_Source\PSoC6\pdl\drivers\peripheral\ipc/cy_ipc_drv.h **** * \return   Status of the operation
 913:Generated_Source\PSoC6\pdl\drivers\peripheral\ipc/cy_ipc_drv.h **** *   \retval CY_IPC_DRV_SUCCESS: The IPC was successfully acquired
 914:Generated_Source\PSoC6\pdl\drivers\peripheral\ipc/cy_ipc_drv.h **** *   \retval CY_IPC_DRV_ERROR:   The IPC was not acquired because it was already acquired
 915:Generated_Source\PSoC6\pdl\drivers\peripheral\ipc/cy_ipc_drv.h **** *                       by another master
 916:Generated_Source\PSoC6\pdl\drivers\peripheral\ipc/cy_ipc_drv.h **** *
 917:Generated_Source\PSoC6\pdl\drivers\peripheral\ipc/cy_ipc_drv.h **** * \funcusage
 918:Generated_Source\PSoC6\pdl\drivers\peripheral\ipc/cy_ipc_drv.h **** * \snippet IPC_sut_01.cydsn/main_cm4.c snippet_Cy_IPC_Drv_LockAcquire
 919:Generated_Source\PSoC6\pdl\drivers\peripheral\ipc/cy_ipc_drv.h **** *
 920:Generated_Source\PSoC6\pdl\drivers\peripheral\ipc/cy_ipc_drv.h **** *******************************************************************************/
 921:Generated_Source\PSoC6\pdl\drivers\peripheral\ipc/cy_ipc_drv.h **** __STATIC_INLINE cy_en_ipcdrv_status_t Cy_IPC_Drv_LockAcquire (IPC_STRUCT_Type const * base)
 922:Generated_Source\PSoC6\pdl\drivers\peripheral\ipc/cy_ipc_drv.h **** {
 923:Generated_Source\PSoC6\pdl\drivers\peripheral\ipc/cy_ipc_drv.h ****     return ( 0ul != _FLD2VAL(IPC_STRUCT_ACQUIRE_SUCCESS, base->ACQUIRE)) ? CY_IPC_DRV_SUCCESS : CY_
 278              		.loc 2 923 0
 279 002e 0368     		ldr	r3, [r0]
 280 0030 002B     		cmp	r3, #0
 281 0032 01DA     		bge	.L23
 282 0034 0023     		movs	r3, #0
 283 0036 00E0     		b	.L18
 284              	.L23:
 285 0038 0F4B     		ldr	r3, .L27+4
 286              	.L18:
 287              	.LVL43:
 288              	.LBE29:
 289              	.LBE28:
 290              		.loc 1 203 0
ARM GAS  C:\Users\gjl\AppData\Local\Temp\ccShrItW.s 			page 26


 291 003a 83B9     		cbnz	r3, .L24
 204:Generated_Source\PSoC6\pdl\drivers\peripheral\ipc/cy_ipc_sema.c ****         {
 205:Generated_Source\PSoC6\pdl\drivers\peripheral\ipc/cy_ipc_sema.c ****             if((semaStruct->arrayPtr[semaIndex] & semaMask) == 0ul)
 292              		.loc 1 205 0
 293 003c 6268     		ldr	r2, [r4, #4]
 294 003e 52F82630 		ldr	r3, [r2, r6, lsl #2]
 295 0042 18EA030F 		tst	r8, r3
 296 0046 05D1     		bne	.L25
 206:Generated_Source\PSoC6\pdl\drivers\peripheral\ipc/cy_ipc_sema.c ****             {
 207:Generated_Source\PSoC6\pdl\drivers\peripheral\ipc/cy_ipc_sema.c ****                 semaStruct->arrayPtr[semaIndex] |= semaMask;
 297              		.loc 1 207 0
 298 0048 48EA0303 		orr	r3, r8, r3
 299 004c 42F82630 		str	r3, [r2, r6, lsl #2]
 300              	.LVL44:
 208:Generated_Source\PSoC6\pdl\drivers\peripheral\ipc/cy_ipc_sema.c ****                 retStatus = CY_IPC_SEMA_SUCCESS;
 301              		.loc 1 208 0
 302 0050 0024     		movs	r4, #0
 303              	.LVL45:
 304 0052 00E0     		b	.L20
 305              	.LVL46:
 306              	.L25:
 209:Generated_Source\PSoC6\pdl\drivers\peripheral\ipc/cy_ipc_sema.c ****             }
 210:Generated_Source\PSoC6\pdl\drivers\peripheral\ipc/cy_ipc_sema.c ****             else
 211:Generated_Source\PSoC6\pdl\drivers\peripheral\ipc/cy_ipc_sema.c ****             {
 212:Generated_Source\PSoC6\pdl\drivers\peripheral\ipc/cy_ipc_sema.c ****                 retStatus = CY_IPC_SEMA_NOT_ACQUIRED;
 307              		.loc 1 212 0
 308 0054 094C     		ldr	r4, .L27+8
 309              	.LVL47:
 310              	.L20:
 213:Generated_Source\PSoC6\pdl\drivers\peripheral\ipc/cy_ipc_sema.c ****             }
 214:Generated_Source\PSoC6\pdl\drivers\peripheral\ipc/cy_ipc_sema.c **** 
 215:Generated_Source\PSoC6\pdl\drivers\peripheral\ipc/cy_ipc_sema.c ****             /* Release, but do not trigger a release event */
 216:Generated_Source\PSoC6\pdl\drivers\peripheral\ipc/cy_ipc_sema.c ****             (void) Cy_IPC_Drv_LockRelease (cy_semaIpcStruct, CY_IPC_NO_NOTIFICATION);
 311              		.loc 1 216 0
 312 0056 0021     		movs	r1, #0
 313 0058 FFF7FEFF 		bl	Cy_IPC_Drv_LockRelease
 314              	.LVL48:
 315 005c 00E0     		b	.L19
 316              	.LVL49:
 317              	.L24:
 186:Generated_Source\PSoC6\pdl\drivers\peripheral\ipc/cy_ipc_sema.c **** 
 318              		.loc 1 186 0
 319 005e 084C     		ldr	r4, .L27+12
 320              	.LVL50:
 321              	.L19:
 217:Generated_Source\PSoC6\pdl\drivers\peripheral\ipc/cy_ipc_sema.c ****         }
 218:Generated_Source\PSoC6\pdl\drivers\peripheral\ipc/cy_ipc_sema.c **** 
 219:Generated_Source\PSoC6\pdl\drivers\peripheral\ipc/cy_ipc_sema.c ****         if (!preemptable)
 322              		.loc 1 219 0
 323 0060 25B9     		cbnz	r5, .L16
 220:Generated_Source\PSoC6\pdl\drivers\peripheral\ipc/cy_ipc_sema.c ****         {
 221:Generated_Source\PSoC6\pdl\drivers\peripheral\ipc/cy_ipc_sema.c ****             Cy_SysLib_ExitCriticalSection(interruptState);
 324              		.loc 1 221 0
 325 0062 3846     		mov	r0, r7
 326 0064 FFF7FEFF 		bl	Cy_SysLib_ExitCriticalSection
 327              	.LVL51:
 328 0068 00E0     		b	.L16
ARM GAS  C:\Users\gjl\AppData\Local\Temp\ccShrItW.s 			page 27


 329              	.LVL52:
 330              	.L21:
 222:Generated_Source\PSoC6\pdl\drivers\peripheral\ipc/cy_ipc_sema.c ****         }
 223:Generated_Source\PSoC6\pdl\drivers\peripheral\ipc/cy_ipc_sema.c ****     }
 224:Generated_Source\PSoC6\pdl\drivers\peripheral\ipc/cy_ipc_sema.c ****     else
 225:Generated_Source\PSoC6\pdl\drivers\peripheral\ipc/cy_ipc_sema.c ****     {
 226:Generated_Source\PSoC6\pdl\drivers\peripheral\ipc/cy_ipc_sema.c ****         retStatus = CY_IPC_SEMA_OUT_OF_RANGE;
 331              		.loc 1 226 0
 332 006a 064C     		ldr	r4, .L27+16
 333              	.LVL53:
 334              	.L16:
 227:Generated_Source\PSoC6\pdl\drivers\peripheral\ipc/cy_ipc_sema.c ****     }
 228:Generated_Source\PSoC6\pdl\drivers\peripheral\ipc/cy_ipc_sema.c **** 
 229:Generated_Source\PSoC6\pdl\drivers\peripheral\ipc/cy_ipc_sema.c ****     return(retStatus);
 230:Generated_Source\PSoC6\pdl\drivers\peripheral\ipc/cy_ipc_sema.c **** }
 335              		.loc 1 230 0
 336 006c 2046     		mov	r0, r4
 337 006e BDE8F081 		pop	{r4, r5, r6, r7, r8, pc}
 338              	.LVL54:
 339              	.L28:
 340 0072 00BF     		.align	2
 341              	.L27:
 342 0074 00000000 		.word	.LANCHOR0
 343 0078 01008A00 		.word	9043969
 344 007c 02018800 		.word	8913154
 345 0080 03018800 		.word	8913155
 346 0084 04018A00 		.word	9044228
 347              		.cfi_endproc
 348              	.LFE145:
 349              		.size	Cy_IPC_Sema_Set, .-Cy_IPC_Sema_Set
 350              		.section	.text.Cy_IPC_Sema_Clear,"ax",%progbits
 351              		.align	2
 352              		.global	Cy_IPC_Sema_Clear
 353              		.thumb
 354              		.thumb_func
 355              		.type	Cy_IPC_Sema_Clear, %function
 356              	Cy_IPC_Sema_Clear:
 357              	.LFB146:
 231:Generated_Source\PSoC6\pdl\drivers\peripheral\ipc/cy_ipc_sema.c **** 
 232:Generated_Source\PSoC6\pdl\drivers\peripheral\ipc/cy_ipc_sema.c **** 
 233:Generated_Source\PSoC6\pdl\drivers\peripheral\ipc/cy_ipc_sema.c **** /*******************************************************************************
 234:Generated_Source\PSoC6\pdl\drivers\peripheral\ipc/cy_ipc_sema.c **** * Function Name: Cy_IPC_Sema_Clear
 235:Generated_Source\PSoC6\pdl\drivers\peripheral\ipc/cy_ipc_sema.c **** ****************************************************************************//**
 236:Generated_Source\PSoC6\pdl\drivers\peripheral\ipc/cy_ipc_sema.c **** *
 237:Generated_Source\PSoC6\pdl\drivers\peripheral\ipc/cy_ipc_sema.c **** * This functions tries to releases a semaphore.
 238:Generated_Source\PSoC6\pdl\drivers\peripheral\ipc/cy_ipc_sema.c **** *
 239:Generated_Source\PSoC6\pdl\drivers\peripheral\ipc/cy_ipc_sema.c **** * It first acquires the IPC channel that is used for all the semaphores, clears
 240:Generated_Source\PSoC6\pdl\drivers\peripheral\ipc/cy_ipc_sema.c **** * the semaphore if it is set, then releases the IPC channel used for the
 241:Generated_Source\PSoC6\pdl\drivers\peripheral\ipc/cy_ipc_sema.c **** * semaphores.
 242:Generated_Source\PSoC6\pdl\drivers\peripheral\ipc/cy_ipc_sema.c **** *
 243:Generated_Source\PSoC6\pdl\drivers\peripheral\ipc/cy_ipc_sema.c **** * \param semaNumber
 244:Generated_Source\PSoC6\pdl\drivers\peripheral\ipc/cy_ipc_sema.c **** *  The index of the semaphore to release.
 245:Generated_Source\PSoC6\pdl\drivers\peripheral\ipc/cy_ipc_sema.c **** *
 246:Generated_Source\PSoC6\pdl\drivers\peripheral\ipc/cy_ipc_sema.c **** * \param preemptable
 247:Generated_Source\PSoC6\pdl\drivers\peripheral\ipc/cy_ipc_sema.c **** *  When this parameter is enabled the function can be preempted by another
 248:Generated_Source\PSoC6\pdl\drivers\peripheral\ipc/cy_ipc_sema.c **** *  task or other forms of context switching in an RTOS environment.
 249:Generated_Source\PSoC6\pdl\drivers\peripheral\ipc/cy_ipc_sema.c **** *
ARM GAS  C:\Users\gjl\AppData\Local\Temp\ccShrItW.s 			page 28


 250:Generated_Source\PSoC6\pdl\drivers\peripheral\ipc/cy_ipc_sema.c **** * \note
 251:Generated_Source\PSoC6\pdl\drivers\peripheral\ipc/cy_ipc_sema.c **** *  If <b>preemptable</b> is enabled (true), the user must ensure that there are
 252:Generated_Source\PSoC6\pdl\drivers\peripheral\ipc/cy_ipc_sema.c **** *  no deadlocks in the system, which can be caused by an interrupt that occurs
 253:Generated_Source\PSoC6\pdl\drivers\peripheral\ipc/cy_ipc_sema.c **** *  after the IPC channel is locked. Unless the user is ready to handle IPC
 254:Generated_Source\PSoC6\pdl\drivers\peripheral\ipc/cy_ipc_sema.c **** *  channel locks correctly at the application level, set <b>premptable</b> to
 255:Generated_Source\PSoC6\pdl\drivers\peripheral\ipc/cy_ipc_sema.c **** *  false.
 256:Generated_Source\PSoC6\pdl\drivers\peripheral\ipc/cy_ipc_sema.c **** *
 257:Generated_Source\PSoC6\pdl\drivers\peripheral\ipc/cy_ipc_sema.c **** * \return Status of the operation
 258:Generated_Source\PSoC6\pdl\drivers\peripheral\ipc/cy_ipc_sema.c **** *    \retval CY_IPC_SEMA_SUCCESS:         The semaphore was cleared successfully
 259:Generated_Source\PSoC6\pdl\drivers\peripheral\ipc/cy_ipc_sema.c **** *    \retval CY_IPC_SEMA_NOT_ACQUIRED:    The semaphore was already cleared
 260:Generated_Source\PSoC6\pdl\drivers\peripheral\ipc/cy_ipc_sema.c **** *    \retval CY_IPC_SEMA_LOCKED:          The semaphore channel was semaphored or busy
 261:Generated_Source\PSoC6\pdl\drivers\peripheral\ipc/cy_ipc_sema.c **** *    \retval CY_IPC_SEMA_OUT_OF_RANGE:    The semaphore number is not valid
 262:Generated_Source\PSoC6\pdl\drivers\peripheral\ipc/cy_ipc_sema.c **** *
 263:Generated_Source\PSoC6\pdl\drivers\peripheral\ipc/cy_ipc_sema.c **** * \funcusage
 264:Generated_Source\PSoC6\pdl\drivers\peripheral\ipc/cy_ipc_sema.c **** * \snippet IPC_sut_01.cydsn/main_cm4.c snippet_Cy_IPC_Sema_Clear
 265:Generated_Source\PSoC6\pdl\drivers\peripheral\ipc/cy_ipc_sema.c **** *
 266:Generated_Source\PSoC6\pdl\drivers\peripheral\ipc/cy_ipc_sema.c **** *******************************************************************************/
 267:Generated_Source\PSoC6\pdl\drivers\peripheral\ipc/cy_ipc_sema.c **** cy_en_ipcsema_status_t Cy_IPC_Sema_Clear(uint32_t semaNumber, bool preemptable)
 268:Generated_Source\PSoC6\pdl\drivers\peripheral\ipc/cy_ipc_sema.c **** {
 358              		.loc 1 268 0
 359              		.cfi_startproc
 360              		@ args = 0, pretend = 0, frame = 0
 361              		@ frame_needed = 0, uses_anonymous_args = 0
 362              	.LVL55:
 363 0000 2DE9F041 		push	{r4, r5, r6, r7, r8, lr}
 364              		.cfi_def_cfa_offset 24
 365              		.cfi_offset 4, -24
 366              		.cfi_offset 5, -20
 367              		.cfi_offset 6, -16
 368              		.cfi_offset 7, -12
 369              		.cfi_offset 8, -8
 370              		.cfi_offset 14, -4
 371              	.LVL56:
 269:Generated_Source\PSoC6\pdl\drivers\peripheral\ipc/cy_ipc_sema.c ****     uint32_t semaIndex;
 270:Generated_Source\PSoC6\pdl\drivers\peripheral\ipc/cy_ipc_sema.c ****     uint32_t semaMask;
 271:Generated_Source\PSoC6\pdl\drivers\peripheral\ipc/cy_ipc_sema.c ****     uint32_t interruptState = 0ul;
 272:Generated_Source\PSoC6\pdl\drivers\peripheral\ipc/cy_ipc_sema.c **** 
 273:Generated_Source\PSoC6\pdl\drivers\peripheral\ipc/cy_ipc_sema.c ****     cy_stc_ipc_sema_t      *semaStruct;
 274:Generated_Source\PSoC6\pdl\drivers\peripheral\ipc/cy_ipc_sema.c ****     cy_en_ipcsema_status_t  retStatus = CY_IPC_SEMA_LOCKED;
 275:Generated_Source\PSoC6\pdl\drivers\peripheral\ipc/cy_ipc_sema.c **** 
 276:Generated_Source\PSoC6\pdl\drivers\peripheral\ipc/cy_ipc_sema.c ****     /* Get pointer to structure */
 277:Generated_Source\PSoC6\pdl\drivers\peripheral\ipc/cy_ipc_sema.c ****     semaStruct = (cy_stc_ipc_sema_t *)Cy_IPC_Drv_ReadDataValue(cy_semaIpcStruct);
 372              		.loc 1 277 0
 373 0004 1B4B     		ldr	r3, .L41
 374 0006 1B68     		ldr	r3, [r3]
 375              	.LVL57:
 376              	.LBB30:
 377              	.LBB31:
 728:Generated_Source\PSoC6\pdl\drivers\peripheral\ipc/cy_ipc_drv.h **** }
 378              		.loc 2 728 0
 379 0008 DC68     		ldr	r4, [r3, #12]
 380              	.LVL58:
 381              	.LBE31:
 382              	.LBE30:
 278:Generated_Source\PSoC6\pdl\drivers\peripheral\ipc/cy_ipc_sema.c **** 
 279:Generated_Source\PSoC6\pdl\drivers\peripheral\ipc/cy_ipc_sema.c ****     if (semaNumber < semaStruct->maxSema)
 383              		.loc 1 279 0
ARM GAS  C:\Users\gjl\AppData\Local\Temp\ccShrItW.s 			page 29


 384 000a 2368     		ldr	r3, [r4]
 385 000c 8342     		cmp	r3, r0
 386 000e 2CD9     		bls	.L35
 387 0010 0D46     		mov	r5, r1
 280:Generated_Source\PSoC6\pdl\drivers\peripheral\ipc/cy_ipc_sema.c ****     {
 281:Generated_Source\PSoC6\pdl\drivers\peripheral\ipc/cy_ipc_sema.c ****         semaIndex = semaNumber / CY_IPC_SEMA_PER_WORD;
 388              		.loc 1 281 0
 389 0012 4609     		lsrs	r6, r0, #5
 390              	.LVL59:
 282:Generated_Source\PSoC6\pdl\drivers\peripheral\ipc/cy_ipc_sema.c ****         semaMask = (uint32_t)(1ul << (semaNumber - (semaIndex * CY_IPC_SEMA_PER_WORD) ));
 391              		.loc 1 282 0
 392 0014 A0EB4610 		sub	r0, r0, r6, lsl #5
 393              	.LVL60:
 394 0018 0123     		movs	r3, #1
 395 001a 03FA00F8 		lsl	r8, r3, r0
 396              	.LVL61:
 283:Generated_Source\PSoC6\pdl\drivers\peripheral\ipc/cy_ipc_sema.c **** 
 284:Generated_Source\PSoC6\pdl\drivers\peripheral\ipc/cy_ipc_sema.c ****         if (!preemptable)
 397              		.loc 1 284 0
 398 001e 19B9     		cbnz	r1, .L36
 285:Generated_Source\PSoC6\pdl\drivers\peripheral\ipc/cy_ipc_sema.c ****         {
 286:Generated_Source\PSoC6\pdl\drivers\peripheral\ipc/cy_ipc_sema.c ****             interruptState = Cy_SysLib_EnterCriticalSection();
 399              		.loc 1 286 0
 400 0020 FFF7FEFF 		bl	Cy_SysLib_EnterCriticalSection
 401              	.LVL62:
 402 0024 0746     		mov	r7, r0
 403              	.LVL63:
 404 0026 00E0     		b	.L31
 405              	.LVL64:
 406              	.L36:
 271:Generated_Source\PSoC6\pdl\drivers\peripheral\ipc/cy_ipc_sema.c **** 
 407              		.loc 1 271 0
 408 0028 0027     		movs	r7, #0
 409              	.LVL65:
 410              	.L31:
 287:Generated_Source\PSoC6\pdl\drivers\peripheral\ipc/cy_ipc_sema.c ****         }
 288:Generated_Source\PSoC6\pdl\drivers\peripheral\ipc/cy_ipc_sema.c **** 
 289:Generated_Source\PSoC6\pdl\drivers\peripheral\ipc/cy_ipc_sema.c ****         /* Check to make sure the IPC channel is released
 290:Generated_Source\PSoC6\pdl\drivers\peripheral\ipc/cy_ipc_sema.c ****            If so, check if specific channel can be locked. */
 291:Generated_Source\PSoC6\pdl\drivers\peripheral\ipc/cy_ipc_sema.c ****         if(CY_IPC_DRV_SUCCESS == Cy_IPC_Drv_LockAcquire (cy_semaIpcStruct))
 411              		.loc 1 291 0
 412 002a 124B     		ldr	r3, .L41
 413 002c 1868     		ldr	r0, [r3]
 414              	.LVL66:
 415              	.LBB32:
 416              	.LBB33:
 417              		.loc 2 923 0
 418 002e 0368     		ldr	r3, [r0]
 419 0030 002B     		cmp	r3, #0
 420 0032 01DA     		bge	.L37
 421 0034 0023     		movs	r3, #0
 422 0036 00E0     		b	.L32
 423              	.L37:
 424 0038 0F4B     		ldr	r3, .L41+4
 425              	.L32:
 426              	.LVL67:
 427              	.LBE33:
ARM GAS  C:\Users\gjl\AppData\Local\Temp\ccShrItW.s 			page 30


 428              	.LBE32:
 429              		.loc 1 291 0
 430 003a 83B9     		cbnz	r3, .L38
 292:Generated_Source\PSoC6\pdl\drivers\peripheral\ipc/cy_ipc_sema.c ****         {
 293:Generated_Source\PSoC6\pdl\drivers\peripheral\ipc/cy_ipc_sema.c ****             if((semaStruct->arrayPtr[semaIndex] & semaMask) != 0ul)
 431              		.loc 1 293 0
 432 003c 6268     		ldr	r2, [r4, #4]
 433 003e 52F82630 		ldr	r3, [r2, r6, lsl #2]
 434 0042 18EA030F 		tst	r8, r3
 435 0046 05D0     		beq	.L39
 294:Generated_Source\PSoC6\pdl\drivers\peripheral\ipc/cy_ipc_sema.c ****             {
 295:Generated_Source\PSoC6\pdl\drivers\peripheral\ipc/cy_ipc_sema.c ****                 semaStruct->arrayPtr[semaIndex] &= ~semaMask;
 436              		.loc 1 295 0
 437 0048 23EA0803 		bic	r3, r3, r8
 438 004c 42F82630 		str	r3, [r2, r6, lsl #2]
 439              	.LVL68:
 296:Generated_Source\PSoC6\pdl\drivers\peripheral\ipc/cy_ipc_sema.c ****                 retStatus = CY_IPC_SEMA_SUCCESS;
 440              		.loc 1 296 0
 441 0050 0024     		movs	r4, #0
 442              	.LVL69:
 443 0052 00E0     		b	.L34
 444              	.LVL70:
 445              	.L39:
 297:Generated_Source\PSoC6\pdl\drivers\peripheral\ipc/cy_ipc_sema.c ****             }
 298:Generated_Source\PSoC6\pdl\drivers\peripheral\ipc/cy_ipc_sema.c ****             else
 299:Generated_Source\PSoC6\pdl\drivers\peripheral\ipc/cy_ipc_sema.c ****             {
 300:Generated_Source\PSoC6\pdl\drivers\peripheral\ipc/cy_ipc_sema.c ****                 retStatus = CY_IPC_SEMA_NOT_ACQUIRED;
 446              		.loc 1 300 0
 447 0054 094C     		ldr	r4, .L41+8
 448              	.LVL71:
 449              	.L34:
 301:Generated_Source\PSoC6\pdl\drivers\peripheral\ipc/cy_ipc_sema.c ****             }
 302:Generated_Source\PSoC6\pdl\drivers\peripheral\ipc/cy_ipc_sema.c **** 
 303:Generated_Source\PSoC6\pdl\drivers\peripheral\ipc/cy_ipc_sema.c ****             /* Release, but do not trigger a release event */
 304:Generated_Source\PSoC6\pdl\drivers\peripheral\ipc/cy_ipc_sema.c ****             (void) Cy_IPC_Drv_LockRelease (cy_semaIpcStruct, CY_IPC_NO_NOTIFICATION);
 450              		.loc 1 304 0
 451 0056 0021     		movs	r1, #0
 452 0058 FFF7FEFF 		bl	Cy_IPC_Drv_LockRelease
 453              	.LVL72:
 454 005c 00E0     		b	.L33
 455              	.LVL73:
 456              	.L38:
 274:Generated_Source\PSoC6\pdl\drivers\peripheral\ipc/cy_ipc_sema.c **** 
 457              		.loc 1 274 0
 458 005e 084C     		ldr	r4, .L41+12
 459              	.LVL74:
 460              	.L33:
 305:Generated_Source\PSoC6\pdl\drivers\peripheral\ipc/cy_ipc_sema.c ****         }
 306:Generated_Source\PSoC6\pdl\drivers\peripheral\ipc/cy_ipc_sema.c **** 
 307:Generated_Source\PSoC6\pdl\drivers\peripheral\ipc/cy_ipc_sema.c ****         if (!preemptable)
 461              		.loc 1 307 0
 462 0060 25B9     		cbnz	r5, .L30
 308:Generated_Source\PSoC6\pdl\drivers\peripheral\ipc/cy_ipc_sema.c ****         {
 309:Generated_Source\PSoC6\pdl\drivers\peripheral\ipc/cy_ipc_sema.c ****             Cy_SysLib_ExitCriticalSection(interruptState);
 463              		.loc 1 309 0
 464 0062 3846     		mov	r0, r7
 465 0064 FFF7FEFF 		bl	Cy_SysLib_ExitCriticalSection
ARM GAS  C:\Users\gjl\AppData\Local\Temp\ccShrItW.s 			page 31


 466              	.LVL75:
 467 0068 00E0     		b	.L30
 468              	.LVL76:
 469              	.L35:
 310:Generated_Source\PSoC6\pdl\drivers\peripheral\ipc/cy_ipc_sema.c ****         }
 311:Generated_Source\PSoC6\pdl\drivers\peripheral\ipc/cy_ipc_sema.c ****     }
 312:Generated_Source\PSoC6\pdl\drivers\peripheral\ipc/cy_ipc_sema.c ****     else
 313:Generated_Source\PSoC6\pdl\drivers\peripheral\ipc/cy_ipc_sema.c ****     {
 314:Generated_Source\PSoC6\pdl\drivers\peripheral\ipc/cy_ipc_sema.c ****         retStatus = CY_IPC_SEMA_OUT_OF_RANGE;
 470              		.loc 1 314 0
 471 006a 064C     		ldr	r4, .L41+16
 472              	.LVL77:
 473              	.L30:
 315:Generated_Source\PSoC6\pdl\drivers\peripheral\ipc/cy_ipc_sema.c ****     }
 316:Generated_Source\PSoC6\pdl\drivers\peripheral\ipc/cy_ipc_sema.c ****     return(retStatus);
 317:Generated_Source\PSoC6\pdl\drivers\peripheral\ipc/cy_ipc_sema.c **** }
 474              		.loc 1 317 0
 475 006c 2046     		mov	r0, r4
 476 006e BDE8F081 		pop	{r4, r5, r6, r7, r8, pc}
 477              	.LVL78:
 478              	.L42:
 479 0072 00BF     		.align	2
 480              	.L41:
 481 0074 00000000 		.word	.LANCHOR0
 482 0078 01008A00 		.word	9043969
 483 007c 02018800 		.word	8913154
 484 0080 03018800 		.word	8913155
 485 0084 04018A00 		.word	9044228
 486              		.cfi_endproc
 487              	.LFE146:
 488              		.size	Cy_IPC_Sema_Clear, .-Cy_IPC_Sema_Clear
 489              		.section	.text.Cy_IPC_Sema_Status,"ax",%progbits
 490              		.align	2
 491              		.global	Cy_IPC_Sema_Status
 492              		.thumb
 493              		.thumb_func
 494              		.type	Cy_IPC_Sema_Status, %function
 495              	Cy_IPC_Sema_Status:
 496              	.LFB147:
 318:Generated_Source\PSoC6\pdl\drivers\peripheral\ipc/cy_ipc_sema.c **** 
 319:Generated_Source\PSoC6\pdl\drivers\peripheral\ipc/cy_ipc_sema.c **** /*******************************************************************************
 320:Generated_Source\PSoC6\pdl\drivers\peripheral\ipc/cy_ipc_sema.c **** * Function Name: Cy_IPC_Sema_Status
 321:Generated_Source\PSoC6\pdl\drivers\peripheral\ipc/cy_ipc_sema.c **** ****************************************************************************//**
 322:Generated_Source\PSoC6\pdl\drivers\peripheral\ipc/cy_ipc_sema.c **** *
 323:Generated_Source\PSoC6\pdl\drivers\peripheral\ipc/cy_ipc_sema.c **** * This function returns the status of the semaphore.
 324:Generated_Source\PSoC6\pdl\drivers\peripheral\ipc/cy_ipc_sema.c **** *
 325:Generated_Source\PSoC6\pdl\drivers\peripheral\ipc/cy_ipc_sema.c **** * \param semaNumber
 326:Generated_Source\PSoC6\pdl\drivers\peripheral\ipc/cy_ipc_sema.c **** *  The index of the semaphore to return status.
 327:Generated_Source\PSoC6\pdl\drivers\peripheral\ipc/cy_ipc_sema.c **** *
 328:Generated_Source\PSoC6\pdl\drivers\peripheral\ipc/cy_ipc_sema.c **** * \return Status of the operation
 329:Generated_Source\PSoC6\pdl\drivers\peripheral\ipc/cy_ipc_sema.c **** *     \retval CY_IPC_SEMA_STATUS_LOCKED:    The semaphore is in the set state.
 330:Generated_Source\PSoC6\pdl\drivers\peripheral\ipc/cy_ipc_sema.c **** *     \retval CY_IPC_SEMA_STATUS_UNLOCKED:  The semaphore is in the cleared state.
 331:Generated_Source\PSoC6\pdl\drivers\peripheral\ipc/cy_ipc_sema.c **** *     \retval CY_IPC_SEMA_OUT_OF_RANGE:     The semaphore number is not valid
 332:Generated_Source\PSoC6\pdl\drivers\peripheral\ipc/cy_ipc_sema.c **** *
 333:Generated_Source\PSoC6\pdl\drivers\peripheral\ipc/cy_ipc_sema.c **** * \funcusage
 334:Generated_Source\PSoC6\pdl\drivers\peripheral\ipc/cy_ipc_sema.c **** * \snippet IPC_sut_01.cydsn/main_cm4.c snippet_Cy_IPC_Sema_Status
 335:Generated_Source\PSoC6\pdl\drivers\peripheral\ipc/cy_ipc_sema.c **** *
ARM GAS  C:\Users\gjl\AppData\Local\Temp\ccShrItW.s 			page 32


 336:Generated_Source\PSoC6\pdl\drivers\peripheral\ipc/cy_ipc_sema.c **** *******************************************************************************/
 337:Generated_Source\PSoC6\pdl\drivers\peripheral\ipc/cy_ipc_sema.c **** cy_en_ipcsema_status_t Cy_IPC_Sema_Status(uint32_t semaNumber)
 338:Generated_Source\PSoC6\pdl\drivers\peripheral\ipc/cy_ipc_sema.c **** {
 497              		.loc 1 338 0
 498              		.cfi_startproc
 499              		@ args = 0, pretend = 0, frame = 0
 500              		@ frame_needed = 0, uses_anonymous_args = 0
 501              		@ link register save eliminated.
 502              	.LVL79:
 339:Generated_Source\PSoC6\pdl\drivers\peripheral\ipc/cy_ipc_sema.c ****     cy_en_ipcsema_status_t   retStatus;
 340:Generated_Source\PSoC6\pdl\drivers\peripheral\ipc/cy_ipc_sema.c ****     uint32_t semaIndex;
 341:Generated_Source\PSoC6\pdl\drivers\peripheral\ipc/cy_ipc_sema.c ****     uint32_t semaMask;
 342:Generated_Source\PSoC6\pdl\drivers\peripheral\ipc/cy_ipc_sema.c ****     cy_stc_ipc_sema_t      *semaStruct;
 343:Generated_Source\PSoC6\pdl\drivers\peripheral\ipc/cy_ipc_sema.c **** 
 344:Generated_Source\PSoC6\pdl\drivers\peripheral\ipc/cy_ipc_sema.c ****     /* Get pointer to structure */
 345:Generated_Source\PSoC6\pdl\drivers\peripheral\ipc/cy_ipc_sema.c ****     semaStruct = (cy_stc_ipc_sema_t *)Cy_IPC_Drv_ReadDataValue(cy_semaIpcStruct);
 503              		.loc 1 345 0
 504 0000 0B4B     		ldr	r3, .L47
 505 0002 1B68     		ldr	r3, [r3]
 506              	.LVL80:
 507              	.LBB34:
 508              	.LBB35:
 728:Generated_Source\PSoC6\pdl\drivers\peripheral\ipc/cy_ipc_drv.h **** }
 509              		.loc 2 728 0
 510 0004 DB68     		ldr	r3, [r3, #12]
 511              	.LVL81:
 512              	.LBE35:
 513              	.LBE34:
 346:Generated_Source\PSoC6\pdl\drivers\peripheral\ipc/cy_ipc_sema.c **** 
 347:Generated_Source\PSoC6\pdl\drivers\peripheral\ipc/cy_ipc_sema.c ****     if (semaNumber < semaStruct->maxSema)
 514              		.loc 1 347 0
 515 0006 1A68     		ldr	r2, [r3]
 516 0008 8242     		cmp	r2, r0
 517 000a 0CD9     		bls	.L45
 348:Generated_Source\PSoC6\pdl\drivers\peripheral\ipc/cy_ipc_sema.c ****     {
 349:Generated_Source\PSoC6\pdl\drivers\peripheral\ipc/cy_ipc_sema.c ****         /* Get the index into the semaphore array and calculate the mask */
 350:Generated_Source\PSoC6\pdl\drivers\peripheral\ipc/cy_ipc_sema.c ****         semaIndex = semaNumber / CY_IPC_SEMA_PER_WORD;
 518              		.loc 1 350 0
 519 000c 4109     		lsrs	r1, r0, #5
 520              	.LVL82:
 351:Generated_Source\PSoC6\pdl\drivers\peripheral\ipc/cy_ipc_sema.c ****         semaMask = (uint32_t)(1ul << (semaNumber - (semaIndex * CY_IPC_SEMA_PER_WORD) ));
 521              		.loc 1 351 0
 522 000e A0EB4110 		sub	r0, r0, r1, lsl #5
 523              	.LVL83:
 524 0012 0122     		movs	r2, #1
 525 0014 02FA00F0 		lsl	r0, r2, r0
 526              	.LVL84:
 352:Generated_Source\PSoC6\pdl\drivers\peripheral\ipc/cy_ipc_sema.c **** 
 353:Generated_Source\PSoC6\pdl\drivers\peripheral\ipc/cy_ipc_sema.c ****         if((semaStruct->arrayPtr[semaIndex] & semaMask) != 0ul)
 527              		.loc 1 353 0
 528 0018 5B68     		ldr	r3, [r3, #4]
 529              	.LVL85:
 530 001a 53F82130 		ldr	r3, [r3, r1, lsl #2]
 531 001e 1842     		tst	r0, r3
 532 0020 03D0     		beq	.L46
 354:Generated_Source\PSoC6\pdl\drivers\peripheral\ipc/cy_ipc_sema.c ****         {
 355:Generated_Source\PSoC6\pdl\drivers\peripheral\ipc/cy_ipc_sema.c ****             retStatus =  CY_IPC_SEMA_STATUS_LOCKED;
ARM GAS  C:\Users\gjl\AppData\Local\Temp\ccShrItW.s 			page 33


 533              		.loc 1 355 0
 534 0022 0448     		ldr	r0, .L47+4
 535              	.LVL86:
 536 0024 7047     		bx	lr
 537              	.LVL87:
 538              	.L45:
 356:Generated_Source\PSoC6\pdl\drivers\peripheral\ipc/cy_ipc_sema.c ****         }
 357:Generated_Source\PSoC6\pdl\drivers\peripheral\ipc/cy_ipc_sema.c ****         else
 358:Generated_Source\PSoC6\pdl\drivers\peripheral\ipc/cy_ipc_sema.c ****         {
 359:Generated_Source\PSoC6\pdl\drivers\peripheral\ipc/cy_ipc_sema.c ****             retStatus =  CY_IPC_SEMA_STATUS_UNLOCKED;
 360:Generated_Source\PSoC6\pdl\drivers\peripheral\ipc/cy_ipc_sema.c ****         }
 361:Generated_Source\PSoC6\pdl\drivers\peripheral\ipc/cy_ipc_sema.c ****     }
 362:Generated_Source\PSoC6\pdl\drivers\peripheral\ipc/cy_ipc_sema.c ****     else
 363:Generated_Source\PSoC6\pdl\drivers\peripheral\ipc/cy_ipc_sema.c ****     {
 364:Generated_Source\PSoC6\pdl\drivers\peripheral\ipc/cy_ipc_sema.c ****         retStatus = CY_IPC_SEMA_OUT_OF_RANGE;
 539              		.loc 1 364 0
 540 0026 0448     		ldr	r0, .L47+8
 541              	.LVL88:
 542 0028 7047     		bx	lr
 543              	.LVL89:
 544              	.L46:
 359:Generated_Source\PSoC6\pdl\drivers\peripheral\ipc/cy_ipc_sema.c ****         }
 545              		.loc 1 359 0
 546 002a 0448     		ldr	r0, .L47+12
 547              	.LVL90:
 365:Generated_Source\PSoC6\pdl\drivers\peripheral\ipc/cy_ipc_sema.c ****     }
 366:Generated_Source\PSoC6\pdl\drivers\peripheral\ipc/cy_ipc_sema.c ****     return(retStatus);
 367:Generated_Source\PSoC6\pdl\drivers\peripheral\ipc/cy_ipc_sema.c **** }
 548              		.loc 1 367 0
 549 002c 7047     		bx	lr
 550              	.L48:
 551 002e 00BF     		.align	2
 552              	.L47:
 553 0030 00000000 		.word	.LANCHOR0
 554 0034 01018800 		.word	8913153
 555 0038 04018A00 		.word	9044228
 556 003c 00018800 		.word	8913152
 557              		.cfi_endproc
 558              	.LFE147:
 559              		.size	Cy_IPC_Sema_Status, .-Cy_IPC_Sema_Status
 560              		.section	.text.Cy_IPC_Sema_GetMaxSems,"ax",%progbits
 561              		.align	2
 562              		.global	Cy_IPC_Sema_GetMaxSems
 563              		.thumb
 564              		.thumb_func
 565              		.type	Cy_IPC_Sema_GetMaxSems, %function
 566              	Cy_IPC_Sema_GetMaxSems:
 567              	.LFB148:
 368:Generated_Source\PSoC6\pdl\drivers\peripheral\ipc/cy_ipc_sema.c **** 
 369:Generated_Source\PSoC6\pdl\drivers\peripheral\ipc/cy_ipc_sema.c **** 
 370:Generated_Source\PSoC6\pdl\drivers\peripheral\ipc/cy_ipc_sema.c **** /*******************************************************************************
 371:Generated_Source\PSoC6\pdl\drivers\peripheral\ipc/cy_ipc_sema.c **** * Function Name: Cy_IPC_Sema_GetMaxSems
 372:Generated_Source\PSoC6\pdl\drivers\peripheral\ipc/cy_ipc_sema.c **** ****************************************************************************//**
 373:Generated_Source\PSoC6\pdl\drivers\peripheral\ipc/cy_ipc_sema.c **** *
 374:Generated_Source\PSoC6\pdl\drivers\peripheral\ipc/cy_ipc_sema.c **** * This function returns the number of semaphores in the semaphores subsystem.
 375:Generated_Source\PSoC6\pdl\drivers\peripheral\ipc/cy_ipc_sema.c **** *
 376:Generated_Source\PSoC6\pdl\drivers\peripheral\ipc/cy_ipc_sema.c **** * \return
ARM GAS  C:\Users\gjl\AppData\Local\Temp\ccShrItW.s 			page 34


 377:Generated_Source\PSoC6\pdl\drivers\peripheral\ipc/cy_ipc_sema.c **** *     Returns the semaphores quantity.
 378:Generated_Source\PSoC6\pdl\drivers\peripheral\ipc/cy_ipc_sema.c **** *
 379:Generated_Source\PSoC6\pdl\drivers\peripheral\ipc/cy_ipc_sema.c **** * \funcusage
 380:Generated_Source\PSoC6\pdl\drivers\peripheral\ipc/cy_ipc_sema.c **** * \snippet IPC_sut_01.cydsn/main_cm4.c snippet_Cy_IPC_Sema_GetMaxSems
 381:Generated_Source\PSoC6\pdl\drivers\peripheral\ipc/cy_ipc_sema.c **** *
 382:Generated_Source\PSoC6\pdl\drivers\peripheral\ipc/cy_ipc_sema.c **** *******************************************************************************/
 383:Generated_Source\PSoC6\pdl\drivers\peripheral\ipc/cy_ipc_sema.c **** uint32_t Cy_IPC_Sema_GetMaxSems(void)
 384:Generated_Source\PSoC6\pdl\drivers\peripheral\ipc/cy_ipc_sema.c **** {
 568              		.loc 1 384 0
 569              		.cfi_startproc
 570              		@ args = 0, pretend = 0, frame = 0
 571              		@ frame_needed = 0, uses_anonymous_args = 0
 572              		@ link register save eliminated.
 385:Generated_Source\PSoC6\pdl\drivers\peripheral\ipc/cy_ipc_sema.c ****     cy_stc_ipc_sema_t      *semaStruct;
 386:Generated_Source\PSoC6\pdl\drivers\peripheral\ipc/cy_ipc_sema.c **** 
 387:Generated_Source\PSoC6\pdl\drivers\peripheral\ipc/cy_ipc_sema.c ****     /* Get pointer to structure */
 388:Generated_Source\PSoC6\pdl\drivers\peripheral\ipc/cy_ipc_sema.c ****     semaStruct = (cy_stc_ipc_sema_t *)Cy_IPC_Drv_ReadDataValue(cy_semaIpcStruct);
 573              		.loc 1 388 0
 574 0000 024B     		ldr	r3, .L50
 575 0002 1B68     		ldr	r3, [r3]
 576              	.LVL91:
 577              	.LBB36:
 578              	.LBB37:
 728:Generated_Source\PSoC6\pdl\drivers\peripheral\ipc/cy_ipc_drv.h **** }
 579              		.loc 2 728 0
 580 0004 DB68     		ldr	r3, [r3, #12]
 581              	.LVL92:
 582              	.LBE37:
 583              	.LBE36:
 389:Generated_Source\PSoC6\pdl\drivers\peripheral\ipc/cy_ipc_sema.c **** 
 390:Generated_Source\PSoC6\pdl\drivers\peripheral\ipc/cy_ipc_sema.c ****     return (semaStruct->maxSema);
 391:Generated_Source\PSoC6\pdl\drivers\peripheral\ipc/cy_ipc_sema.c **** }
 584              		.loc 1 391 0
 585 0006 1868     		ldr	r0, [r3]
 586 0008 7047     		bx	lr
 587              	.L51:
 588 000a 00BF     		.align	2
 589              	.L50:
 590 000c 00000000 		.word	.LANCHOR0
 591              		.cfi_endproc
 592              	.LFE148:
 593              		.size	Cy_IPC_Sema_GetMaxSems, .-Cy_IPC_Sema_GetMaxSems
 594              		.section	.rodata.str1.4,"aMS",%progbits,1
 595              		.align	2
 596              	.LC0:
 597 0000 47656E65 		.ascii	"Generated_Source\\PSoC6\\pdl\\drivers/peripheral/ip"
 597      72617465 
 597      645F536F 
 597      75726365 
 597      5C50536F 
 598 0030 632F6379 		.ascii	"c/cy_ipc_drv.h\000"
 598      5F697063 
 598      5F647276 
 598      2E6800
 599              		.bss
 600              		.align	2
 601              		.set	.LANCHOR0,. + 0
ARM GAS  C:\Users\gjl\AppData\Local\Temp\ccShrItW.s 			page 35


 602              		.type	cy_semaIpcStruct, %object
 603              		.size	cy_semaIpcStruct, 4
 604              	cy_semaIpcStruct:
 605 0000 00000000 		.space	4
 606              		.type	cy_semaData.10207, %object
 607              		.size	cy_semaData.10207, 8
 608              	cy_semaData.10207:
 609 0004 00000000 		.space	8
 609      00000000 
 610              		.text
 611              	.Letext0:
 612              		.file 3 "c:\\program files (x86)\\cypress\\psoc creator\\4.2\\psoc creator\\import\\gnu\\arm\\5.4.
 613              		.file 4 "c:\\program files (x86)\\cypress\\psoc creator\\4.2\\psoc creator\\import\\gnu\\arm\\5.4.
 614              		.file 5 "Generated_Source\\PSoC6\\pdl\\devices/psoc6/ip/cyip_ipc.h"
 615              		.file 6 "Generated_Source\\PSoC6\\pdl\\drivers/peripheral/syslib/cy_syslib.h"
 616              		.file 7 "Generated_Source\\PSoC6\\pdl\\drivers/peripheral/ipc/cy_ipc_sema.h"
 617              		.file 8 "Generated_Source\\PSoC6\\pdl\\cmsis/include/core_cm4.h"