ARM GAS  C:\Users\gjl\AppData\Local\Temp\ccNVysBX.s 			page 1


   1              		.syntax unified
   2              		.cpu cortex-m4
   3              		.eabi_attribute 27, 1
   4              		.fpu fpv4-sp-d16
   5              		.eabi_attribute 20, 1
   6              		.eabi_attribute 21, 1
   7              		.eabi_attribute 23, 3
   8              		.eabi_attribute 24, 1
   9              		.eabi_attribute 25, 1
  10              		.eabi_attribute 26, 1
  11              		.eabi_attribute 30, 1
  12              		.eabi_attribute 34, 1
  13              		.eabi_attribute 18, 4
  14              		.thumb
  15              		.syntax unified
  16              		.file	"cy_sysclk.c"
  17              		.text
  18              	.Ltext0:
  19              		.cfi_sections	.debug_frame
  20              		.global	__aeabi_f2d
  21              		.global	__aeabi_d2f
  22              		.section	.text.Cy_SysClk_EcoConfigure,"ax",%progbits
  23              		.align	2
  24              		.global	Cy_SysClk_EcoConfigure
  25              		.thumb
  26              		.thumb_func
  27              		.type	Cy_SysClk_EcoConfigure, %function
  28              	Cy_SysClk_EcoConfigure:
  29              	.LFB215:
  30              		.file 1 "Generated_Source\\PSoC6\\pdl\\drivers\\peripheral\\sysclk\\cy_sysclk.c"
   1:Generated_Source\PSoC6\pdl\drivers\peripheral\sysclk/cy_sysclk.c **** /***************************************************************************//**
   2:Generated_Source\PSoC6\pdl\drivers\peripheral\sysclk/cy_sysclk.c **** * \file cy_sysclk.c
   3:Generated_Source\PSoC6\pdl\drivers\peripheral\sysclk/cy_sysclk.c **** * \version 1.10.1
   4:Generated_Source\PSoC6\pdl\drivers\peripheral\sysclk/cy_sysclk.c **** *
   5:Generated_Source\PSoC6\pdl\drivers\peripheral\sysclk/cy_sysclk.c **** * Provides an API implementation of the sysclk driver.
   6:Generated_Source\PSoC6\pdl\drivers\peripheral\sysclk/cy_sysclk.c **** *
   7:Generated_Source\PSoC6\pdl\drivers\peripheral\sysclk/cy_sysclk.c **** ********************************************************************************
   8:Generated_Source\PSoC6\pdl\drivers\peripheral\sysclk/cy_sysclk.c **** * \copyright
   9:Generated_Source\PSoC6\pdl\drivers\peripheral\sysclk/cy_sysclk.c **** * Copyright 2016-2018, Cypress Semiconductor Corporation. All rights reserved.
  10:Generated_Source\PSoC6\pdl\drivers\peripheral\sysclk/cy_sysclk.c **** * You may use this file only in accordance with the license, terms, conditions,
  11:Generated_Source\PSoC6\pdl\drivers\peripheral\sysclk/cy_sysclk.c **** * disclaimers, and limitations in the end user license agreement accompanying
  12:Generated_Source\PSoC6\pdl\drivers\peripheral\sysclk/cy_sysclk.c **** * the software package with which this file was provided.
  13:Generated_Source\PSoC6\pdl\drivers\peripheral\sysclk/cy_sysclk.c **** *******************************************************************************/
  14:Generated_Source\PSoC6\pdl\drivers\peripheral\sysclk/cy_sysclk.c **** 
  15:Generated_Source\PSoC6\pdl\drivers\peripheral\sysclk/cy_sysclk.c **** 
  16:Generated_Source\PSoC6\pdl\drivers\peripheral\sysclk/cy_sysclk.c **** #include "cy_sysclk.h"
  17:Generated_Source\PSoC6\pdl\drivers\peripheral\sysclk/cy_sysclk.c **** #include "syslib/cy_syslib.h"
  18:Generated_Source\PSoC6\pdl\drivers\peripheral\sysclk/cy_sysclk.c **** #include <math.h>
  19:Generated_Source\PSoC6\pdl\drivers\peripheral\sysclk/cy_sysclk.c **** #include <stdlib.h>
  20:Generated_Source\PSoC6\pdl\drivers\peripheral\sysclk/cy_sysclk.c **** 
  21:Generated_Source\PSoC6\pdl\drivers\peripheral\sysclk/cy_sysclk.c **** #if defined(__cplusplus)
  22:Generated_Source\PSoC6\pdl\drivers\peripheral\sysclk/cy_sysclk.c **** extern "C" {
  23:Generated_Source\PSoC6\pdl\drivers\peripheral\sysclk/cy_sysclk.c **** #endif /* __cplusplus */
  24:Generated_Source\PSoC6\pdl\drivers\peripheral\sysclk/cy_sysclk.c **** 
  25:Generated_Source\PSoC6\pdl\drivers\peripheral\sysclk/cy_sysclk.c **** /* # of elements in an array */
  26:Generated_Source\PSoC6\pdl\drivers\peripheral\sysclk/cy_sysclk.c **** #define  CY_SYSCLK_N_ELMTS(a)  (sizeof(a) / sizeof((a)[0]))
  27:Generated_Source\PSoC6\pdl\drivers\peripheral\sysclk/cy_sysclk.c **** 
ARM GAS  C:\Users\gjl\AppData\Local\Temp\ccNVysBX.s 			page 2


  28:Generated_Source\PSoC6\pdl\drivers\peripheral\sysclk/cy_sysclk.c **** /* ========================================================================== */
  29:Generated_Source\PSoC6\pdl\drivers\peripheral\sysclk/cy_sysclk.c **** /* ===========================    ECO SECTION    ============================ */
  30:Generated_Source\PSoC6\pdl\drivers\peripheral\sysclk/cy_sysclk.c **** /* ========================================================================== */
  31:Generated_Source\PSoC6\pdl\drivers\peripheral\sysclk/cy_sysclk.c **** /**
  32:Generated_Source\PSoC6\pdl\drivers\peripheral\sysclk/cy_sysclk.c **** * \addtogroup group_sysclk_eco_funcs
  33:Generated_Source\PSoC6\pdl\drivers\peripheral\sysclk/cy_sysclk.c **** * \{
  34:Generated_Source\PSoC6\pdl\drivers\peripheral\sysclk/cy_sysclk.c **** */
  35:Generated_Source\PSoC6\pdl\drivers\peripheral\sysclk/cy_sysclk.c **** /*******************************************************************************
  36:Generated_Source\PSoC6\pdl\drivers\peripheral\sysclk/cy_sysclk.c **** * Function Name: Cy_SysClk_EcoConfigure
  37:Generated_Source\PSoC6\pdl\drivers\peripheral\sysclk/cy_sysclk.c **** ****************************************************************************//**
  38:Generated_Source\PSoC6\pdl\drivers\peripheral\sysclk/cy_sysclk.c **** *
  39:Generated_Source\PSoC6\pdl\drivers\peripheral\sysclk/cy_sysclk.c **** * Configures the external crystal oscillator (ECO) trim bits based on crystal 
  40:Generated_Source\PSoC6\pdl\drivers\peripheral\sysclk/cy_sysclk.c **** * characteristics. This function should be called only when the ECO is disabled.
  41:Generated_Source\PSoC6\pdl\drivers\peripheral\sysclk/cy_sysclk.c **** *
  42:Generated_Source\PSoC6\pdl\drivers\peripheral\sysclk/cy_sysclk.c **** * \param freq Operating frequency of the crystal in Hz.
  43:Generated_Source\PSoC6\pdl\drivers\peripheral\sysclk/cy_sysclk.c **** *
  44:Generated_Source\PSoC6\pdl\drivers\peripheral\sysclk/cy_sysclk.c **** * \param cLoad Crystal load capacitance in pF.
  45:Generated_Source\PSoC6\pdl\drivers\peripheral\sysclk/cy_sysclk.c **** *
  46:Generated_Source\PSoC6\pdl\drivers\peripheral\sysclk/cy_sysclk.c **** * \param esr Effective series resistance of the crystal in ohms.
  47:Generated_Source\PSoC6\pdl\drivers\peripheral\sysclk/cy_sysclk.c **** *
  48:Generated_Source\PSoC6\pdl\drivers\peripheral\sysclk/cy_sysclk.c **** * \param driveLevel Crystal drive level in uW.
  49:Generated_Source\PSoC6\pdl\drivers\peripheral\sysclk/cy_sysclk.c **** *
  50:Generated_Source\PSoC6\pdl\drivers\peripheral\sysclk/cy_sysclk.c **** * \return Error / status code:<br>
  51:Generated_Source\PSoC6\pdl\drivers\peripheral\sysclk/cy_sysclk.c **** * CY_SYSCLK_SUCCESS - ECO configuration completed successfully<br>
  52:Generated_Source\PSoC6\pdl\drivers\peripheral\sysclk/cy_sysclk.c **** * CY_SYSCLK_BAD_PARAM - One or more invalid parameters<br>
  53:Generated_Source\PSoC6\pdl\drivers\peripheral\sysclk/cy_sysclk.c **** * CY_SYSCLK_INVALID_STATE - ECO already enabled
  54:Generated_Source\PSoC6\pdl\drivers\peripheral\sysclk/cy_sysclk.c **** *
  55:Generated_Source\PSoC6\pdl\drivers\peripheral\sysclk/cy_sysclk.c **** * \note
  56:Generated_Source\PSoC6\pdl\drivers\peripheral\sysclk/cy_sysclk.c **** * The following calculations are implemented, generally in floating point:
  57:Generated_Source\PSoC6\pdl\drivers\peripheral\sysclk/cy_sysclk.c **** *
  58:Generated_Source\PSoC6\pdl\drivers\peripheral\sysclk/cy_sysclk.c **** * \verbatim
  59:Generated_Source\PSoC6\pdl\drivers\peripheral\sysclk/cy_sysclk.c **** *   freqMHz = freq / 1000000
  60:Generated_Source\PSoC6\pdl\drivers\peripheral\sysclk/cy_sysclk.c **** *   max amplitude Vpp = 1000 * sqrt(drivelevel / 2 / esr) / 3.14 / freqMHz / cLoad
  61:Generated_Source\PSoC6\pdl\drivers\peripheral\sysclk/cy_sysclk.c **** *   gm_min mA/V = 5 * 4 * 3.14 * 3.14 * freqMhz^2 * cLoad^2 * 4 * esr / 1000000000
  62:Generated_Source\PSoC6\pdl\drivers\peripheral\sysclk/cy_sysclk.c **** *   Number of amplifier sections = INT(gm_min / 4.5)
  63:Generated_Source\PSoC6\pdl\drivers\peripheral\sysclk/cy_sysclk.c **** *
  64:Generated_Source\PSoC6\pdl\drivers\peripheral\sysclk/cy_sysclk.c **** *   As a result of the above calculations, max amplitude must be >= 0.5, and the
  65:Generated_Source\PSoC6\pdl\drivers\peripheral\sysclk/cy_sysclk.c **** *   number of amplifier sections must be <= 3, otherwise this function returns with
  66:Generated_Source\PSoC6\pdl\drivers\peripheral\sysclk/cy_sysclk.c **** *   a parameter error.
  67:Generated_Source\PSoC6\pdl\drivers\peripheral\sysclk/cy_sysclk.c **** *
  68:Generated_Source\PSoC6\pdl\drivers\peripheral\sysclk/cy_sysclk.c **** *   atrim = if (max amplitude < 0.5) then error
  69:Generated_Source\PSoC6\pdl\drivers\peripheral\sysclk/cy_sysclk.c **** *           else 2 * the following:
  70:Generated_Source\PSoC6\pdl\drivers\peripheral\sysclk/cy_sysclk.c **** *                    max amplitude < 0.6: 0
  71:Generated_Source\PSoC6\pdl\drivers\peripheral\sysclk/cy_sysclk.c **** *                    max amplitude < 0.7: 1
  72:Generated_Source\PSoC6\pdl\drivers\peripheral\sysclk/cy_sysclk.c **** *                    max amplitude < 0.8: 2
  73:Generated_Source\PSoC6\pdl\drivers\peripheral\sysclk/cy_sysclk.c **** *                    max amplitude < 0.9: 3
  74:Generated_Source\PSoC6\pdl\drivers\peripheral\sysclk/cy_sysclk.c **** *                    max amplitude < 1.15: 5
  75:Generated_Source\PSoC6\pdl\drivers\peripheral\sysclk/cy_sysclk.c **** *                    max amplitude < 1.275: 6
  76:Generated_Source\PSoC6\pdl\drivers\peripheral\sysclk/cy_sysclk.c **** *                    max amplitude >= 1.275: 7
  77:Generated_Source\PSoC6\pdl\drivers\peripheral\sysclk/cy_sysclk.c **** *   wdtrim = if (max amplitude < 0.5) then error
  78:Generated_Source\PSoC6\pdl\drivers\peripheral\sysclk/cy_sysclk.c **** *            else 2 * the following:
  79:Generated_Source\PSoC6\pdl\drivers\peripheral\sysclk/cy_sysclk.c **** *                     max amplitude < 1.2: INT(5 * max amplitude) - 2
  80:Generated_Source\PSoC6\pdl\drivers\peripheral\sysclk/cy_sysclk.c **** *                     max amplitude >= 1.2: 3
  81:Generated_Source\PSoC6\pdl\drivers\peripheral\sysclk/cy_sysclk.c **** *   gtrim = if (number of amplifier sections > 3) then error
  82:Generated_Source\PSoC6\pdl\drivers\peripheral\sysclk/cy_sysclk.c **** *           else the following:
  83:Generated_Source\PSoC6\pdl\drivers\peripheral\sysclk/cy_sysclk.c **** *                number of amplifier sections > 1: number of amplifier sections
  84:Generated_Source\PSoC6\pdl\drivers\peripheral\sysclk/cy_sysclk.c **** *                number of amplifier sections = 1: 0
ARM GAS  C:\Users\gjl\AppData\Local\Temp\ccNVysBX.s 			page 3


  85:Generated_Source\PSoC6\pdl\drivers\peripheral\sysclk/cy_sysclk.c **** *                number of amplifier sections < 1: 1
  86:Generated_Source\PSoC6\pdl\drivers\peripheral\sysclk/cy_sysclk.c **** *   rtrim = if (gtrim = error) then error
  87:Generated_Source\PSoC6\pdl\drivers\peripheral\sysclk/cy_sysclk.c **** *           else the following:
  88:Generated_Source\PSoC6\pdl\drivers\peripheral\sysclk/cy_sysclk.c **** *                freqMHz > 26.8: 0
  89:Generated_Source\PSoC6\pdl\drivers\peripheral\sysclk/cy_sysclk.c **** *                freqMHz > 23.33: 1
  90:Generated_Source\PSoC6\pdl\drivers\peripheral\sysclk/cy_sysclk.c **** *                freqMHz > 16.5: 2
  91:Generated_Source\PSoC6\pdl\drivers\peripheral\sysclk/cy_sysclk.c **** *                freqMHz <= 16.5: 3
  92:Generated_Source\PSoC6\pdl\drivers\peripheral\sysclk/cy_sysclk.c **** *   ftrim = if (atrim = error) then error
  93:Generated_Source\PSoC6\pdl\drivers\peripheral\sysclk/cy_sysclk.c **** *           else INT(atrim / 2)
  94:Generated_Source\PSoC6\pdl\drivers\peripheral\sysclk/cy_sysclk.c **** * \endverbatim
  95:Generated_Source\PSoC6\pdl\drivers\peripheral\sysclk/cy_sysclk.c **** *
  96:Generated_Source\PSoC6\pdl\drivers\peripheral\sysclk/cy_sysclk.c **** * \funcusage
  97:Generated_Source\PSoC6\pdl\drivers\peripheral\sysclk/cy_sysclk.c **** * \snippet sysclk/sysclk_v1_10_sut_01.cydsn/main_cm4.c snippet_Cy_SysClk_EcoConfigure
  98:Generated_Source\PSoC6\pdl\drivers\peripheral\sysclk/cy_sysclk.c **** *
  99:Generated_Source\PSoC6\pdl\drivers\peripheral\sysclk/cy_sysclk.c **** *******************************************************************************/
 100:Generated_Source\PSoC6\pdl\drivers\peripheral\sysclk/cy_sysclk.c **** cy_en_sysclk_status_t Cy_SysClk_EcoConfigure(uint32_t freq, uint32_t cLoad, uint32_t esr, uint32_t 
 101:Generated_Source\PSoC6\pdl\drivers\peripheral\sysclk/cy_sysclk.c **** {
  31              		.loc 1 101 0
  32              		.cfi_startproc
  33              		@ args = 0, pretend = 0, frame = 0
  34              		@ frame_needed = 0, uses_anonymous_args = 0
  35              	.LVL0:
  36 0000 70B5     		push	{r4, r5, r6, lr}
  37              		.cfi_def_cfa_offset 16
  38              		.cfi_offset 4, -16
  39              		.cfi_offset 5, -12
  40              		.cfi_offset 6, -8
  41              		.cfi_offset 14, -4
  42 0002 2DED048B 		vpush.64	{d8, d9}
  43              		.cfi_def_cfa_offset 32
  44              		.cfi_offset 80, -32
  45              		.cfi_offset 81, -28
  46              		.cfi_offset 82, -24
  47              		.cfi_offset 83, -20
  48              	.LVL1:
 102:Generated_Source\PSoC6\pdl\drivers\peripheral\sysclk/cy_sysclk.c ****     /* error if ECO is not disabled - any of the 3 enable bits are set */
 103:Generated_Source\PSoC6\pdl\drivers\peripheral\sysclk/cy_sysclk.c ****     cy_en_sysclk_status_t rtnval = CY_SYSCLK_INVALID_STATE;
 104:Generated_Source\PSoC6\pdl\drivers\peripheral\sysclk/cy_sysclk.c ****     if ((SRSS->CLK_ECO_CONFIG & 0xE0000000ul) == 0ul)
  49              		.loc 1 104 0
  50 0006 764C     		ldr	r4, .L33
  51 0008 D4F82C45 		ldr	r4, [r4, #1324]
  52 000c 14F0604F 		tst	r4, #-536870912
  53 0010 40F0DD80 		bne	.L11
  54 0014 07EE103A 		vmov	s14, r3	@ int
  55 0018 07EE902A 		vmov	s15, r2	@ int
  56 001c 08EE101A 		vmov	s16, r1	@ int
  57 0020 06EE900A 		vmov	s13, r0	@ int
  58              	.LBB29:
 105:Generated_Source\PSoC6\pdl\drivers\peripheral\sysclk/cy_sysclk.c ****     {
 106:Generated_Source\PSoC6\pdl\drivers\peripheral\sysclk/cy_sysclk.c ****         /* calculate intemediate values */
 107:Generated_Source\PSoC6\pdl\drivers\peripheral\sysclk/cy_sysclk.c ****         float32_t freqMHz = (float32_t)freq / 1000000.0f;
  59              		.loc 1 107 0
  60 0024 F8EE666A 		vcvt.f32.u32	s13, s13
  61 0028 9FED6E6A 		vldr.32	s12, .L33+4
  62 002c C6EE868A 		vdiv.f32	s17, s13, s12
  63              	.LVL2:
 108:Generated_Source\PSoC6\pdl\drivers\peripheral\sysclk/cy_sysclk.c ****         float32_t maxAmplitude =
ARM GAS  C:\Users\gjl\AppData\Local\Temp\ccNVysBX.s 			page 4


 109:Generated_Source\PSoC6\pdl\drivers\peripheral\sysclk/cy_sysclk.c ****             (1000.0f * ((float32_t)sqrt((float64_t)((float32_t)driveLevel / (2.0f * (float32_t)esr)
  64              		.loc 1 109 0
  65 0030 B8EE477A 		vcvt.f32.u32	s14, s14
  66 0034 F8EE677A 		vcvt.f32.u32	s15, s15
  67 0038 77EEA77A 		vadd.f32	s15, s15, s15
  68 003c 87EE279A 		vdiv.f32	s18, s14, s15
  69 0040 19EE100A 		vmov	r0, s18
  70              	.LVL3:
  71 0044 FFF7FEFF 		bl	__aeabi_f2d
  72              	.LVL4:
  73 0048 FFF7FEFF 		bl	sqrt
  74              	.LVL5:
  75 004c FFF7FEFF 		bl	__aeabi_d2f
  76              	.LVL6:
  77 0050 DFED656A 		vldr.32	s13, .L33+8
  78 0054 07EE900A 		vmov	s15, r0
  79 0058 67EEA66A 		vmul.f32	s13, s15, s13
 110:Generated_Source\PSoC6\pdl\drivers\peripheral\sysclk/cy_sysclk.c ****             (3.14f * freqMHz * (float32_t)cLoad);
  80              		.loc 1 110 0
  81 005c 9FED637A 		vldr.32	s14, .L33+12
  82 0060 28EE877A 		vmul.f32	s14, s17, s14
  83 0064 F8EE487A 		vcvt.f32.u32	s15, s16
  84 0068 27EE277A 		vmul.f32	s14, s14, s15
 108:Generated_Source\PSoC6\pdl\drivers\peripheral\sysclk/cy_sysclk.c ****         float32_t maxAmplitude =
  85              		.loc 1 108 0
  86 006c 86EE876A 		vdiv.f32	s12, s13, s14
  87              	.LVL7:
 111:Generated_Source\PSoC6\pdl\drivers\peripheral\sysclk/cy_sysclk.c ****         float32_t gm_min =
 112:Generated_Source\PSoC6\pdl\drivers\peripheral\sysclk/cy_sysclk.c ****             (788.8f /*5 * 4 * 3.14 * 3.14 * 4*/ * freqMHz * freqMHz * (float32_t)cLoad * (float32_t
  88              		.loc 1 112 0
  89 0070 9FED5F7A 		vldr.32	s14, .L33+16
  90 0074 28EE877A 		vmul.f32	s14, s17, s14
  91 0078 28EE877A 		vmul.f32	s14, s17, s14
  92 007c 27EE877A 		vmul.f32	s14, s15, s14
  93 0080 67EE877A 		vmul.f32	s15, s15, s14
 111:Generated_Source\PSoC6\pdl\drivers\peripheral\sysclk/cy_sysclk.c ****         float32_t gm_min =
  94              		.loc 1 111 0
  95 0084 9FED5B7A 		vldr.32	s14, .L33+20
  96 0088 C7EE876A 		vdiv.f32	s13, s15, s14
  97              	.LVL8:
 113:Generated_Source\PSoC6\pdl\drivers\peripheral\sysclk/cy_sysclk.c ****             1000000000.0f;
 114:Generated_Source\PSoC6\pdl\drivers\peripheral\sysclk/cy_sysclk.c ****         uint32_t nAmpSections = (uint32_t)(gm_min / 4.5f);
  98              		.loc 1 114 0
  99 008c B1EE027A 		vmov.f32	s14, #4.5e+0
 100 0090 C6EE877A 		vdiv.f32	s15, s13, s14
 101 0094 FCEEE77A 		vcvt.u32.f32	s15, s15
 102              	.LVL9:
 115:Generated_Source\PSoC6\pdl\drivers\peripheral\sysclk/cy_sysclk.c **** 
 116:Generated_Source\PSoC6\pdl\drivers\peripheral\sysclk/cy_sysclk.c ****         /* Error if input parameters cause erroneous intermediate values. */
 117:Generated_Source\PSoC6\pdl\drivers\peripheral\sysclk/cy_sysclk.c ****         rtnval = CY_SYSCLK_BAD_PARAM;
 118:Generated_Source\PSoC6\pdl\drivers\peripheral\sysclk/cy_sysclk.c ****         if ((maxAmplitude >= 0.5f) && (nAmpSections <= 3ul))
 103              		.loc 1 118 0
 104 0098 B6EE007A 		vmov.f32	s14, #5.0e-1
 105 009c B4EEC76A 		vcmpe.f32	s12, s14
 106 00a0 F1EE10FA 		vmrs	APSR_nzcv, FPSCR
 107 00a4 C0F29580 		blt	.L28
 108              		.loc 1 118 0 is_stmt 0 discriminator 1
ARM GAS  C:\Users\gjl\AppData\Local\Temp\ccNVysBX.s 			page 5


 109 00a8 17EE903A 		vmov	r3, s15	@ int
 110 00ac 032B     		cmp	r3, #3
 111 00ae 00F29280 		bhi	.L13
 112              	.LBB30:
 119:Generated_Source\PSoC6\pdl\drivers\peripheral\sysclk/cy_sysclk.c ****         {
 120:Generated_Source\PSoC6\pdl\drivers\peripheral\sysclk/cy_sysclk.c ****             uint32_t atrim, wdtrim, gtrim, rtrim, ftrim, reg;
 121:Generated_Source\PSoC6\pdl\drivers\peripheral\sysclk/cy_sysclk.c **** 
 122:Generated_Source\PSoC6\pdl\drivers\peripheral\sysclk/cy_sysclk.c ****             atrim = 2ul * ((maxAmplitude < 0.6f) ? 0ul :
 113              		.loc 1 122 0 is_stmt 1
 114 00b2 9FED517A 		vldr.32	s14, .L33+24
 115 00b6 B4EEC76A 		vcmpe.f32	s12, s14
 116 00ba F1EE10FA 		vmrs	APSR_nzcv, FPSCR
 117 00be 24D4     		bmi	.L14
 118              		.loc 1 122 0 is_stmt 0 discriminator 2
 119 00c0 9FED4E7A 		vldr.32	s14, .L33+28
 120 00c4 B4EEC76A 		vcmpe.f32	s12, s14
 121 00c8 F1EE10FA 		vmrs	APSR_nzcv, FPSCR
 122 00cc 1FD4     		bmi	.L15
 123              		.loc 1 122 0 discriminator 5
 124 00ce 9FED4C7A 		vldr.32	s14, .L33+32
 125 00d2 B4EEC76A 		vcmpe.f32	s12, s14
 126 00d6 F1EE10FA 		vmrs	APSR_nzcv, FPSCR
 127 00da 1AD4     		bmi	.L16
 128              		.loc 1 122 0 discriminator 8
 129 00dc 9FED497A 		vldr.32	s14, .L33+36
 130 00e0 B4EEC76A 		vcmpe.f32	s12, s14
 131 00e4 F1EE10FA 		vmrs	APSR_nzcv, FPSCR
 132 00e8 15D4     		bmi	.L17
 133              		.loc 1 122 0 discriminator 11
 134 00ea 9FED477A 		vldr.32	s14, .L33+40
 135 00ee B4EEC76A 		vcmpe.f32	s12, s14
 136 00f2 F1EE10FA 		vmrs	APSR_nzcv, FPSCR
 137 00f6 10D4     		bmi	.L18
 138              		.loc 1 122 0 discriminator 14
 139 00f8 9FED447A 		vldr.32	s14, .L33+44
 140 00fc B4EEC76A 		vcmpe.f32	s12, s14
 141 0100 F1EE10FA 		vmrs	APSR_nzcv, FPSCR
 142 0104 0BD5     		bpl	.L29
 143              		.loc 1 122 0
 144 0106 0C25     		movs	r5, #12
 145 0108 0AE0     		b	.L4
 146              	.L14:
 147 010a 0025     		movs	r5, #0
 148 010c 08E0     		b	.L4
 149              	.L15:
 150 010e 0225     		movs	r5, #2
 151 0110 06E0     		b	.L4
 152              	.L16:
 153 0112 0425     		movs	r5, #4
 154 0114 04E0     		b	.L4
 155              	.L17:
 156 0116 0625     		movs	r5, #6
 157 0118 02E0     		b	.L4
 158              	.L18:
 159 011a 0A25     		movs	r5, #10
 160 011c 00E0     		b	.L4
 161              	.L29:
ARM GAS  C:\Users\gjl\AppData\Local\Temp\ccNVysBX.s 			page 6


 162 011e 0E25     		movs	r5, #14
 163              	.L4:
 164              	.LVL10:
 123:Generated_Source\PSoC6\pdl\drivers\peripheral\sysclk/cy_sysclk.c ****                            ((maxAmplitude < 0.7f) ? 1ul :
 124:Generated_Source\PSoC6\pdl\drivers\peripheral\sysclk/cy_sysclk.c ****                             ((maxAmplitude < 0.8f) ? 2ul :
 125:Generated_Source\PSoC6\pdl\drivers\peripheral\sysclk/cy_sysclk.c ****                              ((maxAmplitude < 0.9f) ? 3ul :
 126:Generated_Source\PSoC6\pdl\drivers\peripheral\sysclk/cy_sysclk.c ****                               ((maxAmplitude < 1.15f) ? 5ul :
 127:Generated_Source\PSoC6\pdl\drivers\peripheral\sysclk/cy_sysclk.c ****                                ((maxAmplitude < 1.275f) ? 6ul : 7ul))))));
 128:Generated_Source\PSoC6\pdl\drivers\peripheral\sysclk/cy_sysclk.c **** 
 129:Generated_Source\PSoC6\pdl\drivers\peripheral\sysclk/cy_sysclk.c ****             wdtrim = 2ul * ((maxAmplitude < 1.2f) ? (uint32_t)(5.0f * maxAmplitude) - 2ul : 3ul);
 165              		.loc 1 129 0 is_stmt 1 discriminator 24
 166 0120 9FED3B7A 		vldr.32	s14, .L33+48
 167 0124 B4EEC76A 		vcmpe.f32	s12, s14
 168 0128 F1EE10FA 		vmrs	APSR_nzcv, FPSCR
 169 012c 0CD5     		bpl	.L30
 170              		.loc 1 129 0 is_stmt 0 discriminator 1
 171 012e B1EE047A 		vmov.f32	s14, #5.0e+0
 172 0132 26EE076A 		vmul.f32	s12, s12, s14
 173              	.LVL11:
 174 0136 BCEEC66A 		vcvt.u32.f32	s12, s12
 175 013a 16EE103A 		vmov	r3, s12	@ int
 176 013e 03F10043 		add	r3, r3, #-2147483648
 177 0142 023B     		subs	r3, r3, #2
 178 0144 5900     		lsls	r1, r3, #1
 179 0146 00E0     		b	.L6
 180              	.LVL12:
 181              	.L30:
 182              		.loc 1 129 0
 183 0148 0621     		movs	r1, #6
 184              	.LVL13:
 185              	.L6:
 130:Generated_Source\PSoC6\pdl\drivers\peripheral\sysclk/cy_sysclk.c **** 
 131:Generated_Source\PSoC6\pdl\drivers\peripheral\sysclk/cy_sysclk.c ****             gtrim = ((nAmpSections > 1ul) ? nAmpSections :
 186              		.loc 1 131 0 is_stmt 1 discriminator 4
 187 014a 17EE903A 		vmov	r3, s15	@ int
 188 014e 012B     		cmp	r3, #1
 189 0150 05D8     		bhi	.L8
 190              	.LVL14:
 132:Generated_Source\PSoC6\pdl\drivers\peripheral\sysclk/cy_sysclk.c ****                      ((nAmpSections == 1ul) ? 0ul : 1ul));
 191              		.loc 1 132 0 discriminator 1
 192 0152 13F1FF33 		adds	r3, r3, #-1
 193              	.LVL15:
 194 0156 18BF     		it	ne
 195 0158 0123     		movne	r3, #1
 196 015a 07EE903A 		vmov	s15, r3	@ int
 197              	.LVL16:
 198              	.L8:
 133:Generated_Source\PSoC6\pdl\drivers\peripheral\sysclk/cy_sysclk.c **** 
 134:Generated_Source\PSoC6\pdl\drivers\peripheral\sysclk/cy_sysclk.c ****             rtrim = ((freqMHz > 26.8f) ? 0ul :
 199              		.loc 1 134 0 discriminator 4
 200 015e 9FED2D7A 		vldr.32	s14, .L33+52
 201 0162 F4EEC78A 		vcmpe.f32	s17, s14
 202 0166 F1EE10FA 		vmrs	APSR_nzcv, FPSCR
 203 016a 0FDC     		bgt	.L21
 135:Generated_Source\PSoC6\pdl\drivers\peripheral\sysclk/cy_sysclk.c ****                      ((freqMHz > 23.33f) ? 1ul :
 204              		.loc 1 135 0
 205 016c 9FED2A7A 		vldr.32	s14, .L33+56
ARM GAS  C:\Users\gjl\AppData\Local\Temp\ccNVysBX.s 			page 7


 206 0170 F4EEC78A 		vcmpe.f32	s17, s14
 207 0174 F1EE10FA 		vmrs	APSR_nzcv, FPSCR
 208 0178 0ADC     		bgt	.L22
 136:Generated_Source\PSoC6\pdl\drivers\peripheral\sysclk/cy_sysclk.c ****                       ((freqMHz > 16.5f) ? 2ul : 3ul)));
 209              		.loc 1 136 0
 210 017a 9FED287A 		vldr.32	s14, .L33+60
 211 017e F4EEC78A 		vcmpe.f32	s17, s14
 212 0182 F1EE10FA 		vmrs	APSR_nzcv, FPSCR
 213 0186 05DD     		ble	.L31
 214 0188 0226     		movs	r6, #2
 215 018a 04E0     		b	.L9
 216              	.L21:
 134:Generated_Source\PSoC6\pdl\drivers\peripheral\sysclk/cy_sysclk.c ****                      ((freqMHz > 23.33f) ? 1ul :
 217              		.loc 1 134 0
 218 018c 0026     		movs	r6, #0
 219 018e 02E0     		b	.L9
 220              	.L22:
 135:Generated_Source\PSoC6\pdl\drivers\peripheral\sysclk/cy_sysclk.c ****                      ((freqMHz > 23.33f) ? 1ul :
 221              		.loc 1 135 0
 222 0190 0126     		movs	r6, #1
 223 0192 00E0     		b	.L9
 224              	.L31:
 225              		.loc 1 136 0
 226 0194 0326     		movs	r6, #3
 227              	.L9:
 228              	.LVL17:
 137:Generated_Source\PSoC6\pdl\drivers\peripheral\sysclk/cy_sysclk.c **** 
 138:Generated_Source\PSoC6\pdl\drivers\peripheral\sysclk/cy_sysclk.c ****             ftrim = atrim / 2ul;
 139:Generated_Source\PSoC6\pdl\drivers\peripheral\sysclk/cy_sysclk.c **** 
 140:Generated_Source\PSoC6\pdl\drivers\peripheral\sysclk/cy_sysclk.c ****             /* update all fields of trim control register with one write, without
 141:Generated_Source\PSoC6\pdl\drivers\peripheral\sysclk/cy_sysclk.c ****                changing the ITRIM field in bits [21:16]:
 142:Generated_Source\PSoC6\pdl\drivers\peripheral\sysclk/cy_sysclk.c ****                  gtrim:  bits [13:12]
 143:Generated_Source\PSoC6\pdl\drivers\peripheral\sysclk/cy_sysclk.c ****                  rtrim:  bits [11:10]
 144:Generated_Source\PSoC6\pdl\drivers\peripheral\sysclk/cy_sysclk.c ****                  ftrim:  bits  [9:8]
 145:Generated_Source\PSoC6\pdl\drivers\peripheral\sysclk/cy_sysclk.c ****                  atrim:  bits  [7:4]
 146:Generated_Source\PSoC6\pdl\drivers\peripheral\sysclk/cy_sysclk.c ****                  wdtrim: bits  [2:0]
 147:Generated_Source\PSoC6\pdl\drivers\peripheral\sysclk/cy_sysclk.c ****             */
 148:Generated_Source\PSoC6\pdl\drivers\peripheral\sysclk/cy_sysclk.c ****             reg = (SRSS->CLK_TRIM_ECO_CTL & ~0x3FFFul);
 229              		.loc 1 148 0 discriminator 2
 230 0196 124C     		ldr	r4, .L33
 231 0198 4FF62070 		movw	r0, #65312
 232              	.LVL18:
 233 019c 2358     		ldr	r3, [r4, r0]
 234 019e 23F47F53 		bic	r3, r3, #16320
 235 01a2 23F03F03 		bic	r3, r3, #63
 236              	.LVL19:
 149:Generated_Source\PSoC6\pdl\drivers\peripheral\sysclk/cy_sysclk.c ****             reg |= (gtrim  & 3ul)    << 12;
 237              		.loc 1 149 0 discriminator 2
 238 01a6 17EE902A 		vmov	r2, s15	@ int
 239 01aa 1203     		lsls	r2, r2, #12
 240 01ac 02F44052 		and	r2, r2, #12288
 241 01b0 1343     		orrs	r3, r3, r2
 242              	.LVL20:
 150:Generated_Source\PSoC6\pdl\drivers\peripheral\sysclk/cy_sysclk.c ****             reg |= (rtrim  & 3ul)    << 10;
 243              		.loc 1 150 0 discriminator 2
 244 01b2 43EA8623 		orr	r3, r3, r6, lsl #10
 245              	.LVL21:
ARM GAS  C:\Users\gjl\AppData\Local\Temp\ccNVysBX.s 			page 8


 151:Generated_Source\PSoC6\pdl\drivers\peripheral\sysclk/cy_sysclk.c ****             reg |= (ftrim  & 3ul)    << 8;
 246              		.loc 1 151 0 discriminator 2
 247 01b6 EA01     		lsls	r2, r5, #7
 248 01b8 02F44072 		and	r2, r2, #768
 249 01bc 1343     		orrs	r3, r3, r2
 250              	.LVL22:
 152:Generated_Source\PSoC6\pdl\drivers\peripheral\sysclk/cy_sysclk.c ****             reg |= (atrim  & 0x0Ful) << 4;
 251              		.loc 1 152 0 discriminator 2
 252 01be 43EA0512 		orr	r2, r3, r5, lsl #4
 253              	.LVL23:
 153:Generated_Source\PSoC6\pdl\drivers\peripheral\sysclk/cy_sysclk.c ****             reg |= (wdtrim & 7ul);
 254              		.loc 1 153 0 discriminator 2
 255 01c2 01F00703 		and	r3, r1, #7
 256 01c6 1A43     		orrs	r2, r2, r3
 257              	.LVL24:
 154:Generated_Source\PSoC6\pdl\drivers\peripheral\sysclk/cy_sysclk.c ****             SRSS->CLK_TRIM_ECO_CTL = reg;
 258              		.loc 1 154 0 discriminator 2
 259 01c8 2250     		str	r2, [r4, r0]
 260              	.LVL25:
 155:Generated_Source\PSoC6\pdl\drivers\peripheral\sysclk/cy_sysclk.c **** 
 156:Generated_Source\PSoC6\pdl\drivers\peripheral\sysclk/cy_sysclk.c ****             rtnval = CY_SYSCLK_SUCCESS;
 261              		.loc 1 156 0 discriminator 2
 262 01ca 0020     		movs	r0, #0
 263 01cc 04E0     		b	.L2
 264              	.LVL26:
 265              	.L11:
 266              	.LBE30:
 267              	.LBE29:
 103:Generated_Source\PSoC6\pdl\drivers\peripheral\sysclk/cy_sysclk.c ****     if ((SRSS->CLK_ECO_CONFIG & 0xE0000000ul) == 0ul)
 268              		.loc 1 103 0
 269 01ce 1448     		ldr	r0, .L33+64
 270              	.LVL27:
 271 01d0 02E0     		b	.L2
 272              	.LVL28:
 273              	.L28:
 274              	.LBB31:
 117:Generated_Source\PSoC6\pdl\drivers\peripheral\sysclk/cy_sysclk.c ****         if ((maxAmplitude >= 0.5f) && (nAmpSections <= 3ul))
 275              		.loc 1 117 0
 276 01d2 1448     		ldr	r0, .L33+68
 277 01d4 00E0     		b	.L2
 278              	.LVL29:
 279              	.L13:
 280 01d6 1348     		ldr	r0, .L33+68
 281              	.LVL30:
 282              	.L2:
 283              	.LBE31:
 157:Generated_Source\PSoC6\pdl\drivers\peripheral\sysclk/cy_sysclk.c ****         } /* if valid parameters */
 158:Generated_Source\PSoC6\pdl\drivers\peripheral\sysclk/cy_sysclk.c ****     } /* if ECO not enabled */
 159:Generated_Source\PSoC6\pdl\drivers\peripheral\sysclk/cy_sysclk.c **** 
 160:Generated_Source\PSoC6\pdl\drivers\peripheral\sysclk/cy_sysclk.c ****     return (rtnval);
 161:Generated_Source\PSoC6\pdl\drivers\peripheral\sysclk/cy_sysclk.c **** }
 284              		.loc 1 161 0
 285 01d8 BDEC048B 		vldm	sp!, {d8-d9}
 286              		.cfi_restore 82
 287              		.cfi_restore 83
 288              		.cfi_restore 80
 289              		.cfi_restore 81
ARM GAS  C:\Users\gjl\AppData\Local\Temp\ccNVysBX.s 			page 9


 290              		.cfi_def_cfa_offset 16
 291 01dc 70BD     		pop	{r4, r5, r6, pc}
 292              	.L34:
 293 01de 00BF     		.align	2
 294              	.L33:
 295 01e0 00002640 		.word	1076232192
 296 01e4 00247449 		.word	1232348160
 297 01e8 00007A44 		.word	1148846080
 298 01ec C3F54840 		.word	1078523331
 299 01f0 33334544 		.word	1145385779
 300 01f4 286B6E4E 		.word	1315859240
 301 01f8 9A99193F 		.word	1058642330
 302 01fc 3333333F 		.word	1060320051
 303 0200 CDCC4C3F 		.word	1061997773
 304 0204 6666663F 		.word	1063675494
 305 0208 3333933F 		.word	1066611507
 306 020c 3333A33F 		.word	1067660083
 307 0210 9A99993F 		.word	1067030938
 308 0214 6666D641 		.word	1104569958
 309 0218 D7A3BA41 		.word	1102750679
 310 021c 00008441 		.word	1099169792
 311 0220 03004A00 		.word	4849667
 312 0224 01004A00 		.word	4849665
 313              		.cfi_endproc
 314              	.LFE215:
 315              		.size	Cy_SysClk_EcoConfigure, .-Cy_SysClk_EcoConfigure
 316              		.section	.text.Cy_SysClk_EcoEnable,"ax",%progbits
 317              		.align	2
 318              		.global	Cy_SysClk_EcoEnable
 319              		.thumb
 320              		.thumb_func
 321              		.type	Cy_SysClk_EcoEnable, %function
 322              	Cy_SysClk_EcoEnable:
 323              	.LFB216:
 162:Generated_Source\PSoC6\pdl\drivers\peripheral\sysclk/cy_sysclk.c **** 
 163:Generated_Source\PSoC6\pdl\drivers\peripheral\sysclk/cy_sysclk.c **** /*******************************************************************************
 164:Generated_Source\PSoC6\pdl\drivers\peripheral\sysclk/cy_sysclk.c **** * Function Name: Cy_SysClk_EcoEnable
 165:Generated_Source\PSoC6\pdl\drivers\peripheral\sysclk/cy_sysclk.c **** ****************************************************************************//**
 166:Generated_Source\PSoC6\pdl\drivers\peripheral\sysclk/cy_sysclk.c **** *
 167:Generated_Source\PSoC6\pdl\drivers\peripheral\sysclk/cy_sysclk.c **** * Enables the external crystal oscillator (ECO). This function should be called
 168:Generated_Source\PSoC6\pdl\drivers\peripheral\sysclk/cy_sysclk.c **** * after \ref Cy_SysClk_EcoConfigure.
 169:Generated_Source\PSoC6\pdl\drivers\peripheral\sysclk/cy_sysclk.c **** *
 170:Generated_Source\PSoC6\pdl\drivers\peripheral\sysclk/cy_sysclk.c **** * \param timeoutus Amount of time in microseconds to wait for the ECO to lock.
 171:Generated_Source\PSoC6\pdl\drivers\peripheral\sysclk/cy_sysclk.c **** * If a lock does not occur, the ECO is stopped. To avoid waiting for a lock, set
 172:Generated_Source\PSoC6\pdl\drivers\peripheral\sysclk/cy_sysclk.c **** * this parameter to 0.
 173:Generated_Source\PSoC6\pdl\drivers\peripheral\sysclk/cy_sysclk.c **** *
 174:Generated_Source\PSoC6\pdl\drivers\peripheral\sysclk/cy_sysclk.c **** * \return Error / status code:<br>
 175:Generated_Source\PSoC6\pdl\drivers\peripheral\sysclk/cy_sysclk.c **** * CY_SYSCLK_SUCCESS - ECO locked<br>
 176:Generated_Source\PSoC6\pdl\drivers\peripheral\sysclk/cy_sysclk.c **** * CY_SYSCLK_TIMEOUT - ECO timed out and did not lock
 177:Generated_Source\PSoC6\pdl\drivers\peripheral\sysclk/cy_sysclk.c **** * CY_SYSCLK_INVALID_STATE - ECO already enabled
 178:Generated_Source\PSoC6\pdl\drivers\peripheral\sysclk/cy_sysclk.c **** *
 179:Generated_Source\PSoC6\pdl\drivers\peripheral\sysclk/cy_sysclk.c **** * \funcusage
 180:Generated_Source\PSoC6\pdl\drivers\peripheral\sysclk/cy_sysclk.c **** * \snippet sysclk/sysclk_v1_10_sut_01.cydsn/main_cm4.c snippet_Cy_SysClk_EcoEnable
 181:Generated_Source\PSoC6\pdl\drivers\peripheral\sysclk/cy_sysclk.c **** *
 182:Generated_Source\PSoC6\pdl\drivers\peripheral\sysclk/cy_sysclk.c **** *******************************************************************************/
 183:Generated_Source\PSoC6\pdl\drivers\peripheral\sysclk/cy_sysclk.c **** cy_en_sysclk_status_t Cy_SysClk_EcoEnable(uint32_t timeoutus)
 184:Generated_Source\PSoC6\pdl\drivers\peripheral\sysclk/cy_sysclk.c **** {
ARM GAS  C:\Users\gjl\AppData\Local\Temp\ccNVysBX.s 			page 10


 324              		.loc 1 184 0
 325              		.cfi_startproc
 326              		@ args = 0, pretend = 0, frame = 0
 327              		@ frame_needed = 0, uses_anonymous_args = 0
 328              	.LVL31:
 185:Generated_Source\PSoC6\pdl\drivers\peripheral\sysclk/cy_sysclk.c ****     cy_en_sysclk_status_t rtnval = CY_SYSCLK_INVALID_STATE;
 186:Generated_Source\PSoC6\pdl\drivers\peripheral\sysclk/cy_sysclk.c **** 
 187:Generated_Source\PSoC6\pdl\drivers\peripheral\sysclk/cy_sysclk.c ****     /* invalid state error if ECO is already enabled */
 188:Generated_Source\PSoC6\pdl\drivers\peripheral\sysclk/cy_sysclk.c ****     if (_FLD2VAL(SRSS_CLK_ECO_CONFIG_ECO_EN, SRSS->CLK_ECO_CONFIG) == 0ul) /* 1 = enabled */
 329              		.loc 1 188 0
 330 0000 104B     		ldr	r3, .L43
 331 0002 D3F82C35 		ldr	r3, [r3, #1324]
 332 0006 002B     		cmp	r3, #0
 333 0008 18DB     		blt	.L40
 184:Generated_Source\PSoC6\pdl\drivers\peripheral\sysclk/cy_sysclk.c ****     cy_en_sysclk_status_t rtnval = CY_SYSCLK_INVALID_STATE;
 334              		.loc 1 184 0
 335 000a 10B5     		push	{r4, lr}
 336              		.cfi_def_cfa_offset 8
 337              		.cfi_offset 4, -8
 338              		.cfi_offset 14, -4
 339 000c 0446     		mov	r4, r0
 189:Generated_Source\PSoC6\pdl\drivers\peripheral\sysclk/cy_sysclk.c ****     {
 190:Generated_Source\PSoC6\pdl\drivers\peripheral\sysclk/cy_sysclk.c ****         /* first set ECO enable */
 191:Generated_Source\PSoC6\pdl\drivers\peripheral\sysclk/cy_sysclk.c ****         SRSS->CLK_ECO_CONFIG |= _VAL2FLD(SRSS_CLK_ECO_CONFIG_ECO_EN, 1ul); /* 1 = enable */
 340              		.loc 1 191 0
 341 000e 0D4A     		ldr	r2, .L43
 342 0010 D2F82C35 		ldr	r3, [r2, #1324]
 343 0014 43F00043 		orr	r3, r3, #-2147483648
 344 0018 C2F82C35 		str	r3, [r2, #1324]
 192:Generated_Source\PSoC6\pdl\drivers\peripheral\sysclk/cy_sysclk.c **** 
 193:Generated_Source\PSoC6\pdl\drivers\peripheral\sysclk/cy_sysclk.c ****         /* now do the timeout wait for ECO_STATUS, bit ECO_OK */
 194:Generated_Source\PSoC6\pdl\drivers\peripheral\sysclk/cy_sysclk.c ****         for (;
 345              		.loc 1 194 0
 346 001c 03E0     		b	.L37
 347              	.LVL32:
 348              	.L39:
 195:Generated_Source\PSoC6\pdl\drivers\peripheral\sysclk/cy_sysclk.c ****              ((_FLD2VAL(SRSS_CLK_ECO_STATUS_ECO_READY, SRSS->CLK_ECO_STATUS) == 0ul)) &&(timeoutus 
 196:Generated_Source\PSoC6\pdl\drivers\peripheral\sysclk/cy_sysclk.c ****              timeoutus--)
 197:Generated_Source\PSoC6\pdl\drivers\peripheral\sysclk/cy_sysclk.c ****         {
 198:Generated_Source\PSoC6\pdl\drivers\peripheral\sysclk/cy_sysclk.c ****             Cy_SysLib_DelayUs(1u);
 349              		.loc 1 198 0
 350 001e 0120     		movs	r0, #1
 351 0020 FFF7FEFF 		bl	Cy_SysLib_DelayUs
 352              	.LVL33:
 196:Generated_Source\PSoC6\pdl\drivers\peripheral\sysclk/cy_sysclk.c ****         {
 353              		.loc 1 196 0
 354 0024 013C     		subs	r4, r4, #1
 355              	.LVL34:
 356              	.L37:
 195:Generated_Source\PSoC6\pdl\drivers\peripheral\sysclk/cy_sysclk.c ****              ((_FLD2VAL(SRSS_CLK_ECO_STATUS_ECO_READY, SRSS->CLK_ECO_STATUS) == 0ul)) &&(timeoutus 
 357              		.loc 1 195 0
 358 0026 074B     		ldr	r3, .L43
 359 0028 D3F83035 		ldr	r3, [r3, #1328]
 194:Generated_Source\PSoC6\pdl\drivers\peripheral\sysclk/cy_sysclk.c ****              ((_FLD2VAL(SRSS_CLK_ECO_STATUS_ECO_READY, SRSS->CLK_ECO_STATUS) == 0ul)) &&(timeoutus 
 360              		.loc 1 194 0
 361 002c 13F0020F 		tst	r3, #2
 362 0030 01D1     		bne	.L38
ARM GAS  C:\Users\gjl\AppData\Local\Temp\ccNVysBX.s 			page 11


 195:Generated_Source\PSoC6\pdl\drivers\peripheral\sysclk/cy_sysclk.c ****              ((_FLD2VAL(SRSS_CLK_ECO_STATUS_ECO_READY, SRSS->CLK_ECO_STATUS) == 0ul)) &&(timeoutus 
 363              		.loc 1 195 0
 364 0032 002C     		cmp	r4, #0
 365 0034 F3D1     		bne	.L39
 366              	.L38:
 199:Generated_Source\PSoC6\pdl\drivers\peripheral\sysclk/cy_sysclk.c ****         }
 200:Generated_Source\PSoC6\pdl\drivers\peripheral\sysclk/cy_sysclk.c ****         rtnval = ((timeoutus == 0ul) ? CY_SYSCLK_TIMEOUT : CY_SYSCLK_SUCCESS);
 367              		.loc 1 200 0
 368 0036 1CB9     		cbnz	r4, .L41
 369 0038 0348     		ldr	r0, .L43+4
 370 003a 10BD     		pop	{r4, pc}
 371              	.LVL35:
 372              	.L40:
 373              		.cfi_def_cfa_offset 0
 374              		.cfi_restore 4
 375              		.cfi_restore 14
 185:Generated_Source\PSoC6\pdl\drivers\peripheral\sysclk/cy_sysclk.c **** 
 376              		.loc 1 185 0
 377 003c 0348     		ldr	r0, .L43+8
 378              	.LVL36:
 201:Generated_Source\PSoC6\pdl\drivers\peripheral\sysclk/cy_sysclk.c ****     }
 202:Generated_Source\PSoC6\pdl\drivers\peripheral\sysclk/cy_sysclk.c ****     return (rtnval);
 203:Generated_Source\PSoC6\pdl\drivers\peripheral\sysclk/cy_sysclk.c **** }
 379              		.loc 1 203 0
 380 003e 7047     		bx	lr
 381              	.LVL37:
 382              	.L41:
 383              		.cfi_def_cfa_offset 8
 384              		.cfi_offset 4, -8
 385              		.cfi_offset 14, -4
 200:Generated_Source\PSoC6\pdl\drivers\peripheral\sysclk/cy_sysclk.c ****     }
 386              		.loc 1 200 0
 387 0040 0020     		movs	r0, #0
 388              	.LVL38:
 389              		.loc 1 203 0
 390 0042 10BD     		pop	{r4, pc}
 391              	.LVL39:
 392              	.L44:
 393              		.align	2
 394              	.L43:
 395 0044 00002640 		.word	1076232192
 396 0048 02004A00 		.word	4849666
 397 004c 03004A00 		.word	4849667
 398              		.cfi_endproc
 399              	.LFE216:
 400              		.size	Cy_SysClk_EcoEnable, .-Cy_SysClk_EcoEnable
 401              		.section	.text.Cy_SysClk_ClkPathSetSource,"ax",%progbits
 402              		.align	2
 403              		.global	Cy_SysClk_ClkPathSetSource
 404              		.thumb
 405              		.thumb_func
 406              		.type	Cy_SysClk_ClkPathSetSource, %function
 407              	Cy_SysClk_ClkPathSetSource:
 408              	.LFB217:
 204:Generated_Source\PSoC6\pdl\drivers\peripheral\sysclk/cy_sysclk.c **** /** \} group_sysclk_eco_funcs */
 205:Generated_Source\PSoC6\pdl\drivers\peripheral\sysclk/cy_sysclk.c **** 
 206:Generated_Source\PSoC6\pdl\drivers\peripheral\sysclk/cy_sysclk.c **** 
ARM GAS  C:\Users\gjl\AppData\Local\Temp\ccNVysBX.s 			page 12


 207:Generated_Source\PSoC6\pdl\drivers\peripheral\sysclk/cy_sysclk.c **** /* ========================================================================== */
 208:Generated_Source\PSoC6\pdl\drivers\peripheral\sysclk/cy_sysclk.c **** /* ====================    INPUT MULTIPLEXER SECTION    ===================== */
 209:Generated_Source\PSoC6\pdl\drivers\peripheral\sysclk/cy_sysclk.c **** /* ========================================================================== */
 210:Generated_Source\PSoC6\pdl\drivers\peripheral\sysclk/cy_sysclk.c **** /**
 211:Generated_Source\PSoC6\pdl\drivers\peripheral\sysclk/cy_sysclk.c **** * \addtogroup group_sysclk_path_src_funcs
 212:Generated_Source\PSoC6\pdl\drivers\peripheral\sysclk/cy_sysclk.c **** * \{
 213:Generated_Source\PSoC6\pdl\drivers\peripheral\sysclk/cy_sysclk.c **** */
 214:Generated_Source\PSoC6\pdl\drivers\peripheral\sysclk/cy_sysclk.c **** /*******************************************************************************
 215:Generated_Source\PSoC6\pdl\drivers\peripheral\sysclk/cy_sysclk.c **** * Function Name: Cy_SysClk_ClkPathSetSource
 216:Generated_Source\PSoC6\pdl\drivers\peripheral\sysclk/cy_sysclk.c **** ****************************************************************************//**
 217:Generated_Source\PSoC6\pdl\drivers\peripheral\sysclk/cy_sysclk.c **** *
 218:Generated_Source\PSoC6\pdl\drivers\peripheral\sysclk/cy_sysclk.c **** * Configures the source for the specified clock path.
 219:Generated_Source\PSoC6\pdl\drivers\peripheral\sysclk/cy_sysclk.c **** *
 220:Generated_Source\PSoC6\pdl\drivers\peripheral\sysclk/cy_sysclk.c **** * \param clkPath Selects which clock path to configure; 0 is the first clock
 221:Generated_Source\PSoC6\pdl\drivers\peripheral\sysclk/cy_sysclk.c **** * path, which is the FLL.
 222:Generated_Source\PSoC6\pdl\drivers\peripheral\sysclk/cy_sysclk.c **** *
 223:Generated_Source\PSoC6\pdl\drivers\peripheral\sysclk/cy_sysclk.c **** * \param source \ref cy_en_clkpath_in_sources_t
 224:Generated_Source\PSoC6\pdl\drivers\peripheral\sysclk/cy_sysclk.c **** *
 225:Generated_Source\PSoC6\pdl\drivers\peripheral\sysclk/cy_sysclk.c **** * \return \ref cy_en_sysclk_status_t
 226:Generated_Source\PSoC6\pdl\drivers\peripheral\sysclk/cy_sysclk.c **** *
 227:Generated_Source\PSoC6\pdl\drivers\peripheral\sysclk/cy_sysclk.c **** * \note
 228:Generated_Source\PSoC6\pdl\drivers\peripheral\sysclk/cy_sysclk.c **** * If calling this function changes an FLL or PLL input frequency, disable the FLL
 229:Generated_Source\PSoC6\pdl\drivers\peripheral\sysclk/cy_sysclk.c **** * or PLL before calling this function. After calling this function, call the FLL
 230:Generated_Source\PSoC6\pdl\drivers\peripheral\sysclk/cy_sysclk.c **** * or PLL configure function, for example \ref Cy_SysClk_FllConfigure().
 231:Generated_Source\PSoC6\pdl\drivers\peripheral\sysclk/cy_sysclk.c **** *
 232:Generated_Source\PSoC6\pdl\drivers\peripheral\sysclk/cy_sysclk.c **** * \funcusage
 233:Generated_Source\PSoC6\pdl\drivers\peripheral\sysclk/cy_sysclk.c **** * \snippet sysclk/sysclk_v1_10_sut_01.cydsn/main_cm4.c snippet_Cy_SysClk_ClkPathSetSource
 234:Generated_Source\PSoC6\pdl\drivers\peripheral\sysclk/cy_sysclk.c **** *
 235:Generated_Source\PSoC6\pdl\drivers\peripheral\sysclk/cy_sysclk.c **** *******************************************************************************/
 236:Generated_Source\PSoC6\pdl\drivers\peripheral\sysclk/cy_sysclk.c **** cy_en_sysclk_status_t Cy_SysClk_ClkPathSetSource(uint32_t clkPath, cy_en_clkpath_in_sources_t sourc
 237:Generated_Source\PSoC6\pdl\drivers\peripheral\sysclk/cy_sysclk.c **** {
 409              		.loc 1 237 0
 410              		.cfi_startproc
 411              		@ args = 0, pretend = 0, frame = 0
 412              		@ frame_needed = 0, uses_anonymous_args = 0
 413              		@ link register save eliminated.
 414              	.LVL40:
 238:Generated_Source\PSoC6\pdl\drivers\peripheral\sysclk/cy_sysclk.c ****     cy_en_sysclk_status_t retval = CY_SYSCLK_BAD_PARAM;
 239:Generated_Source\PSoC6\pdl\drivers\peripheral\sysclk/cy_sysclk.c ****     if ((clkPath < SRSS_NUM_CLKPATH) &&
 415              		.loc 1 239 0
 416 0000 0428     		cmp	r0, #4
 417 0002 1DD8     		bhi	.L49
 418              		.loc 1 239 0 is_stmt 0 discriminator 1
 419 0004 0429     		cmp	r1, #4
 420 0006 04D9     		bls	.L47
 240:Generated_Source\PSoC6\pdl\drivers\peripheral\sysclk/cy_sysclk.c ****         ((source <= CY_SYSCLK_CLKPATH_IN_DSIMUX) ||
 241:Generated_Source\PSoC6\pdl\drivers\peripheral\sysclk/cy_sysclk.c ****          ((CY_SYSCLK_CLKPATH_IN_DSI <= source) && (source <= CY_SYSCLK_CLKPATH_IN_PILO))))
 421              		.loc 1 241 0 is_stmt 1
 422 0008 A1F58073 		sub	r3, r1, #256
 423 000c 9BB2     		uxth	r3, r3
 240:Generated_Source\PSoC6\pdl\drivers\peripheral\sysclk/cy_sysclk.c ****         ((source <= CY_SYSCLK_CLKPATH_IN_DSIMUX) ||
 424              		.loc 1 240 0
 425 000e 132B     		cmp	r3, #19
 426 0010 18D8     		bhi	.L50
 427              	.L47:
 242:Generated_Source\PSoC6\pdl\drivers\peripheral\sysclk/cy_sysclk.c ****     {
 243:Generated_Source\PSoC6\pdl\drivers\peripheral\sysclk/cy_sysclk.c ****         if (source >= CY_SYSCLK_CLKPATH_IN_DSI)
ARM GAS  C:\Users\gjl\AppData\Local\Temp\ccNVysBX.s 			page 13


 428              		.loc 1 243 0
 429 0012 FF29     		cmp	r1, #255
 430 0014 0CD9     		bls	.L48
 244:Generated_Source\PSoC6\pdl\drivers\peripheral\sysclk/cy_sysclk.c ****         {
 245:Generated_Source\PSoC6\pdl\drivers\peripheral\sysclk/cy_sysclk.c ****             SRSS->CLK_DSI_SELECT[clkPath] = _VAL2FLD(SRSS_CLK_DSI_SELECT_DSI_MUX, (uint32_t)source)
 431              		.loc 1 245 0
 432 0016 01F01F01 		and	r1, r1, #31
 433              	.LVL41:
 434 001a 0B4B     		ldr	r3, .L51
 435 001c 00F1C002 		add	r2, r0, #192
 436 0020 43F82210 		str	r1, [r3, r2, lsl #2]
 246:Generated_Source\PSoC6\pdl\drivers\peripheral\sysclk/cy_sysclk.c ****             SRSS->CLK_PATH_SELECT[clkPath] = _VAL2FLD(SRSS_CLK_PATH_SELECT_PATH_MUX, (uint32_t)CY_S
 437              		.loc 1 246 0
 438 0024 D030     		adds	r0, r0, #208
 439              	.LVL42:
 440 0026 0422     		movs	r2, #4
 441 0028 43F82020 		str	r2, [r3, r0, lsl #2]
 247:Generated_Source\PSoC6\pdl\drivers\peripheral\sysclk/cy_sysclk.c ****         }
 248:Generated_Source\PSoC6\pdl\drivers\peripheral\sysclk/cy_sysclk.c ****         else
 249:Generated_Source\PSoC6\pdl\drivers\peripheral\sysclk/cy_sysclk.c ****         {
 250:Generated_Source\PSoC6\pdl\drivers\peripheral\sysclk/cy_sysclk.c ****             SRSS->CLK_PATH_SELECT[clkPath] = _VAL2FLD(SRSS_CLK_PATH_SELECT_PATH_MUX, (uint32_t)sour
 251:Generated_Source\PSoC6\pdl\drivers\peripheral\sysclk/cy_sysclk.c ****         }
 252:Generated_Source\PSoC6\pdl\drivers\peripheral\sysclk/cy_sysclk.c ****         retval = CY_SYSCLK_SUCCESS;
 442              		.loc 1 252 0
 443 002c 0020     		movs	r0, #0
 444              	.LVL43:
 445 002e 7047     		bx	lr
 446              	.LVL44:
 447              	.L48:
 250:Generated_Source\PSoC6\pdl\drivers\peripheral\sysclk/cy_sysclk.c ****         }
 448              		.loc 1 250 0
 449 0030 01F00701 		and	r1, r1, #7
 450              	.LVL45:
 451 0034 D030     		adds	r0, r0, #208
 452              	.LVL46:
 453 0036 044B     		ldr	r3, .L51
 454 0038 43F82010 		str	r1, [r3, r0, lsl #2]
 455              		.loc 1 252 0
 456 003c 0020     		movs	r0, #0
 457              	.LVL47:
 458 003e 7047     		bx	lr
 459              	.LVL48:
 460              	.L49:
 238:Generated_Source\PSoC6\pdl\drivers\peripheral\sysclk/cy_sysclk.c ****     if ((clkPath < SRSS_NUM_CLKPATH) &&
 461              		.loc 1 238 0
 462 0040 0248     		ldr	r0, .L51+4
 463              	.LVL49:
 464 0042 7047     		bx	lr
 465              	.LVL50:
 466              	.L50:
 467 0044 0148     		ldr	r0, .L51+4
 468              	.LVL51:
 253:Generated_Source\PSoC6\pdl\drivers\peripheral\sysclk/cy_sysclk.c ****     }
 254:Generated_Source\PSoC6\pdl\drivers\peripheral\sysclk/cy_sysclk.c ****     return (retval);
 255:Generated_Source\PSoC6\pdl\drivers\peripheral\sysclk/cy_sysclk.c **** }
 469              		.loc 1 255 0
 470 0046 7047     		bx	lr
ARM GAS  C:\Users\gjl\AppData\Local\Temp\ccNVysBX.s 			page 14


 471              	.L52:
 472              		.align	2
 473              	.L51:
 474 0048 00002640 		.word	1076232192
 475 004c 01004A00 		.word	4849665
 476              		.cfi_endproc
 477              	.LFE217:
 478              		.size	Cy_SysClk_ClkPathSetSource, .-Cy_SysClk_ClkPathSetSource
 479              		.section	.text.Cy_SysClk_ClkPathGetSource,"ax",%progbits
 480              		.align	2
 481              		.global	Cy_SysClk_ClkPathGetSource
 482              		.thumb
 483              		.thumb_func
 484              		.type	Cy_SysClk_ClkPathGetSource, %function
 485              	Cy_SysClk_ClkPathGetSource:
 486              	.LFB218:
 256:Generated_Source\PSoC6\pdl\drivers\peripheral\sysclk/cy_sysclk.c **** 
 257:Generated_Source\PSoC6\pdl\drivers\peripheral\sysclk/cy_sysclk.c **** /*******************************************************************************
 258:Generated_Source\PSoC6\pdl\drivers\peripheral\sysclk/cy_sysclk.c **** * Function Name: Cy_SysClk_ClkPathGetSource
 259:Generated_Source\PSoC6\pdl\drivers\peripheral\sysclk/cy_sysclk.c **** ****************************************************************************//**
 260:Generated_Source\PSoC6\pdl\drivers\peripheral\sysclk/cy_sysclk.c **** *
 261:Generated_Source\PSoC6\pdl\drivers\peripheral\sysclk/cy_sysclk.c **** * Reports which source is selected for the path mux.
 262:Generated_Source\PSoC6\pdl\drivers\peripheral\sysclk/cy_sysclk.c **** *
 263:Generated_Source\PSoC6\pdl\drivers\peripheral\sysclk/cy_sysclk.c **** * \param clkPath Selects which clock path to report; 0 is the first clock path,
 264:Generated_Source\PSoC6\pdl\drivers\peripheral\sysclk/cy_sysclk.c **** * which is the FLL.
 265:Generated_Source\PSoC6\pdl\drivers\peripheral\sysclk/cy_sysclk.c **** *
 266:Generated_Source\PSoC6\pdl\drivers\peripheral\sysclk/cy_sysclk.c **** * \return \ref cy_en_clkpath_in_sources_t
 267:Generated_Source\PSoC6\pdl\drivers\peripheral\sysclk/cy_sysclk.c **** *
 268:Generated_Source\PSoC6\pdl\drivers\peripheral\sysclk/cy_sysclk.c **** * \funcusage
 269:Generated_Source\PSoC6\pdl\drivers\peripheral\sysclk/cy_sysclk.c **** * \snippet sysclk/sysclk_v1_10_sut_01.cydsn/main_cm4.c snippet_Cy_SysClk_ClkPathGetSource
 270:Generated_Source\PSoC6\pdl\drivers\peripheral\sysclk/cy_sysclk.c **** *
 271:Generated_Source\PSoC6\pdl\drivers\peripheral\sysclk/cy_sysclk.c **** *******************************************************************************/
 272:Generated_Source\PSoC6\pdl\drivers\peripheral\sysclk/cy_sysclk.c **** cy_en_clkpath_in_sources_t Cy_SysClk_ClkPathGetSource(uint32_t clkPath)
 273:Generated_Source\PSoC6\pdl\drivers\peripheral\sysclk/cy_sysclk.c **** {
 487              		.loc 1 273 0
 488              		.cfi_startproc
 489              		@ args = 0, pretend = 0, frame = 0
 490              		@ frame_needed = 0, uses_anonymous_args = 0
 491              	.LVL52:
 492 0000 10B5     		push	{r4, lr}
 493              		.cfi_def_cfa_offset 8
 494              		.cfi_offset 4, -8
 495              		.cfi_offset 14, -4
 496 0002 0446     		mov	r4, r0
 274:Generated_Source\PSoC6\pdl\drivers\peripheral\sysclk/cy_sysclk.c ****     CY_ASSERT_L1(clkPath < SRSS_NUM_CLKPATH);
 497              		.loc 1 274 0
 498 0004 0428     		cmp	r0, #4
 499 0006 04D9     		bls	.L54
 500              		.loc 1 274 0 is_stmt 0 discriminator 1
 501 0008 4FF48971 		mov	r1, #274
 502 000c 0948     		ldr	r0, .L57
 503              	.LVL53:
 504 000e FFF7FEFF 		bl	Cy_SysLib_AssertFailed
 505              	.LVL54:
 506              	.L54:
 275:Generated_Source\PSoC6\pdl\drivers\peripheral\sysclk/cy_sysclk.c ****     cy_en_clkpath_in_sources_t rtnval =
 276:Generated_Source\PSoC6\pdl\drivers\peripheral\sysclk/cy_sysclk.c ****         (cy_en_clkpath_in_sources_t )_FLD2VAL(SRSS_CLK_PATH_SELECT_PATH_MUX, SRSS->CLK_PATH_SELECT[
ARM GAS  C:\Users\gjl\AppData\Local\Temp\ccNVysBX.s 			page 15


 507              		.loc 1 276 0 is_stmt 1
 508 0012 04F1D003 		add	r3, r4, #208
 509 0016 084A     		ldr	r2, .L57+4
 510 0018 52F82300 		ldr	r0, [r2, r3, lsl #2]
 275:Generated_Source\PSoC6\pdl\drivers\peripheral\sysclk/cy_sysclk.c ****     cy_en_clkpath_in_sources_t rtnval =
 511              		.loc 1 275 0
 512 001c 00F00700 		and	r0, r0, #7
 513              	.LVL55:
 277:Generated_Source\PSoC6\pdl\drivers\peripheral\sysclk/cy_sysclk.c ****     if (rtnval == CY_SYSCLK_CLKPATH_IN_DSIMUX)
 514              		.loc 1 277 0
 515 0020 0428     		cmp	r0, #4
 516 0022 06D1     		bne	.L55
 278:Generated_Source\PSoC6\pdl\drivers\peripheral\sysclk/cy_sysclk.c ****     {
 279:Generated_Source\PSoC6\pdl\drivers\peripheral\sysclk/cy_sysclk.c ****         rtnval = (cy_en_clkpath_in_sources_t)(CY_SYSCLK_CLKPATH_IN_DSI |
 280:Generated_Source\PSoC6\pdl\drivers\peripheral\sysclk/cy_sysclk.c ****                     (_FLD2VAL(SRSS_CLK_DSI_SELECT_DSI_MUX, SRSS->CLK_DSI_SELECT[clkPath])));
 517              		.loc 1 280 0
 518 0024 C034     		adds	r4, r4, #192
 519              	.LVL56:
 520 0026 52F82400 		ldr	r0, [r2, r4, lsl #2]
 521              	.LVL57:
 279:Generated_Source\PSoC6\pdl\drivers\peripheral\sysclk/cy_sysclk.c ****                     (_FLD2VAL(SRSS_CLK_DSI_SELECT_DSI_MUX, SRSS->CLK_DSI_SELECT[clkPath])));
 522              		.loc 1 279 0
 523 002a 00F01F00 		and	r0, r0, #31
 524 002e 40F48070 		orr	r0, r0, #256
 525              	.LVL58:
 526              	.L55:
 281:Generated_Source\PSoC6\pdl\drivers\peripheral\sysclk/cy_sysclk.c ****     }
 282:Generated_Source\PSoC6\pdl\drivers\peripheral\sysclk/cy_sysclk.c ****     return rtnval;
 283:Generated_Source\PSoC6\pdl\drivers\peripheral\sysclk/cy_sysclk.c **** }
 527              		.loc 1 283 0
 528 0032 10BD     		pop	{r4, pc}
 529              	.L58:
 530              		.align	2
 531              	.L57:
 532 0034 00000000 		.word	.LC3
 533 0038 00002640 		.word	1076232192
 534              		.cfi_endproc
 535              	.LFE218:
 536              		.size	Cy_SysClk_ClkPathGetSource, .-Cy_SysClk_ClkPathGetSource
 537              		.section	.text.Cy_SysClk_FllManualConfigure,"ax",%progbits
 538              		.align	2
 539              		.global	Cy_SysClk_FllManualConfigure
 540              		.thumb
 541              		.thumb_func
 542              		.type	Cy_SysClk_FllManualConfigure, %function
 543              	Cy_SysClk_FllManualConfigure:
 544              	.LFB220:
 284:Generated_Source\PSoC6\pdl\drivers\peripheral\sysclk/cy_sysclk.c **** /** \} group_sysclk_path_src_funcs */
 285:Generated_Source\PSoC6\pdl\drivers\peripheral\sysclk/cy_sysclk.c **** 
 286:Generated_Source\PSoC6\pdl\drivers\peripheral\sysclk/cy_sysclk.c **** 
 287:Generated_Source\PSoC6\pdl\drivers\peripheral\sysclk/cy_sysclk.c **** /* ========================================================================== */
 288:Generated_Source\PSoC6\pdl\drivers\peripheral\sysclk/cy_sysclk.c **** /* ===========================    FLL SECTION    ============================ */
 289:Generated_Source\PSoC6\pdl\drivers\peripheral\sysclk/cy_sysclk.c **** /* ========================================================================== */
 290:Generated_Source\PSoC6\pdl\drivers\peripheral\sysclk/cy_sysclk.c **** /* min and max FLL output frequencies, in Hz */
 291:Generated_Source\PSoC6\pdl\drivers\peripheral\sysclk/cy_sysclk.c **** #define  CY_SYSCLK_MIN_FLL_CCO_OUTPUT_FREQ  48000000ul
 292:Generated_Source\PSoC6\pdl\drivers\peripheral\sysclk/cy_sysclk.c **** #define  CY_SYSCLK_MIN_FLL_OUTPUT_FREQ     (CY_SYSCLK_MIN_FLL_CCO_OUTPUT_FREQ / 2u)
 293:Generated_Source\PSoC6\pdl\drivers\peripheral\sysclk/cy_sysclk.c **** #define  CY_SYSCLK_MAX_FLL_OUTPUT_FREQ     100000000ul
ARM GAS  C:\Users\gjl\AppData\Local\Temp\ccNVysBX.s 			page 16


 294:Generated_Source\PSoC6\pdl\drivers\peripheral\sysclk/cy_sysclk.c **** 
 295:Generated_Source\PSoC6\pdl\drivers\peripheral\sysclk/cy_sysclk.c **** /**
 296:Generated_Source\PSoC6\pdl\drivers\peripheral\sysclk/cy_sysclk.c **** * \addtogroup group_sysclk_fll_funcs
 297:Generated_Source\PSoC6\pdl\drivers\peripheral\sysclk/cy_sysclk.c **** * \{
 298:Generated_Source\PSoC6\pdl\drivers\peripheral\sysclk/cy_sysclk.c **** */
 299:Generated_Source\PSoC6\pdl\drivers\peripheral\sysclk/cy_sysclk.c **** /*******************************************************************************
 300:Generated_Source\PSoC6\pdl\drivers\peripheral\sysclk/cy_sysclk.c **** * Function Name: Cy_SysClk_FllConfigure
 301:Generated_Source\PSoC6\pdl\drivers\peripheral\sysclk/cy_sysclk.c **** ****************************************************************************//**
 302:Generated_Source\PSoC6\pdl\drivers\peripheral\sysclk/cy_sysclk.c **** *
 303:Generated_Source\PSoC6\pdl\drivers\peripheral\sysclk/cy_sysclk.c **** * Configures the FLL, for best accuracy optimization.
 304:Generated_Source\PSoC6\pdl\drivers\peripheral\sysclk/cy_sysclk.c **** *
 305:Generated_Source\PSoC6\pdl\drivers\peripheral\sysclk/cy_sysclk.c **** * \param inputFreq frequency of input source, in Hz
 306:Generated_Source\PSoC6\pdl\drivers\peripheral\sysclk/cy_sysclk.c **** *
 307:Generated_Source\PSoC6\pdl\drivers\peripheral\sysclk/cy_sysclk.c **** * \param outputFreq Desired FLL output frequency, in Hz. Allowable range is
 308:Generated_Source\PSoC6\pdl\drivers\peripheral\sysclk/cy_sysclk.c **** * 24 MHz to 100 MHz. In all cases, FLL_OUTPUT_DIV must be set; the output divide
 309:Generated_Source\PSoC6\pdl\drivers\peripheral\sysclk/cy_sysclk.c **** * by 2 option is required.
 310:Generated_Source\PSoC6\pdl\drivers\peripheral\sysclk/cy_sysclk.c **** *
 311:Generated_Source\PSoC6\pdl\drivers\peripheral\sysclk/cy_sysclk.c **** * \param outputMode \ref cy_en_fll_pll_output_mode_t
 312:Generated_Source\PSoC6\pdl\drivers\peripheral\sysclk/cy_sysclk.c **** * If output mode is bypass, then the output frequency equals the input source
 313:Generated_Source\PSoC6\pdl\drivers\peripheral\sysclk/cy_sysclk.c **** * frequency regardless of the frequency parameter values.
 314:Generated_Source\PSoC6\pdl\drivers\peripheral\sysclk/cy_sysclk.c **** *
 315:Generated_Source\PSoC6\pdl\drivers\peripheral\sysclk/cy_sysclk.c **** * \return  Error / status code:<br>
 316:Generated_Source\PSoC6\pdl\drivers\peripheral\sysclk/cy_sysclk.c **** * CY_SYSCLK_SUCCESS - FLL successfully configured<br>
 317:Generated_Source\PSoC6\pdl\drivers\peripheral\sysclk/cy_sysclk.c **** * CY_SYSCLK_INVALID_STATE - FLL not configured because it is enabled<br>
 318:Generated_Source\PSoC6\pdl\drivers\peripheral\sysclk/cy_sysclk.c **** * CY_SYSCLK_BAD_PARAM - desired output frequency is out of valid range
 319:Generated_Source\PSoC6\pdl\drivers\peripheral\sysclk/cy_sysclk.c **** *
 320:Generated_Source\PSoC6\pdl\drivers\peripheral\sysclk/cy_sysclk.c **** * \note
 321:Generated_Source\PSoC6\pdl\drivers\peripheral\sysclk/cy_sysclk.c **** * Call this function after changing the FLL input frequency, for example if
 322:Generated_Source\PSoC6\pdl\drivers\peripheral\sysclk/cy_sysclk.c **** * \ref Cy_SysClk_ClkPathSetSource() is called.
 323:Generated_Source\PSoC6\pdl\drivers\peripheral\sysclk/cy_sysclk.c **** * \note
 324:Generated_Source\PSoC6\pdl\drivers\peripheral\sysclk/cy_sysclk.c **** * Do not call this function when the FLL is enabled. If it is, then this function
 325:Generated_Source\PSoC6\pdl\drivers\peripheral\sysclk/cy_sysclk.c **** * returns immediately with an error return value and no register updates.
 326:Generated_Source\PSoC6\pdl\drivers\peripheral\sysclk/cy_sysclk.c **** *
 327:Generated_Source\PSoC6\pdl\drivers\peripheral\sysclk/cy_sysclk.c **** * \funcusage
 328:Generated_Source\PSoC6\pdl\drivers\peripheral\sysclk/cy_sysclk.c **** * \snippet sysclk/sysclk_v1_10_sut_01.cydsn/main_cm4.c snippet_Cy_SysClk_FllConfigure
 329:Generated_Source\PSoC6\pdl\drivers\peripheral\sysclk/cy_sysclk.c **** *
 330:Generated_Source\PSoC6\pdl\drivers\peripheral\sysclk/cy_sysclk.c **** *******************************************************************************/
 331:Generated_Source\PSoC6\pdl\drivers\peripheral\sysclk/cy_sysclk.c **** cy_en_sysclk_status_t Cy_SysClk_FllConfigure(uint32_t inputFreq, uint32_t outputFreq, cy_en_fll_pll
 332:Generated_Source\PSoC6\pdl\drivers\peripheral\sysclk/cy_sysclk.c **** {
 333:Generated_Source\PSoC6\pdl\drivers\peripheral\sysclk/cy_sysclk.c ****     cy_en_sysclk_status_t returnStatus = CY_SYSCLK_SUCCESS;
 334:Generated_Source\PSoC6\pdl\drivers\peripheral\sysclk/cy_sysclk.c **** 
 335:Generated_Source\PSoC6\pdl\drivers\peripheral\sysclk/cy_sysclk.c ****     /* check for errors */
 336:Generated_Source\PSoC6\pdl\drivers\peripheral\sysclk/cy_sysclk.c ****     if (_FLD2VAL(SRSS_CLK_FLL_CONFIG_FLL_ENABLE, SRSS->CLK_FLL_CONFIG) != 0u) /* 1 = enabled */
 337:Generated_Source\PSoC6\pdl\drivers\peripheral\sysclk/cy_sysclk.c ****     {
 338:Generated_Source\PSoC6\pdl\drivers\peripheral\sysclk/cy_sysclk.c ****         returnStatus = CY_SYSCLK_INVALID_STATE;
 339:Generated_Source\PSoC6\pdl\drivers\peripheral\sysclk/cy_sysclk.c ****     }
 340:Generated_Source\PSoC6\pdl\drivers\peripheral\sysclk/cy_sysclk.c ****     else if ((outputFreq < CY_SYSCLK_MIN_FLL_OUTPUT_FREQ) || (CY_SYSCLK_MAX_FLL_OUTPUT_FREQ < outpu
 341:Generated_Source\PSoC6\pdl\drivers\peripheral\sysclk/cy_sysclk.c ****     {
 342:Generated_Source\PSoC6\pdl\drivers\peripheral\sysclk/cy_sysclk.c ****         returnStatus = CY_SYSCLK_BAD_PARAM;
 343:Generated_Source\PSoC6\pdl\drivers\peripheral\sysclk/cy_sysclk.c ****     }
 344:Generated_Source\PSoC6\pdl\drivers\peripheral\sysclk/cy_sysclk.c ****     else if (((float32_t)outputFreq / (float32_t)inputFreq) < 2.2f) /* check output/input frequency
 345:Generated_Source\PSoC6\pdl\drivers\peripheral\sysclk/cy_sysclk.c ****     {
 346:Generated_Source\PSoC6\pdl\drivers\peripheral\sysclk/cy_sysclk.c ****         returnStatus = CY_SYSCLK_BAD_PARAM;
 347:Generated_Source\PSoC6\pdl\drivers\peripheral\sysclk/cy_sysclk.c ****     }
 348:Generated_Source\PSoC6\pdl\drivers\peripheral\sysclk/cy_sysclk.c ****     else
 349:Generated_Source\PSoC6\pdl\drivers\peripheral\sysclk/cy_sysclk.c ****     { /* return status is OK */
 350:Generated_Source\PSoC6\pdl\drivers\peripheral\sysclk/cy_sysclk.c ****     }
ARM GAS  C:\Users\gjl\AppData\Local\Temp\ccNVysBX.s 			page 17


 351:Generated_Source\PSoC6\pdl\drivers\peripheral\sysclk/cy_sysclk.c **** 
 352:Generated_Source\PSoC6\pdl\drivers\peripheral\sysclk/cy_sysclk.c ****     /* no error */
 353:Generated_Source\PSoC6\pdl\drivers\peripheral\sysclk/cy_sysclk.c ****     if (returnStatus == CY_SYSCLK_SUCCESS) /* no errors */
 354:Generated_Source\PSoC6\pdl\drivers\peripheral\sysclk/cy_sysclk.c ****     {
 355:Generated_Source\PSoC6\pdl\drivers\peripheral\sysclk/cy_sysclk.c ****         /* If output mode is bypass (input routed directly to output), then done.
 356:Generated_Source\PSoC6\pdl\drivers\peripheral\sysclk/cy_sysclk.c ****            The output frequency equals the input frequency regardless of the
 357:Generated_Source\PSoC6\pdl\drivers\peripheral\sysclk/cy_sysclk.c ****            frequency parameters. */
 358:Generated_Source\PSoC6\pdl\drivers\peripheral\sysclk/cy_sysclk.c ****         if (outputMode != CY_SYSCLK_FLLPLL_OUTPUT_INPUT)
 359:Generated_Source\PSoC6\pdl\drivers\peripheral\sysclk/cy_sysclk.c ****         {
 360:Generated_Source\PSoC6\pdl\drivers\peripheral\sysclk/cy_sysclk.c ****             cy_stc_fll_manual_config_t config;
 361:Generated_Source\PSoC6\pdl\drivers\peripheral\sysclk/cy_sysclk.c ****             uint32_t ccoFreq;
 362:Generated_Source\PSoC6\pdl\drivers\peripheral\sysclk/cy_sysclk.c ****             bool wcoSource = ((Cy_SysClk_ClkPathGetSource(0ul/*FLL*/) == CY_SYSCLK_CLKPATH_IN_WCO) 
 363:Generated_Source\PSoC6\pdl\drivers\peripheral\sysclk/cy_sysclk.c **** 
 364:Generated_Source\PSoC6\pdl\drivers\peripheral\sysclk/cy_sysclk.c ****             config.outputMode = outputMode;
 365:Generated_Source\PSoC6\pdl\drivers\peripheral\sysclk/cy_sysclk.c ****             /* 1. Output division by 2 is always required. */
 366:Generated_Source\PSoC6\pdl\drivers\peripheral\sysclk/cy_sysclk.c ****             config.enableOutputDiv = (bool)(1ul);
 367:Generated_Source\PSoC6\pdl\drivers\peripheral\sysclk/cy_sysclk.c ****             /* 2. Compute the target CCO frequency from the target output frequency and output divi
 368:Generated_Source\PSoC6\pdl\drivers\peripheral\sysclk/cy_sysclk.c ****             ccoFreq = outputFreq * ((uint32_t)(config.enableOutputDiv) + 1ul);
 369:Generated_Source\PSoC6\pdl\drivers\peripheral\sysclk/cy_sysclk.c ****             /* 3. Compute the CCO range value from the CCO frequency */
 370:Generated_Source\PSoC6\pdl\drivers\peripheral\sysclk/cy_sysclk.c ****             config.ccoRange = ((ccoFreq >= 150339200ul) ? CY_SYSCLK_FLL_CCO_RANGE4 :
 371:Generated_Source\PSoC6\pdl\drivers\peripheral\sysclk/cy_sysclk.c ****                                ((ccoFreq >= 113009380ul) ? CY_SYSCLK_FLL_CCO_RANGE3 :
 372:Generated_Source\PSoC6\pdl\drivers\peripheral\sysclk/cy_sysclk.c ****                                 ((ccoFreq >=  84948700ul) ? CY_SYSCLK_FLL_CCO_RANGE2 :
 373:Generated_Source\PSoC6\pdl\drivers\peripheral\sysclk/cy_sysclk.c ****                                  ((ccoFreq >=  63855600ul) ? CY_SYSCLK_FLL_CCO_RANGE1 : CY_SYSCLK_F
 374:Generated_Source\PSoC6\pdl\drivers\peripheral\sysclk/cy_sysclk.c ****             {
 375:Generated_Source\PSoC6\pdl\drivers\peripheral\sysclk/cy_sysclk.c ****                 /* constants indexed by ccoRange */
 376:Generated_Source\PSoC6\pdl\drivers\peripheral\sysclk/cy_sysclk.c ****                 const float32_t trimSteps[] = {0.0011034f, 0.001102f, 0.0011f, 0.0011f, 0.00117062f
 377:Generated_Source\PSoC6\pdl\drivers\peripheral\sysclk/cy_sysclk.c ****                 const float32_t fMargin[] = {43600000.0f, 58100000.0f, 77200000.0f, 103000000.0f, 1
 378:Generated_Source\PSoC6\pdl\drivers\peripheral\sysclk/cy_sysclk.c **** 
 379:Generated_Source\PSoC6\pdl\drivers\peripheral\sysclk/cy_sysclk.c ****             /* 4. Compute the FLL reference divider value.
 380:Generated_Source\PSoC6\pdl\drivers\peripheral\sysclk/cy_sysclk.c ****                   refDiv is a constant if the WCO is the FLL source, otherwise the formula is
 381:Generated_Source\PSoC6\pdl\drivers\peripheral\sysclk/cy_sysclk.c ****                   refDiv = ROUNDUP((inputFreq / outputFreq) * 250) */
 382:Generated_Source\PSoC6\pdl\drivers\peripheral\sysclk/cy_sysclk.c ****                 config.refDiv = wcoSource ? 19u :
 383:Generated_Source\PSoC6\pdl\drivers\peripheral\sysclk/cy_sysclk.c ****                                             ((uint16_t)ceilf(((float32_t)inputFreq / (float32_t)out
 384:Generated_Source\PSoC6\pdl\drivers\peripheral\sysclk/cy_sysclk.c ****             /* 5. Compute the FLL multiplier value.
 385:Generated_Source\PSoC6\pdl\drivers\peripheral\sysclk/cy_sysclk.c ****                   Formula is fllMult = ccoFreq / (inputFreq / refDiv) */
 386:Generated_Source\PSoC6\pdl\drivers\peripheral\sysclk/cy_sysclk.c ****                 config.fllMult = CY_SYSCLK_DIV_ROUNDUP(ccoFreq, CY_SYSCLK_DIV_ROUND(inputFreq, conf
 387:Generated_Source\PSoC6\pdl\drivers\peripheral\sysclk/cy_sysclk.c ****             /* 6. Compute the lock tolerance.
 388:Generated_Source\PSoC6\pdl\drivers\peripheral\sysclk/cy_sysclk.c ****                   Formula is lock tolerance = 1.5 * fllMult * (((1 + CCO accuracy) / (1 - source cl
 389:Generated_Source\PSoC6\pdl\drivers\peripheral\sysclk/cy_sysclk.c ****                   We assume CCO accuracy is 0.25%.
 390:Generated_Source\PSoC6\pdl\drivers\peripheral\sysclk/cy_sysclk.c ****                   We assume the source clock accuracy = 1%. This is the accuracy of the IMO.
 391:Generated_Source\PSoC6\pdl\drivers\peripheral\sysclk/cy_sysclk.c ****                   Therefore the formula is lock tolerance = 1.5 * fllMult * 0.012626 = 0.018939 * f
 392:Generated_Source\PSoC6\pdl\drivers\peripheral\sysclk/cy_sysclk.c ****                 config.lockTolerance = (uint16_t)ceilf((float32_t)(config.fllMult) * 0.018939f);
 393:Generated_Source\PSoC6\pdl\drivers\peripheral\sysclk/cy_sysclk.c ****             /* 7. Compute the CCO igain and pgain. */
 394:Generated_Source\PSoC6\pdl\drivers\peripheral\sysclk/cy_sysclk.c ****                 {
 395:Generated_Source\PSoC6\pdl\drivers\peripheral\sysclk/cy_sysclk.c ****                     /* intermediate parameters */
 396:Generated_Source\PSoC6\pdl\drivers\peripheral\sysclk/cy_sysclk.c ****                     float32_t kcco = (trimSteps[config.ccoRange] * fMargin[config.ccoRange]) / 1000
 397:Generated_Source\PSoC6\pdl\drivers\peripheral\sysclk/cy_sysclk.c ****                     float32_t ki_p = (0.85f / (kcco * ((float32_t)(config.refDiv) / (float32_t)inpu
 398:Generated_Source\PSoC6\pdl\drivers\peripheral\sysclk/cy_sysclk.c **** 
 399:Generated_Source\PSoC6\pdl\drivers\peripheral\sysclk/cy_sysclk.c ****                     /* igain and pgain bitfield values correspond to: 1/256, 1/128, ..., 4, 8 */
 400:Generated_Source\PSoC6\pdl\drivers\peripheral\sysclk/cy_sysclk.c ****                     const float32_t gains[] = {0.00390625f, 0.0078125f, 0.015625f, 0.03125f, 0.0625
 401:Generated_Source\PSoC6\pdl\drivers\peripheral\sysclk/cy_sysclk.c ****                                                0.5f, 1.0f, 2.0f, 4.0f, 8.0f};
 402:Generated_Source\PSoC6\pdl\drivers\peripheral\sysclk/cy_sysclk.c **** 
 403:Generated_Source\PSoC6\pdl\drivers\peripheral\sysclk/cy_sysclk.c ****                     /* find the largest IGAIN value that is less than or equal to ki_p */
 404:Generated_Source\PSoC6\pdl\drivers\peripheral\sysclk/cy_sysclk.c ****                     for(config.igain = CY_SYSCLK_N_ELMTS(gains) - 1ul;
 405:Generated_Source\PSoC6\pdl\drivers\peripheral\sysclk/cy_sysclk.c ****                         (gains[config.igain] > ki_p) && (config.igain != 0ul); config.igain--){}
 406:Generated_Source\PSoC6\pdl\drivers\peripheral\sysclk/cy_sysclk.c ****                     /* decrement igain if the WCO is the FLL source */
 407:Generated_Source\PSoC6\pdl\drivers\peripheral\sysclk/cy_sysclk.c ****                     if (wcoSource && (config.igain > 0u))
ARM GAS  C:\Users\gjl\AppData\Local\Temp\ccNVysBX.s 			page 18


 408:Generated_Source\PSoC6\pdl\drivers\peripheral\sysclk/cy_sysclk.c ****                     {
 409:Generated_Source\PSoC6\pdl\drivers\peripheral\sysclk/cy_sysclk.c ****                         config.igain--;
 410:Generated_Source\PSoC6\pdl\drivers\peripheral\sysclk/cy_sysclk.c ****                     }
 411:Generated_Source\PSoC6\pdl\drivers\peripheral\sysclk/cy_sysclk.c ****                     /* then find the largest PGAIN value that is less than or equal to ki_p - gains
 412:Generated_Source\PSoC6\pdl\drivers\peripheral\sysclk/cy_sysclk.c ****                     for(config.pgain = CY_SYSCLK_N_ELMTS(gains) - 1ul;
 413:Generated_Source\PSoC6\pdl\drivers\peripheral\sysclk/cy_sysclk.c ****                         (gains[config.pgain] > (ki_p - gains[config.igain])) && (config.pgain != 0u
 414:Generated_Source\PSoC6\pdl\drivers\peripheral\sysclk/cy_sysclk.c ****                         config.pgain--){}
 415:Generated_Source\PSoC6\pdl\drivers\peripheral\sysclk/cy_sysclk.c ****                     /* decrement pgain if the WCO is the FLL source */
 416:Generated_Source\PSoC6\pdl\drivers\peripheral\sysclk/cy_sysclk.c ****                     if (wcoSource && (config.pgain > 0u))
 417:Generated_Source\PSoC6\pdl\drivers\peripheral\sysclk/cy_sysclk.c ****                     {
 418:Generated_Source\PSoC6\pdl\drivers\peripheral\sysclk/cy_sysclk.c ****                         config.pgain--;
 419:Generated_Source\PSoC6\pdl\drivers\peripheral\sysclk/cy_sysclk.c ****                     }
 420:Generated_Source\PSoC6\pdl\drivers\peripheral\sysclk/cy_sysclk.c ****                 }
 421:Generated_Source\PSoC6\pdl\drivers\peripheral\sysclk/cy_sysclk.c ****             /* 8. Compute the CCO_FREQ bits in CLK_FLL_CONFIG4 register. */
 422:Generated_Source\PSoC6\pdl\drivers\peripheral\sysclk/cy_sysclk.c ****                 config.cco_Freq = (uint16_t)
 423:Generated_Source\PSoC6\pdl\drivers\peripheral\sysclk/cy_sysclk.c ****                     (floor(log((float32_t)ccoFreq / fMargin[config.ccoRange]) /
 424:Generated_Source\PSoC6\pdl\drivers\peripheral\sysclk/cy_sysclk.c ****                            log(1.0f + trimSteps[config.ccoRange])));
 425:Generated_Source\PSoC6\pdl\drivers\peripheral\sysclk/cy_sysclk.c ****             }
 426:Generated_Source\PSoC6\pdl\drivers\peripheral\sysclk/cy_sysclk.c ****             /* 9. Compute the settling count, using a 1-usec settling time.
 427:Generated_Source\PSoC6\pdl\drivers\peripheral\sysclk/cy_sysclk.c ****                   Use a constant if the WCO is the FLL source. */
 428:Generated_Source\PSoC6\pdl\drivers\peripheral\sysclk/cy_sysclk.c ****             {
 429:Generated_Source\PSoC6\pdl\drivers\peripheral\sysclk/cy_sysclk.c ****                 float32_t ttref   = (float32_t)config.refDiv / ((float32_t)inputFreq / 1000.0f);
 430:Generated_Source\PSoC6\pdl\drivers\peripheral\sysclk/cy_sysclk.c ****                 float32_t testval = 6000.0f / (float32_t)outputFreq;
 431:Generated_Source\PSoC6\pdl\drivers\peripheral\sysclk/cy_sysclk.c ****                 float32_t divval  = ceil((float32_t)inputFreq * 0.000001f);
 432:Generated_Source\PSoC6\pdl\drivers\peripheral\sysclk/cy_sysclk.c ****                 float32_t altval  = ceil((divval / ttref) + 1.0f);
 433:Generated_Source\PSoC6\pdl\drivers\peripheral\sysclk/cy_sysclk.c ****                 config.settlingCount = (uint16)(wcoSource ? 200u : 
 434:Generated_Source\PSoC6\pdl\drivers\peripheral\sysclk/cy_sysclk.c ****                                                 ((ttref > testval) ? divval :
 435:Generated_Source\PSoC6\pdl\drivers\peripheral\sysclk/cy_sysclk.c ****                                                  ((divval > altval) ? divval : altval)));
 436:Generated_Source\PSoC6\pdl\drivers\peripheral\sysclk/cy_sysclk.c ****             }
 437:Generated_Source\PSoC6\pdl\drivers\peripheral\sysclk/cy_sysclk.c ****             /* configure FLL based on calculated values */
 438:Generated_Source\PSoC6\pdl\drivers\peripheral\sysclk/cy_sysclk.c ****             returnStatus = Cy_SysClk_FllManualConfigure(&config);
 439:Generated_Source\PSoC6\pdl\drivers\peripheral\sysclk/cy_sysclk.c ****         } /* if not bypass output mode */
 440:Generated_Source\PSoC6\pdl\drivers\peripheral\sysclk/cy_sysclk.c **** 
 441:Generated_Source\PSoC6\pdl\drivers\peripheral\sysclk/cy_sysclk.c ****         else
 442:Generated_Source\PSoC6\pdl\drivers\peripheral\sysclk/cy_sysclk.c ****         { /* bypass mode */
 443:Generated_Source\PSoC6\pdl\drivers\peripheral\sysclk/cy_sysclk.c ****             /* update CLK_FLL_CONFIG3 register with divide by 2 parameter */
 444:Generated_Source\PSoC6\pdl\drivers\peripheral\sysclk/cy_sysclk.c ****             CY_SYSCLK_CLR_SET(SRSS->CLK_FLL_CONFIG3, SRSS_CLK_FLL_CONFIG3_BYPASS_SEL, (uint32_t)out
 445:Generated_Source\PSoC6\pdl\drivers\peripheral\sysclk/cy_sysclk.c ****         }
 446:Generated_Source\PSoC6\pdl\drivers\peripheral\sysclk/cy_sysclk.c ****     } /* if no error */
 447:Generated_Source\PSoC6\pdl\drivers\peripheral\sysclk/cy_sysclk.c **** 
 448:Generated_Source\PSoC6\pdl\drivers\peripheral\sysclk/cy_sysclk.c ****     return (returnStatus);
 449:Generated_Source\PSoC6\pdl\drivers\peripheral\sysclk/cy_sysclk.c **** }
 450:Generated_Source\PSoC6\pdl\drivers\peripheral\sysclk/cy_sysclk.c **** 
 451:Generated_Source\PSoC6\pdl\drivers\peripheral\sysclk/cy_sysclk.c **** /*******************************************************************************
 452:Generated_Source\PSoC6\pdl\drivers\peripheral\sysclk/cy_sysclk.c **** * Function Name: Cy_SysClk_FllManualConfigure
 453:Generated_Source\PSoC6\pdl\drivers\peripheral\sysclk/cy_sysclk.c **** ****************************************************************************//**
 454:Generated_Source\PSoC6\pdl\drivers\peripheral\sysclk/cy_sysclk.c **** *
 455:Generated_Source\PSoC6\pdl\drivers\peripheral\sysclk/cy_sysclk.c **** * Manually configures the FLL based on user inputs.
 456:Generated_Source\PSoC6\pdl\drivers\peripheral\sysclk/cy_sysclk.c **** *
 457:Generated_Source\PSoC6\pdl\drivers\peripheral\sysclk/cy_sysclk.c **** * \param config \ref cy_stc_fll_manual_config_t
 458:Generated_Source\PSoC6\pdl\drivers\peripheral\sysclk/cy_sysclk.c **** *
 459:Generated_Source\PSoC6\pdl\drivers\peripheral\sysclk/cy_sysclk.c **** * \return  Error / status code:<br>
 460:Generated_Source\PSoC6\pdl\drivers\peripheral\sysclk/cy_sysclk.c **** * CY_SYSCLK_SUCCESS - FLL successfully configured<br>
 461:Generated_Source\PSoC6\pdl\drivers\peripheral\sysclk/cy_sysclk.c **** * CY_SYSCLK_INVALID_STATE - FLL not configured because it is enabled
 462:Generated_Source\PSoC6\pdl\drivers\peripheral\sysclk/cy_sysclk.c **** *
 463:Generated_Source\PSoC6\pdl\drivers\peripheral\sysclk/cy_sysclk.c **** * \note
 464:Generated_Source\PSoC6\pdl\drivers\peripheral\sysclk/cy_sysclk.c **** * Call this function after changing the FLL input frequency, for example if
ARM GAS  C:\Users\gjl\AppData\Local\Temp\ccNVysBX.s 			page 19


 465:Generated_Source\PSoC6\pdl\drivers\peripheral\sysclk/cy_sysclk.c **** * \ref Cy_SysClk_ClkPathSetSource() is called.
 466:Generated_Source\PSoC6\pdl\drivers\peripheral\sysclk/cy_sysclk.c **** * \note
 467:Generated_Source\PSoC6\pdl\drivers\peripheral\sysclk/cy_sysclk.c **** * Do not call this function when the FLL is enabled. If it is, then this function
 468:Generated_Source\PSoC6\pdl\drivers\peripheral\sysclk/cy_sysclk.c **** * returns immediately with an error return value and no register updates.
 469:Generated_Source\PSoC6\pdl\drivers\peripheral\sysclk/cy_sysclk.c **** *
 470:Generated_Source\PSoC6\pdl\drivers\peripheral\sysclk/cy_sysclk.c **** * \funcusage
 471:Generated_Source\PSoC6\pdl\drivers\peripheral\sysclk/cy_sysclk.c **** * \snippet sysclk/sysclk_v1_10_sut_01.cydsn/main_cm4.c snippet_Cy_SysClk_FllManualConfigure
 472:Generated_Source\PSoC6\pdl\drivers\peripheral\sysclk/cy_sysclk.c **** *
 473:Generated_Source\PSoC6\pdl\drivers\peripheral\sysclk/cy_sysclk.c **** *******************************************************************************/
 474:Generated_Source\PSoC6\pdl\drivers\peripheral\sysclk/cy_sysclk.c **** cy_en_sysclk_status_t Cy_SysClk_FllManualConfigure(const cy_stc_fll_manual_config_t *config)
 475:Generated_Source\PSoC6\pdl\drivers\peripheral\sysclk/cy_sysclk.c **** {
 545              		.loc 1 475 0
 546              		.cfi_startproc
 547              		@ args = 0, pretend = 0, frame = 0
 548              		@ frame_needed = 0, uses_anonymous_args = 0
 549              	.LVL59:
 550 0000 38B5     		push	{r3, r4, r5, lr}
 551              		.cfi_def_cfa_offset 16
 552              		.cfi_offset 3, -16
 553              		.cfi_offset 4, -12
 554              		.cfi_offset 5, -8
 555              		.cfi_offset 14, -4
 556              	.LVL60:
 476:Generated_Source\PSoC6\pdl\drivers\peripheral\sysclk/cy_sysclk.c ****     cy_en_sysclk_status_t returnStatus = CY_SYSCLK_SUCCESS;
 477:Generated_Source\PSoC6\pdl\drivers\peripheral\sysclk/cy_sysclk.c **** 
 478:Generated_Source\PSoC6\pdl\drivers\peripheral\sysclk/cy_sysclk.c ****     CY_ASSERT_L1(config != NULL);
 557              		.loc 1 478 0
 558 0002 0446     		mov	r4, r0
 559 0004 20B9     		cbnz	r0, .L60
 560              		.loc 1 478 0 is_stmt 0 discriminator 1
 561 0006 4FF4EF71 		mov	r1, #478
 562 000a 4C48     		ldr	r0, .L73
 563              	.LVL61:
 564 000c FFF7FEFF 		bl	Cy_SysLib_AssertFailed
 565              	.LVL62:
 566              	.L60:
 479:Generated_Source\PSoC6\pdl\drivers\peripheral\sysclk/cy_sysclk.c ****     /* check for errors */
 480:Generated_Source\PSoC6\pdl\drivers\peripheral\sysclk/cy_sysclk.c ****     if (_FLD2VAL(SRSS_CLK_FLL_CONFIG_FLL_ENABLE, SRSS->CLK_FLL_CONFIG) != 0u) /* 1 = enabled */
 567              		.loc 1 480 0 is_stmt 1
 568 0010 4B4B     		ldr	r3, .L73+4
 569 0012 D3F88035 		ldr	r3, [r3, #1408]
 570 0016 002B     		cmp	r3, #0
 571 0018 01DB     		blt	.L71
 476:Generated_Source\PSoC6\pdl\drivers\peripheral\sysclk/cy_sysclk.c ****     cy_en_sysclk_status_t returnStatus = CY_SYSCLK_SUCCESS;
 572              		.loc 1 476 0
 573 001a 0025     		movs	r5, #0
 574 001c 00E0     		b	.L61
 575              	.L71:
 481:Generated_Source\PSoC6\pdl\drivers\peripheral\sysclk/cy_sysclk.c ****     {
 482:Generated_Source\PSoC6\pdl\drivers\peripheral\sysclk/cy_sysclk.c ****         returnStatus = CY_SYSCLK_INVALID_STATE;
 576              		.loc 1 482 0
 577 001e 494D     		ldr	r5, .L73+8
 578              	.L61:
 579              	.LVL63:
 483:Generated_Source\PSoC6\pdl\drivers\peripheral\sysclk/cy_sysclk.c ****     }
 484:Generated_Source\PSoC6\pdl\drivers\peripheral\sysclk/cy_sysclk.c ****     else
 485:Generated_Source\PSoC6\pdl\drivers\peripheral\sysclk/cy_sysclk.c ****     { /* return status is OK */
ARM GAS  C:\Users\gjl\AppData\Local\Temp\ccNVysBX.s 			page 20


 486:Generated_Source\PSoC6\pdl\drivers\peripheral\sysclk/cy_sysclk.c ****     }
 487:Generated_Source\PSoC6\pdl\drivers\peripheral\sysclk/cy_sysclk.c **** 
 488:Generated_Source\PSoC6\pdl\drivers\peripheral\sysclk/cy_sysclk.c ****     /* no error */
 489:Generated_Source\PSoC6\pdl\drivers\peripheral\sysclk/cy_sysclk.c ****     if (returnStatus == CY_SYSCLK_SUCCESS) /* no errors */
 580              		.loc 1 489 0
 581 0020 002D     		cmp	r5, #0
 582 0022 40F08880 		bne	.L62
 583              	.LBB32:
 490:Generated_Source\PSoC6\pdl\drivers\peripheral\sysclk/cy_sysclk.c ****     {
 491:Generated_Source\PSoC6\pdl\drivers\peripheral\sysclk/cy_sysclk.c ****         /* update CLK_FLL_CONFIG register with 2 parameters; FLL_ENABLE is already 0 */
 492:Generated_Source\PSoC6\pdl\drivers\peripheral\sysclk/cy_sysclk.c ****         /* asserts just check for bitfield overflow */
 493:Generated_Source\PSoC6\pdl\drivers\peripheral\sysclk/cy_sysclk.c ****         CY_ASSERT_L1(config->fllMult <= (SRSS_CLK_FLL_CONFIG_FLL_MULT_Msk >> SRSS_CLK_FLL_CONFIG_FL
 584              		.loc 1 493 0
 585 0026 2368     		ldr	r3, [r4]
 586 0028 B3F5802F 		cmp	r3, #262144
 587 002c 04D3     		bcc	.L63
 588              		.loc 1 493 0 is_stmt 0 discriminator 1
 589 002e 40F2ED11 		movw	r1, #493
 590 0032 4248     		ldr	r0, .L73
 591 0034 FFF7FEFF 		bl	Cy_SysLib_AssertFailed
 592              	.LVL64:
 593              	.L63:
 494:Generated_Source\PSoC6\pdl\drivers\peripheral\sysclk/cy_sysclk.c ****         uint32_t reg = _VAL2FLD(SRSS_CLK_FLL_CONFIG_FLL_MULT, config->fllMult);
 594              		.loc 1 494 0 is_stmt 1
 595 0038 2368     		ldr	r3, [r4]
 596 003a C3F31102 		ubfx	r2, r3, #0, #18
 597              	.LVL65:
 495:Generated_Source\PSoC6\pdl\drivers\peripheral\sysclk/cy_sysclk.c ****         /* no assert check for enableOutputDiv, because it's a type boolean */
 496:Generated_Source\PSoC6\pdl\drivers\peripheral\sysclk/cy_sysclk.c ****         SRSS->CLK_FLL_CONFIG = reg | _VAL2FLD(SRSS_CLK_FLL_CONFIG_FLL_OUTPUT_DIV, (uint32_t)(config
 598              		.loc 1 496 0
 599 003e E379     		ldrb	r3, [r4, #7]	@ zero_extendqisi2
 600 0040 1B06     		lsls	r3, r3, #24
 601 0042 03F08073 		and	r3, r3, #16777216
 602 0046 1343     		orrs	r3, r3, r2
 603 0048 3D4A     		ldr	r2, .L73+4
 604              	.LVL66:
 605 004a C2F88035 		str	r3, [r2, #1408]
 606              	.LVL67:
 497:Generated_Source\PSoC6\pdl\drivers\peripheral\sysclk/cy_sysclk.c **** 
 498:Generated_Source\PSoC6\pdl\drivers\peripheral\sysclk/cy_sysclk.c ****         /* update CLK_FLL_CONFIG2 register with 2 parameters */
 499:Generated_Source\PSoC6\pdl\drivers\peripheral\sysclk/cy_sysclk.c ****         /* asserts just check for bitfield overflow */
 500:Generated_Source\PSoC6\pdl\drivers\peripheral\sysclk/cy_sysclk.c ****         CY_ASSERT_L1(config->refDiv <= (SRSS_CLK_FLL_CONFIG2_FLL_REF_DIV_Msk >> SRSS_CLK_FLL_CONFIG
 607              		.loc 1 500 0
 608 004e A388     		ldrh	r3, [r4, #4]
 609 0050 B3F5005F 		cmp	r3, #8192
 610 0054 04D3     		bcc	.L64
 611              		.loc 1 500 0 is_stmt 0 discriminator 1
 612 0056 4FF4FA71 		mov	r1, #500
 613 005a 3848     		ldr	r0, .L73
 614 005c FFF7FEFF 		bl	Cy_SysLib_AssertFailed
 615              	.LVL68:
 616              	.L64:
 501:Generated_Source\PSoC6\pdl\drivers\peripheral\sysclk/cy_sysclk.c ****         CY_ASSERT_L1(config->lockTolerance <= (SRSS_CLK_FLL_CONFIG2_LOCK_TOL_Msk >> SRSS_CLK_FLL_CO
 617              		.loc 1 501 0 is_stmt 1
 618 0060 2389     		ldrh	r3, [r4, #8]
 619 0062 B3F5007F 		cmp	r3, #512
 620 0066 04D3     		bcc	.L65
ARM GAS  C:\Users\gjl\AppData\Local\Temp\ccNVysBX.s 			page 21


 621              		.loc 1 501 0 is_stmt 0 discriminator 1
 622 0068 40F2F511 		movw	r1, #501
 623 006c 3348     		ldr	r0, .L73
 624 006e FFF7FEFF 		bl	Cy_SysLib_AssertFailed
 625              	.LVL69:
 626              	.L65:
 502:Generated_Source\PSoC6\pdl\drivers\peripheral\sysclk/cy_sysclk.c ****         reg = _VAL2FLD(SRSS_CLK_FLL_CONFIG2_FLL_REF_DIV, config->refDiv);
 627              		.loc 1 502 0 is_stmt 1
 628 0072 A388     		ldrh	r3, [r4, #4]
 629 0074 C3F30C01 		ubfx	r1, r3, #0, #13
 630              	.LVL70:
 503:Generated_Source\PSoC6\pdl\drivers\peripheral\sysclk/cy_sysclk.c ****         SRSS->CLK_FLL_CONFIG2 = reg | _VAL2FLD(SRSS_CLK_FLL_CONFIG2_LOCK_TOL, config->lockTolerance
 631              		.loc 1 503 0
 632 0078 2389     		ldrh	r3, [r4, #8]
 633 007a 334A     		ldr	r2, .L73+12
 634 007c 02EA0343 		and	r3, r2, r3, lsl #16
 635 0080 0B43     		orrs	r3, r3, r1
 636 0082 2F4A     		ldr	r2, .L73+4
 637 0084 C2F88435 		str	r3, [r2, #1412]
 504:Generated_Source\PSoC6\pdl\drivers\peripheral\sysclk/cy_sysclk.c **** 
 505:Generated_Source\PSoC6\pdl\drivers\peripheral\sysclk/cy_sysclk.c ****         /* update CLK_FLL_CONFIG3 register with 4 parameters */
 506:Generated_Source\PSoC6\pdl\drivers\peripheral\sysclk/cy_sysclk.c ****         /* asserts just check for bitfield overflow */
 507:Generated_Source\PSoC6\pdl\drivers\peripheral\sysclk/cy_sysclk.c ****         CY_ASSERT_L1(config->igain <= (SRSS_CLK_FLL_CONFIG3_FLL_LF_IGAIN_Msk >> SRSS_CLK_FLL_CONFIG
 638              		.loc 1 507 0
 639 0088 A37A     		ldrb	r3, [r4, #10]	@ zero_extendqisi2
 640 008a 0F2B     		cmp	r3, #15
 641 008c 04D9     		bls	.L66
 642              		.loc 1 507 0 is_stmt 0 discriminator 1
 643 008e 40F2FB11 		movw	r1, #507
 644              	.LVL71:
 645 0092 2A48     		ldr	r0, .L73
 646 0094 FFF7FEFF 		bl	Cy_SysLib_AssertFailed
 647              	.LVL72:
 648              	.L66:
 508:Generated_Source\PSoC6\pdl\drivers\peripheral\sysclk/cy_sysclk.c ****         CY_ASSERT_L1(config->pgain <= (SRSS_CLK_FLL_CONFIG3_FLL_LF_PGAIN_Msk >> SRSS_CLK_FLL_CONFIG
 649              		.loc 1 508 0 is_stmt 1
 650 0098 E37A     		ldrb	r3, [r4, #11]	@ zero_extendqisi2
 651 009a 0F2B     		cmp	r3, #15
 652 009c 04D9     		bls	.L67
 653              		.loc 1 508 0 is_stmt 0 discriminator 1
 654 009e 4FF4FE71 		mov	r1, #508
 655 00a2 2648     		ldr	r0, .L73
 656 00a4 FFF7FEFF 		bl	Cy_SysLib_AssertFailed
 657              	.LVL73:
 658              	.L67:
 509:Generated_Source\PSoC6\pdl\drivers\peripheral\sysclk/cy_sysclk.c ****         CY_ASSERT_L1(config->settlingCount <= (SRSS_CLK_FLL_CONFIG3_SETTLING_COUNT_Msk >> SRSS_CLK_
 659              		.loc 1 509 0 is_stmt 1
 660 00a8 A389     		ldrh	r3, [r4, #12]
 661 00aa B3F5005F 		cmp	r3, #8192
 662 00ae 04D3     		bcc	.L68
 663              		.loc 1 509 0 is_stmt 0 discriminator 1
 664 00b0 40F2FD11 		movw	r1, #509
 665 00b4 2148     		ldr	r0, .L73
 666 00b6 FFF7FEFF 		bl	Cy_SysLib_AssertFailed
 667              	.LVL74:
 668              	.L68:
 510:Generated_Source\PSoC6\pdl\drivers\peripheral\sysclk/cy_sysclk.c ****         reg  = _VAL2FLD(SRSS_CLK_FLL_CONFIG3_FLL_LF_IGAIN, config->igain);
ARM GAS  C:\Users\gjl\AppData\Local\Temp\ccNVysBX.s 			page 22


 669              		.loc 1 510 0 is_stmt 1
 670 00ba A27A     		ldrb	r2, [r4, #10]	@ zero_extendqisi2
 671 00bc 02F00F02 		and	r2, r2, #15
 672              	.LVL75:
 511:Generated_Source\PSoC6\pdl\drivers\peripheral\sysclk/cy_sysclk.c ****         reg |= _VAL2FLD(SRSS_CLK_FLL_CONFIG3_FLL_LF_PGAIN, config->pgain);
 673              		.loc 1 511 0
 674 00c0 E37A     		ldrb	r3, [r4, #11]	@ zero_extendqisi2
 675 00c2 1B01     		lsls	r3, r3, #4
 676 00c4 DBB2     		uxtb	r3, r3
 677 00c6 1A43     		orrs	r2, r2, r3
 678              	.LVL76:
 512:Generated_Source\PSoC6\pdl\drivers\peripheral\sysclk/cy_sysclk.c ****         reg |= _VAL2FLD(SRSS_CLK_FLL_CONFIG3_SETTLING_COUNT, config->settlingCount);
 679              		.loc 1 512 0
 680 00c8 A189     		ldrh	r1, [r4, #12]
 681 00ca 204B     		ldr	r3, .L73+16
 682 00cc 03EA0123 		and	r3, r3, r1, lsl #8
 683 00d0 1A43     		orrs	r2, r2, r3
 684              	.LVL77:
 513:Generated_Source\PSoC6\pdl\drivers\peripheral\sysclk/cy_sysclk.c ****         SRSS->CLK_FLL_CONFIG3 = reg | _VAL2FLD(SRSS_CLK_FLL_CONFIG3_BYPASS_SEL, (uint32_t)(config->
 685              		.loc 1 513 0
 686 00d2 A37B     		ldrb	r3, [r4, #14]	@ zero_extendqisi2
 687 00d4 1B07     		lsls	r3, r3, #28
 688 00d6 03F04053 		and	r3, r3, #805306368
 689 00da 1343     		orrs	r3, r3, r2
 690 00dc 184A     		ldr	r2, .L73+4
 691              	.LVL78:
 692 00de C2F88835 		str	r3, [r2, #1416]
 693              	.LVL79:
 514:Generated_Source\PSoC6\pdl\drivers\peripheral\sysclk/cy_sysclk.c **** 
 515:Generated_Source\PSoC6\pdl\drivers\peripheral\sysclk/cy_sysclk.c ****         /* update CLK_FLL_CONFIG4 register with 1 parameter; preserve other bits */
 516:Generated_Source\PSoC6\pdl\drivers\peripheral\sysclk/cy_sysclk.c ****         /* asserts just check for bitfield overflow */
 517:Generated_Source\PSoC6\pdl\drivers\peripheral\sysclk/cy_sysclk.c ****         CY_ASSERT_L1(config->ccoRange <= (SRSS_CLK_FLL_CONFIG4_CCO_RANGE_Msk >> SRSS_CLK_FLL_CONFIG
 694              		.loc 1 517 0
 695 00e2 A379     		ldrb	r3, [r4, #6]	@ zero_extendqisi2
 696 00e4 072B     		cmp	r3, #7
 697 00e6 04D9     		bls	.L69
 698              		.loc 1 517 0 is_stmt 0 discriminator 1
 699 00e8 40F20521 		movw	r1, #517
 700 00ec 1348     		ldr	r0, .L73
 701 00ee FFF7FEFF 		bl	Cy_SysLib_AssertFailed
 702              	.LVL80:
 703              	.L69:
 518:Generated_Source\PSoC6\pdl\drivers\peripheral\sysclk/cy_sysclk.c ****         CY_ASSERT_L1(config->cco_Freq <= (SRSS_CLK_FLL_CONFIG4_CCO_FREQ_Msk >> SRSS_CLK_FLL_CONFIG4
 704              		.loc 1 518 0 is_stmt 1
 705 00f2 238A     		ldrh	r3, [r4, #16]
 706 00f4 B3F5007F 		cmp	r3, #512
 707 00f8 04D3     		bcc	.L70
 708              		.loc 1 518 0 is_stmt 0 discriminator 1
 709 00fa 40F20621 		movw	r1, #518
 710 00fe 0F48     		ldr	r0, .L73
 711 0100 FFF7FEFF 		bl	Cy_SysLib_AssertFailed
 712              	.LVL81:
 713              	.L70:
 519:Generated_Source\PSoC6\pdl\drivers\peripheral\sysclk/cy_sysclk.c ****         CY_SYSCLK_CLR_SET(SRSS->CLK_FLL_CONFIG4, SRSS_CLK_FLL_CONFIG4_CCO_RANGE, (uint32_t)(config-
 714              		.loc 1 519 0 is_stmt 1
 715 0104 0E48     		ldr	r0, .L73+4
 716 0106 D0F88C35 		ldr	r3, [r0, #1420]
ARM GAS  C:\Users\gjl\AppData\Local\Temp\ccNVysBX.s 			page 23


 717 010a 23F4E062 		bic	r2, r3, #1792
 718 010e A379     		ldrb	r3, [r4, #6]	@ zero_extendqisi2
 719 0110 1B02     		lsls	r3, r3, #8
 720 0112 03F4E063 		and	r3, r3, #1792
 721 0116 1343     		orrs	r3, r3, r2
 722 0118 C0F88C35 		str	r3, [r0, #1420]
 520:Generated_Source\PSoC6\pdl\drivers\peripheral\sysclk/cy_sysclk.c ****         CY_SYSCLK_CLR_SET(SRSS->CLK_FLL_CONFIG4, SRSS_CLK_FLL_CONFIG4_CCO_FREQ, (uint32_t)(config->
 723              		.loc 1 520 0
 724 011c D0F88C35 		ldr	r3, [r0, #1420]
 725 0120 23F0FF71 		bic	r1, r3, #33423360
 726 0124 21F48031 		bic	r1, r1, #65536
 727 0128 238A     		ldrh	r3, [r4, #16]
 728 012a 074A     		ldr	r2, .L73+12
 729 012c 02EA0343 		and	r3, r2, r3, lsl #16
 730 0130 0B43     		orrs	r3, r3, r1
 731 0132 C0F88C35 		str	r3, [r0, #1420]
 732              	.L62:
 733              	.LBE32:
 521:Generated_Source\PSoC6\pdl\drivers\peripheral\sysclk/cy_sysclk.c ****     } /* if no error */
 522:Generated_Source\PSoC6\pdl\drivers\peripheral\sysclk/cy_sysclk.c **** 
 523:Generated_Source\PSoC6\pdl\drivers\peripheral\sysclk/cy_sysclk.c ****     return (returnStatus);
 524:Generated_Source\PSoC6\pdl\drivers\peripheral\sysclk/cy_sysclk.c **** }
 734              		.loc 1 524 0
 735 0136 2846     		mov	r0, r5
 736 0138 38BD     		pop	{r3, r4, r5, pc}
 737              	.LVL82:
 738              	.L74:
 739 013a 00BF     		.align	2
 740              	.L73:
 741 013c 00000000 		.word	.LC3
 742 0140 00002640 		.word	1076232192
 743 0144 03004A00 		.word	4849667
 744 0148 0000FF01 		.word	33488896
 745 014c 00FF1F00 		.word	2096896
 746              		.cfi_endproc
 747              	.LFE220:
 748              		.size	Cy_SysClk_FllManualConfigure, .-Cy_SysClk_FllManualConfigure
 749              		.global	__aeabi_ddiv
 750              		.global	__aeabi_d2uiz
 751              		.section	.text.Cy_SysClk_FllConfigure,"ax",%progbits
 752              		.align	2
 753              		.global	Cy_SysClk_FllConfigure
 754              		.thumb
 755              		.thumb_func
 756              		.type	Cy_SysClk_FllConfigure, %function
 757              	Cy_SysClk_FllConfigure:
 758              	.LFB219:
 332:Generated_Source\PSoC6\pdl\drivers\peripheral\sysclk/cy_sysclk.c ****     cy_en_sysclk_status_t returnStatus = CY_SYSCLK_SUCCESS;
 759              		.loc 1 332 0
 760              		.cfi_startproc
 761              		@ args = 0, pretend = 0, frame = 120
 762              		@ frame_needed = 0, uses_anonymous_args = 0
 763              	.LVL83:
 764 0000 F0B5     		push	{r4, r5, r6, r7, lr}
 765              		.cfi_def_cfa_offset 20
 766              		.cfi_offset 4, -20
 767              		.cfi_offset 5, -16
ARM GAS  C:\Users\gjl\AppData\Local\Temp\ccNVysBX.s 			page 24


 768              		.cfi_offset 6, -12
 769              		.cfi_offset 7, -8
 770              		.cfi_offset 14, -4
 771 0002 2DED068B 		vpush.64	{d8, d9, d10}
 772              		.cfi_def_cfa_offset 44
 773              		.cfi_offset 80, -44
 774              		.cfi_offset 81, -40
 775              		.cfi_offset 82, -36
 776              		.cfi_offset 83, -32
 777              		.cfi_offset 84, -28
 778              		.cfi_offset 85, -24
 779 0006 9FB0     		sub	sp, sp, #124
 780              		.cfi_def_cfa_offset 168
 781 0008 0190     		str	r0, [sp, #4]
 782              	.LVL84:
 336:Generated_Source\PSoC6\pdl\drivers\peripheral\sysclk/cy_sysclk.c ****     {
 783              		.loc 1 336 0
 784 000a CB4B     		ldr	r3, .L111
 785 000c D3F88035 		ldr	r3, [r3, #1408]
 786 0010 002B     		cmp	r3, #0
 787 0012 19DB     		blt	.L96
 340:Generated_Source\PSoC6\pdl\drivers\peripheral\sysclk/cy_sysclk.c ****     {
 788              		.loc 1 340 0
 789 0014 A1F1B773 		sub	r3, r1, #23986176
 790 0018 A3F55853 		sub	r3, r3, #13824
 791 001c C748     		ldr	r0, .L111+4
 792              	.LVL85:
 793 001e 8342     		cmp	r3, r0
 794 0020 14D8     		bhi	.L97
 344:Generated_Source\PSoC6\pdl\drivers\peripheral\sysclk/cy_sysclk.c ****     {
 795              		.loc 1 344 0
 796 0022 07EE901A 		vmov	s15, r1	@ int
 797 0026 F8EE677A 		vcvt.f32.u32	s15, s15
 798 002a 9DED017A 		vldr.32	s14, [sp, #4]	@ int
 799 002e F8EE476A 		vcvt.f32.u32	s13, s14
 800 0032 87EEA67A 		vdiv.f32	s14, s15, s13
 801 0036 DFEDC27A 		vldr.32	s15, .L111+8
 802 003a B4EEE77A 		vcmpe.f32	s14, s15
 803 003e F1EE10FA 		vmrs	APSR_nzcv, FPSCR
 804 0042 05D4     		bmi	.L98
 333:Generated_Source\PSoC6\pdl\drivers\peripheral\sysclk/cy_sysclk.c **** 
 805              		.loc 1 333 0
 806 0044 0020     		movs	r0, #0
 807 0046 04E0     		b	.L76
 808              	.LVL86:
 809              	.L96:
 338:Generated_Source\PSoC6\pdl\drivers\peripheral\sysclk/cy_sysclk.c ****     }
 810              		.loc 1 338 0
 811 0048 BE48     		ldr	r0, .L111+12
 812              	.LVL87:
 813 004a 02E0     		b	.L76
 814              	.L97:
 342:Generated_Source\PSoC6\pdl\drivers\peripheral\sysclk/cy_sysclk.c ****     }
 815              		.loc 1 342 0
 816 004c BE48     		ldr	r0, .L111+16
 817 004e 00E0     		b	.L76
 818              	.L98:
ARM GAS  C:\Users\gjl\AppData\Local\Temp\ccNVysBX.s 			page 25


 346:Generated_Source\PSoC6\pdl\drivers\peripheral\sysclk/cy_sysclk.c ****     }
 819              		.loc 1 346 0
 820 0050 BD48     		ldr	r0, .L111+16
 821              	.L76:
 822              	.LVL88:
 353:Generated_Source\PSoC6\pdl\drivers\peripheral\sysclk/cy_sysclk.c ****     {
 823              		.loc 1 353 0
 824 0052 0028     		cmp	r0, #0
 825 0054 40F06B81 		bne	.L77
 358:Generated_Source\PSoC6\pdl\drivers\peripheral\sysclk/cy_sysclk.c ****         {
 826              		.loc 1 358 0
 827 0058 022A     		cmp	r2, #2
 828 005a 00F05D81 		beq	.L78
 829 005e 1446     		mov	r4, r2
 830 0060 08EE901A 		vmov	s17, r1	@ int
 831 0064 9DED018A 		vldr.32	s16, [sp, #4]	@ int
 832              	.LBB33:
 362:Generated_Source\PSoC6\pdl\drivers\peripheral\sysclk/cy_sysclk.c **** 
 833              		.loc 1 362 0
 834 0068 FFF7FEFF 		bl	Cy_SysClk_ClkPathGetSource
 835              	.LVL89:
 836 006c 0546     		mov	r5, r0
 837              	.LVL90:
 364:Generated_Source\PSoC6\pdl\drivers\peripheral\sysclk/cy_sysclk.c ****             /* 1. Output division by 2 is always required. */
 838              		.loc 1 364 0
 839 006e 8DF81A40 		strb	r4, [sp, #26]
 366:Generated_Source\PSoC6\pdl\drivers\peripheral\sysclk/cy_sysclk.c ****             /* 2. Compute the target CCO frequency from the target output frequency and output divi
 840              		.loc 1 366 0
 841 0072 0123     		movs	r3, #1
 842 0074 8DF81330 		strb	r3, [sp, #19]
 368:Generated_Source\PSoC6\pdl\drivers\peripheral\sysclk/cy_sysclk.c ****             /* 3. Compute the CCO range value from the CCO frequency */
 843              		.loc 1 368 0
 844 0078 18EE903A 		vmov	r3, s17	@ int
 845 007c 5C00     		lsls	r4, r3, #1
 846              	.LVL91:
 370:Generated_Source\PSoC6\pdl\drivers\peripheral\sysclk/cy_sysclk.c ****                                ((ccoFreq >= 113009380ul) ? CY_SYSCLK_FLL_CCO_RANGE3 :
 847              		.loc 1 370 0
 848 007e B34B     		ldr	r3, .L111+20
 849 0080 9C42     		cmp	r4, r3
 850 0082 0BD8     		bhi	.L99
 370:Generated_Source\PSoC6\pdl\drivers\peripheral\sysclk/cy_sysclk.c ****                                ((ccoFreq >= 113009380ul) ? CY_SYSCLK_FLL_CCO_RANGE3 :
 851              		.loc 1 370 0 is_stmt 0 discriminator 1
 852 0084 B24B     		ldr	r3, .L111+24
 853 0086 9C42     		cmp	r4, r3
 854 0088 0AD8     		bhi	.L100
 370:Generated_Source\PSoC6\pdl\drivers\peripheral\sysclk/cy_sysclk.c ****                                ((ccoFreq >= 113009380ul) ? CY_SYSCLK_FLL_CCO_RANGE3 :
 855              		.loc 1 370 0 discriminator 3
 856 008a B24B     		ldr	r3, .L111+28
 857 008c 9C42     		cmp	r4, r3
 858 008e 09D8     		bhi	.L101
 373:Generated_Source\PSoC6\pdl\drivers\peripheral\sysclk/cy_sysclk.c ****             {
 859              		.loc 1 373 0 is_stmt 1 discriminator 5
 860 0090 B14F     		ldr	r7, .L111+32
 861 0092 BC42     		cmp	r4, r7
 862 0094 94BF     		ite	ls
 863 0096 0027     		movls	r7, #0
 864 0098 0127     		movhi	r7, #1
ARM GAS  C:\Users\gjl\AppData\Local\Temp\ccNVysBX.s 			page 26


 865 009a 04E0     		b	.L79
 866              	.L99:
 370:Generated_Source\PSoC6\pdl\drivers\peripheral\sysclk/cy_sysclk.c ****                                ((ccoFreq >= 113009380ul) ? CY_SYSCLK_FLL_CCO_RANGE3 :
 867              		.loc 1 370 0
 868 009c 0427     		movs	r7, #4
 869 009e 02E0     		b	.L79
 870              	.L100:
 871 00a0 0327     		movs	r7, #3
 872 00a2 00E0     		b	.L79
 873              	.L101:
 874 00a4 0227     		movs	r7, #2
 875              	.L79:
 370:Generated_Source\PSoC6\pdl\drivers\peripheral\sysclk/cy_sysclk.c ****                                ((ccoFreq >= 113009380ul) ? CY_SYSCLK_FLL_CCO_RANGE3 :
 876              		.loc 1 370 0 is_stmt 0 discriminator 12
 877 00a6 8DF81270 		strb	r7, [sp, #18]
 878              	.LBB34:
 376:Generated_Source\PSoC6\pdl\drivers\peripheral\sysclk/cy_sysclk.c ****                 const float32_t fMargin[] = {43600000.0f, 58100000.0f, 77200000.0f, 103000000.0f, 1
 879              		.loc 1 376 0 is_stmt 1 discriminator 12
 880 00aa AC4E     		ldr	r6, .L111+36
 881 00ac 0DF1200E 		add	lr, sp, #32
 882 00b0 B446     		mov	ip, r6
 883 00b2 BCE80F00 		ldmia	ip!, {r0, r1, r2, r3}
 884 00b6 AEE80F00 		stmia	lr!, {r0, r1, r2, r3}
 885 00ba DCF80030 		ldr	r3, [ip]
 886 00be CEF80030 		str	r3, [lr]
 377:Generated_Source\PSoC6\pdl\drivers\peripheral\sysclk/cy_sysclk.c **** 
 887              		.loc 1 377 0 discriminator 12
 888 00c2 0DF1340E 		add	lr, sp, #52
 889 00c6 1436     		adds	r6, r6, #20
 890 00c8 0FCE     		ldmia	r6!, {r0, r1, r2, r3}
 891 00ca AEE80F00 		stmia	lr!, {r0, r1, r2, r3}
 892 00ce 3368     		ldr	r3, [r6]
 893 00d0 CEF80030 		str	r3, [lr]
 382:Generated_Source\PSoC6\pdl\drivers\peripheral\sysclk/cy_sysclk.c ****                                             ((uint16_t)ceilf(((float32_t)inputFreq / (float32_t)out
 894              		.loc 1 382 0 discriminator 12
 895 00d4 40F21113 		movw	r3, #273
 896 00d8 9D42     		cmp	r5, r3
 897 00da 16D0     		beq	.L102
 383:Generated_Source\PSoC6\pdl\drivers\peripheral\sysclk/cy_sysclk.c ****             /* 5. Compute the FLL multiplier value.
 898              		.loc 1 383 0 discriminator 2
 899 00dc F8EE487A 		vcvt.f32.u32	s15, s16
 900 00e0 F8EE686A 		vcvt.f32.u32	s13, s17
 901 00e4 87EEA67A 		vdiv.f32	s14, s15, s13
 902 00e8 DFED9D7A 		vldr.32	s15, .L111+40
 903 00ec 67EE277A 		vmul.f32	s15, s14, s15
 904 00f0 17EE900A 		vmov	r0, s15
 905 00f4 FFF7FEFF 		bl	ceilf
 906              	.LVL92:
 382:Generated_Source\PSoC6\pdl\drivers\peripheral\sysclk/cy_sysclk.c ****                                             ((uint16_t)ceilf(((float32_t)inputFreq / (float32_t)out
 907              		.loc 1 382 0 discriminator 2
 908 00f8 07EE900A 		vmov	s15, r0
 909 00fc FCEEE77A 		vcvt.u32.f32	s15, s15
 910 0100 CDED017A 		vstr.32	s15, [sp, #4]	@ int
 911              	.LVL93:
 912 0104 BDF80460 		ldrh	r6, [sp, #4]
 913 0108 00E0     		b	.L80
 914              	.LVL94:
ARM GAS  C:\Users\gjl\AppData\Local\Temp\ccNVysBX.s 			page 27


 915              	.L102:
 382:Generated_Source\PSoC6\pdl\drivers\peripheral\sysclk/cy_sysclk.c ****                                             ((uint16_t)ceilf(((float32_t)inputFreq / (float32_t)out
 916              		.loc 1 382 0 is_stmt 0
 917 010a 1326     		movs	r6, #19
 918              	.LVL95:
 919              	.L80:
 382:Generated_Source\PSoC6\pdl\drivers\peripheral\sysclk/cy_sysclk.c ****                                             ((uint16_t)ceilf(((float32_t)inputFreq / (float32_t)out
 920              		.loc 1 382 0 discriminator 4
 921 010c ADF81060 		strh	r6, [sp, #16]	@ movhi
 386:Generated_Source\PSoC6\pdl\drivers\peripheral\sysclk/cy_sysclk.c ****             /* 6. Compute the lock tolerance.
 922              		.loc 1 386 0 is_stmt 1 discriminator 4
 923 0110 631E     		subs	r3, r4, #1
 924 0112 18EE102A 		vmov	r2, s16	@ int
 925 0116 02EB5602 		add	r2, r2, r6, lsr #1
 926 011a B2FBF6F2 		udiv	r2, r2, r6
 927 011e B3FBF2F3 		udiv	r3, r3, r2
 928 0122 0133     		adds	r3, r3, #1
 929 0124 0393     		str	r3, [sp, #12]
 392:Generated_Source\PSoC6\pdl\drivers\peripheral\sysclk/cy_sysclk.c ****             /* 7. Compute the CCO igain and pgain. */
 930              		.loc 1 392 0 discriminator 4
 931 0126 07EE903A 		vmov	s15, r3	@ int
 932 012a F8EE677A 		vcvt.f32.u32	s15, s15
 933 012e 9FED8D7A 		vldr.32	s14, .L111+44
 934 0132 67EE877A 		vmul.f32	s15, s15, s14
 935 0136 17EE900A 		vmov	r0, s15
 936 013a FFF7FEFF 		bl	ceilf
 937              	.LVL96:
 938 013e 07EE900A 		vmov	s15, r0
 939 0142 FCEEE77A 		vcvt.u32.f32	s15, s15
 940 0146 17EE900A 		vmov	r0, s15	@ int
 941 014a ADF81400 		strh	r0, [sp, #20]	@ movhi
 942              	.LBB35:
 396:Generated_Source\PSoC6\pdl\drivers\peripheral\sysclk/cy_sysclk.c ****                     float32_t ki_p = (0.85f / (kcco * ((float32_t)(config.refDiv) / (float32_t)inpu
 943              		.loc 1 396 0 discriminator 4
 944 014e 1EAB     		add	r3, sp, #120
 945 0150 03EB8707 		add	r7, r3, r7, lsl #2
 946 0154 57ED167A 		vldr.32	s15, [r7, #-88]
 947 0158 17ED116A 		vldr.32	s12, [r7, #-68]
 948 015c 67EE867A 		vmul.f32	s15, s15, s12
 949 0160 DFED816A 		vldr.32	s13, .L111+48
 950 0164 87EEA67A 		vdiv.f32	s14, s15, s13
 951              	.LVL97:
 397:Generated_Source\PSoC6\pdl\drivers\peripheral\sysclk/cy_sysclk.c **** 
 952              		.loc 1 397 0 discriminator 4
 953 0168 07EE906A 		vmov	s15, r6	@ int
 954 016c F8EE677A 		vcvt.f32.u32	s15, s15
 955 0170 B8EE488A 		vcvt.f32.u32	s16, s16
 956 0174 C7EE885A 		vdiv.f32	s11, s15, s16
 957 0178 67EE257A 		vmul.f32	s15, s14, s11
 958 017c 9FED7B7A 		vldr.32	s14, .L111+52
 959              	.LVL98:
 960 0180 C7EE275A 		vdiv.f32	s11, s14, s15
 961 0184 85EEA67A 		vdiv.f32	s14, s11, s13
 962              	.LVL99:
 400:Generated_Source\PSoC6\pdl\drivers\peripheral\sysclk/cy_sysclk.c ****                                                0.5f, 1.0f, 2.0f, 4.0f, 8.0f};
 963              		.loc 1 400 0 discriminator 4
 964 0188 12AE     		add	r6, sp, #72
ARM GAS  C:\Users\gjl\AppData\Local\Temp\ccNVysBX.s 			page 28


 965 018a 794F     		ldr	r7, .L111+56
 966              	.LVL100:
 967 018c 0FCF     		ldmia	r7!, {r0, r1, r2, r3}
 968 018e 0FC6     		stmia	r6!, {r0, r1, r2, r3}
 969 0190 0FCF     		ldmia	r7!, {r0, r1, r2, r3}
 970 0192 0FC6     		stmia	r6!, {r0, r1, r2, r3}
 971 0194 97E80F00 		ldmia	r7, {r0, r1, r2, r3}
 972 0198 86E80F00 		stmia	r6, {r0, r1, r2, r3}
 404:Generated_Source\PSoC6\pdl\drivers\peripheral\sysclk/cy_sysclk.c ****                         (gains[config.igain] > ki_p) && (config.igain != 0ul); config.igain--){}
 973              		.loc 1 404 0 discriminator 4
 974 019c 0B23     		movs	r3, #11
 975 019e 8DF81630 		strb	r3, [sp, #22]
 976 01a2 02E0     		b	.L81
 977              	.L84:
 405:Generated_Source\PSoC6\pdl\drivers\peripheral\sysclk/cy_sysclk.c ****                     /* decrement igain if the WCO is the FLL source */
 978              		.loc 1 405 0 discriminator 1
 979 01a4 013B     		subs	r3, r3, #1
 980 01a6 8DF81630 		strb	r3, [sp, #22]
 981              	.L81:
 982 01aa 9DF81630 		ldrb	r3, [sp, #22]	@ zero_extendqisi2
 983 01ae 1EAA     		add	r2, sp, #120
 984 01b0 02EB8302 		add	r2, r2, r3, lsl #2
 985 01b4 52ED0C7A 		vldr.32	s15, [r2, #-48]
 404:Generated_Source\PSoC6\pdl\drivers\peripheral\sysclk/cy_sysclk.c ****                         (gains[config.igain] > ki_p) && (config.igain != 0ul); config.igain--){}
 986              		.loc 1 404 0 discriminator 1
 987 01b8 B4EEE77A 		vcmpe.f32	s14, s15
 988 01bc F1EE10FA 		vmrs	APSR_nzcv, FPSCR
 989 01c0 01D5     		bpl	.L82
 405:Generated_Source\PSoC6\pdl\drivers\peripheral\sysclk/cy_sysclk.c ****                     /* decrement igain if the WCO is the FLL source */
 990              		.loc 1 405 0 discriminator 2
 991 01c2 002B     		cmp	r3, #0
 992 01c4 EED1     		bne	.L84
 993              	.L82:
 407:Generated_Source\PSoC6\pdl\drivers\peripheral\sysclk/cy_sysclk.c ****                     {
 994              		.loc 1 407 0
 995 01c6 40F21112 		movw	r2, #273
 996 01ca 9542     		cmp	r5, r2
 997 01cc 03D1     		bne	.L85
 407:Generated_Source\PSoC6\pdl\drivers\peripheral\sysclk/cy_sysclk.c ****                     {
 998              		.loc 1 407 0 is_stmt 0 discriminator 1
 999 01ce 13B1     		cbz	r3, .L85
 409:Generated_Source\PSoC6\pdl\drivers\peripheral\sysclk/cy_sysclk.c ****                     }
 1000              		.loc 1 409 0 is_stmt 1
 1001 01d0 013B     		subs	r3, r3, #1
 1002 01d2 8DF81630 		strb	r3, [sp, #22]
 1003              	.L85:
 412:Generated_Source\PSoC6\pdl\drivers\peripheral\sysclk/cy_sysclk.c ****                         (gains[config.pgain] > (ki_p - gains[config.igain])) && (config.pgain != 0u
 1004              		.loc 1 412 0
 1005 01d6 0B23     		movs	r3, #11
 1006 01d8 8DF81730 		strb	r3, [sp, #23]
 1007 01dc 02E0     		b	.L86
 1008              	.L89:
 414:Generated_Source\PSoC6\pdl\drivers\peripheral\sysclk/cy_sysclk.c ****                     /* decrement pgain if the WCO is the FLL source */
 1009              		.loc 1 414 0
 1010 01de 013B     		subs	r3, r3, #1
 1011 01e0 8DF81730 		strb	r3, [sp, #23]
 1012              	.L86:
ARM GAS  C:\Users\gjl\AppData\Local\Temp\ccNVysBX.s 			page 29


 413:Generated_Source\PSoC6\pdl\drivers\peripheral\sysclk/cy_sysclk.c ****                         config.pgain--){}
 1013              		.loc 1 413 0 discriminator 1
 1014 01e4 9DF81730 		ldrb	r3, [sp, #23]	@ zero_extendqisi2
 1015 01e8 1EAA     		add	r2, sp, #120
 1016 01ea 02EB8302 		add	r2, r2, r3, lsl #2
 1017 01ee 52ED0C6A 		vldr.32	s13, [r2, #-48]
 1018 01f2 9DF81620 		ldrb	r2, [sp, #22]	@ zero_extendqisi2
 1019 01f6 1EA9     		add	r1, sp, #120
 1020 01f8 01EB8202 		add	r2, r1, r2, lsl #2
 1021 01fc 52ED0C7A 		vldr.32	s15, [r2, #-48]
 1022 0200 77EE677A 		vsub.f32	s15, s14, s15
 412:Generated_Source\PSoC6\pdl\drivers\peripheral\sysclk/cy_sysclk.c ****                         (gains[config.pgain] > (ki_p - gains[config.igain])) && (config.pgain != 0u
 1023              		.loc 1 412 0 discriminator 1
 1024 0204 F4EEE76A 		vcmpe.f32	s13, s15
 1025 0208 F1EE10FA 		vmrs	APSR_nzcv, FPSCR
 1026 020c 01DD     		ble	.L87
 413:Generated_Source\PSoC6\pdl\drivers\peripheral\sysclk/cy_sysclk.c ****                         config.pgain--){}
 1027              		.loc 1 413 0
 1028 020e 002B     		cmp	r3, #0
 1029 0210 E5D1     		bne	.L89
 1030              	.L87:
 416:Generated_Source\PSoC6\pdl\drivers\peripheral\sysclk/cy_sysclk.c ****                     {
 1031              		.loc 1 416 0
 1032 0212 40F21112 		movw	r2, #273
 1033 0216 9542     		cmp	r5, r2
 1034 0218 03D1     		bne	.L90
 416:Generated_Source\PSoC6\pdl\drivers\peripheral\sysclk/cy_sysclk.c ****                     {
 1035              		.loc 1 416 0 is_stmt 0 discriminator 1
 1036 021a 13B1     		cbz	r3, .L90
 418:Generated_Source\PSoC6\pdl\drivers\peripheral\sysclk/cy_sysclk.c ****                     }
 1037              		.loc 1 418 0 is_stmt 1
 1038 021c 013B     		subs	r3, r3, #1
 1039 021e 8DF81730 		strb	r3, [sp, #23]
 1040              	.L90:
 1041              	.LBE35:
 423:Generated_Source\PSoC6\pdl\drivers\peripheral\sysclk/cy_sysclk.c ****                            log(1.0f + trimSteps[config.ccoRange])));
 1042              		.loc 1 423 0
 1043 0222 07EE904A 		vmov	s15, r4	@ int
 1044 0226 F8EE677A 		vcvt.f32.u32	s15, s15
 1045 022a 87EE867A 		vdiv.f32	s14, s15, s12
 1046              	.LVL101:
 1047 022e 17EE100A 		vmov	r0, s14
 1048 0232 FFF7FEFF 		bl	__aeabi_f2d
 1049              	.LVL102:
 1050 0236 FFF7FEFF 		bl	log
 1051              	.LVL103:
 1052 023a 0646     		mov	r6, r0
 1053 023c 0F46     		mov	r7, r1
 424:Generated_Source\PSoC6\pdl\drivers\peripheral\sysclk/cy_sysclk.c ****             }
 1054              		.loc 1 424 0
 1055 023e 9DF81230 		ldrb	r3, [sp, #18]	@ zero_extendqisi2
 1056 0242 1EAA     		add	r2, sp, #120
 1057 0244 02EB8303 		add	r3, r2, r3, lsl #2
 1058 0248 53ED167A 		vldr.32	s15, [r3, #-88]
 1059 024c B7EE009A 		vmov.f32	s18, #1.0e+0
 1060 0250 77EE897A 		vadd.f32	s15, s15, s18
 1061 0254 17EE900A 		vmov	r0, s15
ARM GAS  C:\Users\gjl\AppData\Local\Temp\ccNVysBX.s 			page 30


 1062 0258 FFF7FEFF 		bl	__aeabi_f2d
 1063              	.LVL104:
 1064 025c FFF7FEFF 		bl	log
 1065              	.LVL105:
 423:Generated_Source\PSoC6\pdl\drivers\peripheral\sysclk/cy_sysclk.c ****                            log(1.0f + trimSteps[config.ccoRange])));
 1066              		.loc 1 423 0
 1067 0260 0246     		mov	r2, r0
 1068 0262 0B46     		mov	r3, r1
 1069 0264 3046     		mov	r0, r6
 1070 0266 3946     		mov	r1, r7
 1071 0268 FFF7FEFF 		bl	__aeabi_ddiv
 1072              	.LVL106:
 1073 026c FFF7FEFF 		bl	floor
 1074              	.LVL107:
 422:Generated_Source\PSoC6\pdl\drivers\peripheral\sysclk/cy_sysclk.c ****                     (floor(log((float32_t)ccoFreq / fMargin[config.ccoRange]) /
 1075              		.loc 1 422 0
 1076 0270 FFF7FEFF 		bl	__aeabi_d2uiz
 1077              	.LVL108:
 1078 0274 ADF81C00 		strh	r0, [sp, #28]	@ movhi
 1079              	.LBE34:
 1080              	.LBB36:
 429:Generated_Source\PSoC6\pdl\drivers\peripheral\sysclk/cy_sysclk.c ****                 float32_t testval = 6000.0f / (float32_t)outputFreq;
 1081              		.loc 1 429 0
 1082 0278 BDF81030 		ldrh	r3, [sp, #16]
 1083 027c 07EE903A 		vmov	s15, r3	@ int
 1084 0280 F8EE677A 		vcvt.f32.u32	s15, s15
 1085 0284 DFED386A 		vldr.32	s13, .L111+48
 1086 0288 88EE267A 		vdiv.f32	s14, s16, s13
 1087 028c C7EE879A 		vdiv.f32	s19, s15, s14
 1088              	.LVL109:
 430:Generated_Source\PSoC6\pdl\drivers\peripheral\sysclk/cy_sysclk.c ****                 float32_t divval  = ceil((float32_t)inputFreq * 0.000001f);
 1089              		.loc 1 430 0
 1090 0290 F8EE688A 		vcvt.f32.u32	s17, s17
 1091              	.LVL110:
 1092 0294 DFED377A 		vldr.32	s15, .L111+60
 1093 0298 87EEA8AA 		vdiv.f32	s20, s15, s17
 1094              	.LVL111:
 431:Generated_Source\PSoC6\pdl\drivers\peripheral\sysclk/cy_sysclk.c ****                 float32_t altval  = ceil((divval / ttref) + 1.0f);
 1095              		.loc 1 431 0
 1096 029c DFED367A 		vldr.32	s15, .L111+64
 1097 02a0 68EE277A 		vmul.f32	s15, s16, s15
 1098 02a4 17EE900A 		vmov	r0, s15
 1099 02a8 FFF7FEFF 		bl	ceilf
 1100              	.LVL112:
 1101 02ac 08EE100A 		vmov	s16, r0
 1102              	.LVL113:
 432:Generated_Source\PSoC6\pdl\drivers\peripheral\sysclk/cy_sysclk.c ****                 config.settlingCount = (uint16)(wcoSource ? 200u : 
 1103              		.loc 1 432 0
 1104 02b0 C8EE297A 		vdiv.f32	s15, s16, s19
 1105 02b4 77EE897A 		vadd.f32	s15, s15, s18
 1106 02b8 17EE900A 		vmov	r0, s15
 1107              	.LVL114:
 1108 02bc FFF7FEFF 		bl	ceilf
 1109              	.LVL115:
 1110 02c0 07EE900A 		vmov	s15, r0
 1111              	.LVL116:
 433:Generated_Source\PSoC6\pdl\drivers\peripheral\sysclk/cy_sysclk.c ****                                                 ((ttref > testval) ? divval :
ARM GAS  C:\Users\gjl\AppData\Local\Temp\ccNVysBX.s 			page 31


 1112              		.loc 1 433 0
 1113 02c4 40F21113 		movw	r3, #273
 1114 02c8 9D42     		cmp	r5, r3
 1115 02ca 1ED0     		beq	.L103
 433:Generated_Source\PSoC6\pdl\drivers\peripheral\sysclk/cy_sysclk.c ****                                                 ((ttref > testval) ? divval :
 1116              		.loc 1 433 0 is_stmt 0 discriminator 1
 1117 02cc F4EECA9A 		vcmpe.f32	s19, s20
 1118 02d0 F1EE10FA 		vmrs	APSR_nzcv, FPSCR
 1119 02d4 06DD     		ble	.L108
 433:Generated_Source\PSoC6\pdl\drivers\peripheral\sysclk/cy_sysclk.c ****                                                 ((ttref > testval) ? divval :
 1120              		.loc 1 433 0 discriminator 3
 1121 02d6 FCEEC87A 		vcvt.u32.f32	s15, s16
 1122 02da CDED017A 		vstr.32	s15, [sp, #4]	@ int
 1123 02de BDF80430 		ldrh	r3, [sp, #4]
 1124 02e2 13E0     		b	.L91
 1125              	.L108:
 433:Generated_Source\PSoC6\pdl\drivers\peripheral\sysclk/cy_sysclk.c ****                                                 ((ttref > testval) ? divval :
 1126              		.loc 1 433 0 discriminator 4
 1127 02e4 B4EEE78A 		vcmpe.f32	s16, s15
 1128 02e8 F1EE10FA 		vmrs	APSR_nzcv, FPSCR
 1129 02ec 06DD     		ble	.L109
 433:Generated_Source\PSoC6\pdl\drivers\peripheral\sysclk/cy_sysclk.c ****                                                 ((ttref > testval) ? divval :
 1130              		.loc 1 433 0 discriminator 6
 1131 02ee FCEEC87A 		vcvt.u32.f32	s15, s16
 1132 02f2 CDED017A 		vstr.32	s15, [sp, #4]	@ int
 1133 02f6 BDF80430 		ldrh	r3, [sp, #4]
 1134 02fa 07E0     		b	.L91
 1135              	.L109:
 433:Generated_Source\PSoC6\pdl\drivers\peripheral\sysclk/cy_sysclk.c ****                                                 ((ttref > testval) ? divval :
 1136              		.loc 1 433 0 discriminator 7
 1137 02fc FCEEE77A 		vcvt.u32.f32	s15, s15
 1138 0300 CDED017A 		vstr.32	s15, [sp, #4]	@ int
 1139 0304 BDF80430 		ldrh	r3, [sp, #4]
 1140 0308 00E0     		b	.L91
 1141              	.L103:
 433:Generated_Source\PSoC6\pdl\drivers\peripheral\sysclk/cy_sysclk.c ****                                                 ((ttref > testval) ? divval :
 1142              		.loc 1 433 0
 1143 030a C823     		movs	r3, #200
 1144              	.L91:
 433:Generated_Source\PSoC6\pdl\drivers\peripheral\sysclk/cy_sysclk.c ****                                                 ((ttref > testval) ? divval :
 1145              		.loc 1 433 0 discriminator 12
 1146 030c ADF81830 		strh	r3, [sp, #24]	@ movhi
 1147              	.LBE36:
 438:Generated_Source\PSoC6\pdl\drivers\peripheral\sysclk/cy_sysclk.c ****         } /* if not bypass output mode */
 1148              		.loc 1 438 0 is_stmt 1 discriminator 12
 1149 0310 03A8     		add	r0, sp, #12
 1150              	.LVL117:
 1151 0312 FFF7FEFF 		bl	Cy_SysClk_FllManualConfigure
 1152              	.LVL118:
 1153              	.LBE33:
 1154 0316 0AE0     		b	.L77
 1155              	.LVL119:
 1156              	.L78:
 444:Generated_Source\PSoC6\pdl\drivers\peripheral\sysclk/cy_sysclk.c ****         }
 1157              		.loc 1 444 0
 1158 0318 0749     		ldr	r1, .L111
 1159              	.LVL120:
ARM GAS  C:\Users\gjl\AppData\Local\Temp\ccNVysBX.s 			page 32


 1160 031a D1F88835 		ldr	r3, [r1, #1416]
 1161 031e 23F04053 		bic	r3, r3, #805306368
 1162 0322 1207     		lsls	r2, r2, #28
 1163              	.LVL121:
 1164 0324 02F04052 		and	r2, r2, #805306368
 1165 0328 1A43     		orrs	r2, r2, r3
 1166 032a C1F88825 		str	r2, [r1, #1416]
 1167              	.LVL122:
 1168              	.L77:
 449:Generated_Source\PSoC6\pdl\drivers\peripheral\sysclk/cy_sysclk.c **** 
 1169              		.loc 1 449 0
 1170 032e 1FB0     		add	sp, sp, #124
 1171              		.cfi_def_cfa_offset 44
 1172              		@ sp needed
 1173 0330 BDEC068B 		vldm	sp!, {d8-d10}
 1174              		.cfi_restore 84
 1175              		.cfi_restore 85
 1176              		.cfi_restore 82
 1177              		.cfi_restore 83
 1178              		.cfi_restore 80
 1179              		.cfi_restore 81
 1180              		.cfi_def_cfa_offset 20
 1181 0334 F0BD     		pop	{r4, r5, r6, r7, pc}
 1182              	.L112:
 1183 0336 00BF     		.align	2
 1184              	.L111:
 1185 0338 00002640 		.word	1076232192
 1186 033c 00AB8704 		.word	76000000
 1187 0340 CDCC0C40 		.word	1074580685
 1188 0344 03004A00 		.word	4849667
 1189 0348 01004A00 		.word	4849665
 1190 034c 7FFEF508 		.word	150339199
 1191 0350 E362BC06 		.word	113009379
 1192 0354 DB361005 		.word	84948699
 1193 0358 EF5BCE03 		.word	63855599
 1194 035c 00000000 		.word	.LANCHOR0
 1195 0360 00007A43 		.word	1132068864
 1196 0364 F6259B3C 		.word	1016800758
 1197 0368 00007A44 		.word	1148846080
 1198 036c 9A99593F 		.word	1062836634
 1199 0370 28000000 		.word	.LANCHOR0+40
 1200 0374 0080BB45 		.word	1169915904
 1201 0378 BD378635 		.word	897988541
 1202              		.cfi_endproc
 1203              	.LFE219:
 1204              		.size	Cy_SysClk_FllConfigure, .-Cy_SysClk_FllConfigure
 1205              		.section	.text.Cy_SysClk_FllGetConfiguration,"ax",%progbits
 1206              		.align	2
 1207              		.global	Cy_SysClk_FllGetConfiguration
 1208              		.thumb
 1209              		.thumb_func
 1210              		.type	Cy_SysClk_FllGetConfiguration, %function
 1211              	Cy_SysClk_FllGetConfiguration:
 1212              	.LFB221:
 525:Generated_Source\PSoC6\pdl\drivers\peripheral\sysclk/cy_sysclk.c **** 
 526:Generated_Source\PSoC6\pdl\drivers\peripheral\sysclk/cy_sysclk.c **** /*******************************************************************************
 527:Generated_Source\PSoC6\pdl\drivers\peripheral\sysclk/cy_sysclk.c **** * Function Name: Cy_SysClk_FllGetConfiguration
ARM GAS  C:\Users\gjl\AppData\Local\Temp\ccNVysBX.s 			page 33


 528:Generated_Source\PSoC6\pdl\drivers\peripheral\sysclk/cy_sysclk.c **** ****************************************************************************//**
 529:Generated_Source\PSoC6\pdl\drivers\peripheral\sysclk/cy_sysclk.c **** *
 530:Generated_Source\PSoC6\pdl\drivers\peripheral\sysclk/cy_sysclk.c **** * Reports the FLL configuration settings.
 531:Generated_Source\PSoC6\pdl\drivers\peripheral\sysclk/cy_sysclk.c **** *
 532:Generated_Source\PSoC6\pdl\drivers\peripheral\sysclk/cy_sysclk.c **** * \param config \ref cy_stc_fll_manual_config_t
 533:Generated_Source\PSoC6\pdl\drivers\peripheral\sysclk/cy_sysclk.c **** *
 534:Generated_Source\PSoC6\pdl\drivers\peripheral\sysclk/cy_sysclk.c **** * \funcusage
 535:Generated_Source\PSoC6\pdl\drivers\peripheral\sysclk/cy_sysclk.c **** * \snippet sysclk/sysclk_v1_10_sut_01.cydsn/main_cm4.c snippet_Cy_SysClk_FllGetConfiguration
 536:Generated_Source\PSoC6\pdl\drivers\peripheral\sysclk/cy_sysclk.c **** *
 537:Generated_Source\PSoC6\pdl\drivers\peripheral\sysclk/cy_sysclk.c **** *******************************************************************************/
 538:Generated_Source\PSoC6\pdl\drivers\peripheral\sysclk/cy_sysclk.c **** void Cy_SysClk_FllGetConfiguration(cy_stc_fll_manual_config_t *config)
 539:Generated_Source\PSoC6\pdl\drivers\peripheral\sysclk/cy_sysclk.c **** {
 1213              		.loc 1 539 0
 1214              		.cfi_startproc
 1215              		@ args = 0, pretend = 0, frame = 0
 1216              		@ frame_needed = 0, uses_anonymous_args = 0
 1217              	.LVL123:
 1218 0000 10B5     		push	{r4, lr}
 1219              		.cfi_def_cfa_offset 8
 1220              		.cfi_offset 4, -8
 1221              		.cfi_offset 14, -4
 540:Generated_Source\PSoC6\pdl\drivers\peripheral\sysclk/cy_sysclk.c ****     CY_ASSERT_L1(config != NULL);
 1222              		.loc 1 540 0
 1223 0002 0446     		mov	r4, r0
 1224 0004 20B9     		cbnz	r0, .L114
 1225              		.loc 1 540 0 is_stmt 0 discriminator 1
 1226 0006 4FF40771 		mov	r1, #540
 1227 000a 1448     		ldr	r0, .L116
 1228              	.LVL124:
 1229 000c FFF7FEFF 		bl	Cy_SysLib_AssertFailed
 1230              	.LVL125:
 1231              	.L114:
 541:Generated_Source\PSoC6\pdl\drivers\peripheral\sysclk/cy_sysclk.c ****     /* read 2 parameters from CLK_FLL_CONFIG register */
 542:Generated_Source\PSoC6\pdl\drivers\peripheral\sysclk/cy_sysclk.c ****     uint32_t tempReg = SRSS->CLK_FLL_CONFIG;
 1232              		.loc 1 542 0 is_stmt 1
 1233 0010 134A     		ldr	r2, .L116+4
 1234 0012 D2F88035 		ldr	r3, [r2, #1408]
 1235              	.LVL126:
 543:Generated_Source\PSoC6\pdl\drivers\peripheral\sysclk/cy_sysclk.c ****     config->fllMult         = _FLD2VAL(SRSS_CLK_FLL_CONFIG_FLL_MULT, tempReg);
 1236              		.loc 1 543 0
 1237 0016 C3F31101 		ubfx	r1, r3, #0, #18
 1238 001a 2160     		str	r1, [r4]
 544:Generated_Source\PSoC6\pdl\drivers\peripheral\sysclk/cy_sysclk.c ****     config->enableOutputDiv = (bool)_FLD2VAL(SRSS_CLK_FLL_CONFIG_FLL_OUTPUT_DIV, tempReg);
 1239              		.loc 1 544 0
 1240 001c C3F30063 		ubfx	r3, r3, #24, #1
 1241              	.LVL127:
 1242 0020 E371     		strb	r3, [r4, #7]
 545:Generated_Source\PSoC6\pdl\drivers\peripheral\sysclk/cy_sysclk.c ****     /* read 2 parameters from CLK_FLL_CONFIG2 register */
 546:Generated_Source\PSoC6\pdl\drivers\peripheral\sysclk/cy_sysclk.c ****     tempReg = SRSS->CLK_FLL_CONFIG2;
 1243              		.loc 1 546 0
 1244 0022 D2F88435 		ldr	r3, [r2, #1412]
 1245              	.LVL128:
 547:Generated_Source\PSoC6\pdl\drivers\peripheral\sysclk/cy_sysclk.c ****     config->refDiv          = _FLD2VAL(SRSS_CLK_FLL_CONFIG2_FLL_REF_DIV, tempReg);
 1246              		.loc 1 547 0
 1247 0026 C3F30C01 		ubfx	r1, r3, #0, #13
 1248 002a A180     		strh	r1, [r4, #4]	@ movhi
 548:Generated_Source\PSoC6\pdl\drivers\peripheral\sysclk/cy_sysclk.c ****     config->lockTolerance   = _FLD2VAL(SRSS_CLK_FLL_CONFIG2_LOCK_TOL, tempReg);
ARM GAS  C:\Users\gjl\AppData\Local\Temp\ccNVysBX.s 			page 34


 1249              		.loc 1 548 0
 1250 002c C3F30843 		ubfx	r3, r3, #16, #9
 1251              	.LVL129:
 1252 0030 2381     		strh	r3, [r4, #8]	@ movhi
 549:Generated_Source\PSoC6\pdl\drivers\peripheral\sysclk/cy_sysclk.c ****     /* read 4 parameters from CLK_FLL_CONFIG3 register */
 550:Generated_Source\PSoC6\pdl\drivers\peripheral\sysclk/cy_sysclk.c ****     tempReg = SRSS->CLK_FLL_CONFIG3;
 1253              		.loc 1 550 0
 1254 0032 D2F88835 		ldr	r3, [r2, #1416]
 1255              	.LVL130:
 551:Generated_Source\PSoC6\pdl\drivers\peripheral\sysclk/cy_sysclk.c ****     config->igain           = _FLD2VAL(SRSS_CLK_FLL_CONFIG3_FLL_LF_IGAIN, tempReg);
 1256              		.loc 1 551 0
 1257 0036 03F00F01 		and	r1, r3, #15
 1258 003a A172     		strb	r1, [r4, #10]
 552:Generated_Source\PSoC6\pdl\drivers\peripheral\sysclk/cy_sysclk.c ****     config->pgain           = _FLD2VAL(SRSS_CLK_FLL_CONFIG3_FLL_LF_PGAIN, tempReg);
 1259              		.loc 1 552 0
 1260 003c C3F30311 		ubfx	r1, r3, #4, #4
 1261 0040 E172     		strb	r1, [r4, #11]
 553:Generated_Source\PSoC6\pdl\drivers\peripheral\sysclk/cy_sysclk.c ****     config->settlingCount   = _FLD2VAL(SRSS_CLK_FLL_CONFIG3_SETTLING_COUNT, tempReg);
 1262              		.loc 1 553 0
 1263 0042 C3F30C21 		ubfx	r1, r3, #8, #13
 1264 0046 A181     		strh	r1, [r4, #12]	@ movhi
 554:Generated_Source\PSoC6\pdl\drivers\peripheral\sysclk/cy_sysclk.c ****     config->outputMode      = (cy_en_fll_pll_output_mode_t)_FLD2VAL(SRSS_CLK_FLL_CONFIG3_BYPASS_SEL
 1265              		.loc 1 554 0
 1266 0048 C3F30173 		ubfx	r3, r3, #28, #2
 1267              	.LVL131:
 1268 004c A373     		strb	r3, [r4, #14]
 555:Generated_Source\PSoC6\pdl\drivers\peripheral\sysclk/cy_sysclk.c ****     /* read 1 parameter from CLK_FLL_CONFIG4 register */
 556:Generated_Source\PSoC6\pdl\drivers\peripheral\sysclk/cy_sysclk.c ****     config->ccoRange        = (cy_en_fll_cco_ranges_t)_FLD2VAL(SRSS_CLK_FLL_CONFIG4_CCO_RANGE, SRSS
 1269              		.loc 1 556 0
 1270 004e D2F88C35 		ldr	r3, [r2, #1420]
 1271 0052 C3F30223 		ubfx	r3, r3, #8, #3
 1272 0056 A371     		strb	r3, [r4, #6]
 1273 0058 10BD     		pop	{r4, pc}
 1274              	.LVL132:
 1275              	.L117:
 1276 005a 00BF     		.align	2
 1277              	.L116:
 1278 005c 00000000 		.word	.LC3
 1279 0060 00002640 		.word	1076232192
 1280              		.cfi_endproc
 1281              	.LFE221:
 1282              		.size	Cy_SysClk_FllGetConfiguration, .-Cy_SysClk_FllGetConfiguration
 1283              		.section	.text.Cy_SysClk_FllEnable,"ax",%progbits
 1284              		.align	2
 1285              		.global	Cy_SysClk_FllEnable
 1286              		.thumb
 1287              		.thumb_func
 1288              		.type	Cy_SysClk_FllEnable, %function
 1289              	Cy_SysClk_FllEnable:
 1290              	.LFB222:
 557:Generated_Source\PSoC6\pdl\drivers\peripheral\sysclk/cy_sysclk.c **** }
 558:Generated_Source\PSoC6\pdl\drivers\peripheral\sysclk/cy_sysclk.c **** 
 559:Generated_Source\PSoC6\pdl\drivers\peripheral\sysclk/cy_sysclk.c **** /*******************************************************************************
 560:Generated_Source\PSoC6\pdl\drivers\peripheral\sysclk/cy_sysclk.c **** * Function Name: Cy_SysClk_FllEnable
 561:Generated_Source\PSoC6\pdl\drivers\peripheral\sysclk/cy_sysclk.c **** ****************************************************************************//**
 562:Generated_Source\PSoC6\pdl\drivers\peripheral\sysclk/cy_sysclk.c **** *
 563:Generated_Source\PSoC6\pdl\drivers\peripheral\sysclk/cy_sysclk.c **** * Enables the FLL. The FLL should be configured before calling this function.
ARM GAS  C:\Users\gjl\AppData\Local\Temp\ccNVysBX.s 			page 35


 564:Generated_Source\PSoC6\pdl\drivers\peripheral\sysclk/cy_sysclk.c **** *
 565:Generated_Source\PSoC6\pdl\drivers\peripheral\sysclk/cy_sysclk.c **** * \param timeoutus amount of time in micro seconds to wait for FLL to lock.
 566:Generated_Source\PSoC6\pdl\drivers\peripheral\sysclk/cy_sysclk.c **** * If lock doesn't occur, FLL is stopped. To avoid waiting for lock set this to 0,
 567:Generated_Source\PSoC6\pdl\drivers\peripheral\sysclk/cy_sysclk.c **** * and manually check for lock using \ref Cy_SysClk_FllLocked.
 568:Generated_Source\PSoC6\pdl\drivers\peripheral\sysclk/cy_sysclk.c **** *
 569:Generated_Source\PSoC6\pdl\drivers\peripheral\sysclk/cy_sysclk.c **** * \return Error / status code:<br>
 570:Generated_Source\PSoC6\pdl\drivers\peripheral\sysclk/cy_sysclk.c **** * CY_SYSCLK_SUCCESS - FLL successfully enabled<br>
 571:Generated_Source\PSoC6\pdl\drivers\peripheral\sysclk/cy_sysclk.c **** * CY_SYSCLK_TIMEOUT - Timeout waiting for FLL lock
 572:Generated_Source\PSoC6\pdl\drivers\peripheral\sysclk/cy_sysclk.c **** *
 573:Generated_Source\PSoC6\pdl\drivers\peripheral\sysclk/cy_sysclk.c **** * \note
 574:Generated_Source\PSoC6\pdl\drivers\peripheral\sysclk/cy_sysclk.c **** * While waiting for the FLL to lock, the FLL bypass mode is set to \ref CY_SYSCLK_FLLPLL_OUTPUT_INP
 575:Generated_Source\PSoC6\pdl\drivers\peripheral\sysclk/cy_sysclk.c **** * After the FLL is locked, the FLL bypass mdoe is then set to \ref CY_SYSCLK_FLLPLL_OUTPUT_OUTPUT.
 576:Generated_Source\PSoC6\pdl\drivers\peripheral\sysclk/cy_sysclk.c **** *
 577:Generated_Source\PSoC6\pdl\drivers\peripheral\sysclk/cy_sysclk.c **** * \funcusage
 578:Generated_Source\PSoC6\pdl\drivers\peripheral\sysclk/cy_sysclk.c **** * \snippet sysclk/sysclk_v1_10_sut_01.cydsn/main_cm4.c snippet_Cy_SysClk_FllEnable
 579:Generated_Source\PSoC6\pdl\drivers\peripheral\sysclk/cy_sysclk.c **** *
 580:Generated_Source\PSoC6\pdl\drivers\peripheral\sysclk/cy_sysclk.c **** *******************************************************************************/
 581:Generated_Source\PSoC6\pdl\drivers\peripheral\sysclk/cy_sysclk.c **** cy_en_sysclk_status_t Cy_SysClk_FllEnable(uint32_t timeoutus)
 582:Generated_Source\PSoC6\pdl\drivers\peripheral\sysclk/cy_sysclk.c **** {
 1291              		.loc 1 582 0
 1292              		.cfi_startproc
 1293              		@ args = 0, pretend = 0, frame = 0
 1294              		@ frame_needed = 0, uses_anonymous_args = 0
 1295              	.LVL133:
 1296 0000 38B5     		push	{r3, r4, r5, lr}
 1297              		.cfi_def_cfa_offset 16
 1298              		.cfi_offset 3, -16
 1299              		.cfi_offset 4, -12
 1300              		.cfi_offset 5, -8
 1301              		.cfi_offset 14, -4
 1302 0002 0546     		mov	r5, r0
 1303              	.LVL134:
 583:Generated_Source\PSoC6\pdl\drivers\peripheral\sysclk/cy_sysclk.c ****     cy_en_sysclk_status_t rtnval;
 584:Generated_Source\PSoC6\pdl\drivers\peripheral\sysclk/cy_sysclk.c ****     bool nonZeroTimeout = (timeoutus != 0ul);
 585:Generated_Source\PSoC6\pdl\drivers\peripheral\sysclk/cy_sysclk.c **** 
 586:Generated_Source\PSoC6\pdl\drivers\peripheral\sysclk/cy_sysclk.c ****     /* first set the CCO enable bit */
 587:Generated_Source\PSoC6\pdl\drivers\peripheral\sysclk/cy_sysclk.c ****     SRSS->CLK_FLL_CONFIG4 |= _VAL2FLD(SRSS_CLK_FLL_CONFIG4_CCO_ENABLE, 1ul); /* 1 = enable */
 1304              		.loc 1 587 0
 1305 0004 294A     		ldr	r2, .L132
 1306 0006 D2F88C35 		ldr	r3, [r2, #1420]
 1307 000a 43F00043 		orr	r3, r3, #-2147483648
 1308 000e C2F88C35 		str	r3, [r2, #1420]
 588:Generated_Source\PSoC6\pdl\drivers\peripheral\sysclk/cy_sysclk.c **** 
 589:Generated_Source\PSoC6\pdl\drivers\peripheral\sysclk/cy_sysclk.c ****     /* Wait until CCO is ready */
 590:Generated_Source\PSoC6\pdl\drivers\peripheral\sysclk/cy_sysclk.c ****     for (; (_FLD2VAL(SRSS_CLK_FLL_STATUS_CCO_READY, SRSS->CLK_FLL_STATUS) == 0ul) &&
 1309              		.loc 1 590 0
 1310 0012 0446     		mov	r4, r0
 1311 0014 03E0     		b	.L119
 1312              	.LVL135:
 1313              	.L121:
 591:Generated_Source\PSoC6\pdl\drivers\peripheral\sysclk/cy_sysclk.c ****            (timeoutus != 0ul);
 592:Generated_Source\PSoC6\pdl\drivers\peripheral\sysclk/cy_sysclk.c ****          timeoutus--)
 593:Generated_Source\PSoC6\pdl\drivers\peripheral\sysclk/cy_sysclk.c ****     {
 594:Generated_Source\PSoC6\pdl\drivers\peripheral\sysclk/cy_sysclk.c ****         Cy_SysLib_DelayUs(1u);
 1314              		.loc 1 594 0
 1315 0016 0120     		movs	r0, #1
 1316 0018 FFF7FEFF 		bl	Cy_SysLib_DelayUs
ARM GAS  C:\Users\gjl\AppData\Local\Temp\ccNVysBX.s 			page 36


 1317              	.LVL136:
 592:Generated_Source\PSoC6\pdl\drivers\peripheral\sysclk/cy_sysclk.c ****     {
 1318              		.loc 1 592 0
 1319 001c 013C     		subs	r4, r4, #1
 1320              	.LVL137:
 1321              	.L119:
 590:Generated_Source\PSoC6\pdl\drivers\peripheral\sysclk/cy_sysclk.c ****            (timeoutus != 0ul);
 1322              		.loc 1 590 0
 1323 001e 234B     		ldr	r3, .L132
 1324 0020 D3F89035 		ldr	r3, [r3, #1424]
 1325 0024 13F0040F 		tst	r3, #4
 1326 0028 01D1     		bne	.L120
 590:Generated_Source\PSoC6\pdl\drivers\peripheral\sysclk/cy_sysclk.c ****            (timeoutus != 0ul);
 1327              		.loc 1 590 0 is_stmt 0 discriminator 1
 1328 002a 002C     		cmp	r4, #0
 1329 002c F3D1     		bne	.L121
 1330              	.L120:
 595:Generated_Source\PSoC6\pdl\drivers\peripheral\sysclk/cy_sysclk.c ****     }
 596:Generated_Source\PSoC6\pdl\drivers\peripheral\sysclk/cy_sysclk.c **** 
 597:Generated_Source\PSoC6\pdl\drivers\peripheral\sysclk/cy_sysclk.c ****     /* Set the FLL bypass mode to 2 */
 598:Generated_Source\PSoC6\pdl\drivers\peripheral\sysclk/cy_sysclk.c ****     CY_SYSCLK_CLR_SET(SRSS->CLK_FLL_CONFIG3, SRSS_CLK_FLL_CONFIG3_BYPASS_SEL, (uint32_t)CY_SYSCLK_F
 1331              		.loc 1 598 0 is_stmt 1
 1332 002e 1F4A     		ldr	r2, .L132
 1333 0030 D2F88835 		ldr	r3, [r2, #1416]
 1334 0034 23F04053 		bic	r3, r3, #805306368
 1335 0038 43F00053 		orr	r3, r3, #536870912
 1336 003c C2F88835 		str	r3, [r2, #1416]
 599:Generated_Source\PSoC6\pdl\drivers\peripheral\sysclk/cy_sysclk.c **** 
 600:Generated_Source\PSoC6\pdl\drivers\peripheral\sysclk/cy_sysclk.c ****     /* Set the FLL enable bit, if CCO is ready */
 601:Generated_Source\PSoC6\pdl\drivers\peripheral\sysclk/cy_sysclk.c ****     if ((!nonZeroTimeout) || (nonZeroTimeout && (timeoutus != 0ul)))
 1337              		.loc 1 601 0
 1338 0040 0DB1     		cbz	r5, .L122
 1339              		.loc 1 601 0 is_stmt 0 discriminator 1
 1340 0042 65B1     		cbz	r5, .L124
 1341              		.loc 1 601 0 discriminator 2
 1342 0044 5CB1     		cbz	r4, .L124
 1343              	.L122:
 602:Generated_Source\PSoC6\pdl\drivers\peripheral\sysclk/cy_sysclk.c ****     {
 603:Generated_Source\PSoC6\pdl\drivers\peripheral\sysclk/cy_sysclk.c ****         SRSS->CLK_FLL_CONFIG |= _VAL2FLD(SRSS_CLK_FLL_CONFIG_FLL_ENABLE, 1ul); /* 1 = enable */
 1344              		.loc 1 603 0 is_stmt 1
 1345 0046 194A     		ldr	r2, .L132
 1346 0048 D2F88035 		ldr	r3, [r2, #1408]
 1347 004c 43F00043 		orr	r3, r3, #-2147483648
 1348 0050 C2F88035 		str	r3, [r2, #1408]
 1349 0054 03E0     		b	.L124
 1350              	.L126:
 604:Generated_Source\PSoC6\pdl\drivers\peripheral\sysclk/cy_sysclk.c ****     }
 605:Generated_Source\PSoC6\pdl\drivers\peripheral\sysclk/cy_sysclk.c **** 
 606:Generated_Source\PSoC6\pdl\drivers\peripheral\sysclk/cy_sysclk.c ****     /* now do the timeout wait for FLL_STATUS, bit LOCKED */
 607:Generated_Source\PSoC6\pdl\drivers\peripheral\sysclk/cy_sysclk.c ****     for (; (_FLD2VAL(SRSS_CLK_FLL_STATUS_LOCKED, SRSS->CLK_FLL_STATUS) == 0ul) &&
 608:Generated_Source\PSoC6\pdl\drivers\peripheral\sysclk/cy_sysclk.c ****            (timeoutus != 0ul);
 609:Generated_Source\PSoC6\pdl\drivers\peripheral\sysclk/cy_sysclk.c ****          timeoutus--)
 610:Generated_Source\PSoC6\pdl\drivers\peripheral\sysclk/cy_sysclk.c ****     {
 611:Generated_Source\PSoC6\pdl\drivers\peripheral\sysclk/cy_sysclk.c ****         Cy_SysLib_DelayUs(1u);
 1351              		.loc 1 611 0
 1352 0056 0120     		movs	r0, #1
 1353 0058 FFF7FEFF 		bl	Cy_SysLib_DelayUs
ARM GAS  C:\Users\gjl\AppData\Local\Temp\ccNVysBX.s 			page 37


 1354              	.LVL138:
 609:Generated_Source\PSoC6\pdl\drivers\peripheral\sysclk/cy_sysclk.c ****     {
 1355              		.loc 1 609 0
 1356 005c 013C     		subs	r4, r4, #1
 1357              	.LVL139:
 1358              	.L124:
 607:Generated_Source\PSoC6\pdl\drivers\peripheral\sysclk/cy_sysclk.c ****            (timeoutus != 0ul);
 1359              		.loc 1 607 0
 1360 005e 134B     		ldr	r3, .L132
 1361 0060 D3F89035 		ldr	r3, [r3, #1424]
 1362 0064 13F0010F 		tst	r3, #1
 1363 0068 01D1     		bne	.L125
 607:Generated_Source\PSoC6\pdl\drivers\peripheral\sysclk/cy_sysclk.c ****            (timeoutus != 0ul);
 1364              		.loc 1 607 0 is_stmt 0 discriminator 1
 1365 006a 002C     		cmp	r4, #0
 1366 006c F3D1     		bne	.L126
 1367              	.L125:
 612:Generated_Source\PSoC6\pdl\drivers\peripheral\sysclk/cy_sysclk.c ****     }
 613:Generated_Source\PSoC6\pdl\drivers\peripheral\sysclk/cy_sysclk.c **** 
 614:Generated_Source\PSoC6\pdl\drivers\peripheral\sysclk/cy_sysclk.c ****     /* If lock doesn't occur, FLL is stopped. */
 615:Generated_Source\PSoC6\pdl\drivers\peripheral\sysclk/cy_sysclk.c ****     if (nonZeroTimeout && (timeoutus == 0ul))
 1368              		.loc 1 615 0 is_stmt 1
 1369 006e 75B1     		cbz	r5, .L127
 1370              		.loc 1 615 0 is_stmt 0 discriminator 1
 1371 0070 6CB9     		cbnz	r4, .L127
 1372              	.LBB37:
 1373              	.LBB38:
 1374              		.file 2 "Generated_Source\\PSoC6\\pdl\\drivers\\peripheral\\sysclk\\cy_sysclk.h"
   1:Generated_Source\PSoC6\pdl\drivers\peripheral\sysclk/cy_sysclk.h **** /***************************************************************************//**
   2:Generated_Source\PSoC6\pdl\drivers\peripheral\sysclk/cy_sysclk.h **** * \file cy_sysclk.h
   3:Generated_Source\PSoC6\pdl\drivers\peripheral\sysclk/cy_sysclk.h **** * \version 1.10.1
   4:Generated_Source\PSoC6\pdl\drivers\peripheral\sysclk/cy_sysclk.h **** *
   5:Generated_Source\PSoC6\pdl\drivers\peripheral\sysclk/cy_sysclk.h **** * Provides an API declaration of the sysclk driver.
   6:Generated_Source\PSoC6\pdl\drivers\peripheral\sysclk/cy_sysclk.h **** *
   7:Generated_Source\PSoC6\pdl\drivers\peripheral\sysclk/cy_sysclk.h **** ********************************************************************************
   8:Generated_Source\PSoC6\pdl\drivers\peripheral\sysclk/cy_sysclk.h **** * \copyright
   9:Generated_Source\PSoC6\pdl\drivers\peripheral\sysclk/cy_sysclk.h **** * Copyright 2016-2018, Cypress Semiconductor Corporation. All rights reserved.
  10:Generated_Source\PSoC6\pdl\drivers\peripheral\sysclk/cy_sysclk.h **** * You may use this file only in accordance with the license, terms, conditions,
  11:Generated_Source\PSoC6\pdl\drivers\peripheral\sysclk/cy_sysclk.h **** * disclaimers, and limitations in the end user license agreement accompanying
  12:Generated_Source\PSoC6\pdl\drivers\peripheral\sysclk/cy_sysclk.h **** * the software package with which this file was provided.
  13:Generated_Source\PSoC6\pdl\drivers\peripheral\sysclk/cy_sysclk.h **** *******************************************************************************/
  14:Generated_Source\PSoC6\pdl\drivers\peripheral\sysclk/cy_sysclk.h **** 
  15:Generated_Source\PSoC6\pdl\drivers\peripheral\sysclk/cy_sysclk.h **** /**
  16:Generated_Source\PSoC6\pdl\drivers\peripheral\sysclk/cy_sysclk.h **** * \defgroup group_sysclk System Clock (SysClk)
  17:Generated_Source\PSoC6\pdl\drivers\peripheral\sysclk/cy_sysclk.h **** * \{
  18:Generated_Source\PSoC6\pdl\drivers\peripheral\sysclk/cy_sysclk.h **** * The System Clock (SysClk) driver contains the API for configuring system and
  19:Generated_Source\PSoC6\pdl\drivers\peripheral\sysclk/cy_sysclk.h **** * peripheral clocks. Firmware uses the API to configure , enable, or disable
  20:Generated_Source\PSoC6\pdl\drivers\peripheral\sysclk/cy_sysclk.h **** * a clock.
  21:Generated_Source\PSoC6\pdl\drivers\peripheral\sysclk/cy_sysclk.h **** * 
  22:Generated_Source\PSoC6\pdl\drivers\peripheral\sysclk/cy_sysclk.h **** * The clock system includes a variety of resources that can vary per device, including:
  23:Generated_Source\PSoC6\pdl\drivers\peripheral\sysclk/cy_sysclk.h **** * - Internal clock sources such as internal oscillators
  24:Generated_Source\PSoC6\pdl\drivers\peripheral\sysclk/cy_sysclk.h **** * - External clock sources such as crystal oscillators or a signal on an I/O pin
  25:Generated_Source\PSoC6\pdl\drivers\peripheral\sysclk/cy_sysclk.h **** * - Generated clocks such as an FLL, a PLL, and peripheral clocks
  26:Generated_Source\PSoC6\pdl\drivers\peripheral\sysclk/cy_sysclk.h **** *
  27:Generated_Source\PSoC6\pdl\drivers\peripheral\sysclk/cy_sysclk.h **** * Consult the Technical Reference Manual for your device for details of the 
  28:Generated_Source\PSoC6\pdl\drivers\peripheral\sysclk/cy_sysclk.h **** * clock system.
  29:Generated_Source\PSoC6\pdl\drivers\peripheral\sysclk/cy_sysclk.h **** *
ARM GAS  C:\Users\gjl\AppData\Local\Temp\ccNVysBX.s 			page 38


  30:Generated_Source\PSoC6\pdl\drivers\peripheral\sysclk/cy_sysclk.h **** * The PDL defines clock system capabilities in:\n
  31:Generated_Source\PSoC6\pdl\drivers\peripheral\sysclk/cy_sysclk.h **** * devices\<family\>/<series\>/include\<series\>_config.h. (E.g.
  32:Generated_Source\PSoC6\pdl\drivers\peripheral\sysclk/cy_sysclk.h **** * devices/psoc6/psoc63/include/psoc63_config.h). 
  33:Generated_Source\PSoC6\pdl\drivers\peripheral\sysclk/cy_sysclk.h **** * User-configurable clock speeds are defined in the file system_<series>.h.
  34:Generated_Source\PSoC6\pdl\drivers\peripheral\sysclk/cy_sysclk.h **** *
  35:Generated_Source\PSoC6\pdl\drivers\peripheral\sysclk/cy_sysclk.h **** * As an illustration of the clocking system, the following diagram shows the
  36:Generated_Source\PSoC6\pdl\drivers\peripheral\sysclk/cy_sysclk.h **** * PSoC 63 series clock tree. The actual tree may vary depending on the device series.
  37:Generated_Source\PSoC6\pdl\drivers\peripheral\sysclk/cy_sysclk.h **** * ![](sysclk_tree.png)
  38:Generated_Source\PSoC6\pdl\drivers\peripheral\sysclk/cy_sysclk.h **** *
  39:Generated_Source\PSoC6\pdl\drivers\peripheral\sysclk/cy_sysclk.h **** * The sysclk driver supports multiple peripheral clocks, as well as the fast 
  40:Generated_Source\PSoC6\pdl\drivers\peripheral\sysclk/cy_sysclk.h **** * clock, slow clock, backup domain clock, timer clock, and pump clock. The API
  41:Generated_Source\PSoC6\pdl\drivers\peripheral\sysclk/cy_sysclk.h **** * for any given clock contains the functions to manage that clock. Functions
  42:Generated_Source\PSoC6\pdl\drivers\peripheral\sysclk/cy_sysclk.h **** * for clock measurement and trimming are also provided.
  43:Generated_Source\PSoC6\pdl\drivers\peripheral\sysclk/cy_sysclk.h **** *
  44:Generated_Source\PSoC6\pdl\drivers\peripheral\sysclk/cy_sysclk.h **** * \section group_sysclk_configuration Configuration Considerations
  45:Generated_Source\PSoC6\pdl\drivers\peripheral\sysclk/cy_sysclk.h **** * The availability of clock functions depend on the availability of the chip
  46:Generated_Source\PSoC6\pdl\drivers\peripheral\sysclk/cy_sysclk.h **** * resources that support those functions. Consult the device TRM before
  47:Generated_Source\PSoC6\pdl\drivers\peripheral\sysclk/cy_sysclk.h **** * attempting to use these functions.
  48:Generated_Source\PSoC6\pdl\drivers\peripheral\sysclk/cy_sysclk.h **** *
  49:Generated_Source\PSoC6\pdl\drivers\peripheral\sysclk/cy_sysclk.h **** * LPActive and LPSleep power modes limit the maximum clock frequency allowed
  50:Generated_Source\PSoC6\pdl\drivers\peripheral\sysclk/cy_sysclk.h **** * on the device. Refer to the SysPm driver and the TRM for details.
  51:Generated_Source\PSoC6\pdl\drivers\peripheral\sysclk/cy_sysclk.h **** *
  52:Generated_Source\PSoC6\pdl\drivers\peripheral\sysclk/cy_sysclk.h **** * \section group_sysclk_more_information More Information
  53:Generated_Source\PSoC6\pdl\drivers\peripheral\sysclk/cy_sysclk.h **** * Refer to the technical reference manual (TRM) and the device datasheet.
  54:Generated_Source\PSoC6\pdl\drivers\peripheral\sysclk/cy_sysclk.h **** *
  55:Generated_Source\PSoC6\pdl\drivers\peripheral\sysclk/cy_sysclk.h **** * \section group_sysclk_MISRA MISRA-C Compliance
  56:Generated_Source\PSoC6\pdl\drivers\peripheral\sysclk/cy_sysclk.h **** * <table class="doxtable">
  57:Generated_Source\PSoC6\pdl\drivers\peripheral\sysclk/cy_sysclk.h **** *   <tr>
  58:Generated_Source\PSoC6\pdl\drivers\peripheral\sysclk/cy_sysclk.h **** *     <th>MISRA Rule</th>
  59:Generated_Source\PSoC6\pdl\drivers\peripheral\sysclk/cy_sysclk.h **** *     <th>Rule Class (Required/Advisory)</th>
  60:Generated_Source\PSoC6\pdl\drivers\peripheral\sysclk/cy_sysclk.h **** *     <th>Rule Description</th>
  61:Generated_Source\PSoC6\pdl\drivers\peripheral\sysclk/cy_sysclk.h **** *     <th>Description of Deviation(s)</th>
  62:Generated_Source\PSoC6\pdl\drivers\peripheral\sysclk/cy_sysclk.h **** *   </tr>
  63:Generated_Source\PSoC6\pdl\drivers\peripheral\sysclk/cy_sysclk.h **** *   <tr>
  64:Generated_Source\PSoC6\pdl\drivers\peripheral\sysclk/cy_sysclk.h **** *     <td>1.2</td>
  65:Generated_Source\PSoC6\pdl\drivers\peripheral\sysclk/cy_sysclk.h **** *     <td>R</td>
  66:Generated_Source\PSoC6\pdl\drivers\peripheral\sysclk/cy_sysclk.h **** *     <td>No reliance on undefined behavior.</td>
  67:Generated_Source\PSoC6\pdl\drivers\peripheral\sysclk/cy_sysclk.h **** *     <td>Calculation of an absolute value in the FLL and PLL configuration.</td>
  68:Generated_Source\PSoC6\pdl\drivers\peripheral\sysclk/cy_sysclk.h **** *   </tr>
  69:Generated_Source\PSoC6\pdl\drivers\peripheral\sysclk/cy_sysclk.h **** *   <tr>
  70:Generated_Source\PSoC6\pdl\drivers\peripheral\sysclk/cy_sysclk.h **** *     <td>5.6</td>
  71:Generated_Source\PSoC6\pdl\drivers\peripheral\sysclk/cy_sysclk.h **** *     <td>R</td>
  72:Generated_Source\PSoC6\pdl\drivers\peripheral\sysclk/cy_sysclk.h **** *     <td>No identifier in one name space should have the same spelling as an identifier in another
  73:Generated_Source\PSoC6\pdl\drivers\peripheral\sysclk/cy_sysclk.h **** *         exception of structure member and union member names.</td>
  74:Generated_Source\PSoC6\pdl\drivers\peripheral\sysclk/cy_sysclk.h **** *     <td>The "mode" and "retval" are used as a structure/union member they are a label, tag or ord
  75:Generated_Source\PSoC6\pdl\drivers\peripheral\sysclk/cy_sysclk.h **** *         identifier.</td>
  76:Generated_Source\PSoC6\pdl\drivers\peripheral\sysclk/cy_sysclk.h **** *   </tr>
  77:Generated_Source\PSoC6\pdl\drivers\peripheral\sysclk/cy_sysclk.h **** *   <tr>
  78:Generated_Source\PSoC6\pdl\drivers\peripheral\sysclk/cy_sysclk.h **** *     <td>10.1</td>
  79:Generated_Source\PSoC6\pdl\drivers\peripheral\sysclk/cy_sysclk.h **** *     <td>R</td>
  80:Generated_Source\PSoC6\pdl\drivers\peripheral\sysclk/cy_sysclk.h **** *     <td>The value of an expression of integer type shall not be implicitly converted to a differe
  81:Generated_Source\PSoC6\pdl\drivers\peripheral\sysclk/cy_sysclk.h **** *         if the expression is complex.</td>
  82:Generated_Source\PSoC6\pdl\drivers\peripheral\sysclk/cy_sysclk.h **** *     <td>Use of a Cypress defined macro to access memory mapped objects.
  83:Generated_Source\PSoC6\pdl\drivers\peripheral\sysclk/cy_sysclk.h **** *         Use of a Cypress defined macro to divide with rounding.</td>
  84:Generated_Source\PSoC6\pdl\drivers\peripheral\sysclk/cy_sysclk.h **** *   </tr>
  85:Generated_Source\PSoC6\pdl\drivers\peripheral\sysclk/cy_sysclk.h **** *   <tr>
  86:Generated_Source\PSoC6\pdl\drivers\peripheral\sysclk/cy_sysclk.h **** *     <td>10.2</td>
ARM GAS  C:\Users\gjl\AppData\Local\Temp\ccNVysBX.s 			page 39


  87:Generated_Source\PSoC6\pdl\drivers\peripheral\sysclk/cy_sysclk.h **** *     <td>R</td>
  88:Generated_Source\PSoC6\pdl\drivers\peripheral\sysclk/cy_sysclk.h **** *     <td>The value of an expression of floating type shall not be implicitly converted to a differ
  89:Generated_Source\PSoC6\pdl\drivers\peripheral\sysclk/cy_sysclk.h **** *         a) it is not a conversion to a wider floating type, or
  90:Generated_Source\PSoC6\pdl\drivers\peripheral\sysclk/cy_sysclk.h **** *         b) the expression is complex, or
  91:Generated_Source\PSoC6\pdl\drivers\peripheral\sysclk/cy_sysclk.h **** *         c) the expression is a function argument, or
  92:Generated_Source\PSoC6\pdl\drivers\peripheral\sysclk/cy_sysclk.h **** *         d) the expression is a return expression.</td>
  93:Generated_Source\PSoC6\pdl\drivers\peripheral\sysclk/cy_sysclk.h **** *     <td>The operands of this relational operator are expressions of different "essential type" ca
  94:Generated_Source\PSoC6\pdl\drivers\peripheral\sysclk/cy_sysclk.h **** *         (enum and unsigned).</td>
  95:Generated_Source\PSoC6\pdl\drivers\peripheral\sysclk/cy_sysclk.h **** *   </tr>
  96:Generated_Source\PSoC6\pdl\drivers\peripheral\sysclk/cy_sysclk.h **** *   <tr>
  97:Generated_Source\PSoC6\pdl\drivers\peripheral\sysclk/cy_sysclk.h **** *     <td>10.3</td>
  98:Generated_Source\PSoC6\pdl\drivers\peripheral\sysclk/cy_sysclk.h **** *     <td>R</td>
  99:Generated_Source\PSoC6\pdl\drivers\peripheral\sysclk/cy_sysclk.h **** *     <td>A composite integer expression is being cast to a wider type.</td>
 100:Generated_Source\PSoC6\pdl\drivers\peripheral\sysclk/cy_sysclk.h **** *     <td>Use of a Cypress defined macro to access memory-mapped objects. Calculating the clock par
 101:Generated_Source\PSoC6\pdl\drivers\peripheral\sysclk/cy_sysclk.h **** *   </tr>
 102:Generated_Source\PSoC6\pdl\drivers\peripheral\sysclk/cy_sysclk.h **** *   <tr>
 103:Generated_Source\PSoC6\pdl\drivers\peripheral\sysclk/cy_sysclk.h **** *     <td>10.4</td>
 104:Generated_Source\PSoC6\pdl\drivers\peripheral\sysclk/cy_sysclk.h **** *     <td>R</td>
 105:Generated_Source\PSoC6\pdl\drivers\peripheral\sysclk/cy_sysclk.h **** *     <td>A composite floating point expression is being cast to double, or unsigned.</td>
 106:Generated_Source\PSoC6\pdl\drivers\peripheral\sysclk/cy_sysclk.h **** *     <td>Use of the C library sqrt() function. Casting a floating-point calculation result to an i
 107:Generated_Source\PSoC6\pdl\drivers\peripheral\sysclk/cy_sysclk.h **** *   </tr>
 108:Generated_Source\PSoC6\pdl\drivers\peripheral\sysclk/cy_sysclk.h **** *   <tr>
 109:Generated_Source\PSoC6\pdl\drivers\peripheral\sysclk/cy_sysclk.h **** *     <td>10.5</td>
 110:Generated_Source\PSoC6\pdl\drivers\peripheral\sysclk/cy_sysclk.h **** *     <td>R</td>
 111:Generated_Source\PSoC6\pdl\drivers\peripheral\sysclk/cy_sysclk.h **** *     <td>The value of an expression of integer type shall not be implicitly converted to a differe
 112:Generated_Source\PSoC6\pdl\drivers\peripheral\sysclk/cy_sysclk.h **** *         if the expression is complex.</td>
 113:Generated_Source\PSoC6\pdl\drivers\peripheral\sysclk/cy_sysclk.h **** *     <td>Use of a Cypress defined macro to access memory-mapped objects.</td>
 114:Generated_Source\PSoC6\pdl\drivers\peripheral\sysclk/cy_sysclk.h **** *   </tr>
 115:Generated_Source\PSoC6\pdl\drivers\peripheral\sysclk/cy_sysclk.h **** *   <tr>
 116:Generated_Source\PSoC6\pdl\drivers\peripheral\sysclk/cy_sysclk.h **** *     <td>12.1</td>
 117:Generated_Source\PSoC6\pdl\drivers\peripheral\sysclk/cy_sysclk.h **** *     <td>A</td>
 118:Generated_Source\PSoC6\pdl\drivers\peripheral\sysclk/cy_sysclk.h **** *     <td>Extra parentheses recommended.</td>
 119:Generated_Source\PSoC6\pdl\drivers\peripheral\sysclk/cy_sysclk.h **** *     <td>Ternary operator uses constants; extra parentheses not needed.</td>
 120:Generated_Source\PSoC6\pdl\drivers\peripheral\sysclk/cy_sysclk.h **** *   </tr>
 121:Generated_Source\PSoC6\pdl\drivers\peripheral\sysclk/cy_sysclk.h **** *   <tr>
 122:Generated_Source\PSoC6\pdl\drivers\peripheral\sysclk/cy_sysclk.h **** *     <td>12.2</td>
 123:Generated_Source\PSoC6\pdl\drivers\peripheral\sysclk/cy_sysclk.h **** *     <td>A</td>
 124:Generated_Source\PSoC6\pdl\drivers\peripheral\sysclk/cy_sysclk.h **** *     <td>The value of an expression must be the same under any order of evaluation that the standa
 125:Generated_Source\PSoC6\pdl\drivers\peripheral\sysclk/cy_sysclk.h **** *     <td>The "rtnval" is modified more than once between the sequence points - the evaluation orde
 126:Generated_Source\PSoC6\pdl\drivers\peripheral\sysclk/cy_sysclk.h **** *   </tr>
 127:Generated_Source\PSoC6\pdl\drivers\peripheral\sysclk/cy_sysclk.h **** *   <tr>
 128:Generated_Source\PSoC6\pdl\drivers\peripheral\sysclk/cy_sysclk.h **** *     <td>12.4</td>
 129:Generated_Source\PSoC6\pdl\drivers\peripheral\sysclk/cy_sysclk.h **** *     <td>A</td>
 130:Generated_Source\PSoC6\pdl\drivers\peripheral\sysclk/cy_sysclk.h **** *     <td>The right hand operand of a logical && or || operator shall not contain side effects.</td
 131:Generated_Source\PSoC6\pdl\drivers\peripheral\sysclk/cy_sysclk.h **** *     <td>No side effect in this case.</td>
 132:Generated_Source\PSoC6\pdl\drivers\peripheral\sysclk/cy_sysclk.h **** *   </tr>
 133:Generated_Source\PSoC6\pdl\drivers\peripheral\sysclk/cy_sysclk.h **** *   <tr>
 134:Generated_Source\PSoC6\pdl\drivers\peripheral\sysclk/cy_sysclk.h **** *     <td>13.4</td>
 135:Generated_Source\PSoC6\pdl\drivers\peripheral\sysclk/cy_sysclk.h **** *     <td>R</td>
 136:Generated_Source\PSoC6\pdl\drivers\peripheral\sysclk/cy_sysclk.h **** *     <td>The controlling expression of a for statement shall not contain any objects of floating t
 137:Generated_Source\PSoC6\pdl\drivers\peripheral\sysclk/cy_sysclk.h **** *     <td>Scanning through a list of floating point values.</td>
 138:Generated_Source\PSoC6\pdl\drivers\peripheral\sysclk/cy_sysclk.h **** *   </tr>
 139:Generated_Source\PSoC6\pdl\drivers\peripheral\sysclk/cy_sysclk.h **** *   <tr>
 140:Generated_Source\PSoC6\pdl\drivers\peripheral\sysclk/cy_sysclk.h **** *     <td>16.7</td>
 141:Generated_Source\PSoC6\pdl\drivers\peripheral\sysclk/cy_sysclk.h **** *     <td>R</td>
 142:Generated_Source\PSoC6\pdl\drivers\peripheral\sysclk/cy_sysclk.h **** *     <td>The object addressed by the pointer parameter is not modified and so the pointer could be
 143:Generated_Source\PSoC6\pdl\drivers\peripheral\sysclk/cy_sysclk.h **** *         type 'pointer to const'.</td>
ARM GAS  C:\Users\gjl\AppData\Local\Temp\ccNVysBX.s 			page 40


 144:Generated_Source\PSoC6\pdl\drivers\peripheral\sysclk/cy_sysclk.h **** *     <td>The callback function for system power management (SysPm) must be of generic callback typ
 145:Generated_Source\PSoC6\pdl\drivers\peripheral\sysclk/cy_sysclk.h **** *         contains non-const pointer parameter.</td>
 146:Generated_Source\PSoC6\pdl\drivers\peripheral\sysclk/cy_sysclk.h **** *   </tr>
 147:Generated_Source\PSoC6\pdl\drivers\peripheral\sysclk/cy_sysclk.h **** *   <tr>
 148:Generated_Source\PSoC6\pdl\drivers\peripheral\sysclk/cy_sysclk.h **** *     <td>18.4</td>
 149:Generated_Source\PSoC6\pdl\drivers\peripheral\sysclk/cy_sysclk.h **** *     <td>R</td>
 150:Generated_Source\PSoC6\pdl\drivers\peripheral\sysclk/cy_sysclk.h **** *     <td>Unions shall not be used.</td>
 151:Generated_Source\PSoC6\pdl\drivers\peripheral\sysclk/cy_sysclk.h **** *     <td>The clock path in \ref Cy_SysClk_PeriphGetFrequency() uses either FLL or PLL.</td>
 152:Generated_Source\PSoC6\pdl\drivers\peripheral\sysclk/cy_sysclk.h **** *   </tr>
 153:Generated_Source\PSoC6\pdl\drivers\peripheral\sysclk/cy_sysclk.h **** *   <tr>
 154:Generated_Source\PSoC6\pdl\drivers\peripheral\sysclk/cy_sysclk.h **** *     <td>19.4</td>
 155:Generated_Source\PSoC6\pdl\drivers\peripheral\sysclk/cy_sysclk.h **** *     <td>R</td>
 156:Generated_Source\PSoC6\pdl\drivers\peripheral\sysclk/cy_sysclk.h **** *     <td>Macros shall only expand to a limited set of constructs.</td>
 157:Generated_Source\PSoC6\pdl\drivers\peripheral\sysclk/cy_sysclk.h **** *     <td>The macro CY_SYSCLK_CLR_SET uses a concatenate operation,
 158:Generated_Source\PSoC6\pdl\drivers\peripheral\sysclk/cy_sysclk.h **** *         so one of the macro parameters cannot be enclosed in parentheses.</td>
 159:Generated_Source\PSoC6\pdl\drivers\peripheral\sysclk/cy_sysclk.h **** *   </tr>
 160:Generated_Source\PSoC6\pdl\drivers\peripheral\sysclk/cy_sysclk.h **** * </table>
 161:Generated_Source\PSoC6\pdl\drivers\peripheral\sysclk/cy_sysclk.h **** *
 162:Generated_Source\PSoC6\pdl\drivers\peripheral\sysclk/cy_sysclk.h **** *
 163:Generated_Source\PSoC6\pdl\drivers\peripheral\sysclk/cy_sysclk.h **** * \section group_sysclk_changelog Changelog
 164:Generated_Source\PSoC6\pdl\drivers\peripheral\sysclk/cy_sysclk.h **** * <table class="doxtable">
 165:Generated_Source\PSoC6\pdl\drivers\peripheral\sysclk/cy_sysclk.h **** *   <tr><th>Version</th><th>Changes</th><th>Reason for Change</th></tr>
 166:Generated_Source\PSoC6\pdl\drivers\peripheral\sysclk/cy_sysclk.h **** *   <tr>
 167:Generated_Source\PSoC6\pdl\drivers\peripheral\sysclk/cy_sysclk.h **** *     <td>1.10.1</td>
 168:Generated_Source\PSoC6\pdl\drivers\peripheral\sysclk/cy_sysclk.h **** *     <td>Renamed Power Management section to Low Power Callback section</td>
 169:Generated_Source\PSoC6\pdl\drivers\peripheral\sysclk/cy_sysclk.h **** *     <td>Documentation update and clarification</td>
 170:Generated_Source\PSoC6\pdl\drivers\peripheral\sysclk/cy_sysclk.h **** *   </tr>
 171:Generated_Source\PSoC6\pdl\drivers\peripheral\sysclk/cy_sysclk.h **** *   <tr>
 172:Generated_Source\PSoC6\pdl\drivers\peripheral\sysclk/cy_sysclk.h **** *     <td rowspan="5">1.10</td>
 173:Generated_Source\PSoC6\pdl\drivers\peripheral\sysclk/cy_sysclk.h **** *     <td>Updated FLL parameter calculation</td>
 174:Generated_Source\PSoC6\pdl\drivers\peripheral\sysclk/cy_sysclk.h **** *     <td>Support low frequency sources</td>
 175:Generated_Source\PSoC6\pdl\drivers\peripheral\sysclk/cy_sysclk.h **** *   </tr>
 176:Generated_Source\PSoC6\pdl\drivers\peripheral\sysclk/cy_sysclk.h **** *   <tr>
 177:Generated_Source\PSoC6\pdl\drivers\peripheral\sysclk/cy_sysclk.h **** *     <td>Added Cy_SysClk_PiloSetTrim() and Cy_SysclkPiloGetTrim() functions</td>
 178:Generated_Source\PSoC6\pdl\drivers\peripheral\sysclk/cy_sysclk.h **** *     <td>Support PILO manual trims</td>
 179:Generated_Source\PSoC6\pdl\drivers\peripheral\sysclk/cy_sysclk.h **** *   </tr>
 180:Generated_Source\PSoC6\pdl\drivers\peripheral\sysclk/cy_sysclk.h **** *   <tr>
 181:Generated_Source\PSoC6\pdl\drivers\peripheral\sysclk/cy_sysclk.h **** *     <td>Made Cy_SysClk_FllLostLock() function dependent on SRSS v1</td>
 182:Generated_Source\PSoC6\pdl\drivers\peripheral\sysclk/cy_sysclk.h **** *     <td>Feature is not supported in SRSS v1</td>
 183:Generated_Source\PSoC6\pdl\drivers\peripheral\sysclk/cy_sysclk.h **** *   </tr>
 184:Generated_Source\PSoC6\pdl\drivers\peripheral\sysclk/cy_sysclk.h **** *   <tr>
 185:Generated_Source\PSoC6\pdl\drivers\peripheral\sysclk/cy_sysclk.h **** *     <td>Updated Cy_SysClk_DeepSleepCallback() to save/restore both FLL and PLL settings</td>
 186:Generated_Source\PSoC6\pdl\drivers\peripheral\sysclk/cy_sysclk.h **** *     <td>The function should return when the lock is established or a timeout has occurred</td>
 187:Generated_Source\PSoC6\pdl\drivers\peripheral\sysclk/cy_sysclk.h **** *   </tr>
 188:Generated_Source\PSoC6\pdl\drivers\peripheral\sysclk/cy_sysclk.h **** *   <tr>
 189:Generated_Source\PSoC6\pdl\drivers\peripheral\sysclk/cy_sysclk.h **** *     <td>General documentation updates</td>
 190:Generated_Source\PSoC6\pdl\drivers\peripheral\sysclk/cy_sysclk.h **** *     <td></td>
 191:Generated_Source\PSoC6\pdl\drivers\peripheral\sysclk/cy_sysclk.h **** *   </tr>
 192:Generated_Source\PSoC6\pdl\drivers\peripheral\sysclk/cy_sysclk.h **** *   <tr>
 193:Generated_Source\PSoC6\pdl\drivers\peripheral\sysclk/cy_sysclk.h **** *     <td>1.0</td>
 194:Generated_Source\PSoC6\pdl\drivers\peripheral\sysclk/cy_sysclk.h **** *     <td>Initial version</td>
 195:Generated_Source\PSoC6\pdl\drivers\peripheral\sysclk/cy_sysclk.h **** *     <td></td>
 196:Generated_Source\PSoC6\pdl\drivers\peripheral\sysclk/cy_sysclk.h **** *   </tr>
 197:Generated_Source\PSoC6\pdl\drivers\peripheral\sysclk/cy_sysclk.h **** * </table>
 198:Generated_Source\PSoC6\pdl\drivers\peripheral\sysclk/cy_sysclk.h **** *
 199:Generated_Source\PSoC6\pdl\drivers\peripheral\sysclk/cy_sysclk.h **** * \defgroup group_sysclk_macros           Macros
 200:Generated_Source\PSoC6\pdl\drivers\peripheral\sysclk/cy_sysclk.h **** * \{
ARM GAS  C:\Users\gjl\AppData\Local\Temp\ccNVysBX.s 			page 41


 201:Generated_Source\PSoC6\pdl\drivers\peripheral\sysclk/cy_sysclk.h **** * \}
 202:Generated_Source\PSoC6\pdl\drivers\peripheral\sysclk/cy_sysclk.h **** * \defgroup group_sysclk_enums           General Enumerated Types
 203:Generated_Source\PSoC6\pdl\drivers\peripheral\sysclk/cy_sysclk.h **** * \{
 204:Generated_Source\PSoC6\pdl\drivers\peripheral\sysclk/cy_sysclk.h **** *   \defgroup group_sysclk_returns         Function return values
 205:Generated_Source\PSoC6\pdl\drivers\peripheral\sysclk/cy_sysclk.h **** * \}
 206:Generated_Source\PSoC6\pdl\drivers\peripheral\sysclk/cy_sysclk.h **** * \defgroup group_sysclk_eco             External Crystal Oscillator (ECO)
 207:Generated_Source\PSoC6\pdl\drivers\peripheral\sysclk/cy_sysclk.h **** * \{
 208:Generated_Source\PSoC6\pdl\drivers\peripheral\sysclk/cy_sysclk.h **** *   The External Crystal Oscillator (ECO) is a clock source that consists
 209:Generated_Source\PSoC6\pdl\drivers\peripheral\sysclk/cy_sysclk.h **** *   of an oscillator circuit that drives an external crystal through its
 210:Generated_Source\PSoC6\pdl\drivers\peripheral\sysclk/cy_sysclk.h **** *   dedicated ECO pins. The ECO is a source clock that can be used to
 211:Generated_Source\PSoC6\pdl\drivers\peripheral\sysclk/cy_sysclk.h **** *   source one or more clock paths (Refer to \ref group_sysclk_path_src).
 212:Generated_Source\PSoC6\pdl\drivers\peripheral\sysclk/cy_sysclk.h **** *   These clock paths can then source the processors and peripherals in
 213:Generated_Source\PSoC6\pdl\drivers\peripheral\sysclk/cy_sysclk.h **** *   the device.
 214:Generated_Source\PSoC6\pdl\drivers\peripheral\sysclk/cy_sysclk.h **** *
 215:Generated_Source\PSoC6\pdl\drivers\peripheral\sysclk/cy_sysclk.h **** *   The ECO relies on the presence of an external crystal. The pins
 216:Generated_Source\PSoC6\pdl\drivers\peripheral\sysclk/cy_sysclk.h **** *   connected to this crystal must be configured to operate in analog
 217:Generated_Source\PSoC6\pdl\drivers\peripheral\sysclk/cy_sysclk.h **** *   drive mode with HSIOM connection set to GPIO control (HSIOM_SEL_GPIO).
 218:Generated_Source\PSoC6\pdl\drivers\peripheral\sysclk/cy_sysclk.h **** *
 219:Generated_Source\PSoC6\pdl\drivers\peripheral\sysclk/cy_sysclk.h **** *   \defgroup group_sysclk_eco_funcs       Functions
 220:Generated_Source\PSoC6\pdl\drivers\peripheral\sysclk/cy_sysclk.h **** * \}
 221:Generated_Source\PSoC6\pdl\drivers\peripheral\sysclk/cy_sysclk.h **** * \defgroup group_sysclk_path_src           Clock Path Source
 222:Generated_Source\PSoC6\pdl\drivers\peripheral\sysclk/cy_sysclk.h **** * \{
 223:Generated_Source\PSoC6\pdl\drivers\peripheral\sysclk/cy_sysclk.h **** *   Clock paths are a series of multiplexers that allow a source clock
 224:Generated_Source\PSoC6\pdl\drivers\peripheral\sysclk/cy_sysclk.h **** *   to drive multiple clocking resources down the chain. These paths are
 225:Generated_Source\PSoC6\pdl\drivers\peripheral\sysclk/cy_sysclk.h **** *   used for active domain clocks that are not operational during chip 
 226:Generated_Source\PSoC6\pdl\drivers\peripheral\sysclk/cy_sysclk.h **** *   deep-sleep, hibernate and off modes. Illustrated below is a diagram
 227:Generated_Source\PSoC6\pdl\drivers\peripheral\sysclk/cy_sysclk.h **** *   of the clock paths for the PSoC 63 series, showing the first three
 228:Generated_Source\PSoC6\pdl\drivers\peripheral\sysclk/cy_sysclk.h **** *   clock paths. The source clocks for these paths are highlighted in
 229:Generated_Source\PSoC6\pdl\drivers\peripheral\sysclk/cy_sysclk.h **** *   the red box.
 230:Generated_Source\PSoC6\pdl\drivers\peripheral\sysclk/cy_sysclk.h **** *
 231:Generated_Source\PSoC6\pdl\drivers\peripheral\sysclk/cy_sysclk.h **** *   - IMO: 8 MHz Internal Main Oscillator (Default)
 232:Generated_Source\PSoC6\pdl\drivers\peripheral\sysclk/cy_sysclk.h **** *   - EXTCLK: External clock (signal brought in through dedicated pins)
 233:Generated_Source\PSoC6\pdl\drivers\peripheral\sysclk/cy_sysclk.h **** *   - ECO: External Crystal Oscillator (requires external crystal on dedicated pins)
 234:Generated_Source\PSoC6\pdl\drivers\peripheral\sysclk/cy_sysclk.h **** *   - ALTHF: Select on-chip signals (e.g. BLE ECO)
 235:Generated_Source\PSoC6\pdl\drivers\peripheral\sysclk/cy_sysclk.h **** *   - Digital Signal (DSI): Digital signal from a UDB source
 236:Generated_Source\PSoC6\pdl\drivers\peripheral\sysclk/cy_sysclk.h **** *
 237:Generated_Source\PSoC6\pdl\drivers\peripheral\sysclk/cy_sysclk.h **** *   Some clock paths such as path 0 and path 1 have additional resources
 238:Generated_Source\PSoC6\pdl\drivers\peripheral\sysclk/cy_sysclk.h **** *   that can be utilized to provide a higher frequency clock. For example, 
 239:Generated_Source\PSoC6\pdl\drivers\peripheral\sysclk/cy_sysclk.h **** *   path 0 source clock can be used as the reference clock for the FLL and 
 240:Generated_Source\PSoC6\pdl\drivers\peripheral\sysclk/cy_sysclk.h **** *   path 1 source clock can be used as the reference clock for the PLL.
 241:Generated_Source\PSoC6\pdl\drivers\peripheral\sysclk/cy_sysclk.h **** *
 242:Generated_Source\PSoC6\pdl\drivers\peripheral\sysclk/cy_sysclk.h **** *   ![](sysclk_path_source.png)
 243:Generated_Source\PSoC6\pdl\drivers\peripheral\sysclk/cy_sysclk.h **** *
 244:Generated_Source\PSoC6\pdl\drivers\peripheral\sysclk/cy_sysclk.h **** *   \note The PDL driver cannot configure a clock path to use Digital Signal
 245:Generated_Source\PSoC6\pdl\drivers\peripheral\sysclk/cy_sysclk.h **** *   Interconnect (DSI) outputs as sources. This must be done through DSI
 246:Generated_Source\PSoC6\pdl\drivers\peripheral\sysclk/cy_sysclk.h **** *   configuration tool such as PSoC Creator.
 247:Generated_Source\PSoC6\pdl\drivers\peripheral\sysclk/cy_sysclk.h **** *
 248:Generated_Source\PSoC6\pdl\drivers\peripheral\sysclk/cy_sysclk.h **** *   \defgroup group_sysclk_path_src_funcs     Functions
 249:Generated_Source\PSoC6\pdl\drivers\peripheral\sysclk/cy_sysclk.h **** *   \defgroup group_sysclk_path_src_enums     Enumerated Types
 250:Generated_Source\PSoC6\pdl\drivers\peripheral\sysclk/cy_sysclk.h **** * \}
 251:Generated_Source\PSoC6\pdl\drivers\peripheral\sysclk/cy_sysclk.h **** * \defgroup group_sysclk_fll             Frequency Locked Loop (FLL)
 252:Generated_Source\PSoC6\pdl\drivers\peripheral\sysclk/cy_sysclk.h **** * \{
 253:Generated_Source\PSoC6\pdl\drivers\peripheral\sysclk/cy_sysclk.h **** *   The FLL is a clock generation circuit that can be used to produce a
 254:Generated_Source\PSoC6\pdl\drivers\peripheral\sysclk/cy_sysclk.h **** *   higher frequency clock from a reference clock. The output clock exhibits
 255:Generated_Source\PSoC6\pdl\drivers\peripheral\sysclk/cy_sysclk.h **** *   some characteristics of the reference clock such as the accuracy of the
 256:Generated_Source\PSoC6\pdl\drivers\peripheral\sysclk/cy_sysclk.h **** *   source. However other attributes such as the clock phase are not preserved.
 257:Generated_Source\PSoC6\pdl\drivers\peripheral\sysclk/cy_sysclk.h **** *   The FLL is similar in purpose to a (Phase locked loop) PLL but they are
ARM GAS  C:\Users\gjl\AppData\Local\Temp\ccNVysBX.s 			page 42


 258:Generated_Source\PSoC6\pdl\drivers\peripheral\sysclk/cy_sysclk.h **** *   not equivalent.
 259:Generated_Source\PSoC6\pdl\drivers\peripheral\sysclk/cy_sysclk.h **** *
 260:Generated_Source\PSoC6\pdl\drivers\peripheral\sysclk/cy_sysclk.h **** *   - They may have different frequency ranges.
 261:Generated_Source\PSoC6\pdl\drivers\peripheral\sysclk/cy_sysclk.h **** *   - The FLL starts up (locks) faster and consumes less current than the PLL.
 262:Generated_Source\PSoC6\pdl\drivers\peripheral\sysclk/cy_sysclk.h **** *   - The FLL accepts a source clock with lower frequency than PLL, such as the WCO (32 KHz). 
 263:Generated_Source\PSoC6\pdl\drivers\peripheral\sysclk/cy_sysclk.h **** *   - The FLL does not lock phase. The hardware consist of a counter with a
 264:Generated_Source\PSoC6\pdl\drivers\peripheral\sysclk/cy_sysclk.h **** *     current-controlled oscillator (CCO). The counter counts the number of output
 265:Generated_Source\PSoC6\pdl\drivers\peripheral\sysclk/cy_sysclk.h **** *     clock edges in a reference clock period and adjusts the CCO until the
 266:Generated_Source\PSoC6\pdl\drivers\peripheral\sysclk/cy_sysclk.h **** *     expected ratio is achieved (locked). After initial lock, the CCO is
 267:Generated_Source\PSoC6\pdl\drivers\peripheral\sysclk/cy_sysclk.h **** *     adjusted dynamically to keep the ratio within tolerance. The lock tolerance
 268:Generated_Source\PSoC6\pdl\drivers\peripheral\sysclk/cy_sysclk.h **** *     is user-adjustable.
 269:Generated_Source\PSoC6\pdl\drivers\peripheral\sysclk/cy_sysclk.h **** *   ![](sysclk_fll.png)
 270:Generated_Source\PSoC6\pdl\drivers\peripheral\sysclk/cy_sysclk.h **** *
 271:Generated_Source\PSoC6\pdl\drivers\peripheral\sysclk/cy_sysclk.h **** *   The SysClk driver supports two models for configuring the FLL. The first
 272:Generated_Source\PSoC6\pdl\drivers\peripheral\sysclk/cy_sysclk.h **** *   model is to call the Cy_SysClk_FllConfigure() function, which calculates the 
 273:Generated_Source\PSoC6\pdl\drivers\peripheral\sysclk/cy_sysclk.h **** *   necessary parameters for the FLL at run-time. This may be necessary for dynamic
 274:Generated_Source\PSoC6\pdl\drivers\peripheral\sysclk/cy_sysclk.h **** *   run-time changes to the FLL. However this method is slow as it needs to perform 
 275:Generated_Source\PSoC6\pdl\drivers\peripheral\sysclk/cy_sysclk.h **** *   the calculation before configuring the FLL. The other model is to call 
 276:Generated_Source\PSoC6\pdl\drivers\peripheral\sysclk/cy_sysclk.h **** *   Cy_SysClk_FllManualConfigure() function with pre-calculated parameter values. 
 277:Generated_Source\PSoC6\pdl\drivers\peripheral\sysclk/cy_sysclk.h **** *   This method is faster but requires prior knowledge of the necessary parameters.
 278:Generated_Source\PSoC6\pdl\drivers\peripheral\sysclk/cy_sysclk.h **** *   Consult the device TRM for the FLL calculation equations.
 279:Generated_Source\PSoC6\pdl\drivers\peripheral\sysclk/cy_sysclk.h **** *
 280:Generated_Source\PSoC6\pdl\drivers\peripheral\sysclk/cy_sysclk.h **** *   \defgroup group_sysclk_fll_funcs       Functions
 281:Generated_Source\PSoC6\pdl\drivers\peripheral\sysclk/cy_sysclk.h **** *   \defgroup group_sysclk_fll_structs     Data Structures
 282:Generated_Source\PSoC6\pdl\drivers\peripheral\sysclk/cy_sysclk.h **** *   \defgroup group_sysclk_fll_enums       Enumerated Types
 283:Generated_Source\PSoC6\pdl\drivers\peripheral\sysclk/cy_sysclk.h **** * \}
 284:Generated_Source\PSoC6\pdl\drivers\peripheral\sysclk/cy_sysclk.h **** * \defgroup group_sysclk_pll             Phase Locked Loop (PLL)
 285:Generated_Source\PSoC6\pdl\drivers\peripheral\sysclk/cy_sysclk.h **** * \{
 286:Generated_Source\PSoC6\pdl\drivers\peripheral\sysclk/cy_sysclk.h **** *   The PLL is a clock generation circuit that can be used to produce a
 287:Generated_Source\PSoC6\pdl\drivers\peripheral\sysclk/cy_sysclk.h **** *   higher frequency clock from a reference clock. The output clock exhibits
 288:Generated_Source\PSoC6\pdl\drivers\peripheral\sysclk/cy_sysclk.h **** *   characteristics of the reference clock such as the accuracy of the source
 289:Generated_Source\PSoC6\pdl\drivers\peripheral\sysclk/cy_sysclk.h **** *   and its phase. The PLL is similar in purpose to a (Frequency locked loop) FLL
 290:Generated_Source\PSoC6\pdl\drivers\peripheral\sysclk/cy_sysclk.h **** *   but they are not equivalent.
 291:Generated_Source\PSoC6\pdl\drivers\peripheral\sysclk/cy_sysclk.h **** *
 292:Generated_Source\PSoC6\pdl\drivers\peripheral\sysclk/cy_sysclk.h **** *   - They may have different frequency ranges.
 293:Generated_Source\PSoC6\pdl\drivers\peripheral\sysclk/cy_sysclk.h **** *   - The PLL starts up more slowly and consumes more current than the FLL.
 294:Generated_Source\PSoC6\pdl\drivers\peripheral\sysclk/cy_sysclk.h **** *   - The PLL requires a higher frequency source clock than PLL. 
 295:Generated_Source\PSoC6\pdl\drivers\peripheral\sysclk/cy_sysclk.h **** *   ![](sysclk_pll.png)
 296:Generated_Source\PSoC6\pdl\drivers\peripheral\sysclk/cy_sysclk.h **** *
 297:Generated_Source\PSoC6\pdl\drivers\peripheral\sysclk/cy_sysclk.h **** *   The SysClk driver supports two models for configuring the PLL. The first
 298:Generated_Source\PSoC6\pdl\drivers\peripheral\sysclk/cy_sysclk.h **** *   model is to call the Cy_SysClk_PllConfigure() function, which calculates the 
 299:Generated_Source\PSoC6\pdl\drivers\peripheral\sysclk/cy_sysclk.h **** *   necessary parameters for the PLL at run-time. This may be necessary for dynamic
 300:Generated_Source\PSoC6\pdl\drivers\peripheral\sysclk/cy_sysclk.h **** *   run-time changes to the PLL. However this method is slow as it needs to perform 
 301:Generated_Source\PSoC6\pdl\drivers\peripheral\sysclk/cy_sysclk.h **** *   the calculation before configuring the PLL. The other model is to call 
 302:Generated_Source\PSoC6\pdl\drivers\peripheral\sysclk/cy_sysclk.h **** *   Cy_SysClk_PllManualConfigure() function with pre-calculated parameter values. 
 303:Generated_Source\PSoC6\pdl\drivers\peripheral\sysclk/cy_sysclk.h **** *   This method is faster but requires prior knowledge of the necessary parameters.
 304:Generated_Source\PSoC6\pdl\drivers\peripheral\sysclk/cy_sysclk.h **** *   Consult the device TRM for the PLL calculation equations.
 305:Generated_Source\PSoC6\pdl\drivers\peripheral\sysclk/cy_sysclk.h **** *
 306:Generated_Source\PSoC6\pdl\drivers\peripheral\sysclk/cy_sysclk.h **** *   \defgroup group_sysclk_pll_funcs       Functions
 307:Generated_Source\PSoC6\pdl\drivers\peripheral\sysclk/cy_sysclk.h **** *   \defgroup group_sysclk_pll_structs     Data Structures
 308:Generated_Source\PSoC6\pdl\drivers\peripheral\sysclk/cy_sysclk.h **** * \}
 309:Generated_Source\PSoC6\pdl\drivers\peripheral\sysclk/cy_sysclk.h **** * \defgroup group_sysclk_ilo             Internal Low-Speed Oscillator (ILO)
 310:Generated_Source\PSoC6\pdl\drivers\peripheral\sysclk/cy_sysclk.h **** * \{
 311:Generated_Source\PSoC6\pdl\drivers\peripheral\sysclk/cy_sysclk.h **** *   The ILO operates with no external components and outputs a stable clock at
 312:Generated_Source\PSoC6\pdl\drivers\peripheral\sysclk/cy_sysclk.h **** *   32.768 kHz nominal. The ILO is relatively low power and low accuracy. It is 
 313:Generated_Source\PSoC6\pdl\drivers\peripheral\sysclk/cy_sysclk.h **** *   available in all power modes and can be used as a source for the Backup domain clock.
 314:Generated_Source\PSoC6\pdl\drivers\peripheral\sysclk/cy_sysclk.h **** *   ![](sysclk_backup.png)
ARM GAS  C:\Users\gjl\AppData\Local\Temp\ccNVysBX.s 			page 43


 315:Generated_Source\PSoC6\pdl\drivers\peripheral\sysclk/cy_sysclk.h **** *
 316:Generated_Source\PSoC6\pdl\drivers\peripheral\sysclk/cy_sysclk.h **** *   To ensure the ILO remains active in Hibernate mode, and across power-on-reset
 317:Generated_Source\PSoC6\pdl\drivers\peripheral\sysclk/cy_sysclk.h **** *   (POR) or brown out detect (BOD), firmware must call Cy_SysClk_IloHibernateOn(). 
 318:Generated_Source\PSoC6\pdl\drivers\peripheral\sysclk/cy_sysclk.h **** *
 319:Generated_Source\PSoC6\pdl\drivers\peripheral\sysclk/cy_sysclk.h **** *   Additionally, the ILO clock can be trimmed to +/- 1.5% of nominal frequency using
 320:Generated_Source\PSoC6\pdl\drivers\peripheral\sysclk/cy_sysclk.h **** *   a higher precision clock source. Use the \ref group_sysclk_calclk API to measure 
 321:Generated_Source\PSoC6\pdl\drivers\peripheral\sysclk/cy_sysclk.h **** *   the current ILO frequency before trimming.
 322:Generated_Source\PSoC6\pdl\drivers\peripheral\sysclk/cy_sysclk.h **** *
 323:Generated_Source\PSoC6\pdl\drivers\peripheral\sysclk/cy_sysclk.h **** *   \note The ILO is always the source clock for the \ref group_wdt. Therefore:
 324:Generated_Source\PSoC6\pdl\drivers\peripheral\sysclk/cy_sysclk.h **** *   - The WDT must be unlocked when making an ILO function call in the PDL
 325:Generated_Source\PSoC6\pdl\drivers\peripheral\sysclk/cy_sysclk.h **** *   - It is recommended to always have the ILO enabled
 326:Generated_Source\PSoC6\pdl\drivers\peripheral\sysclk/cy_sysclk.h **** *
 327:Generated_Source\PSoC6\pdl\drivers\peripheral\sysclk/cy_sysclk.h **** *   \defgroup group_sysclk_ilo_funcs       Functions
 328:Generated_Source\PSoC6\pdl\drivers\peripheral\sysclk/cy_sysclk.h **** * \}
 329:Generated_Source\PSoC6\pdl\drivers\peripheral\sysclk/cy_sysclk.h **** * \defgroup group_sysclk_pilo            Precision Internal Low-Speed Oscillator (PILO)
 330:Generated_Source\PSoC6\pdl\drivers\peripheral\sysclk/cy_sysclk.h **** * \{
 331:Generated_Source\PSoC6\pdl\drivers\peripheral\sysclk/cy_sysclk.h **** *   PILO provides a higher accuracy 32.768 kHz clock than the \ref group_sysclk_ilo "ILO".
 332:Generated_Source\PSoC6\pdl\drivers\peripheral\sysclk/cy_sysclk.h **** *   When periodically calibrated using a high-accuracy clock such as the
 333:Generated_Source\PSoC6\pdl\drivers\peripheral\sysclk/cy_sysclk.h **** *   \ref group_sysclk_eco "ECO", the PILO can achieve 250 ppm accuracy of nominal frequency.
 334:Generated_Source\PSoC6\pdl\drivers\peripheral\sysclk/cy_sysclk.h **** *   The PILO is capable of operating in device Active, Sleep and Deep-Sleep power modes. 
 335:Generated_Source\PSoC6\pdl\drivers\peripheral\sysclk/cy_sysclk.h **** *   It is not available in Hibernate mode.
 336:Generated_Source\PSoC6\pdl\drivers\peripheral\sysclk/cy_sysclk.h **** *
 337:Generated_Source\PSoC6\pdl\drivers\peripheral\sysclk/cy_sysclk.h **** *   The PILO can be used as a source for the \ref group_sysclk_clk_lf. However,
 338:Generated_Source\PSoC6\pdl\drivers\peripheral\sysclk/cy_sysclk.h **** *   because PILO is disabled in Hibernate mode, RTC timers cannot operate in this mode
 339:Generated_Source\PSoC6\pdl\drivers\peripheral\sysclk/cy_sysclk.h **** *   when clocked using the PILO. Instead, either the \ref group_sysclk_ilo "ILO" or
 340:Generated_Source\PSoC6\pdl\drivers\peripheral\sysclk/cy_sysclk.h **** *   \ref group_sysclk_wco "WCO" should be used when hibernate operation is required. 
 341:Generated_Source\PSoC6\pdl\drivers\peripheral\sysclk/cy_sysclk.h **** *
 342:Generated_Source\PSoC6\pdl\drivers\peripheral\sysclk/cy_sysclk.h **** *   ![](sysclk_backup.png)
 343:Generated_Source\PSoC6\pdl\drivers\peripheral\sysclk/cy_sysclk.h **** *
 344:Generated_Source\PSoC6\pdl\drivers\peripheral\sysclk/cy_sysclk.h **** *   Periodic calibration to a high-accuracy clock (such as ECO) is required to
 345:Generated_Source\PSoC6\pdl\drivers\peripheral\sysclk/cy_sysclk.h **** *   maintain accuracy. The application should use the functions described in the 
 346:Generated_Source\PSoC6\pdl\drivers\peripheral\sysclk/cy_sysclk.h **** *   \ref group_sysclk_calclk API to measure the current PILO frequency before trimming.
 347:Generated_Source\PSoC6\pdl\drivers\peripheral\sysclk/cy_sysclk.h **** *
 348:Generated_Source\PSoC6\pdl\drivers\peripheral\sysclk/cy_sysclk.h **** *   \defgroup group_sysclk_pilo_funcs      Functions
 349:Generated_Source\PSoC6\pdl\drivers\peripheral\sysclk/cy_sysclk.h **** * \}
 350:Generated_Source\PSoC6\pdl\drivers\peripheral\sysclk/cy_sysclk.h **** * \defgroup group_sysclk_calclk          Clock Measurement
 351:Generated_Source\PSoC6\pdl\drivers\peripheral\sysclk/cy_sysclk.h **** * \{
 352:Generated_Source\PSoC6\pdl\drivers\peripheral\sysclk/cy_sysclk.h **** *   These functions measure the frequency of a specified clock relative to a
 353:Generated_Source\PSoC6\pdl\drivers\peripheral\sysclk/cy_sysclk.h **** *   reference clock. They are typically called in the following order:
 354:Generated_Source\PSoC6\pdl\drivers\peripheral\sysclk/cy_sysclk.h **** *
 355:Generated_Source\PSoC6\pdl\drivers\peripheral\sysclk/cy_sysclk.h **** *   1. Specify the measured clock, the count, and the reference clock
 356:Generated_Source\PSoC6\pdl\drivers\peripheral\sysclk/cy_sysclk.h **** *   2. Start the counters
 357:Generated_Source\PSoC6\pdl\drivers\peripheral\sysclk/cy_sysclk.h **** *   3. Wait for the measurement counter to finish counting
 358:Generated_Source\PSoC6\pdl\drivers\peripheral\sysclk/cy_sysclk.h **** *   4. Retrieve the measured frequency
 359:Generated_Source\PSoC6\pdl\drivers\peripheral\sysclk/cy_sysclk.h **** *
 360:Generated_Source\PSoC6\pdl\drivers\peripheral\sysclk/cy_sysclk.h **** *   \note These functions may also be used as part of a clock trimming
 361:Generated_Source\PSoC6\pdl\drivers\peripheral\sysclk/cy_sysclk.h **** *   process. Refer to the \ref group_sysclk_trim "Clock Trim" API.
 362:Generated_Source\PSoC6\pdl\drivers\peripheral\sysclk/cy_sysclk.h **** *
 363:Generated_Source\PSoC6\pdl\drivers\peripheral\sysclk/cy_sysclk.h **** *   \defgroup group_sysclk_calclk_funcs    Functions
 364:Generated_Source\PSoC6\pdl\drivers\peripheral\sysclk/cy_sysclk.h **** *   \defgroup group_sysclk_calclk_enums    Enumerated Types
 365:Generated_Source\PSoC6\pdl\drivers\peripheral\sysclk/cy_sysclk.h **** * \}
 366:Generated_Source\PSoC6\pdl\drivers\peripheral\sysclk/cy_sysclk.h **** * \defgroup group_sysclk_trim            Clock Trim (ILO, PILO)
 367:Generated_Source\PSoC6\pdl\drivers\peripheral\sysclk/cy_sysclk.h **** * \{
 368:Generated_Source\PSoC6\pdl\drivers\peripheral\sysclk/cy_sysclk.h **** *   These functions perform a single trim operation on the ILO or PILO. Each
 369:Generated_Source\PSoC6\pdl\drivers\peripheral\sysclk/cy_sysclk.h **** *   function's parameter is the actual frequency of the clock. To measure the
 370:Generated_Source\PSoC6\pdl\drivers\peripheral\sysclk/cy_sysclk.h **** *   frequency, use the functions described in the \ref group_sysclk_calclk API.
 371:Generated_Source\PSoC6\pdl\drivers\peripheral\sysclk/cy_sysclk.h **** *
ARM GAS  C:\Users\gjl\AppData\Local\Temp\ccNVysBX.s 			page 44


 372:Generated_Source\PSoC6\pdl\drivers\peripheral\sysclk/cy_sysclk.h **** *   To trim the clock as close as possible to the target frequency, multiple
 373:Generated_Source\PSoC6\pdl\drivers\peripheral\sysclk/cy_sysclk.h **** *   calls to the trim function may be needed. A typical usage example is to:
 374:Generated_Source\PSoC6\pdl\drivers\peripheral\sysclk/cy_sysclk.h **** *   1. Call the clock measurement functions to get the actual frequency of the clock
 375:Generated_Source\PSoC6\pdl\drivers\peripheral\sysclk/cy_sysclk.h **** *   2. Call the trim function, passing in the measured frequency
 376:Generated_Source\PSoC6\pdl\drivers\peripheral\sysclk/cy_sysclk.h **** *   3. Repeat the above until the trim function reports that the clock is trimmed to within limits.
 377:Generated_Source\PSoC6\pdl\drivers\peripheral\sysclk/cy_sysclk.h **** *
 378:Generated_Source\PSoC6\pdl\drivers\peripheral\sysclk/cy_sysclk.h **** *   \defgroup group_sysclk_trim_funcs      Functions
 379:Generated_Source\PSoC6\pdl\drivers\peripheral\sysclk/cy_sysclk.h **** * \}
 380:Generated_Source\PSoC6\pdl\drivers\peripheral\sysclk/cy_sysclk.h **** * \defgroup group_sysclk_pm              Low Power Callback
 381:Generated_Source\PSoC6\pdl\drivers\peripheral\sysclk/cy_sysclk.h **** * \{
 382:Generated_Source\PSoC6\pdl\drivers\peripheral\sysclk/cy_sysclk.h **** *   Entering and exiting low power modes require compatible clock configurations
 383:Generated_Source\PSoC6\pdl\drivers\peripheral\sysclk/cy_sysclk.h **** *   to be set before entering low power and restored upon wake-up and exit. The
 384:Generated_Source\PSoC6\pdl\drivers\peripheral\sysclk/cy_sysclk.h **** *   SysClk driver provides a Cy_SysClk_DeepSleepCallback() function to support
 385:Generated_Source\PSoC6\pdl\drivers\peripheral\sysclk/cy_sysclk.h **** *   deep-sleep mode entry. 
 386:Generated_Source\PSoC6\pdl\drivers\peripheral\sysclk/cy_sysclk.h **** *
 387:Generated_Source\PSoC6\pdl\drivers\peripheral\sysclk/cy_sysclk.h **** *   This function can be called either by itself before initiating low-power mode
 388:Generated_Source\PSoC6\pdl\drivers\peripheral\sysclk/cy_sysclk.h **** *   entry or it can be used in conjunction with the SysPm driver as a registered 
 389:Generated_Source\PSoC6\pdl\drivers\peripheral\sysclk/cy_sysclk.h **** *   callback. To do so, register this function as a callback before calling 
 390:Generated_Source\PSoC6\pdl\drivers\peripheral\sysclk/cy_sysclk.h **** *   Cy_SysPm_DeepSleep(). Specify \ref CY_SYSPM_DEEPSLEEP as the callback type, 
 391:Generated_Source\PSoC6\pdl\drivers\peripheral\sysclk/cy_sysclk.h **** *   and call Cy_SysPm_RegisterCallback().
 392:Generated_Source\PSoC6\pdl\drivers\peripheral\sysclk/cy_sysclk.h **** *   
 393:Generated_Source\PSoC6\pdl\drivers\peripheral\sysclk/cy_sysclk.h **** *   \note If the FLL or PLL source is the ECO, this function must be called.
 394:Generated_Source\PSoC6\pdl\drivers\peripheral\sysclk/cy_sysclk.h **** *
 395:Generated_Source\PSoC6\pdl\drivers\peripheral\sysclk/cy_sysclk.h **** *   \defgroup group_sysclk_pm_funcs        Functions
 396:Generated_Source\PSoC6\pdl\drivers\peripheral\sysclk/cy_sysclk.h **** * \}
 397:Generated_Source\PSoC6\pdl\drivers\peripheral\sysclk/cy_sysclk.h **** * \defgroup group_sysclk_wco             Watch Crystal Oscillator (WCO)
 398:Generated_Source\PSoC6\pdl\drivers\peripheral\sysclk/cy_sysclk.h **** * \{
 399:Generated_Source\PSoC6\pdl\drivers\peripheral\sysclk/cy_sysclk.h **** *   The WCO is a highly accurate 32.768 kHz clock source capable of operating
 400:Generated_Source\PSoC6\pdl\drivers\peripheral\sysclk/cy_sysclk.h **** *   in all power modes (excluding the Off mode). It is the primary clock source for
 401:Generated_Source\PSoC6\pdl\drivers\peripheral\sysclk/cy_sysclk.h **** *   the backup domain clock, which is used by the real-time clock (RTC). The 
 402:Generated_Source\PSoC6\pdl\drivers\peripheral\sysclk/cy_sysclk.h **** *   WCO can also be used as a source for the low-frequency clock to support other
 403:Generated_Source\PSoC6\pdl\drivers\peripheral\sysclk/cy_sysclk.h **** *   low power mode peripherals.
 404:Generated_Source\PSoC6\pdl\drivers\peripheral\sysclk/cy_sysclk.h **** *
 405:Generated_Source\PSoC6\pdl\drivers\peripheral\sysclk/cy_sysclk.h **** *   ![](sysclk_backup.png)
 406:Generated_Source\PSoC6\pdl\drivers\peripheral\sysclk/cy_sysclk.h **** *
 407:Generated_Source\PSoC6\pdl\drivers\peripheral\sysclk/cy_sysclk.h **** *   The WCO requires the configuration of the dedicated WCO pins (SRSS_WCO_IN_PIN,
 408:Generated_Source\PSoC6\pdl\drivers\peripheral\sysclk/cy_sysclk.h **** *   SRSS_WCO_OUT_PIN). These must be configured as Analog Hi-Z drive modes and the
 409:Generated_Source\PSoC6\pdl\drivers\peripheral\sysclk/cy_sysclk.h **** *   HSIOM selection set to GPIO. The WCO can also be used in bypass mode, where
 410:Generated_Source\PSoC6\pdl\drivers\peripheral\sysclk/cy_sysclk.h **** *   an external 32.768 kHz square wave is brought in directly through the 
 411:Generated_Source\PSoC6\pdl\drivers\peripheral\sysclk/cy_sysclk.h **** *   SRSS_WCO_OUT_PIN pin.
 412:Generated_Source\PSoC6\pdl\drivers\peripheral\sysclk/cy_sysclk.h **** *
 413:Generated_Source\PSoC6\pdl\drivers\peripheral\sysclk/cy_sysclk.h **** *   Some devices support a built-in clock supervisor (CSV) in the WCO. The clock
 414:Generated_Source\PSoC6\pdl\drivers\peripheral\sysclk/cy_sysclk.h **** *   supervisor detects if the WCO has been lost; that is, the WCO is no longer 
 415:Generated_Source\PSoC6\pdl\drivers\peripheral\sysclk/cy_sysclk.h **** *   producing clock pulses. The CSV does this by checking to ensure there is at 
 416:Generated_Source\PSoC6\pdl\drivers\peripheral\sysclk/cy_sysclk.h **** *   least one WCO clock pulse within a certain time window. The ILO or PILO can be
 417:Generated_Source\PSoC6\pdl\drivers\peripheral\sysclk/cy_sysclk.h **** *   the supervising clock. Firmware can configure the CSV to trigger a fault,
 418:Generated_Source\PSoC6\pdl\drivers\peripheral\sysclk/cy_sysclk.h **** *   a reset, or both after specified cycles of the supervising clock.
 419:Generated_Source\PSoC6\pdl\drivers\peripheral\sysclk/cy_sysclk.h **** *
 420:Generated_Source\PSoC6\pdl\drivers\peripheral\sysclk/cy_sysclk.h **** *   \defgroup group_sysclk_wco_funcs       Functions
 421:Generated_Source\PSoC6\pdl\drivers\peripheral\sysclk/cy_sysclk.h **** *   \defgroup group_sysclk_wco_structs     Data Structures
 422:Generated_Source\PSoC6\pdl\drivers\peripheral\sysclk/cy_sysclk.h **** *   \defgroup group_sysclk_wco_enums       Enumerated Types
 423:Generated_Source\PSoC6\pdl\drivers\peripheral\sysclk/cy_sysclk.h **** * \}
 424:Generated_Source\PSoC6\pdl\drivers\peripheral\sysclk/cy_sysclk.h **** * \defgroup group_sysclk_clk_hf          High-Frequency Clocks
 425:Generated_Source\PSoC6\pdl\drivers\peripheral\sysclk/cy_sysclk.h **** * \{
 426:Generated_Source\PSoC6\pdl\drivers\peripheral\sysclk/cy_sysclk.h **** *   Multiple high frequency clocks (CLK_HF) are available in the device. For example,
 427:Generated_Source\PSoC6\pdl\drivers\peripheral\sysclk/cy_sysclk.h **** *   PSoC 63 series has five high-frequency root clocks. Each CLK_HF has a particular
 428:Generated_Source\PSoC6\pdl\drivers\peripheral\sysclk/cy_sysclk.h **** *   connection and chip-specific destination on the device.
ARM GAS  C:\Users\gjl\AppData\Local\Temp\ccNVysBX.s 			page 45


 429:Generated_Source\PSoC6\pdl\drivers\peripheral\sysclk/cy_sysclk.h **** *
 430:Generated_Source\PSoC6\pdl\drivers\peripheral\sysclk/cy_sysclk.h **** *   |Name     |Description                                             |
 431:Generated_Source\PSoC6\pdl\drivers\peripheral\sysclk/cy_sysclk.h **** *   |:--------|:-------------------------------------------------------|
 432:Generated_Source\PSoC6\pdl\drivers\peripheral\sysclk/cy_sysclk.h **** *   |CLK_HF[0]| Root clock for CPUs, PERI, and AHB infrastructure      |
 433:Generated_Source\PSoC6\pdl\drivers\peripheral\sysclk/cy_sysclk.h **** *   |CLK_HF[1]| Root clock for the PDM/PCM and I2S audio subsystem     |
 434:Generated_Source\PSoC6\pdl\drivers\peripheral\sysclk/cy_sysclk.h **** *   |CLK_HF[2]| Root clock for the Serial Memory Interface subsystem   |
 435:Generated_Source\PSoC6\pdl\drivers\peripheral\sysclk/cy_sysclk.h **** *   |CLK_HF[3]| Root clock for USB communications                      |
 436:Generated_Source\PSoC6\pdl\drivers\peripheral\sysclk/cy_sysclk.h **** *   |CLK_HF[4]| Clock output on clk_ext pin (when used as an output)   |
 437:Generated_Source\PSoC6\pdl\drivers\peripheral\sysclk/cy_sysclk.h **** *
 438:Generated_Source\PSoC6\pdl\drivers\peripheral\sysclk/cy_sysclk.h **** *   ![](sysclk_hf.png)
 439:Generated_Source\PSoC6\pdl\drivers\peripheral\sysclk/cy_sysclk.h **** *   
 440:Generated_Source\PSoC6\pdl\drivers\peripheral\sysclk/cy_sysclk.h **** *   High frequency clocks are sourced by path clocks, which should be configured
 441:Generated_Source\PSoC6\pdl\drivers\peripheral\sysclk/cy_sysclk.h **** *   first. An exception to this rule is CLK_HF[0], which cannot be disabled. 
 442:Generated_Source\PSoC6\pdl\drivers\peripheral\sysclk/cy_sysclk.h **** *   This divided clock drives the core processors and the peripherals in the system.
 443:Generated_Source\PSoC6\pdl\drivers\peripheral\sysclk/cy_sysclk.h **** *   In order to update its clock source, CLK_HF[0] source must be selected without
 444:Generated_Source\PSoC6\pdl\drivers\peripheral\sysclk/cy_sysclk.h **** *   disabling the clock.
 445:Generated_Source\PSoC6\pdl\drivers\peripheral\sysclk/cy_sysclk.h **** *
 446:Generated_Source\PSoC6\pdl\drivers\peripheral\sysclk/cy_sysclk.h **** *   ![](sysclk_hf_dist.png)
 447:Generated_Source\PSoC6\pdl\drivers\peripheral\sysclk/cy_sysclk.h **** *
 448:Generated_Source\PSoC6\pdl\drivers\peripheral\sysclk/cy_sysclk.h **** *   Some devices support a clock supervisor (CSV) for each root clock. These
 449:Generated_Source\PSoC6\pdl\drivers\peripheral\sysclk/cy_sysclk.h **** *   can detect frequency loss, or monitor that the clock frequency stays within
 450:Generated_Source\PSoC6\pdl\drivers\peripheral\sysclk/cy_sysclk.h **** *   a specified range. The possible supervising clocks are IMO, ECO, or ALTHF. 
 451:Generated_Source\PSoC6\pdl\drivers\peripheral\sysclk/cy_sysclk.h **** *   Loss detection and frequency monitoring can be enabled or disabled independently.
 452:Generated_Source\PSoC6\pdl\drivers\peripheral\sysclk/cy_sysclk.h **** *   Each has its own programmable action that occurs on detection of an error.
 453:Generated_Source\PSoC6\pdl\drivers\peripheral\sysclk/cy_sysclk.h **** *
 454:Generated_Source\PSoC6\pdl\drivers\peripheral\sysclk/cy_sysclk.h **** *   \defgroup group_sysclk_clk_hf_funcs    Functions
 455:Generated_Source\PSoC6\pdl\drivers\peripheral\sysclk/cy_sysclk.h **** *   \defgroup group_sysclk_clk_hf_structs  Data Structures
 456:Generated_Source\PSoC6\pdl\drivers\peripheral\sysclk/cy_sysclk.h **** *   \defgroup group_sysclk_clk_hf_enums    Enumerated Types
 457:Generated_Source\PSoC6\pdl\drivers\peripheral\sysclk/cy_sysclk.h **** * \}
 458:Generated_Source\PSoC6\pdl\drivers\peripheral\sysclk/cy_sysclk.h **** * \defgroup group_sysclk_clk_fast        Fast Clock
 459:Generated_Source\PSoC6\pdl\drivers\peripheral\sysclk/cy_sysclk.h **** * \{
 460:Generated_Source\PSoC6\pdl\drivers\peripheral\sysclk/cy_sysclk.h **** *   The fast clock drives the "fast" processor (e.g. Cortex-M4 processor in PSoC 6).
 461:Generated_Source\PSoC6\pdl\drivers\peripheral\sysclk/cy_sysclk.h **** *   This clock is sourced by CLK_HF[0] (\ref group_sysclk_clk_hf "HF Clocks").
 462:Generated_Source\PSoC6\pdl\drivers\peripheral\sysclk/cy_sysclk.h **** *   A divider value of 1~256 can be used to further divide the CLK_HF[0] to a
 463:Generated_Source\PSoC6\pdl\drivers\peripheral\sysclk/cy_sysclk.h **** *   desired clock speed for the processor.
 464:Generated_Source\PSoC6\pdl\drivers\peripheral\sysclk/cy_sysclk.h **** *
 465:Generated_Source\PSoC6\pdl\drivers\peripheral\sysclk/cy_sysclk.h **** *   ![](sysclk_fast.png)
 466:Generated_Source\PSoC6\pdl\drivers\peripheral\sysclk/cy_sysclk.h **** *
 467:Generated_Source\PSoC6\pdl\drivers\peripheral\sysclk/cy_sysclk.h **** *   \defgroup group_sysclk_clk_fast_funcs  Functions
 468:Generated_Source\PSoC6\pdl\drivers\peripheral\sysclk/cy_sysclk.h **** * \}
 469:Generated_Source\PSoC6\pdl\drivers\peripheral\sysclk/cy_sysclk.h **** * \defgroup group_sysclk_clk_peri        Peripheral Clock
 470:Generated_Source\PSoC6\pdl\drivers\peripheral\sysclk/cy_sysclk.h **** * \{
 471:Generated_Source\PSoC6\pdl\drivers\peripheral\sysclk/cy_sysclk.h **** *   The peripheral clock is a divided clock of CLK_HF0 (\ref group_sysclk_clk_hf "HF Clocks").
 472:Generated_Source\PSoC6\pdl\drivers\peripheral\sysclk/cy_sysclk.h **** *   It is the source clock for the \ref group_sysclk_clk_slow, and most active domain
 473:Generated_Source\PSoC6\pdl\drivers\peripheral\sysclk/cy_sysclk.h **** *   peripheral clocks (\ref group_sysclk_clk_peripheral). A divider value of 1~256 
 474:Generated_Source\PSoC6\pdl\drivers\peripheral\sysclk/cy_sysclk.h **** *   can be used to further divide the CLK_HF[0] to a desired clock speed for the peripherals.
 475:Generated_Source\PSoC6\pdl\drivers\peripheral\sysclk/cy_sysclk.h **** *
 476:Generated_Source\PSoC6\pdl\drivers\peripheral\sysclk/cy_sysclk.h **** *   ![](sysclk_peri.png)
 477:Generated_Source\PSoC6\pdl\drivers\peripheral\sysclk/cy_sysclk.h **** *
 478:Generated_Source\PSoC6\pdl\drivers\peripheral\sysclk/cy_sysclk.h **** *   \defgroup group_sysclk_clk_peri_funcs  Functions
 479:Generated_Source\PSoC6\pdl\drivers\peripheral\sysclk/cy_sysclk.h **** * \}
 480:Generated_Source\PSoC6\pdl\drivers\peripheral\sysclk/cy_sysclk.h **** * \defgroup group_sysclk_clk_peripheral  Peripherals Clock Dividers
 481:Generated_Source\PSoC6\pdl\drivers\peripheral\sysclk/cy_sysclk.h **** * \{
 482:Generated_Source\PSoC6\pdl\drivers\peripheral\sysclk/cy_sysclk.h **** *   There are multiple peripheral clock dividers that, in effect, create 
 483:Generated_Source\PSoC6\pdl\drivers\peripheral\sysclk/cy_sysclk.h **** *   multiple separate peripheral clocks. The available dividers vary per device 
 484:Generated_Source\PSoC6\pdl\drivers\peripheral\sysclk/cy_sysclk.h **** *   series. As an example, for the PSoC 63 series there are 29 dividers:
 485:Generated_Source\PSoC6\pdl\drivers\peripheral\sysclk/cy_sysclk.h **** *
ARM GAS  C:\Users\gjl\AppData\Local\Temp\ccNVysBX.s 			page 46


 486:Generated_Source\PSoC6\pdl\drivers\peripheral\sysclk/cy_sysclk.h **** *   - eight 8-bit dividers
 487:Generated_Source\PSoC6\pdl\drivers\peripheral\sysclk/cy_sysclk.h **** *   - sixteen 16-bit dividers
 488:Generated_Source\PSoC6\pdl\drivers\peripheral\sysclk/cy_sysclk.h **** *   - four fractional 16.5-bit dividers (16 integer bits, 5 fractional bits)
 489:Generated_Source\PSoC6\pdl\drivers\peripheral\sysclk/cy_sysclk.h **** *   - one fractional 24.5-bit divider (24 integer bits, 5 fractional bits)
 490:Generated_Source\PSoC6\pdl\drivers\peripheral\sysclk/cy_sysclk.h **** *
 491:Generated_Source\PSoC6\pdl\drivers\peripheral\sysclk/cy_sysclk.h **** *   The five fractional bits supports further precision in 1/32nd increments. For
 492:Generated_Source\PSoC6\pdl\drivers\peripheral\sysclk/cy_sysclk.h **** *   example, a divider with an integer value of 3 and a fractional value of
 493:Generated_Source\PSoC6\pdl\drivers\peripheral\sysclk/cy_sysclk.h **** *   4 (4/32) results in a divider of 3.125. Fractional dividers are useful when
 494:Generated_Source\PSoC6\pdl\drivers\peripheral\sysclk/cy_sysclk.h **** *   a high-precision clock is required, for example, for a UART/SPI serial
 495:Generated_Source\PSoC6\pdl\drivers\peripheral\sysclk/cy_sysclk.h **** *   interface.
 496:Generated_Source\PSoC6\pdl\drivers\peripheral\sysclk/cy_sysclk.h **** *
 497:Generated_Source\PSoC6\pdl\drivers\peripheral\sysclk/cy_sysclk.h **** *   ![](sysclk_peri_divs.png)
 498:Generated_Source\PSoC6\pdl\drivers\peripheral\sysclk/cy_sysclk.h **** *
 499:Generated_Source\PSoC6\pdl\drivers\peripheral\sysclk/cy_sysclk.h **** *   Each peripheral can connect to any one of the programmable dividers. A
 500:Generated_Source\PSoC6\pdl\drivers\peripheral\sysclk/cy_sysclk.h **** *   particular peripheral clock divider can drive multiple peripherals.
 501:Generated_Source\PSoC6\pdl\drivers\peripheral\sysclk/cy_sysclk.h **** *   
 502:Generated_Source\PSoC6\pdl\drivers\peripheral\sysclk/cy_sysclk.h **** *   The SysClk driver also supports phase aligning two peripheral clock dividers using
 503:Generated_Source\PSoC6\pdl\drivers\peripheral\sysclk/cy_sysclk.h **** *   Cy_SysClk_PeriphEnablePhaseAlignDivider(). Alignment works for both integer
 504:Generated_Source\PSoC6\pdl\drivers\peripheral\sysclk/cy_sysclk.h **** *   and fractional dividers. The divider to which a second divider is aligned
 505:Generated_Source\PSoC6\pdl\drivers\peripheral\sysclk/cy_sysclk.h **** *   must already be enabled.
 506:Generated_Source\PSoC6\pdl\drivers\peripheral\sysclk/cy_sysclk.h **** *
 507:Generated_Source\PSoC6\pdl\drivers\peripheral\sysclk/cy_sysclk.h **** *   \defgroup group_sysclk_clk_peripheral_funcs Functions
 508:Generated_Source\PSoC6\pdl\drivers\peripheral\sysclk/cy_sysclk.h **** *   \defgroup group_sysclk_clk_peripheral_enums Enumerated Types
 509:Generated_Source\PSoC6\pdl\drivers\peripheral\sysclk/cy_sysclk.h **** * \}
 510:Generated_Source\PSoC6\pdl\drivers\peripheral\sysclk/cy_sysclk.h **** * \defgroup group_sysclk_clk_slow        Slow Clock
 511:Generated_Source\PSoC6\pdl\drivers\peripheral\sysclk/cy_sysclk.h **** * \{
 512:Generated_Source\PSoC6\pdl\drivers\peripheral\sysclk/cy_sysclk.h **** *   The slow clock is the source clock for the "slow" processor (e.g. Cortex-M0+ in PSoC 6).
 513:Generated_Source\PSoC6\pdl\drivers\peripheral\sysclk/cy_sysclk.h **** *   This clock is a divided version of the \ref group_sysclk_clk_peri, which in turn is 
 514:Generated_Source\PSoC6\pdl\drivers\peripheral\sysclk/cy_sysclk.h **** *   a divided version of CLK_HF[0] (\ref group_sysclk_clk_hf "HF Clocks"). A divider 
 515:Generated_Source\PSoC6\pdl\drivers\peripheral\sysclk/cy_sysclk.h **** *   value of 1~256 can be used to further divide the Peri clock to a desired clock speed
 516:Generated_Source\PSoC6\pdl\drivers\peripheral\sysclk/cy_sysclk.h **** *   for the processor.
 517:Generated_Source\PSoC6\pdl\drivers\peripheral\sysclk/cy_sysclk.h **** *
 518:Generated_Source\PSoC6\pdl\drivers\peripheral\sysclk/cy_sysclk.h **** *   ![](sysclk_slow.png)
 519:Generated_Source\PSoC6\pdl\drivers\peripheral\sysclk/cy_sysclk.h **** *
 520:Generated_Source\PSoC6\pdl\drivers\peripheral\sysclk/cy_sysclk.h **** *   \defgroup group_sysclk_clk_slow_funcs  Functions
 521:Generated_Source\PSoC6\pdl\drivers\peripheral\sysclk/cy_sysclk.h **** * \}
 522:Generated_Source\PSoC6\pdl\drivers\peripheral\sysclk/cy_sysclk.h **** * \defgroup group_sysclk_clk_lf          Low-Frequency Clock
 523:Generated_Source\PSoC6\pdl\drivers\peripheral\sysclk/cy_sysclk.h **** * \{
 524:Generated_Source\PSoC6\pdl\drivers\peripheral\sysclk/cy_sysclk.h **** *   The low-frequency clock is the source clock for the \ref group_mcwdt
 525:Generated_Source\PSoC6\pdl\drivers\peripheral\sysclk/cy_sysclk.h **** *   and can be the source clock for \ref group_sysclk_clk_bak, which drives the
 526:Generated_Source\PSoC6\pdl\drivers\peripheral\sysclk/cy_sysclk.h **** *   \ref group_rtc.
 527:Generated_Source\PSoC6\pdl\drivers\peripheral\sysclk/cy_sysclk.h **** *   
 528:Generated_Source\PSoC6\pdl\drivers\peripheral\sysclk/cy_sysclk.h **** *   The low-frequency clock has three possible source clocks:
 529:Generated_Source\PSoC6\pdl\drivers\peripheral\sysclk/cy_sysclk.h **** *   \ref group_sysclk_ilo "ILO", \ref group_sysclk_pilo "PILO", and
 530:Generated_Source\PSoC6\pdl\drivers\peripheral\sysclk/cy_sysclk.h **** *   \ref group_sysclk_wco "WCO".
 531:Generated_Source\PSoC6\pdl\drivers\peripheral\sysclk/cy_sysclk.h **** *
 532:Generated_Source\PSoC6\pdl\drivers\peripheral\sysclk/cy_sysclk.h **** *   ![](sysclk_lf.png)
 533:Generated_Source\PSoC6\pdl\drivers\peripheral\sysclk/cy_sysclk.h **** *
 534:Generated_Source\PSoC6\pdl\drivers\peripheral\sysclk/cy_sysclk.h **** *   \defgroup group_sysclk_clk_lf_funcs    Functions
 535:Generated_Source\PSoC6\pdl\drivers\peripheral\sysclk/cy_sysclk.h **** *   \defgroup group_sysclk_clk_lf_enums    Enumerated Types
 536:Generated_Source\PSoC6\pdl\drivers\peripheral\sysclk/cy_sysclk.h **** * \}
 537:Generated_Source\PSoC6\pdl\drivers\peripheral\sysclk/cy_sysclk.h **** * \defgroup group_sysclk_clk_timer       Timer Clock
 538:Generated_Source\PSoC6\pdl\drivers\peripheral\sysclk/cy_sysclk.h **** * \{
 539:Generated_Source\PSoC6\pdl\drivers\peripheral\sysclk/cy_sysclk.h **** *   The timer clock can be a source for the alternative clock driving 
 540:Generated_Source\PSoC6\pdl\drivers\peripheral\sysclk/cy_sysclk.h **** *   the \ref group_arm_system_timer. It can also be used as a reference clock 
 541:Generated_Source\PSoC6\pdl\drivers\peripheral\sysclk/cy_sysclk.h **** *   for a counter in the \ref group_energy_profiler "Energy Profiler".
 542:Generated_Source\PSoC6\pdl\drivers\peripheral\sysclk/cy_sysclk.h **** *   
ARM GAS  C:\Users\gjl\AppData\Local\Temp\ccNVysBX.s 			page 47


 543:Generated_Source\PSoC6\pdl\drivers\peripheral\sysclk/cy_sysclk.h **** *   The timer clock is a divided clock of either the IMO or CLK_HF[0]
 544:Generated_Source\PSoC6\pdl\drivers\peripheral\sysclk/cy_sysclk.h **** *   (\ref group_sysclk_clk_hf "HF Clocks").
 545:Generated_Source\PSoC6\pdl\drivers\peripheral\sysclk/cy_sysclk.h **** *
 546:Generated_Source\PSoC6\pdl\drivers\peripheral\sysclk/cy_sysclk.h **** *   \defgroup group_sysclk_clk_timer_funcs Functions
 547:Generated_Source\PSoC6\pdl\drivers\peripheral\sysclk/cy_sysclk.h **** *   \defgroup group_sysclk_clk_timer_enums Enumerated Types
 548:Generated_Source\PSoC6\pdl\drivers\peripheral\sysclk/cy_sysclk.h **** * \}
 549:Generated_Source\PSoC6\pdl\drivers\peripheral\sysclk/cy_sysclk.h **** * \defgroup group_sysclk_clk_pump        Pump Clock
 550:Generated_Source\PSoC6\pdl\drivers\peripheral\sysclk/cy_sysclk.h **** * \{
 551:Generated_Source\PSoC6\pdl\drivers\peripheral\sysclk/cy_sysclk.h **** *   The pump clock is a clock source used to provide analog precision in low voltage
 552:Generated_Source\PSoC6\pdl\drivers\peripheral\sysclk/cy_sysclk.h **** *   applications. Depedning on the usage scenario, it may be required to drive the
 553:Generated_Source\PSoC6\pdl\drivers\peripheral\sysclk/cy_sysclk.h **** *   internal voltage pump for the Continuous Time Block mini (CTBm) in the analog 
 554:Generated_Source\PSoC6\pdl\drivers\peripheral\sysclk/cy_sysclk.h **** *   subsystem. The pump clock is a divided clock of one of the clock paths 
 555:Generated_Source\PSoC6\pdl\drivers\peripheral\sysclk/cy_sysclk.h **** *   (\ref group_sysclk_path_src).
 556:Generated_Source\PSoC6\pdl\drivers\peripheral\sysclk/cy_sysclk.h **** *
 557:Generated_Source\PSoC6\pdl\drivers\peripheral\sysclk/cy_sysclk.h **** *   \defgroup group_sysclk_clk_pump_funcs  Functions
 558:Generated_Source\PSoC6\pdl\drivers\peripheral\sysclk/cy_sysclk.h **** *   \defgroup group_sysclk_clk_pump_enums  Enumerated Types
 559:Generated_Source\PSoC6\pdl\drivers\peripheral\sysclk/cy_sysclk.h **** * \}
 560:Generated_Source\PSoC6\pdl\drivers\peripheral\sysclk/cy_sysclk.h **** * \defgroup group_sysclk_clk_bak         Backup Domain Clock
 561:Generated_Source\PSoC6\pdl\drivers\peripheral\sysclk/cy_sysclk.h **** * \{
 562:Generated_Source\PSoC6\pdl\drivers\peripheral\sysclk/cy_sysclk.h **** *   The backup domain clock drives the \ref group_rtc.
 563:Generated_Source\PSoC6\pdl\drivers\peripheral\sysclk/cy_sysclk.h **** *   This clock has two possible source clocks: \ref group_sysclk_wco "WCO"
 564:Generated_Source\PSoC6\pdl\drivers\peripheral\sysclk/cy_sysclk.h **** *   or the \ref group_sysclk_clk_lf. In turn the low frequency clock is sourced by
 565:Generated_Source\PSoC6\pdl\drivers\peripheral\sysclk/cy_sysclk.h **** *   \ref group_sysclk_ilo "ILO", \ref group_sysclk_pilo "PILO", or
 566:Generated_Source\PSoC6\pdl\drivers\peripheral\sysclk/cy_sysclk.h **** *   \ref group_sysclk_wco "WCO". Typically the ILO is not suitable as an RTC source,
 567:Generated_Source\PSoC6\pdl\drivers\peripheral\sysclk/cy_sysclk.h **** *   because of its low accuracy. However the ILO does operate in hibernate mode and
 568:Generated_Source\PSoC6\pdl\drivers\peripheral\sysclk/cy_sysclk.h **** *   may be used as an alterative to the WCO with a tradeoff in precision.
 569:Generated_Source\PSoC6\pdl\drivers\peripheral\sysclk/cy_sysclk.h **** *
 570:Generated_Source\PSoC6\pdl\drivers\peripheral\sysclk/cy_sysclk.h **** *   \defgroup group_sysclk_clk_bak_funcs   Functions
 571:Generated_Source\PSoC6\pdl\drivers\peripheral\sysclk/cy_sysclk.h **** *   \defgroup group_sysclk_clk_bak_enums   Enumerated Types
 572:Generated_Source\PSoC6\pdl\drivers\peripheral\sysclk/cy_sysclk.h **** * \}
 573:Generated_Source\PSoC6\pdl\drivers\peripheral\sysclk/cy_sysclk.h **** */
 574:Generated_Source\PSoC6\pdl\drivers\peripheral\sysclk/cy_sysclk.h **** 
 575:Generated_Source\PSoC6\pdl\drivers\peripheral\sysclk/cy_sysclk.h **** #if !defined(__CY_SYSCLK_H__)
 576:Generated_Source\PSoC6\pdl\drivers\peripheral\sysclk/cy_sysclk.h **** #define __CY_SYSCLK_H__
 577:Generated_Source\PSoC6\pdl\drivers\peripheral\sysclk/cy_sysclk.h **** 
 578:Generated_Source\PSoC6\pdl\drivers\peripheral\sysclk/cy_sysclk.h **** #include "cy_device_headers.h"
 579:Generated_Source\PSoC6\pdl\drivers\peripheral\sysclk/cy_sysclk.h **** #include "syslib/cy_syslib.h"
 580:Generated_Source\PSoC6\pdl\drivers\peripheral\sysclk/cy_sysclk.h **** #include "syspm/cy_syspm.h"
 581:Generated_Source\PSoC6\pdl\drivers\peripheral\sysclk/cy_sysclk.h **** #include <stdbool.h>
 582:Generated_Source\PSoC6\pdl\drivers\peripheral\sysclk/cy_sysclk.h **** 
 583:Generated_Source\PSoC6\pdl\drivers\peripheral\sysclk/cy_sysclk.h **** #if defined(__cplusplus)
 584:Generated_Source\PSoC6\pdl\drivers\peripheral\sysclk/cy_sysclk.h **** extern "C" {
 585:Generated_Source\PSoC6\pdl\drivers\peripheral\sysclk/cy_sysclk.h **** #endif /* __cplusplus */
 586:Generated_Source\PSoC6\pdl\drivers\peripheral\sysclk/cy_sysclk.h **** 
 587:Generated_Source\PSoC6\pdl\drivers\peripheral\sysclk/cy_sysclk.h **** /**
 588:Generated_Source\PSoC6\pdl\drivers\peripheral\sysclk/cy_sysclk.h **** * \addtogroup group_sysclk_macros
 589:Generated_Source\PSoC6\pdl\drivers\peripheral\sysclk/cy_sysclk.h **** * \{
 590:Generated_Source\PSoC6\pdl\drivers\peripheral\sysclk/cy_sysclk.h **** */
 591:Generated_Source\PSoC6\pdl\drivers\peripheral\sysclk/cy_sysclk.h **** /** Driver major version */
 592:Generated_Source\PSoC6\pdl\drivers\peripheral\sysclk/cy_sysclk.h **** #define  CY_SYSCLK_DRV_VERSION_MAJOR   1
 593:Generated_Source\PSoC6\pdl\drivers\peripheral\sysclk/cy_sysclk.h **** /** Driver minor version */
 594:Generated_Source\PSoC6\pdl\drivers\peripheral\sysclk/cy_sysclk.h **** #define  CY_SYSCLK_DRV_VERSION_MINOR   10
 595:Generated_Source\PSoC6\pdl\drivers\peripheral\sysclk/cy_sysclk.h **** /** Sysclk driver identifier */
 596:Generated_Source\PSoC6\pdl\drivers\peripheral\sysclk/cy_sysclk.h **** #define CY_SYSCLK_ID   CY_PDL_DRV_ID(0x12U)
 597:Generated_Source\PSoC6\pdl\drivers\peripheral\sysclk/cy_sysclk.h **** 
 598:Generated_Source\PSoC6\pdl\drivers\peripheral\sysclk/cy_sysclk.h **** /** \} group_sysclk_macros */
 599:Generated_Source\PSoC6\pdl\drivers\peripheral\sysclk/cy_sysclk.h **** 
ARM GAS  C:\Users\gjl\AppData\Local\Temp\ccNVysBX.s 			page 48


 600:Generated_Source\PSoC6\pdl\drivers\peripheral\sysclk/cy_sysclk.h **** /**
 601:Generated_Source\PSoC6\pdl\drivers\peripheral\sysclk/cy_sysclk.h **** * \addtogroup group_sysclk_returns
 602:Generated_Source\PSoC6\pdl\drivers\peripheral\sysclk/cy_sysclk.h **** * \{
 603:Generated_Source\PSoC6\pdl\drivers\peripheral\sysclk/cy_sysclk.h **** */
 604:Generated_Source\PSoC6\pdl\drivers\peripheral\sysclk/cy_sysclk.h **** /** Defines general-purpose function return values. */
 605:Generated_Source\PSoC6\pdl\drivers\peripheral\sysclk/cy_sysclk.h **** typedef enum
 606:Generated_Source\PSoC6\pdl\drivers\peripheral\sysclk/cy_sysclk.h **** {
 607:Generated_Source\PSoC6\pdl\drivers\peripheral\sysclk/cy_sysclk.h ****     CY_SYSCLK_SUCCESS       = 0u, /**< Command completed with no errors */
 608:Generated_Source\PSoC6\pdl\drivers\peripheral\sysclk/cy_sysclk.h ****     CY_SYSCLK_BAD_PARAM     = (CY_SYSCLK_ID | CY_PDL_STATUS_ERROR | 1u), /**< Invalid function inpu
 609:Generated_Source\PSoC6\pdl\drivers\peripheral\sysclk/cy_sysclk.h ****     CY_SYSCLK_TIMEOUT       = (CY_SYSCLK_ID | CY_PDL_STATUS_ERROR | 2u), /**< Timeout occurred */
 610:Generated_Source\PSoC6\pdl\drivers\peripheral\sysclk/cy_sysclk.h ****     CY_SYSCLK_INVALID_STATE = (CY_SYSCLK_ID | CY_PDL_STATUS_ERROR | 3u)  /**< Clock is in an invali
 611:Generated_Source\PSoC6\pdl\drivers\peripheral\sysclk/cy_sysclk.h **** } cy_en_sysclk_status_t;
 612:Generated_Source\PSoC6\pdl\drivers\peripheral\sysclk/cy_sysclk.h **** /** \} group_sysclk_returns */
 613:Generated_Source\PSoC6\pdl\drivers\peripheral\sysclk/cy_sysclk.h **** 
 614:Generated_Source\PSoC6\pdl\drivers\peripheral\sysclk/cy_sysclk.h **** /** \cond INTERNAL */
 615:Generated_Source\PSoC6\pdl\drivers\peripheral\sysclk/cy_sysclk.h **** /* Generates shorter code for setting register bitfields */
 616:Generated_Source\PSoC6\pdl\drivers\peripheral\sysclk/cy_sysclk.h **** #define CY_SYSCLK_CLR_SET(reg, field, value) (reg) = _CLR_SET_FLD32U((reg), field, (value))
 617:Generated_Source\PSoC6\pdl\drivers\peripheral\sysclk/cy_sysclk.h **** /* Calculate a / b with rounding to the nearest integer. a and b must have the same sign. */
 618:Generated_Source\PSoC6\pdl\drivers\peripheral\sysclk/cy_sysclk.h **** #define CY_SYSCLK_DIV_ROUND(a, b) (((a) + ((b) / 2u)) / (b))
 619:Generated_Source\PSoC6\pdl\drivers\peripheral\sysclk/cy_sysclk.h **** /* Calculate a / b with rounding up if remainder != 0. a and b must both be positive. */
 620:Generated_Source\PSoC6\pdl\drivers\peripheral\sysclk/cy_sysclk.h **** #define CY_SYSCLK_DIV_ROUNDUP(a, b) ((((a) - 1u) / (b)) + 1u)
 621:Generated_Source\PSoC6\pdl\drivers\peripheral\sysclk/cy_sysclk.h **** /** \endcond */
 622:Generated_Source\PSoC6\pdl\drivers\peripheral\sysclk/cy_sysclk.h **** 
 623:Generated_Source\PSoC6\pdl\drivers\peripheral\sysclk/cy_sysclk.h **** 
 624:Generated_Source\PSoC6\pdl\drivers\peripheral\sysclk/cy_sysclk.h **** /* ========================================================================== */
 625:Generated_Source\PSoC6\pdl\drivers\peripheral\sysclk/cy_sysclk.h **** /* ===========================    ECO SECTION    ============================ */
 626:Generated_Source\PSoC6\pdl\drivers\peripheral\sysclk/cy_sysclk.h **** /* ========================================================================== */
 627:Generated_Source\PSoC6\pdl\drivers\peripheral\sysclk/cy_sysclk.h **** 
 628:Generated_Source\PSoC6\pdl\drivers\peripheral\sysclk/cy_sysclk.h **** /**
 629:Generated_Source\PSoC6\pdl\drivers\peripheral\sysclk/cy_sysclk.h **** * \addtogroup group_sysclk_macros
 630:Generated_Source\PSoC6\pdl\drivers\peripheral\sysclk/cy_sysclk.h **** * \{
 631:Generated_Source\PSoC6\pdl\drivers\peripheral\sysclk/cy_sysclk.h **** */
 632:Generated_Source\PSoC6\pdl\drivers\peripheral\sysclk/cy_sysclk.h **** 
 633:Generated_Source\PSoC6\pdl\drivers\peripheral\sysclk/cy_sysclk.h **** /**
 634:Generated_Source\PSoC6\pdl\drivers\peripheral\sysclk/cy_sysclk.h **** * \defgroup group_sysclk_ecostatus ECO status
 635:Generated_Source\PSoC6\pdl\drivers\peripheral\sysclk/cy_sysclk.h **** * \{
 636:Generated_Source\PSoC6\pdl\drivers\peripheral\sysclk/cy_sysclk.h **** * Constants used for expressing ECO status.
 637:Generated_Source\PSoC6\pdl\drivers\peripheral\sysclk/cy_sysclk.h **** */
 638:Generated_Source\PSoC6\pdl\drivers\peripheral\sysclk/cy_sysclk.h **** #define CY_SYSCLK_ECOSTAT_AMPLITUDE  0UL /**< \brief ECO does not have sufficient amplitude */
 639:Generated_Source\PSoC6\pdl\drivers\peripheral\sysclk/cy_sysclk.h **** #define CY_SYSCLK_ECOSTAT_INACCURATE 1UL /**< \brief ECO may not be meeting accuracy and duty cycle
 640:Generated_Source\PSoC6\pdl\drivers\peripheral\sysclk/cy_sysclk.h **** #define CY_SYSCLK_ECOSTAT_STABLE     2UL /**< \brief ECO has fully stabilized */
 641:Generated_Source\PSoC6\pdl\drivers\peripheral\sysclk/cy_sysclk.h **** /** \} */
 642:Generated_Source\PSoC6\pdl\drivers\peripheral\sysclk/cy_sysclk.h **** 
 643:Generated_Source\PSoC6\pdl\drivers\peripheral\sysclk/cy_sysclk.h **** /** \} group_sysclk_macros */
 644:Generated_Source\PSoC6\pdl\drivers\peripheral\sysclk/cy_sysclk.h **** 
 645:Generated_Source\PSoC6\pdl\drivers\peripheral\sysclk/cy_sysclk.h **** /**
 646:Generated_Source\PSoC6\pdl\drivers\peripheral\sysclk/cy_sysclk.h **** * \addtogroup group_sysclk_eco_funcs
 647:Generated_Source\PSoC6\pdl\drivers\peripheral\sysclk/cy_sysclk.h **** * \{
 648:Generated_Source\PSoC6\pdl\drivers\peripheral\sysclk/cy_sysclk.h **** */
 649:Generated_Source\PSoC6\pdl\drivers\peripheral\sysclk/cy_sysclk.h **** cy_en_sysclk_status_t Cy_SysClk_EcoConfigure(uint32_t freq, uint32_t cLoad, uint32_t esr, uint32_t 
 650:Generated_Source\PSoC6\pdl\drivers\peripheral\sysclk/cy_sysclk.h **** cy_en_sysclk_status_t Cy_SysClk_EcoEnable(uint32_t timeoutus);
 651:Generated_Source\PSoC6\pdl\drivers\peripheral\sysclk/cy_sysclk.h **** __STATIC_INLINE void Cy_SysClk_EcoDisable(void);
 652:Generated_Source\PSoC6\pdl\drivers\peripheral\sysclk/cy_sysclk.h **** __STATIC_INLINE uint32_t Cy_SysClk_EcoGetStatus(void);
 653:Generated_Source\PSoC6\pdl\drivers\peripheral\sysclk/cy_sysclk.h **** 
 654:Generated_Source\PSoC6\pdl\drivers\peripheral\sysclk/cy_sysclk.h **** /*******************************************************************************
 655:Generated_Source\PSoC6\pdl\drivers\peripheral\sysclk/cy_sysclk.h **** * Function Name: Cy_SysClk_EcoDisable
 656:Generated_Source\PSoC6\pdl\drivers\peripheral\sysclk/cy_sysclk.h **** ****************************************************************************//**
ARM GAS  C:\Users\gjl\AppData\Local\Temp\ccNVysBX.s 			page 49


 657:Generated_Source\PSoC6\pdl\drivers\peripheral\sysclk/cy_sysclk.h **** *
 658:Generated_Source\PSoC6\pdl\drivers\peripheral\sysclk/cy_sysclk.h **** * Disables the external crystal oscillator (ECO). This function should not be
 659:Generated_Source\PSoC6\pdl\drivers\peripheral\sysclk/cy_sysclk.h **** * called if the ECO is sourcing clkHf[0].
 660:Generated_Source\PSoC6\pdl\drivers\peripheral\sysclk/cy_sysclk.h **** *
 661:Generated_Source\PSoC6\pdl\drivers\peripheral\sysclk/cy_sysclk.h **** * \funcusage
 662:Generated_Source\PSoC6\pdl\drivers\peripheral\sysclk/cy_sysclk.h **** * \snippet sysclk/sysclk_v1_10_sut_01.cydsn/main_cm4.c snippet_Cy_SysClk_EcoDisable
 663:Generated_Source\PSoC6\pdl\drivers\peripheral\sysclk/cy_sysclk.h **** *
 664:Generated_Source\PSoC6\pdl\drivers\peripheral\sysclk/cy_sysclk.h **** *******************************************************************************/
 665:Generated_Source\PSoC6\pdl\drivers\peripheral\sysclk/cy_sysclk.h **** __STATIC_INLINE void Cy_SysClk_EcoDisable(void)
 666:Generated_Source\PSoC6\pdl\drivers\peripheral\sysclk/cy_sysclk.h **** {
 667:Generated_Source\PSoC6\pdl\drivers\peripheral\sysclk/cy_sysclk.h ****     SRSS->CLK_ECO_CONFIG &= ~_VAL2FLD(SRSS_CLK_ECO_CONFIG_ECO_EN, 1u); /* 0 = disable */
 668:Generated_Source\PSoC6\pdl\drivers\peripheral\sysclk/cy_sysclk.h **** }
 669:Generated_Source\PSoC6\pdl\drivers\peripheral\sysclk/cy_sysclk.h **** 
 670:Generated_Source\PSoC6\pdl\drivers\peripheral\sysclk/cy_sysclk.h **** /*******************************************************************************
 671:Generated_Source\PSoC6\pdl\drivers\peripheral\sysclk/cy_sysclk.h **** * Function Name: Cy_SysClk_EcoGetStatus
 672:Generated_Source\PSoC6\pdl\drivers\peripheral\sysclk/cy_sysclk.h **** ****************************************************************************//**
 673:Generated_Source\PSoC6\pdl\drivers\peripheral\sysclk/cy_sysclk.h **** *
 674:Generated_Source\PSoC6\pdl\drivers\peripheral\sysclk/cy_sysclk.h **** * Reports the current status of the external crystal oscillator (ECO).
 675:Generated_Source\PSoC6\pdl\drivers\peripheral\sysclk/cy_sysclk.h **** *
 676:Generated_Source\PSoC6\pdl\drivers\peripheral\sysclk/cy_sysclk.h **** * \return
 677:Generated_Source\PSoC6\pdl\drivers\peripheral\sysclk/cy_sysclk.h **** * CY_SYSCLK_ECOSTAT_AMPLITUDE = ECO does not have sufficient amplitude<br>
 678:Generated_Source\PSoC6\pdl\drivers\peripheral\sysclk/cy_sysclk.h **** * CY_SYSCLK_ECOSTAT_INACCURATE = ECO has sufficient amplitude but may not be meeting accuracy and d
 679:Generated_Source\PSoC6\pdl\drivers\peripheral\sysclk/cy_sysclk.h **** * CY_SYSCLK_ECOSTAT_STABLE = ECO has fully stabilized
 680:Generated_Source\PSoC6\pdl\drivers\peripheral\sysclk/cy_sysclk.h **** *
 681:Generated_Source\PSoC6\pdl\drivers\peripheral\sysclk/cy_sysclk.h **** * \funcusage
 682:Generated_Source\PSoC6\pdl\drivers\peripheral\sysclk/cy_sysclk.h **** * \snippet sysclk/sysclk_v1_10_sut_01.cydsn/main_cm4.c snippet_Cy_SysClk_EcoGetStatus
 683:Generated_Source\PSoC6\pdl\drivers\peripheral\sysclk/cy_sysclk.h **** *
 684:Generated_Source\PSoC6\pdl\drivers\peripheral\sysclk/cy_sysclk.h **** *******************************************************************************/
 685:Generated_Source\PSoC6\pdl\drivers\peripheral\sysclk/cy_sysclk.h **** __STATIC_INLINE uint32_t Cy_SysClk_EcoGetStatus(void)
 686:Generated_Source\PSoC6\pdl\drivers\peripheral\sysclk/cy_sysclk.h **** {
 687:Generated_Source\PSoC6\pdl\drivers\peripheral\sysclk/cy_sysclk.h ****     uint32_t retval = (SRSS->CLK_ECO_STATUS & 3ul); /* bit 0 = ECO_OK, bit 1 = ECO_READY */
 688:Generated_Source\PSoC6\pdl\drivers\peripheral\sysclk/cy_sysclk.h ****     /* if ECO is not ready, just report the ECO_OK bit. Otherwise report 2 = ECO ready */
 689:Generated_Source\PSoC6\pdl\drivers\peripheral\sysclk/cy_sysclk.h ****     return (((retval & 2ul) == 0) ? retval : 2ul);
 690:Generated_Source\PSoC6\pdl\drivers\peripheral\sysclk/cy_sysclk.h **** }
 691:Generated_Source\PSoC6\pdl\drivers\peripheral\sysclk/cy_sysclk.h **** /** \} group_sysclk_eco_funcs */
 692:Generated_Source\PSoC6\pdl\drivers\peripheral\sysclk/cy_sysclk.h **** 
 693:Generated_Source\PSoC6\pdl\drivers\peripheral\sysclk/cy_sysclk.h **** 
 694:Generated_Source\PSoC6\pdl\drivers\peripheral\sysclk/cy_sysclk.h **** /* ========================================================================== */
 695:Generated_Source\PSoC6\pdl\drivers\peripheral\sysclk/cy_sysclk.h **** /* ====================    INPUT MULTIPLEXER SECTION    ===================== */
 696:Generated_Source\PSoC6\pdl\drivers\peripheral\sysclk/cy_sysclk.h **** /* ========================================================================== */
 697:Generated_Source\PSoC6\pdl\drivers\peripheral\sysclk/cy_sysclk.h **** /**
 698:Generated_Source\PSoC6\pdl\drivers\peripheral\sysclk/cy_sysclk.h **** * \addtogroup group_sysclk_path_src_enums
 699:Generated_Source\PSoC6\pdl\drivers\peripheral\sysclk/cy_sysclk.h **** * \{
 700:Generated_Source\PSoC6\pdl\drivers\peripheral\sysclk/cy_sysclk.h **** */
 701:Generated_Source\PSoC6\pdl\drivers\peripheral\sysclk/cy_sysclk.h **** /**
 702:Generated_Source\PSoC6\pdl\drivers\peripheral\sysclk/cy_sysclk.h **** *   Input multiplexer clock sources
 703:Generated_Source\PSoC6\pdl\drivers\peripheral\sysclk/cy_sysclk.h **** */
 704:Generated_Source\PSoC6\pdl\drivers\peripheral\sysclk/cy_sysclk.h **** typedef enum
 705:Generated_Source\PSoC6\pdl\drivers\peripheral\sysclk/cy_sysclk.h **** {
 706:Generated_Source\PSoC6\pdl\drivers\peripheral\sysclk/cy_sysclk.h ****     CY_SYSCLK_CLKPATH_IN_IMO    =     0u, /**< Select the IMO as the output of the path mux */
 707:Generated_Source\PSoC6\pdl\drivers\peripheral\sysclk/cy_sysclk.h ****     CY_SYSCLK_CLKPATH_IN_EXT    =     1u, /**< Select the EXT as the output of the path mux */
 708:Generated_Source\PSoC6\pdl\drivers\peripheral\sysclk/cy_sysclk.h ****     CY_SYSCLK_CLKPATH_IN_ECO    =     2u, /**< Select the ECO as the output of the path mux */
 709:Generated_Source\PSoC6\pdl\drivers\peripheral\sysclk/cy_sysclk.h ****     CY_SYSCLK_CLKPATH_IN_ALTHF  =     3u, /**< Select the ALTHF as the output of the path mux */
 710:Generated_Source\PSoC6\pdl\drivers\peripheral\sysclk/cy_sysclk.h ****     CY_SYSCLK_CLKPATH_IN_DSIMUX =     4u, /**< Select the DSI MUX output as the output of the path 
 711:Generated_Source\PSoC6\pdl\drivers\peripheral\sysclk/cy_sysclk.h ****     CY_SYSCLK_CLKPATH_IN_DSI    = 0x100u, /**< Select a DSI signal (0 - 15) as the output of the DS
 712:Generated_Source\PSoC6\pdl\drivers\peripheral\sysclk/cy_sysclk.h ****     CY_SYSCLK_CLKPATH_IN_ILO    = 0x110u, /**< Select the ILO (16) as the output of the DSI mux and
 713:Generated_Source\PSoC6\pdl\drivers\peripheral\sysclk/cy_sysclk.h ****     CY_SYSCLK_CLKPATH_IN_WCO    = 0x111u, /**< Select the WCO (17) as the output of the DSI mux and
ARM GAS  C:\Users\gjl\AppData\Local\Temp\ccNVysBX.s 			page 50


 714:Generated_Source\PSoC6\pdl\drivers\peripheral\sysclk/cy_sysclk.h ****     CY_SYSCLK_CLKPATH_IN_ALTLF  = 0x112u, /**< Select the ALTLF (18) as the output of the DSI mux a
 715:Generated_Source\PSoC6\pdl\drivers\peripheral\sysclk/cy_sysclk.h ****     CY_SYSCLK_CLKPATH_IN_PILO   = 0x113u  /**< Select the PILO (19) as the output of the DSI mux an
 716:Generated_Source\PSoC6\pdl\drivers\peripheral\sysclk/cy_sysclk.h **** } cy_en_clkpath_in_sources_t;
 717:Generated_Source\PSoC6\pdl\drivers\peripheral\sysclk/cy_sysclk.h **** /** \} group_sysclk_path_src_enums */
 718:Generated_Source\PSoC6\pdl\drivers\peripheral\sysclk/cy_sysclk.h **** 
 719:Generated_Source\PSoC6\pdl\drivers\peripheral\sysclk/cy_sysclk.h **** /**
 720:Generated_Source\PSoC6\pdl\drivers\peripheral\sysclk/cy_sysclk.h **** * \addtogroup group_sysclk_path_src_funcs
 721:Generated_Source\PSoC6\pdl\drivers\peripheral\sysclk/cy_sysclk.h **** * \{
 722:Generated_Source\PSoC6\pdl\drivers\peripheral\sysclk/cy_sysclk.h **** */
 723:Generated_Source\PSoC6\pdl\drivers\peripheral\sysclk/cy_sysclk.h **** cy_en_sysclk_status_t Cy_SysClk_ClkPathSetSource(uint32_t clkPath, cy_en_clkpath_in_sources_t sourc
 724:Generated_Source\PSoC6\pdl\drivers\peripheral\sysclk/cy_sysclk.h **** cy_en_clkpath_in_sources_t Cy_SysClk_ClkPathGetSource(uint32_t clkPath);
 725:Generated_Source\PSoC6\pdl\drivers\peripheral\sysclk/cy_sysclk.h **** /** \} group_sysclk_path_src_funcs */
 726:Generated_Source\PSoC6\pdl\drivers\peripheral\sysclk/cy_sysclk.h **** 
 727:Generated_Source\PSoC6\pdl\drivers\peripheral\sysclk/cy_sysclk.h **** 
 728:Generated_Source\PSoC6\pdl\drivers\peripheral\sysclk/cy_sysclk.h **** /* ========================================================================== */
 729:Generated_Source\PSoC6\pdl\drivers\peripheral\sysclk/cy_sysclk.h **** /* ===========================    FLL SECTION    ============================ */
 730:Generated_Source\PSoC6\pdl\drivers\peripheral\sysclk/cy_sysclk.h **** /* ========================================================================== */
 731:Generated_Source\PSoC6\pdl\drivers\peripheral\sysclk/cy_sysclk.h **** /**
 732:Generated_Source\PSoC6\pdl\drivers\peripheral\sysclk/cy_sysclk.h **** * \addtogroup group_sysclk_fll_enums
 733:Generated_Source\PSoC6\pdl\drivers\peripheral\sysclk/cy_sysclk.h **** * \{
 734:Generated_Source\PSoC6\pdl\drivers\peripheral\sysclk/cy_sysclk.h **** */
 735:Generated_Source\PSoC6\pdl\drivers\peripheral\sysclk/cy_sysclk.h **** /** FLL and PLL output mode.
 736:Generated_Source\PSoC6\pdl\drivers\peripheral\sysclk/cy_sysclk.h **** * See registers CLK_FLL_CONFIG3 and CLK_PLL_CONFIG0, bits BYPASS_SEL.
 737:Generated_Source\PSoC6\pdl\drivers\peripheral\sysclk/cy_sysclk.h **** */
 738:Generated_Source\PSoC6\pdl\drivers\peripheral\sysclk/cy_sysclk.h **** typedef enum
 739:Generated_Source\PSoC6\pdl\drivers\peripheral\sysclk/cy_sysclk.h **** {
 740:Generated_Source\PSoC6\pdl\drivers\peripheral\sysclk/cy_sysclk.h ****     CY_SYSCLK_FLLPLL_OUTPUT_AUTO   = 0u, /**< Output FLL/PLL input source when not locked, and FLL/
 741:Generated_Source\PSoC6\pdl\drivers\peripheral\sysclk/cy_sysclk.h ****     CY_SYSCLK_FLLPLL_OUTPUT_AUTO1  = 1u, /**< Same as AUTO */
 742:Generated_Source\PSoC6\pdl\drivers\peripheral\sysclk/cy_sysclk.h ****     CY_SYSCLK_FLLPLL_OUTPUT_INPUT  = 2u, /**< Output FLL/PLL input source regardless of lock status
 743:Generated_Source\PSoC6\pdl\drivers\peripheral\sysclk/cy_sysclk.h ****     CY_SYSCLK_FLLPLL_OUTPUT_OUTPUT = 3u  /**< Output FLL/PLL output regardless of lock status. This
 744:Generated_Source\PSoC6\pdl\drivers\peripheral\sysclk/cy_sysclk.h **** } cy_en_fll_pll_output_mode_t;
 745:Generated_Source\PSoC6\pdl\drivers\peripheral\sysclk/cy_sysclk.h **** 
 746:Generated_Source\PSoC6\pdl\drivers\peripheral\sysclk/cy_sysclk.h **** /** FLL current-controlled oscillator (CCO) frequency ranges.
 747:Generated_Source\PSoC6\pdl\drivers\peripheral\sysclk/cy_sysclk.h **** * See register CLK_FLL_CONFIG4, bits CCO_RANGE.
 748:Generated_Source\PSoC6\pdl\drivers\peripheral\sysclk/cy_sysclk.h **** */
 749:Generated_Source\PSoC6\pdl\drivers\peripheral\sysclk/cy_sysclk.h **** typedef enum
 750:Generated_Source\PSoC6\pdl\drivers\peripheral\sysclk/cy_sysclk.h **** {
 751:Generated_Source\PSoC6\pdl\drivers\peripheral\sysclk/cy_sysclk.h ****     CY_SYSCLK_FLL_CCO_RANGE0, /**< Target frequency is in range  48 -  64 MHz. */
 752:Generated_Source\PSoC6\pdl\drivers\peripheral\sysclk/cy_sysclk.h ****     CY_SYSCLK_FLL_CCO_RANGE1, /**< Target frequency is in range  64 -  85 MHz. */
 753:Generated_Source\PSoC6\pdl\drivers\peripheral\sysclk/cy_sysclk.h ****     CY_SYSCLK_FLL_CCO_RANGE2, /**< Target frequency is in range  85 - 113 MHz. */
 754:Generated_Source\PSoC6\pdl\drivers\peripheral\sysclk/cy_sysclk.h ****     CY_SYSCLK_FLL_CCO_RANGE3, /**< Target frequency is in range 113 - 150 MHz. */
 755:Generated_Source\PSoC6\pdl\drivers\peripheral\sysclk/cy_sysclk.h ****     CY_SYSCLK_FLL_CCO_RANGE4  /**< Target frequency is in range 150 - 200 MHz. */
 756:Generated_Source\PSoC6\pdl\drivers\peripheral\sysclk/cy_sysclk.h **** } cy_en_fll_cco_ranges_t;
 757:Generated_Source\PSoC6\pdl\drivers\peripheral\sysclk/cy_sysclk.h **** /** \} group_sysclk_fll_enums */
 758:Generated_Source\PSoC6\pdl\drivers\peripheral\sysclk/cy_sysclk.h **** 
 759:Generated_Source\PSoC6\pdl\drivers\peripheral\sysclk/cy_sysclk.h **** /**
 760:Generated_Source\PSoC6\pdl\drivers\peripheral\sysclk/cy_sysclk.h **** * \addtogroup group_sysclk_fll_structs
 761:Generated_Source\PSoC6\pdl\drivers\peripheral\sysclk/cy_sysclk.h **** * \{
 762:Generated_Source\PSoC6\pdl\drivers\peripheral\sysclk/cy_sysclk.h **** */
 763:Generated_Source\PSoC6\pdl\drivers\peripheral\sysclk/cy_sysclk.h **** /** Structure containing information for manual configuration of FLL.
 764:Generated_Source\PSoC6\pdl\drivers\peripheral\sysclk/cy_sysclk.h **** */
 765:Generated_Source\PSoC6\pdl\drivers\peripheral\sysclk/cy_sysclk.h **** typedef struct
 766:Generated_Source\PSoC6\pdl\drivers\peripheral\sysclk/cy_sysclk.h **** {
 767:Generated_Source\PSoC6\pdl\drivers\peripheral\sysclk/cy_sysclk.h ****     uint32_t                    fllMult;         /**< CLK_FLL_CONFIG  register, FLL_MULT bits */
 768:Generated_Source\PSoC6\pdl\drivers\peripheral\sysclk/cy_sysclk.h ****     uint16_t                    refDiv;          /**< CLK_FLL_CONFIG2 register, FLL_REF_DIV bits */
 769:Generated_Source\PSoC6\pdl\drivers\peripheral\sysclk/cy_sysclk.h ****     cy_en_fll_cco_ranges_t      ccoRange;        /**< CLK_FLL_CONFIG4 register, CCO_RANGE bits */
 770:Generated_Source\PSoC6\pdl\drivers\peripheral\sysclk/cy_sysclk.h ****     bool                        enableOutputDiv; /**< CLK_FLL_CONFIG  register, FLL_OUTPUT_DIV bit 
ARM GAS  C:\Users\gjl\AppData\Local\Temp\ccNVysBX.s 			page 51


 771:Generated_Source\PSoC6\pdl\drivers\peripheral\sysclk/cy_sysclk.h ****     uint16_t                    lockTolerance;   /**< CLK_FLL_CONFIG2 register, LOCK_TOL bits */
 772:Generated_Source\PSoC6\pdl\drivers\peripheral\sysclk/cy_sysclk.h ****     uint8_t                     igain;           /**< CLK_FLL_CONFIG3 register, FLL_LF_IGAIN bits *
 773:Generated_Source\PSoC6\pdl\drivers\peripheral\sysclk/cy_sysclk.h ****     uint8_t                     pgain;           /**< CLK_FLL_CONFIG3 register, FLL_LF_PGAIN bits *
 774:Generated_Source\PSoC6\pdl\drivers\peripheral\sysclk/cy_sysclk.h ****     uint16_t                    settlingCount;   /**< CLK_FLL_CONFIG3 register, SETTLING_COUNT bits
 775:Generated_Source\PSoC6\pdl\drivers\peripheral\sysclk/cy_sysclk.h ****     cy_en_fll_pll_output_mode_t outputMode;      /**< CLK_FLL_CONFIG3 register, BYPASS_SEL bits */
 776:Generated_Source\PSoC6\pdl\drivers\peripheral\sysclk/cy_sysclk.h ****     uint16_t                    cco_Freq;        /**< CLK_FLL_CONFIG4 register, CCO_FREQ bits */
 777:Generated_Source\PSoC6\pdl\drivers\peripheral\sysclk/cy_sysclk.h **** } cy_stc_fll_manual_config_t;
 778:Generated_Source\PSoC6\pdl\drivers\peripheral\sysclk/cy_sysclk.h **** /** \} group_sysclk_fll_structs */
 779:Generated_Source\PSoC6\pdl\drivers\peripheral\sysclk/cy_sysclk.h **** 
 780:Generated_Source\PSoC6\pdl\drivers\peripheral\sysclk/cy_sysclk.h **** /**
 781:Generated_Source\PSoC6\pdl\drivers\peripheral\sysclk/cy_sysclk.h **** * \addtogroup group_sysclk_fll_funcs
 782:Generated_Source\PSoC6\pdl\drivers\peripheral\sysclk/cy_sysclk.h **** * \{
 783:Generated_Source\PSoC6\pdl\drivers\peripheral\sysclk/cy_sysclk.h **** */
 784:Generated_Source\PSoC6\pdl\drivers\peripheral\sysclk/cy_sysclk.h **** cy_en_sysclk_status_t Cy_SysClk_FllConfigure(uint32_t inputFreq, uint32_t outputFreq, cy_en_fll_pll
 785:Generated_Source\PSoC6\pdl\drivers\peripheral\sysclk/cy_sysclk.h **** cy_en_sysclk_status_t Cy_SysClk_FllManualConfigure(const cy_stc_fll_manual_config_t *config);
 786:Generated_Source\PSoC6\pdl\drivers\peripheral\sysclk/cy_sysclk.h **** void Cy_SysClk_FllGetConfiguration(cy_stc_fll_manual_config_t *config);
 787:Generated_Source\PSoC6\pdl\drivers\peripheral\sysclk/cy_sysclk.h **** cy_en_sysclk_status_t Cy_SysClk_FllEnable(uint32_t timeoutus);
 788:Generated_Source\PSoC6\pdl\drivers\peripheral\sysclk/cy_sysclk.h **** __STATIC_INLINE bool Cy_SysClk_FllLocked(void);
 789:Generated_Source\PSoC6\pdl\drivers\peripheral\sysclk/cy_sysclk.h **** #if (CY_IP_MXS40SRSS_VERSION != 1) || defined(CY_DOXYGEN)
 790:Generated_Source\PSoC6\pdl\drivers\peripheral\sysclk/cy_sysclk.h **** __STATIC_INLINE bool Cy_SysClk_FllLostLock(void);
 791:Generated_Source\PSoC6\pdl\drivers\peripheral\sysclk/cy_sysclk.h **** #endif
 792:Generated_Source\PSoC6\pdl\drivers\peripheral\sysclk/cy_sysclk.h **** __STATIC_INLINE cy_en_sysclk_status_t Cy_SysClk_FllDisable(void);
 793:Generated_Source\PSoC6\pdl\drivers\peripheral\sysclk/cy_sysclk.h **** 
 794:Generated_Source\PSoC6\pdl\drivers\peripheral\sysclk/cy_sysclk.h **** /*******************************************************************************
 795:Generated_Source\PSoC6\pdl\drivers\peripheral\sysclk/cy_sysclk.h **** * Function Name: Cy_SysClk_FllLocked
 796:Generated_Source\PSoC6\pdl\drivers\peripheral\sysclk/cy_sysclk.h **** ****************************************************************************//**
 797:Generated_Source\PSoC6\pdl\drivers\peripheral\sysclk/cy_sysclk.h **** *
 798:Generated_Source\PSoC6\pdl\drivers\peripheral\sysclk/cy_sysclk.h **** * Reports whether or not the FLL is locked.
 799:Generated_Source\PSoC6\pdl\drivers\peripheral\sysclk/cy_sysclk.h **** *
 800:Generated_Source\PSoC6\pdl\drivers\peripheral\sysclk/cy_sysclk.h **** * \return 
 801:Generated_Source\PSoC6\pdl\drivers\peripheral\sysclk/cy_sysclk.h **** * false = not locked<br>
 802:Generated_Source\PSoC6\pdl\drivers\peripheral\sysclk/cy_sysclk.h **** * true = locked
 803:Generated_Source\PSoC6\pdl\drivers\peripheral\sysclk/cy_sysclk.h **** *
 804:Generated_Source\PSoC6\pdl\drivers\peripheral\sysclk/cy_sysclk.h **** * \funcusage
 805:Generated_Source\PSoC6\pdl\drivers\peripheral\sysclk/cy_sysclk.h **** * \snippet sysclk/sysclk_v1_10_sut_01.cydsn/main_cm4.c snippet_Cy_SysClk_FllLocked
 806:Generated_Source\PSoC6\pdl\drivers\peripheral\sysclk/cy_sysclk.h **** *
 807:Generated_Source\PSoC6\pdl\drivers\peripheral\sysclk/cy_sysclk.h **** *******************************************************************************/
 808:Generated_Source\PSoC6\pdl\drivers\peripheral\sysclk/cy_sysclk.h **** __STATIC_INLINE bool Cy_SysClk_FllLocked(void)
 809:Generated_Source\PSoC6\pdl\drivers\peripheral\sysclk/cy_sysclk.h **** {
 810:Generated_Source\PSoC6\pdl\drivers\peripheral\sysclk/cy_sysclk.h ****     return (bool)(_FLD2VAL(SRSS_CLK_FLL_STATUS_LOCKED, SRSS->CLK_FLL_STATUS));
 811:Generated_Source\PSoC6\pdl\drivers\peripheral\sysclk/cy_sysclk.h **** }
 812:Generated_Source\PSoC6\pdl\drivers\peripheral\sysclk/cy_sysclk.h **** 
 813:Generated_Source\PSoC6\pdl\drivers\peripheral\sysclk/cy_sysclk.h **** #if (CY_IP_MXS40SRSS_VERSION != 1) || defined(CY_DOXYGEN)
 814:Generated_Source\PSoC6\pdl\drivers\peripheral\sysclk/cy_sysclk.h **** /*******************************************************************************
 815:Generated_Source\PSoC6\pdl\drivers\peripheral\sysclk/cy_sysclk.h **** * Function Name: Cy_SysClk_FllLostLock
 816:Generated_Source\PSoC6\pdl\drivers\peripheral\sysclk/cy_sysclk.h **** ****************************************************************************//**
 817:Generated_Source\PSoC6\pdl\drivers\peripheral\sysclk/cy_sysclk.h **** *
 818:Generated_Source\PSoC6\pdl\drivers\peripheral\sysclk/cy_sysclk.h **** * Reports whether or not the FLL lost its lock since the last time this function
 819:Generated_Source\PSoC6\pdl\drivers\peripheral\sysclk/cy_sysclk.h **** * was called. Clears the lost lock indicator.
 820:Generated_Source\PSoC6\pdl\drivers\peripheral\sysclk/cy_sysclk.h **** *
 821:Generated_Source\PSoC6\pdl\drivers\peripheral\sysclk/cy_sysclk.h **** * \return 
 822:Generated_Source\PSoC6\pdl\drivers\peripheral\sysclk/cy_sysclk.h **** * false = did not lose lock<br>
 823:Generated_Source\PSoC6\pdl\drivers\peripheral\sysclk/cy_sysclk.h **** * true = lost lock
 824:Generated_Source\PSoC6\pdl\drivers\peripheral\sysclk/cy_sysclk.h **** *
 825:Generated_Source\PSoC6\pdl\drivers\peripheral\sysclk/cy_sysclk.h **** * \funcusage
 826:Generated_Source\PSoC6\pdl\drivers\peripheral\sysclk/cy_sysclk.h **** * \snippet sysclk/sysclk_v1_10_sut_01.cydsn/main_cm4.c snippet_Cy_SysClk_FllLostLock
 827:Generated_Source\PSoC6\pdl\drivers\peripheral\sysclk/cy_sysclk.h **** *
ARM GAS  C:\Users\gjl\AppData\Local\Temp\ccNVysBX.s 			page 52


 828:Generated_Source\PSoC6\pdl\drivers\peripheral\sysclk/cy_sysclk.h **** *******************************************************************************/
 829:Generated_Source\PSoC6\pdl\drivers\peripheral\sysclk/cy_sysclk.h **** __STATIC_INLINE bool Cy_SysClk_FllLostLock(void)
 830:Generated_Source\PSoC6\pdl\drivers\peripheral\sysclk/cy_sysclk.h **** {
 831:Generated_Source\PSoC6\pdl\drivers\peripheral\sysclk/cy_sysclk.h ****     uint32_t retval = _FLD2VAL(SRSS_CLK_FLL_STATUS_UNLOCK_OCCURRED, SRSS->CLK_FLL_STATUS);
 832:Generated_Source\PSoC6\pdl\drivers\peripheral\sysclk/cy_sysclk.h ****     /* write a 1 to clear the unlock occurred bit */
 833:Generated_Source\PSoC6\pdl\drivers\peripheral\sysclk/cy_sysclk.h ****     SRSS->CLK_FLL_STATUS = _VAL2FLD(SRSS_CLK_FLL_STATUS_UNLOCK_OCCURRED, 1u);
 834:Generated_Source\PSoC6\pdl\drivers\peripheral\sysclk/cy_sysclk.h ****     return ((bool)retval);
 835:Generated_Source\PSoC6\pdl\drivers\peripheral\sysclk/cy_sysclk.h **** }
 836:Generated_Source\PSoC6\pdl\drivers\peripheral\sysclk/cy_sysclk.h **** #endif
 837:Generated_Source\PSoC6\pdl\drivers\peripheral\sysclk/cy_sysclk.h **** 
 838:Generated_Source\PSoC6\pdl\drivers\peripheral\sysclk/cy_sysclk.h **** /*******************************************************************************
 839:Generated_Source\PSoC6\pdl\drivers\peripheral\sysclk/cy_sysclk.h **** * Function Name: Cy_SysClk_FllDisable
 840:Generated_Source\PSoC6\pdl\drivers\peripheral\sysclk/cy_sysclk.h **** ****************************************************************************//**
 841:Generated_Source\PSoC6\pdl\drivers\peripheral\sysclk/cy_sysclk.h **** *
 842:Generated_Source\PSoC6\pdl\drivers\peripheral\sysclk/cy_sysclk.h **** * Disables the FLL and the CCO.
 843:Generated_Source\PSoC6\pdl\drivers\peripheral\sysclk/cy_sysclk.h **** *
 844:Generated_Source\PSoC6\pdl\drivers\peripheral\sysclk/cy_sysclk.h **** * \return \ref cy_en_sysclk_status_t
 845:Generated_Source\PSoC6\pdl\drivers\peripheral\sysclk/cy_sysclk.h **** *
 846:Generated_Source\PSoC6\pdl\drivers\peripheral\sysclk/cy_sysclk.h **** * \funcusage
 847:Generated_Source\PSoC6\pdl\drivers\peripheral\sysclk/cy_sysclk.h **** * \snippet sysclk/sysclk_v1_10_sut_01.cydsn/main_cm4.c snippet_Cy_SysClk_FllDisable
 848:Generated_Source\PSoC6\pdl\drivers\peripheral\sysclk/cy_sysclk.h **** *
 849:Generated_Source\PSoC6\pdl\drivers\peripheral\sysclk/cy_sysclk.h **** *******************************************************************************/
 850:Generated_Source\PSoC6\pdl\drivers\peripheral\sysclk/cy_sysclk.h **** __STATIC_INLINE cy_en_sysclk_status_t Cy_SysClk_FllDisable(void)
 851:Generated_Source\PSoC6\pdl\drivers\peripheral\sysclk/cy_sysclk.h **** {
 852:Generated_Source\PSoC6\pdl\drivers\peripheral\sysclk/cy_sysclk.h ****     SRSS->CLK_FLL_CONFIG  &= ~_VAL2FLD(SRSS_CLK_FLL_CONFIG_FLL_ENABLE,  1u); /* 0 = disable */
 1375              		.loc 2 852 0 is_stmt 1
 1376 0072 0E4B     		ldr	r3, .L132
 1377 0074 D3F88025 		ldr	r2, [r3, #1408]
 1378 0078 22F00042 		bic	r2, r2, #-2147483648
 1379 007c C3F88025 		str	r2, [r3, #1408]
 853:Generated_Source\PSoC6\pdl\drivers\peripheral\sysclk/cy_sysclk.h ****     SRSS->CLK_FLL_CONFIG4 &= ~_VAL2FLD(SRSS_CLK_FLL_CONFIG4_CCO_ENABLE, 1u); /* 0 = disable */
 1380              		.loc 2 853 0
 1381 0080 D3F88C25 		ldr	r2, [r3, #1420]
 1382 0084 22F00042 		bic	r2, r2, #-2147483648
 1383 0088 C3F88C25 		str	r2, [r3, #1420]
 1384 008c 09E0     		b	.L128
 1385              	.L127:
 1386              	.LBE38:
 1387              	.LBE37:
 616:Generated_Source\PSoC6\pdl\drivers\peripheral\sysclk/cy_sysclk.c ****     {
 617:Generated_Source\PSoC6\pdl\drivers\peripheral\sysclk/cy_sysclk.c ****         (void)Cy_SysClk_FllDisable();
 618:Generated_Source\PSoC6\pdl\drivers\peripheral\sysclk/cy_sysclk.c ****     }
 619:Generated_Source\PSoC6\pdl\drivers\peripheral\sysclk/cy_sysclk.c ****     else
 620:Generated_Source\PSoC6\pdl\drivers\peripheral\sysclk/cy_sysclk.c ****     { /* Lock occurred; we need to clear the unlock occurred bit.
 621:Generated_Source\PSoC6\pdl\drivers\peripheral\sysclk/cy_sysclk.c ****          Do so by writing a 1 to it. */
 622:Generated_Source\PSoC6\pdl\drivers\peripheral\sysclk/cy_sysclk.c ****         SRSS->CLK_FLL_STATUS = _VAL2FLD(SRSS_CLK_FLL_STATUS_UNLOCK_OCCURRED, 1ul);
 1388              		.loc 1 622 0
 1389 008e 074B     		ldr	r3, .L132
 1390 0090 0222     		movs	r2, #2
 1391 0092 C3F89025 		str	r2, [r3, #1424]
 623:Generated_Source\PSoC6\pdl\drivers\peripheral\sysclk/cy_sysclk.c ****         /* Set the FLL bypass mode to 3 */
 624:Generated_Source\PSoC6\pdl\drivers\peripheral\sysclk/cy_sysclk.c ****         CY_SYSCLK_CLR_SET(SRSS->CLK_FLL_CONFIG3, SRSS_CLK_FLL_CONFIG3_BYPASS_SEL,
 1392              		.loc 1 624 0
 1393 0096 D3F88825 		ldr	r2, [r3, #1416]
 1394 009a 42F04052 		orr	r2, r2, #805306368
 1395 009e C3F88825 		str	r2, [r3, #1416]
 1396              	.L128:
ARM GAS  C:\Users\gjl\AppData\Local\Temp\ccNVysBX.s 			page 53


 625:Generated_Source\PSoC6\pdl\drivers\peripheral\sysclk/cy_sysclk.c ****                           (uint32_t)CY_SYSCLK_FLLPLL_OUTPUT_OUTPUT);
 626:Generated_Source\PSoC6\pdl\drivers\peripheral\sysclk/cy_sysclk.c ****     }
 627:Generated_Source\PSoC6\pdl\drivers\peripheral\sysclk/cy_sysclk.c **** 
 628:Generated_Source\PSoC6\pdl\drivers\peripheral\sysclk/cy_sysclk.c ****     rtnval = ((timeoutus == 0ul) ? CY_SYSCLK_TIMEOUT : CY_SYSCLK_SUCCESS);
 1397              		.loc 1 628 0
 1398 00a2 0CB9     		cbnz	r4, .L130
 1399 00a4 0248     		ldr	r0, .L132+4
 1400 00a6 38BD     		pop	{r3, r4, r5, pc}
 1401              	.LVL140:
 1402              	.L130:
 1403 00a8 0020     		movs	r0, #0
 1404              	.LVL141:
 629:Generated_Source\PSoC6\pdl\drivers\peripheral\sysclk/cy_sysclk.c ****     return rtnval;
 630:Generated_Source\PSoC6\pdl\drivers\peripheral\sysclk/cy_sysclk.c **** }
 1405              		.loc 1 630 0
 1406 00aa 38BD     		pop	{r3, r4, r5, pc}
 1407              	.LVL142:
 1408              	.L133:
 1409              		.align	2
 1410              	.L132:
 1411 00ac 00002640 		.word	1076232192
 1412 00b0 02004A00 		.word	4849666
 1413              		.cfi_endproc
 1414              	.LFE222:
 1415              		.size	Cy_SysClk_FllEnable, .-Cy_SysClk_FllEnable
 1416              		.section	.text.Cy_SysClk_PllManualConfigure,"ax",%progbits
 1417              		.align	2
 1418              		.global	Cy_SysClk_PllManualConfigure
 1419              		.thumb
 1420              		.thumb_func
 1421              		.type	Cy_SysClk_PllManualConfigure, %function
 1422              	Cy_SysClk_PllManualConfigure:
 1423              	.LFB224:
 631:Generated_Source\PSoC6\pdl\drivers\peripheral\sysclk/cy_sysclk.c **** /** \} group_sysclk_fll_funcs */
 632:Generated_Source\PSoC6\pdl\drivers\peripheral\sysclk/cy_sysclk.c **** 
 633:Generated_Source\PSoC6\pdl\drivers\peripheral\sysclk/cy_sysclk.c **** 
 634:Generated_Source\PSoC6\pdl\drivers\peripheral\sysclk/cy_sysclk.c **** /* ========================================================================== */
 635:Generated_Source\PSoC6\pdl\drivers\peripheral\sysclk/cy_sysclk.c **** /* ===========================    PLL SECTION    ============================ */
 636:Generated_Source\PSoC6\pdl\drivers\peripheral\sysclk/cy_sysclk.c **** /* ========================================================================== */
 637:Generated_Source\PSoC6\pdl\drivers\peripheral\sysclk/cy_sysclk.c **** /** \cond INTERNAL */
 638:Generated_Source\PSoC6\pdl\drivers\peripheral\sysclk/cy_sysclk.c **** /* PLL OUTPUT_DIV bitfield allowable range */
 639:Generated_Source\PSoC6\pdl\drivers\peripheral\sysclk/cy_sysclk.c **** #define MIN_OUTPUT_DIV     2UL
 640:Generated_Source\PSoC6\pdl\drivers\peripheral\sysclk/cy_sysclk.c **** #define MAX_OUTPUT_DIV    16UL
 641:Generated_Source\PSoC6\pdl\drivers\peripheral\sysclk/cy_sysclk.c **** 
 642:Generated_Source\PSoC6\pdl\drivers\peripheral\sysclk/cy_sysclk.c **** /* PLL REFERENCE_DIV bitfield allowable range */
 643:Generated_Source\PSoC6\pdl\drivers\peripheral\sysclk/cy_sysclk.c **** #define MIN_REF_DIV        1UL
 644:Generated_Source\PSoC6\pdl\drivers\peripheral\sysclk/cy_sysclk.c **** #define MAX_REF_DIV       18UL
 645:Generated_Source\PSoC6\pdl\drivers\peripheral\sysclk/cy_sysclk.c **** 
 646:Generated_Source\PSoC6\pdl\drivers\peripheral\sysclk/cy_sysclk.c **** /* PLL FEEDBACK_DIV bitfield allowable ranges, LF and normal modes */
 647:Generated_Source\PSoC6\pdl\drivers\peripheral\sysclk/cy_sysclk.c **** #define MIN_FB_DIV_LF     19UL
 648:Generated_Source\PSoC6\pdl\drivers\peripheral\sysclk/cy_sysclk.c **** #define MAX_FB_DIV_LF     56UL
 649:Generated_Source\PSoC6\pdl\drivers\peripheral\sysclk/cy_sysclk.c **** #define MIN_FB_DIV_NORM   22UL
 650:Generated_Source\PSoC6\pdl\drivers\peripheral\sysclk/cy_sysclk.c **** #define MAX_FB_DIV_NORM  112UL
 651:Generated_Source\PSoC6\pdl\drivers\peripheral\sysclk/cy_sysclk.c **** /* PLL FEEDBACK_DIV bitfield allowable range selection */
 652:Generated_Source\PSoC6\pdl\drivers\peripheral\sysclk/cy_sysclk.c **** #define MIN_FB_DIV ((config->lfMode) ? MIN_FB_DIV_LF : MIN_FB_DIV_NORM)
 653:Generated_Source\PSoC6\pdl\drivers\peripheral\sysclk/cy_sysclk.c **** #define MAX_FB_DIV ((config->lfMode) ? MAX_FB_DIV_LF : MAX_FB_DIV_NORM)
 654:Generated_Source\PSoC6\pdl\drivers\peripheral\sysclk/cy_sysclk.c **** 
ARM GAS  C:\Users\gjl\AppData\Local\Temp\ccNVysBX.s 			page 54


 655:Generated_Source\PSoC6\pdl\drivers\peripheral\sysclk/cy_sysclk.c **** /* PLL Fvco range allowable ranges, LF and normal modes */
 656:Generated_Source\PSoC6\pdl\drivers\peripheral\sysclk/cy_sysclk.c **** #define MIN_FVCO_LF   170000000UL
 657:Generated_Source\PSoC6\pdl\drivers\peripheral\sysclk/cy_sysclk.c **** #define MAX_FVCO_LF   200000000UL
 658:Generated_Source\PSoC6\pdl\drivers\peripheral\sysclk/cy_sysclk.c **** #define MIN_FVCO_NORM 200000000UL
 659:Generated_Source\PSoC6\pdl\drivers\peripheral\sysclk/cy_sysclk.c **** #define MAX_FVCO_NORM 400000000UL
 660:Generated_Source\PSoC6\pdl\drivers\peripheral\sysclk/cy_sysclk.c **** /* PLL Fvco range selection */
 661:Generated_Source\PSoC6\pdl\drivers\peripheral\sysclk/cy_sysclk.c **** #define MIN_FVCO ((config->lfMode) ? MIN_FVCO_LF : MIN_FVCO_NORM)
 662:Generated_Source\PSoC6\pdl\drivers\peripheral\sysclk/cy_sysclk.c **** #define MAX_FVCO ((config->lfMode) ? MAX_FVCO_LF : MAX_FVCO_NORM)
 663:Generated_Source\PSoC6\pdl\drivers\peripheral\sysclk/cy_sysclk.c **** 
 664:Generated_Source\PSoC6\pdl\drivers\peripheral\sysclk/cy_sysclk.c **** /* PLL input and output frequency limits */
 665:Generated_Source\PSoC6\pdl\drivers\peripheral\sysclk/cy_sysclk.c **** #define MIN_IN_FREQ    4000000UL
 666:Generated_Source\PSoC6\pdl\drivers\peripheral\sysclk/cy_sysclk.c **** #define MAX_IN_FREQ   64000000UL
 667:Generated_Source\PSoC6\pdl\drivers\peripheral\sysclk/cy_sysclk.c **** #define MIN_OUT_FREQ ((config->lfMode) ? (MIN_FVCO_LF / MAX_OUTPUT_DIV) : (MIN_FVCO_NORM / MAX_OUTP
 668:Generated_Source\PSoC6\pdl\drivers\peripheral\sysclk/cy_sysclk.c **** #define MAX_OUT_FREQ CY_HF_CLK_MAX_FREQ
 669:Generated_Source\PSoC6\pdl\drivers\peripheral\sysclk/cy_sysclk.c **** /** \endcond */
 670:Generated_Source\PSoC6\pdl\drivers\peripheral\sysclk/cy_sysclk.c **** 
 671:Generated_Source\PSoC6\pdl\drivers\peripheral\sysclk/cy_sysclk.c **** /**
 672:Generated_Source\PSoC6\pdl\drivers\peripheral\sysclk/cy_sysclk.c **** * \addtogroup group_sysclk_pll_funcs
 673:Generated_Source\PSoC6\pdl\drivers\peripheral\sysclk/cy_sysclk.c **** * \{
 674:Generated_Source\PSoC6\pdl\drivers\peripheral\sysclk/cy_sysclk.c **** */
 675:Generated_Source\PSoC6\pdl\drivers\peripheral\sysclk/cy_sysclk.c **** /*******************************************************************************
 676:Generated_Source\PSoC6\pdl\drivers\peripheral\sysclk/cy_sysclk.c **** * Function Name: Cy_SysClk_PllConfigure
 677:Generated_Source\PSoC6\pdl\drivers\peripheral\sysclk/cy_sysclk.c **** ****************************************************************************//**
 678:Generated_Source\PSoC6\pdl\drivers\peripheral\sysclk/cy_sysclk.c **** *
 679:Generated_Source\PSoC6\pdl\drivers\peripheral\sysclk/cy_sysclk.c **** * Configures a given PLL.
 680:Generated_Source\PSoC6\pdl\drivers\peripheral\sysclk/cy_sysclk.c **** * The configuration formula used is:
 681:Generated_Source\PSoC6\pdl\drivers\peripheral\sysclk/cy_sysclk.c **** *   Fout = pll_clk * (P / Q / div_out), where:
 682:Generated_Source\PSoC6\pdl\drivers\peripheral\sysclk/cy_sysclk.c **** *     Fout is the desired output frequency
 683:Generated_Source\PSoC6\pdl\drivers\peripheral\sysclk/cy_sysclk.c **** *     pll_clk is the frequency of the input source
 684:Generated_Source\PSoC6\pdl\drivers\peripheral\sysclk/cy_sysclk.c **** *     P is the feedback divider. Its value is in bitfield FEEDBACK_DIV.
 685:Generated_Source\PSoC6\pdl\drivers\peripheral\sysclk/cy_sysclk.c **** *     Q is the reference divider. Its value is in bitfield REFERENCE_DIV.
 686:Generated_Source\PSoC6\pdl\drivers\peripheral\sysclk/cy_sysclk.c **** *     div_out is the reference divider. Its value is in bitfield OUTPUT_DIV.
 687:Generated_Source\PSoC6\pdl\drivers\peripheral\sysclk/cy_sysclk.c **** *
 688:Generated_Source\PSoC6\pdl\drivers\peripheral\sysclk/cy_sysclk.c **** * \param clkPath Selects which PLL to configure. 1 is the first PLL; 0 is invalid.
 689:Generated_Source\PSoC6\pdl\drivers\peripheral\sysclk/cy_sysclk.c **** *
 690:Generated_Source\PSoC6\pdl\drivers\peripheral\sysclk/cy_sysclk.c **** * \param config \ref cy_stc_pll_config_t
 691:Generated_Source\PSoC6\pdl\drivers\peripheral\sysclk/cy_sysclk.c **** *
 692:Generated_Source\PSoC6\pdl\drivers\peripheral\sysclk/cy_sysclk.c **** * \return  Error / status code:<br>
 693:Generated_Source\PSoC6\pdl\drivers\peripheral\sysclk/cy_sysclk.c **** * CY_SYSCLK_SUCCESS - PLL successfully configured<br>
 694:Generated_Source\PSoC6\pdl\drivers\peripheral\sysclk/cy_sysclk.c **** * CY_SYSCLK_INVALID_STATE - PLL not configured because it is enabled<br>
 695:Generated_Source\PSoC6\pdl\drivers\peripheral\sysclk/cy_sysclk.c **** * CY_SYSCLK_BAD_PARAM - invalid clock path number, or input or desired output frequency is out of v
 696:Generated_Source\PSoC6\pdl\drivers\peripheral\sysclk/cy_sysclk.c **** *
 697:Generated_Source\PSoC6\pdl\drivers\peripheral\sysclk/cy_sysclk.c **** * \note
 698:Generated_Source\PSoC6\pdl\drivers\peripheral\sysclk/cy_sysclk.c **** * Call this function after changing the PLL input frequency, for example if
 699:Generated_Source\PSoC6\pdl\drivers\peripheral\sysclk/cy_sysclk.c **** * \ref Cy_SysClk_ClkPathSetSource() is called.
 700:Generated_Source\PSoC6\pdl\drivers\peripheral\sysclk/cy_sysclk.c **** * \note
 701:Generated_Source\PSoC6\pdl\drivers\peripheral\sysclk/cy_sysclk.c **** * Do not call this function when the PLL is enabled. If it is, then this function
 702:Generated_Source\PSoC6\pdl\drivers\peripheral\sysclk/cy_sysclk.c **** * returns immediately with an error return value and no register updates.
 703:Generated_Source\PSoC6\pdl\drivers\peripheral\sysclk/cy_sysclk.c **** *
 704:Generated_Source\PSoC6\pdl\drivers\peripheral\sysclk/cy_sysclk.c **** * \funcusage
 705:Generated_Source\PSoC6\pdl\drivers\peripheral\sysclk/cy_sysclk.c **** * \snippet sysclk/sysclk_v1_10_sut_01.cydsn/main_cm4.c snippet_Cy_SysClk_PllConfigure
 706:Generated_Source\PSoC6\pdl\drivers\peripheral\sysclk/cy_sysclk.c **** *
 707:Generated_Source\PSoC6\pdl\drivers\peripheral\sysclk/cy_sysclk.c **** *******************************************************************************/
 708:Generated_Source\PSoC6\pdl\drivers\peripheral\sysclk/cy_sysclk.c **** cy_en_sysclk_status_t Cy_SysClk_PllConfigure(uint32_t clkPath, const cy_stc_pll_config_t *config)
 709:Generated_Source\PSoC6\pdl\drivers\peripheral\sysclk/cy_sysclk.c **** {
 710:Generated_Source\PSoC6\pdl\drivers\peripheral\sysclk/cy_sysclk.c ****     cy_en_sysclk_status_t returnStatus = CY_SYSCLK_SUCCESS;
 711:Generated_Source\PSoC6\pdl\drivers\peripheral\sysclk/cy_sysclk.c **** 
ARM GAS  C:\Users\gjl\AppData\Local\Temp\ccNVysBX.s 			page 55


 712:Generated_Source\PSoC6\pdl\drivers\peripheral\sysclk/cy_sysclk.c ****     /* check for error */
 713:Generated_Source\PSoC6\pdl\drivers\peripheral\sysclk/cy_sysclk.c ****     if ((clkPath == 0ul) || (clkPath > SRSS_NUM_PLL)) /* invalid clock path number */
 714:Generated_Source\PSoC6\pdl\drivers\peripheral\sysclk/cy_sysclk.c ****     {
 715:Generated_Source\PSoC6\pdl\drivers\peripheral\sysclk/cy_sysclk.c ****         returnStatus = CY_SYSCLK_BAD_PARAM;
 716:Generated_Source\PSoC6\pdl\drivers\peripheral\sysclk/cy_sysclk.c ****     }
 717:Generated_Source\PSoC6\pdl\drivers\peripheral\sysclk/cy_sysclk.c ****     else if (_FLD2VAL(SRSS_CLK_PLL_CONFIG_ENABLE, SRSS->CLK_PLL_CONFIG[clkPath - 1ul]) != 0u) /* 1 
 718:Generated_Source\PSoC6\pdl\drivers\peripheral\sysclk/cy_sysclk.c ****     {
 719:Generated_Source\PSoC6\pdl\drivers\peripheral\sysclk/cy_sysclk.c ****         returnStatus = CY_SYSCLK_INVALID_STATE;
 720:Generated_Source\PSoC6\pdl\drivers\peripheral\sysclk/cy_sysclk.c ****     }
 721:Generated_Source\PSoC6\pdl\drivers\peripheral\sysclk/cy_sysclk.c ****     /* invalid input frequency */
 722:Generated_Source\PSoC6\pdl\drivers\peripheral\sysclk/cy_sysclk.c ****     else if (((config->inputFreq) < MIN_IN_FREQ) || (MAX_IN_FREQ < (config->inputFreq)))
 723:Generated_Source\PSoC6\pdl\drivers\peripheral\sysclk/cy_sysclk.c ****     {
 724:Generated_Source\PSoC6\pdl\drivers\peripheral\sysclk/cy_sysclk.c ****         returnStatus = CY_SYSCLK_BAD_PARAM;
 725:Generated_Source\PSoC6\pdl\drivers\peripheral\sysclk/cy_sysclk.c ****     }
 726:Generated_Source\PSoC6\pdl\drivers\peripheral\sysclk/cy_sysclk.c ****     /* invalid output frequency */
 727:Generated_Source\PSoC6\pdl\drivers\peripheral\sysclk/cy_sysclk.c ****     else if (((config->outputFreq) < MIN_OUT_FREQ) || (MAX_OUT_FREQ < (config->outputFreq)))
 728:Generated_Source\PSoC6\pdl\drivers\peripheral\sysclk/cy_sysclk.c ****     {
 729:Generated_Source\PSoC6\pdl\drivers\peripheral\sysclk/cy_sysclk.c ****         returnStatus = CY_SYSCLK_BAD_PARAM;
 730:Generated_Source\PSoC6\pdl\drivers\peripheral\sysclk/cy_sysclk.c ****     }
 731:Generated_Source\PSoC6\pdl\drivers\peripheral\sysclk/cy_sysclk.c ****     else
 732:Generated_Source\PSoC6\pdl\drivers\peripheral\sysclk/cy_sysclk.c ****     { /* returnStatus is OK */
 733:Generated_Source\PSoC6\pdl\drivers\peripheral\sysclk/cy_sysclk.c ****     }
 734:Generated_Source\PSoC6\pdl\drivers\peripheral\sysclk/cy_sysclk.c **** 
 735:Generated_Source\PSoC6\pdl\drivers\peripheral\sysclk/cy_sysclk.c ****     /* no errors */
 736:Generated_Source\PSoC6\pdl\drivers\peripheral\sysclk/cy_sysclk.c ****     if (returnStatus == CY_SYSCLK_SUCCESS)
 737:Generated_Source\PSoC6\pdl\drivers\peripheral\sysclk/cy_sysclk.c ****     {
 738:Generated_Source\PSoC6\pdl\drivers\peripheral\sysclk/cy_sysclk.c ****         cy_stc_pll_manual_config_t manualConfig;
 739:Generated_Source\PSoC6\pdl\drivers\peripheral\sysclk/cy_sysclk.c ****         manualConfig.feedbackDiv = 0ul;
 740:Generated_Source\PSoC6\pdl\drivers\peripheral\sysclk/cy_sysclk.c ****         manualConfig.referenceDiv = 0ul;
 741:Generated_Source\PSoC6\pdl\drivers\peripheral\sysclk/cy_sysclk.c ****         manualConfig.outputDiv = 0ul;
 742:Generated_Source\PSoC6\pdl\drivers\peripheral\sysclk/cy_sysclk.c **** 
 743:Generated_Source\PSoC6\pdl\drivers\peripheral\sysclk/cy_sysclk.c ****         /* If output mode is bypass (input routed directly to output), then done.
 744:Generated_Source\PSoC6\pdl\drivers\peripheral\sysclk/cy_sysclk.c ****            The output frequency equals the input frequency regardless of the
 745:Generated_Source\PSoC6\pdl\drivers\peripheral\sysclk/cy_sysclk.c ****            frequency parameters. */
 746:Generated_Source\PSoC6\pdl\drivers\peripheral\sysclk/cy_sysclk.c ****         if (config->outputMode != CY_SYSCLK_FLLPLL_OUTPUT_INPUT)
 747:Generated_Source\PSoC6\pdl\drivers\peripheral\sysclk/cy_sysclk.c ****         {
 748:Generated_Source\PSoC6\pdl\drivers\peripheral\sysclk/cy_sysclk.c ****             /* for each possible value of OUTPUT_DIV and REFERENCE_DIV (Q), try
 749:Generated_Source\PSoC6\pdl\drivers\peripheral\sysclk/cy_sysclk.c ****                to find a value for FEEDBACK_DIV (P) that gives an output frequency
 750:Generated_Source\PSoC6\pdl\drivers\peripheral\sysclk/cy_sysclk.c ****                as close as possible to the desired output frequency. */
 751:Generated_Source\PSoC6\pdl\drivers\peripheral\sysclk/cy_sysclk.c ****             uint32_t p, q, out;
 752:Generated_Source\PSoC6\pdl\drivers\peripheral\sysclk/cy_sysclk.c ****             uint32_t foutBest = 0ul; /* to ensure at least one pass through the for loops below */
 753:Generated_Source\PSoC6\pdl\drivers\peripheral\sysclk/cy_sysclk.c **** 
 754:Generated_Source\PSoC6\pdl\drivers\peripheral\sysclk/cy_sysclk.c ****             /* REFERENCE_DIV (Q) selection */
 755:Generated_Source\PSoC6\pdl\drivers\peripheral\sysclk/cy_sysclk.c ****             for (q = MIN_REF_DIV; (q <= MAX_REF_DIV) && (foutBest != (config->outputFreq)); q++)
 756:Generated_Source\PSoC6\pdl\drivers\peripheral\sysclk/cy_sysclk.c ****             {
 757:Generated_Source\PSoC6\pdl\drivers\peripheral\sysclk/cy_sysclk.c ****                 /* FEEDBACK_DIV (P) selection */
 758:Generated_Source\PSoC6\pdl\drivers\peripheral\sysclk/cy_sysclk.c ****                 for (p = MIN_FB_DIV; (p <= MAX_FB_DIV) && (foutBest != (config->outputFreq)); p++)
 759:Generated_Source\PSoC6\pdl\drivers\peripheral\sysclk/cy_sysclk.c ****                 {
 760:Generated_Source\PSoC6\pdl\drivers\peripheral\sysclk/cy_sysclk.c ****                     /* Calculate the intermediate Fvco, and make sure that it's in range. */
 761:Generated_Source\PSoC6\pdl\drivers\peripheral\sysclk/cy_sysclk.c ****                     uint32_t fvco = (uint32_t)(((uint64_t)(config->inputFreq) * (uint64_t)p) / (uin
 762:Generated_Source\PSoC6\pdl\drivers\peripheral\sysclk/cy_sysclk.c ****                     if ((MIN_FVCO <= fvco) && (fvco <= MAX_FVCO))
 763:Generated_Source\PSoC6\pdl\drivers\peripheral\sysclk/cy_sysclk.c ****                     {
 764:Generated_Source\PSoC6\pdl\drivers\peripheral\sysclk/cy_sysclk.c ****                         /* OUTPUT_DIV selection */
 765:Generated_Source\PSoC6\pdl\drivers\peripheral\sysclk/cy_sysclk.c ****                         for (out = MIN_OUTPUT_DIV; (out <= MAX_OUTPUT_DIV) && (foutBest != (config-
 766:Generated_Source\PSoC6\pdl\drivers\peripheral\sysclk/cy_sysclk.c ****                         {
 767:Generated_Source\PSoC6\pdl\drivers\peripheral\sysclk/cy_sysclk.c ****                             /* Calculate what output frequency will actually be produced. 
 768:Generated_Source\PSoC6\pdl\drivers\peripheral\sysclk/cy_sysclk.c ****                                If it's closer to the target than what we have so far, then save it.
ARM GAS  C:\Users\gjl\AppData\Local\Temp\ccNVysBX.s 			page 56


 769:Generated_Source\PSoC6\pdl\drivers\peripheral\sysclk/cy_sysclk.c ****                             uint32_t fout = ((p * config->inputFreq) / q) / out;
 770:Generated_Source\PSoC6\pdl\drivers\peripheral\sysclk/cy_sysclk.c ****                             if ((uint32_t)abs((int32_t)fout - (int32_t)(config->outputFreq)) <
 771:Generated_Source\PSoC6\pdl\drivers\peripheral\sysclk/cy_sysclk.c ****                                 (uint32_t)abs((int32_t)foutBest - (int32_t)(config->outputFreq)))
 772:Generated_Source\PSoC6\pdl\drivers\peripheral\sysclk/cy_sysclk.c ****                             {
 773:Generated_Source\PSoC6\pdl\drivers\peripheral\sysclk/cy_sysclk.c ****                                 foutBest = fout;
 774:Generated_Source\PSoC6\pdl\drivers\peripheral\sysclk/cy_sysclk.c ****                                 manualConfig.feedbackDiv  = p;
 775:Generated_Source\PSoC6\pdl\drivers\peripheral\sysclk/cy_sysclk.c ****                                 manualConfig.referenceDiv = q;
 776:Generated_Source\PSoC6\pdl\drivers\peripheral\sysclk/cy_sysclk.c ****                                 manualConfig.outputDiv    = out;
 777:Generated_Source\PSoC6\pdl\drivers\peripheral\sysclk/cy_sysclk.c ****                             }
 778:Generated_Source\PSoC6\pdl\drivers\peripheral\sysclk/cy_sysclk.c ****                         }
 779:Generated_Source\PSoC6\pdl\drivers\peripheral\sysclk/cy_sysclk.c ****                     }
 780:Generated_Source\PSoC6\pdl\drivers\peripheral\sysclk/cy_sysclk.c ****                 }
 781:Generated_Source\PSoC6\pdl\drivers\peripheral\sysclk/cy_sysclk.c ****             }
 782:Generated_Source\PSoC6\pdl\drivers\peripheral\sysclk/cy_sysclk.c ****             /* exit loops if foutBest equals outputFreq */
 783:Generated_Source\PSoC6\pdl\drivers\peripheral\sysclk/cy_sysclk.c ****         } /* if not bypass output mode */
 784:Generated_Source\PSoC6\pdl\drivers\peripheral\sysclk/cy_sysclk.c **** 
 785:Generated_Source\PSoC6\pdl\drivers\peripheral\sysclk/cy_sysclk.c ****         /* configure PLL based on calculated values */
 786:Generated_Source\PSoC6\pdl\drivers\peripheral\sysclk/cy_sysclk.c ****         manualConfig.lfMode     = config->lfMode;
 787:Generated_Source\PSoC6\pdl\drivers\peripheral\sysclk/cy_sysclk.c ****         manualConfig.outputMode = config->outputMode;
 788:Generated_Source\PSoC6\pdl\drivers\peripheral\sysclk/cy_sysclk.c ****         returnStatus = Cy_SysClk_PllManualConfigure(clkPath, &manualConfig);
 789:Generated_Source\PSoC6\pdl\drivers\peripheral\sysclk/cy_sysclk.c **** 
 790:Generated_Source\PSoC6\pdl\drivers\peripheral\sysclk/cy_sysclk.c ****     } /* if no error */
 791:Generated_Source\PSoC6\pdl\drivers\peripheral\sysclk/cy_sysclk.c **** 
 792:Generated_Source\PSoC6\pdl\drivers\peripheral\sysclk/cy_sysclk.c ****     return (returnStatus);
 793:Generated_Source\PSoC6\pdl\drivers\peripheral\sysclk/cy_sysclk.c **** }
 794:Generated_Source\PSoC6\pdl\drivers\peripheral\sysclk/cy_sysclk.c **** 
 795:Generated_Source\PSoC6\pdl\drivers\peripheral\sysclk/cy_sysclk.c **** /*******************************************************************************
 796:Generated_Source\PSoC6\pdl\drivers\peripheral\sysclk/cy_sysclk.c **** * Function Name: Cy_SysClk_PllManualConfigure
 797:Generated_Source\PSoC6\pdl\drivers\peripheral\sysclk/cy_sysclk.c **** ****************************************************************************//**
 798:Generated_Source\PSoC6\pdl\drivers\peripheral\sysclk/cy_sysclk.c **** *
 799:Generated_Source\PSoC6\pdl\drivers\peripheral\sysclk/cy_sysclk.c **** * Manually configures a PLL based on user inputs.
 800:Generated_Source\PSoC6\pdl\drivers\peripheral\sysclk/cy_sysclk.c **** *
 801:Generated_Source\PSoC6\pdl\drivers\peripheral\sysclk/cy_sysclk.c **** * \param clkPath Selects which PLL to configure. 1 is the first PLL; 0 is invalid.
 802:Generated_Source\PSoC6\pdl\drivers\peripheral\sysclk/cy_sysclk.c **** *
 803:Generated_Source\PSoC6\pdl\drivers\peripheral\sysclk/cy_sysclk.c **** * \param config \ref cy_stc_pll_manual_config_t
 804:Generated_Source\PSoC6\pdl\drivers\peripheral\sysclk/cy_sysclk.c **** *
 805:Generated_Source\PSoC6\pdl\drivers\peripheral\sysclk/cy_sysclk.c **** * \return  Error / status code:<br>
 806:Generated_Source\PSoC6\pdl\drivers\peripheral\sysclk/cy_sysclk.c **** * CY_SYSCLK_SUCCESS - PLL successfully configured<br>
 807:Generated_Source\PSoC6\pdl\drivers\peripheral\sysclk/cy_sysclk.c **** * CY_SYSCLK_INVALID_STATE - PLL not configured because it is enabled<br>
 808:Generated_Source\PSoC6\pdl\drivers\peripheral\sysclk/cy_sysclk.c **** * CY_SYSCLK_BAD_PARAM - invalid clock path number
 809:Generated_Source\PSoC6\pdl\drivers\peripheral\sysclk/cy_sysclk.c **** *
 810:Generated_Source\PSoC6\pdl\drivers\peripheral\sysclk/cy_sysclk.c **** * \note
 811:Generated_Source\PSoC6\pdl\drivers\peripheral\sysclk/cy_sysclk.c **** * Call this function after changing the PLL input frequency, for example if
 812:Generated_Source\PSoC6\pdl\drivers\peripheral\sysclk/cy_sysclk.c **** * \ref Cy_SysClk_ClkPathSetSource() is called.
 813:Generated_Source\PSoC6\pdl\drivers\peripheral\sysclk/cy_sysclk.c **** * \note
 814:Generated_Source\PSoC6\pdl\drivers\peripheral\sysclk/cy_sysclk.c **** * Do not call this function when the PLL is enabled. If it is, then this function
 815:Generated_Source\PSoC6\pdl\drivers\peripheral\sysclk/cy_sysclk.c **** * returns immediately with an error return value and no register updates.
 816:Generated_Source\PSoC6\pdl\drivers\peripheral\sysclk/cy_sysclk.c **** *
 817:Generated_Source\PSoC6\pdl\drivers\peripheral\sysclk/cy_sysclk.c **** * \funcusage
 818:Generated_Source\PSoC6\pdl\drivers\peripheral\sysclk/cy_sysclk.c **** * \snippet sysclk/sysclk_v1_10_sut_01.cydsn/main_cm4.c snippet_Cy_SysClk_PllManualConfigure
 819:Generated_Source\PSoC6\pdl\drivers\peripheral\sysclk/cy_sysclk.c **** *
 820:Generated_Source\PSoC6\pdl\drivers\peripheral\sysclk/cy_sysclk.c **** *******************************************************************************/
 821:Generated_Source\PSoC6\pdl\drivers\peripheral\sysclk/cy_sysclk.c **** cy_en_sysclk_status_t Cy_SysClk_PllManualConfigure(uint32_t clkPath, const cy_stc_pll_manual_config
 822:Generated_Source\PSoC6\pdl\drivers\peripheral\sysclk/cy_sysclk.c **** {
 1424              		.loc 1 822 0
 1425              		.cfi_startproc
 1426              		@ args = 0, pretend = 0, frame = 0
ARM GAS  C:\Users\gjl\AppData\Local\Temp\ccNVysBX.s 			page 57


 1427              		@ frame_needed = 0, uses_anonymous_args = 0
 1428              		@ link register save eliminated.
 1429              	.LVL143:
 1430 0000 30B4     		push	{r4, r5}
 1431              		.cfi_def_cfa_offset 8
 1432              		.cfi_offset 4, -8
 1433              		.cfi_offset 5, -4
 1434              	.LVL144:
 823:Generated_Source\PSoC6\pdl\drivers\peripheral\sysclk/cy_sysclk.c ****     cy_en_sysclk_status_t returnStatus = CY_SYSCLK_SUCCESS;
 824:Generated_Source\PSoC6\pdl\drivers\peripheral\sysclk/cy_sysclk.c **** 
 825:Generated_Source\PSoC6\pdl\drivers\peripheral\sysclk/cy_sysclk.c ****     /* check for errors */
 826:Generated_Source\PSoC6\pdl\drivers\peripheral\sysclk/cy_sysclk.c ****     if ((clkPath == 0ul) || (clkPath > SRSS_NUM_PLL)) /* invalid clock path number */
 1435              		.loc 1 826 0
 1436 0002 0128     		cmp	r0, #1
 1437 0004 1FD1     		bne	.L140
 827:Generated_Source\PSoC6\pdl\drivers\peripheral\sysclk/cy_sysclk.c ****     {
 828:Generated_Source\PSoC6\pdl\drivers\peripheral\sysclk/cy_sysclk.c ****         returnStatus = CY_SYSCLK_BAD_PARAM;
 829:Generated_Source\PSoC6\pdl\drivers\peripheral\sysclk/cy_sysclk.c ****     }
 830:Generated_Source\PSoC6\pdl\drivers\peripheral\sysclk/cy_sysclk.c ****     else if (_FLD2VAL(SRSS_CLK_PLL_CONFIG_ENABLE, SRSS->CLK_PLL_CONFIG[clkPath - 1ul]) != 0u) /* 1 
 1438              		.loc 1 830 0
 1439 0006 00F27F13 		addw	r3, r0, #383
 1440 000a 2C4A     		ldr	r2, .L150
 1441 000c 52F82330 		ldr	r3, [r2, r3, lsl #2]
 1442 0010 002B     		cmp	r3, #0
 1443 0012 1ADB     		blt	.L141
 831:Generated_Source\PSoC6\pdl\drivers\peripheral\sysclk/cy_sysclk.c ****     {
 832:Generated_Source\PSoC6\pdl\drivers\peripheral\sysclk/cy_sysclk.c ****         returnStatus = CY_SYSCLK_INVALID_STATE;
 833:Generated_Source\PSoC6\pdl\drivers\peripheral\sysclk/cy_sysclk.c ****     }
 834:Generated_Source\PSoC6\pdl\drivers\peripheral\sysclk/cy_sysclk.c ****     /* valid divider bitfield values */
 835:Generated_Source\PSoC6\pdl\drivers\peripheral\sysclk/cy_sysclk.c ****     else if ((config->outputDiv    < MIN_OUTPUT_DIV) || (MAX_OUTPUT_DIV < config->outputDiv)    ||
 1444              		.loc 1 835 0
 1445 0014 8B78     		ldrb	r3, [r1, #2]	@ zero_extendqisi2
 1446 0016 023B     		subs	r3, r3, #2
 1447 0018 DBB2     		uxtb	r3, r3
 1448 001a 0E2B     		cmp	r3, #14
 1449 001c 17D8     		bhi	.L142
 836:Generated_Source\PSoC6\pdl\drivers\peripheral\sysclk/cy_sysclk.c ****              (config->referenceDiv <    MIN_REF_DIV) || (MAX_REF_DIV    < config->referenceDiv) ||
 1450              		.loc 1 836 0 discriminator 1
 1451 001e 4B78     		ldrb	r3, [r1, #1]	@ zero_extendqisi2
 835:Generated_Source\PSoC6\pdl\drivers\peripheral\sysclk/cy_sysclk.c ****              (config->referenceDiv <    MIN_REF_DIV) || (MAX_REF_DIV    < config->referenceDiv) ||
 1452              		.loc 1 835 0 discriminator 1
 1453 0020 BBB1     		cbz	r3, .L143
 1454              		.loc 1 836 0
 1455 0022 122B     		cmp	r3, #18
 1456 0024 17D8     		bhi	.L144
 837:Generated_Source\PSoC6\pdl\drivers\peripheral\sysclk/cy_sysclk.c ****              (config->feedbackDiv  < (config->lfMode ? MIN_FB_DIV_LF : MIN_FB_DIV))             ||
 1457              		.loc 1 837 0
 1458 0026 0B78     		ldrb	r3, [r1]	@ zero_extendqisi2
 1459 0028 CA78     		ldrb	r2, [r1, #3]	@ zero_extendqisi2
 1460 002a 0AB1     		cbz	r2, .L145
 1461 002c 1324     		movs	r4, #19
 1462 002e 00E0     		b	.L136
 1463              	.L145:
 1464 0030 1624     		movs	r4, #22
 1465              	.L136:
 836:Generated_Source\PSoC6\pdl\drivers\peripheral\sysclk/cy_sysclk.c ****              (config->referenceDiv <    MIN_REF_DIV) || (MAX_REF_DIV    < config->referenceDiv) ||
 1466              		.loc 1 836 0
ARM GAS  C:\Users\gjl\AppData\Local\Temp\ccNVysBX.s 			page 58


 1467 0032 9C42     		cmp	r4, r3
 1468 0034 11D8     		bhi	.L146
 838:Generated_Source\PSoC6\pdl\drivers\peripheral\sysclk/cy_sysclk.c ****              ((config->lfMode ? MAX_FB_DIV_LF : MAX_FB_DIV) < config->feedbackDiv))
 1469              		.loc 1 838 0
 1470 0036 0AB1     		cbz	r2, .L147
 1471 0038 3822     		movs	r2, #56
 1472 003a 00E0     		b	.L137
 1473              	.L147:
 1474 003c 7022     		movs	r2, #112
 1475              	.L137:
 837:Generated_Source\PSoC6\pdl\drivers\peripheral\sysclk/cy_sysclk.c ****              (config->feedbackDiv  < (config->lfMode ? MIN_FB_DIV_LF : MIN_FB_DIV))             ||
 1476              		.loc 1 837 0 discriminator 4
 1477 003e 9A42     		cmp	r2, r3
 1478 0040 0DD3     		bcc	.L148
 823:Generated_Source\PSoC6\pdl\drivers\peripheral\sysclk/cy_sysclk.c **** 
 1479              		.loc 1 823 0
 1480 0042 0025     		movs	r5, #0
 1481 0044 0CE0     		b	.L135
 1482              	.L140:
 828:Generated_Source\PSoC6\pdl\drivers\peripheral\sysclk/cy_sysclk.c ****     }
 1483              		.loc 1 828 0
 1484 0046 1E4D     		ldr	r5, .L150+4
 1485 0048 0AE0     		b	.L135
 1486              	.L141:
 832:Generated_Source\PSoC6\pdl\drivers\peripheral\sysclk/cy_sysclk.c ****     }
 1487              		.loc 1 832 0
 1488 004a 1E4D     		ldr	r5, .L150+8
 1489 004c 08E0     		b	.L135
 1490              	.L142:
 839:Generated_Source\PSoC6\pdl\drivers\peripheral\sysclk/cy_sysclk.c ****     {
 840:Generated_Source\PSoC6\pdl\drivers\peripheral\sysclk/cy_sysclk.c ****          returnStatus = CY_SYSCLK_BAD_PARAM;
 1491              		.loc 1 840 0
 1492 004e 1C4D     		ldr	r5, .L150+4
 1493 0050 06E0     		b	.L135
 1494              	.L143:
 1495 0052 1B4D     		ldr	r5, .L150+4
 1496 0054 04E0     		b	.L135
 1497              	.L144:
 1498 0056 1A4D     		ldr	r5, .L150+4
 1499 0058 02E0     		b	.L135
 1500              	.L146:
 1501 005a 194D     		ldr	r5, .L150+4
 1502 005c 00E0     		b	.L135
 1503              	.L148:
 1504 005e 184D     		ldr	r5, .L150+4
 1505              	.L135:
 1506              	.LVL145:
 841:Generated_Source\PSoC6\pdl\drivers\peripheral\sysclk/cy_sysclk.c ****     }
 842:Generated_Source\PSoC6\pdl\drivers\peripheral\sysclk/cy_sysclk.c ****     else
 843:Generated_Source\PSoC6\pdl\drivers\peripheral\sysclk/cy_sysclk.c ****     { /* returnStatus is OK */
 844:Generated_Source\PSoC6\pdl\drivers\peripheral\sysclk/cy_sysclk.c ****     }
 845:Generated_Source\PSoC6\pdl\drivers\peripheral\sysclk/cy_sysclk.c **** 
 846:Generated_Source\PSoC6\pdl\drivers\peripheral\sysclk/cy_sysclk.c ****     /* no errors */
 847:Generated_Source\PSoC6\pdl\drivers\peripheral\sysclk/cy_sysclk.c ****     if (returnStatus == CY_SYSCLK_SUCCESS)
 1507              		.loc 1 847 0
 1508 0060 45BB     		cbnz	r5, .L138
 848:Generated_Source\PSoC6\pdl\drivers\peripheral\sysclk/cy_sysclk.c ****     {
ARM GAS  C:\Users\gjl\AppData\Local\Temp\ccNVysBX.s 			page 59


 849:Generated_Source\PSoC6\pdl\drivers\peripheral\sysclk/cy_sysclk.c ****         clkPath--; /* to correctly access PLL config registers structure */
 1509              		.loc 1 849 0
 1510 0062 431E     		subs	r3, r0, #1
 1511              	.LVL146:
 850:Generated_Source\PSoC6\pdl\drivers\peripheral\sysclk/cy_sysclk.c ****         /* If output mode is bypass (input routed directly to output), then done.
 851:Generated_Source\PSoC6\pdl\drivers\peripheral\sysclk/cy_sysclk.c ****            The output frequency equals the input frequency regardless of the frequency parameters. 
 852:Generated_Source\PSoC6\pdl\drivers\peripheral\sysclk/cy_sysclk.c ****         if (config->outputMode != CY_SYSCLK_FLLPLL_OUTPUT_INPUT)
 1512              		.loc 1 852 0
 1513 0064 0A79     		ldrb	r2, [r1, #4]	@ zero_extendqisi2
 1514 0066 022A     		cmp	r2, #2
 1515 0068 16D0     		beq	.L139
 853:Generated_Source\PSoC6\pdl\drivers\peripheral\sysclk/cy_sysclk.c ****         {
 854:Generated_Source\PSoC6\pdl\drivers\peripheral\sysclk/cy_sysclk.c ****             SRSS->CLK_PLL_CONFIG[clkPath] =
 855:Generated_Source\PSoC6\pdl\drivers\peripheral\sysclk/cy_sysclk.c ****                 _VAL2FLD(SRSS_CLK_PLL_CONFIG_FEEDBACK_DIV,  (uint32_t)(config->feedbackDiv))  |
 1516              		.loc 1 855 0
 1517 006a 0C78     		ldrb	r4, [r1]	@ zero_extendqisi2
 1518 006c 04F07F04 		and	r4, r4, #127
 856:Generated_Source\PSoC6\pdl\drivers\peripheral\sysclk/cy_sysclk.c ****                 _VAL2FLD(SRSS_CLK_PLL_CONFIG_REFERENCE_DIV, (uint32_t)(config->referenceDiv)) |
 1519              		.loc 1 856 0
 1520 0070 4A78     		ldrb	r2, [r1, #1]	@ zero_extendqisi2
 1521 0072 1202     		lsls	r2, r2, #8
 1522 0074 02F4F852 		and	r2, r2, #7936
 855:Generated_Source\PSoC6\pdl\drivers\peripheral\sysclk/cy_sysclk.c ****                 _VAL2FLD(SRSS_CLK_PLL_CONFIG_REFERENCE_DIV, (uint32_t)(config->referenceDiv)) |
 1523              		.loc 1 855 0
 1524 0078 1443     		orrs	r4, r4, r2
 857:Generated_Source\PSoC6\pdl\drivers\peripheral\sysclk/cy_sysclk.c ****                 _VAL2FLD(SRSS_CLK_PLL_CONFIG_OUTPUT_DIV,    (uint32_t)(config->outputDiv))    |
 1525              		.loc 1 857 0
 1526 007a 8A78     		ldrb	r2, [r1, #2]	@ zero_extendqisi2
 1527 007c 1204     		lsls	r2, r2, #16
 1528 007e 02F4F812 		and	r2, r2, #2031616
 856:Generated_Source\PSoC6\pdl\drivers\peripheral\sysclk/cy_sysclk.c ****                 _VAL2FLD(SRSS_CLK_PLL_CONFIG_REFERENCE_DIV, (uint32_t)(config->referenceDiv)) |
 1529              		.loc 1 856 0
 1530 0082 1443     		orrs	r4, r4, r2
 858:Generated_Source\PSoC6\pdl\drivers\peripheral\sysclk/cy_sysclk.c ****                 _VAL2FLD(SRSS_CLK_PLL_CONFIG_PLL_LF_MODE,   (uint32_t)(config->lfMode));
 1531              		.loc 1 858 0
 1532 0084 CA78     		ldrb	r2, [r1, #3]	@ zero_extendqisi2
 1533 0086 D206     		lsls	r2, r2, #27
 1534 0088 02F00062 		and	r2, r2, #134217728
 857:Generated_Source\PSoC6\pdl\drivers\peripheral\sysclk/cy_sysclk.c ****                 _VAL2FLD(SRSS_CLK_PLL_CONFIG_OUTPUT_DIV,    (uint32_t)(config->outputDiv))    |
 1535              		.loc 1 857 0
 1536 008c 2243     		orrs	r2, r2, r4
 854:Generated_Source\PSoC6\pdl\drivers\peripheral\sysclk/cy_sysclk.c ****                 _VAL2FLD(SRSS_CLK_PLL_CONFIG_FEEDBACK_DIV,  (uint32_t)(config->feedbackDiv))  |
 1537              		.loc 1 854 0
 1538 008e 03F5C070 		add	r0, r3, #384
 1539 0092 0A4C     		ldr	r4, .L150
 1540 0094 44F82020 		str	r2, [r4, r0, lsl #2]
 1541              	.L139:
 859:Generated_Source\PSoC6\pdl\drivers\peripheral\sysclk/cy_sysclk.c ****         }
 860:Generated_Source\PSoC6\pdl\drivers\peripheral\sysclk/cy_sysclk.c **** 
 861:Generated_Source\PSoC6\pdl\drivers\peripheral\sysclk/cy_sysclk.c ****         CY_SYSCLK_CLR_SET(SRSS->CLK_PLL_CONFIG[clkPath], SRSS_CLK_PLL_CONFIG_BYPASS_SEL, (uint32_t)
 1542              		.loc 1 861 0
 1543 0098 084C     		ldr	r4, .L150
 1544 009a 03F5C073 		add	r3, r3, #384
 1545              	.LVL147:
 1546 009e 54F82320 		ldr	r2, [r4, r3, lsl #2]
 1547 00a2 22F04050 		bic	r0, r2, #805306368
 1548 00a6 0A79     		ldrb	r2, [r1, #4]	@ zero_extendqisi2
ARM GAS  C:\Users\gjl\AppData\Local\Temp\ccNVysBX.s 			page 60


 1549 00a8 1207     		lsls	r2, r2, #28
 1550 00aa 02F04052 		and	r2, r2, #805306368
 1551 00ae 0243     		orrs	r2, r2, r0
 1552 00b0 44F82320 		str	r2, [r4, r3, lsl #2]
 1553              	.LVL148:
 1554              	.L138:
 862:Generated_Source\PSoC6\pdl\drivers\peripheral\sysclk/cy_sysclk.c ****     } /* if no error */
 863:Generated_Source\PSoC6\pdl\drivers\peripheral\sysclk/cy_sysclk.c **** 
 864:Generated_Source\PSoC6\pdl\drivers\peripheral\sysclk/cy_sysclk.c ****     return (returnStatus);
 865:Generated_Source\PSoC6\pdl\drivers\peripheral\sysclk/cy_sysclk.c **** }
 1555              		.loc 1 865 0
 1556 00b4 2846     		mov	r0, r5
 1557 00b6 30BC     		pop	{r4, r5}
 1558              		.cfi_restore 5
 1559              		.cfi_restore 4
 1560              		.cfi_def_cfa_offset 0
 1561              	.LVL149:
 1562 00b8 7047     		bx	lr
 1563              	.L151:
 1564 00ba 00BF     		.align	2
 1565              	.L150:
 1566 00bc 00002640 		.word	1076232192
 1567 00c0 01004A00 		.word	4849665
 1568 00c4 03004A00 		.word	4849667
 1569              		.cfi_endproc
 1570              	.LFE224:
 1571              		.size	Cy_SysClk_PllManualConfigure, .-Cy_SysClk_PllManualConfigure
 1572              		.global	__aeabi_uldivmod
 1573              		.section	.text.Cy_SysClk_PllConfigure,"ax",%progbits
 1574              		.align	2
 1575              		.global	Cy_SysClk_PllConfigure
 1576              		.thumb
 1577              		.thumb_func
 1578              		.type	Cy_SysClk_PllConfigure, %function
 1579              	Cy_SysClk_PllConfigure:
 1580              	.LFB223:
 709:Generated_Source\PSoC6\pdl\drivers\peripheral\sysclk/cy_sysclk.c ****     cy_en_sysclk_status_t returnStatus = CY_SYSCLK_SUCCESS;
 1581              		.loc 1 709 0
 1582              		.cfi_startproc
 1583              		@ args = 0, pretend = 0, frame = 8
 1584              		@ frame_needed = 0, uses_anonymous_args = 0
 1585              	.LVL150:
 1586 0000 2DE9F04F 		push	{r4, r5, r6, r7, r8, r9, r10, fp, lr}
 1587              		.cfi_def_cfa_offset 36
 1588              		.cfi_offset 4, -36
 1589              		.cfi_offset 5, -32
 1590              		.cfi_offset 6, -28
 1591              		.cfi_offset 7, -24
 1592              		.cfi_offset 8, -20
 1593              		.cfi_offset 9, -16
 1594              		.cfi_offset 10, -12
 1595              		.cfi_offset 11, -8
 1596              		.cfi_offset 14, -4
 1597 0004 83B0     		sub	sp, sp, #12
 1598              		.cfi_def_cfa_offset 48
 1599 0006 8246     		mov	r10, r0
 1600              	.LVL151:
ARM GAS  C:\Users\gjl\AppData\Local\Temp\ccNVysBX.s 			page 61


 713:Generated_Source\PSoC6\pdl\drivers\peripheral\sysclk/cy_sysclk.c ****     {
 1601              		.loc 1 713 0
 1602 0008 0128     		cmp	r0, #1
 1603 000a 1BD1     		bne	.L170
 717:Generated_Source\PSoC6\pdl\drivers\peripheral\sysclk/cy_sysclk.c ****     {
 1604              		.loc 1 717 0
 1605 000c 00F27F13 		addw	r3, r0, #383
 1606 0010 4B4A     		ldr	r2, .L183
 1607 0012 52F82330 		ldr	r3, [r2, r3, lsl #2]
 1608 0016 002B     		cmp	r3, #0
 1609 0018 16DB     		blt	.L171
 722:Generated_Source\PSoC6\pdl\drivers\peripheral\sysclk/cy_sysclk.c ****     {
 1610              		.loc 1 722 0
 1611 001a 0B68     		ldr	r3, [r1]
 1612 001c A3F57413 		sub	r3, r3, #3997696
 1613 0020 A3F51063 		sub	r3, r3, #2304
 1614 0024 474A     		ldr	r2, .L183+4
 1615 0026 9342     		cmp	r3, r2
 1616 0028 10D8     		bhi	.L172
 727:Generated_Source\PSoC6\pdl\drivers\peripheral\sysclk/cy_sysclk.c ****     {
 1617              		.loc 1 727 0
 1618 002a 4B68     		ldr	r3, [r1, #4]
 1619 002c 0A7A     		ldrb	r2, [r1, #8]	@ zero_extendqisi2
 1620 002e 0AB1     		cbz	r2, .L173
 1621 0030 454A     		ldr	r2, .L183+8
 1622 0032 00E0     		b	.L154
 1623              	.L173:
 1624 0034 454A     		ldr	r2, .L183+12
 1625              	.L154:
 727:Generated_Source\PSoC6\pdl\drivers\peripheral\sysclk/cy_sysclk.c ****     {
 1626              		.loc 1 727 0 is_stmt 0 discriminator 4
 1627 0036 9A42     		cmp	r2, r3
 1628 0038 0AD8     		bhi	.L174
 727:Generated_Source\PSoC6\pdl\drivers\peripheral\sysclk/cy_sysclk.c ****     {
 1629              		.loc 1 727 0 discriminator 5
 1630 003a 454A     		ldr	r2, .L183+16
 1631 003c 9342     		cmp	r3, r2
 1632 003e 09D8     		bhi	.L175
 710:Generated_Source\PSoC6\pdl\drivers\peripheral\sysclk/cy_sysclk.c **** 
 1633              		.loc 1 710 0 is_stmt 1
 1634 0040 0020     		movs	r0, #0
 1635              	.LVL152:
 1636 0042 08E0     		b	.L153
 1637              	.LVL153:
 1638              	.L170:
 715:Generated_Source\PSoC6\pdl\drivers\peripheral\sysclk/cy_sysclk.c ****     }
 1639              		.loc 1 715 0
 1640 0044 4348     		ldr	r0, .L183+20
 1641              	.LVL154:
 1642 0046 06E0     		b	.L153
 1643              	.LVL155:
 1644              	.L171:
 719:Generated_Source\PSoC6\pdl\drivers\peripheral\sysclk/cy_sysclk.c ****     }
 1645              		.loc 1 719 0
 1646 0048 4348     		ldr	r0, .L183+24
 1647              	.LVL156:
 1648 004a 04E0     		b	.L153
ARM GAS  C:\Users\gjl\AppData\Local\Temp\ccNVysBX.s 			page 62


 1649              	.LVL157:
 1650              	.L172:
 724:Generated_Source\PSoC6\pdl\drivers\peripheral\sysclk/cy_sysclk.c ****     }
 1651              		.loc 1 724 0
 1652 004c 4148     		ldr	r0, .L183+20
 1653              	.LVL158:
 1654 004e 02E0     		b	.L153
 1655              	.LVL159:
 1656              	.L174:
 729:Generated_Source\PSoC6\pdl\drivers\peripheral\sysclk/cy_sysclk.c ****     }
 1657              		.loc 1 729 0
 1658 0050 4048     		ldr	r0, .L183+20
 1659              	.LVL160:
 1660 0052 00E0     		b	.L153
 1661              	.LVL161:
 1662              	.L175:
 1663 0054 3F48     		ldr	r0, .L183+20
 1664              	.LVL162:
 1665              	.L153:
 736:Generated_Source\PSoC6\pdl\drivers\peripheral\sysclk/cy_sysclk.c ****     {
 1666              		.loc 1 736 0
 1667 0056 0028     		cmp	r0, #0
 1668 0058 6ED1     		bne	.L155
 1669 005a 8846     		mov	r8, r1
 1670              	.LBB39:
 739:Generated_Source\PSoC6\pdl\drivers\peripheral\sysclk/cy_sysclk.c ****         manualConfig.referenceDiv = 0ul;
 1671              		.loc 1 739 0
 1672 005c 0023     		movs	r3, #0
 1673 005e 8DF80030 		strb	r3, [sp]
 740:Generated_Source\PSoC6\pdl\drivers\peripheral\sysclk/cy_sysclk.c ****         manualConfig.outputDiv = 0ul;
 1674              		.loc 1 740 0
 1675 0062 8DF80130 		strb	r3, [sp, #1]
 741:Generated_Source\PSoC6\pdl\drivers\peripheral\sysclk/cy_sysclk.c **** 
 1676              		.loc 1 741 0
 1677 0066 8DF80230 		strb	r3, [sp, #2]
 746:Generated_Source\PSoC6\pdl\drivers\peripheral\sysclk/cy_sysclk.c ****         {
 1678              		.loc 1 746 0
 1679 006a 91F809B0 		ldrb	fp, [r1, #9]	@ zero_extendqisi2
 1680 006e BBF1020F 		cmp	fp, #2
 1681 0072 4FD1     		bne	.L176
 1682              	.LBB40:
 1683 0074 56E0     		b	.L157
 1684              	.LVL163:
 1685              	.L169:
 758:Generated_Source\PSoC6\pdl\drivers\peripheral\sysclk/cy_sysclk.c ****                 {
 1686              		.loc 1 758 0
 1687 0076 98F80890 		ldrb	r9, [r8, #8]	@ zero_extendqisi2
 1688 007a B9F1000F 		cmp	r9, #0
 1689 007e 01D0     		beq	.L177
 1690 0080 1325     		movs	r5, #19
 1691 0082 3BE0     		b	.L159
 1692              	.L177:
 1693 0084 1625     		movs	r5, #22
 1694 0086 39E0     		b	.L159
 1695              	.LVL164:
 1696              	.L168:
 1697              	.LBB41:
ARM GAS  C:\Users\gjl\AppData\Local\Temp\ccNVysBX.s 			page 63


 761:Generated_Source\PSoC6\pdl\drivers\peripheral\sysclk/cy_sysclk.c ****                     if ((MIN_FVCO <= fvco) && (fvco <= MAX_FVCO))
 1698              		.loc 1 761 0
 1699 0088 D8F80000 		ldr	r0, [r8]
 1700 008c 3A46     		mov	r2, r7
 1701 008e 0023     		movs	r3, #0
 1702 0090 A0FB0501 		umull	r0, r1, r0, r5
 1703 0094 FFF7FEFF 		bl	__aeabi_uldivmod
 1704              	.LVL165:
 762:Generated_Source\PSoC6\pdl\drivers\peripheral\sysclk/cy_sysclk.c ****                     {
 1705              		.loc 1 762 0
 1706 0098 B9F1000F 		cmp	r9, #0
 1707 009c 01D0     		beq	.L178
 1708 009e 2F4B     		ldr	r3, .L183+28
 1709 00a0 00E0     		b	.L160
 1710              	.L178:
 1711 00a2 2F4B     		ldr	r3, .L183+32
 1712              	.L160:
 762:Generated_Source\PSoC6\pdl\drivers\peripheral\sysclk/cy_sysclk.c ****                     {
 1713              		.loc 1 762 0 is_stmt 0 discriminator 4
 1714 00a4 8342     		cmp	r3, r0
 1715 00a6 28D8     		bhi	.L161
 762:Generated_Source\PSoC6\pdl\drivers\peripheral\sysclk/cy_sysclk.c ****                     {
 1716              		.loc 1 762 0 discriminator 5
 1717 00a8 B9F1000F 		cmp	r9, #0
 1718 00ac 01D0     		beq	.L179
 762:Generated_Source\PSoC6\pdl\drivers\peripheral\sysclk/cy_sysclk.c ****                     {
 1719              		.loc 1 762 0
 1720 00ae 2C4B     		ldr	r3, .L183+32
 1721 00b0 00E0     		b	.L162
 1722              	.L179:
 1723 00b2 2C4B     		ldr	r3, .L183+36
 1724              	.L162:
 762:Generated_Source\PSoC6\pdl\drivers\peripheral\sysclk/cy_sysclk.c ****                     {
 1725              		.loc 1 762 0 discriminator 9
 1726 00b4 8342     		cmp	r3, r0
 1727 00b6 1BD2     		bcs	.L180
 1728 00b8 1FE0     		b	.L161
 1729              	.LVL166:
 1730              	.L165:
 1731              	.LBB42:
 769:Generated_Source\PSoC6\pdl\drivers\peripheral\sysclk/cy_sysclk.c ****                             if ((uint32_t)abs((int32_t)fout - (int32_t)(config->outputFreq)) <
 1732              		.loc 1 769 0 is_stmt 1
 1733 00ba D8F80030 		ldr	r3, [r8]
 1734 00be 03FB05F3 		mul	r3, r3, r5
 1735 00c2 B3FBF7F3 		udiv	r3, r3, r7
 1736 00c6 B3FBF2F3 		udiv	r3, r3, r2
 1737              	.LVL167:
 770:Generated_Source\PSoC6\pdl\drivers\peripheral\sysclk/cy_sysclk.c ****                                 (uint32_t)abs((int32_t)foutBest - (int32_t)(config->outputFreq)))
 1738              		.loc 1 770 0
 1739 00ca 181B     		subs	r0, r3, r4
 1740 00cc 0028     		cmp	r0, #0
 1741 00ce B8BF     		it	lt
 1742 00d0 4042     		rsblt	r0, r0, #0
 771:Generated_Source\PSoC6\pdl\drivers\peripheral\sysclk/cy_sysclk.c ****                             {
 1743              		.loc 1 771 0
 1744 00d2 311B     		subs	r1, r6, r4
 1745 00d4 0029     		cmp	r1, #0
ARM GAS  C:\Users\gjl\AppData\Local\Temp\ccNVysBX.s 			page 64


 1746 00d6 B8BF     		it	lt
 1747 00d8 4942     		rsblt	r1, r1, #0
 770:Generated_Source\PSoC6\pdl\drivers\peripheral\sysclk/cy_sysclk.c ****                                 (uint32_t)abs((int32_t)foutBest - (int32_t)(config->outputFreq)))
 1748              		.loc 1 770 0
 1749 00da 8842     		cmp	r0, r1
 1750 00dc 06D2     		bcs	.L164
 1751              	.LVL168:
 774:Generated_Source\PSoC6\pdl\drivers\peripheral\sysclk/cy_sysclk.c ****                                 manualConfig.referenceDiv = q;
 1752              		.loc 1 774 0
 1753 00de 8DF80050 		strb	r5, [sp]
 775:Generated_Source\PSoC6\pdl\drivers\peripheral\sysclk/cy_sysclk.c ****                                 manualConfig.outputDiv    = out;
 1754              		.loc 1 775 0
 1755 00e2 8DF80170 		strb	r7, [sp, #1]
 776:Generated_Source\PSoC6\pdl\drivers\peripheral\sysclk/cy_sysclk.c ****                             }
 1756              		.loc 1 776 0
 1757 00e6 8DF80220 		strb	r2, [sp, #2]
 773:Generated_Source\PSoC6\pdl\drivers\peripheral\sysclk/cy_sysclk.c ****                                 manualConfig.feedbackDiv  = p;
 1758              		.loc 1 773 0
 1759 00ea 1E46     		mov	r6, r3
 1760              	.LVL169:
 1761              	.L164:
 1762              	.LBE42:
 765:Generated_Source\PSoC6\pdl\drivers\peripheral\sysclk/cy_sysclk.c ****                         {
 1763              		.loc 1 765 0 discriminator 2
 1764 00ec 0132     		adds	r2, r2, #1
 1765              	.LVL170:
 1766 00ee 00E0     		b	.L163
 1767              	.LVL171:
 1768              	.L180:
 1769 00f0 0222     		movs	r2, #2
 1770              	.LVL172:
 1771              	.L163:
 765:Generated_Source\PSoC6\pdl\drivers\peripheral\sysclk/cy_sysclk.c ****                         {
 1772              		.loc 1 765 0 is_stmt 0 discriminator 1
 1773 00f2 102A     		cmp	r2, #16
 1774 00f4 01D8     		bhi	.L161
 765:Generated_Source\PSoC6\pdl\drivers\peripheral\sysclk/cy_sysclk.c ****                         {
 1775              		.loc 1 765 0 discriminator 3
 1776 00f6 A642     		cmp	r6, r4
 1777 00f8 DFD1     		bne	.L165
 1778              	.LVL173:
 1779              	.L161:
 1780              	.LBE41:
 758:Generated_Source\PSoC6\pdl\drivers\peripheral\sysclk/cy_sysclk.c ****                 {
 1781              		.loc 1 758 0 is_stmt 1 discriminator 6
 1782 00fa 0135     		adds	r5, r5, #1
 1783              	.LVL174:
 1784              	.L159:
 758:Generated_Source\PSoC6\pdl\drivers\peripheral\sysclk/cy_sysclk.c ****                 {
 1785              		.loc 1 758 0 is_stmt 0 discriminator 5
 1786 00fc B9F1000F 		cmp	r9, #0
 1787 0100 01D0     		beq	.L181
 758:Generated_Source\PSoC6\pdl\drivers\peripheral\sysclk/cy_sysclk.c ****                 {
 1788              		.loc 1 758 0
 1789 0102 3823     		movs	r3, #56
 1790 0104 00E0     		b	.L166
 1791              	.L181:
ARM GAS  C:\Users\gjl\AppData\Local\Temp\ccNVysBX.s 			page 65


 1792 0106 7023     		movs	r3, #112
 1793              	.L166:
 758:Generated_Source\PSoC6\pdl\drivers\peripheral\sysclk/cy_sysclk.c ****                 {
 1794              		.loc 1 758 0 discriminator 10
 1795 0108 9D42     		cmp	r5, r3
 1796 010a 01D8     		bhi	.L167
 758:Generated_Source\PSoC6\pdl\drivers\peripheral\sysclk/cy_sysclk.c ****                 {
 1797              		.loc 1 758 0 discriminator 11
 1798 010c A642     		cmp	r6, r4
 1799 010e BBD1     		bne	.L168
 1800              	.L167:
 755:Generated_Source\PSoC6\pdl\drivers\peripheral\sysclk/cy_sysclk.c ****             {
 1801              		.loc 1 755 0 is_stmt 1 discriminator 2
 1802 0110 0137     		adds	r7, r7, #1
 1803              	.LVL175:
 1804 0112 01E0     		b	.L156
 1805              	.LVL176:
 1806              	.L176:
 1807              	.LBE40:
 1808 0114 0026     		movs	r6, #0
 1809 0116 0127     		movs	r7, #1
 1810              	.LVL177:
 1811              	.L156:
 1812              	.LBB43:
 755:Generated_Source\PSoC6\pdl\drivers\peripheral\sysclk/cy_sysclk.c ****             {
 1813              		.loc 1 755 0 is_stmt 0 discriminator 1
 1814 0118 122F     		cmp	r7, #18
 1815 011a 03D8     		bhi	.L157
 755:Generated_Source\PSoC6\pdl\drivers\peripheral\sysclk/cy_sysclk.c ****             {
 1816              		.loc 1 755 0 discriminator 3
 1817 011c D8F80440 		ldr	r4, [r8, #4]
 1818 0120 A642     		cmp	r6, r4
 1819 0122 A8D1     		bne	.L169
 1820              	.LVL178:
 1821              	.L157:
 1822              	.LBE43:
 786:Generated_Source\PSoC6\pdl\drivers\peripheral\sysclk/cy_sysclk.c ****         manualConfig.outputMode = config->outputMode;
 1823              		.loc 1 786 0 is_stmt 1
 1824 0124 98F80830 		ldrb	r3, [r8, #8]	@ zero_extendqisi2
 1825 0128 8DF80330 		strb	r3, [sp, #3]
 787:Generated_Source\PSoC6\pdl\drivers\peripheral\sysclk/cy_sysclk.c ****         returnStatus = Cy_SysClk_PllManualConfigure(clkPath, &manualConfig);
 1826              		.loc 1 787 0
 1827 012c 8DF804B0 		strb	fp, [sp, #4]
 788:Generated_Source\PSoC6\pdl\drivers\peripheral\sysclk/cy_sysclk.c **** 
 1828              		.loc 1 788 0
 1829 0130 6946     		mov	r1, sp
 1830 0132 5046     		mov	r0, r10
 1831 0134 FFF7FEFF 		bl	Cy_SysClk_PllManualConfigure
 1832              	.LVL179:
 1833              	.L155:
 1834              	.LBE39:
 793:Generated_Source\PSoC6\pdl\drivers\peripheral\sysclk/cy_sysclk.c **** 
 1835              		.loc 1 793 0
 1836 0138 03B0     		add	sp, sp, #12
 1837              		.cfi_def_cfa_offset 36
 1838              		@ sp needed
 1839 013a BDE8F08F 		pop	{r4, r5, r6, r7, r8, r9, r10, fp, pc}
ARM GAS  C:\Users\gjl\AppData\Local\Temp\ccNVysBX.s 			page 66


 1840              	.LVL180:
 1841              	.L184:
 1842 013e 00BF     		.align	2
 1843              	.L183:
 1844 0140 00002640 		.word	1076232192
 1845 0144 00879303 		.word	60000000
 1846 0148 E81FA200 		.word	10625000
 1847 014c 20BCBE00 		.word	12500000
 1848 0150 80D1F008 		.word	150000000
 1849 0154 01004A00 		.word	4849665
 1850 0158 03004A00 		.word	4849667
 1851 015c 80FE210A 		.word	170000000
 1852 0160 00C2EB0B 		.word	200000000
 1853 0164 0084D717 		.word	400000000
 1854              		.cfi_endproc
 1855              	.LFE223:
 1856              		.size	Cy_SysClk_PllConfigure, .-Cy_SysClk_PllConfigure
 1857              		.section	.text.Cy_SysClk_PllGetConfiguration,"ax",%progbits
 1858              		.align	2
 1859              		.global	Cy_SysClk_PllGetConfiguration
 1860              		.thumb
 1861              		.thumb_func
 1862              		.type	Cy_SysClk_PllGetConfiguration, %function
 1863              	Cy_SysClk_PllGetConfiguration:
 1864              	.LFB225:
 866:Generated_Source\PSoC6\pdl\drivers\peripheral\sysclk/cy_sysclk.c **** 
 867:Generated_Source\PSoC6\pdl\drivers\peripheral\sysclk/cy_sysclk.c **** /*******************************************************************************
 868:Generated_Source\PSoC6\pdl\drivers\peripheral\sysclk/cy_sysclk.c **** * Function Name: Cy_SysClk_PllGetConfiguration
 869:Generated_Source\PSoC6\pdl\drivers\peripheral\sysclk/cy_sysclk.c **** ****************************************************************************//**
 870:Generated_Source\PSoC6\pdl\drivers\peripheral\sysclk/cy_sysclk.c **** *
 871:Generated_Source\PSoC6\pdl\drivers\peripheral\sysclk/cy_sysclk.c **** * Reports configuration settings for a PLL.
 872:Generated_Source\PSoC6\pdl\drivers\peripheral\sysclk/cy_sysclk.c **** *
 873:Generated_Source\PSoC6\pdl\drivers\peripheral\sysclk/cy_sysclk.c **** * \param clkPath Selects which PLL to report. 1 is the first PLL; 0 is invalid.
 874:Generated_Source\PSoC6\pdl\drivers\peripheral\sysclk/cy_sysclk.c **** *
 875:Generated_Source\PSoC6\pdl\drivers\peripheral\sysclk/cy_sysclk.c **** * \param config \ref cy_stc_pll_manual_config_t
 876:Generated_Source\PSoC6\pdl\drivers\peripheral\sysclk/cy_sysclk.c **** *
 877:Generated_Source\PSoC6\pdl\drivers\peripheral\sysclk/cy_sysclk.c **** * \return  Error / status code:<br>
 878:Generated_Source\PSoC6\pdl\drivers\peripheral\sysclk/cy_sysclk.c **** * CY_SYSCLK_SUCCESS - PLL data successfully reported<br>
 879:Generated_Source\PSoC6\pdl\drivers\peripheral\sysclk/cy_sysclk.c **** * CY_SYSCLK_BAD_PARAM - invalid clock path number
 880:Generated_Source\PSoC6\pdl\drivers\peripheral\sysclk/cy_sysclk.c **** *
 881:Generated_Source\PSoC6\pdl\drivers\peripheral\sysclk/cy_sysclk.c **** * \funcusage
 882:Generated_Source\PSoC6\pdl\drivers\peripheral\sysclk/cy_sysclk.c **** * \snippet sysclk/sysclk_v1_10_sut_01.cydsn/main_cm4.c snippet_Cy_SysClk_PllGetConfiguration
 883:Generated_Source\PSoC6\pdl\drivers\peripheral\sysclk/cy_sysclk.c **** *
 884:Generated_Source\PSoC6\pdl\drivers\peripheral\sysclk/cy_sysclk.c **** *******************************************************************************/
 885:Generated_Source\PSoC6\pdl\drivers\peripheral\sysclk/cy_sysclk.c **** cy_en_sysclk_status_t Cy_SysClk_PllGetConfiguration(uint32_t clkPath, cy_stc_pll_manual_config_t *c
 886:Generated_Source\PSoC6\pdl\drivers\peripheral\sysclk/cy_sysclk.c **** {
 1865              		.loc 1 886 0
 1866              		.cfi_startproc
 1867              		@ args = 0, pretend = 0, frame = 0
 1868              		@ frame_needed = 0, uses_anonymous_args = 0
 1869              		@ link register save eliminated.
 1870              	.LVL181:
 887:Generated_Source\PSoC6\pdl\drivers\peripheral\sysclk/cy_sysclk.c ****     cy_en_sysclk_status_t rtnval = CY_SYSCLK_BAD_PARAM;
 888:Generated_Source\PSoC6\pdl\drivers\peripheral\sysclk/cy_sysclk.c ****     if ((clkPath != 0ul) && (clkPath <= SRSS_NUM_PLL))
 1871              		.loc 1 888 0
 1872 0000 0128     		cmp	r0, #1
 1873 0002 18D1     		bne	.L187
ARM GAS  C:\Users\gjl\AppData\Local\Temp\ccNVysBX.s 			page 67


 1874              	.LBB44:
 889:Generated_Source\PSoC6\pdl\drivers\peripheral\sysclk/cy_sysclk.c ****     {
 890:Generated_Source\PSoC6\pdl\drivers\peripheral\sysclk/cy_sysclk.c ****         uint32_t tempReg = SRSS->CLK_PLL_CONFIG[clkPath - 1ul];
 1875              		.loc 1 890 0
 1876 0004 00F27F10 		addw	r0, r0, #383
 1877              	.LVL182:
 1878 0008 0C4B     		ldr	r3, .L188
 1879 000a 53F82020 		ldr	r2, [r3, r0, lsl #2]
 1880              	.LVL183:
 891:Generated_Source\PSoC6\pdl\drivers\peripheral\sysclk/cy_sysclk.c ****         config->feedbackDiv  = (uint8_t)_FLD2VAL(SRSS_CLK_PLL_CONFIG_FEEDBACK_DIV, tempReg);
 1881              		.loc 1 891 0
 1882 000e 02F07F03 		and	r3, r2, #127
 1883 0012 0B70     		strb	r3, [r1]
 892:Generated_Source\PSoC6\pdl\drivers\peripheral\sysclk/cy_sysclk.c ****         config->referenceDiv = (uint8_t)_FLD2VAL(SRSS_CLK_PLL_CONFIG_REFERENCE_DIV, tempReg);
 1884              		.loc 1 892 0
 1885 0014 C2F30423 		ubfx	r3, r2, #8, #5
 1886 0018 4B70     		strb	r3, [r1, #1]
 893:Generated_Source\PSoC6\pdl\drivers\peripheral\sysclk/cy_sysclk.c ****         config->outputDiv    = (uint8_t)_FLD2VAL(SRSS_CLK_PLL_CONFIG_OUTPUT_DIV, tempReg);
 1887              		.loc 1 893 0
 1888 001a 130C     		lsrs	r3, r2, #16
 1889 001c 03F01F00 		and	r0, r3, #31
 1890              	.LVL184:
 1891 0020 8870     		strb	r0, [r1, #2]
 894:Generated_Source\PSoC6\pdl\drivers\peripheral\sysclk/cy_sysclk.c ****         config->lfMode       = (bool)_FLD2VAL(SRSS_CLK_PLL_CONFIG_OUTPUT_DIV, tempReg);
 1892              		.loc 1 894 0
 1893 0022 13F01F03 		ands	r3, r3, #31
 1894 0026 18BF     		it	ne
 1895 0028 0123     		movne	r3, #1
 1896 002a CB70     		strb	r3, [r1, #3]
 895:Generated_Source\PSoC6\pdl\drivers\peripheral\sysclk/cy_sysclk.c ****         config->outputMode   = (cy_en_fll_pll_output_mode_t)_FLD2VAL(SRSS_CLK_PLL_CONFIG_BYPASS_SEL
 1897              		.loc 1 895 0
 1898 002c C2F30172 		ubfx	r2, r2, #28, #2
 1899              	.LVL185:
 1900 0030 0A71     		strb	r2, [r1, #4]
 1901              	.LVL186:
 896:Generated_Source\PSoC6\pdl\drivers\peripheral\sysclk/cy_sysclk.c ****         rtnval = CY_SYSCLK_SUCCESS;
 1902              		.loc 1 896 0
 1903 0032 0020     		movs	r0, #0
 1904 0034 7047     		bx	lr
 1905              	.LVL187:
 1906              	.L187:
 1907              	.LBE44:
 887:Generated_Source\PSoC6\pdl\drivers\peripheral\sysclk/cy_sysclk.c ****     if ((clkPath != 0ul) && (clkPath <= SRSS_NUM_PLL))
 1908              		.loc 1 887 0
 1909 0036 0248     		ldr	r0, .L188+4
 1910              	.LVL188:
 897:Generated_Source\PSoC6\pdl\drivers\peripheral\sysclk/cy_sysclk.c ****     }
 898:Generated_Source\PSoC6\pdl\drivers\peripheral\sysclk/cy_sysclk.c ****     return (rtnval);
 899:Generated_Source\PSoC6\pdl\drivers\peripheral\sysclk/cy_sysclk.c **** }
 1911              		.loc 1 899 0
 1912 0038 7047     		bx	lr
 1913              	.L189:
 1914 003a 00BF     		.align	2
 1915              	.L188:
 1916 003c 00002640 		.word	1076232192
 1917 0040 01004A00 		.word	4849665
 1918              		.cfi_endproc
ARM GAS  C:\Users\gjl\AppData\Local\Temp\ccNVysBX.s 			page 68


 1919              	.LFE225:
 1920              		.size	Cy_SysClk_PllGetConfiguration, .-Cy_SysClk_PllGetConfiguration
 1921              		.section	.text.Cy_SysClk_PllEnable,"ax",%progbits
 1922              		.align	2
 1923              		.global	Cy_SysClk_PllEnable
 1924              		.thumb
 1925              		.thumb_func
 1926              		.type	Cy_SysClk_PllEnable, %function
 1927              	Cy_SysClk_PllEnable:
 1928              	.LFB226:
 900:Generated_Source\PSoC6\pdl\drivers\peripheral\sysclk/cy_sysclk.c **** 
 901:Generated_Source\PSoC6\pdl\drivers\peripheral\sysclk/cy_sysclk.c **** /*******************************************************************************
 902:Generated_Source\PSoC6\pdl\drivers\peripheral\sysclk/cy_sysclk.c **** * Function Name: Cy_SysClk_PllEnable
 903:Generated_Source\PSoC6\pdl\drivers\peripheral\sysclk/cy_sysclk.c **** ****************************************************************************//**
 904:Generated_Source\PSoC6\pdl\drivers\peripheral\sysclk/cy_sysclk.c **** *
 905:Generated_Source\PSoC6\pdl\drivers\peripheral\sysclk/cy_sysclk.c **** * Enables the PLL. The PLL should be configured before calling this function.
 906:Generated_Source\PSoC6\pdl\drivers\peripheral\sysclk/cy_sysclk.c **** *
 907:Generated_Source\PSoC6\pdl\drivers\peripheral\sysclk/cy_sysclk.c **** * \param clkPath Selects which PLL to enable. 1 is the first PLL; 0 is invalid.
 908:Generated_Source\PSoC6\pdl\drivers\peripheral\sysclk/cy_sysclk.c **** *
 909:Generated_Source\PSoC6\pdl\drivers\peripheral\sysclk/cy_sysclk.c **** * \param timeoutus amount of time in microseconds to wait for the PLL to lock.
 910:Generated_Source\PSoC6\pdl\drivers\peripheral\sysclk/cy_sysclk.c **** * If lock doesn't occur, PLL is stopped. To avoid waiting for lock set this to 0,
 911:Generated_Source\PSoC6\pdl\drivers\peripheral\sysclk/cy_sysclk.c **** * and manually check for lock using \ref Cy_SysClk_PllLocked.
 912:Generated_Source\PSoC6\pdl\drivers\peripheral\sysclk/cy_sysclk.c **** *
 913:Generated_Source\PSoC6\pdl\drivers\peripheral\sysclk/cy_sysclk.c **** * \return Error / status code:<br>
 914:Generated_Source\PSoC6\pdl\drivers\peripheral\sysclk/cy_sysclk.c **** * CY_SYSCLK_SUCCESS - PLL successfully enabled<br>
 915:Generated_Source\PSoC6\pdl\drivers\peripheral\sysclk/cy_sysclk.c **** * CY_SYSCLK_TIMEOUT - Timeout waiting for PLL lock<br>
 916:Generated_Source\PSoC6\pdl\drivers\peripheral\sysclk/cy_sysclk.c **** * CY_SYSCLK_BAD_PARAM - invalid clock path number
 917:Generated_Source\PSoC6\pdl\drivers\peripheral\sysclk/cy_sysclk.c **** *
 918:Generated_Source\PSoC6\pdl\drivers\peripheral\sysclk/cy_sysclk.c **** * \funcusage
 919:Generated_Source\PSoC6\pdl\drivers\peripheral\sysclk/cy_sysclk.c **** * \snippet sysclk/sysclk_v1_10_sut_01.cydsn/main_cm4.c snippet_Cy_SysClk_PllEnable
 920:Generated_Source\PSoC6\pdl\drivers\peripheral\sysclk/cy_sysclk.c **** *
 921:Generated_Source\PSoC6\pdl\drivers\peripheral\sysclk/cy_sysclk.c **** *******************************************************************************/
 922:Generated_Source\PSoC6\pdl\drivers\peripheral\sysclk/cy_sysclk.c **** cy_en_sysclk_status_t Cy_SysClk_PllEnable(uint32_t clkPath, uint32_t timeoutus)
 923:Generated_Source\PSoC6\pdl\drivers\peripheral\sysclk/cy_sysclk.c **** {
 1929              		.loc 1 923 0
 1930              		.cfi_startproc
 1931              		@ args = 0, pretend = 0, frame = 0
 1932              		@ frame_needed = 0, uses_anonymous_args = 0
 1933              	.LVL189:
 924:Generated_Source\PSoC6\pdl\drivers\peripheral\sysclk/cy_sysclk.c ****     cy_en_sysclk_status_t rtnval = CY_SYSCLK_BAD_PARAM;
 925:Generated_Source\PSoC6\pdl\drivers\peripheral\sysclk/cy_sysclk.c ****     if ((clkPath != 0ul) && (clkPath <= SRSS_NUM_PLL))
 1934              		.loc 1 925 0
 1935 0000 0128     		cmp	r0, #1
 1936 0002 1DD1     		bne	.L195
 923:Generated_Source\PSoC6\pdl\drivers\peripheral\sysclk/cy_sysclk.c ****     cy_en_sysclk_status_t rtnval = CY_SYSCLK_BAD_PARAM;
 1937              		.loc 1 923 0
 1938 0004 38B5     		push	{r3, r4, r5, lr}
 1939              		.cfi_def_cfa_offset 16
 1940              		.cfi_offset 3, -16
 1941              		.cfi_offset 4, -12
 1942              		.cfi_offset 5, -8
 1943              		.cfi_offset 14, -4
 1944 0006 0C46     		mov	r4, r1
 926:Generated_Source\PSoC6\pdl\drivers\peripheral\sysclk/cy_sysclk.c ****     {
 927:Generated_Source\PSoC6\pdl\drivers\peripheral\sysclk/cy_sysclk.c ****         clkPath--; /* to correctly access PLL config and status registers structures */
 1945              		.loc 1 927 0
 1946 0008 451E     		subs	r5, r0, #1
ARM GAS  C:\Users\gjl\AppData\Local\Temp\ccNVysBX.s 			page 69


 1947              	.LVL190:
 928:Generated_Source\PSoC6\pdl\drivers\peripheral\sysclk/cy_sysclk.c ****         /* first set the PLL enable bit */
 929:Generated_Source\PSoC6\pdl\drivers\peripheral\sysclk/cy_sysclk.c ****         SRSS->CLK_PLL_CONFIG[clkPath] |= _VAL2FLD(SRSS_CLK_PLL_CONFIG_ENABLE, 1ul); /* 1 = enable *
 1948              		.loc 1 929 0
 1949 000a 0F4A     		ldr	r2, .L198
 1950 000c 00F27F10 		addw	r0, r0, #383
 1951 0010 52F82030 		ldr	r3, [r2, r0, lsl #2]
 1952 0014 43F00043 		orr	r3, r3, #-2147483648
 1953 0018 42F82030 		str	r3, [r2, r0, lsl #2]
 930:Generated_Source\PSoC6\pdl\drivers\peripheral\sysclk/cy_sysclk.c **** 
 931:Generated_Source\PSoC6\pdl\drivers\peripheral\sysclk/cy_sysclk.c ****         /* now do the timeout wait for PLL_STATUS, bit LOCKED */
 932:Generated_Source\PSoC6\pdl\drivers\peripheral\sysclk/cy_sysclk.c ****         for (; (_FLD2VAL(SRSS_CLK_PLL_STATUS_LOCKED, SRSS->CLK_PLL_STATUS[clkPath]) == 0ul) &&
 1954              		.loc 1 932 0
 1955 001c 03E0     		b	.L192
 1956              	.LVL191:
 1957              	.L194:
 933:Generated_Source\PSoC6\pdl\drivers\peripheral\sysclk/cy_sysclk.c ****                (timeoutus != 0ul);
 934:Generated_Source\PSoC6\pdl\drivers\peripheral\sysclk/cy_sysclk.c ****              timeoutus--)
 935:Generated_Source\PSoC6\pdl\drivers\peripheral\sysclk/cy_sysclk.c ****         {
 936:Generated_Source\PSoC6\pdl\drivers\peripheral\sysclk/cy_sysclk.c ****             Cy_SysLib_DelayUs(1u);
 1958              		.loc 1 936 0
 1959 001e 0120     		movs	r0, #1
 1960 0020 FFF7FEFF 		bl	Cy_SysLib_DelayUs
 1961              	.LVL192:
 934:Generated_Source\PSoC6\pdl\drivers\peripheral\sysclk/cy_sysclk.c ****         {
 1962              		.loc 1 934 0
 1963 0024 013C     		subs	r4, r4, #1
 1964              	.LVL193:
 1965              	.L192:
 932:Generated_Source\PSoC6\pdl\drivers\peripheral\sysclk/cy_sysclk.c ****                (timeoutus != 0ul);
 1966              		.loc 1 932 0
 1967 0026 05F5C873 		add	r3, r5, #400
 1968 002a 074A     		ldr	r2, .L198
 1969 002c 52F82330 		ldr	r3, [r2, r3, lsl #2]
 1970 0030 13F0010F 		tst	r3, #1
 1971 0034 01D1     		bne	.L193
 932:Generated_Source\PSoC6\pdl\drivers\peripheral\sysclk/cy_sysclk.c ****                (timeoutus != 0ul);
 1972              		.loc 1 932 0 is_stmt 0 discriminator 1
 1973 0036 002C     		cmp	r4, #0
 1974 0038 F1D1     		bne	.L194
 1975              	.L193:
 937:Generated_Source\PSoC6\pdl\drivers\peripheral\sysclk/cy_sysclk.c ****         }
 938:Generated_Source\PSoC6\pdl\drivers\peripheral\sysclk/cy_sysclk.c ****         rtnval = ((timeoutus == 0ul) ? CY_SYSCLK_TIMEOUT : CY_SYSCLK_SUCCESS);
 1976              		.loc 1 938 0 is_stmt 1
 1977 003a 1CB9     		cbnz	r4, .L196
 1978 003c 0348     		ldr	r0, .L198+4
 1979 003e 38BD     		pop	{r3, r4, r5, pc}
 1980              	.LVL194:
 1981              	.L195:
 1982              		.cfi_def_cfa_offset 0
 1983              		.cfi_restore 3
 1984              		.cfi_restore 4
 1985              		.cfi_restore 5
 1986              		.cfi_restore 14
 924:Generated_Source\PSoC6\pdl\drivers\peripheral\sysclk/cy_sysclk.c ****     if ((clkPath != 0ul) && (clkPath <= SRSS_NUM_PLL))
 1987              		.loc 1 924 0
 1988 0040 0348     		ldr	r0, .L198+8
ARM GAS  C:\Users\gjl\AppData\Local\Temp\ccNVysBX.s 			page 70


 1989              	.LVL195:
 939:Generated_Source\PSoC6\pdl\drivers\peripheral\sysclk/cy_sysclk.c ****     }
 940:Generated_Source\PSoC6\pdl\drivers\peripheral\sysclk/cy_sysclk.c ****     return (rtnval);
 941:Generated_Source\PSoC6\pdl\drivers\peripheral\sysclk/cy_sysclk.c **** }
 1990              		.loc 1 941 0
 1991 0042 7047     		bx	lr
 1992              	.LVL196:
 1993              	.L196:
 1994              		.cfi_def_cfa_offset 16
 1995              		.cfi_offset 3, -16
 1996              		.cfi_offset 4, -12
 1997              		.cfi_offset 5, -8
 1998              		.cfi_offset 14, -4
 938:Generated_Source\PSoC6\pdl\drivers\peripheral\sysclk/cy_sysclk.c ****     }
 1999              		.loc 1 938 0
 2000 0044 0020     		movs	r0, #0
 2001              	.LVL197:
 2002              		.loc 1 941 0
 2003 0046 38BD     		pop	{r3, r4, r5, pc}
 2004              	.LVL198:
 2005              	.L199:
 2006              		.align	2
 2007              	.L198:
 2008 0048 00002640 		.word	1076232192
 2009 004c 02004A00 		.word	4849666
 2010 0050 01004A00 		.word	4849665
 2011              		.cfi_endproc
 2012              	.LFE226:
 2013              		.size	Cy_SysClk_PllEnable, .-Cy_SysClk_PllEnable
 2014              		.section	.text.Cy_SysClk_StartClkMeasurementCounters,"ax",%progbits
 2015              		.align	2
 2016              		.global	Cy_SysClk_StartClkMeasurementCounters
 2017              		.thumb
 2018              		.thumb_func
 2019              		.type	Cy_SysClk_StartClkMeasurementCounters, %function
 2020              	Cy_SysClk_StartClkMeasurementCounters:
 2021              	.LFB227:
 942:Generated_Source\PSoC6\pdl\drivers\peripheral\sysclk/cy_sysclk.c **** /** \} group_sysclk_pll_funcs */
 943:Generated_Source\PSoC6\pdl\drivers\peripheral\sysclk/cy_sysclk.c **** 
 944:Generated_Source\PSoC6\pdl\drivers\peripheral\sysclk/cy_sysclk.c **** 
 945:Generated_Source\PSoC6\pdl\drivers\peripheral\sysclk/cy_sysclk.c **** /* ========================================================================== */
 946:Generated_Source\PSoC6\pdl\drivers\peripheral\sysclk/cy_sysclk.c **** /* ====================    Clock Measurement section    ===================== */
 947:Generated_Source\PSoC6\pdl\drivers\peripheral\sysclk/cy_sysclk.c **** /* ========================================================================== */
 948:Generated_Source\PSoC6\pdl\drivers\peripheral\sysclk/cy_sysclk.c **** 
 949:Generated_Source\PSoC6\pdl\drivers\peripheral\sysclk/cy_sysclk.c **** /* Cy_SysClk_StartClkMeasurementCounters() input parameter saved for use later in other functions. 
 950:Generated_Source\PSoC6\pdl\drivers\peripheral\sysclk/cy_sysclk.c **** static uint32_t clk1Count1;
 951:Generated_Source\PSoC6\pdl\drivers\peripheral\sysclk/cy_sysclk.c **** 
 952:Generated_Source\PSoC6\pdl\drivers\peripheral\sysclk/cy_sysclk.c **** /* These variables act as locks to prevent collisions between clock measurement and entry into
 953:Generated_Source\PSoC6\pdl\drivers\peripheral\sysclk/cy_sysclk.c ****    DeepSleep mode. See Cy_SysClk_DeepSleep(). */
 954:Generated_Source\PSoC6\pdl\drivers\peripheral\sysclk/cy_sysclk.c **** static bool clkCounting = false;
 955:Generated_Source\PSoC6\pdl\drivers\peripheral\sysclk/cy_sysclk.c **** static bool preventCounting = false;
 956:Generated_Source\PSoC6\pdl\drivers\peripheral\sysclk/cy_sysclk.c **** 
 957:Generated_Source\PSoC6\pdl\drivers\peripheral\sysclk/cy_sysclk.c **** /**
 958:Generated_Source\PSoC6\pdl\drivers\peripheral\sysclk/cy_sysclk.c **** * \addtogroup group_sysclk_calclk_funcs
 959:Generated_Source\PSoC6\pdl\drivers\peripheral\sysclk/cy_sysclk.c **** * \{
 960:Generated_Source\PSoC6\pdl\drivers\peripheral\sysclk/cy_sysclk.c **** */
 961:Generated_Source\PSoC6\pdl\drivers\peripheral\sysclk/cy_sysclk.c **** /*******************************************************************************
ARM GAS  C:\Users\gjl\AppData\Local\Temp\ccNVysBX.s 			page 71


 962:Generated_Source\PSoC6\pdl\drivers\peripheral\sysclk/cy_sysclk.c **** * Function Name: Cy_SysClk_StartClkMeasurementCounters
 963:Generated_Source\PSoC6\pdl\drivers\peripheral\sysclk/cy_sysclk.c **** ****************************************************************************//**
 964:Generated_Source\PSoC6\pdl\drivers\peripheral\sysclk/cy_sysclk.c **** *
 965:Generated_Source\PSoC6\pdl\drivers\peripheral\sysclk/cy_sysclk.c **** * Assigns clocks to the clock measurement counters, and starts counting. The counters
 966:Generated_Source\PSoC6\pdl\drivers\peripheral\sysclk/cy_sysclk.c **** * let you measure a clock frequency using another clock as a reference. There are two
 967:Generated_Source\PSoC6\pdl\drivers\peripheral\sysclk/cy_sysclk.c **** * counters.
 968:Generated_Source\PSoC6\pdl\drivers\peripheral\sysclk/cy_sysclk.c **** *
 969:Generated_Source\PSoC6\pdl\drivers\peripheral\sysclk/cy_sysclk.c **** * - One counter (counter1), which is clocked by clock1, is loaded with an initial
 970:Generated_Source\PSoC6\pdl\drivers\peripheral\sysclk/cy_sysclk.c **** *   value and counts down to zero.
 971:Generated_Source\PSoC6\pdl\drivers\peripheral\sysclk/cy_sysclk.c **** * - The second counter (counter2), which is clocked by clock2, counts up until 
 972:Generated_Source\PSoC6\pdl\drivers\peripheral\sysclk/cy_sysclk.c **** *   the first counter reaches zero.
 973:Generated_Source\PSoC6\pdl\drivers\peripheral\sysclk/cy_sysclk.c **** *
 974:Generated_Source\PSoC6\pdl\drivers\peripheral\sysclk/cy_sysclk.c **** * Either clock1 or clock2 can be a reference clock; the other clock becomes the
 975:Generated_Source\PSoC6\pdl\drivers\peripheral\sysclk/cy_sysclk.c **** * measured clock. The reference clock frequency is always known.<br>
 976:Generated_Source\PSoC6\pdl\drivers\peripheral\sysclk/cy_sysclk.c **** * After calling this function, call \ref Cy_SysClk_ClkMeasurementCountersDone()
 977:Generated_Source\PSoC6\pdl\drivers\peripheral\sysclk/cy_sysclk.c **** * to determine when counting is done, that is, counter1 has counted down to zero.
 978:Generated_Source\PSoC6\pdl\drivers\peripheral\sysclk/cy_sysclk.c **** * Then call \ref Cy_SysClk_ClkMeasurementCountersGetFreq() to calculate the frequency
 979:Generated_Source\PSoC6\pdl\drivers\peripheral\sysclk/cy_sysclk.c **** * of the measured clock.
 980:Generated_Source\PSoC6\pdl\drivers\peripheral\sysclk/cy_sysclk.c **** *
 981:Generated_Source\PSoC6\pdl\drivers\peripheral\sysclk/cy_sysclk.c **** * \param clock1 The clock for counter1
 982:Generated_Source\PSoC6\pdl\drivers\peripheral\sysclk/cy_sysclk.c **** *
 983:Generated_Source\PSoC6\pdl\drivers\peripheral\sysclk/cy_sysclk.c **** * \param count1 The initial value for counter1, from which counter1 counts down to zero.
 984:Generated_Source\PSoC6\pdl\drivers\peripheral\sysclk/cy_sysclk.c **** *
 985:Generated_Source\PSoC6\pdl\drivers\peripheral\sysclk/cy_sysclk.c **** * \param clock2 The clock for counter2
 986:Generated_Source\PSoC6\pdl\drivers\peripheral\sysclk/cy_sysclk.c **** *
 987:Generated_Source\PSoC6\pdl\drivers\peripheral\sysclk/cy_sysclk.c **** * \return Error / status code:<br>
 988:Generated_Source\PSoC6\pdl\drivers\peripheral\sysclk/cy_sysclk.c **** * CY_SYSCLK_INVALID_STATE if already doing a measurement<br>
 989:Generated_Source\PSoC6\pdl\drivers\peripheral\sysclk/cy_sysclk.c **** * CY_SYSCLK_BAD_PARAM if invalid clock input parameter<br>
 990:Generated_Source\PSoC6\pdl\drivers\peripheral\sysclk/cy_sysclk.c **** * else CY_SYSCLK_SUCCESS
 991:Generated_Source\PSoC6\pdl\drivers\peripheral\sysclk/cy_sysclk.c **** *
 992:Generated_Source\PSoC6\pdl\drivers\peripheral\sysclk/cy_sysclk.c **** * \note The counters are both 24-bit, so the maximum value of count1 is 0xFFFFFF.
 993:Generated_Source\PSoC6\pdl\drivers\peripheral\sysclk/cy_sysclk.c **** * If clock2 frequency is greater than clock1, make sure that count1 is low enough
 994:Generated_Source\PSoC6\pdl\drivers\peripheral\sysclk/cy_sysclk.c **** * that counter2 does not overflow before counter1 reaches zero.
 995:Generated_Source\PSoC6\pdl\drivers\peripheral\sysclk/cy_sysclk.c **** * \note The time to complete a measurement is count1 / clock1 frequency.
 996:Generated_Source\PSoC6\pdl\drivers\peripheral\sysclk/cy_sysclk.c **** * \note The clocks for both counters must have a nonzero frequency, or
 997:Generated_Source\PSoC6\pdl\drivers\peripheral\sysclk/cy_sysclk.c **** * \ref Cy_SysClk_ClkMeasurementCountersGetFreq() incorrectly reports the result of the
 998:Generated_Source\PSoC6\pdl\drivers\peripheral\sysclk/cy_sysclk.c **** * previous  measurement.
 999:Generated_Source\PSoC6\pdl\drivers\peripheral\sysclk/cy_sysclk.c **** * \note Do not enter a device low power mode (Sleep, Deep Sleep) while doing a measurement;
1000:Generated_Source\PSoC6\pdl\drivers\peripheral\sysclk/cy_sysclk.c **** * the measured clock frequency may not be accurate.
1001:Generated_Source\PSoC6\pdl\drivers\peripheral\sysclk/cy_sysclk.c **** *
1002:Generated_Source\PSoC6\pdl\drivers\peripheral\sysclk/cy_sysclk.c **** * \funcusage
1003:Generated_Source\PSoC6\pdl\drivers\peripheral\sysclk/cy_sysclk.c **** * \snippet sysclk/sysclk_v1_10_sut_01.cydsn/main_cm4.c snippet_Cy_SysClk_StartClkMeasurementCounter
1004:Generated_Source\PSoC6\pdl\drivers\peripheral\sysclk/cy_sysclk.c **** *
1005:Generated_Source\PSoC6\pdl\drivers\peripheral\sysclk/cy_sysclk.c **** *******************************************************************************/
1006:Generated_Source\PSoC6\pdl\drivers\peripheral\sysclk/cy_sysclk.c **** cy_en_sysclk_status_t Cy_SysClk_StartClkMeasurementCounters(cy_en_meas_clks_t clock1, uint32_t coun
1007:Generated_Source\PSoC6\pdl\drivers\peripheral\sysclk/cy_sysclk.c **** {
 2022              		.loc 1 1007 0
 2023              		.cfi_startproc
 2024              		@ args = 0, pretend = 0, frame = 0
 2025              		@ frame_needed = 0, uses_anonymous_args = 0
 2026              		@ link register save eliminated.
 2027              	.LVL199:
1008:Generated_Source\PSoC6\pdl\drivers\peripheral\sysclk/cy_sysclk.c ****     cy_en_sysclk_status_t rtnval = CY_SYSCLK_INVALID_STATE;
1009:Generated_Source\PSoC6\pdl\drivers\peripheral\sysclk/cy_sysclk.c **** 
1010:Generated_Source\PSoC6\pdl\drivers\peripheral\sysclk/cy_sysclk.c ****     if ((!preventCounting) /* don't start a measurement if about to enter DeepSleep mode */  ||
 2028              		.loc 1 1010 0
 2029 0000 5B4B     		ldr	r3, .L217
ARM GAS  C:\Users\gjl\AppData\Local\Temp\ccNVysBX.s 			page 72


 2030 0002 1B78     		ldrb	r3, [r3]	@ zero_extendqisi2
 2031 0004 2BB1     		cbz	r3, .L201
1011:Generated_Source\PSoC6\pdl\drivers\peripheral\sysclk/cy_sysclk.c ****         (_FLD2VAL(SRSS_CLK_CAL_CNT1_CAL_COUNTER_DONE, SRSS->CLK_CAL_CNT1) != 0ul/*1 = done*/))
 2032              		.loc 1 1011 0 discriminator 1
 2033 0006 5B4B     		ldr	r3, .L217+4
 2034 0008 D3F81C35 		ldr	r3, [r3, #1308]
1010:Generated_Source\PSoC6\pdl\drivers\peripheral\sysclk/cy_sysclk.c ****         (_FLD2VAL(SRSS_CLK_CAL_CNT1_CAL_COUNTER_DONE, SRSS->CLK_CAL_CNT1) != 0ul/*1 = done*/))
 2035              		.loc 1 1010 0 discriminator 1
 2036 000c 002B     		cmp	r3, #0
 2037 000e 80F2A580 		bge	.L211
 2038              	.L201:
 2039              	.LVL200:
1012:Generated_Source\PSoC6\pdl\drivers\peripheral\sysclk/cy_sysclk.c ****     {
1013:Generated_Source\PSoC6\pdl\drivers\peripheral\sysclk/cy_sysclk.c ****         /* Connect the indicated clocks to the respective counters.
1014:Generated_Source\PSoC6\pdl\drivers\peripheral\sysclk/cy_sysclk.c **** 
1015:Generated_Source\PSoC6\pdl\drivers\peripheral\sysclk/cy_sysclk.c ****            if clock1 is a slow clock,
1016:Generated_Source\PSoC6\pdl\drivers\peripheral\sysclk/cy_sysclk.c ****              select it in SRSS_CLK_OUTPUT_SLOW.SLOW_SEL0, and SRSS_CLK_OUTPUT_FAST.FAST_SEL0 = SLOW
1017:Generated_Source\PSoC6\pdl\drivers\peripheral\sysclk/cy_sysclk.c ****            else if clock1 is a fast clock,
1018:Generated_Source\PSoC6\pdl\drivers\peripheral\sysclk/cy_sysclk.c ****              select it in SRSS_CLK_OUTPUT_FAST.FAST_SEL0,
1019:Generated_Source\PSoC6\pdl\drivers\peripheral\sysclk/cy_sysclk.c ****            else error, do nothing and return.
1020:Generated_Source\PSoC6\pdl\drivers\peripheral\sysclk/cy_sysclk.c **** 
1021:Generated_Source\PSoC6\pdl\drivers\peripheral\sysclk/cy_sysclk.c ****            if clock2 is a slow clock,
1022:Generated_Source\PSoC6\pdl\drivers\peripheral\sysclk/cy_sysclk.c ****              select it in SRSS_CLK_OUTPUT_SLOW.SLOW_SEL1, and SRSS_CLK_OUTPUT_FAST.FAST_SEL1 = SLOW
1023:Generated_Source\PSoC6\pdl\drivers\peripheral\sysclk/cy_sysclk.c ****            else if clock2 is a fast clock,
1024:Generated_Source\PSoC6\pdl\drivers\peripheral\sysclk/cy_sysclk.c ****              select it in SRSS_CLK_OUTPUT_FAST.FAST_SEL1,
1025:Generated_Source\PSoC6\pdl\drivers\peripheral\sysclk/cy_sysclk.c ****            else error, do nothing and return.
1026:Generated_Source\PSoC6\pdl\drivers\peripheral\sysclk/cy_sysclk.c ****         */
1027:Generated_Source\PSoC6\pdl\drivers\peripheral\sysclk/cy_sysclk.c ****         rtnval = CY_SYSCLK_BAD_PARAM;
1028:Generated_Source\PSoC6\pdl\drivers\peripheral\sysclk/cy_sysclk.c ****         if ((clock1 < CY_SYSCLK_MEAS_CLK_LAST_CLK) && (clock2 < CY_SYSCLK_MEAS_CLK_LAST_CLK) &&
 2040              		.loc 1 1028 0
 2041 0012 B0F5C26F 		cmp	r0, #1552
 2042 0016 80F0A380 		bcs	.L212
 2043              		.loc 1 1028 0 is_stmt 0 discriminator 1
 2044 001a B2F5C26F 		cmp	r2, #1552
 2045 001e 80F0A180 		bcs	.L213
 2046              		.loc 1 1028 0 discriminator 2
 2047 0022 B1F1807F 		cmp	r1, #16777216
 2048 0026 80F09F80 		bcs	.L214
1007:Generated_Source\PSoC6\pdl\drivers\peripheral\sysclk/cy_sysclk.c ****     cy_en_sysclk_status_t rtnval = CY_SYSCLK_INVALID_STATE;
 2049              		.loc 1 1007 0 is_stmt 1
 2050 002a 30B4     		push	{r4, r5}
 2051              		.cfi_def_cfa_offset 8
 2052              		.cfi_offset 4, -8
 2053              		.cfi_offset 5, -4
1029:Generated_Source\PSoC6\pdl\drivers\peripheral\sysclk/cy_sysclk.c ****             (count1 <= (SRSS_CLK_CAL_CNT1_CAL_COUNTER1_Msk >> SRSS_CLK_CAL_CNT1_CAL_COUNTER1_Pos)))
1030:Generated_Source\PSoC6\pdl\drivers\peripheral\sysclk/cy_sysclk.c ****         {
1031:Generated_Source\PSoC6\pdl\drivers\peripheral\sysclk/cy_sysclk.c ****             /* Disallow entry into DeepSleep mode while counting. */
1032:Generated_Source\PSoC6\pdl\drivers\peripheral\sysclk/cy_sysclk.c ****             clkCounting = true;
 2054              		.loc 1 1032 0
 2055 002c 0124     		movs	r4, #1
 2056 002e 504B     		ldr	r3, .L217
 2057 0030 5C70     		strb	r4, [r3, #1]
1033:Generated_Source\PSoC6\pdl\drivers\peripheral\sysclk/cy_sysclk.c **** 
1034:Generated_Source\PSoC6\pdl\drivers\peripheral\sysclk/cy_sysclk.c ****             if (clock1 < CY_SYSCLK_MEAS_CLK_FAST_CLKS)
 2058              		.loc 1 1034 0
 2059 0032 FF28     		cmp	r0, #255
 2060 0034 12D8     		bhi	.L203
ARM GAS  C:\Users\gjl\AppData\Local\Temp\ccNVysBX.s 			page 73


1035:Generated_Source\PSoC6\pdl\drivers\peripheral\sysclk/cy_sysclk.c ****             { /* slow clock */
1036:Generated_Source\PSoC6\pdl\drivers\peripheral\sysclk/cy_sysclk.c ****                 SRSS->CLK_OUTPUT_SLOW = _CLR_SET_FLD32U(SRSS->CLK_OUTPUT_SLOW, SRSS_CLK_OUTPUT_SLOW
 2061              		.loc 1 1036 0
 2062 0036 4F4C     		ldr	r4, .L217+4
 2063 0038 D4F81835 		ldr	r3, [r4, #1304]
 2064 003c 23F00F03 		bic	r3, r3, #15
 2065 0040 00F00F00 		and	r0, r0, #15
 2066              	.LVL201:
 2067 0044 0343     		orrs	r3, r3, r0
 2068 0046 C4F81835 		str	r3, [r4, #1304]
1037:Generated_Source\PSoC6\pdl\drivers\peripheral\sysclk/cy_sysclk.c ****                 SRSS->CLK_OUTPUT_FAST = _CLR_SET_FLD32U(SRSS->CLK_OUTPUT_FAST, SRSS_CLK_OUTPUT_FAST
 2069              		.loc 1 1037 0
 2070 004a D4F81435 		ldr	r3, [r4, #1300]
 2071 004e 23F00F03 		bic	r3, r3, #15
 2072 0052 43F00703 		orr	r3, r3, #7
 2073 0056 C4F81435 		str	r3, [r4, #1300]
 2074 005a 2FE0     		b	.L204
 2075              	.LVL202:
 2076              	.L203:
1038:Generated_Source\PSoC6\pdl\drivers\peripheral\sysclk/cy_sysclk.c ****             }
1039:Generated_Source\PSoC6\pdl\drivers\peripheral\sysclk/cy_sysclk.c ****             else
1040:Generated_Source\PSoC6\pdl\drivers\peripheral\sysclk/cy_sysclk.c ****             { /* fast clock */
1041:Generated_Source\PSoC6\pdl\drivers\peripheral\sysclk/cy_sysclk.c ****                 if (clock1 < CY_SYSCLK_MEAS_CLK_PATH_CLKS)
 2077              		.loc 1 1041 0
 2078 005c B0F5A06F 		cmp	r0, #1280
 2079 0060 0AD2     		bcs	.L205
1042:Generated_Source\PSoC6\pdl\drivers\peripheral\sysclk/cy_sysclk.c ****                 { /* ECO, EXT, ALTHF */
1043:Generated_Source\PSoC6\pdl\drivers\peripheral\sysclk/cy_sysclk.c ****                     SRSS->CLK_OUTPUT_FAST = _CLR_SET_FLD32U(SRSS->CLK_OUTPUT_FAST, SRSS_CLK_OUTPUT_
 2080              		.loc 1 1043 0
 2081 0062 444C     		ldr	r4, .L217+4
 2082 0064 D4F81435 		ldr	r3, [r4, #1300]
 2083 0068 23F00F03 		bic	r3, r3, #15
 2084 006c 00F00F00 		and	r0, r0, #15
 2085              	.LVL203:
 2086 0070 0343     		orrs	r3, r3, r0
 2087 0072 C4F81435 		str	r3, [r4, #1300]
 2088 0076 21E0     		b	.L204
 2089              	.LVL204:
 2090              	.L205:
1044:Generated_Source\PSoC6\pdl\drivers\peripheral\sysclk/cy_sysclk.c ****                 }
1045:Generated_Source\PSoC6\pdl\drivers\peripheral\sysclk/cy_sysclk.c ****                 else
1046:Generated_Source\PSoC6\pdl\drivers\peripheral\sysclk/cy_sysclk.c ****                 { /* PATH or CLKHF */
1047:Generated_Source\PSoC6\pdl\drivers\peripheral\sysclk/cy_sysclk.c ****                     SRSS->CLK_OUTPUT_FAST = _CLR_SET_FLD32U(SRSS->CLK_OUTPUT_FAST, SRSS_CLK_OUTPUT_
 2091              		.loc 1 1047 0
 2092 0078 3E4D     		ldr	r5, .L217+4
 2093 007a D5F81435 		ldr	r3, [r5, #1300]
 2094 007e 23F00F04 		bic	r4, r3, #15
 2095 0082 C0F30323 		ubfx	r3, r0, #8, #4
 2096 0086 2343     		orrs	r3, r3, r4
 2097 0088 C5F81435 		str	r3, [r5, #1300]
1048:Generated_Source\PSoC6\pdl\drivers\peripheral\sysclk/cy_sysclk.c ****                                                             (((uint32_t)clock1 >> 8) & 0x0Ful) /*us
1049:Generated_Source\PSoC6\pdl\drivers\peripheral\sysclk/cy_sysclk.c ****                     if (clock1 < CY_SYSCLK_MEAS_CLK_CLKHFS)
 2098              		.loc 1 1049 0
 2099 008c B0F5C06F 		cmp	r0, #1536
 2100 0090 09D2     		bcs	.L206
1050:Generated_Source\PSoC6\pdl\drivers\peripheral\sysclk/cy_sysclk.c ****                     { /* PATH select */
1051:Generated_Source\PSoC6\pdl\drivers\peripheral\sysclk/cy_sysclk.c ****                         SRSS->CLK_OUTPUT_FAST = _CLR_SET_FLD32U(SRSS->CLK_OUTPUT_FAST, SRSS_CLK_OUT
ARM GAS  C:\Users\gjl\AppData\Local\Temp\ccNVysBX.s 			page 74


 2101              		.loc 1 1051 0
 2102 0092 D5F81435 		ldr	r3, [r5, #1300]
 2103 0096 23F0F004 		bic	r4, r3, #240
 2104 009a 0301     		lsls	r3, r0, #4
 2105 009c DBB2     		uxtb	r3, r3
 2106 009e 2343     		orrs	r3, r3, r4
 2107 00a0 C5F81435 		str	r3, [r5, #1300]
 2108 00a4 0AE0     		b	.L204
 2109              	.L206:
1052:Generated_Source\PSoC6\pdl\drivers\peripheral\sysclk/cy_sysclk.c ****                                                                 ((uint32_t)clock1 & 0x0Ful) /*use e
1053:Generated_Source\PSoC6\pdl\drivers\peripheral\sysclk/cy_sysclk.c ****                     }
1054:Generated_Source\PSoC6\pdl\drivers\peripheral\sysclk/cy_sysclk.c ****                     else
1055:Generated_Source\PSoC6\pdl\drivers\peripheral\sysclk/cy_sysclk.c ****                     { /* CLKHF select */
1056:Generated_Source\PSoC6\pdl\drivers\peripheral\sysclk/cy_sysclk.c ****                         SRSS->CLK_OUTPUT_FAST = _CLR_SET_FLD32U(SRSS->CLK_OUTPUT_FAST, SRSS_CLK_OUT
 2110              		.loc 1 1056 0
 2111 00a6 334D     		ldr	r5, .L217+4
 2112 00a8 D5F81435 		ldr	r3, [r5, #1300]
 2113 00ac 23F47064 		bic	r4, r3, #3840
 2114 00b0 0302     		lsls	r3, r0, #8
 2115 00b2 03F47063 		and	r3, r3, #3840
 2116 00b6 2343     		orrs	r3, r3, r4
 2117 00b8 C5F81435 		str	r3, [r5, #1300]
 2118              	.LVL205:
 2119              	.L204:
1057:Generated_Source\PSoC6\pdl\drivers\peripheral\sysclk/cy_sysclk.c ****                                                                 ((uint32_t)clock1 & 0x0Ful) /*use e
1058:Generated_Source\PSoC6\pdl\drivers\peripheral\sysclk/cy_sysclk.c ****                     }
1059:Generated_Source\PSoC6\pdl\drivers\peripheral\sysclk/cy_sysclk.c ****                 }
1060:Generated_Source\PSoC6\pdl\drivers\peripheral\sysclk/cy_sysclk.c ****             } /* clock1 fast clock */
1061:Generated_Source\PSoC6\pdl\drivers\peripheral\sysclk/cy_sysclk.c **** 
1062:Generated_Source\PSoC6\pdl\drivers\peripheral\sysclk/cy_sysclk.c ****             if (clock2 < CY_SYSCLK_MEAS_CLK_FAST_CLKS)
 2120              		.loc 1 1062 0
 2121 00bc FF2A     		cmp	r2, #255
 2122 00be 12D8     		bhi	.L207
1063:Generated_Source\PSoC6\pdl\drivers\peripheral\sysclk/cy_sysclk.c ****             { /* slow clock */
1064:Generated_Source\PSoC6\pdl\drivers\peripheral\sysclk/cy_sysclk.c ****                 SRSS->CLK_OUTPUT_SLOW = _CLR_SET_FLD32U(SRSS->CLK_OUTPUT_SLOW, SRSS_CLK_OUTPUT_SLOW
 2123              		.loc 1 1064 0
 2124 00c0 2C48     		ldr	r0, .L217+4
 2125 00c2 D0F81835 		ldr	r3, [r0, #1304]
 2126 00c6 23F0F004 		bic	r4, r3, #240
 2127 00ca 1301     		lsls	r3, r2, #4
 2128 00cc DBB2     		uxtb	r3, r3
 2129 00ce 2343     		orrs	r3, r3, r4
 2130 00d0 C0F81835 		str	r3, [r0, #1304]
1065:Generated_Source\PSoC6\pdl\drivers\peripheral\sysclk/cy_sysclk.c ****                 SRSS->CLK_OUTPUT_FAST = _CLR_SET_FLD32U(SRSS->CLK_OUTPUT_FAST, SRSS_CLK_OUTPUT_FAST
 2131              		.loc 1 1065 0
 2132 00d4 D0F81435 		ldr	r3, [r0, #1300]
 2133 00d8 23F47023 		bic	r3, r3, #983040
 2134 00dc 43F4E023 		orr	r3, r3, #458752
 2135 00e0 C0F81435 		str	r3, [r0, #1300]
 2136 00e4 33E0     		b	.L208
 2137              	.L207:
1066:Generated_Source\PSoC6\pdl\drivers\peripheral\sysclk/cy_sysclk.c ****             }
1067:Generated_Source\PSoC6\pdl\drivers\peripheral\sysclk/cy_sysclk.c ****             else
1068:Generated_Source\PSoC6\pdl\drivers\peripheral\sysclk/cy_sysclk.c ****             { /* fast clock */
1069:Generated_Source\PSoC6\pdl\drivers\peripheral\sysclk/cy_sysclk.c ****                 if (clock2 < CY_SYSCLK_MEAS_CLK_PATH_CLKS)
 2138              		.loc 1 1069 0
 2139 00e6 B2F5A06F 		cmp	r2, #1280
ARM GAS  C:\Users\gjl\AppData\Local\Temp\ccNVysBX.s 			page 75


 2140 00ea 0BD2     		bcs	.L209
1070:Generated_Source\PSoC6\pdl\drivers\peripheral\sysclk/cy_sysclk.c ****                 { /* ECO, EXT, ALTHF */
1071:Generated_Source\PSoC6\pdl\drivers\peripheral\sysclk/cy_sysclk.c ****                     SRSS->CLK_OUTPUT_FAST = _CLR_SET_FLD32U(SRSS->CLK_OUTPUT_FAST, SRSS_CLK_OUTPUT_
 2141              		.loc 1 1071 0
 2142 00ec 214C     		ldr	r4, .L217+4
 2143 00ee D4F81435 		ldr	r3, [r4, #1300]
 2144 00f2 23F47020 		bic	r0, r3, #983040
 2145 00f6 1304     		lsls	r3, r2, #16
 2146 00f8 03F47023 		and	r3, r3, #983040
 2147 00fc 0343     		orrs	r3, r3, r0
 2148 00fe C4F81435 		str	r3, [r4, #1300]
 2149 0102 24E0     		b	.L208
 2150              	.L209:
1072:Generated_Source\PSoC6\pdl\drivers\peripheral\sysclk/cy_sysclk.c ****                 }
1073:Generated_Source\PSoC6\pdl\drivers\peripheral\sysclk/cy_sysclk.c ****                 else
1074:Generated_Source\PSoC6\pdl\drivers\peripheral\sysclk/cy_sysclk.c ****                 { /* PATH or CLKHF */
1075:Generated_Source\PSoC6\pdl\drivers\peripheral\sysclk/cy_sysclk.c ****                     SRSS->CLK_OUTPUT_FAST = _CLR_SET_FLD32U(SRSS->CLK_OUTPUT_FAST, SRSS_CLK_OUTPUT_
 2151              		.loc 1 1075 0
 2152 0104 1B4C     		ldr	r4, .L217+4
 2153 0106 D4F81435 		ldr	r3, [r4, #1300]
 2154 010a 23F47020 		bic	r0, r3, #983040
 2155 010e 130A     		lsrs	r3, r2, #8
 2156 0110 1B04     		lsls	r3, r3, #16
 2157 0112 03F47023 		and	r3, r3, #983040
 2158 0116 0343     		orrs	r3, r3, r0
 2159 0118 C4F81435 		str	r3, [r4, #1300]
1076:Generated_Source\PSoC6\pdl\drivers\peripheral\sysclk/cy_sysclk.c ****                                                             (((uint32_t)clock2 >> 8) & 0x0Ful) /*us
1077:Generated_Source\PSoC6\pdl\drivers\peripheral\sysclk/cy_sysclk.c ****                     if (clock2 < CY_SYSCLK_MEAS_CLK_CLKHFS)
 2160              		.loc 1 1077 0
 2161 011c B2F5C06F 		cmp	r2, #1536
 2162 0120 0AD2     		bcs	.L210
1078:Generated_Source\PSoC6\pdl\drivers\peripheral\sysclk/cy_sysclk.c ****                     { /* PATH select */
1079:Generated_Source\PSoC6\pdl\drivers\peripheral\sysclk/cy_sysclk.c ****                         SRSS->CLK_OUTPUT_FAST = _CLR_SET_FLD32U(SRSS->CLK_OUTPUT_FAST, SRSS_CLK_OUT
 2163              		.loc 1 1079 0
 2164 0122 D4F81435 		ldr	r3, [r4, #1300]
 2165 0126 23F47000 		bic	r0, r3, #15728640
 2166 012a 1305     		lsls	r3, r2, #20
 2167 012c 03F47003 		and	r3, r3, #15728640
 2168 0130 0343     		orrs	r3, r3, r0
 2169 0132 C4F81435 		str	r3, [r4, #1300]
 2170 0136 0AE0     		b	.L208
 2171              	.L210:
1080:Generated_Source\PSoC6\pdl\drivers\peripheral\sysclk/cy_sysclk.c ****                                                                 ((uint32_t)clock2 & 0x0Ful) /*use e
1081:Generated_Source\PSoC6\pdl\drivers\peripheral\sysclk/cy_sysclk.c ****                     }
1082:Generated_Source\PSoC6\pdl\drivers\peripheral\sysclk/cy_sysclk.c ****                     else
1083:Generated_Source\PSoC6\pdl\drivers\peripheral\sysclk/cy_sysclk.c ****                     { /* CLKHF select */
1084:Generated_Source\PSoC6\pdl\drivers\peripheral\sysclk/cy_sysclk.c ****                         SRSS->CLK_OUTPUT_FAST = _CLR_SET_FLD32U(SRSS->CLK_OUTPUT_FAST, SRSS_CLK_OUT
 2172              		.loc 1 1084 0
 2173 0138 0E4C     		ldr	r4, .L217+4
 2174 013a D4F81435 		ldr	r3, [r4, #1300]
 2175 013e 23F07060 		bic	r0, r3, #251658240
 2176 0142 1306     		lsls	r3, r2, #24
 2177 0144 03F07063 		and	r3, r3, #251658240
 2178 0148 0343     		orrs	r3, r3, r0
 2179 014a C4F81435 		str	r3, [r4, #1300]
 2180              	.L208:
 2181              	.LVL206:
ARM GAS  C:\Users\gjl\AppData\Local\Temp\ccNVysBX.s 			page 76


1085:Generated_Source\PSoC6\pdl\drivers\peripheral\sysclk/cy_sysclk.c ****                                                                 ((uint32_t)clock2 & 0x0Ful) /*use e
1086:Generated_Source\PSoC6\pdl\drivers\peripheral\sysclk/cy_sysclk.c ****                     }
1087:Generated_Source\PSoC6\pdl\drivers\peripheral\sysclk/cy_sysclk.c ****                 }
1088:Generated_Source\PSoC6\pdl\drivers\peripheral\sysclk/cy_sysclk.c ****             } /* clock2 fast clock */
1089:Generated_Source\PSoC6\pdl\drivers\peripheral\sysclk/cy_sysclk.c **** 
1090:Generated_Source\PSoC6\pdl\drivers\peripheral\sysclk/cy_sysclk.c ****             rtnval = CY_SYSCLK_SUCCESS;
1091:Generated_Source\PSoC6\pdl\drivers\peripheral\sysclk/cy_sysclk.c **** 
1092:Generated_Source\PSoC6\pdl\drivers\peripheral\sysclk/cy_sysclk.c ****             /* Save this input parameter for use later, in other functions.
1093:Generated_Source\PSoC6\pdl\drivers\peripheral\sysclk/cy_sysclk.c ****                No error checking is done on this parameter.*/
1094:Generated_Source\PSoC6\pdl\drivers\peripheral\sysclk/cy_sysclk.c ****             clk1Count1 = count1;
 2182              		.loc 1 1094 0
 2183 014e 084B     		ldr	r3, .L217
 2184 0150 5960     		str	r1, [r3, #4]
1095:Generated_Source\PSoC6\pdl\drivers\peripheral\sysclk/cy_sysclk.c **** 
1096:Generated_Source\PSoC6\pdl\drivers\peripheral\sysclk/cy_sysclk.c ****             /* Counting starts when counter1 is written with a nonzero value. */
1097:Generated_Source\PSoC6\pdl\drivers\peripheral\sysclk/cy_sysclk.c ****             SRSS->CLK_CAL_CNT1 = clk1Count1;
 2185              		.loc 1 1097 0
 2186 0152 084B     		ldr	r3, .L217+4
 2187 0154 C3F81C15 		str	r1, [r3, #1308]
1090:Generated_Source\PSoC6\pdl\drivers\peripheral\sysclk/cy_sysclk.c **** 
 2188              		.loc 1 1090 0
 2189 0158 0020     		movs	r0, #0
 2190 015a 07E0     		b	.L202
 2191              	.LVL207:
 2192              	.L211:
 2193              		.cfi_def_cfa_offset 0
 2194              		.cfi_restore 4
 2195              		.cfi_restore 5
1008:Generated_Source\PSoC6\pdl\drivers\peripheral\sysclk/cy_sysclk.c **** 
 2196              		.loc 1 1008 0
 2197 015c 0648     		ldr	r0, .L217+8
 2198              	.LVL208:
 2199 015e 7047     		bx	lr
 2200              	.LVL209:
 2201              	.L212:
1027:Generated_Source\PSoC6\pdl\drivers\peripheral\sysclk/cy_sysclk.c ****         if ((clock1 < CY_SYSCLK_MEAS_CLK_LAST_CLK) && (clock2 < CY_SYSCLK_MEAS_CLK_LAST_CLK) &&
 2202              		.loc 1 1027 0
 2203 0160 0648     		ldr	r0, .L217+12
 2204              	.LVL210:
1098:Generated_Source\PSoC6\pdl\drivers\peripheral\sysclk/cy_sysclk.c ****         } /* if (clock1 < CY_SYSCLK_MEAS_CLK_LAST_CLK && clock2 < CY_SYSCLK_MEAS_CLK_LAST_CLK) */
1099:Generated_Source\PSoC6\pdl\drivers\peripheral\sysclk/cy_sysclk.c ****     } /* if (not done) */
1100:Generated_Source\PSoC6\pdl\drivers\peripheral\sysclk/cy_sysclk.c ****     return (rtnval);
1101:Generated_Source\PSoC6\pdl\drivers\peripheral\sysclk/cy_sysclk.c **** }
 2205              		.loc 1 1101 0
 2206 0162 7047     		bx	lr
 2207              	.LVL211:
 2208              	.L213:
1027:Generated_Source\PSoC6\pdl\drivers\peripheral\sysclk/cy_sysclk.c ****         if ((clock1 < CY_SYSCLK_MEAS_CLK_LAST_CLK) && (clock2 < CY_SYSCLK_MEAS_CLK_LAST_CLK) &&
 2209              		.loc 1 1027 0
 2210 0164 0548     		ldr	r0, .L217+12
 2211              	.LVL212:
 2212 0166 7047     		bx	lr
 2213              	.LVL213:
 2214              	.L214:
 2215 0168 0448     		ldr	r0, .L217+12
 2216              	.LVL214:
 2217 016a 7047     		bx	lr
ARM GAS  C:\Users\gjl\AppData\Local\Temp\ccNVysBX.s 			page 77


 2218              	.LVL215:
 2219              	.L202:
 2220              		.cfi_def_cfa_offset 8
 2221              		.cfi_offset 4, -8
 2222              		.cfi_offset 5, -4
 2223              		.loc 1 1101 0
 2224 016c 30BC     		pop	{r4, r5}
 2225              		.cfi_restore 5
 2226              		.cfi_restore 4
 2227              		.cfi_def_cfa_offset 0
 2228 016e 7047     		bx	lr
 2229              	.L218:
 2230              		.align	2
 2231              	.L217:
 2232 0170 00000000 		.word	.LANCHOR1
 2233 0174 00002640 		.word	1076232192
 2234 0178 03004A00 		.word	4849667
 2235 017c 01004A00 		.word	4849665
 2236              		.cfi_endproc
 2237              	.LFE227:
 2238              		.size	Cy_SysClk_StartClkMeasurementCounters, .-Cy_SysClk_StartClkMeasurementCounters
 2239              		.section	.text.Cy_SysClk_ClkMeasurementCountersGetFreq,"ax",%progbits
 2240              		.align	2
 2241              		.global	Cy_SysClk_ClkMeasurementCountersGetFreq
 2242              		.thumb
 2243              		.thumb_func
 2244              		.type	Cy_SysClk_ClkMeasurementCountersGetFreq, %function
 2245              	Cy_SysClk_ClkMeasurementCountersGetFreq:
 2246              	.LFB228:
1102:Generated_Source\PSoC6\pdl\drivers\peripheral\sysclk/cy_sysclk.c **** 
1103:Generated_Source\PSoC6\pdl\drivers\peripheral\sysclk/cy_sysclk.c **** /*******************************************************************************
1104:Generated_Source\PSoC6\pdl\drivers\peripheral\sysclk/cy_sysclk.c **** * Function Name: Cy_SysClk_ClkMeasurementCountersGetFreq
1105:Generated_Source\PSoC6\pdl\drivers\peripheral\sysclk/cy_sysclk.c **** ****************************************************************************//**
1106:Generated_Source\PSoC6\pdl\drivers\peripheral\sysclk/cy_sysclk.c **** *
1107:Generated_Source\PSoC6\pdl\drivers\peripheral\sysclk/cy_sysclk.c **** * Calculates the frequency of the indicated measured clock (clock1 or clock2).
1108:Generated_Source\PSoC6\pdl\drivers\peripheral\sysclk/cy_sysclk.c **** * 
1109:Generated_Source\PSoC6\pdl\drivers\peripheral\sysclk/cy_sysclk.c **** * - If clock1 is the measured clock, its frequency is:<br>
1110:Generated_Source\PSoC6\pdl\drivers\peripheral\sysclk/cy_sysclk.c **** *   clock1 frequency = (count1 / count2) * clock2 frequency
1111:Generated_Source\PSoC6\pdl\drivers\peripheral\sysclk/cy_sysclk.c **** * - If clock2 is the measured clock, its frequency is:<br>
1112:Generated_Source\PSoC6\pdl\drivers\peripheral\sysclk/cy_sysclk.c **** *   clock2 frequency = (count2 / count1) * clock1 frequency
1113:Generated_Source\PSoC6\pdl\drivers\peripheral\sysclk/cy_sysclk.c **** *
1114:Generated_Source\PSoC6\pdl\drivers\peripheral\sysclk/cy_sysclk.c **** * Call this function only after counting is done; see \ref Cy_SysClk_ClkMeasurementCountersDone().
1115:Generated_Source\PSoC6\pdl\drivers\peripheral\sysclk/cy_sysclk.c **** *
1116:Generated_Source\PSoC6\pdl\drivers\peripheral\sysclk/cy_sysclk.c **** * \param measuredClock False (0) if the measured clock is clock1, true (1)
1117:Generated_Source\PSoC6\pdl\drivers\peripheral\sysclk/cy_sysclk.c **** * if the measured clock is clock2.
1118:Generated_Source\PSoC6\pdl\drivers\peripheral\sysclk/cy_sysclk.c **** *
1119:Generated_Source\PSoC6\pdl\drivers\peripheral\sysclk/cy_sysclk.c **** * \param refClkFreq The reference clock frequency (clock1 or clock2).
1120:Generated_Source\PSoC6\pdl\drivers\peripheral\sysclk/cy_sysclk.c **** *
1121:Generated_Source\PSoC6\pdl\drivers\peripheral\sysclk/cy_sysclk.c **** * \return The frequency of the measured clock, in Hz.
1122:Generated_Source\PSoC6\pdl\drivers\peripheral\sysclk/cy_sysclk.c **** *
1123:Generated_Source\PSoC6\pdl\drivers\peripheral\sysclk/cy_sysclk.c **** * \funcusage
1124:Generated_Source\PSoC6\pdl\drivers\peripheral\sysclk/cy_sysclk.c **** * Refer to the Cy_SysClk_StartClkMeasurementCounters() function usage.
1125:Generated_Source\PSoC6\pdl\drivers\peripheral\sysclk/cy_sysclk.c **** *
1126:Generated_Source\PSoC6\pdl\drivers\peripheral\sysclk/cy_sysclk.c **** *******************************************************************************/
1127:Generated_Source\PSoC6\pdl\drivers\peripheral\sysclk/cy_sysclk.c **** uint32_t Cy_SysClk_ClkMeasurementCountersGetFreq(bool measuredClock, uint32_t refClkFreq)
1128:Generated_Source\PSoC6\pdl\drivers\peripheral\sysclk/cy_sysclk.c **** {
 2247              		.loc 1 1128 0
ARM GAS  C:\Users\gjl\AppData\Local\Temp\ccNVysBX.s 			page 78


 2248              		.cfi_startproc
 2249              		@ args = 0, pretend = 0, frame = 8
 2250              		@ frame_needed = 0, uses_anonymous_args = 0
 2251              	.LVL216:
 2252 0000 2DE93048 		push	{r4, r5, fp, lr}
 2253              		.cfi_def_cfa_offset 16
 2254              		.cfi_offset 4, -16
 2255              		.cfi_offset 5, -12
 2256              		.cfi_offset 11, -8
 2257              		.cfi_offset 14, -4
 2258 0004 82B0     		sub	sp, sp, #8
 2259              		.cfi_def_cfa_offset 24
1129:Generated_Source\PSoC6\pdl\drivers\peripheral\sysclk/cy_sysclk.c ****     volatile uint64_t rtnval = (uint64_t)_FLD2VAL(SRSS_CLK_CAL_CNT2_CAL_COUNTER2, SRSS->CLK_CAL_CNT
 2260              		.loc 1 1129 0
 2261 0006 1D4B     		ldr	r3, .L223
 2262 0008 D3F82025 		ldr	r2, [r3, #1312]
 2263 000c 22F07F42 		bic	r2, r2, #-16777216
 2264 0010 0023     		movs	r3, #0
 2265 0012 CDE90023 		strd	r2, [sp]
1130:Generated_Source\PSoC6\pdl\drivers\peripheral\sysclk/cy_sysclk.c **** 
1131:Generated_Source\PSoC6\pdl\drivers\peripheral\sysclk/cy_sysclk.c ****     /* Done counting; allow entry into DeepSleep mode. */
1132:Generated_Source\PSoC6\pdl\drivers\peripheral\sysclk/cy_sysclk.c ****     clkCounting = false;
 2266              		.loc 1 1132 0
 2267 0016 0022     		movs	r2, #0
 2268 0018 194B     		ldr	r3, .L223+4
 2269 001a 5A70     		strb	r2, [r3, #1]
1133:Generated_Source\PSoC6\pdl\drivers\peripheral\sysclk/cy_sysclk.c **** 
1134:Generated_Source\PSoC6\pdl\drivers\peripheral\sysclk/cy_sysclk.c ****     if (!measuredClock)
 2270              		.loc 1 1134 0
 2271 001c A8B9     		cbnz	r0, .L220
1135:Generated_Source\PSoC6\pdl\drivers\peripheral\sysclk/cy_sysclk.c ****     { /* clock1 is the measured clock */
1136:Generated_Source\PSoC6\pdl\drivers\peripheral\sysclk/cy_sysclk.c ****         if (rtnval != 0u) /* avoid divide by zero */
 2272              		.loc 1 1136 0
 2273 001e DDE90023 		ldrd	r2, [sp]
 2274 0022 1343     		orrs	r3, r2, r3
 2275 0024 25D0     		beq	.L221
1137:Generated_Source\PSoC6\pdl\drivers\peripheral\sysclk/cy_sysclk.c ****         {
1138:Generated_Source\PSoC6\pdl\drivers\peripheral\sysclk/cy_sysclk.c ****             rtnval = CY_SYSCLK_DIV_ROUND((uint64_t)clk1Count1 * (uint64_t)refClkFreq, rtnval);
 2276              		.loc 1 1138 0
 2277 0026 164B     		ldr	r3, .L223+4
 2278 0028 5868     		ldr	r0, [r3, #4]
 2279              	.LVL217:
 2280 002a DDE90045 		ldrd	r4, [sp]
 2281 002e 6D08     		movs	r5, r5, lsr #1
 2282 0030 4FEA3404 		mov	r4, r4, rrx
 2283 0034 DDE90023 		ldrd	r2, [sp]
 2284 0038 E1FB0045 		umlal	r4, r5, r1, r0
 2285 003c 2046     		mov	r0, r4
 2286 003e 2946     		mov	r1, r5
 2287              	.LVL218:
 2288 0040 FFF7FEFF 		bl	__aeabi_uldivmod
 2289              	.LVL219:
 2290 0044 CDE90001 		strd	r0, [sp]
 2291 0048 13E0     		b	.L221
 2292              	.LVL220:
 2293              	.L220:
1139:Generated_Source\PSoC6\pdl\drivers\peripheral\sysclk/cy_sysclk.c ****         }
ARM GAS  C:\Users\gjl\AppData\Local\Temp\ccNVysBX.s 			page 79


1140:Generated_Source\PSoC6\pdl\drivers\peripheral\sysclk/cy_sysclk.c ****     }
1141:Generated_Source\PSoC6\pdl\drivers\peripheral\sysclk/cy_sysclk.c ****     else
1142:Generated_Source\PSoC6\pdl\drivers\peripheral\sysclk/cy_sysclk.c ****     { /* clock2 is the measured clock */
1143:Generated_Source\PSoC6\pdl\drivers\peripheral\sysclk/cy_sysclk.c ****         rtnval = CY_SYSCLK_DIV_ROUND(rtnval * (uint64_t)refClkFreq, (uint64_t)clk1Count1 );
 2294              		.loc 1 1143 0
 2295 004a DDE90023 		ldrd	r2, [sp]
 2296 004e A1FB0245 		umull	r4, r5, r1, r2
 2297 0052 01FB0355 		mla	r5, r1, r3, r5
 2298 0056 0A4B     		ldr	r3, .L223+4
 2299 0058 5A68     		ldr	r2, [r3, #4]
 2300 005a 5008     		lsrs	r0, r2, #1
 2301              	.LVL221:
 2302 005c 0023     		movs	r3, #0
 2303 005e 14EB000B 		adds	fp, r4, r0
 2304 0062 45F1000C 		adc	ip, r5, #0
 2305 0066 5846     		mov	r0, fp
 2306 0068 6146     		mov	r1, ip
 2307              	.LVL222:
 2308 006a FFF7FEFF 		bl	__aeabi_uldivmod
 2309              	.LVL223:
 2310 006e CDE90001 		strd	r0, [sp]
 2311              	.L221:
1144:Generated_Source\PSoC6\pdl\drivers\peripheral\sysclk/cy_sysclk.c ****     }
1145:Generated_Source\PSoC6\pdl\drivers\peripheral\sysclk/cy_sysclk.c ****     return ((uint32_t)rtnval);
 2312              		.loc 1 1145 0
 2313 0072 DDE90001 		ldrd	r0, [sp]
1146:Generated_Source\PSoC6\pdl\drivers\peripheral\sysclk/cy_sysclk.c **** }
 2314              		.loc 1 1146 0
 2315 0076 02B0     		add	sp, sp, #8
 2316              		.cfi_def_cfa_offset 16
 2317              		@ sp needed
 2318 0078 BDE83088 		pop	{r4, r5, fp, pc}
 2319              	.L224:
 2320              		.align	2
 2321              	.L223:
 2322 007c 00002640 		.word	1076232192
 2323 0080 00000000 		.word	.LANCHOR1
 2324              		.cfi_endproc
 2325              	.LFE228:
 2326              		.size	Cy_SysClk_ClkMeasurementCountersGetFreq, .-Cy_SysClk_ClkMeasurementCountersGetFreq
 2327              		.section	.text.Cy_SysClk_IloTrim,"ax",%progbits
 2328              		.align	2
 2329              		.global	Cy_SysClk_IloTrim
 2330              		.thumb
 2331              		.thumb_func
 2332              		.type	Cy_SysClk_IloTrim, %function
 2333              	Cy_SysClk_IloTrim:
 2334              	.LFB229:
1147:Generated_Source\PSoC6\pdl\drivers\peripheral\sysclk/cy_sysclk.c **** /** \} group_sysclk_calclk_funcs */
1148:Generated_Source\PSoC6\pdl\drivers\peripheral\sysclk/cy_sysclk.c **** 
1149:Generated_Source\PSoC6\pdl\drivers\peripheral\sysclk/cy_sysclk.c **** 
1150:Generated_Source\PSoC6\pdl\drivers\peripheral\sysclk/cy_sysclk.c **** /* ========================================================================== */
1151:Generated_Source\PSoC6\pdl\drivers\peripheral\sysclk/cy_sysclk.c **** /* ==========================    TRIM SECTION    ============================ */
1152:Generated_Source\PSoC6\pdl\drivers\peripheral\sysclk/cy_sysclk.c **** /* ========================================================================== */
1153:Generated_Source\PSoC6\pdl\drivers\peripheral\sysclk/cy_sysclk.c **** /**
1154:Generated_Source\PSoC6\pdl\drivers\peripheral\sysclk/cy_sysclk.c **** * \addtogroup group_sysclk_trim_funcs
1155:Generated_Source\PSoC6\pdl\drivers\peripheral\sysclk/cy_sysclk.c **** * \{
ARM GAS  C:\Users\gjl\AppData\Local\Temp\ccNVysBX.s 			page 80


1156:Generated_Source\PSoC6\pdl\drivers\peripheral\sysclk/cy_sysclk.c **** */
1157:Generated_Source\PSoC6\pdl\drivers\peripheral\sysclk/cy_sysclk.c **** 
1158:Generated_Source\PSoC6\pdl\drivers\peripheral\sysclk/cy_sysclk.c **** /*******************************************************************************
1159:Generated_Source\PSoC6\pdl\drivers\peripheral\sysclk/cy_sysclk.c **** * Function Name: Cy_SysClk_IloTrim
1160:Generated_Source\PSoC6\pdl\drivers\peripheral\sysclk/cy_sysclk.c **** ****************************************************************************//**
1161:Generated_Source\PSoC6\pdl\drivers\peripheral\sysclk/cy_sysclk.c **** *
1162:Generated_Source\PSoC6\pdl\drivers\peripheral\sysclk/cy_sysclk.c **** * Trims the ILO to be as close to 32,768 Hz as possible.
1163:Generated_Source\PSoC6\pdl\drivers\peripheral\sysclk/cy_sysclk.c **** *
1164:Generated_Source\PSoC6\pdl\drivers\peripheral\sysclk/cy_sysclk.c **** * \param iloFreq current ILO frequency. Call \ref Cy_SysClk_StartClkMeasurementCounters
1165:Generated_Source\PSoC6\pdl\drivers\peripheral\sysclk/cy_sysclk.c **** * and other measurement functions to obtain the current frequency of the ILO.
1166:Generated_Source\PSoC6\pdl\drivers\peripheral\sysclk/cy_sysclk.c **** *
1167:Generated_Source\PSoC6\pdl\drivers\peripheral\sysclk/cy_sysclk.c **** * \return Change in trim value; 0 if done, that is, no change in trim value.
1168:Generated_Source\PSoC6\pdl\drivers\peripheral\sysclk/cy_sysclk.c **** *
1169:Generated_Source\PSoC6\pdl\drivers\peripheral\sysclk/cy_sysclk.c **** * \note The watchdog timer (WDT) must be unlocked before calling this function.
1170:Generated_Source\PSoC6\pdl\drivers\peripheral\sysclk/cy_sysclk.c **** *
1171:Generated_Source\PSoC6\pdl\drivers\peripheral\sysclk/cy_sysclk.c **** * \funcusage
1172:Generated_Source\PSoC6\pdl\drivers\peripheral\sysclk/cy_sysclk.c **** * \snippet sysclk/sysclk_v1_10_sut_01.cydsn/main_cm4.c snippet_Cy_SysClk_IloTrim
1173:Generated_Source\PSoC6\pdl\drivers\peripheral\sysclk/cy_sysclk.c **** *
1174:Generated_Source\PSoC6\pdl\drivers\peripheral\sysclk/cy_sysclk.c **** *******************************************************************************/
1175:Generated_Source\PSoC6\pdl\drivers\peripheral\sysclk/cy_sysclk.c **** /** \cond INTERNAL */
1176:Generated_Source\PSoC6\pdl\drivers\peripheral\sysclk/cy_sysclk.c **** /* target frequency */
1177:Generated_Source\PSoC6\pdl\drivers\peripheral\sysclk/cy_sysclk.c **** #define CY_SYSCLK_ILO_TARGET_FREQ  32768u
1178:Generated_Source\PSoC6\pdl\drivers\peripheral\sysclk/cy_sysclk.c **** /** \endcond */
1179:Generated_Source\PSoC6\pdl\drivers\peripheral\sysclk/cy_sysclk.c **** 
1180:Generated_Source\PSoC6\pdl\drivers\peripheral\sysclk/cy_sysclk.c **** int32_t Cy_SysClk_IloTrim(uint32_t iloFreq)
1181:Generated_Source\PSoC6\pdl\drivers\peripheral\sysclk/cy_sysclk.c **** {
 2335              		.loc 1 1181 0
 2336              		.cfi_startproc
 2337              		@ args = 0, pretend = 0, frame = 0
 2338              		@ frame_needed = 0, uses_anonymous_args = 0
 2339              		@ link register save eliminated.
 2340              	.LVL224:
1182:Generated_Source\PSoC6\pdl\drivers\peripheral\sysclk/cy_sysclk.c ****     /* Nominal trim step size is 1.5% of "the frequency". Using the target frequency. */
1183:Generated_Source\PSoC6\pdl\drivers\peripheral\sysclk/cy_sysclk.c ****     const uint32_t trimStep = CY_SYSCLK_DIV_ROUND((uint32_t)CY_SYSCLK_ILO_TARGET_FREQ * 15ul, 1000u
1184:Generated_Source\PSoC6\pdl\drivers\peripheral\sysclk/cy_sysclk.c **** 
1185:Generated_Source\PSoC6\pdl\drivers\peripheral\sysclk/cy_sysclk.c ****     uint32_t newTrim = 0ul;
1186:Generated_Source\PSoC6\pdl\drivers\peripheral\sysclk/cy_sysclk.c ****     uint32_t curTrim = 0ul;
1187:Generated_Source\PSoC6\pdl\drivers\peripheral\sysclk/cy_sysclk.c **** 
1188:Generated_Source\PSoC6\pdl\drivers\peripheral\sysclk/cy_sysclk.c ****     /* Do nothing if iloFreq is already within one trim step from the target */
1189:Generated_Source\PSoC6\pdl\drivers\peripheral\sysclk/cy_sysclk.c ****     uint32_t diff = (uint32_t)abs((int32_t)iloFreq - (int32_t)CY_SYSCLK_ILO_TARGET_FREQ);
 2341              		.loc 1 1189 0
 2342 0000 A0F50043 		sub	r3, r0, #32768
 2343 0004 002B     		cmp	r3, #0
 2344 0006 B8BF     		it	lt
 2345 0008 5B42     		rsblt	r3, r3, #0
 2346              	.LVL225:
1190:Generated_Source\PSoC6\pdl\drivers\peripheral\sysclk/cy_sysclk.c ****     if (diff >= trimStep)
 2347              		.loc 1 1190 0
 2348 000a B3F5F67F 		cmp	r3, #492
 2349 000e 27D3     		bcc	.L229
1181:Generated_Source\PSoC6\pdl\drivers\peripheral\sysclk/cy_sysclk.c ****     /* Nominal trim step size is 1.5% of "the frequency". Using the target frequency. */
 2350              		.loc 1 1181 0
 2351 0010 30B4     		push	{r4, r5}
 2352              		.cfi_def_cfa_offset 8
 2353              		.cfi_offset 4, -8
 2354              		.cfi_offset 5, -4
1191:Generated_Source\PSoC6\pdl\drivers\peripheral\sysclk/cy_sysclk.c ****     {
ARM GAS  C:\Users\gjl\AppData\Local\Temp\ccNVysBX.s 			page 81


1192:Generated_Source\PSoC6\pdl\drivers\peripheral\sysclk/cy_sysclk.c ****         curTrim = _FLD2VAL(SRSS_CLK_TRIM_ILO_CTL_ILO_FTRIM, SRSS->CLK_TRIM_ILO_CTL);
 2355              		.loc 1 1192 0
 2356 0012 4FF61873 		movw	r3, #65304
 2357              	.LVL226:
 2358 0016 154A     		ldr	r2, .L232
 2359 0018 D258     		ldr	r2, [r2, r3]
 2360 001a 02F03F02 		and	r2, r2, #63
 2361              	.LVL227:
1193:Generated_Source\PSoC6\pdl\drivers\peripheral\sysclk/cy_sysclk.c ****         if (iloFreq > CY_SYSCLK_ILO_TARGET_FREQ)
 2362              		.loc 1 1193 0
 2363 001e B0F5004F 		cmp	r0, #32768
 2364 0022 09D9     		bls	.L227
1194:Generated_Source\PSoC6\pdl\drivers\peripheral\sysclk/cy_sysclk.c ****         { /* iloFreq is too high. Reduce the trim value */
1195:Generated_Source\PSoC6\pdl\drivers\peripheral\sysclk/cy_sysclk.c ****             newTrim = curTrim - CY_SYSCLK_DIV_ROUND(iloFreq - CY_SYSCLK_ILO_TARGET_FREQ, trimStep);
 2365              		.loc 1 1195 0
 2366 0024 A0F5FE43 		sub	r3, r0, #32512
 2367 0028 0A3B     		subs	r3, r3, #10
 2368 002a 9B08     		lsrs	r3, r3, #2
 2369 002c 1048     		ldr	r0, .L232+4
 2370              	.LVL228:
 2371 002e A0FB0313 		umull	r1, r3, r0, r3
 2372 0032 A2EB1310 		sub	r0, r2, r3, lsr #4
 2373              	.LVL229:
 2374 0036 08E0     		b	.L228
 2375              	.LVL230:
 2376              	.L227:
1196:Generated_Source\PSoC6\pdl\drivers\peripheral\sysclk/cy_sysclk.c ****         }
1197:Generated_Source\PSoC6\pdl\drivers\peripheral\sysclk/cy_sysclk.c ****         else
1198:Generated_Source\PSoC6\pdl\drivers\peripheral\sysclk/cy_sysclk.c ****         { /* iloFreq too low. Increase the trim value. */
1199:Generated_Source\PSoC6\pdl\drivers\peripheral\sysclk/cy_sysclk.c ****             newTrim = curTrim + CY_SYSCLK_DIV_ROUND(CY_SYSCLK_ILO_TARGET_FREQ - iloFreq, trimStep);
 2377              		.loc 1 1199 0
 2378 0038 C0F50043 		rsb	r3, r0, #32768
 2379 003c F633     		adds	r3, r3, #246
 2380 003e 9B08     		lsrs	r3, r3, #2
 2381 0040 0B48     		ldr	r0, .L232+4
 2382              	.LVL231:
 2383 0042 A0FB0313 		umull	r1, r3, r0, r3
 2384 0046 02EB1310 		add	r0, r2, r3, lsr #4
 2385              	.LVL232:
 2386              	.L228:
1200:Generated_Source\PSoC6\pdl\drivers\peripheral\sysclk/cy_sysclk.c ****         }
1201:Generated_Source\PSoC6\pdl\drivers\peripheral\sysclk/cy_sysclk.c **** 
1202:Generated_Source\PSoC6\pdl\drivers\peripheral\sysclk/cy_sysclk.c ****         /* Update the trim value */
1203:Generated_Source\PSoC6\pdl\drivers\peripheral\sysclk/cy_sysclk.c ****         CY_SYSCLK_CLR_SET(SRSS->CLK_TRIM_ILO_CTL, SRSS_CLK_TRIM_ILO_CTL_ILO_FTRIM, newTrim);
 2387              		.loc 1 1203 0
 2388 004a 084D     		ldr	r5, .L232
 2389 004c 4FF61874 		movw	r4, #65304
 2390 0050 2B59     		ldr	r3, [r5, r4]
 2391 0052 23F03F01 		bic	r1, r3, #63
 2392 0056 00F03F03 		and	r3, r0, #63
 2393 005a 0B43     		orrs	r3, r3, r1
 2394 005c 2B51     		str	r3, [r5, r4]
 2395 005e 02E0     		b	.L226
 2396              	.LVL233:
 2397              	.L229:
 2398              		.cfi_def_cfa_offset 0
 2399              		.cfi_restore 4
ARM GAS  C:\Users\gjl\AppData\Local\Temp\ccNVysBX.s 			page 82


 2400              		.cfi_restore 5
1186:Generated_Source\PSoC6\pdl\drivers\peripheral\sysclk/cy_sysclk.c **** 
 2401              		.loc 1 1186 0
 2402 0060 0022     		movs	r2, #0
 2403              	.LVL234:
1204:Generated_Source\PSoC6\pdl\drivers\peripheral\sysclk/cy_sysclk.c ****     }
1205:Generated_Source\PSoC6\pdl\drivers\peripheral\sysclk/cy_sysclk.c ****     return (int32_t)(curTrim - newTrim);
1206:Generated_Source\PSoC6\pdl\drivers\peripheral\sysclk/cy_sysclk.c **** }
 2404              		.loc 1 1206 0
 2405 0062 901A     		subs	r0, r2, r2
 2406              	.LVL235:
 2407 0064 7047     		bx	lr
 2408              	.LVL236:
 2409              	.L226:
 2410              		.cfi_def_cfa_offset 8
 2411              		.cfi_offset 4, -8
 2412              		.cfi_offset 5, -4
 2413 0066 101A     		subs	r0, r2, r0
 2414              	.LVL237:
 2415 0068 30BC     		pop	{r4, r5}
 2416              		.cfi_restore 5
 2417              		.cfi_restore 4
 2418              		.cfi_def_cfa_offset 0
 2419 006a 7047     		bx	lr
 2420              	.L233:
 2421              		.align	2
 2422              	.L232:
 2423 006c 00002640 		.word	1076232192
 2424 0070 15024D21 		.word	558694933
 2425              		.cfi_endproc
 2426              	.LFE229:
 2427              		.size	Cy_SysClk_IloTrim, .-Cy_SysClk_IloTrim
 2428              		.section	.text.Cy_SysClk_PiloTrim,"ax",%progbits
 2429              		.align	2
 2430              		.global	Cy_SysClk_PiloTrim
 2431              		.thumb
 2432              		.thumb_func
 2433              		.type	Cy_SysClk_PiloTrim, %function
 2434              	Cy_SysClk_PiloTrim:
 2435              	.LFB230:
1207:Generated_Source\PSoC6\pdl\drivers\peripheral\sysclk/cy_sysclk.c **** 
1208:Generated_Source\PSoC6\pdl\drivers\peripheral\sysclk/cy_sysclk.c **** /*******************************************************************************
1209:Generated_Source\PSoC6\pdl\drivers\peripheral\sysclk/cy_sysclk.c **** * Function Name: Cy_SysClk_PiloTrim
1210:Generated_Source\PSoC6\pdl\drivers\peripheral\sysclk/cy_sysclk.c **** ****************************************************************************//**
1211:Generated_Source\PSoC6\pdl\drivers\peripheral\sysclk/cy_sysclk.c **** *
1212:Generated_Source\PSoC6\pdl\drivers\peripheral\sysclk/cy_sysclk.c **** * Trims the PILO to be as close to 32,768 Hz as possible.
1213:Generated_Source\PSoC6\pdl\drivers\peripheral\sysclk/cy_sysclk.c **** *
1214:Generated_Source\PSoC6\pdl\drivers\peripheral\sysclk/cy_sysclk.c **** * \param piloFreq current PILO frequency. Call \ref Cy_SysClk_StartClkMeasurementCounters
1215:Generated_Source\PSoC6\pdl\drivers\peripheral\sysclk/cy_sysclk.c **** * and other measurement functions to obtain the current frequency of the PILO.
1216:Generated_Source\PSoC6\pdl\drivers\peripheral\sysclk/cy_sysclk.c **** *
1217:Generated_Source\PSoC6\pdl\drivers\peripheral\sysclk/cy_sysclk.c **** * \return Change in trim value; 0 if done, that is, no change in trim value.
1218:Generated_Source\PSoC6\pdl\drivers\peripheral\sysclk/cy_sysclk.c **** *
1219:Generated_Source\PSoC6\pdl\drivers\peripheral\sysclk/cy_sysclk.c **** * \funcusage
1220:Generated_Source\PSoC6\pdl\drivers\peripheral\sysclk/cy_sysclk.c **** * \snippet sysclk/sysclk_v1_10_sut_01.cydsn/main_cm4.c snippet_Cy_SysClk_PiloTrim
1221:Generated_Source\PSoC6\pdl\drivers\peripheral\sysclk/cy_sysclk.c **** *
1222:Generated_Source\PSoC6\pdl\drivers\peripheral\sysclk/cy_sysclk.c **** *******************************************************************************/
1223:Generated_Source\PSoC6\pdl\drivers\peripheral\sysclk/cy_sysclk.c **** /** \cond INTERNAL */
ARM GAS  C:\Users\gjl\AppData\Local\Temp\ccNVysBX.s 			page 83


1224:Generated_Source\PSoC6\pdl\drivers\peripheral\sysclk/cy_sysclk.c **** /* target frequency */
1225:Generated_Source\PSoC6\pdl\drivers\peripheral\sysclk/cy_sysclk.c **** #define CY_SYSCLK_PILO_TARGET_FREQ  32768ul
1226:Generated_Source\PSoC6\pdl\drivers\peripheral\sysclk/cy_sysclk.c **** /* nominal trim step size */
1227:Generated_Source\PSoC6\pdl\drivers\peripheral\sysclk/cy_sysclk.c **** #define CY_SYSCLK_PILO_TRIM_STEP        5ul
1228:Generated_Source\PSoC6\pdl\drivers\peripheral\sysclk/cy_sysclk.c **** /** \endcond */
1229:Generated_Source\PSoC6\pdl\drivers\peripheral\sysclk/cy_sysclk.c **** 
1230:Generated_Source\PSoC6\pdl\drivers\peripheral\sysclk/cy_sysclk.c **** int32_t Cy_SysClk_PiloTrim(uint32_t piloFreq)
1231:Generated_Source\PSoC6\pdl\drivers\peripheral\sysclk/cy_sysclk.c **** {
 2436              		.loc 1 1231 0
 2437              		.cfi_startproc
 2438              		@ args = 0, pretend = 0, frame = 0
 2439              		@ frame_needed = 0, uses_anonymous_args = 0
 2440              		@ link register save eliminated.
 2441              	.LVL238:
1232:Generated_Source\PSoC6\pdl\drivers\peripheral\sysclk/cy_sysclk.c ****     uint32_t newTrim = 0ul;
1233:Generated_Source\PSoC6\pdl\drivers\peripheral\sysclk/cy_sysclk.c ****     uint32_t curTrim = 0ul;
1234:Generated_Source\PSoC6\pdl\drivers\peripheral\sysclk/cy_sysclk.c **** 
1235:Generated_Source\PSoC6\pdl\drivers\peripheral\sysclk/cy_sysclk.c ****     /* Do nothing if piloFreq is already within one trim step from the target */
1236:Generated_Source\PSoC6\pdl\drivers\peripheral\sysclk/cy_sysclk.c ****     uint32_t diff = (uint32_t)abs((int32_t)piloFreq - (int32_t)CY_SYSCLK_PILO_TARGET_FREQ);
 2442              		.loc 1 1236 0
 2443 0000 A0F50043 		sub	r3, r0, #32768
 2444 0004 002B     		cmp	r3, #0
 2445 0006 B8BF     		it	lt
 2446 0008 5B42     		rsblt	r3, r3, #0
 2447              	.LVL239:
1237:Generated_Source\PSoC6\pdl\drivers\peripheral\sysclk/cy_sysclk.c ****     if (diff >= CY_SYSCLK_PILO_TRIM_STEP)
 2448              		.loc 1 1237 0
 2449 000a 042B     		cmp	r3, #4
 2450 000c 30D9     		bls	.L238
1231:Generated_Source\PSoC6\pdl\drivers\peripheral\sysclk/cy_sysclk.c ****     uint32_t newTrim = 0ul;
 2451              		.loc 1 1231 0
 2452 000e 10B4     		push	{r4}
 2453              		.cfi_def_cfa_offset 4
 2454              		.cfi_offset 4, -4
 2455              	.LBB45:
 2456              	.LBB46:
 854:Generated_Source\PSoC6\pdl\drivers\peripheral\sysclk/cy_sysclk.h ****     return CY_SYSCLK_SUCCESS;
 855:Generated_Source\PSoC6\pdl\drivers\peripheral\sysclk/cy_sysclk.h **** }
 856:Generated_Source\PSoC6\pdl\drivers\peripheral\sysclk/cy_sysclk.h **** /** \} group_sysclk_fll_funcs */
 857:Generated_Source\PSoC6\pdl\drivers\peripheral\sysclk/cy_sysclk.h **** 
 858:Generated_Source\PSoC6\pdl\drivers\peripheral\sysclk/cy_sysclk.h **** 
 859:Generated_Source\PSoC6\pdl\drivers\peripheral\sysclk/cy_sysclk.h **** /* ========================================================================== */
 860:Generated_Source\PSoC6\pdl\drivers\peripheral\sysclk/cy_sysclk.h **** /* ===========================    PLL SECTION    ============================ */
 861:Generated_Source\PSoC6\pdl\drivers\peripheral\sysclk/cy_sysclk.h **** /* ========================================================================== */
 862:Generated_Source\PSoC6\pdl\drivers\peripheral\sysclk/cy_sysclk.h **** /**
 863:Generated_Source\PSoC6\pdl\drivers\peripheral\sysclk/cy_sysclk.h **** * \addtogroup group_sysclk_pll_structs
 864:Generated_Source\PSoC6\pdl\drivers\peripheral\sysclk/cy_sysclk.h **** * \{
 865:Generated_Source\PSoC6\pdl\drivers\peripheral\sysclk/cy_sysclk.h **** */
 866:Generated_Source\PSoC6\pdl\drivers\peripheral\sysclk/cy_sysclk.h **** /** Structure containing information for configuration of a PLL.
 867:Generated_Source\PSoC6\pdl\drivers\peripheral\sysclk/cy_sysclk.h **** */
 868:Generated_Source\PSoC6\pdl\drivers\peripheral\sysclk/cy_sysclk.h **** typedef struct
 869:Generated_Source\PSoC6\pdl\drivers\peripheral\sysclk/cy_sysclk.h **** {
 870:Generated_Source\PSoC6\pdl\drivers\peripheral\sysclk/cy_sysclk.h ****     uint32_t                    inputFreq;  /**< frequency of PLL source, in Hz */
 871:Generated_Source\PSoC6\pdl\drivers\peripheral\sysclk/cy_sysclk.h ****     uint32_t                    outputFreq; /**< frequency of PLL output, in Hz */
 872:Generated_Source\PSoC6\pdl\drivers\peripheral\sysclk/cy_sysclk.h ****     bool                        lfMode;     /**< CLK_PLL_CONFIG register, PLL_LF_MODE bit */
 873:Generated_Source\PSoC6\pdl\drivers\peripheral\sysclk/cy_sysclk.h ****     cy_en_fll_pll_output_mode_t outputMode; /**< CLK_PLL_CONFIG register, BYPASS_SEL bits */
 874:Generated_Source\PSoC6\pdl\drivers\peripheral\sysclk/cy_sysclk.h **** } cy_stc_pll_config_t;
ARM GAS  C:\Users\gjl\AppData\Local\Temp\ccNVysBX.s 			page 84


 875:Generated_Source\PSoC6\pdl\drivers\peripheral\sysclk/cy_sysclk.h **** 
 876:Generated_Source\PSoC6\pdl\drivers\peripheral\sysclk/cy_sysclk.h **** /** Structure containing information for manual configuration of a PLL.
 877:Generated_Source\PSoC6\pdl\drivers\peripheral\sysclk/cy_sysclk.h **** */
 878:Generated_Source\PSoC6\pdl\drivers\peripheral\sysclk/cy_sysclk.h **** typedef struct
 879:Generated_Source\PSoC6\pdl\drivers\peripheral\sysclk/cy_sysclk.h **** {
 880:Generated_Source\PSoC6\pdl\drivers\peripheral\sysclk/cy_sysclk.h ****     uint8_t                     feedbackDiv;  /**< CLK_PLL_CONFIG register, FEEDBACK_DIV (P) bits *
 881:Generated_Source\PSoC6\pdl\drivers\peripheral\sysclk/cy_sysclk.h ****     uint8_t                     referenceDiv; /**< CLK_PLL_CONFIG register, REFERENCE_DIV (Q) bits 
 882:Generated_Source\PSoC6\pdl\drivers\peripheral\sysclk/cy_sysclk.h ****     uint8_t                     outputDiv;    /**< CLK_PLL_CONFIG register, OUTPUT_DIV bits */
 883:Generated_Source\PSoC6\pdl\drivers\peripheral\sysclk/cy_sysclk.h ****     bool                        lfMode;       /**< CLK_PLL_CONFIG register, PLL_LF_MODE bit */
 884:Generated_Source\PSoC6\pdl\drivers\peripheral\sysclk/cy_sysclk.h ****     cy_en_fll_pll_output_mode_t outputMode;   /**< CLK_PLL_CONFIG register, BYPASS_SEL bits */
 885:Generated_Source\PSoC6\pdl\drivers\peripheral\sysclk/cy_sysclk.h **** } cy_stc_pll_manual_config_t;
 886:Generated_Source\PSoC6\pdl\drivers\peripheral\sysclk/cy_sysclk.h **** /** \} group_sysclk_pll_structs */
 887:Generated_Source\PSoC6\pdl\drivers\peripheral\sysclk/cy_sysclk.h **** 
 888:Generated_Source\PSoC6\pdl\drivers\peripheral\sysclk/cy_sysclk.h **** /**
 889:Generated_Source\PSoC6\pdl\drivers\peripheral\sysclk/cy_sysclk.h **** * \addtogroup group_sysclk_pll_funcs
 890:Generated_Source\PSoC6\pdl\drivers\peripheral\sysclk/cy_sysclk.h **** * \{
 891:Generated_Source\PSoC6\pdl\drivers\peripheral\sysclk/cy_sysclk.h **** */
 892:Generated_Source\PSoC6\pdl\drivers\peripheral\sysclk/cy_sysclk.h **** cy_en_sysclk_status_t Cy_SysClk_PllConfigure(uint32_t clkPath, const cy_stc_pll_config_t *config);
 893:Generated_Source\PSoC6\pdl\drivers\peripheral\sysclk/cy_sysclk.h **** cy_en_sysclk_status_t Cy_SysClk_PllManualConfigure(uint32_t clkPath, const cy_stc_pll_manual_config
 894:Generated_Source\PSoC6\pdl\drivers\peripheral\sysclk/cy_sysclk.h **** cy_en_sysclk_status_t Cy_SysClk_PllGetConfiguration(uint32_t clkPath, cy_stc_pll_manual_config_t *c
 895:Generated_Source\PSoC6\pdl\drivers\peripheral\sysclk/cy_sysclk.h **** cy_en_sysclk_status_t Cy_SysClk_PllEnable(uint32_t clkPath, uint32_t timeoutus);
 896:Generated_Source\PSoC6\pdl\drivers\peripheral\sysclk/cy_sysclk.h **** __STATIC_INLINE bool Cy_SysClk_PllLocked(uint32_t clkPath);
 897:Generated_Source\PSoC6\pdl\drivers\peripheral\sysclk/cy_sysclk.h **** __STATIC_INLINE bool Cy_SysClk_PllLostLock(uint32_t clkPath);
 898:Generated_Source\PSoC6\pdl\drivers\peripheral\sysclk/cy_sysclk.h **** __STATIC_INLINE cy_en_sysclk_status_t Cy_SysClk_PllDisable(uint32_t clkPath);
 899:Generated_Source\PSoC6\pdl\drivers\peripheral\sysclk/cy_sysclk.h **** 
 900:Generated_Source\PSoC6\pdl\drivers\peripheral\sysclk/cy_sysclk.h **** /*******************************************************************************
 901:Generated_Source\PSoC6\pdl\drivers\peripheral\sysclk/cy_sysclk.h **** * Function Name: Cy_SysClk_PllLocked
 902:Generated_Source\PSoC6\pdl\drivers\peripheral\sysclk/cy_sysclk.h **** ****************************************************************************//**
 903:Generated_Source\PSoC6\pdl\drivers\peripheral\sysclk/cy_sysclk.h **** *
 904:Generated_Source\PSoC6\pdl\drivers\peripheral\sysclk/cy_sysclk.h **** * Reports whether or not the selected PLL is locked.
 905:Generated_Source\PSoC6\pdl\drivers\peripheral\sysclk/cy_sysclk.h **** *
 906:Generated_Source\PSoC6\pdl\drivers\peripheral\sysclk/cy_sysclk.h **** * \param clkPath Selects which PLL to check. 1 is the first PLL; 0 is invalid.
 907:Generated_Source\PSoC6\pdl\drivers\peripheral\sysclk/cy_sysclk.h **** *
 908:Generated_Source\PSoC6\pdl\drivers\peripheral\sysclk/cy_sysclk.h **** * \return 
 909:Generated_Source\PSoC6\pdl\drivers\peripheral\sysclk/cy_sysclk.h **** * false = not locked<br>
 910:Generated_Source\PSoC6\pdl\drivers\peripheral\sysclk/cy_sysclk.h **** * true = locked
 911:Generated_Source\PSoC6\pdl\drivers\peripheral\sysclk/cy_sysclk.h **** *
 912:Generated_Source\PSoC6\pdl\drivers\peripheral\sysclk/cy_sysclk.h **** * \funcusage
 913:Generated_Source\PSoC6\pdl\drivers\peripheral\sysclk/cy_sysclk.h **** * \snippet sysclk/sysclk_v1_10_sut_01.cydsn/main_cm4.c snippet_Cy_SysClk_PllLocked
 914:Generated_Source\PSoC6\pdl\drivers\peripheral\sysclk/cy_sysclk.h **** *
 915:Generated_Source\PSoC6\pdl\drivers\peripheral\sysclk/cy_sysclk.h **** *******************************************************************************/
 916:Generated_Source\PSoC6\pdl\drivers\peripheral\sysclk/cy_sysclk.h **** __STATIC_INLINE bool Cy_SysClk_PllLocked(uint32_t clkPath)
 917:Generated_Source\PSoC6\pdl\drivers\peripheral\sysclk/cy_sysclk.h **** {
 918:Generated_Source\PSoC6\pdl\drivers\peripheral\sysclk/cy_sysclk.h ****     CY_ASSERT_L1((clkPath != 0ul) && (clkPath <= SRSS_NUM_PLL));
 919:Generated_Source\PSoC6\pdl\drivers\peripheral\sysclk/cy_sysclk.h ****     return (bool)(_FLD2VAL(SRSS_CLK_PLL_STATUS_LOCKED, SRSS->CLK_PLL_STATUS[clkPath - 1ul]));
 920:Generated_Source\PSoC6\pdl\drivers\peripheral\sysclk/cy_sysclk.h **** }
 921:Generated_Source\PSoC6\pdl\drivers\peripheral\sysclk/cy_sysclk.h **** 
 922:Generated_Source\PSoC6\pdl\drivers\peripheral\sysclk/cy_sysclk.h **** /*******************************************************************************
 923:Generated_Source\PSoC6\pdl\drivers\peripheral\sysclk/cy_sysclk.h **** * Function Name: Cy_SysClk_PllLostLock
 924:Generated_Source\PSoC6\pdl\drivers\peripheral\sysclk/cy_sysclk.h **** ****************************************************************************//**
 925:Generated_Source\PSoC6\pdl\drivers\peripheral\sysclk/cy_sysclk.h **** *
 926:Generated_Source\PSoC6\pdl\drivers\peripheral\sysclk/cy_sysclk.h **** * Reports whether or not the selected PLL lost its lock since the last time this
 927:Generated_Source\PSoC6\pdl\drivers\peripheral\sysclk/cy_sysclk.h **** * function was called. Clears the lost lock indicator.
 928:Generated_Source\PSoC6\pdl\drivers\peripheral\sysclk/cy_sysclk.h **** *
 929:Generated_Source\PSoC6\pdl\drivers\peripheral\sysclk/cy_sysclk.h **** * \param clkPath Selects which PLL to check. 1 is the first PLL; 0 is invalid.
 930:Generated_Source\PSoC6\pdl\drivers\peripheral\sysclk/cy_sysclk.h **** *
 931:Generated_Source\PSoC6\pdl\drivers\peripheral\sysclk/cy_sysclk.h **** * \return 
ARM GAS  C:\Users\gjl\AppData\Local\Temp\ccNVysBX.s 			page 85


 932:Generated_Source\PSoC6\pdl\drivers\peripheral\sysclk/cy_sysclk.h **** * false = did not lose lock<br>
 933:Generated_Source\PSoC6\pdl\drivers\peripheral\sysclk/cy_sysclk.h **** * true = lost lock
 934:Generated_Source\PSoC6\pdl\drivers\peripheral\sysclk/cy_sysclk.h **** *
 935:Generated_Source\PSoC6\pdl\drivers\peripheral\sysclk/cy_sysclk.h **** * \funcusage
 936:Generated_Source\PSoC6\pdl\drivers\peripheral\sysclk/cy_sysclk.h **** * \snippet sysclk/sysclk_v1_10_sut_01.cydsn/main_cm4.c snippet_Cy_SysClk_PllLostLock
 937:Generated_Source\PSoC6\pdl\drivers\peripheral\sysclk/cy_sysclk.h **** *
 938:Generated_Source\PSoC6\pdl\drivers\peripheral\sysclk/cy_sysclk.h **** *******************************************************************************/
 939:Generated_Source\PSoC6\pdl\drivers\peripheral\sysclk/cy_sysclk.h **** __STATIC_INLINE bool Cy_SysClk_PllLostLock(uint32_t clkPath)
 940:Generated_Source\PSoC6\pdl\drivers\peripheral\sysclk/cy_sysclk.h **** {
 941:Generated_Source\PSoC6\pdl\drivers\peripheral\sysclk/cy_sysclk.h ****     uint32_t retval = 0ul;
 942:Generated_Source\PSoC6\pdl\drivers\peripheral\sysclk/cy_sysclk.h **** 
 943:Generated_Source\PSoC6\pdl\drivers\peripheral\sysclk/cy_sysclk.h ****     CY_ASSERT_L1((clkPath != 0ul) && (clkPath <= SRSS_NUM_PLL));
 944:Generated_Source\PSoC6\pdl\drivers\peripheral\sysclk/cy_sysclk.h **** 
 945:Generated_Source\PSoC6\pdl\drivers\peripheral\sysclk/cy_sysclk.h ****     retval = _FLD2VAL(SRSS_CLK_PLL_STATUS_UNLOCK_OCCURRED, SRSS->CLK_PLL_STATUS[clkPath - 1ul]);
 946:Generated_Source\PSoC6\pdl\drivers\peripheral\sysclk/cy_sysclk.h ****     /* write a 1 to clear the unlock occurred bit */
 947:Generated_Source\PSoC6\pdl\drivers\peripheral\sysclk/cy_sysclk.h ****     SRSS->CLK_PLL_STATUS[clkPath - 1ul] = _VAL2FLD(SRSS_CLK_PLL_STATUS_UNLOCK_OCCURRED, 1u);
 948:Generated_Source\PSoC6\pdl\drivers\peripheral\sysclk/cy_sysclk.h ****     return ((bool)retval);
 949:Generated_Source\PSoC6\pdl\drivers\peripheral\sysclk/cy_sysclk.h **** }
 950:Generated_Source\PSoC6\pdl\drivers\peripheral\sysclk/cy_sysclk.h **** 
 951:Generated_Source\PSoC6\pdl\drivers\peripheral\sysclk/cy_sysclk.h **** /*******************************************************************************
 952:Generated_Source\PSoC6\pdl\drivers\peripheral\sysclk/cy_sysclk.h **** * Function Name: Cy_SysClk_PllDisable
 953:Generated_Source\PSoC6\pdl\drivers\peripheral\sysclk/cy_sysclk.h **** ****************************************************************************//**
 954:Generated_Source\PSoC6\pdl\drivers\peripheral\sysclk/cy_sysclk.h **** *
 955:Generated_Source\PSoC6\pdl\drivers\peripheral\sysclk/cy_sysclk.h **** * Disables the selected PLL.
 956:Generated_Source\PSoC6\pdl\drivers\peripheral\sysclk/cy_sysclk.h **** *
 957:Generated_Source\PSoC6\pdl\drivers\peripheral\sysclk/cy_sysclk.h **** * \param clkPath Selects which PLL to disable. 1 is the first PLL; 0 is invalid.
 958:Generated_Source\PSoC6\pdl\drivers\peripheral\sysclk/cy_sysclk.h **** *
 959:Generated_Source\PSoC6\pdl\drivers\peripheral\sysclk/cy_sysclk.h **** * \return Error / status code:<br>
 960:Generated_Source\PSoC6\pdl\drivers\peripheral\sysclk/cy_sysclk.h **** * CY_SYSCLK_SUCCESS - PLL successfully disabled<br>
 961:Generated_Source\PSoC6\pdl\drivers\peripheral\sysclk/cy_sysclk.h **** * CY_SYSCLK_BAD_PARAM - invalid clock path number
 962:Generated_Source\PSoC6\pdl\drivers\peripheral\sysclk/cy_sysclk.h **** *
 963:Generated_Source\PSoC6\pdl\drivers\peripheral\sysclk/cy_sysclk.h **** * \funcusage
 964:Generated_Source\PSoC6\pdl\drivers\peripheral\sysclk/cy_sysclk.h **** * \snippet sysclk/sysclk_v1_10_sut_01.cydsn/main_cm4.c snippet_Cy_SysClk_PllDisable
 965:Generated_Source\PSoC6\pdl\drivers\peripheral\sysclk/cy_sysclk.h **** *
 966:Generated_Source\PSoC6\pdl\drivers\peripheral\sysclk/cy_sysclk.h **** *******************************************************************************/
 967:Generated_Source\PSoC6\pdl\drivers\peripheral\sysclk/cy_sysclk.h **** __STATIC_INLINE cy_en_sysclk_status_t Cy_SysClk_PllDisable(uint32_t clkPath)
 968:Generated_Source\PSoC6\pdl\drivers\peripheral\sysclk/cy_sysclk.h **** {
 969:Generated_Source\PSoC6\pdl\drivers\peripheral\sysclk/cy_sysclk.h ****     cy_en_sysclk_status_t retval = CY_SYSCLK_BAD_PARAM;
 970:Generated_Source\PSoC6\pdl\drivers\peripheral\sysclk/cy_sysclk.h ****     if ((clkPath != 0ul) && (clkPath <= SRSS_NUM_PLL))
 971:Generated_Source\PSoC6\pdl\drivers\peripheral\sysclk/cy_sysclk.h ****     {
 972:Generated_Source\PSoC6\pdl\drivers\peripheral\sysclk/cy_sysclk.h ****         SRSS->CLK_PLL_CONFIG[clkPath - 1ul] &= ~_VAL2FLD(SRSS_CLK_PLL_CONFIG_ENABLE, 1u); /* 0 = di
 973:Generated_Source\PSoC6\pdl\drivers\peripheral\sysclk/cy_sysclk.h ****         retval = CY_SYSCLK_SUCCESS;
 974:Generated_Source\PSoC6\pdl\drivers\peripheral\sysclk/cy_sysclk.h ****     }
 975:Generated_Source\PSoC6\pdl\drivers\peripheral\sysclk/cy_sysclk.h ****     return (retval);
 976:Generated_Source\PSoC6\pdl\drivers\peripheral\sysclk/cy_sysclk.h **** }
 977:Generated_Source\PSoC6\pdl\drivers\peripheral\sysclk/cy_sysclk.h **** /** \} group_sysclk_pll_funcs */
 978:Generated_Source\PSoC6\pdl\drivers\peripheral\sysclk/cy_sysclk.h **** 
 979:Generated_Source\PSoC6\pdl\drivers\peripheral\sysclk/cy_sysclk.h **** 
 980:Generated_Source\PSoC6\pdl\drivers\peripheral\sysclk/cy_sysclk.h **** /* ========================================================================== */
 981:Generated_Source\PSoC6\pdl\drivers\peripheral\sysclk/cy_sysclk.h **** /* ===========================    ILO SECTION    ============================ */
 982:Generated_Source\PSoC6\pdl\drivers\peripheral\sysclk/cy_sysclk.h **** /* ========================================================================== */
 983:Generated_Source\PSoC6\pdl\drivers\peripheral\sysclk/cy_sysclk.h **** /**
 984:Generated_Source\PSoC6\pdl\drivers\peripheral\sysclk/cy_sysclk.h **** * \addtogroup group_sysclk_ilo_funcs
 985:Generated_Source\PSoC6\pdl\drivers\peripheral\sysclk/cy_sysclk.h **** * \{
 986:Generated_Source\PSoC6\pdl\drivers\peripheral\sysclk/cy_sysclk.h **** */
 987:Generated_Source\PSoC6\pdl\drivers\peripheral\sysclk/cy_sysclk.h **** __STATIC_INLINE void Cy_SysClk_IloEnable(void);
 988:Generated_Source\PSoC6\pdl\drivers\peripheral\sysclk/cy_sysclk.h **** __STATIC_INLINE cy_en_sysclk_status_t Cy_SysClk_IloDisable(void);
ARM GAS  C:\Users\gjl\AppData\Local\Temp\ccNVysBX.s 			page 86


 989:Generated_Source\PSoC6\pdl\drivers\peripheral\sysclk/cy_sysclk.h **** __STATIC_INLINE void Cy_SysClk_IloHibernateOn(bool on);
 990:Generated_Source\PSoC6\pdl\drivers\peripheral\sysclk/cy_sysclk.h **** 
 991:Generated_Source\PSoC6\pdl\drivers\peripheral\sysclk/cy_sysclk.h **** /*******************************************************************************
 992:Generated_Source\PSoC6\pdl\drivers\peripheral\sysclk/cy_sysclk.h **** * Function Name: Cy_SysClk_IloEnable
 993:Generated_Source\PSoC6\pdl\drivers\peripheral\sysclk/cy_sysclk.h **** ****************************************************************************//**
 994:Generated_Source\PSoC6\pdl\drivers\peripheral\sysclk/cy_sysclk.h **** *
 995:Generated_Source\PSoC6\pdl\drivers\peripheral\sysclk/cy_sysclk.h **** * Enables the ILO.
 996:Generated_Source\PSoC6\pdl\drivers\peripheral\sysclk/cy_sysclk.h **** *
 997:Generated_Source\PSoC6\pdl\drivers\peripheral\sysclk/cy_sysclk.h **** * \note The watchdog timer (WDT) must be unlocked before calling this function.
 998:Generated_Source\PSoC6\pdl\drivers\peripheral\sysclk/cy_sysclk.h **** *
 999:Generated_Source\PSoC6\pdl\drivers\peripheral\sysclk/cy_sysclk.h **** * \funcusage
1000:Generated_Source\PSoC6\pdl\drivers\peripheral\sysclk/cy_sysclk.h **** * \snippet sysclk/sysclk_v1_10_sut_01.cydsn/main_cm4.c snippet_Cy_SysClk_IloEnable
1001:Generated_Source\PSoC6\pdl\drivers\peripheral\sysclk/cy_sysclk.h **** *
1002:Generated_Source\PSoC6\pdl\drivers\peripheral\sysclk/cy_sysclk.h **** *******************************************************************************/
1003:Generated_Source\PSoC6\pdl\drivers\peripheral\sysclk/cy_sysclk.h **** __STATIC_INLINE void Cy_SysClk_IloEnable(void)
1004:Generated_Source\PSoC6\pdl\drivers\peripheral\sysclk/cy_sysclk.h **** {
1005:Generated_Source\PSoC6\pdl\drivers\peripheral\sysclk/cy_sysclk.h ****     SRSS->CLK_ILO_CONFIG |= _VAL2FLD(SRSS_CLK_ILO_CONFIG_ENABLE, 1u); /* 1 = enable */
1006:Generated_Source\PSoC6\pdl\drivers\peripheral\sysclk/cy_sysclk.h **** }
1007:Generated_Source\PSoC6\pdl\drivers\peripheral\sysclk/cy_sysclk.h **** 
1008:Generated_Source\PSoC6\pdl\drivers\peripheral\sysclk/cy_sysclk.h **** /*******************************************************************************
1009:Generated_Source\PSoC6\pdl\drivers\peripheral\sysclk/cy_sysclk.h **** * Function Name: Cy_SysClk_IloDisable
1010:Generated_Source\PSoC6\pdl\drivers\peripheral\sysclk/cy_sysclk.h **** ****************************************************************************//**
1011:Generated_Source\PSoC6\pdl\drivers\peripheral\sysclk/cy_sysclk.h **** *
1012:Generated_Source\PSoC6\pdl\drivers\peripheral\sysclk/cy_sysclk.h **** * Disables the ILO. ILO can't be disabled if WDT is enabled.
1013:Generated_Source\PSoC6\pdl\drivers\peripheral\sysclk/cy_sysclk.h **** *
1014:Generated_Source\PSoC6\pdl\drivers\peripheral\sysclk/cy_sysclk.h **** * \return Error / status code:<br>
1015:Generated_Source\PSoC6\pdl\drivers\peripheral\sysclk/cy_sysclk.h **** * CY_SYSCLK_SUCCESS - ILO successfully disabled<br>
1016:Generated_Source\PSoC6\pdl\drivers\peripheral\sysclk/cy_sysclk.h **** * CY_SYSCLK_INVALID_STATE - Cannot disable the ILO if the WDT is enabled.
1017:Generated_Source\PSoC6\pdl\drivers\peripheral\sysclk/cy_sysclk.h **** *
1018:Generated_Source\PSoC6\pdl\drivers\peripheral\sysclk/cy_sysclk.h **** * \note The watchdog timer (WDT) must be unlocked before calling this function.
1019:Generated_Source\PSoC6\pdl\drivers\peripheral\sysclk/cy_sysclk.h **** * Do not call this function if the WDT is enabled, because the WDT is clocked by
1020:Generated_Source\PSoC6\pdl\drivers\peripheral\sysclk/cy_sysclk.h **** * the ILO.
1021:Generated_Source\PSoC6\pdl\drivers\peripheral\sysclk/cy_sysclk.h **** *
1022:Generated_Source\PSoC6\pdl\drivers\peripheral\sysclk/cy_sysclk.h **** * \funcusage
1023:Generated_Source\PSoC6\pdl\drivers\peripheral\sysclk/cy_sysclk.h **** * \snippet sysclk/sysclk_v1_10_sut_01.cydsn/main_cm4.c snippet_Cy_SysClk_IloDisable
1024:Generated_Source\PSoC6\pdl\drivers\peripheral\sysclk/cy_sysclk.h **** *
1025:Generated_Source\PSoC6\pdl\drivers\peripheral\sysclk/cy_sysclk.h **** *******************************************************************************/
1026:Generated_Source\PSoC6\pdl\drivers\peripheral\sysclk/cy_sysclk.h **** __STATIC_INLINE cy_en_sysclk_status_t Cy_SysClk_IloDisable(void)
1027:Generated_Source\PSoC6\pdl\drivers\peripheral\sysclk/cy_sysclk.h **** {
1028:Generated_Source\PSoC6\pdl\drivers\peripheral\sysclk/cy_sysclk.h ****     cy_en_sysclk_status_t retval = CY_SYSCLK_INVALID_STATE;
1029:Generated_Source\PSoC6\pdl\drivers\peripheral\sysclk/cy_sysclk.h ****     if (_FLD2VAL(SRSS_WDT_CTL_WDT_EN, SRSS->WDT_CTL) == 0ul) /* 0 = disabled */
1030:Generated_Source\PSoC6\pdl\drivers\peripheral\sysclk/cy_sysclk.h ****     {
1031:Generated_Source\PSoC6\pdl\drivers\peripheral\sysclk/cy_sysclk.h ****         SRSS->CLK_ILO_CONFIG &= ~_VAL2FLD(SRSS_CLK_ILO_CONFIG_ENABLE, 1u); /* 0 = disable */
1032:Generated_Source\PSoC6\pdl\drivers\peripheral\sysclk/cy_sysclk.h ****         retval = CY_SYSCLK_SUCCESS;
1033:Generated_Source\PSoC6\pdl\drivers\peripheral\sysclk/cy_sysclk.h ****     }
1034:Generated_Source\PSoC6\pdl\drivers\peripheral\sysclk/cy_sysclk.h ****     return retval;
1035:Generated_Source\PSoC6\pdl\drivers\peripheral\sysclk/cy_sysclk.h **** }
1036:Generated_Source\PSoC6\pdl\drivers\peripheral\sysclk/cy_sysclk.h **** 
1037:Generated_Source\PSoC6\pdl\drivers\peripheral\sysclk/cy_sysclk.h **** /*******************************************************************************
1038:Generated_Source\PSoC6\pdl\drivers\peripheral\sysclk/cy_sysclk.h **** * Function Name: Cy_SysClk_IloHibernateOn
1039:Generated_Source\PSoC6\pdl\drivers\peripheral\sysclk/cy_sysclk.h **** ****************************************************************************//**
1040:Generated_Source\PSoC6\pdl\drivers\peripheral\sysclk/cy_sysclk.h **** *
1041:Generated_Source\PSoC6\pdl\drivers\peripheral\sysclk/cy_sysclk.h **** * Controls whether the ILO stays on during a hibernate, or through an XRES or
1042:Generated_Source\PSoC6\pdl\drivers\peripheral\sysclk/cy_sysclk.h **** * brown-out detect (BOD) event.
1043:Generated_Source\PSoC6\pdl\drivers\peripheral\sysclk/cy_sysclk.h **** *
1044:Generated_Source\PSoC6\pdl\drivers\peripheral\sysclk/cy_sysclk.h **** * \param on
1045:Generated_Source\PSoC6\pdl\drivers\peripheral\sysclk/cy_sysclk.h **** * true = ILO stays on during hibernate or across XRES/BOD.<br> 
ARM GAS  C:\Users\gjl\AppData\Local\Temp\ccNVysBX.s 			page 87


1046:Generated_Source\PSoC6\pdl\drivers\peripheral\sysclk/cy_sysclk.h **** * false = ILO turns off for hibernate or XRES/BOD.
1047:Generated_Source\PSoC6\pdl\drivers\peripheral\sysclk/cy_sysclk.h **** *
1048:Generated_Source\PSoC6\pdl\drivers\peripheral\sysclk/cy_sysclk.h **** * \note Writes to the register/bit are ignored if the watchdog (WDT) is locked.
1049:Generated_Source\PSoC6\pdl\drivers\peripheral\sysclk/cy_sysclk.h **** *
1050:Generated_Source\PSoC6\pdl\drivers\peripheral\sysclk/cy_sysclk.h **** * \funcusage
1051:Generated_Source\PSoC6\pdl\drivers\peripheral\sysclk/cy_sysclk.h **** * \snippet sysclk/sysclk_v1_10_sut_01.cydsn/main_cm4.c snippet_Cy_SysClk_IloHibernateOn
1052:Generated_Source\PSoC6\pdl\drivers\peripheral\sysclk/cy_sysclk.h **** *
1053:Generated_Source\PSoC6\pdl\drivers\peripheral\sysclk/cy_sysclk.h **** *******************************************************************************/
1054:Generated_Source\PSoC6\pdl\drivers\peripheral\sysclk/cy_sysclk.h **** __STATIC_INLINE void Cy_SysClk_IloHibernateOn(bool on)
1055:Generated_Source\PSoC6\pdl\drivers\peripheral\sysclk/cy_sysclk.h **** {
1056:Generated_Source\PSoC6\pdl\drivers\peripheral\sysclk/cy_sysclk.h ****     CY_SYSCLK_CLR_SET(SRSS->CLK_ILO_CONFIG, SRSS_CLK_ILO_CONFIG_ILO_BACKUP, (uint32_t)on);
1057:Generated_Source\PSoC6\pdl\drivers\peripheral\sysclk/cy_sysclk.h **** }
1058:Generated_Source\PSoC6\pdl\drivers\peripheral\sysclk/cy_sysclk.h **** /** \} group_sysclk_ilo_funcs */
1059:Generated_Source\PSoC6\pdl\drivers\peripheral\sysclk/cy_sysclk.h **** 
1060:Generated_Source\PSoC6\pdl\drivers\peripheral\sysclk/cy_sysclk.h **** 
1061:Generated_Source\PSoC6\pdl\drivers\peripheral\sysclk/cy_sysclk.h **** /* ========================================================================== */
1062:Generated_Source\PSoC6\pdl\drivers\peripheral\sysclk/cy_sysclk.h **** /* ===========================    PILO SECTION    =========================== */
1063:Generated_Source\PSoC6\pdl\drivers\peripheral\sysclk/cy_sysclk.h **** /* ========================================================================== */
1064:Generated_Source\PSoC6\pdl\drivers\peripheral\sysclk/cy_sysclk.h **** /**
1065:Generated_Source\PSoC6\pdl\drivers\peripheral\sysclk/cy_sysclk.h **** * \addtogroup group_sysclk_pilo_funcs
1066:Generated_Source\PSoC6\pdl\drivers\peripheral\sysclk/cy_sysclk.h **** * \{
1067:Generated_Source\PSoC6\pdl\drivers\peripheral\sysclk/cy_sysclk.h **** */
1068:Generated_Source\PSoC6\pdl\drivers\peripheral\sysclk/cy_sysclk.h **** __STATIC_INLINE void Cy_SysClk_PiloEnable(void);
1069:Generated_Source\PSoC6\pdl\drivers\peripheral\sysclk/cy_sysclk.h **** __STATIC_INLINE void Cy_SysClk_PiloDisable(void);
1070:Generated_Source\PSoC6\pdl\drivers\peripheral\sysclk/cy_sysclk.h **** __STATIC_INLINE void Cy_SysClk_PiloSetTrim(uint32_t trimVal);
1071:Generated_Source\PSoC6\pdl\drivers\peripheral\sysclk/cy_sysclk.h **** __STATIC_INLINE uint32_t Cy_SysClk_PiloGetTrim(void);
1072:Generated_Source\PSoC6\pdl\drivers\peripheral\sysclk/cy_sysclk.h **** 
1073:Generated_Source\PSoC6\pdl\drivers\peripheral\sysclk/cy_sysclk.h **** /*******************************************************************************
1074:Generated_Source\PSoC6\pdl\drivers\peripheral\sysclk/cy_sysclk.h **** * Function Name: Cy_SysClk_PiloEnable
1075:Generated_Source\PSoC6\pdl\drivers\peripheral\sysclk/cy_sysclk.h **** ****************************************************************************//**
1076:Generated_Source\PSoC6\pdl\drivers\peripheral\sysclk/cy_sysclk.h **** *
1077:Generated_Source\PSoC6\pdl\drivers\peripheral\sysclk/cy_sysclk.h **** * Enables the PILO. 
1078:Generated_Source\PSoC6\pdl\drivers\peripheral\sysclk/cy_sysclk.h **** *
1079:Generated_Source\PSoC6\pdl\drivers\peripheral\sysclk/cy_sysclk.h **** * \note This function blocks for 1 millisecond between enabling the PILO and 
1080:Generated_Source\PSoC6\pdl\drivers\peripheral\sysclk/cy_sysclk.h **** * releasing the PILO reset.
1081:Generated_Source\PSoC6\pdl\drivers\peripheral\sysclk/cy_sysclk.h **** *
1082:Generated_Source\PSoC6\pdl\drivers\peripheral\sysclk/cy_sysclk.h **** * \funcusage
1083:Generated_Source\PSoC6\pdl\drivers\peripheral\sysclk/cy_sysclk.h **** * \snippet sysclk/sysclk_v1_10_sut_01.cydsn/main_cm4.c snippet_Cy_SysClk_PiloEnable
1084:Generated_Source\PSoC6\pdl\drivers\peripheral\sysclk/cy_sysclk.h **** *
1085:Generated_Source\PSoC6\pdl\drivers\peripheral\sysclk/cy_sysclk.h **** *******************************************************************************/
1086:Generated_Source\PSoC6\pdl\drivers\peripheral\sysclk/cy_sysclk.h **** __STATIC_INLINE void Cy_SysClk_PiloEnable(void)
1087:Generated_Source\PSoC6\pdl\drivers\peripheral\sysclk/cy_sysclk.h **** {
1088:Generated_Source\PSoC6\pdl\drivers\peripheral\sysclk/cy_sysclk.h ****     SRSS->CLK_PILO_CONFIG |= _VAL2FLD(SRSS_CLK_PILO_CONFIG_PILO_EN, 1u); /* 1 = enable */
1089:Generated_Source\PSoC6\pdl\drivers\peripheral\sysclk/cy_sysclk.h ****     Cy_SysLib_Delay(1/*msec*/);
1090:Generated_Source\PSoC6\pdl\drivers\peripheral\sysclk/cy_sysclk.h ****     /* release the reset and enable clock output */
1091:Generated_Source\PSoC6\pdl\drivers\peripheral\sysclk/cy_sysclk.h ****     SRSS->CLK_PILO_CONFIG |= (_VAL2FLD(SRSS_CLK_PILO_CONFIG_PILO_RESET_N, 1u) |
1092:Generated_Source\PSoC6\pdl\drivers\peripheral\sysclk/cy_sysclk.h ****                               _VAL2FLD(SRSS_CLK_PILO_CONFIG_PILO_CLK_EN, 1u));
1093:Generated_Source\PSoC6\pdl\drivers\peripheral\sysclk/cy_sysclk.h **** }
1094:Generated_Source\PSoC6\pdl\drivers\peripheral\sysclk/cy_sysclk.h **** 
1095:Generated_Source\PSoC6\pdl\drivers\peripheral\sysclk/cy_sysclk.h **** /*******************************************************************************
1096:Generated_Source\PSoC6\pdl\drivers\peripheral\sysclk/cy_sysclk.h **** * Function Name: Cy_SysClk_PiloDisable
1097:Generated_Source\PSoC6\pdl\drivers\peripheral\sysclk/cy_sysclk.h **** ****************************************************************************//**
1098:Generated_Source\PSoC6\pdl\drivers\peripheral\sysclk/cy_sysclk.h **** *
1099:Generated_Source\PSoC6\pdl\drivers\peripheral\sysclk/cy_sysclk.h **** * Disables the PILO.
1100:Generated_Source\PSoC6\pdl\drivers\peripheral\sysclk/cy_sysclk.h **** *
1101:Generated_Source\PSoC6\pdl\drivers\peripheral\sysclk/cy_sysclk.h **** * \funcusage
1102:Generated_Source\PSoC6\pdl\drivers\peripheral\sysclk/cy_sysclk.h **** * \snippet sysclk/sysclk_v1_10_sut_01.cydsn/main_cm4.c snippet_Cy_SysClk_PiloDisable
ARM GAS  C:\Users\gjl\AppData\Local\Temp\ccNVysBX.s 			page 88


1103:Generated_Source\PSoC6\pdl\drivers\peripheral\sysclk/cy_sysclk.h **** *
1104:Generated_Source\PSoC6\pdl\drivers\peripheral\sysclk/cy_sysclk.h **** *******************************************************************************/
1105:Generated_Source\PSoC6\pdl\drivers\peripheral\sysclk/cy_sysclk.h **** __STATIC_INLINE void Cy_SysClk_PiloDisable(void)
1106:Generated_Source\PSoC6\pdl\drivers\peripheral\sysclk/cy_sysclk.h **** {
1107:Generated_Source\PSoC6\pdl\drivers\peripheral\sysclk/cy_sysclk.h ****     /* Clear PILO_EN, PILO_RESET_N, and PILO_CLK_EN bitfields. This disables the
1108:Generated_Source\PSoC6\pdl\drivers\peripheral\sysclk/cy_sysclk.h ****        PILO and holds the PILO in a reset state. */
1109:Generated_Source\PSoC6\pdl\drivers\peripheral\sysclk/cy_sysclk.h ****     SRSS->CLK_PILO_CONFIG &= ~(_VAL2FLD(SRSS_CLK_PILO_CONFIG_PILO_EN, 1u)      |
1110:Generated_Source\PSoC6\pdl\drivers\peripheral\sysclk/cy_sysclk.h ****                                _VAL2FLD(SRSS_CLK_PILO_CONFIG_PILO_RESET_N, 1u) |
1111:Generated_Source\PSoC6\pdl\drivers\peripheral\sysclk/cy_sysclk.h ****                                _VAL2FLD(SRSS_CLK_PILO_CONFIG_PILO_CLK_EN, 1u));
1112:Generated_Source\PSoC6\pdl\drivers\peripheral\sysclk/cy_sysclk.h **** }
1113:Generated_Source\PSoC6\pdl\drivers\peripheral\sysclk/cy_sysclk.h **** 
1114:Generated_Source\PSoC6\pdl\drivers\peripheral\sysclk/cy_sysclk.h **** /*******************************************************************************
1115:Generated_Source\PSoC6\pdl\drivers\peripheral\sysclk/cy_sysclk.h **** * Function Name: Cy_SysClk_PiloSetTrim
1116:Generated_Source\PSoC6\pdl\drivers\peripheral\sysclk/cy_sysclk.h **** ****************************************************************************//**
1117:Generated_Source\PSoC6\pdl\drivers\peripheral\sysclk/cy_sysclk.h **** *
1118:Generated_Source\PSoC6\pdl\drivers\peripheral\sysclk/cy_sysclk.h **** * Sets the PILO trim bits, which adjusts the PILO frequency. This is typically
1119:Generated_Source\PSoC6\pdl\drivers\peripheral\sysclk/cy_sysclk.h **** * done after measuring the PILO frequency; see \ref Cy_SysClk_StartClkMeasurementCounters().
1120:Generated_Source\PSoC6\pdl\drivers\peripheral\sysclk/cy_sysclk.h **** *
1121:Generated_Source\PSoC6\pdl\drivers\peripheral\sysclk/cy_sysclk.h **** * \funcusage
1122:Generated_Source\PSoC6\pdl\drivers\peripheral\sysclk/cy_sysclk.h **** * \snippet sysclk/sysclk_v1_10_sut_01.cydsn/main_cm4.c snippet_Cy_SysClk_PiloSetTrim
1123:Generated_Source\PSoC6\pdl\drivers\peripheral\sysclk/cy_sysclk.h **** *
1124:Generated_Source\PSoC6\pdl\drivers\peripheral\sysclk/cy_sysclk.h **** *******************************************************************************/
1125:Generated_Source\PSoC6\pdl\drivers\peripheral\sysclk/cy_sysclk.h **** __STATIC_INLINE void Cy_SysClk_PiloSetTrim(uint32_t trimVal)
1126:Generated_Source\PSoC6\pdl\drivers\peripheral\sysclk/cy_sysclk.h **** {
1127:Generated_Source\PSoC6\pdl\drivers\peripheral\sysclk/cy_sysclk.h ****     CY_SYSCLK_CLR_SET(SRSS->CLK_PILO_CONFIG, SRSS_CLK_PILO_CONFIG_PILO_FFREQ, trimVal);
1128:Generated_Source\PSoC6\pdl\drivers\peripheral\sysclk/cy_sysclk.h **** }
1129:Generated_Source\PSoC6\pdl\drivers\peripheral\sysclk/cy_sysclk.h **** 
1130:Generated_Source\PSoC6\pdl\drivers\peripheral\sysclk/cy_sysclk.h **** /*******************************************************************************
1131:Generated_Source\PSoC6\pdl\drivers\peripheral\sysclk/cy_sysclk.h **** * Function Name: Cy_SysClk_PiloGetTrim
1132:Generated_Source\PSoC6\pdl\drivers\peripheral\sysclk/cy_sysclk.h **** ****************************************************************************//**
1133:Generated_Source\PSoC6\pdl\drivers\peripheral\sysclk/cy_sysclk.h **** *
1134:Generated_Source\PSoC6\pdl\drivers\peripheral\sysclk/cy_sysclk.h **** * Reports the current PILO trim bits value.
1135:Generated_Source\PSoC6\pdl\drivers\peripheral\sysclk/cy_sysclk.h **** *
1136:Generated_Source\PSoC6\pdl\drivers\peripheral\sysclk/cy_sysclk.h **** * \funcusage
1137:Generated_Source\PSoC6\pdl\drivers\peripheral\sysclk/cy_sysclk.h **** * Refer to the Cy_SysClk_PiloSetTrim() function usage.
1138:Generated_Source\PSoC6\pdl\drivers\peripheral\sysclk/cy_sysclk.h **** *
1139:Generated_Source\PSoC6\pdl\drivers\peripheral\sysclk/cy_sysclk.h **** *******************************************************************************/
1140:Generated_Source\PSoC6\pdl\drivers\peripheral\sysclk/cy_sysclk.h **** __STATIC_INLINE uint32_t Cy_SysClk_PiloGetTrim(void)
1141:Generated_Source\PSoC6\pdl\drivers\peripheral\sysclk/cy_sysclk.h **** {
1142:Generated_Source\PSoC6\pdl\drivers\peripheral\sysclk/cy_sysclk.h ****     return (_FLD2VAL(SRSS_CLK_PILO_CONFIG_PILO_FFREQ, SRSS->CLK_PILO_CONFIG));
 2457              		.loc 2 1142 0
 2458 0010 1B4B     		ldr	r3, .L243
 2459              	.LVL240:
 2460 0012 D3F83C25 		ldr	r2, [r3, #1340]
 2461 0016 C2F30902 		ubfx	r2, r2, #0, #10
 2462              	.LVL241:
 2463              	.LBE46:
 2464              	.LBE45:
1238:Generated_Source\PSoC6\pdl\drivers\peripheral\sysclk/cy_sysclk.c ****     {
1239:Generated_Source\PSoC6\pdl\drivers\peripheral\sysclk/cy_sysclk.c ****         curTrim = Cy_SysClk_PiloGetTrim();
1240:Generated_Source\PSoC6\pdl\drivers\peripheral\sysclk/cy_sysclk.c ****         if (piloFreq > CY_SYSCLK_PILO_TARGET_FREQ)
 2465              		.loc 1 1240 0
 2466 001a B0F5004F 		cmp	r0, #32768
 2467 001e 09D9     		bls	.L236
1241:Generated_Source\PSoC6\pdl\drivers\peripheral\sysclk/cy_sysclk.c ****         { /* piloFreq too high. Decrease the trim value. */
1242:Generated_Source\PSoC6\pdl\drivers\peripheral\sysclk/cy_sysclk.c ****             newTrim = curTrim - CY_SYSCLK_DIV_ROUND(piloFreq - CY_SYSCLK_PILO_TARGET_FREQ, CY_SYSCL
 2468              		.loc 1 1242 0
ARM GAS  C:\Users\gjl\AppData\Local\Temp\ccNVysBX.s 			page 89


 2469 0020 A0F5FF43 		sub	r3, r0, #32640
 2470 0024 7E3B     		subs	r3, r3, #126
 2471 0026 1748     		ldr	r0, .L243+4
 2472              	.LVL242:
 2473 0028 A0FB0313 		umull	r1, r3, r0, r3
 2474              	.LVL243:
1243:Generated_Source\PSoC6\pdl\drivers\peripheral\sysclk/cy_sysclk.c ****             if ((int32_t)newTrim < 0) /* limit underflow */
 2475              		.loc 1 1243 0
 2476 002c B2EB9300 		subs	r0, r2, r3, lsr #2
 2477              	.LVL244:
 2478 0030 11D5     		bpl	.L237
 2479 0032 0CE0     		b	.L239
 2480              	.LVL245:
 2481              	.L236:
1244:Generated_Source\PSoC6\pdl\drivers\peripheral\sysclk/cy_sysclk.c ****             {
1245:Generated_Source\PSoC6\pdl\drivers\peripheral\sysclk/cy_sysclk.c ****                 newTrim = 0;
1246:Generated_Source\PSoC6\pdl\drivers\peripheral\sysclk/cy_sysclk.c ****             }
1247:Generated_Source\PSoC6\pdl\drivers\peripheral\sysclk/cy_sysclk.c ****         }
1248:Generated_Source\PSoC6\pdl\drivers\peripheral\sysclk/cy_sysclk.c ****         else
1249:Generated_Source\PSoC6\pdl\drivers\peripheral\sysclk/cy_sysclk.c ****         { /* piloFreq too low. Increase the trim value. */
1250:Generated_Source\PSoC6\pdl\drivers\peripheral\sysclk/cy_sysclk.c ****             newTrim = curTrim + CY_SYSCLK_DIV_ROUND(CY_SYSCLK_PILO_TARGET_FREQ - piloFreq, CY_SYSCL
 2482              		.loc 1 1250 0
 2483 0034 C0F50043 		rsb	r3, r0, #32768
 2484 0038 0233     		adds	r3, r3, #2
 2485 003a 1248     		ldr	r0, .L243+4
 2486              	.LVL246:
 2487 003c A0FB0313 		umull	r1, r3, r0, r3
 2488 0040 02EB9300 		add	r0, r2, r3, lsr #2
 2489              	.LVL247:
1251:Generated_Source\PSoC6\pdl\drivers\peripheral\sysclk/cy_sysclk.c ****             if (newTrim >= SRSS_CLK_PILO_CONFIG_PILO_FFREQ_Msk) /* limit overflow */
 2490              		.loc 1 1251 0
 2491 0044 40F2FE33 		movw	r3, #1022
 2492 0048 9842     		cmp	r0, r3
 2493 004a 02D8     		bhi	.L240
 2494 004c 03E0     		b	.L237
 2495              	.L239:
1245:Generated_Source\PSoC6\pdl\drivers\peripheral\sysclk/cy_sysclk.c ****             }
 2496              		.loc 1 1245 0
 2497 004e 0020     		movs	r0, #0
 2498              	.LVL248:
 2499 0050 01E0     		b	.L237
 2500              	.LVL249:
 2501              	.L240:
1252:Generated_Source\PSoC6\pdl\drivers\peripheral\sysclk/cy_sysclk.c ****             {
1253:Generated_Source\PSoC6\pdl\drivers\peripheral\sysclk/cy_sysclk.c ****                 newTrim = SRSS_CLK_PILO_CONFIG_PILO_FFREQ_Msk;
 2502              		.loc 1 1253 0
 2503 0052 40F2FF30 		movw	r0, #1023
 2504              	.LVL250:
 2505              	.L237:
 2506              	.LBB47:
 2507              	.LBB48:
1127:Generated_Source\PSoC6\pdl\drivers\peripheral\sysclk/cy_sysclk.h **** }
 2508              		.loc 2 1127 0
 2509 0056 0A4C     		ldr	r4, .L243
 2510 0058 D4F83C35 		ldr	r3, [r4, #1340]
 2511 005c 23F47F73 		bic	r3, r3, #1020
 2512 0060 23F00303 		bic	r3, r3, #3
ARM GAS  C:\Users\gjl\AppData\Local\Temp\ccNVysBX.s 			page 90


 2513 0064 C0F30901 		ubfx	r1, r0, #0, #10
 2514 0068 0B43     		orrs	r3, r3, r1
 2515 006a C4F83C35 		str	r3, [r4, #1340]
 2516 006e 02E0     		b	.L235
 2517              	.LVL251:
 2518              	.L238:
 2519              		.cfi_def_cfa_offset 0
 2520              		.cfi_restore 4
 2521              	.LBE48:
 2522              	.LBE47:
1233:Generated_Source\PSoC6\pdl\drivers\peripheral\sysclk/cy_sysclk.c **** 
 2523              		.loc 1 1233 0
 2524 0070 0022     		movs	r2, #0
 2525              	.LVL252:
1254:Generated_Source\PSoC6\pdl\drivers\peripheral\sysclk/cy_sysclk.c ****             }
1255:Generated_Source\PSoC6\pdl\drivers\peripheral\sysclk/cy_sysclk.c ****         }
1256:Generated_Source\PSoC6\pdl\drivers\peripheral\sysclk/cy_sysclk.c ****         Cy_SysClk_PiloSetTrim(newTrim);
1257:Generated_Source\PSoC6\pdl\drivers\peripheral\sysclk/cy_sysclk.c ****     }
1258:Generated_Source\PSoC6\pdl\drivers\peripheral\sysclk/cy_sysclk.c **** 
1259:Generated_Source\PSoC6\pdl\drivers\peripheral\sysclk/cy_sysclk.c ****     return (int32_t)(curTrim - newTrim);
1260:Generated_Source\PSoC6\pdl\drivers\peripheral\sysclk/cy_sysclk.c **** }
 2526              		.loc 1 1260 0
 2527 0072 901A     		subs	r0, r2, r2
 2528              	.LVL253:
 2529 0074 7047     		bx	lr
 2530              	.LVL254:
 2531              	.L235:
 2532              		.cfi_def_cfa_offset 4
 2533              		.cfi_offset 4, -4
 2534 0076 101A     		subs	r0, r2, r0
 2535              	.LVL255:
 2536 0078 5DF8044B 		ldr	r4, [sp], #4
 2537              		.cfi_restore 4
 2538              		.cfi_def_cfa_offset 0
 2539 007c 7047     		bx	lr
 2540              	.L244:
 2541 007e 00BF     		.align	2
 2542              	.L243:
 2543 0080 00002640 		.word	1076232192
 2544 0084 CDCCCCCC 		.word	-858993459
 2545              		.cfi_endproc
 2546              	.LFE230:
 2547              		.size	Cy_SysClk_PiloTrim, .-Cy_SysClk_PiloTrim
 2548              		.section	.text.Cy_SysClk_DeepSleepCallback,"ax",%progbits
 2549              		.align	2
 2550              		.global	Cy_SysClk_DeepSleepCallback
 2551              		.thumb
 2552              		.thumb_func
 2553              		.type	Cy_SysClk_DeepSleepCallback, %function
 2554              	Cy_SysClk_DeepSleepCallback:
 2555              	.LFB231:
1261:Generated_Source\PSoC6\pdl\drivers\peripheral\sysclk/cy_sysclk.c **** /** \} group_sysclk_trim_funcs */
1262:Generated_Source\PSoC6\pdl\drivers\peripheral\sysclk/cy_sysclk.c **** 
1263:Generated_Source\PSoC6\pdl\drivers\peripheral\sysclk/cy_sysclk.c **** 
1264:Generated_Source\PSoC6\pdl\drivers\peripheral\sysclk/cy_sysclk.c **** /* ========================================================================== */
1265:Generated_Source\PSoC6\pdl\drivers\peripheral\sysclk/cy_sysclk.c **** /* ======================    POWER MANAGEMENT SECTION    ==================== */
1266:Generated_Source\PSoC6\pdl\drivers\peripheral\sysclk/cy_sysclk.c **** /* ========================================================================== */
ARM GAS  C:\Users\gjl\AppData\Local\Temp\ccNVysBX.s 			page 91


1267:Generated_Source\PSoC6\pdl\drivers\peripheral\sysclk/cy_sysclk.c **** /**
1268:Generated_Source\PSoC6\pdl\drivers\peripheral\sysclk/cy_sysclk.c **** * \addtogroup group_sysclk_pm_funcs
1269:Generated_Source\PSoC6\pdl\drivers\peripheral\sysclk/cy_sysclk.c **** * \{
1270:Generated_Source\PSoC6\pdl\drivers\peripheral\sysclk/cy_sysclk.c **** */
1271:Generated_Source\PSoC6\pdl\drivers\peripheral\sysclk/cy_sysclk.c **** /** \cond INTERNAL */
1272:Generated_Source\PSoC6\pdl\drivers\peripheral\sysclk/cy_sysclk.c **** /* timeout count for use in function Cy_SysClk_DeepSleepCallback() is sufficiently large for ~1 sec
1273:Generated_Source\PSoC6\pdl\drivers\peripheral\sysclk/cy_sysclk.c **** #define TIMEOUTK 5000000ul
1274:Generated_Source\PSoC6\pdl\drivers\peripheral\sysclk/cy_sysclk.c **** /** \endcond */
1275:Generated_Source\PSoC6\pdl\drivers\peripheral\sysclk/cy_sysclk.c **** 
1276:Generated_Source\PSoC6\pdl\drivers\peripheral\sysclk/cy_sysclk.c **** /*******************************************************************************
1277:Generated_Source\PSoC6\pdl\drivers\peripheral\sysclk/cy_sysclk.c **** * Function Name: Cy_SysClk_DeepSleepCallback
1278:Generated_Source\PSoC6\pdl\drivers\peripheral\sysclk/cy_sysclk.c **** ****************************************************************************//**
1279:Generated_Source\PSoC6\pdl\drivers\peripheral\sysclk/cy_sysclk.c **** *
1280:Generated_Source\PSoC6\pdl\drivers\peripheral\sysclk/cy_sysclk.c **** * Callback function to be used when entering chip deep-sleep mode. This function is
1281:Generated_Source\PSoC6\pdl\drivers\peripheral\sysclk/cy_sysclk.c **** * applicable for when either the FLL or the PLL is enabled. It performs the following:
1282:Generated_Source\PSoC6\pdl\drivers\peripheral\sysclk/cy_sysclk.c **** *
1283:Generated_Source\PSoC6\pdl\drivers\peripheral\sysclk/cy_sysclk.c **** * 1. Before entering deep-sleep, the clock configuration is saved in SRAM. If the
1284:Generated_Source\PSoC6\pdl\drivers\peripheral\sysclk/cy_sysclk.c **** *    FLL/PLL source is the ECO, then the source is updated to the IMO.
1285:Generated_Source\PSoC6\pdl\drivers\peripheral\sysclk/cy_sysclk.c **** * 2. Upon wakeup from deep-sleep, the function restores the configuration and 
1286:Generated_Source\PSoC6\pdl\drivers\peripheral\sysclk/cy_sysclk.c **** *    waits for the FLL/PLL to regain their frequency locks.
1287:Generated_Source\PSoC6\pdl\drivers\peripheral\sysclk/cy_sysclk.c **** *
1288:Generated_Source\PSoC6\pdl\drivers\peripheral\sysclk/cy_sysclk.c **** * The function prevents entry into DeepSleep mode if the measurement counters
1289:Generated_Source\PSoC6\pdl\drivers\peripheral\sysclk/cy_sysclk.c **** * are currently counting; see \ref Cy_SysClk_StartClkMeasurementCounters.
1290:Generated_Source\PSoC6\pdl\drivers\peripheral\sysclk/cy_sysclk.c **** *
1291:Generated_Source\PSoC6\pdl\drivers\peripheral\sysclk/cy_sysclk.c **** * This function can be called during execution of \ref Cy_SysPm_DeepSleep.
1292:Generated_Source\PSoC6\pdl\drivers\peripheral\sysclk/cy_sysclk.c **** * To do so, register this function as a callback before calling
1293:Generated_Source\PSoC6\pdl\drivers\peripheral\sysclk/cy_sysclk.c **** * \ref Cy_SysPm_DeepSleep - specify \ref CY_SYSPM_DEEPSLEEP as the callback
1294:Generated_Source\PSoC6\pdl\drivers\peripheral\sysclk/cy_sysclk.c **** * type and call \ref Cy_SysPm_RegisterCallback.
1295:Generated_Source\PSoC6\pdl\drivers\peripheral\sysclk/cy_sysclk.c **** *
1296:Generated_Source\PSoC6\pdl\drivers\peripheral\sysclk/cy_sysclk.c **** * \note This function must be the last callback function that is registered. 
1297:Generated_Source\PSoC6\pdl\drivers\peripheral\sysclk/cy_sysclk.c **** * Doing so minimizes the time spent on low power mode entry and exit. In the case
1298:Generated_Source\PSoC6\pdl\drivers\peripheral\sysclk/cy_sysclk.c **** * where the ECO sources the FLL/PLL, this also allows the ECO to stabilize before
1299:Generated_Source\PSoC6\pdl\drivers\peripheral\sysclk/cy_sysclk.c **** * reconnecting it to the FLL or PLL. 
1300:Generated_Source\PSoC6\pdl\drivers\peripheral\sysclk/cy_sysclk.c **** *
1301:Generated_Source\PSoC6\pdl\drivers\peripheral\sysclk/cy_sysclk.c **** * \param callbackParams
1302:Generated_Source\PSoC6\pdl\drivers\peripheral\sysclk/cy_sysclk.c **** * structure with the syspm callback parameters,
1303:Generated_Source\PSoC6\pdl\drivers\peripheral\sysclk/cy_sysclk.c **** * see \ref cy_stc_syspm_callback_params_t.
1304:Generated_Source\PSoC6\pdl\drivers\peripheral\sysclk/cy_sysclk.c **** *
1305:Generated_Source\PSoC6\pdl\drivers\peripheral\sysclk/cy_sysclk.c **** * \return Error / status code; see \ref cy_en_syspm_status_t. Pass if not doing
1306:Generated_Source\PSoC6\pdl\drivers\peripheral\sysclk/cy_sysclk.c **** * a clock measurement, otherwise Fail. Timeout if timeout waiting for FLL or a PLL
1307:Generated_Source\PSoC6\pdl\drivers\peripheral\sysclk/cy_sysclk.c **** * to regain its frequency lock.
1308:Generated_Source\PSoC6\pdl\drivers\peripheral\sysclk/cy_sysclk.c **** *
1309:Generated_Source\PSoC6\pdl\drivers\peripheral\sysclk/cy_sysclk.c **** * \funcusage
1310:Generated_Source\PSoC6\pdl\drivers\peripheral\sysclk/cy_sysclk.c **** * \snippet sysclk/sysclk_v1_10_sut_01.cydsn/main_cm4.c snippet_Cy_SysClk_DeepSleepCallback
1311:Generated_Source\PSoC6\pdl\drivers\peripheral\sysclk/cy_sysclk.c **** *
1312:Generated_Source\PSoC6\pdl\drivers\peripheral\sysclk/cy_sysclk.c **** *******************************************************************************/
1313:Generated_Source\PSoC6\pdl\drivers\peripheral\sysclk/cy_sysclk.c **** cy_en_syspm_status_t Cy_SysClk_DeepSleepCallback(cy_stc_syspm_callback_params_t *callbackParams)
1314:Generated_Source\PSoC6\pdl\drivers\peripheral\sysclk/cy_sysclk.c **** {
 2556              		.loc 1 1314 0
 2557              		.cfi_startproc
 2558              		@ args = 0, pretend = 0, frame = 0
 2559              		@ frame_needed = 0, uses_anonymous_args = 0
 2560              	.LVL256:
 2561 0000 70B5     		push	{r4, r5, r6, lr}
 2562              		.cfi_def_cfa_offset 16
 2563              		.cfi_offset 4, -16
 2564              		.cfi_offset 5, -12
ARM GAS  C:\Users\gjl\AppData\Local\Temp\ccNVysBX.s 			page 92


 2565              		.cfi_offset 6, -8
 2566              		.cfi_offset 14, -4
 2567              	.LVL257:
1315:Generated_Source\PSoC6\pdl\drivers\peripheral\sysclk/cy_sysclk.c ****     /* bitmapped paths and roots that may be affected by FLL or PLL being sourced by ECO */
1316:Generated_Source\PSoC6\pdl\drivers\peripheral\sysclk/cy_sysclk.c ****     static uint16_t changedSourcePaths;
1317:Generated_Source\PSoC6\pdl\drivers\peripheral\sysclk/cy_sysclk.c **** 
1318:Generated_Source\PSoC6\pdl\drivers\peripheral\sysclk/cy_sysclk.c ****     cy_en_syspm_status_t rtnval = CY_SYSPM_SUCCESS;
1319:Generated_Source\PSoC6\pdl\drivers\peripheral\sysclk/cy_sysclk.c **** 
1320:Generated_Source\PSoC6\pdl\drivers\peripheral\sysclk/cy_sysclk.c ****     CY_ASSERT_L1(callbackParams != NULL);
 2568              		.loc 1 1320 0
 2569 0002 0446     		mov	r4, r0
 2570 0004 20B9     		cbnz	r0, .L246
 2571              		.loc 1 1320 0 is_stmt 0 discriminator 1
 2572 0006 4FF4A561 		mov	r1, #1320
 2573 000a 5F48     		ldr	r0, .L283
 2574              	.LVL258:
 2575 000c FFF7FEFF 		bl	Cy_SysLib_AssertFailed
 2576              	.LVL259:
 2577              	.L246:
1321:Generated_Source\PSoC6\pdl\drivers\peripheral\sysclk/cy_sysclk.c **** 
1322:Generated_Source\PSoC6\pdl\drivers\peripheral\sysclk/cy_sysclk.c ****     /* Entry into DeepSleep mode tests */
1323:Generated_Source\PSoC6\pdl\drivers\peripheral\sysclk/cy_sysclk.c ****     if (callbackParams->mode == CY_SYSPM_CHECK_READY)
 2578              		.loc 1 1323 0 is_stmt 1
 2579 0010 2378     		ldrb	r3, [r4]	@ zero_extendqisi2
 2580 0012 012B     		cmp	r3, #1
 2581 0014 43D1     		bne	.L247
1324:Generated_Source\PSoC6\pdl\drivers\peripheral\sysclk/cy_sysclk.c ****     {
1325:Generated_Source\PSoC6\pdl\drivers\peripheral\sysclk/cy_sysclk.c ****         /* Don't allow entry into DeepSleep mode if currently measuring a frequency. */
1326:Generated_Source\PSoC6\pdl\drivers\peripheral\sysclk/cy_sysclk.c ****         if (clkCounting)
 2582              		.loc 1 1326 0
 2583 0016 5D4B     		ldr	r3, .L283+4
 2584 0018 5B78     		ldrb	r3, [r3, #1]	@ zero_extendqisi2
 2585 001a 002B     		cmp	r3, #0
 2586 001c 40F0AF80 		bne	.L275
 2587              	.LBB49:
1327:Generated_Source\PSoC6\pdl\drivers\peripheral\sysclk/cy_sysclk.c ****         {
1328:Generated_Source\PSoC6\pdl\drivers\peripheral\sysclk/cy_sysclk.c ****             rtnval = CY_SYSPM_FAIL;
1329:Generated_Source\PSoC6\pdl\drivers\peripheral\sysclk/cy_sysclk.c ****         }
1330:Generated_Source\PSoC6\pdl\drivers\peripheral\sysclk/cy_sysclk.c ****         else 
1331:Generated_Source\PSoC6\pdl\drivers\peripheral\sysclk/cy_sysclk.c ****         { /* Indicating that we can go into DeepSleep. Before doing so ... */
1332:Generated_Source\PSoC6\pdl\drivers\peripheral\sysclk/cy_sysclk.c ****             uint32_t fllpll; /* 0 = FLL, all other values = a PLL */
1333:Generated_Source\PSoC6\pdl\drivers\peripheral\sysclk/cy_sysclk.c **** 
1334:Generated_Source\PSoC6\pdl\drivers\peripheral\sysclk/cy_sysclk.c ****             /* initialize record of changed paths */
1335:Generated_Source\PSoC6\pdl\drivers\peripheral\sysclk/cy_sysclk.c ****             changedSourcePaths = 0u;
 2588              		.loc 1 1335 0
 2589 0020 0024     		movs	r4, #0
 2590              	.LVL260:
 2591 0022 5A4B     		ldr	r3, .L283+4
 2592 0024 1C81     		strh	r4, [r3, #8]	@ movhi
 2593              	.LVL261:
1336:Generated_Source\PSoC6\pdl\drivers\peripheral\sysclk/cy_sysclk.c **** 
1337:Generated_Source\PSoC6\pdl\drivers\peripheral\sysclk/cy_sysclk.c ****             /* for FLL and each PLL, */
1338:Generated_Source\PSoC6\pdl\drivers\peripheral\sysclk/cy_sysclk.c ****             for (fllpll = 0ul; fllpll < (SRSS_NUM_PLL + 1ul); fllpll++)
 2594              		.loc 1 1338 0
 2595 0026 33E0     		b	.L249
 2596              	.LVL262:
 2597              	.L255:
ARM GAS  C:\Users\gjl\AppData\Local\Temp\ccNVysBX.s 			page 93


1339:Generated_Source\PSoC6\pdl\drivers\peripheral\sysclk/cy_sysclk.c ****             {
1340:Generated_Source\PSoC6\pdl\drivers\peripheral\sysclk/cy_sysclk.c ****                 /* If FLL or PLL is enabled, */
1341:Generated_Source\PSoC6\pdl\drivers\peripheral\sysclk/cy_sysclk.c ****                 if (0ul != ((fllpll == 0ul) ? (_FLD2VAL(SRSS_CLK_FLL_CONFIG_FLL_ENABLE, SRSS->CLK_F
 2598              		.loc 1 1341 0
 2599 0028 24B9     		cbnz	r4, .L250
 2600              		.loc 1 1341 0 is_stmt 0 discriminator 1
 2601 002a 594B     		ldr	r3, .L283+8
 2602 002c D3F88035 		ldr	r3, [r3, #1408]
 2603 0030 DB0F     		lsrs	r3, r3, #31
 2604 0032 05E0     		b	.L251
 2605              	.L250:
1342:Generated_Source\PSoC6\pdl\drivers\peripheral\sysclk/cy_sysclk.c ****                                               (_FLD2VAL(SRSS_CLK_PLL_CONFIG_ENABLE, SRSS->CLK_PLL_C
 2606              		.loc 1 1342 0 is_stmt 1 discriminator 2
 2607 0034 04F27F13 		addw	r3, r4, #383
 2608 0038 554A     		ldr	r2, .L283+8
 2609 003a 52F82330 		ldr	r3, [r2, r3, lsl #2]
1341:Generated_Source\PSoC6\pdl\drivers\peripheral\sysclk/cy_sysclk.c ****                                               (_FLD2VAL(SRSS_CLK_PLL_CONFIG_ENABLE, SRSS->CLK_PLL_C
 2610              		.loc 1 1341 0 discriminator 2
 2611 003e DB0F     		lsrs	r3, r3, #31
 2612              	.L251:
1341:Generated_Source\PSoC6\pdl\drivers\peripheral\sysclk/cy_sysclk.c ****                                               (_FLD2VAL(SRSS_CLK_PLL_CONFIG_ENABLE, SRSS->CLK_PLL_C
 2613              		.loc 1 1341 0 is_stmt 0 discriminator 4
 2614 0040 2BB3     		cbz	r3, .L252
1343:Generated_Source\PSoC6\pdl\drivers\peripheral\sysclk/cy_sysclk.c ****                 {
1344:Generated_Source\PSoC6\pdl\drivers\peripheral\sysclk/cy_sysclk.c ****                     /* and the FLL or PLL has ECO as a source, */
1345:Generated_Source\PSoC6\pdl\drivers\peripheral\sysclk/cy_sysclk.c ****                     if (Cy_SysClk_ClkPathGetSource(fllpll) == CY_SYSCLK_CLKPATH_IN_ECO)
 2615              		.loc 1 1345 0 is_stmt 1
 2616 0042 2046     		mov	r0, r4
 2617 0044 FFF7FEFF 		bl	Cy_SysClk_ClkPathGetSource
 2618              	.LVL263:
 2619 0048 0228     		cmp	r0, #2
 2620 004a 0AD1     		bne	.L253
1346:Generated_Source\PSoC6\pdl\drivers\peripheral\sysclk/cy_sysclk.c ****                     {
1347:Generated_Source\PSoC6\pdl\drivers\peripheral\sysclk/cy_sysclk.c ****                         /* Change this FLL or PLL source to IMO */
1348:Generated_Source\PSoC6\pdl\drivers\peripheral\sysclk/cy_sysclk.c ****                         (void)Cy_SysClk_ClkPathSetSource(fllpll, CY_SYSCLK_CLKPATH_IN_IMO);
 2621              		.loc 1 1348 0
 2622 004c 0021     		movs	r1, #0
 2623 004e 2046     		mov	r0, r4
 2624 0050 FFF7FEFF 		bl	Cy_SysClk_ClkPathSetSource
 2625              	.LVL264:
1349:Generated_Source\PSoC6\pdl\drivers\peripheral\sysclk/cy_sysclk.c ****                         /* keep a record that this FLL or PLL's source was changed from ECO */
1350:Generated_Source\PSoC6\pdl\drivers\peripheral\sysclk/cy_sysclk.c ****                         changedSourcePaths |= (uint16_t)(1u << fllpll);
 2626              		.loc 1 1350 0
 2627 0054 0123     		movs	r3, #1
 2628 0056 03FA04F2 		lsl	r2, r3, r4
 2629 005a 4C49     		ldr	r1, .L283+4
 2630 005c 0B89     		ldrh	r3, [r1, #8]
 2631 005e 1343     		orrs	r3, r3, r2
 2632 0060 0B81     		strh	r3, [r1, #8]	@ movhi
 2633              	.L253:
1351:Generated_Source\PSoC6\pdl\drivers\peripheral\sysclk/cy_sysclk.c ****                     }
1352:Generated_Source\PSoC6\pdl\drivers\peripheral\sysclk/cy_sysclk.c ****                     
1353:Generated_Source\PSoC6\pdl\drivers\peripheral\sysclk/cy_sysclk.c ****                     /* Set the FLL/PLL bypass mode to 2 */
1354:Generated_Source\PSoC6\pdl\drivers\peripheral\sysclk/cy_sysclk.c ****                     if(fllpll == 0UL)
 2634              		.loc 1 1354 0
 2635 0062 4CB9     		cbnz	r4, .L254
1355:Generated_Source\PSoC6\pdl\drivers\peripheral\sysclk/cy_sysclk.c ****                     {
ARM GAS  C:\Users\gjl\AppData\Local\Temp\ccNVysBX.s 			page 94


1356:Generated_Source\PSoC6\pdl\drivers\peripheral\sysclk/cy_sysclk.c ****                         CY_SYSCLK_CLR_SET(SRSS->CLK_FLL_CONFIG3, SRSS_CLK_FLL_CONFIG3_BYPASS_SEL, (
 2636              		.loc 1 1356 0
 2637 0064 4A4A     		ldr	r2, .L283+8
 2638 0066 D2F88835 		ldr	r3, [r2, #1416]
 2639 006a 23F04053 		bic	r3, r3, #805306368
 2640 006e 43F00053 		orr	r3, r3, #536870912
 2641 0072 C2F88835 		str	r3, [r2, #1416]
 2642 0076 0AE0     		b	.L252
 2643              	.L254:
1357:Generated_Source\PSoC6\pdl\drivers\peripheral\sysclk/cy_sysclk.c ****                     }
1358:Generated_Source\PSoC6\pdl\drivers\peripheral\sysclk/cy_sysclk.c ****                     else
1359:Generated_Source\PSoC6\pdl\drivers\peripheral\sysclk/cy_sysclk.c ****                     {
1360:Generated_Source\PSoC6\pdl\drivers\peripheral\sysclk/cy_sysclk.c ****                         CY_SYSCLK_CLR_SET(SRSS->CLK_PLL_CONFIG[fllpll - 1ul], SRSS_CLK_PLL_CONFIG_B
 2644              		.loc 1 1360 0
 2645 0078 454A     		ldr	r2, .L283+8
 2646 007a 04F27F11 		addw	r1, r4, #383
 2647 007e 52F82130 		ldr	r3, [r2, r1, lsl #2]
 2648 0082 23F04053 		bic	r3, r3, #805306368
 2649 0086 43F00053 		orr	r3, r3, #536870912
 2650 008a 42F82130 		str	r3, [r2, r1, lsl #2]
 2651              	.L252:
1338:Generated_Source\PSoC6\pdl\drivers\peripheral\sysclk/cy_sysclk.c ****             {
 2652              		.loc 1 1338 0 discriminator 2
 2653 008e 0134     		adds	r4, r4, #1
 2654              	.LVL265:
 2655              	.L249:
1338:Generated_Source\PSoC6\pdl\drivers\peripheral\sysclk/cy_sysclk.c ****             {
 2656              		.loc 1 1338 0 is_stmt 0 discriminator 1
 2657 0090 012C     		cmp	r4, #1
 2658 0092 C9D9     		bls	.L255
1361:Generated_Source\PSoC6\pdl\drivers\peripheral\sysclk/cy_sysclk.c ****                     }
1362:Generated_Source\PSoC6\pdl\drivers\peripheral\sysclk/cy_sysclk.c ****                 }
1363:Generated_Source\PSoC6\pdl\drivers\peripheral\sysclk/cy_sysclk.c ****             }
1364:Generated_Source\PSoC6\pdl\drivers\peripheral\sysclk/cy_sysclk.c ****             
1365:Generated_Source\PSoC6\pdl\drivers\peripheral\sysclk/cy_sysclk.c ****             /* Prevent starting a new clock measurement until after we've come back from DeepSleep.
1366:Generated_Source\PSoC6\pdl\drivers\peripheral\sysclk/cy_sysclk.c ****             preventCounting = true;
 2659              		.loc 1 1366 0 is_stmt 1
 2660 0094 0122     		movs	r2, #1
 2661 0096 3D4B     		ldr	r3, .L283+4
 2662 0098 1A70     		strb	r2, [r3]
 2663              	.LBE49:
1318:Generated_Source\PSoC6\pdl\drivers\peripheral\sysclk/cy_sysclk.c **** 
 2664              		.loc 1 1318 0
 2665 009a 0026     		movs	r6, #0
 2666 009c 72E0     		b	.L248
 2667              	.LVL266:
 2668              	.L247:
1367:Generated_Source\PSoC6\pdl\drivers\peripheral\sysclk/cy_sysclk.c ****         }
1368:Generated_Source\PSoC6\pdl\drivers\peripheral\sysclk/cy_sysclk.c ****     }
1369:Generated_Source\PSoC6\pdl\drivers\peripheral\sysclk/cy_sysclk.c **** 
1370:Generated_Source\PSoC6\pdl\drivers\peripheral\sysclk/cy_sysclk.c ****     /* After return from DeepSleep, for each FLL and PLL, if needed, restore the source to ECO.
1371:Generated_Source\PSoC6\pdl\drivers\peripheral\sysclk/cy_sysclk.c ****        And block until the FLL or PLL has regained its frequency locks. */
1372:Generated_Source\PSoC6\pdl\drivers\peripheral\sysclk/cy_sysclk.c ****     else if (callbackParams->mode == CY_SYSPM_AFTER_TRANSITION)
 2669              		.loc 1 1372 0
 2670 009e 082B     		cmp	r3, #8
 2671 00a0 6FD1     		bne	.L276
1373:Generated_Source\PSoC6\pdl\drivers\peripheral\sysclk/cy_sysclk.c ****     {
ARM GAS  C:\Users\gjl\AppData\Local\Temp\ccNVysBX.s 			page 95


1374:Generated_Source\PSoC6\pdl\drivers\peripheral\sysclk/cy_sysclk.c ****         /* if any FLL/PLL was sourced by the ECO, timeout wait for the ECO to become fully stabiliz
1375:Generated_Source\PSoC6\pdl\drivers\peripheral\sysclk/cy_sysclk.c ****         if (changedSourcePaths != 0u)
 2672              		.loc 1 1375 0
 2673 00a2 3A4B     		ldr	r3, .L283+4
 2674 00a4 1B89     		ldrh	r3, [r3, #8]
 2675 00a6 1BB9     		cbnz	r3, .L277
1318:Generated_Source\PSoC6\pdl\drivers\peripheral\sysclk/cy_sysclk.c **** 
 2676              		.loc 1 1318 0
 2677 00a8 0026     		movs	r6, #0
 2678 00aa 12E0     		b	.L257
 2679              	.LVL267:
 2680              	.L260:
 2681              	.LBB50:
1376:Generated_Source\PSoC6\pdl\drivers\peripheral\sysclk/cy_sysclk.c ****         {
1377:Generated_Source\PSoC6\pdl\drivers\peripheral\sysclk/cy_sysclk.c ****             uint32_t timeout;
1378:Generated_Source\PSoC6\pdl\drivers\peripheral\sysclk/cy_sysclk.c ****             /* Cy_SysClk_EcoGetStatus()return value 2ul = fully stabilized */
1379:Generated_Source\PSoC6\pdl\drivers\peripheral\sysclk/cy_sysclk.c ****             for (timeout = TIMEOUTK; (timeout != 0ul) && (Cy_SysClk_EcoGetStatus() != 2ul); timeout
 2682              		.loc 1 1379 0 discriminator 4
 2683 00ac 013A     		subs	r2, r2, #1
 2684              	.LVL268:
 2685 00ae 00E0     		b	.L256
 2686              	.LVL269:
 2687              	.L277:
 2688              	.LBE50:
 2689 00b0 384A     		ldr	r2, .L283+12
 2690              	.L256:
 2691              	.LVL270:
 2692              	.LBB53:
 2693              		.loc 1 1379 0 is_stmt 0 discriminator 1
 2694 00b2 52B1     		cbz	r2, .L258
 2695              	.LBB51:
 2696              	.LBB52:
 687:Generated_Source\PSoC6\pdl\drivers\peripheral\sysclk/cy_sysclk.h ****     /* if ECO is not ready, just report the ECO_OK bit. Otherwise report 2 = ECO ready */
 2697              		.loc 2 687 0 is_stmt 1
 2698 00b4 364B     		ldr	r3, .L283+8
 2699 00b6 D3F83015 		ldr	r1, [r3, #1328]
 2700 00ba 01F00303 		and	r3, r1, #3
 2701              	.LVL271:
 689:Generated_Source\PSoC6\pdl\drivers\peripheral\sysclk/cy_sysclk.h **** }
 2702              		.loc 2 689 0
 2703 00be 11F0020F 		tst	r1, #2
 2704 00c2 00D0     		beq	.L259
 2705 00c4 0223     		movs	r3, #2
 2706              	.LVL272:
 2707              	.L259:
 2708              	.LBE52:
 2709              	.LBE51:
 2710              		.loc 1 1379 0
 2711 00c6 022B     		cmp	r3, #2
 2712 00c8 F0D1     		bne	.L260
 2713              	.L258:
1380:Generated_Source\PSoC6\pdl\drivers\peripheral\sysclk/cy_sysclk.c ****             if (timeout == 0ul)
 2714              		.loc 1 1380 0
 2715 00ca 0AB1     		cbz	r2, .L279
 2716              	.LBE53:
1318:Generated_Source\PSoC6\pdl\drivers\peripheral\sysclk/cy_sysclk.c **** 
 2717              		.loc 1 1318 0
ARM GAS  C:\Users\gjl\AppData\Local\Temp\ccNVysBX.s 			page 96


 2718 00cc 0026     		movs	r6, #0
 2719 00ce 00E0     		b	.L257
 2720              	.L279:
 2721              	.LBB54:
1381:Generated_Source\PSoC6\pdl\drivers\peripheral\sysclk/cy_sysclk.c ****             {
1382:Generated_Source\PSoC6\pdl\drivers\peripheral\sysclk/cy_sysclk.c ****                 rtnval = CY_SYSPM_TIMEOUT;
 2722              		.loc 1 1382 0
 2723 00d0 314E     		ldr	r6, .L283+16
 2724              	.LVL273:
 2725              	.L257:
 2726              	.LBE54:
1383:Generated_Source\PSoC6\pdl\drivers\peripheral\sysclk/cy_sysclk.c ****             }
1384:Generated_Source\PSoC6\pdl\drivers\peripheral\sysclk/cy_sysclk.c ****         }
1385:Generated_Source\PSoC6\pdl\drivers\peripheral\sysclk/cy_sysclk.c ****         
1386:Generated_Source\PSoC6\pdl\drivers\peripheral\sysclk/cy_sysclk.c ****         if(rtnval == CY_SYSPM_SUCCESS)
 2727              		.loc 1 1386 0
 2728 00d2 002E     		cmp	r6, #0
 2729 00d4 4CD0     		beq	.L280
 2730              	.LBB55:
 2731 00d6 4EE0     		b	.L262
 2732              	.LVL274:
 2733              	.L274:
1387:Generated_Source\PSoC6\pdl\drivers\peripheral\sysclk/cy_sysclk.c ****         {
1388:Generated_Source\PSoC6\pdl\drivers\peripheral\sysclk/cy_sysclk.c ****             /* for FLL and each PLL, */
1389:Generated_Source\PSoC6\pdl\drivers\peripheral\sysclk/cy_sysclk.c ****             uint32_t fllpll; /* 0 = FLL, all other values = a PLL */
1390:Generated_Source\PSoC6\pdl\drivers\peripheral\sysclk/cy_sysclk.c ****             for (fllpll = 0ul; fllpll < (SRSS_NUM_PLL + 1ul); fllpll++)
1391:Generated_Source\PSoC6\pdl\drivers\peripheral\sysclk/cy_sysclk.c ****             {
1392:Generated_Source\PSoC6\pdl\drivers\peripheral\sysclk/cy_sysclk.c ****                 /* If FLL or PLL is enabled, */
1393:Generated_Source\PSoC6\pdl\drivers\peripheral\sysclk/cy_sysclk.c ****                 if (0ul != ((fllpll == 0ul) ? (_FLD2VAL(SRSS_CLK_FLL_CONFIG_FLL_ENABLE, SRSS->CLK_F
 2734              		.loc 1 1393 0
 2735 00d8 24B9     		cbnz	r4, .L263
 2736              		.loc 1 1393 0 is_stmt 0 discriminator 1
 2737 00da 2D4B     		ldr	r3, .L283+8
 2738 00dc D3F88035 		ldr	r3, [r3, #1408]
 2739 00e0 DB0F     		lsrs	r3, r3, #31
 2740 00e2 05E0     		b	.L264
 2741              	.L263:
1394:Generated_Source\PSoC6\pdl\drivers\peripheral\sysclk/cy_sysclk.c ****                                               (_FLD2VAL(SRSS_CLK_PLL_CONFIG_ENABLE, SRSS->CLK_PLL_C
 2742              		.loc 1 1394 0 is_stmt 1 discriminator 2
 2743 00e4 04F27F13 		addw	r3, r4, #383
 2744 00e8 294A     		ldr	r2, .L283+8
 2745 00ea 52F82330 		ldr	r3, [r2, r3, lsl #2]
1393:Generated_Source\PSoC6\pdl\drivers\peripheral\sysclk/cy_sysclk.c ****                                               (_FLD2VAL(SRSS_CLK_PLL_CONFIG_ENABLE, SRSS->CLK_PLL_C
 2746              		.loc 1 1393 0 discriminator 2
 2747 00ee DB0F     		lsrs	r3, r3, #31
 2748              	.L264:
1393:Generated_Source\PSoC6\pdl\drivers\peripheral\sysclk/cy_sysclk.c ****                                               (_FLD2VAL(SRSS_CLK_PLL_CONFIG_ENABLE, SRSS->CLK_PLL_C
 2749              		.loc 1 1393 0 is_stmt 0 discriminator 4
 2750 00f0 002B     		cmp	r3, #0
 2751 00f2 3BD0     		beq	.L265
 2752              	.LBB56:
1395:Generated_Source\PSoC6\pdl\drivers\peripheral\sysclk/cy_sysclk.c ****                 {
1396:Generated_Source\PSoC6\pdl\drivers\peripheral\sysclk/cy_sysclk.c ****                     /* check the record that this FLL or PLL's source was changed from ECO */
1397:Generated_Source\PSoC6\pdl\drivers\peripheral\sysclk/cy_sysclk.c ****                     if ((changedSourcePaths & (uint16_t)(1u << fllpll)) != 0u)
 2753              		.loc 1 1397 0 is_stmt 1
 2754 00f4 0123     		movs	r3, #1
 2755 00f6 A340     		lsls	r3, r3, r4
ARM GAS  C:\Users\gjl\AppData\Local\Temp\ccNVysBX.s 			page 97


 2756 00f8 244A     		ldr	r2, .L283+4
 2757 00fa 1289     		ldrh	r2, [r2, #8]
 2758 00fc 1342     		tst	r3, r2
 2759 00fe 03D0     		beq	.L266
1398:Generated_Source\PSoC6\pdl\drivers\peripheral\sysclk/cy_sysclk.c ****                     {
1399:Generated_Source\PSoC6\pdl\drivers\peripheral\sysclk/cy_sysclk.c ****                         /* Change this FLL or PLL source back to ECO */
1400:Generated_Source\PSoC6\pdl\drivers\peripheral\sysclk/cy_sysclk.c ****                         (void)Cy_SysClk_ClkPathSetSource(fllpll, CY_SYSCLK_CLKPATH_IN_ECO);
 2760              		.loc 1 1400 0
 2761 0100 0221     		movs	r1, #2
 2762 0102 2046     		mov	r0, r4
 2763 0104 FFF7FEFF 		bl	Cy_SysClk_ClkPathSetSource
 2764              	.LVL275:
 2765              	.L266:
 2766              	.LBE56:
 2767              	.LBE55:
 2768              	.LBB62:
1382:Generated_Source\PSoC6\pdl\drivers\peripheral\sysclk/cy_sysclk.c ****             }
 2769              		.loc 1 1382 0 discriminator 1
 2770 0108 224D     		ldr	r5, .L283+12
 2771 010a 18E0     		b	.L267
 2772              	.LVL276:
 2773              	.L272:
 2774              	.LBE62:
 2775              	.LBB63:
 2776              	.LBB61:
1401:Generated_Source\PSoC6\pdl\drivers\peripheral\sysclk/cy_sysclk.c ****                     }
1402:Generated_Source\PSoC6\pdl\drivers\peripheral\sysclk/cy_sysclk.c ****                     
1403:Generated_Source\PSoC6\pdl\drivers\peripheral\sysclk/cy_sysclk.c ****                     /* Timeout wait for FLL or PLL to regain lock. */
1404:Generated_Source\PSoC6\pdl\drivers\peripheral\sysclk/cy_sysclk.c ****                     uint32_t timout;
1405:Generated_Source\PSoC6\pdl\drivers\peripheral\sysclk/cy_sysclk.c ****                     for (timout = TIMEOUTK; timout != 0ul; timout--)
1406:Generated_Source\PSoC6\pdl\drivers\peripheral\sysclk/cy_sysclk.c ****                     {
1407:Generated_Source\PSoC6\pdl\drivers\peripheral\sysclk/cy_sysclk.c ****                         if (true == ((fllpll == 0ul) ? Cy_SysClk_FllLocked() : Cy_SysClk_PllLocked(
 2777              		.loc 1 1407 0
 2778 010c 34B9     		cbnz	r4, .L268
 2779              	.LBB57:
 2780              	.LBB58:
 810:Generated_Source\PSoC6\pdl\drivers\peripheral\sysclk/cy_sysclk.h **** }
 2781              		.loc 2 810 0
 2782 010e 204B     		ldr	r3, .L283+8
 2783 0110 D3F89035 		ldr	r3, [r3, #1424]
 2784 0114 03F00103 		and	r3, r3, #1
 2785 0118 DBB2     		uxtb	r3, r3
 2786              	.LBE58:
 2787              	.LBE57:
 2788 011a 0EE0     		b	.L269
 2789              	.L268:
 2790              	.LVL277:
 2791              	.LBB59:
 2792              	.LBB60:
 918:Generated_Source\PSoC6\pdl\drivers\peripheral\sysclk/cy_sysclk.h ****     return (bool)(_FLD2VAL(SRSS_CLK_PLL_STATUS_LOCKED, SRSS->CLK_PLL_STATUS[clkPath - 1ul]));
 2793              		.loc 2 918 0
 2794 011c 012C     		cmp	r4, #1
 2795 011e 04D0     		beq	.L270
 2796 0120 40F29631 		movw	r1, #918
 2797 0124 1D48     		ldr	r0, .L283+20
 2798 0126 FFF7FEFF 		bl	Cy_SysLib_AssertFailed
 2799              	.LVL278:
ARM GAS  C:\Users\gjl\AppData\Local\Temp\ccNVysBX.s 			page 98


 2800              	.L270:
 919:Generated_Source\PSoC6\pdl\drivers\peripheral\sysclk/cy_sysclk.h **** }
 2801              		.loc 2 919 0
 2802 012a 04F28F13 		addw	r3, r4, #399
 2803 012e 184A     		ldr	r2, .L283+8
 2804 0130 52F82330 		ldr	r3, [r2, r3, lsl #2]
 2805 0134 03F00103 		and	r3, r3, #1
 2806 0138 DBB2     		uxtb	r3, r3
 2807              	.LVL279:
 2808              	.L269:
 2809              	.LBE60:
 2810              	.LBE59:
 2811              		.loc 1 1407 0 discriminator 4
 2812 013a 13B9     		cbnz	r3, .L271
1405:Generated_Source\PSoC6\pdl\drivers\peripheral\sysclk/cy_sysclk.c ****                     {
 2813              		.loc 1 1405 0 discriminator 2
 2814 013c 013D     		subs	r5, r5, #1
 2815              	.LVL280:
 2816              	.L267:
1405:Generated_Source\PSoC6\pdl\drivers\peripheral\sysclk/cy_sysclk.c ****                     {
 2817              		.loc 1 1405 0 is_stmt 0 discriminator 1
 2818 013e 002D     		cmp	r5, #0
 2819 0140 E4D1     		bne	.L272
 2820              	.L271:
1408:Generated_Source\PSoC6\pdl\drivers\peripheral\sysclk/cy_sysclk.c ****                         {
1409:Generated_Source\PSoC6\pdl\drivers\peripheral\sysclk/cy_sysclk.c ****                             break;
1410:Generated_Source\PSoC6\pdl\drivers\peripheral\sysclk/cy_sysclk.c ****                         }
1411:Generated_Source\PSoC6\pdl\drivers\peripheral\sysclk/cy_sysclk.c ****                     }
1412:Generated_Source\PSoC6\pdl\drivers\peripheral\sysclk/cy_sysclk.c ****                     if (timout == 0ul)
 2821              		.loc 1 1412 0 is_stmt 1
 2822 0142 95B1     		cbz	r5, .L281
1413:Generated_Source\PSoC6\pdl\drivers\peripheral\sysclk/cy_sysclk.c ****                     {
1414:Generated_Source\PSoC6\pdl\drivers\peripheral\sysclk/cy_sysclk.c ****                         rtnval = CY_SYSPM_TIMEOUT;
1415:Generated_Source\PSoC6\pdl\drivers\peripheral\sysclk/cy_sysclk.c ****                     }
1416:Generated_Source\PSoC6\pdl\drivers\peripheral\sysclk/cy_sysclk.c ****                     else
1417:Generated_Source\PSoC6\pdl\drivers\peripheral\sysclk/cy_sysclk.c ****                     {
1418:Generated_Source\PSoC6\pdl\drivers\peripheral\sysclk/cy_sysclk.c ****                         /* Set the FLL/PLL bypass mode to 3 */
1419:Generated_Source\PSoC6\pdl\drivers\peripheral\sysclk/cy_sysclk.c ****                         if(fllpll == 0UL)
 2823              		.loc 1 1419 0
 2824 0144 3CB9     		cbnz	r4, .L273
1420:Generated_Source\PSoC6\pdl\drivers\peripheral\sysclk/cy_sysclk.c ****                         {
1421:Generated_Source\PSoC6\pdl\drivers\peripheral\sysclk/cy_sysclk.c ****                             CY_SYSCLK_CLR_SET(SRSS->CLK_FLL_CONFIG3, SRSS_CLK_FLL_CONFIG3_BYPASS_SE
 2825              		.loc 1 1421 0
 2826 0146 124A     		ldr	r2, .L283+8
 2827 0148 D2F88835 		ldr	r3, [r2, #1416]
 2828 014c 43F04053 		orr	r3, r3, #805306368
 2829 0150 C2F88835 		str	r3, [r2, #1416]
 2830 0154 0AE0     		b	.L265
 2831              	.L273:
1422:Generated_Source\PSoC6\pdl\drivers\peripheral\sysclk/cy_sysclk.c ****                         }
1423:Generated_Source\PSoC6\pdl\drivers\peripheral\sysclk/cy_sysclk.c ****                         else
1424:Generated_Source\PSoC6\pdl\drivers\peripheral\sysclk/cy_sysclk.c ****                         {
1425:Generated_Source\PSoC6\pdl\drivers\peripheral\sysclk/cy_sysclk.c ****                             CY_SYSCLK_CLR_SET(SRSS->CLK_PLL_CONFIG[fllpll - 1ul], SRSS_CLK_PLL_CONF
 2832              		.loc 1 1425 0
 2833 0156 0E4A     		ldr	r2, .L283+8
 2834 0158 04F27F11 		addw	r1, r4, #383
 2835 015c 52F82130 		ldr	r3, [r2, r1, lsl #2]
ARM GAS  C:\Users\gjl\AppData\Local\Temp\ccNVysBX.s 			page 99


 2836 0160 43F04053 		orr	r3, r3, #805306368
 2837 0164 42F82130 		str	r3, [r2, r1, lsl #2]
 2838 0168 00E0     		b	.L265
 2839              	.L281:
1414:Generated_Source\PSoC6\pdl\drivers\peripheral\sysclk/cy_sysclk.c ****                     }
 2840              		.loc 1 1414 0
 2841 016a 0B4E     		ldr	r6, .L283+16
 2842              	.LVL281:
 2843              	.L265:
 2844              	.LBE61:
1390:Generated_Source\PSoC6\pdl\drivers\peripheral\sysclk/cy_sysclk.c ****             {
 2845              		.loc 1 1390 0 discriminator 2
 2846 016c 0134     		adds	r4, r4, #1
 2847              	.LVL282:
 2848 016e 00E0     		b	.L261
 2849              	.LVL283:
 2850              	.L280:
 2851              	.LBE63:
 2852 0170 0024     		movs	r4, #0
 2853              	.LVL284:
 2854              	.L261:
 2855              	.LBB64:
1390:Generated_Source\PSoC6\pdl\drivers\peripheral\sysclk/cy_sysclk.c ****             {
 2856              		.loc 1 1390 0 is_stmt 0 discriminator 1
 2857 0172 012C     		cmp	r4, #1
 2858 0174 B0D9     		bls	.L274
 2859              	.LVL285:
 2860              	.L262:
 2861              	.LBE64:
1426:Generated_Source\PSoC6\pdl\drivers\peripheral\sysclk/cy_sysclk.c ****                         }
1427:Generated_Source\PSoC6\pdl\drivers\peripheral\sysclk/cy_sysclk.c ****                     }
1428:Generated_Source\PSoC6\pdl\drivers\peripheral\sysclk/cy_sysclk.c ****                 }
1429:Generated_Source\PSoC6\pdl\drivers\peripheral\sysclk/cy_sysclk.c ****             }
1430:Generated_Source\PSoC6\pdl\drivers\peripheral\sysclk/cy_sysclk.c ****         }
1431:Generated_Source\PSoC6\pdl\drivers\peripheral\sysclk/cy_sysclk.c ****         
1432:Generated_Source\PSoC6\pdl\drivers\peripheral\sysclk/cy_sysclk.c ****         /* Allow clock measurement. */
1433:Generated_Source\PSoC6\pdl\drivers\peripheral\sysclk/cy_sysclk.c ****         preventCounting = false;
 2862              		.loc 1 1433 0 is_stmt 1
 2863 0176 0022     		movs	r2, #0
 2864 0178 044B     		ldr	r3, .L283+4
 2865 017a 1A70     		strb	r2, [r3]
 2866 017c 02E0     		b	.L248
 2867              	.LVL286:
 2868              	.L275:
1328:Generated_Source\PSoC6\pdl\drivers\peripheral\sysclk/cy_sysclk.c ****         }
 2869              		.loc 1 1328 0
 2870 017e 084E     		ldr	r6, .L283+24
 2871 0180 00E0     		b	.L248
 2872              	.L276:
1318:Generated_Source\PSoC6\pdl\drivers\peripheral\sysclk/cy_sysclk.c **** 
 2873              		.loc 1 1318 0
 2874 0182 0026     		movs	r6, #0
 2875              	.LVL287:
 2876              	.L248:
1434:Generated_Source\PSoC6\pdl\drivers\peripheral\sysclk/cy_sysclk.c ****     }
1435:Generated_Source\PSoC6\pdl\drivers\peripheral\sysclk/cy_sysclk.c **** 
1436:Generated_Source\PSoC6\pdl\drivers\peripheral\sysclk/cy_sysclk.c ****     /* No other modes need be checked. */
ARM GAS  C:\Users\gjl\AppData\Local\Temp\ccNVysBX.s 			page 100


1437:Generated_Source\PSoC6\pdl\drivers\peripheral\sysclk/cy_sysclk.c ****     else
1438:Generated_Source\PSoC6\pdl\drivers\peripheral\sysclk/cy_sysclk.c ****     {
1439:Generated_Source\PSoC6\pdl\drivers\peripheral\sysclk/cy_sysclk.c ****     }
1440:Generated_Source\PSoC6\pdl\drivers\peripheral\sysclk/cy_sysclk.c **** 
1441:Generated_Source\PSoC6\pdl\drivers\peripheral\sysclk/cy_sysclk.c ****     return rtnval;
1442:Generated_Source\PSoC6\pdl\drivers\peripheral\sysclk/cy_sysclk.c **** }
 2877              		.loc 1 1442 0
 2878 0184 3046     		mov	r0, r6
 2879 0186 70BD     		pop	{r4, r5, r6, pc}
 2880              	.LVL288:
 2881              	.L284:
 2882              		.align	2
 2883              	.L283:
 2884 0188 00000000 		.word	.LC3
 2885 018c 00000000 		.word	.LANCHOR1
 2886 0190 00002640 		.word	1076232192
 2887 0194 404B4C00 		.word	5000000
 2888 0198 02004200 		.word	4325378
 2889 019c 44000000 		.word	.LC4
 2890 01a0 FF004200 		.word	4325631
 2891              		.cfi_endproc
 2892              	.LFE231:
 2893              		.size	Cy_SysClk_DeepSleepCallback, .-Cy_SysClk_DeepSleepCallback
 2894              		.section	.text.Cy_SysClk_PeriphGetFrequency,"ax",%progbits
 2895              		.align	2
 2896              		.global	Cy_SysClk_PeriphGetFrequency
 2897              		.thumb
 2898              		.thumb_func
 2899              		.type	Cy_SysClk_PeriphGetFrequency, %function
 2900              	Cy_SysClk_PeriphGetFrequency:
 2901              	.LFB232:
1443:Generated_Source\PSoC6\pdl\drivers\peripheral\sysclk/cy_sysclk.c **** /** \} group_sysclk_pm_funcs */
1444:Generated_Source\PSoC6\pdl\drivers\peripheral\sysclk/cy_sysclk.c **** 
1445:Generated_Source\PSoC6\pdl\drivers\peripheral\sysclk/cy_sysclk.c **** 
1446:Generated_Source\PSoC6\pdl\drivers\peripheral\sysclk/cy_sysclk.c **** /* ========================================================================== */
1447:Generated_Source\PSoC6\pdl\drivers\peripheral\sysclk/cy_sysclk.c **** /* ===========================    WCO SECTION    ============================ */
1448:Generated_Source\PSoC6\pdl\drivers\peripheral\sysclk/cy_sysclk.c **** /* ========================================================================== */
1449:Generated_Source\PSoC6\pdl\drivers\peripheral\sysclk/cy_sysclk.c **** /**
1450:Generated_Source\PSoC6\pdl\drivers\peripheral\sysclk/cy_sysclk.c **** * \addtogroup group_sysclk_wco_funcs
1451:Generated_Source\PSoC6\pdl\drivers\peripheral\sysclk/cy_sysclk.c **** * \{
1452:Generated_Source\PSoC6\pdl\drivers\peripheral\sysclk/cy_sysclk.c **** */
1453:Generated_Source\PSoC6\pdl\drivers\peripheral\sysclk/cy_sysclk.c **** #if (SRSS_WCOCSV_PRESENT != 0) || defined(CY_DOXYGEN)
1454:Generated_Source\PSoC6\pdl\drivers\peripheral\sysclk/cy_sysclk.c **** /*******************************************************************************
1455:Generated_Source\PSoC6\pdl\drivers\peripheral\sysclk/cy_sysclk.c **** * Function Name: Cy_SysClk_WcoConfigureCsv
1456:Generated_Source\PSoC6\pdl\drivers\peripheral\sysclk/cy_sysclk.c **** ****************************************************************************//**
1457:Generated_Source\PSoC6\pdl\drivers\peripheral\sysclk/cy_sysclk.c **** *
1458:Generated_Source\PSoC6\pdl\drivers\peripheral\sysclk/cy_sysclk.c **** * Configure the WCO clock supervisor (CSV).
1459:Generated_Source\PSoC6\pdl\drivers\peripheral\sysclk/cy_sysclk.c **** *
1460:Generated_Source\PSoC6\pdl\drivers\peripheral\sysclk/cy_sysclk.c **** * \param config \ref cy_stc_wco_csv_config_t
1461:Generated_Source\PSoC6\pdl\drivers\peripheral\sysclk/cy_sysclk.c **** *
1462:Generated_Source\PSoC6\pdl\drivers\peripheral\sysclk/cy_sysclk.c **** * \note
1463:Generated_Source\PSoC6\pdl\drivers\peripheral\sysclk/cy_sysclk.c **** * If loss detection is enabled, writes to other register bits are ignored.
1464:Generated_Source\PSoC6\pdl\drivers\peripheral\sysclk/cy_sysclk.c **** * Therefore loss detection is disabled before writing the config structure
1465:Generated_Source\PSoC6\pdl\drivers\peripheral\sysclk/cy_sysclk.c **** * members to the CTL register. Note that one of the config structure members is
1466:Generated_Source\PSoC6\pdl\drivers\peripheral\sysclk/cy_sysclk.c **** * an enable bit.
1467:Generated_Source\PSoC6\pdl\drivers\peripheral\sysclk/cy_sysclk.c **** *******************************************************************************/
1468:Generated_Source\PSoC6\pdl\drivers\peripheral\sysclk/cy_sysclk.c **** void Cy_SysClk_WcoConfigureCsv(const cy_stc_wco_csv_config_t *config)
ARM GAS  C:\Users\gjl\AppData\Local\Temp\ccNVysBX.s 			page 101


1469:Generated_Source\PSoC6\pdl\drivers\peripheral\sysclk/cy_sysclk.c **** {
1470:Generated_Source\PSoC6\pdl\drivers\peripheral\sysclk/cy_sysclk.c ****     CY_ASSERT_L1(config != NULL);
1471:Generated_Source\PSoC6\pdl\drivers\peripheral\sysclk/cy_sysclk.c ****     CY_ASSERT_L3(config->supervisorClock <= CY_SYSCLK_WCO_CSV_SUPERVISOR_PILO);
1472:Generated_Source\PSoC6\pdl\drivers\peripheral\sysclk/cy_sysclk.c ****     CY_ASSERT_L3(config->lossWindow      <= CY_SYSCLK_CSV_LOSS_512_CYCLES);
1473:Generated_Source\PSoC6\pdl\drivers\peripheral\sysclk/cy_sysclk.c ****     CY_ASSERT_L3(config->lossAction      <= CY_SYSCLK_CSV_ERROR_FAULT_RESET);
1474:Generated_Source\PSoC6\pdl\drivers\peripheral\sysclk/cy_sysclk.c **** 
1475:Generated_Source\PSoC6\pdl\drivers\peripheral\sysclk/cy_sysclk.c ****     /* First clear all bits, including the enable bit; disable loss detection. */
1476:Generated_Source\PSoC6\pdl\drivers\peripheral\sysclk/cy_sysclk.c ****     SRSS->CLK_CSV_WCO_CTL = 0ul;
1477:Generated_Source\PSoC6\pdl\drivers\peripheral\sysclk/cy_sysclk.c ****     /* Then write the structure elements (which include an enable bit) to the register. */
1478:Generated_Source\PSoC6\pdl\drivers\peripheral\sysclk/cy_sysclk.c ****     SRSS->CLK_CSV_WCO_CTL = _VAL2FLD(SRSS_CLK_CSV_WCO_CTL_CSV_MUX, (uint32_t)config->supervisorCloc
1479:Generated_Source\PSoC6\pdl\drivers\peripheral\sysclk/cy_sysclk.c ****                             _VAL2FLD(SRSS_CLK_CSV_WCO_CTL_CSV_LOSS_WINDOW, (uint32_t)(config->lossW
1480:Generated_Source\PSoC6\pdl\drivers\peripheral\sysclk/cy_sysclk.c ****                             _VAL2FLD(SRSS_CLK_CSV_WCO_CTL_CSV_LOSS_ACTION, (uint32_t)(config->lossA
1481:Generated_Source\PSoC6\pdl\drivers\peripheral\sysclk/cy_sysclk.c ****                             _VAL2FLD(SRSS_CLK_CSV_WCO_CTL_CSV_LOSS_EN, config->enableLossDetection)
1482:Generated_Source\PSoC6\pdl\drivers\peripheral\sysclk/cy_sysclk.c **** }
1483:Generated_Source\PSoC6\pdl\drivers\peripheral\sysclk/cy_sysclk.c **** #endif /* (SRSS_WCOCSV_PRESENT != 0) || defined(CY_DOXYGEN) */
1484:Generated_Source\PSoC6\pdl\drivers\peripheral\sysclk/cy_sysclk.c **** /** \} group_sysclk_wco_funcs */
1485:Generated_Source\PSoC6\pdl\drivers\peripheral\sysclk/cy_sysclk.c **** 
1486:Generated_Source\PSoC6\pdl\drivers\peripheral\sysclk/cy_sysclk.c **** 
1487:Generated_Source\PSoC6\pdl\drivers\peripheral\sysclk/cy_sysclk.c **** /* ========================================================================== */
1488:Generated_Source\PSoC6\pdl\drivers\peripheral\sysclk/cy_sysclk.c **** /* =========================    clkHf[n] SECTION    ========================= */
1489:Generated_Source\PSoC6\pdl\drivers\peripheral\sysclk/cy_sysclk.c **** /* ========================================================================== */
1490:Generated_Source\PSoC6\pdl\drivers\peripheral\sysclk/cy_sysclk.c **** /**
1491:Generated_Source\PSoC6\pdl\drivers\peripheral\sysclk/cy_sysclk.c **** * \addtogroup group_sysclk_clk_hf_funcs
1492:Generated_Source\PSoC6\pdl\drivers\peripheral\sysclk/cy_sysclk.c **** * \{
1493:Generated_Source\PSoC6\pdl\drivers\peripheral\sysclk/cy_sysclk.c **** */
1494:Generated_Source\PSoC6\pdl\drivers\peripheral\sysclk/cy_sysclk.c **** #if (SRSS_MASK_HFCSV != 0)  || defined(CY_DOXYGEN)
1495:Generated_Source\PSoC6\pdl\drivers\peripheral\sysclk/cy_sysclk.c **** /*******************************************************************************
1496:Generated_Source\PSoC6\pdl\drivers\peripheral\sysclk/cy_sysclk.c **** * Function Name: Cy_SysClk_ClkHfConfigureCsv
1497:Generated_Source\PSoC6\pdl\drivers\peripheral\sysclk/cy_sysclk.c **** ****************************************************************************//**
1498:Generated_Source\PSoC6\pdl\drivers\peripheral\sysclk/cy_sysclk.c **** *
1499:Generated_Source\PSoC6\pdl\drivers\peripheral\sysclk/cy_sysclk.c **** * Configures the clkHf clock supervisor (CSV).
1500:Generated_Source\PSoC6\pdl\drivers\peripheral\sysclk/cy_sysclk.c **** *
1501:Generated_Source\PSoC6\pdl\drivers\peripheral\sysclk/cy_sysclk.c **** * \param clkHf selects which clkHf CSV to configure.
1502:Generated_Source\PSoC6\pdl\drivers\peripheral\sysclk/cy_sysclk.c **** *
1503:Generated_Source\PSoC6\pdl\drivers\peripheral\sysclk/cy_sysclk.c **** * \param config \ref cy_stc_clkhf_csv_config_t
1504:Generated_Source\PSoC6\pdl\drivers\peripheral\sysclk/cy_sysclk.c **** *
1505:Generated_Source\PSoC6\pdl\drivers\peripheral\sysclk/cy_sysclk.c **** * \return Error / status code: CY_SYSCLK_INVALID_STATE if clkHf CSV is not present
1506:Generated_Source\PSoC6\pdl\drivers\peripheral\sysclk/cy_sysclk.c **** * in the device, else CY_SYSCLK_SUCCESS
1507:Generated_Source\PSoC6\pdl\drivers\peripheral\sysclk/cy_sysclk.c **** *
1508:Generated_Source\PSoC6\pdl\drivers\peripheral\sysclk/cy_sysclk.c **** * \note
1509:Generated_Source\PSoC6\pdl\drivers\peripheral\sysclk/cy_sysclk.c **** * If loss detection is enabled, writes to other register bits are ignored.
1510:Generated_Source\PSoC6\pdl\drivers\peripheral\sysclk/cy_sysclk.c **** * Therefore loss detection is disabled before writing the config structure
1511:Generated_Source\PSoC6\pdl\drivers\peripheral\sysclk/cy_sysclk.c **** * members to the CTL register. Note that one of the config structure members is
1512:Generated_Source\PSoC6\pdl\drivers\peripheral\sysclk/cy_sysclk.c **** * an enable bit.
1513:Generated_Source\PSoC6\pdl\drivers\peripheral\sysclk/cy_sysclk.c **** *******************************************************************************/
1514:Generated_Source\PSoC6\pdl\drivers\peripheral\sysclk/cy_sysclk.c **** cy_en_sysclk_status_t Cy_SysClk_ClkHfConfigureCsv(uint32_t clkHf, const cy_stc_clkhf_csv_config_t *
1515:Generated_Source\PSoC6\pdl\drivers\peripheral\sysclk/cy_sysclk.c **** {
1516:Generated_Source\PSoC6\pdl\drivers\peripheral\sysclk/cy_sysclk.c ****     CY_ASSERT_L1(clkHf < SRSS_NUM_HFROOT);
1517:Generated_Source\PSoC6\pdl\drivers\peripheral\sysclk/cy_sysclk.c ****     CY_ASSERT_L1(config != NULL);
1518:Generated_Source\PSoC6\pdl\drivers\peripheral\sysclk/cy_sysclk.c ****     CY_ASSERT_L3(config->supervisorClock <= CY_SYSCLK_CLKHF_CSV_SUPERVISOR_ALTHF);
1519:Generated_Source\PSoC6\pdl\drivers\peripheral\sysclk/cy_sysclk.c ****     CY_ASSERT_L3(config->frequencyAction <= CY_SYSCLK_CSV_ERROR_FAULT_RESET);
1520:Generated_Source\PSoC6\pdl\drivers\peripheral\sysclk/cy_sysclk.c ****     CY_ASSERT_L3(config->lossWindow      <= CY_SYSCLK_CSV_LOSS_512_CYCLES);
1521:Generated_Source\PSoC6\pdl\drivers\peripheral\sysclk/cy_sysclk.c ****     CY_ASSERT_L3(config->lossAction      <= CY_SYSCLK_CSV_ERROR_FAULT_RESET);
1522:Generated_Source\PSoC6\pdl\drivers\peripheral\sysclk/cy_sysclk.c **** 
1523:Generated_Source\PSoC6\pdl\drivers\peripheral\sysclk/cy_sysclk.c ****     /* First update the limit bits; this can be done regardless of enable state. */
1524:Generated_Source\PSoC6\pdl\drivers\peripheral\sysclk/cy_sysclk.c ****     SRSS->CLK_CSV[clkHf].HF_LIMIT = _VAL2FLD(CLK_CSV_HF_LIMIT_UPPER_LIMIT, config->frequencyUpperLi
1525:Generated_Source\PSoC6\pdl\drivers\peripheral\sysclk/cy_sysclk.c ****                                     _VAL2FLD(CLK_CSV_HF_LIMIT_LOWER_LIMIT, config->frequencyLowerLi
ARM GAS  C:\Users\gjl\AppData\Local\Temp\ccNVysBX.s 			page 102


1526:Generated_Source\PSoC6\pdl\drivers\peripheral\sysclk/cy_sysclk.c ****     /* Then clear all CTL register bits, including the enable bit; disable loss detection. */
1527:Generated_Source\PSoC6\pdl\drivers\peripheral\sysclk/cy_sysclk.c ****     SRSS->CLK_CSV[clkHf].HF_CTL = 0ul;
1528:Generated_Source\PSoC6\pdl\drivers\peripheral\sysclk/cy_sysclk.c ****     /* Finally, write the structure elements (which include an enable bit) to the CTL register. */
1529:Generated_Source\PSoC6\pdl\drivers\peripheral\sysclk/cy_sysclk.c ****     SRSS->CLK_CSV[clkHf].HF_CTL = _VAL2FLD(CLK_CSV_HF_CTL_CSV_LOSS_EN, config->enableLossDetection)
1530:Generated_Source\PSoC6\pdl\drivers\peripheral\sysclk/cy_sysclk.c ****                                   _VAL2FLD(CLK_CSV_HF_CTL_CSV_LOSS_ACTION, (uint32_t)(config->lossA
1531:Generated_Source\PSoC6\pdl\drivers\peripheral\sysclk/cy_sysclk.c ****                                   _VAL2FLD(CLK_CSV_HF_CTL_CSV_FREQ_EN, config->enableFrequencyFault
1532:Generated_Source\PSoC6\pdl\drivers\peripheral\sysclk/cy_sysclk.c ****                                   _VAL2FLD(CLK_CSV_HF_CTL_CSV_FREQ_ACTION, (uint32_t)(config->frequ
1533:Generated_Source\PSoC6\pdl\drivers\peripheral\sysclk/cy_sysclk.c ****                                   _VAL2FLD(CLK_CSV_HF_CTL_CSV_LOSS_WINDOW, (uint32_t)(config->lossW
1534:Generated_Source\PSoC6\pdl\drivers\peripheral\sysclk/cy_sysclk.c ****                                   _VAL2FLD(CLK_CSV_HF_CTL_CSV_MUX, (uint32_t)(config->supervisorClo
1535:Generated_Source\PSoC6\pdl\drivers\peripheral\sysclk/cy_sysclk.c ****                                   _VAL2FLD(CLK_CSV_HF_CTL_CSV_FREQ_WINDOW, config->supervisingWindo
1536:Generated_Source\PSoC6\pdl\drivers\peripheral\sysclk/cy_sysclk.c ****     return CY_SYSCLK_SUCCESS; /* placeholder */
1537:Generated_Source\PSoC6\pdl\drivers\peripheral\sysclk/cy_sysclk.c **** }
1538:Generated_Source\PSoC6\pdl\drivers\peripheral\sysclk/cy_sysclk.c **** #endif /* (SRSS_MASK_HFCSV != 0)  || defined(CY_DOXYGEN) */
1539:Generated_Source\PSoC6\pdl\drivers\peripheral\sysclk/cy_sysclk.c **** /** \} group_sysclk_clk_hf_funcs */
1540:Generated_Source\PSoC6\pdl\drivers\peripheral\sysclk/cy_sysclk.c **** 
1541:Generated_Source\PSoC6\pdl\drivers\peripheral\sysclk/cy_sysclk.c **** 
1542:Generated_Source\PSoC6\pdl\drivers\peripheral\sysclk/cy_sysclk.c **** /* ========================================================================== */
1543:Generated_Source\PSoC6\pdl\drivers\peripheral\sysclk/cy_sysclk.c **** /* =====================    clk_peripherals SECTION    ====================== */
1544:Generated_Source\PSoC6\pdl\drivers\peripheral\sysclk/cy_sysclk.c **** /* ========================================================================== */
1545:Generated_Source\PSoC6\pdl\drivers\peripheral\sysclk/cy_sysclk.c **** /**
1546:Generated_Source\PSoC6\pdl\drivers\peripheral\sysclk/cy_sysclk.c **** * \addtogroup group_sysclk_clk_peripheral_funcs
1547:Generated_Source\PSoC6\pdl\drivers\peripheral\sysclk/cy_sysclk.c **** * \{
1548:Generated_Source\PSoC6\pdl\drivers\peripheral\sysclk/cy_sysclk.c **** */
1549:Generated_Source\PSoC6\pdl\drivers\peripheral\sysclk/cy_sysclk.c **** /*******************************************************************************
1550:Generated_Source\PSoC6\pdl\drivers\peripheral\sysclk/cy_sysclk.c **** * Function Name: Cy_SysClk_PeriphGetFrequency
1551:Generated_Source\PSoC6\pdl\drivers\peripheral\sysclk/cy_sysclk.c **** ****************************************************************************//**
1552:Generated_Source\PSoC6\pdl\drivers\peripheral\sysclk/cy_sysclk.c **** *
1553:Generated_Source\PSoC6\pdl\drivers\peripheral\sysclk/cy_sysclk.c **** * Reports the frequency of the output of a given peripheral divider.
1554:Generated_Source\PSoC6\pdl\drivers\peripheral\sysclk/cy_sysclk.c **** *
1555:Generated_Source\PSoC6\pdl\drivers\peripheral\sysclk/cy_sysclk.c **** * \param dividerType specifies which type of divider to use; \ref cy_en_divider_types_t
1556:Generated_Source\PSoC6\pdl\drivers\peripheral\sysclk/cy_sysclk.c **** *
1557:Generated_Source\PSoC6\pdl\drivers\peripheral\sysclk/cy_sysclk.c **** * \param dividerNum specifies which divider of the selected type to configure
1558:Generated_Source\PSoC6\pdl\drivers\peripheral\sysclk/cy_sysclk.c **** *
1559:Generated_Source\PSoC6\pdl\drivers\peripheral\sysclk/cy_sysclk.c **** * \return The frequency, in Hz.
1560:Generated_Source\PSoC6\pdl\drivers\peripheral\sysclk/cy_sysclk.c **** *
1561:Generated_Source\PSoC6\pdl\drivers\peripheral\sysclk/cy_sysclk.c **** * \note
1562:Generated_Source\PSoC6\pdl\drivers\peripheral\sysclk/cy_sysclk.c **** * The reported frequency may be zero, which indicates unknown. This happens if
1563:Generated_Source\PSoC6\pdl\drivers\peripheral\sysclk/cy_sysclk.c **** * the source input is clk_ext, ECO, clk_althf, dsi_out, or clk_altlf.
1564:Generated_Source\PSoC6\pdl\drivers\peripheral\sysclk/cy_sysclk.c **** *
1565:Generated_Source\PSoC6\pdl\drivers\peripheral\sysclk/cy_sysclk.c **** * \funcusage
1566:Generated_Source\PSoC6\pdl\drivers\peripheral\sysclk/cy_sysclk.c **** * \snippet sysclk/sysclk_v1_10_sut_01.cydsn/main_cm4.c snippet_Cy_SysClk_PeriphGetFrequency
1567:Generated_Source\PSoC6\pdl\drivers\peripheral\sysclk/cy_sysclk.c **** *
1568:Generated_Source\PSoC6\pdl\drivers\peripheral\sysclk/cy_sysclk.c **** *******************************************************************************/
1569:Generated_Source\PSoC6\pdl\drivers\peripheral\sysclk/cy_sysclk.c **** uint32_t Cy_SysClk_PeriphGetFrequency(cy_en_divider_types_t dividerType, uint32_t dividerNum)
1570:Generated_Source\PSoC6\pdl\drivers\peripheral\sysclk/cy_sysclk.c **** {
 2902              		.loc 1 1570 0
 2903              		.cfi_startproc
 2904              		@ args = 0, pretend = 0, frame = 40
 2905              		@ frame_needed = 0, uses_anonymous_args = 0
 2906              	.LVL289:
 2907 0000 2DE9F041 		push	{r4, r5, r6, r7, r8, lr}
 2908              		.cfi_def_cfa_offset 24
 2909              		.cfi_offset 4, -24
 2910              		.cfi_offset 5, -20
 2911              		.cfi_offset 6, -16
 2912              		.cfi_offset 7, -12
 2913              		.cfi_offset 8, -8
ARM GAS  C:\Users\gjl\AppData\Local\Temp\ccNVysBX.s 			page 103


 2914              		.cfi_offset 14, -4
 2915 0004 8AB0     		sub	sp, sp, #40
 2916              		.cfi_def_cfa_offset 64
 2917 0006 0F46     		mov	r7, r1
 2918              	.LVL290:
1571:Generated_Source\PSoC6\pdl\drivers\peripheral\sysclk/cy_sysclk.c ****     uint32_t rtnval = 0ul; /* 0 = unknown frequency */
1572:Generated_Source\PSoC6\pdl\drivers\peripheral\sysclk/cy_sysclk.c **** 
1573:Generated_Source\PSoC6\pdl\drivers\peripheral\sysclk/cy_sysclk.c ****     CY_ASSERT_L1(((dividerType == CY_SYSCLK_DIV_8_BIT)    && (dividerNum < PERI_DIV_8_NR))    ||
 2919              		.loc 1 1573 0
 2920 0008 0646     		mov	r6, r0
 2921 000a 08B9     		cbnz	r0, .L286
 2922              		.loc 1 1573 0 is_stmt 0 discriminator 2
 2923 000c 0729     		cmp	r1, #7
 2924 000e 0FD9     		bls	.L287
 2925              	.L286:
 2926              		.loc 1 1573 0 discriminator 3
 2927 0010 012E     		cmp	r6, #1
 2928 0012 01D1     		bne	.L288
 2929              		.loc 1 1573 0 discriminator 5
 2930 0014 0F2F     		cmp	r7, #15
 2931 0016 0BD9     		bls	.L287
 2932              	.L288:
 2933              		.loc 1 1573 0 discriminator 6
 2934 0018 022E     		cmp	r6, #2
 2935 001a 01D1     		bne	.L289
 2936              		.loc 1 1573 0 discriminator 8
 2937 001c 032F     		cmp	r7, #3
 2938 001e 07D9     		bls	.L287
 2939              	.L289:
 2940              		.loc 1 1573 0 discriminator 9
 2941 0020 032E     		cmp	r6, #3
 2942 0022 00D1     		bne	.L290
 2943              		.loc 1 1573 0 discriminator 11
 2944 0024 27B1     		cbz	r7, .L287
 2945              	.L290:
 2946              		.loc 1 1573 0 discriminator 12
 2947 0026 4FF4C561 		mov	r1, #1576
 2948              	.LVL291:
 2949 002a 8A48     		ldr	r0, .L325
 2950              	.LVL292:
 2951 002c FFF7FEFF 		bl	Cy_SysLib_AssertFailed
 2952              	.LVL293:
 2953              	.L287:
1574:Generated_Source\PSoC6\pdl\drivers\peripheral\sysclk/cy_sysclk.c ****                  ((dividerType == CY_SYSCLK_DIV_16_BIT)   && (dividerNum < PERI_DIV_16_NR))   ||
1575:Generated_Source\PSoC6\pdl\drivers\peripheral\sysclk/cy_sysclk.c ****                  ((dividerType == CY_SYSCLK_DIV_16_5_BIT) && (dividerNum < PERI_DIV_16_5_NR)) ||
1576:Generated_Source\PSoC6\pdl\drivers\peripheral\sysclk/cy_sysclk.c ****                  ((dividerType == CY_SYSCLK_DIV_24_5_BIT) && (dividerNum < PERI_DIV_24_5_NR)));
1577:Generated_Source\PSoC6\pdl\drivers\peripheral\sysclk/cy_sysclk.c **** 
1578:Generated_Source\PSoC6\pdl\drivers\peripheral\sysclk/cy_sysclk.c ****     /* FLL or PLL configuration parameters */
1579:Generated_Source\PSoC6\pdl\drivers\peripheral\sysclk/cy_sysclk.c ****     union
1580:Generated_Source\PSoC6\pdl\drivers\peripheral\sysclk/cy_sysclk.c ****     {
1581:Generated_Source\PSoC6\pdl\drivers\peripheral\sysclk/cy_sysclk.c ****         cy_stc_fll_manual_config_t fll;
1582:Generated_Source\PSoC6\pdl\drivers\peripheral\sysclk/cy_sysclk.c ****         struct
1583:Generated_Source\PSoC6\pdl\drivers\peripheral\sysclk/cy_sysclk.c ****         {
1584:Generated_Source\PSoC6\pdl\drivers\peripheral\sysclk/cy_sysclk.c ****             uint8_t feedbackDiv;
1585:Generated_Source\PSoC6\pdl\drivers\peripheral\sysclk/cy_sysclk.c ****             uint8_t referenceDiv;
1586:Generated_Source\PSoC6\pdl\drivers\peripheral\sysclk/cy_sysclk.c ****             uint8_t outputDiv;
1587:Generated_Source\PSoC6\pdl\drivers\peripheral\sysclk/cy_sysclk.c ****         } pll;
ARM GAS  C:\Users\gjl\AppData\Local\Temp\ccNVysBX.s 			page 104


1588:Generated_Source\PSoC6\pdl\drivers\peripheral\sysclk/cy_sysclk.c ****     } fllpll = {0ul};
 2954              		.loc 1 1588 0 is_stmt 1
 2955 0030 0023     		movs	r3, #0
 2956 0032 0593     		str	r3, [sp, #20]
 2957 0034 0693     		str	r3, [sp, #24]
 2958 0036 0793     		str	r3, [sp, #28]
 2959 0038 0893     		str	r3, [sp, #32]
 2960 003a 0993     		str	r3, [sp, #36]
 2961              	.LVL294:
1589:Generated_Source\PSoC6\pdl\drivers\peripheral\sysclk/cy_sysclk.c **** 
1590:Generated_Source\PSoC6\pdl\drivers\peripheral\sysclk/cy_sysclk.c ****     /* variables holding intermediate clock sources and dividers */
1591:Generated_Source\PSoC6\pdl\drivers\peripheral\sysclk/cy_sysclk.c ****     cy_en_fll_pll_output_mode_t mode = CY_SYSCLK_FLLPLL_OUTPUT_AUTO; /* FLL or PLL mode; n/a for di
1592:Generated_Source\PSoC6\pdl\drivers\peripheral\sysclk/cy_sysclk.c ****     bool                     locked = 0;      /* FLL or PLL lock status; n/a for direct */
1593:Generated_Source\PSoC6\pdl\drivers\peripheral\sysclk/cy_sysclk.c ****     cy_en_clkpath_in_sources_t  source;       /* source input for path (FLL, PLL, or direct) */
1594:Generated_Source\PSoC6\pdl\drivers\peripheral\sysclk/cy_sysclk.c ****     uint32_t                 source_freq;     /* source clock frequency, in Hz */
1595:Generated_Source\PSoC6\pdl\drivers\peripheral\sysclk/cy_sysclk.c ****     cy_en_clkhf_in_sources_t path;            /* source input for root 0 (clkHf[0]) */
1596:Generated_Source\PSoC6\pdl\drivers\peripheral\sysclk/cy_sysclk.c ****     uint32_t                 path_freq = 0ul; /* path (FLL, PLL, or direct) frequency, in Hz */
1597:Generated_Source\PSoC6\pdl\drivers\peripheral\sysclk/cy_sysclk.c ****     uint32_t                 root_div;        /* root prescaler (1/2/4/8) */
1598:Generated_Source\PSoC6\pdl\drivers\peripheral\sysclk/cy_sysclk.c ****     uint32_t                 clkHf0_div;      /* clkHf[0] predivider to clk_peri */
1599:Generated_Source\PSoC6\pdl\drivers\peripheral\sysclk/cy_sysclk.c **** 
1600:Generated_Source\PSoC6\pdl\drivers\peripheral\sysclk/cy_sysclk.c ****     /* clk_peri divider to selected peripheral clock */
1601:Generated_Source\PSoC6\pdl\drivers\peripheral\sysclk/cy_sysclk.c ****     struct
1602:Generated_Source\PSoC6\pdl\drivers\peripheral\sysclk/cy_sysclk.c ****     {
1603:Generated_Source\PSoC6\pdl\drivers\peripheral\sysclk/cy_sysclk.c ****         uint32_t integer;
1604:Generated_Source\PSoC6\pdl\drivers\peripheral\sysclk/cy_sysclk.c ****         uint32_t frac;
1605:Generated_Source\PSoC6\pdl\drivers\peripheral\sysclk/cy_sysclk.c ****     } clkdiv = {0ul, 0ul};
 2962              		.loc 1 1605 0
 2963 003c 0393     		str	r3, [sp, #12]
 2964 003e 0493     		str	r3, [sp, #16]
 2965              	.LVL295:
 2966              	.LBB80:
 2967              	.LBB81:
1143:Generated_Source\PSoC6\pdl\drivers\peripheral\sysclk/cy_sysclk.h **** }
1144:Generated_Source\PSoC6\pdl\drivers\peripheral\sysclk/cy_sysclk.h **** /** \} group_sysclk_pilo_funcs */
1145:Generated_Source\PSoC6\pdl\drivers\peripheral\sysclk/cy_sysclk.h **** 
1146:Generated_Source\PSoC6\pdl\drivers\peripheral\sysclk/cy_sysclk.h **** 
1147:Generated_Source\PSoC6\pdl\drivers\peripheral\sysclk/cy_sysclk.h **** /* ========================================================================== */
1148:Generated_Source\PSoC6\pdl\drivers\peripheral\sysclk/cy_sysclk.h **** /* ====================    CLOCK MEASUREMENT SECTION    ===================== */
1149:Generated_Source\PSoC6\pdl\drivers\peripheral\sysclk/cy_sysclk.h **** /* ========================================================================== */
1150:Generated_Source\PSoC6\pdl\drivers\peripheral\sysclk/cy_sysclk.h **** /**
1151:Generated_Source\PSoC6\pdl\drivers\peripheral\sysclk/cy_sysclk.h **** * \addtogroup group_sysclk_calclk_enums
1152:Generated_Source\PSoC6\pdl\drivers\peripheral\sysclk/cy_sysclk.h **** * \{
1153:Generated_Source\PSoC6\pdl\drivers\peripheral\sysclk/cy_sysclk.h **** */
1154:Generated_Source\PSoC6\pdl\drivers\peripheral\sysclk/cy_sysclk.h **** /** Defines all possible clock sources. */
1155:Generated_Source\PSoC6\pdl\drivers\peripheral\sysclk/cy_sysclk.h **** typedef enum
1156:Generated_Source\PSoC6\pdl\drivers\peripheral\sysclk/cy_sysclk.h **** {
1157:Generated_Source\PSoC6\pdl\drivers\peripheral\sysclk/cy_sysclk.h ****     CY_SYSCLK_MEAS_CLK_ILO =           1u,
1158:Generated_Source\PSoC6\pdl\drivers\peripheral\sysclk/cy_sysclk.h ****     CY_SYSCLK_MEAS_CLK_WCO =           2u,
1159:Generated_Source\PSoC6\pdl\drivers\peripheral\sysclk/cy_sysclk.h ****     CY_SYSCLK_MEAS_CLK_BAK =           3u,
1160:Generated_Source\PSoC6\pdl\drivers\peripheral\sysclk/cy_sysclk.h ****     CY_SYSCLK_MEAS_CLK_ALTLF =         4u,
1161:Generated_Source\PSoC6\pdl\drivers\peripheral\sysclk/cy_sysclk.h ****     CY_SYSCLK_MEAS_CLK_LFCLK =         5u,
1162:Generated_Source\PSoC6\pdl\drivers\peripheral\sysclk/cy_sysclk.h ****     CY_SYSCLK_MEAS_CLK_IMO =           6u,
1163:Generated_Source\PSoC6\pdl\drivers\peripheral\sysclk/cy_sysclk.h ****     CY_SYSCLK_MEAS_CLK_PILO =          8u,
1164:Generated_Source\PSoC6\pdl\drivers\peripheral\sysclk/cy_sysclk.h ****     CY_SYSCLK_MEAS_CLK_FAST_CLKS =     0x100u,
1165:Generated_Source\PSoC6\pdl\drivers\peripheral\sysclk/cy_sysclk.h ****     CY_SYSCLK_MEAS_CLK_ECO =           0x101u,
1166:Generated_Source\PSoC6\pdl\drivers\peripheral\sysclk/cy_sysclk.h ****     CY_SYSCLK_MEAS_CLK_EXT =           0x102u,
1167:Generated_Source\PSoC6\pdl\drivers\peripheral\sysclk/cy_sysclk.h ****     CY_SYSCLK_MEAS_CLK_ALTHF =         0x103u,
ARM GAS  C:\Users\gjl\AppData\Local\Temp\ccNVysBX.s 			page 105


1168:Generated_Source\PSoC6\pdl\drivers\peripheral\sysclk/cy_sysclk.h ****     CY_SYSCLK_MEAS_CLK_PATH_CLKS =     0x500u,
1169:Generated_Source\PSoC6\pdl\drivers\peripheral\sysclk/cy_sysclk.h ****     CY_SYSCLK_MEAS_CLK_PATH0 =         0x500u,
1170:Generated_Source\PSoC6\pdl\drivers\peripheral\sysclk/cy_sysclk.h ****     CY_SYSCLK_MEAS_CLK_PATH1 =         0x501u,
1171:Generated_Source\PSoC6\pdl\drivers\peripheral\sysclk/cy_sysclk.h ****     CY_SYSCLK_MEAS_CLK_PATH2 =         0x502u,
1172:Generated_Source\PSoC6\pdl\drivers\peripheral\sysclk/cy_sysclk.h ****     CY_SYSCLK_MEAS_CLK_PATH3 =         0x503u,
1173:Generated_Source\PSoC6\pdl\drivers\peripheral\sysclk/cy_sysclk.h ****     CY_SYSCLK_MEAS_CLK_PATH4 =         0x504u,
1174:Generated_Source\PSoC6\pdl\drivers\peripheral\sysclk/cy_sysclk.h ****     CY_SYSCLK_MEAS_CLK_PATH5 =         0x505u,
1175:Generated_Source\PSoC6\pdl\drivers\peripheral\sysclk/cy_sysclk.h ****     CY_SYSCLK_MEAS_CLK_PATH6 =         0x506u,
1176:Generated_Source\PSoC6\pdl\drivers\peripheral\sysclk/cy_sysclk.h ****     CY_SYSCLK_MEAS_CLK_PATH7 =         0x507u,
1177:Generated_Source\PSoC6\pdl\drivers\peripheral\sysclk/cy_sysclk.h ****     CY_SYSCLK_MEAS_CLK_PATH8 =         0x508u,
1178:Generated_Source\PSoC6\pdl\drivers\peripheral\sysclk/cy_sysclk.h ****     CY_SYSCLK_MEAS_CLK_PATH9 =         0x509u,
1179:Generated_Source\PSoC6\pdl\drivers\peripheral\sysclk/cy_sysclk.h ****     CY_SYSCLK_MEAS_CLK_PATH10 =        0x50Au,
1180:Generated_Source\PSoC6\pdl\drivers\peripheral\sysclk/cy_sysclk.h ****     CY_SYSCLK_MEAS_CLK_PATH11 =        0x50Bu,
1181:Generated_Source\PSoC6\pdl\drivers\peripheral\sysclk/cy_sysclk.h ****     CY_SYSCLK_MEAS_CLK_PATH12 =        0x50Cu,
1182:Generated_Source\PSoC6\pdl\drivers\peripheral\sysclk/cy_sysclk.h ****     CY_SYSCLK_MEAS_CLK_PATH13 =        0x50Du,
1183:Generated_Source\PSoC6\pdl\drivers\peripheral\sysclk/cy_sysclk.h ****     CY_SYSCLK_MEAS_CLK_PATH14 =        0x50Eu,
1184:Generated_Source\PSoC6\pdl\drivers\peripheral\sysclk/cy_sysclk.h ****     CY_SYSCLK_MEAS_CLK_PATH15 =        0x50Fu,
1185:Generated_Source\PSoC6\pdl\drivers\peripheral\sysclk/cy_sysclk.h ****     CY_SYSCLK_MEAS_CLK_CLKHFS =        0x600u,
1186:Generated_Source\PSoC6\pdl\drivers\peripheral\sysclk/cy_sysclk.h ****     CY_SYSCLK_MEAS_CLK_CLKHF0 =        0x600u,
1187:Generated_Source\PSoC6\pdl\drivers\peripheral\sysclk/cy_sysclk.h ****     CY_SYSCLK_MEAS_CLK_CLKHF1 =        0x601u,
1188:Generated_Source\PSoC6\pdl\drivers\peripheral\sysclk/cy_sysclk.h ****     CY_SYSCLK_MEAS_CLK_CLKHF2 =        0x602u,
1189:Generated_Source\PSoC6\pdl\drivers\peripheral\sysclk/cy_sysclk.h ****     CY_SYSCLK_MEAS_CLK_CLKHF3 =        0x603u,
1190:Generated_Source\PSoC6\pdl\drivers\peripheral\sysclk/cy_sysclk.h ****     CY_SYSCLK_MEAS_CLK_CLKHF4 =        0x604u,
1191:Generated_Source\PSoC6\pdl\drivers\peripheral\sysclk/cy_sysclk.h ****     CY_SYSCLK_MEAS_CLK_CLKHF5 =        0x605u,
1192:Generated_Source\PSoC6\pdl\drivers\peripheral\sysclk/cy_sysclk.h ****     CY_SYSCLK_MEAS_CLK_CLKHF6 =        0x606u,
1193:Generated_Source\PSoC6\pdl\drivers\peripheral\sysclk/cy_sysclk.h ****     CY_SYSCLK_MEAS_CLK_CLKHF7 =        0x607u,
1194:Generated_Source\PSoC6\pdl\drivers\peripheral\sysclk/cy_sysclk.h ****     CY_SYSCLK_MEAS_CLK_CLKHF8 =        0x608u,
1195:Generated_Source\PSoC6\pdl\drivers\peripheral\sysclk/cy_sysclk.h ****     CY_SYSCLK_MEAS_CLK_CLKHF9 =        0x609u,
1196:Generated_Source\PSoC6\pdl\drivers\peripheral\sysclk/cy_sysclk.h ****     CY_SYSCLK_MEAS_CLK_CLKHF10 =       0x60Au,
1197:Generated_Source\PSoC6\pdl\drivers\peripheral\sysclk/cy_sysclk.h ****     CY_SYSCLK_MEAS_CLK_CLKHF11 =       0x60Bu,
1198:Generated_Source\PSoC6\pdl\drivers\peripheral\sysclk/cy_sysclk.h ****     CY_SYSCLK_MEAS_CLK_CLKHF12 =       0x60Cu,
1199:Generated_Source\PSoC6\pdl\drivers\peripheral\sysclk/cy_sysclk.h ****     CY_SYSCLK_MEAS_CLK_CLKHF13 =       0x60Du,
1200:Generated_Source\PSoC6\pdl\drivers\peripheral\sysclk/cy_sysclk.h ****     CY_SYSCLK_MEAS_CLK_CLKHF14 =       0x60Eu,
1201:Generated_Source\PSoC6\pdl\drivers\peripheral\sysclk/cy_sysclk.h ****     CY_SYSCLK_MEAS_CLK_CLKHF15 =       0x60Fu,
1202:Generated_Source\PSoC6\pdl\drivers\peripheral\sysclk/cy_sysclk.h ****     CY_SYSCLK_MEAS_CLK_LAST_CLK =      0x610u
1203:Generated_Source\PSoC6\pdl\drivers\peripheral\sysclk/cy_sysclk.h **** } cy_en_meas_clks_t;
1204:Generated_Source\PSoC6\pdl\drivers\peripheral\sysclk/cy_sysclk.h **** /** \} group_sysclk_calclk_enums */
1205:Generated_Source\PSoC6\pdl\drivers\peripheral\sysclk/cy_sysclk.h **** 
1206:Generated_Source\PSoC6\pdl\drivers\peripheral\sysclk/cy_sysclk.h **** /**
1207:Generated_Source\PSoC6\pdl\drivers\peripheral\sysclk/cy_sysclk.h **** * \addtogroup group_sysclk_calclk_funcs
1208:Generated_Source\PSoC6\pdl\drivers\peripheral\sysclk/cy_sysclk.h **** * \{
1209:Generated_Source\PSoC6\pdl\drivers\peripheral\sysclk/cy_sysclk.h **** */
1210:Generated_Source\PSoC6\pdl\drivers\peripheral\sysclk/cy_sysclk.h **** cy_en_sysclk_status_t Cy_SysClk_StartClkMeasurementCounters(cy_en_meas_clks_t clock1, uint32_t coun
1211:Generated_Source\PSoC6\pdl\drivers\peripheral\sysclk/cy_sysclk.h **** __STATIC_INLINE bool Cy_SysClk_ClkMeasurementCountersDone(void);
1212:Generated_Source\PSoC6\pdl\drivers\peripheral\sysclk/cy_sysclk.h **** uint32_t Cy_SysClk_ClkMeasurementCountersGetFreq(bool measuredClock, uint32_t refClkFreq);
1213:Generated_Source\PSoC6\pdl\drivers\peripheral\sysclk/cy_sysclk.h **** 
1214:Generated_Source\PSoC6\pdl\drivers\peripheral\sysclk/cy_sysclk.h **** /*******************************************************************************
1215:Generated_Source\PSoC6\pdl\drivers\peripheral\sysclk/cy_sysclk.h **** * Function Name: Cy_SysClk_ClkMeasurementCountersDone
1216:Generated_Source\PSoC6\pdl\drivers\peripheral\sysclk/cy_sysclk.h **** ****************************************************************************//**
1217:Generated_Source\PSoC6\pdl\drivers\peripheral\sysclk/cy_sysclk.h **** *
1218:Generated_Source\PSoC6\pdl\drivers\peripheral\sysclk/cy_sysclk.h **** * Checks if clock measurement counting is done, that is, counter1 has counted down
1219:Generated_Source\PSoC6\pdl\drivers\peripheral\sysclk/cy_sysclk.h **** * to zero. Call \ref Cy_SysClk_StartClkMeasurementCounters() before calling this function.
1220:Generated_Source\PSoC6\pdl\drivers\peripheral\sysclk/cy_sysclk.h **** *
1221:Generated_Source\PSoC6\pdl\drivers\peripheral\sysclk/cy_sysclk.h **** * \return Status of calibration counters:<br>
1222:Generated_Source\PSoC6\pdl\drivers\peripheral\sysclk/cy_sysclk.h **** * true = done<br>
1223:Generated_Source\PSoC6\pdl\drivers\peripheral\sysclk/cy_sysclk.h **** * false = not done
1224:Generated_Source\PSoC6\pdl\drivers\peripheral\sysclk/cy_sysclk.h **** *
ARM GAS  C:\Users\gjl\AppData\Local\Temp\ccNVysBX.s 			page 106


1225:Generated_Source\PSoC6\pdl\drivers\peripheral\sysclk/cy_sysclk.h **** * \funcusage
1226:Generated_Source\PSoC6\pdl\drivers\peripheral\sysclk/cy_sysclk.h **** * Refer to the Cy_SysClk_StartClkMeasurementCounters() function usage.
1227:Generated_Source\PSoC6\pdl\drivers\peripheral\sysclk/cy_sysclk.h **** *
1228:Generated_Source\PSoC6\pdl\drivers\peripheral\sysclk/cy_sysclk.h **** *******************************************************************************/
1229:Generated_Source\PSoC6\pdl\drivers\peripheral\sysclk/cy_sysclk.h **** __STATIC_INLINE bool Cy_SysClk_ClkMeasurementCountersDone(void)
1230:Generated_Source\PSoC6\pdl\drivers\peripheral\sysclk/cy_sysclk.h **** {
1231:Generated_Source\PSoC6\pdl\drivers\peripheral\sysclk/cy_sysclk.h ****     return (_FLD2VAL(SRSS_CLK_CAL_CNT1_CAL_COUNTER_DONE, SRSS->CLK_CAL_CNT1)); /* 1 = done */
1232:Generated_Source\PSoC6\pdl\drivers\peripheral\sysclk/cy_sysclk.h **** }
1233:Generated_Source\PSoC6\pdl\drivers\peripheral\sysclk/cy_sysclk.h **** /** \} group_sysclk_calclk_funcs */
1234:Generated_Source\PSoC6\pdl\drivers\peripheral\sysclk/cy_sysclk.h **** 
1235:Generated_Source\PSoC6\pdl\drivers\peripheral\sysclk/cy_sysclk.h **** 
1236:Generated_Source\PSoC6\pdl\drivers\peripheral\sysclk/cy_sysclk.h **** /* ========================================================================== */
1237:Generated_Source\PSoC6\pdl\drivers\peripheral\sysclk/cy_sysclk.h **** /* ==========================    TRIM SECTION    ============================ */
1238:Generated_Source\PSoC6\pdl\drivers\peripheral\sysclk/cy_sysclk.h **** /* ========================================================================== */
1239:Generated_Source\PSoC6\pdl\drivers\peripheral\sysclk/cy_sysclk.h **** /**
1240:Generated_Source\PSoC6\pdl\drivers\peripheral\sysclk/cy_sysclk.h **** * \addtogroup group_sysclk_trim_funcs
1241:Generated_Source\PSoC6\pdl\drivers\peripheral\sysclk/cy_sysclk.h **** * \{
1242:Generated_Source\PSoC6\pdl\drivers\peripheral\sysclk/cy_sysclk.h **** */
1243:Generated_Source\PSoC6\pdl\drivers\peripheral\sysclk/cy_sysclk.h **** int32_t Cy_SysClk_IloTrim(uint32_t iloFreq);
1244:Generated_Source\PSoC6\pdl\drivers\peripheral\sysclk/cy_sysclk.h **** int32_t Cy_SysClk_PiloTrim(uint32_t piloFreq);
1245:Generated_Source\PSoC6\pdl\drivers\peripheral\sysclk/cy_sysclk.h **** /** \} group_sysclk_trim_funcs */
1246:Generated_Source\PSoC6\pdl\drivers\peripheral\sysclk/cy_sysclk.h **** 
1247:Generated_Source\PSoC6\pdl\drivers\peripheral\sysclk/cy_sysclk.h **** 
1248:Generated_Source\PSoC6\pdl\drivers\peripheral\sysclk/cy_sysclk.h **** /* ========================================================================== */
1249:Generated_Source\PSoC6\pdl\drivers\peripheral\sysclk/cy_sysclk.h **** /* ======================    POWER MANAGEMENT SECTION    ==================== */
1250:Generated_Source\PSoC6\pdl\drivers\peripheral\sysclk/cy_sysclk.h **** /* ========================================================================== */
1251:Generated_Source\PSoC6\pdl\drivers\peripheral\sysclk/cy_sysclk.h **** /**
1252:Generated_Source\PSoC6\pdl\drivers\peripheral\sysclk/cy_sysclk.h **** * \addtogroup group_sysclk_pm_funcs
1253:Generated_Source\PSoC6\pdl\drivers\peripheral\sysclk/cy_sysclk.h **** * \{
1254:Generated_Source\PSoC6\pdl\drivers\peripheral\sysclk/cy_sysclk.h **** */
1255:Generated_Source\PSoC6\pdl\drivers\peripheral\sysclk/cy_sysclk.h **** cy_en_syspm_status_t Cy_SysClk_DeepSleepCallback(cy_stc_syspm_callback_params_t *callbackParams);
1256:Generated_Source\PSoC6\pdl\drivers\peripheral\sysclk/cy_sysclk.h **** /** \} group_sysclk_pm_funcs */
1257:Generated_Source\PSoC6\pdl\drivers\peripheral\sysclk/cy_sysclk.h **** 
1258:Generated_Source\PSoC6\pdl\drivers\peripheral\sysclk/cy_sysclk.h **** 
1259:Generated_Source\PSoC6\pdl\drivers\peripheral\sysclk/cy_sysclk.h **** /* ========================================================================== */
1260:Generated_Source\PSoC6\pdl\drivers\peripheral\sysclk/cy_sysclk.h **** /* ===========================    WCO SECTION    ============================ */
1261:Generated_Source\PSoC6\pdl\drivers\peripheral\sysclk/cy_sysclk.h **** /* ========================================================================== */
1262:Generated_Source\PSoC6\pdl\drivers\peripheral\sysclk/cy_sysclk.h **** /**
1263:Generated_Source\PSoC6\pdl\drivers\peripheral\sysclk/cy_sysclk.h **** * \addtogroup group_sysclk_wco_enums
1264:Generated_Source\PSoC6\pdl\drivers\peripheral\sysclk/cy_sysclk.h **** * \{
1265:Generated_Source\PSoC6\pdl\drivers\peripheral\sysclk/cy_sysclk.h **** */
1266:Generated_Source\PSoC6\pdl\drivers\peripheral\sysclk/cy_sysclk.h **** /** WCO bypass modes */
1267:Generated_Source\PSoC6\pdl\drivers\peripheral\sysclk/cy_sysclk.h **** typedef enum
1268:Generated_Source\PSoC6\pdl\drivers\peripheral\sysclk/cy_sysclk.h **** {
1269:Generated_Source\PSoC6\pdl\drivers\peripheral\sysclk/cy_sysclk.h ****     CY_SYSCLK_WCO_NOT_BYPASSED = 0u, /**< WCO is not bypassed crystal is used */
1270:Generated_Source\PSoC6\pdl\drivers\peripheral\sysclk/cy_sysclk.h ****     CY_SYSCLK_WCO_BYPASSED = 1u      /**< WCO is bypassed external clock must be supplied  on XTAL 
1271:Generated_Source\PSoC6\pdl\drivers\peripheral\sysclk/cy_sysclk.h **** } cy_en_wco_bypass_modes_t;
1272:Generated_Source\PSoC6\pdl\drivers\peripheral\sysclk/cy_sysclk.h **** 
1273:Generated_Source\PSoC6\pdl\drivers\peripheral\sysclk/cy_sysclk.h **** /** WCO CSV supervisor clock selections */
1274:Generated_Source\PSoC6\pdl\drivers\peripheral\sysclk/cy_sysclk.h **** typedef enum
1275:Generated_Source\PSoC6\pdl\drivers\peripheral\sysclk/cy_sysclk.h **** {
1276:Generated_Source\PSoC6\pdl\drivers\peripheral\sysclk/cy_sysclk.h ****     CY_SYSCLK_WCO_CSV_SUPERVISOR_ILO,   /**< WCO CSV supervisor clock source is the ILO */
1277:Generated_Source\PSoC6\pdl\drivers\peripheral\sysclk/cy_sysclk.h ****     CY_SYSCLK_WCO_CSV_SUPERVISOR_ALTLF, /**< WCO CSV supervisor clock source is the alternate low-f
1278:Generated_Source\PSoC6\pdl\drivers\peripheral\sysclk/cy_sysclk.h ****     CY_SYSCLK_WCO_CSV_SUPERVISOR_PILO   /**< WCO CSV supervisor clock source is the PILO */
1279:Generated_Source\PSoC6\pdl\drivers\peripheral\sysclk/cy_sysclk.h **** } cy_en_wco_csv_supervisor_clock_t;
1280:Generated_Source\PSoC6\pdl\drivers\peripheral\sysclk/cy_sysclk.h **** 
1281:Generated_Source\PSoC6\pdl\drivers\peripheral\sysclk/cy_sysclk.h **** /**
ARM GAS  C:\Users\gjl\AppData\Local\Temp\ccNVysBX.s 			page 107


1282:Generated_Source\PSoC6\pdl\drivers\peripheral\sysclk/cy_sysclk.h **** * Clock supervisor clock loss window. There must be one clock of the supervised
1283:Generated_Source\PSoC6\pdl\drivers\peripheral\sysclk/cy_sysclk.h **** * clock within this many clocks of the supervising clock.
1284:Generated_Source\PSoC6\pdl\drivers\peripheral\sysclk/cy_sysclk.h **** * See registers CLK_CSV_HF_CTL and CLK_CSV_WCO_CTL, bitfield CSV_LOSS_WINDOW.
1285:Generated_Source\PSoC6\pdl\drivers\peripheral\sysclk/cy_sysclk.h **** */
1286:Generated_Source\PSoC6\pdl\drivers\peripheral\sysclk/cy_sysclk.h **** typedef enum
1287:Generated_Source\PSoC6\pdl\drivers\peripheral\sysclk/cy_sysclk.h **** {
1288:Generated_Source\PSoC6\pdl\drivers\peripheral\sysclk/cy_sysclk.h ****     CY_SYSCLK_CSV_LOSS_4_CYCLES =   0u, /**< 1 clock must be seen within 4 cycles of the supervisin
1289:Generated_Source\PSoC6\pdl\drivers\peripheral\sysclk/cy_sysclk.h ****     CY_SYSCLK_CSV_LOSS_8_CYCLES =   1u, /**< 1 clock must be seen within 8 cycles of the supervisin
1290:Generated_Source\PSoC6\pdl\drivers\peripheral\sysclk/cy_sysclk.h ****     CY_SYSCLK_CSV_LOSS_16_CYCLES =  2u, /**< 1 clock must be seen within 16 cycles of the supervisi
1291:Generated_Source\PSoC6\pdl\drivers\peripheral\sysclk/cy_sysclk.h ****     CY_SYSCLK_CSV_LOSS_32_CYCLES =  3u, /**< 1 clock must be seen within 32 cycles of the supervisi
1292:Generated_Source\PSoC6\pdl\drivers\peripheral\sysclk/cy_sysclk.h ****     CY_SYSCLK_CSV_LOSS_64_CYCLES =  4u, /**< 1 clock must be seen within 64 cycles of the supervisi
1293:Generated_Source\PSoC6\pdl\drivers\peripheral\sysclk/cy_sysclk.h ****     CY_SYSCLK_CSV_LOSS_128_CYCLES = 5u, /**< 1 clock must be seen within 128 cycles of the supervis
1294:Generated_Source\PSoC6\pdl\drivers\peripheral\sysclk/cy_sysclk.h ****     CY_SYSCLK_CSV_LOSS_256_CYCLES = 6u, /**< 1 clock must be seen within 256 cycles of the supervis
1295:Generated_Source\PSoC6\pdl\drivers\peripheral\sysclk/cy_sysclk.h ****     CY_SYSCLK_CSV_LOSS_512_CYCLES = 7u  /**< 1 clock must be seen within 512 cycles of the supervis
1296:Generated_Source\PSoC6\pdl\drivers\peripheral\sysclk/cy_sysclk.h **** } cy_en_csv_loss_window_t;
1297:Generated_Source\PSoC6\pdl\drivers\peripheral\sysclk/cy_sysclk.h **** 
1298:Generated_Source\PSoC6\pdl\drivers\peripheral\sysclk/cy_sysclk.h **** /**
1299:Generated_Source\PSoC6\pdl\drivers\peripheral\sysclk/cy_sysclk.h **** * Clock supervisor error actions. See register CLK_CSV_HF_CTL[CSV_FREQ_ACTION and CSV_LOSS_ACTION].
1300:Generated_Source\PSoC6\pdl\drivers\peripheral\sysclk/cy_sysclk.h **** */
1301:Generated_Source\PSoC6\pdl\drivers\peripheral\sysclk/cy_sysclk.h **** typedef enum
1302:Generated_Source\PSoC6\pdl\drivers\peripheral\sysclk/cy_sysclk.h **** {
1303:Generated_Source\PSoC6\pdl\drivers\peripheral\sysclk/cy_sysclk.h ****     CY_SYSCLK_CSV_ERROR_IGNORE = 0u,     /**< Ignore the error reported by the clock supervisor. */
1304:Generated_Source\PSoC6\pdl\drivers\peripheral\sysclk/cy_sysclk.h ****     CY_SYSCLK_CSV_ERROR_FAULT = 1u,      /**< Trigger a fault when an error is reported by the cloc
1305:Generated_Source\PSoC6\pdl\drivers\peripheral\sysclk/cy_sysclk.h ****     CY_SYSCLK_CSV_ERROR_RESET = 2u,      /**< Trigger a reset when an error is reported by the cloc
1306:Generated_Source\PSoC6\pdl\drivers\peripheral\sysclk/cy_sysclk.h ****     CY_SYSCLK_CSV_ERROR_FAULT_RESET = 3u /**< Trigger a fault then reset when an error is reported 
1307:Generated_Source\PSoC6\pdl\drivers\peripheral\sysclk/cy_sysclk.h **** } cy_en_csv_error_actions_t;
1308:Generated_Source\PSoC6\pdl\drivers\peripheral\sysclk/cy_sysclk.h **** /** \} group_sysclk_wco_enums */
1309:Generated_Source\PSoC6\pdl\drivers\peripheral\sysclk/cy_sysclk.h **** 
1310:Generated_Source\PSoC6\pdl\drivers\peripheral\sysclk/cy_sysclk.h **** /**
1311:Generated_Source\PSoC6\pdl\drivers\peripheral\sysclk/cy_sysclk.h **** * \addtogroup group_sysclk_wco_structs
1312:Generated_Source\PSoC6\pdl\drivers\peripheral\sysclk/cy_sysclk.h **** * \{
1313:Generated_Source\PSoC6\pdl\drivers\peripheral\sysclk/cy_sysclk.h **** */
1314:Generated_Source\PSoC6\pdl\drivers\peripheral\sysclk/cy_sysclk.h **** /**
1315:Generated_Source\PSoC6\pdl\drivers\peripheral\sysclk/cy_sysclk.h **** * This structure is used to configure the clock supervisor for the WCO.
1316:Generated_Source\PSoC6\pdl\drivers\peripheral\sysclk/cy_sysclk.h **** */
1317:Generated_Source\PSoC6\pdl\drivers\peripheral\sysclk/cy_sysclk.h **** typedef struct
1318:Generated_Source\PSoC6\pdl\drivers\peripheral\sysclk/cy_sysclk.h **** {
1319:Generated_Source\PSoC6\pdl\drivers\peripheral\sysclk/cy_sysclk.h ****     cy_en_wco_csv_supervisor_clock_t supervisorClock; /**< supervisor clock selection */
1320:Generated_Source\PSoC6\pdl\drivers\peripheral\sysclk/cy_sysclk.h ****     bool enableLossDetection;                         /**< 1= enabled, 0= disabled. Note that if lo
1321:Generated_Source\PSoC6\pdl\drivers\peripheral\sysclk/cy_sysclk.h ****     cy_en_csv_loss_window_t lossWindow;               /**< \ref cy_en_csv_loss_window_t */
1322:Generated_Source\PSoC6\pdl\drivers\peripheral\sysclk/cy_sysclk.h ****     cy_en_csv_error_actions_t lossAction;             /**< \ref cy_en_csv_error_actions_t */
1323:Generated_Source\PSoC6\pdl\drivers\peripheral\sysclk/cy_sysclk.h **** } cy_stc_wco_csv_config_t;
1324:Generated_Source\PSoC6\pdl\drivers\peripheral\sysclk/cy_sysclk.h **** /** \} group_sysclk_wco_structs */
1325:Generated_Source\PSoC6\pdl\drivers\peripheral\sysclk/cy_sysclk.h **** 
1326:Generated_Source\PSoC6\pdl\drivers\peripheral\sysclk/cy_sysclk.h **** /**
1327:Generated_Source\PSoC6\pdl\drivers\peripheral\sysclk/cy_sysclk.h **** * \addtogroup group_sysclk_wco_funcs
1328:Generated_Source\PSoC6\pdl\drivers\peripheral\sysclk/cy_sysclk.h **** * \{
1329:Generated_Source\PSoC6\pdl\drivers\peripheral\sysclk/cy_sysclk.h **** */
1330:Generated_Source\PSoC6\pdl\drivers\peripheral\sysclk/cy_sysclk.h **** __STATIC_INLINE cy_en_sysclk_status_t Cy_SysClk_WcoEnable(uint32_t timeoutus);
1331:Generated_Source\PSoC6\pdl\drivers\peripheral\sysclk/cy_sysclk.h **** __STATIC_INLINE bool Cy_SysClk_WcoOkay(void);
1332:Generated_Source\PSoC6\pdl\drivers\peripheral\sysclk/cy_sysclk.h **** __STATIC_INLINE void Cy_SysClk_WcoDisable(void);
1333:Generated_Source\PSoC6\pdl\drivers\peripheral\sysclk/cy_sysclk.h **** __STATIC_INLINE void Cy_SysClk_WcoBypass(cy_en_wco_bypass_modes_t bypass);
1334:Generated_Source\PSoC6\pdl\drivers\peripheral\sysclk/cy_sysclk.h **** #if (SRSS_WCOCSV_PRESENT != 0) || defined(CY_DOXYGEN)
1335:Generated_Source\PSoC6\pdl\drivers\peripheral\sysclk/cy_sysclk.h ****     void Cy_SysClk_WcoConfigureCsv(const cy_stc_wco_csv_config_t *config);
1336:Generated_Source\PSoC6\pdl\drivers\peripheral\sysclk/cy_sysclk.h **** #endif /* (SRSS_WCOCSV_PRESENT != 0) || defined(CY_DOXYGEN) */
1337:Generated_Source\PSoC6\pdl\drivers\peripheral\sysclk/cy_sysclk.h **** 
1338:Generated_Source\PSoC6\pdl\drivers\peripheral\sysclk/cy_sysclk.h **** 
ARM GAS  C:\Users\gjl\AppData\Local\Temp\ccNVysBX.s 			page 108


1339:Generated_Source\PSoC6\pdl\drivers\peripheral\sysclk/cy_sysclk.h **** /*******************************************************************************
1340:Generated_Source\PSoC6\pdl\drivers\peripheral\sysclk/cy_sysclk.h **** * Function Name: Cy_SysClk_WcoEnable
1341:Generated_Source\PSoC6\pdl\drivers\peripheral\sysclk/cy_sysclk.h **** ****************************************************************************//**
1342:Generated_Source\PSoC6\pdl\drivers\peripheral\sysclk/cy_sysclk.h **** *
1343:Generated_Source\PSoC6\pdl\drivers\peripheral\sysclk/cy_sysclk.h **** * Enables the WCO.
1344:Generated_Source\PSoC6\pdl\drivers\peripheral\sysclk/cy_sysclk.h **** *
1345:Generated_Source\PSoC6\pdl\drivers\peripheral\sysclk/cy_sysclk.h **** * \param timeoutus amount of time in microseconds to wait for the WCO to be ready.
1346:Generated_Source\PSoC6\pdl\drivers\peripheral\sysclk/cy_sysclk.h **** * If WCO is not ready, WCO is stopped. To avoid waiting for WCO ready set this to 0,
1347:Generated_Source\PSoC6\pdl\drivers\peripheral\sysclk/cy_sysclk.h **** * and manually check if WCO is okay using \ref Cy_SysClk_WcoOkay.
1348:Generated_Source\PSoC6\pdl\drivers\peripheral\sysclk/cy_sysclk.h **** *
1349:Generated_Source\PSoC6\pdl\drivers\peripheral\sysclk/cy_sysclk.h **** * \return Error / status code:<br>
1350:Generated_Source\PSoC6\pdl\drivers\peripheral\sysclk/cy_sysclk.h **** * CY_SYSCLK_SUCCESS - WCO successfully enabled<br>
1351:Generated_Source\PSoC6\pdl\drivers\peripheral\sysclk/cy_sysclk.h **** * CY_SYSCLK_TIMEOUT - Timeout waiting for WCO to stabilize
1352:Generated_Source\PSoC6\pdl\drivers\peripheral\sysclk/cy_sysclk.h **** *
1353:Generated_Source\PSoC6\pdl\drivers\peripheral\sysclk/cy_sysclk.h **** * \funcusage
1354:Generated_Source\PSoC6\pdl\drivers\peripheral\sysclk/cy_sysclk.h **** * \snippet sysclk/sysclk_v1_10_sut_01.cydsn/main_cm4.c snippet_Cy_SysClk_WcoEnable
1355:Generated_Source\PSoC6\pdl\drivers\peripheral\sysclk/cy_sysclk.h **** *
1356:Generated_Source\PSoC6\pdl\drivers\peripheral\sysclk/cy_sysclk.h **** *******************************************************************************/
1357:Generated_Source\PSoC6\pdl\drivers\peripheral\sysclk/cy_sysclk.h **** __STATIC_INLINE cy_en_sysclk_status_t Cy_SysClk_WcoEnable(uint32_t timeoutus)
1358:Generated_Source\PSoC6\pdl\drivers\peripheral\sysclk/cy_sysclk.h **** {
1359:Generated_Source\PSoC6\pdl\drivers\peripheral\sysclk/cy_sysclk.h ****     cy_en_sysclk_status_t rtnval = CY_SYSCLK_TIMEOUT;
1360:Generated_Source\PSoC6\pdl\drivers\peripheral\sysclk/cy_sysclk.h **** 
1361:Generated_Source\PSoC6\pdl\drivers\peripheral\sysclk/cy_sysclk.h ****     /* first set the WCO enable bit */
1362:Generated_Source\PSoC6\pdl\drivers\peripheral\sysclk/cy_sysclk.h ****     BACKUP->CTL |= _VAL2FLD(BACKUP_CTL_WCO_EN, 1u); /* 1 = enable */
1363:Generated_Source\PSoC6\pdl\drivers\peripheral\sysclk/cy_sysclk.h **** 
1364:Generated_Source\PSoC6\pdl\drivers\peripheral\sysclk/cy_sysclk.h ****     /* now do the timeout wait for STATUS, bit WCO_OK */
1365:Generated_Source\PSoC6\pdl\drivers\peripheral\sysclk/cy_sysclk.h ****     for (; (Cy_SysClk_WcoOkay() == false) && (timeoutus != 0ul); timeoutus--)
1366:Generated_Source\PSoC6\pdl\drivers\peripheral\sysclk/cy_sysclk.h ****     {
1367:Generated_Source\PSoC6\pdl\drivers\peripheral\sysclk/cy_sysclk.h ****         Cy_SysLib_DelayUs(1u);
1368:Generated_Source\PSoC6\pdl\drivers\peripheral\sysclk/cy_sysclk.h ****     }
1369:Generated_Source\PSoC6\pdl\drivers\peripheral\sysclk/cy_sysclk.h ****     if (timeoutus != 0ul)
1370:Generated_Source\PSoC6\pdl\drivers\peripheral\sysclk/cy_sysclk.h ****     {
1371:Generated_Source\PSoC6\pdl\drivers\peripheral\sysclk/cy_sysclk.h ****         rtnval = CY_SYSCLK_SUCCESS;
1372:Generated_Source\PSoC6\pdl\drivers\peripheral\sysclk/cy_sysclk.h ****     }
1373:Generated_Source\PSoC6\pdl\drivers\peripheral\sysclk/cy_sysclk.h **** 
1374:Generated_Source\PSoC6\pdl\drivers\peripheral\sysclk/cy_sysclk.h ****     return (rtnval);
1375:Generated_Source\PSoC6\pdl\drivers\peripheral\sysclk/cy_sysclk.h **** }
1376:Generated_Source\PSoC6\pdl\drivers\peripheral\sysclk/cy_sysclk.h **** 
1377:Generated_Source\PSoC6\pdl\drivers\peripheral\sysclk/cy_sysclk.h **** /*******************************************************************************
1378:Generated_Source\PSoC6\pdl\drivers\peripheral\sysclk/cy_sysclk.h **** * Function Name: Cy_SysClk_WcoOkay
1379:Generated_Source\PSoC6\pdl\drivers\peripheral\sysclk/cy_sysclk.h **** ****************************************************************************//**
1380:Generated_Source\PSoC6\pdl\drivers\peripheral\sysclk/cy_sysclk.h **** *
1381:Generated_Source\PSoC6\pdl\drivers\peripheral\sysclk/cy_sysclk.h **** * Reports the status of the WCO_OK bit.
1382:Generated_Source\PSoC6\pdl\drivers\peripheral\sysclk/cy_sysclk.h **** *
1383:Generated_Source\PSoC6\pdl\drivers\peripheral\sysclk/cy_sysclk.h **** * \return 
1384:Generated_Source\PSoC6\pdl\drivers\peripheral\sysclk/cy_sysclk.h **** * true = okay<br>
1385:Generated_Source\PSoC6\pdl\drivers\peripheral\sysclk/cy_sysclk.h **** * false = not okay
1386:Generated_Source\PSoC6\pdl\drivers\peripheral\sysclk/cy_sysclk.h **** *
1387:Generated_Source\PSoC6\pdl\drivers\peripheral\sysclk/cy_sysclk.h **** * \funcusage
1388:Generated_Source\PSoC6\pdl\drivers\peripheral\sysclk/cy_sysclk.h **** * \snippet sysclk/sysclk_v1_10_sut_01.cydsn/main_cm4.c snippet_Cy_SysClk_WcoOkay
1389:Generated_Source\PSoC6\pdl\drivers\peripheral\sysclk/cy_sysclk.h **** *
1390:Generated_Source\PSoC6\pdl\drivers\peripheral\sysclk/cy_sysclk.h **** *******************************************************************************/
1391:Generated_Source\PSoC6\pdl\drivers\peripheral\sysclk/cy_sysclk.h **** __STATIC_INLINE bool Cy_SysClk_WcoOkay(void)
1392:Generated_Source\PSoC6\pdl\drivers\peripheral\sysclk/cy_sysclk.h **** {
1393:Generated_Source\PSoC6\pdl\drivers\peripheral\sysclk/cy_sysclk.h ****     return (bool)(_FLD2VAL(BACKUP_STATUS_WCO_OK, BACKUP->STATUS));
1394:Generated_Source\PSoC6\pdl\drivers\peripheral\sysclk/cy_sysclk.h **** }
1395:Generated_Source\PSoC6\pdl\drivers\peripheral\sysclk/cy_sysclk.h **** 
ARM GAS  C:\Users\gjl\AppData\Local\Temp\ccNVysBX.s 			page 109


1396:Generated_Source\PSoC6\pdl\drivers\peripheral\sysclk/cy_sysclk.h **** /*******************************************************************************
1397:Generated_Source\PSoC6\pdl\drivers\peripheral\sysclk/cy_sysclk.h **** * Function Name: Cy_SysClk_WcoDisable
1398:Generated_Source\PSoC6\pdl\drivers\peripheral\sysclk/cy_sysclk.h **** ****************************************************************************//**
1399:Generated_Source\PSoC6\pdl\drivers\peripheral\sysclk/cy_sysclk.h **** *
1400:Generated_Source\PSoC6\pdl\drivers\peripheral\sysclk/cy_sysclk.h **** * Disables the WCO.
1401:Generated_Source\PSoC6\pdl\drivers\peripheral\sysclk/cy_sysclk.h **** *
1402:Generated_Source\PSoC6\pdl\drivers\peripheral\sysclk/cy_sysclk.h **** * \funcusage
1403:Generated_Source\PSoC6\pdl\drivers\peripheral\sysclk/cy_sysclk.h **** * \snippet sysclk/sysclk_v1_10_sut_01.cydsn/main_cm4.c snippet_Cy_SysClk_WcoDisable
1404:Generated_Source\PSoC6\pdl\drivers\peripheral\sysclk/cy_sysclk.h **** *
1405:Generated_Source\PSoC6\pdl\drivers\peripheral\sysclk/cy_sysclk.h **** *******************************************************************************/
1406:Generated_Source\PSoC6\pdl\drivers\peripheral\sysclk/cy_sysclk.h **** __STATIC_INLINE void Cy_SysClk_WcoDisable(void)
1407:Generated_Source\PSoC6\pdl\drivers\peripheral\sysclk/cy_sysclk.h **** {
1408:Generated_Source\PSoC6\pdl\drivers\peripheral\sysclk/cy_sysclk.h ****     BACKUP->CTL &= ~_VAL2FLD(BACKUP_CTL_WCO_EN, 1u); /* 0 = disable */
1409:Generated_Source\PSoC6\pdl\drivers\peripheral\sysclk/cy_sysclk.h **** }
1410:Generated_Source\PSoC6\pdl\drivers\peripheral\sysclk/cy_sysclk.h **** 
1411:Generated_Source\PSoC6\pdl\drivers\peripheral\sysclk/cy_sysclk.h **** /*******************************************************************************
1412:Generated_Source\PSoC6\pdl\drivers\peripheral\sysclk/cy_sysclk.h **** * Function Name: Cy_SysClk_WcoBypass
1413:Generated_Source\PSoC6\pdl\drivers\peripheral\sysclk/cy_sysclk.h **** ****************************************************************************//**
1414:Generated_Source\PSoC6\pdl\drivers\peripheral\sysclk/cy_sysclk.h **** *
1415:Generated_Source\PSoC6\pdl\drivers\peripheral\sysclk/cy_sysclk.h **** * Sets whether the WCO is bypassed or not. If it is bypassed, then a 32-kHz clock
1416:Generated_Source\PSoC6\pdl\drivers\peripheral\sysclk/cy_sysclk.h **** * must be provided on the wco_out pin.
1417:Generated_Source\PSoC6\pdl\drivers\peripheral\sysclk/cy_sysclk.h **** *
1418:Generated_Source\PSoC6\pdl\drivers\peripheral\sysclk/cy_sysclk.h **** * \param bypass \ref cy_en_wco_bypass_modes_t
1419:Generated_Source\PSoC6\pdl\drivers\peripheral\sysclk/cy_sysclk.h **** *
1420:Generated_Source\PSoC6\pdl\drivers\peripheral\sysclk/cy_sysclk.h **** * \funcusage
1421:Generated_Source\PSoC6\pdl\drivers\peripheral\sysclk/cy_sysclk.h **** * \snippet sysclk/sysclk_v1_10_sut_01.cydsn/main_cm4.c snippet_Cy_SysClk_WcoBypass
1422:Generated_Source\PSoC6\pdl\drivers\peripheral\sysclk/cy_sysclk.h **** *
1423:Generated_Source\PSoC6\pdl\drivers\peripheral\sysclk/cy_sysclk.h **** *******************************************************************************/
1424:Generated_Source\PSoC6\pdl\drivers\peripheral\sysclk/cy_sysclk.h **** __STATIC_INLINE void Cy_SysClk_WcoBypass(cy_en_wco_bypass_modes_t bypass)
1425:Generated_Source\PSoC6\pdl\drivers\peripheral\sysclk/cy_sysclk.h **** {
1426:Generated_Source\PSoC6\pdl\drivers\peripheral\sysclk/cy_sysclk.h ****     CY_SYSCLK_CLR_SET(BACKUP->CTL, BACKUP_CTL_WCO_BYPASS, bypass);
1427:Generated_Source\PSoC6\pdl\drivers\peripheral\sysclk/cy_sysclk.h **** }
1428:Generated_Source\PSoC6\pdl\drivers\peripheral\sysclk/cy_sysclk.h **** /** \} group_sysclk_wco_funcs */
1429:Generated_Source\PSoC6\pdl\drivers\peripheral\sysclk/cy_sysclk.h **** 
1430:Generated_Source\PSoC6\pdl\drivers\peripheral\sysclk/cy_sysclk.h **** 
1431:Generated_Source\PSoC6\pdl\drivers\peripheral\sysclk/cy_sysclk.h **** /* ========================================================================== */
1432:Generated_Source\PSoC6\pdl\drivers\peripheral\sysclk/cy_sysclk.h **** /* =========================    clkHf[n] SECTION    ========================= */
1433:Generated_Source\PSoC6\pdl\drivers\peripheral\sysclk/cy_sysclk.h **** /* ========================================================================== */
1434:Generated_Source\PSoC6\pdl\drivers\peripheral\sysclk/cy_sysclk.h **** /**
1435:Generated_Source\PSoC6\pdl\drivers\peripheral\sysclk/cy_sysclk.h **** * \addtogroup group_sysclk_clk_hf_enums
1436:Generated_Source\PSoC6\pdl\drivers\peripheral\sysclk/cy_sysclk.h **** * \{
1437:Generated_Source\PSoC6\pdl\drivers\peripheral\sysclk/cy_sysclk.h **** */
1438:Generated_Source\PSoC6\pdl\drivers\peripheral\sysclk/cy_sysclk.h **** /**
1439:Generated_Source\PSoC6\pdl\drivers\peripheral\sysclk/cy_sysclk.h **** * Selects which clkHf input, or root mux, to configure.
1440:Generated_Source\PSoC6\pdl\drivers\peripheral\sysclk/cy_sysclk.h **** * See CLK_ROOT_SELECT registers, bits ROOT_MUX.
1441:Generated_Source\PSoC6\pdl\drivers\peripheral\sysclk/cy_sysclk.h **** * Used with functions \ref Cy_SysClk_ClkHfSetSource and \ref Cy_SysClk_ClkHfGetSource.
1442:Generated_Source\PSoC6\pdl\drivers\peripheral\sysclk/cy_sysclk.h **** */
1443:Generated_Source\PSoC6\pdl\drivers\peripheral\sysclk/cy_sysclk.h **** typedef enum
1444:Generated_Source\PSoC6\pdl\drivers\peripheral\sysclk/cy_sysclk.h **** {
1445:Generated_Source\PSoC6\pdl\drivers\peripheral\sysclk/cy_sysclk.h ****     CY_SYSCLK_CLKHF_IN_CLKPATH0  = 0u,  /**< clkHf input is Clock Path 0 */
1446:Generated_Source\PSoC6\pdl\drivers\peripheral\sysclk/cy_sysclk.h ****     CY_SYSCLK_CLKHF_IN_CLKPATH1  = 1u,  /**< clkHf input is Clock Path 1 */
1447:Generated_Source\PSoC6\pdl\drivers\peripheral\sysclk/cy_sysclk.h ****     CY_SYSCLK_CLKHF_IN_CLKPATH2  = 2u,  /**< clkHf input is Clock Path 2 */
1448:Generated_Source\PSoC6\pdl\drivers\peripheral\sysclk/cy_sysclk.h ****     CY_SYSCLK_CLKHF_IN_CLKPATH3  = 3u,  /**< clkHf input is Clock Path 3 */
1449:Generated_Source\PSoC6\pdl\drivers\peripheral\sysclk/cy_sysclk.h ****     CY_SYSCLK_CLKHF_IN_CLKPATH4  = 4u,  /**< clkHf input is Clock Path 4 */
1450:Generated_Source\PSoC6\pdl\drivers\peripheral\sysclk/cy_sysclk.h ****     CY_SYSCLK_CLKHF_IN_CLKPATH5  = 5u,  /**< clkHf input is Clock Path 5 */
1451:Generated_Source\PSoC6\pdl\drivers\peripheral\sysclk/cy_sysclk.h ****     CY_SYSCLK_CLKHF_IN_CLKPATH6  = 6u,  /**< clkHf input is Clock Path 6 */
1452:Generated_Source\PSoC6\pdl\drivers\peripheral\sysclk/cy_sysclk.h ****     CY_SYSCLK_CLKHF_IN_CLKPATH7  = 7u,  /**< clkHf input is Clock Path 7 */
ARM GAS  C:\Users\gjl\AppData\Local\Temp\ccNVysBX.s 			page 110


1453:Generated_Source\PSoC6\pdl\drivers\peripheral\sysclk/cy_sysclk.h ****     CY_SYSCLK_CLKHF_IN_CLKPATH8  = 8u,  /**< clkHf input is Clock Path 8 */
1454:Generated_Source\PSoC6\pdl\drivers\peripheral\sysclk/cy_sysclk.h ****     CY_SYSCLK_CLKHF_IN_CLKPATH9  = 9u,  /**< clkHf input is Clock Path 9 */
1455:Generated_Source\PSoC6\pdl\drivers\peripheral\sysclk/cy_sysclk.h ****     CY_SYSCLK_CLKHF_IN_CLKPATH10 = 10u, /**< clkHf input is Clock Path 10 */
1456:Generated_Source\PSoC6\pdl\drivers\peripheral\sysclk/cy_sysclk.h ****     CY_SYSCLK_CLKHF_IN_CLKPATH11 = 11u, /**< clkHf input is Clock Path 11 */
1457:Generated_Source\PSoC6\pdl\drivers\peripheral\sysclk/cy_sysclk.h ****     CY_SYSCLK_CLKHF_IN_CLKPATH12 = 12u, /**< clkHf input is Clock Path 12 */
1458:Generated_Source\PSoC6\pdl\drivers\peripheral\sysclk/cy_sysclk.h ****     CY_SYSCLK_CLKHF_IN_CLKPATH13 = 13u, /**< clkHf input is Clock Path 13 */
1459:Generated_Source\PSoC6\pdl\drivers\peripheral\sysclk/cy_sysclk.h ****     CY_SYSCLK_CLKHF_IN_CLKPATH14 = 14u, /**< clkHf input is Clock Path 14 */
1460:Generated_Source\PSoC6\pdl\drivers\peripheral\sysclk/cy_sysclk.h ****     CY_SYSCLK_CLKHF_IN_CLKPATH15 = 15u, /**< clkHf input is Clock Path 15 */
1461:Generated_Source\PSoC6\pdl\drivers\peripheral\sysclk/cy_sysclk.h **** } cy_en_clkhf_in_sources_t;
1462:Generated_Source\PSoC6\pdl\drivers\peripheral\sysclk/cy_sysclk.h **** 
1463:Generated_Source\PSoC6\pdl\drivers\peripheral\sysclk/cy_sysclk.h **** 
1464:Generated_Source\PSoC6\pdl\drivers\peripheral\sysclk/cy_sysclk.h **** /**
1465:Generated_Source\PSoC6\pdl\drivers\peripheral\sysclk/cy_sysclk.h **** * clkHf divider values. See CLK_ROOT_SELECT registers, bits ROOT_DIV.
1466:Generated_Source\PSoC6\pdl\drivers\peripheral\sysclk/cy_sysclk.h **** * Used with functions \ref Cy_SysClk_ClkHfSetDivider and \ref Cy_SysClk_ClkHfGetDivider.
1467:Generated_Source\PSoC6\pdl\drivers\peripheral\sysclk/cy_sysclk.h **** */
1468:Generated_Source\PSoC6\pdl\drivers\peripheral\sysclk/cy_sysclk.h **** typedef enum
1469:Generated_Source\PSoC6\pdl\drivers\peripheral\sysclk/cy_sysclk.h **** {
1470:Generated_Source\PSoC6\pdl\drivers\peripheral\sysclk/cy_sysclk.h ****     CY_SYSCLK_CLKHF_NO_DIVIDE   = 0u,    /**< don't divide clkHf. */
1471:Generated_Source\PSoC6\pdl\drivers\peripheral\sysclk/cy_sysclk.h ****     CY_SYSCLK_CLKHF_DIVIDE_BY_2 = 1u,    /**< divide clkHf by 2 */
1472:Generated_Source\PSoC6\pdl\drivers\peripheral\sysclk/cy_sysclk.h ****     CY_SYSCLK_CLKHF_DIVIDE_BY_4 = 2u,    /**< divide clkHf by 4 */
1473:Generated_Source\PSoC6\pdl\drivers\peripheral\sysclk/cy_sysclk.h ****     CY_SYSCLK_CLKHF_DIVIDE_BY_8 = 3u     /**< divide clkHf by 8 */
1474:Generated_Source\PSoC6\pdl\drivers\peripheral\sysclk/cy_sysclk.h **** } cy_en_clkhf_dividers_t;
1475:Generated_Source\PSoC6\pdl\drivers\peripheral\sysclk/cy_sysclk.h **** 
1476:Generated_Source\PSoC6\pdl\drivers\peripheral\sysclk/cy_sysclk.h **** /**
1477:Generated_Source\PSoC6\pdl\drivers\peripheral\sysclk/cy_sysclk.h **** * clkHf clock supervisor input sources. See register CLK_CSV_HF_CTL[CSV_MUX].
1478:Generated_Source\PSoC6\pdl\drivers\peripheral\sysclk/cy_sysclk.h **** */
1479:Generated_Source\PSoC6\pdl\drivers\peripheral\sysclk/cy_sysclk.h **** typedef enum
1480:Generated_Source\PSoC6\pdl\drivers\peripheral\sysclk/cy_sysclk.h **** {
1481:Generated_Source\PSoC6\pdl\drivers\peripheral\sysclk/cy_sysclk.h ****     CY_SYSCLK_CLKHF_CSV_SUPERVISOR_IMO   = 0u,  /**< Supervising clock is the IMO. */
1482:Generated_Source\PSoC6\pdl\drivers\peripheral\sysclk/cy_sysclk.h ****     CY_SYSCLK_CLKHF_CSV_SUPERVISOR_EXT   = 1u,  /**< Supervising clock is the external clock */
1483:Generated_Source\PSoC6\pdl\drivers\peripheral\sysclk/cy_sysclk.h ****     CY_SYSCLK_CLKHF_CSV_SUPERVISOR_ALTHF = 2u   /**< Supervising clock is clk_althf */
1484:Generated_Source\PSoC6\pdl\drivers\peripheral\sysclk/cy_sysclk.h **** } cy_en_clkhf_csv_supervisor_clock_t;
1485:Generated_Source\PSoC6\pdl\drivers\peripheral\sysclk/cy_sysclk.h **** /** \} group_sysclk_clk_hf_enums */
1486:Generated_Source\PSoC6\pdl\drivers\peripheral\sysclk/cy_sysclk.h **** 
1487:Generated_Source\PSoC6\pdl\drivers\peripheral\sysclk/cy_sysclk.h **** /**
1488:Generated_Source\PSoC6\pdl\drivers\peripheral\sysclk/cy_sysclk.h **** * \addtogroup group_sysclk_clk_hf_structs
1489:Generated_Source\PSoC6\pdl\drivers\peripheral\sysclk/cy_sysclk.h **** * \{SupervisingWindow
1490:Generated_Source\PSoC6\pdl\drivers\peripheral\sysclk/cy_sysclk.h **** */
1491:Generated_Source\PSoC6\pdl\drivers\peripheral\sysclk/cy_sysclk.h **** /**
1492:Generated_Source\PSoC6\pdl\drivers\peripheral\sysclk/cy_sysclk.h **** * This structure is used to configure the clock supervisor for clkHf.
1493:Generated_Source\PSoC6\pdl\drivers\peripheral\sysclk/cy_sysclk.h **** */
1494:Generated_Source\PSoC6\pdl\drivers\peripheral\sysclk/cy_sysclk.h **** typedef struct
1495:Generated_Source\PSoC6\pdl\drivers\peripheral\sysclk/cy_sysclk.h **** {
1496:Generated_Source\PSoC6\pdl\drivers\peripheral\sysclk/cy_sysclk.h ****     cy_en_clkhf_csv_supervisor_clock_t supervisorClock; /**< \ref cy_en_clkhf_csv_supervisor_clock_
1497:Generated_Source\PSoC6\pdl\drivers\peripheral\sysclk/cy_sysclk.h ****     uint16_t supervisingWindow;                         /**< Number of supervising clock cycles */
1498:Generated_Source\PSoC6\pdl\drivers\peripheral\sysclk/cy_sysclk.h ****     bool enableFrequencyFaultDetection;                 /**< 1= enabled, 0= disabled */
1499:Generated_Source\PSoC6\pdl\drivers\peripheral\sysclk/cy_sysclk.h ****     uint16_t frequencyLowerLimit;                       /**< Lowest frequency in kHz that supervise
1500:Generated_Source\PSoC6\pdl\drivers\peripheral\sysclk/cy_sysclk.h ****     uint16_t frequencyUpperLimit;                       /**< Highest frequency in kHz that supervis
1501:Generated_Source\PSoC6\pdl\drivers\peripheral\sysclk/cy_sysclk.h ****     cy_en_csv_error_actions_t frequencyAction;          /**< \ref cy_en_csv_error_actions_t */
1502:Generated_Source\PSoC6\pdl\drivers\peripheral\sysclk/cy_sysclk.h ****     bool enableLossDetection;                           /**< 1= enabled, 0= disabled */
1503:Generated_Source\PSoC6\pdl\drivers\peripheral\sysclk/cy_sysclk.h ****     cy_en_csv_loss_window_t lossWindow;                 /**< \ref cy_en_csv_loss_window_t */
1504:Generated_Source\PSoC6\pdl\drivers\peripheral\sysclk/cy_sysclk.h ****     cy_en_csv_error_actions_t lossAction;               /**< \ref cy_en_csv_error_actions_t */
1505:Generated_Source\PSoC6\pdl\drivers\peripheral\sysclk/cy_sysclk.h **** } cy_stc_clkhf_csv_config_t;
1506:Generated_Source\PSoC6\pdl\drivers\peripheral\sysclk/cy_sysclk.h **** /** \} group_sysclk_clk_hf_structs */
1507:Generated_Source\PSoC6\pdl\drivers\peripheral\sysclk/cy_sysclk.h **** 
1508:Generated_Source\PSoC6\pdl\drivers\peripheral\sysclk/cy_sysclk.h **** /**
1509:Generated_Source\PSoC6\pdl\drivers\peripheral\sysclk/cy_sysclk.h **** * \addtogroup group_sysclk_clk_hf_funcs
ARM GAS  C:\Users\gjl\AppData\Local\Temp\ccNVysBX.s 			page 111


1510:Generated_Source\PSoC6\pdl\drivers\peripheral\sysclk/cy_sysclk.h **** * \{
1511:Generated_Source\PSoC6\pdl\drivers\peripheral\sysclk/cy_sysclk.h **** */
1512:Generated_Source\PSoC6\pdl\drivers\peripheral\sysclk/cy_sysclk.h **** __STATIC_INLINE cy_en_sysclk_status_t Cy_SysClk_ClkHfEnable(uint32_t clkHf);
1513:Generated_Source\PSoC6\pdl\drivers\peripheral\sysclk/cy_sysclk.h **** __STATIC_INLINE cy_en_sysclk_status_t Cy_SysClk_ClkHfDisable(uint32_t clkHf);
1514:Generated_Source\PSoC6\pdl\drivers\peripheral\sysclk/cy_sysclk.h **** __STATIC_INLINE cy_en_sysclk_status_t Cy_SysClk_ClkHfSetSource(uint32_t clkHf, cy_en_clkhf_in_sourc
1515:Generated_Source\PSoC6\pdl\drivers\peripheral\sysclk/cy_sysclk.h **** __STATIC_INLINE cy_en_clkhf_in_sources_t Cy_SysClk_ClkHfGetSource(uint32_t clkHf);
1516:Generated_Source\PSoC6\pdl\drivers\peripheral\sysclk/cy_sysclk.h **** __STATIC_INLINE cy_en_sysclk_status_t Cy_SysClk_ClkHfSetDivider(uint32_t clkHf, cy_en_clkhf_divider
1517:Generated_Source\PSoC6\pdl\drivers\peripheral\sysclk/cy_sysclk.h **** __STATIC_INLINE cy_en_clkhf_dividers_t Cy_SysClk_ClkHfGetDivider(uint32_t clkHf);
1518:Generated_Source\PSoC6\pdl\drivers\peripheral\sysclk/cy_sysclk.h **** #if (SRSS_MASK_HFCSV != 0)  || defined(CY_DOXYGEN)
1519:Generated_Source\PSoC6\pdl\drivers\peripheral\sysclk/cy_sysclk.h ****     cy_en_sysclk_status_t Cy_SysClk_ClkHfConfigureCsv(uint32_t clkHf, const cy_stc_clkhf_csv_config
1520:Generated_Source\PSoC6\pdl\drivers\peripheral\sysclk/cy_sysclk.h **** #endif /* (SRSS_MASK_HFCSV != 0)  || defined(CY_DOXYGEN) */
1521:Generated_Source\PSoC6\pdl\drivers\peripheral\sysclk/cy_sysclk.h **** 
1522:Generated_Source\PSoC6\pdl\drivers\peripheral\sysclk/cy_sysclk.h **** 
1523:Generated_Source\PSoC6\pdl\drivers\peripheral\sysclk/cy_sysclk.h **** /*******************************************************************************
1524:Generated_Source\PSoC6\pdl\drivers\peripheral\sysclk/cy_sysclk.h **** * Function Name: Cy_SysClk_ClkHfEnable
1525:Generated_Source\PSoC6\pdl\drivers\peripheral\sysclk/cy_sysclk.h **** ****************************************************************************//**
1526:Generated_Source\PSoC6\pdl\drivers\peripheral\sysclk/cy_sysclk.h **** *
1527:Generated_Source\PSoC6\pdl\drivers\peripheral\sysclk/cy_sysclk.h **** * Enables the selected clkHf.
1528:Generated_Source\PSoC6\pdl\drivers\peripheral\sysclk/cy_sysclk.h **** *
1529:Generated_Source\PSoC6\pdl\drivers\peripheral\sysclk/cy_sysclk.h **** * \param clkHf Selects which clkHf to enable.
1530:Generated_Source\PSoC6\pdl\drivers\peripheral\sysclk/cy_sysclk.h **** *
1531:Generated_Source\PSoC6\pdl\drivers\peripheral\sysclk/cy_sysclk.h **** * \return \ref cy_en_sysclk_status_t
1532:Generated_Source\PSoC6\pdl\drivers\peripheral\sysclk/cy_sysclk.h **** *
1533:Generated_Source\PSoC6\pdl\drivers\peripheral\sysclk/cy_sysclk.h **** * \funcusage
1534:Generated_Source\PSoC6\pdl\drivers\peripheral\sysclk/cy_sysclk.h **** * \snippet sysclk/sysclk_v1_10_sut_01.cydsn/main_cm4.c snippet_Cy_SysClk_ClkHfEnable
1535:Generated_Source\PSoC6\pdl\drivers\peripheral\sysclk/cy_sysclk.h **** *
1536:Generated_Source\PSoC6\pdl\drivers\peripheral\sysclk/cy_sysclk.h **** *******************************************************************************/
1537:Generated_Source\PSoC6\pdl\drivers\peripheral\sysclk/cy_sysclk.h **** __STATIC_INLINE cy_en_sysclk_status_t Cy_SysClk_ClkHfEnable(uint32_t clkHf)
1538:Generated_Source\PSoC6\pdl\drivers\peripheral\sysclk/cy_sysclk.h **** {
1539:Generated_Source\PSoC6\pdl\drivers\peripheral\sysclk/cy_sysclk.h ****     cy_en_sysclk_status_t retval = CY_SYSCLK_BAD_PARAM;
1540:Generated_Source\PSoC6\pdl\drivers\peripheral\sysclk/cy_sysclk.h ****     if (clkHf < SRSS_NUM_HFROOT)
1541:Generated_Source\PSoC6\pdl\drivers\peripheral\sysclk/cy_sysclk.h ****     {
1542:Generated_Source\PSoC6\pdl\drivers\peripheral\sysclk/cy_sysclk.h ****         SRSS->CLK_ROOT_SELECT[clkHf] |= _VAL2FLD(SRSS_CLK_ROOT_SELECT_ENABLE, 1ul); /* 1 = enable *
1543:Generated_Source\PSoC6\pdl\drivers\peripheral\sysclk/cy_sysclk.h ****         retval = CY_SYSCLK_SUCCESS;
1544:Generated_Source\PSoC6\pdl\drivers\peripheral\sysclk/cy_sysclk.h ****     }
1545:Generated_Source\PSoC6\pdl\drivers\peripheral\sysclk/cy_sysclk.h ****     return (retval);
1546:Generated_Source\PSoC6\pdl\drivers\peripheral\sysclk/cy_sysclk.h **** }
1547:Generated_Source\PSoC6\pdl\drivers\peripheral\sysclk/cy_sysclk.h **** 
1548:Generated_Source\PSoC6\pdl\drivers\peripheral\sysclk/cy_sysclk.h **** /*******************************************************************************
1549:Generated_Source\PSoC6\pdl\drivers\peripheral\sysclk/cy_sysclk.h **** * Function Name: Cy_SysClk_ClkHfDisable
1550:Generated_Source\PSoC6\pdl\drivers\peripheral\sysclk/cy_sysclk.h **** ****************************************************************************//**
1551:Generated_Source\PSoC6\pdl\drivers\peripheral\sysclk/cy_sysclk.h **** *
1552:Generated_Source\PSoC6\pdl\drivers\peripheral\sysclk/cy_sysclk.h **** * Disables the selected clkHf.
1553:Generated_Source\PSoC6\pdl\drivers\peripheral\sysclk/cy_sysclk.h **** *
1554:Generated_Source\PSoC6\pdl\drivers\peripheral\sysclk/cy_sysclk.h **** * \param clkHf Selects which clkHf to enable.
1555:Generated_Source\PSoC6\pdl\drivers\peripheral\sysclk/cy_sysclk.h **** *
1556:Generated_Source\PSoC6\pdl\drivers\peripheral\sysclk/cy_sysclk.h **** * \return \ref cy_en_sysclk_status_t
1557:Generated_Source\PSoC6\pdl\drivers\peripheral\sysclk/cy_sysclk.h **** *
1558:Generated_Source\PSoC6\pdl\drivers\peripheral\sysclk/cy_sysclk.h **** * \note clkHf[0] cannot be disabled.
1559:Generated_Source\PSoC6\pdl\drivers\peripheral\sysclk/cy_sysclk.h **** *
1560:Generated_Source\PSoC6\pdl\drivers\peripheral\sysclk/cy_sysclk.h **** * \funcusage
1561:Generated_Source\PSoC6\pdl\drivers\peripheral\sysclk/cy_sysclk.h **** * \snippet sysclk/sysclk_v1_10_sut_01.cydsn/main_cm4.c snippet_Cy_SysClk_ClkHfDisable
1562:Generated_Source\PSoC6\pdl\drivers\peripheral\sysclk/cy_sysclk.h **** *
1563:Generated_Source\PSoC6\pdl\drivers\peripheral\sysclk/cy_sysclk.h **** *******************************************************************************/
1564:Generated_Source\PSoC6\pdl\drivers\peripheral\sysclk/cy_sysclk.h **** __STATIC_INLINE cy_en_sysclk_status_t Cy_SysClk_ClkHfDisable(uint32_t clkHf)
1565:Generated_Source\PSoC6\pdl\drivers\peripheral\sysclk/cy_sysclk.h **** {
1566:Generated_Source\PSoC6\pdl\drivers\peripheral\sysclk/cy_sysclk.h ****     cy_en_sysclk_status_t retval = CY_SYSCLK_BAD_PARAM;
ARM GAS  C:\Users\gjl\AppData\Local\Temp\ccNVysBX.s 			page 112


1567:Generated_Source\PSoC6\pdl\drivers\peripheral\sysclk/cy_sysclk.h ****     if ((0ul < clkHf) && (clkHf < SRSS_NUM_HFROOT))
1568:Generated_Source\PSoC6\pdl\drivers\peripheral\sysclk/cy_sysclk.h ****     {
1569:Generated_Source\PSoC6\pdl\drivers\peripheral\sysclk/cy_sysclk.h ****         SRSS->CLK_ROOT_SELECT[clkHf] &= ~_VAL2FLD(SRSS_CLK_ROOT_SELECT_ENABLE, 1ul); /* 0 = disable
1570:Generated_Source\PSoC6\pdl\drivers\peripheral\sysclk/cy_sysclk.h ****         retval = CY_SYSCLK_SUCCESS;
1571:Generated_Source\PSoC6\pdl\drivers\peripheral\sysclk/cy_sysclk.h ****     }
1572:Generated_Source\PSoC6\pdl\drivers\peripheral\sysclk/cy_sysclk.h ****     return (retval);
1573:Generated_Source\PSoC6\pdl\drivers\peripheral\sysclk/cy_sysclk.h **** }
1574:Generated_Source\PSoC6\pdl\drivers\peripheral\sysclk/cy_sysclk.h **** 
1575:Generated_Source\PSoC6\pdl\drivers\peripheral\sysclk/cy_sysclk.h **** /*******************************************************************************
1576:Generated_Source\PSoC6\pdl\drivers\peripheral\sysclk/cy_sysclk.h **** * Function Name: Cy_SysClk_ClkHfSetSource
1577:Generated_Source\PSoC6\pdl\drivers\peripheral\sysclk/cy_sysclk.h **** ****************************************************************************//**
1578:Generated_Source\PSoC6\pdl\drivers\peripheral\sysclk/cy_sysclk.h **** *
1579:Generated_Source\PSoC6\pdl\drivers\peripheral\sysclk/cy_sysclk.h **** * Selects the source of the selected clkHf.
1580:Generated_Source\PSoC6\pdl\drivers\peripheral\sysclk/cy_sysclk.h **** *
1581:Generated_Source\PSoC6\pdl\drivers\peripheral\sysclk/cy_sysclk.h **** * \param clkHf selects which clkHf mux to configure.
1582:Generated_Source\PSoC6\pdl\drivers\peripheral\sysclk/cy_sysclk.h **** *
1583:Generated_Source\PSoC6\pdl\drivers\peripheral\sysclk/cy_sysclk.h **** * \param source \ref cy_en_clkhf_in_sources_t
1584:Generated_Source\PSoC6\pdl\drivers\peripheral\sysclk/cy_sysclk.h **** *
1585:Generated_Source\PSoC6\pdl\drivers\peripheral\sysclk/cy_sysclk.h **** * \return \ref cy_en_sysclk_status_t
1586:Generated_Source\PSoC6\pdl\drivers\peripheral\sysclk/cy_sysclk.h **** *
1587:Generated_Source\PSoC6\pdl\drivers\peripheral\sysclk/cy_sysclk.h **** * \funcusage
1588:Generated_Source\PSoC6\pdl\drivers\peripheral\sysclk/cy_sysclk.h **** * \snippet sysclk/sysclk_v1_10_sut_01.cydsn/main_cm4.c snippet_Cy_SysClk_ClkHfSetSource
1589:Generated_Source\PSoC6\pdl\drivers\peripheral\sysclk/cy_sysclk.h **** *
1590:Generated_Source\PSoC6\pdl\drivers\peripheral\sysclk/cy_sysclk.h **** *******************************************************************************/
1591:Generated_Source\PSoC6\pdl\drivers\peripheral\sysclk/cy_sysclk.h **** __STATIC_INLINE cy_en_sysclk_status_t Cy_SysClk_ClkHfSetSource(uint32_t clkHf, cy_en_clkhf_in_sourc
1592:Generated_Source\PSoC6\pdl\drivers\peripheral\sysclk/cy_sysclk.h **** {
1593:Generated_Source\PSoC6\pdl\drivers\peripheral\sysclk/cy_sysclk.h ****     cy_en_sysclk_status_t retval = CY_SYSCLK_BAD_PARAM;
1594:Generated_Source\PSoC6\pdl\drivers\peripheral\sysclk/cy_sysclk.h ****     if ((clkHf < SRSS_NUM_HFROOT) && (source <= CY_SYSCLK_CLKHF_IN_CLKPATH15))
1595:Generated_Source\PSoC6\pdl\drivers\peripheral\sysclk/cy_sysclk.h ****     {
1596:Generated_Source\PSoC6\pdl\drivers\peripheral\sysclk/cy_sysclk.h ****         CY_SYSCLK_CLR_SET(SRSS->CLK_ROOT_SELECT[clkHf], SRSS_CLK_ROOT_SELECT_ROOT_MUX, source);
1597:Generated_Source\PSoC6\pdl\drivers\peripheral\sysclk/cy_sysclk.h ****         retval = CY_SYSCLK_SUCCESS;
1598:Generated_Source\PSoC6\pdl\drivers\peripheral\sysclk/cy_sysclk.h ****     }
1599:Generated_Source\PSoC6\pdl\drivers\peripheral\sysclk/cy_sysclk.h ****     return (retval);
1600:Generated_Source\PSoC6\pdl\drivers\peripheral\sysclk/cy_sysclk.h **** }
1601:Generated_Source\PSoC6\pdl\drivers\peripheral\sysclk/cy_sysclk.h **** 
1602:Generated_Source\PSoC6\pdl\drivers\peripheral\sysclk/cy_sysclk.h **** /*******************************************************************************
1603:Generated_Source\PSoC6\pdl\drivers\peripheral\sysclk/cy_sysclk.h **** * Function Name: Cy_SysClk_ClkHfGetSource
1604:Generated_Source\PSoC6\pdl\drivers\peripheral\sysclk/cy_sysclk.h **** ****************************************************************************//**
1605:Generated_Source\PSoC6\pdl\drivers\peripheral\sysclk/cy_sysclk.h **** *
1606:Generated_Source\PSoC6\pdl\drivers\peripheral\sysclk/cy_sysclk.h **** * Reports the source of the selected clkHf.
1607:Generated_Source\PSoC6\pdl\drivers\peripheral\sysclk/cy_sysclk.h **** *
1608:Generated_Source\PSoC6\pdl\drivers\peripheral\sysclk/cy_sysclk.h **** * \param clkHf selects which clkHf to get the source of.
1609:Generated_Source\PSoC6\pdl\drivers\peripheral\sysclk/cy_sysclk.h **** *
1610:Generated_Source\PSoC6\pdl\drivers\peripheral\sysclk/cy_sysclk.h **** * \return \ref cy_en_clkhf_in_sources_t
1611:Generated_Source\PSoC6\pdl\drivers\peripheral\sysclk/cy_sysclk.h **** *
1612:Generated_Source\PSoC6\pdl\drivers\peripheral\sysclk/cy_sysclk.h **** * \funcusage
1613:Generated_Source\PSoC6\pdl\drivers\peripheral\sysclk/cy_sysclk.h **** * \snippet sysclk/sysclk_v1_10_sut_01.cydsn/main_cm4.c snippet_Cy_SysClk_ClkHfSetSource
1614:Generated_Source\PSoC6\pdl\drivers\peripheral\sysclk/cy_sysclk.h **** *
1615:Generated_Source\PSoC6\pdl\drivers\peripheral\sysclk/cy_sysclk.h **** *******************************************************************************/
1616:Generated_Source\PSoC6\pdl\drivers\peripheral\sysclk/cy_sysclk.h **** __STATIC_INLINE cy_en_clkhf_in_sources_t Cy_SysClk_ClkHfGetSource(uint32_t clkHf)
1617:Generated_Source\PSoC6\pdl\drivers\peripheral\sysclk/cy_sysclk.h **** {
1618:Generated_Source\PSoC6\pdl\drivers\peripheral\sysclk/cy_sysclk.h ****     CY_ASSERT_L1(clkHf < SRSS_NUM_HFROOT);
1619:Generated_Source\PSoC6\pdl\drivers\peripheral\sysclk/cy_sysclk.h ****     return (cy_en_clkhf_in_sources_t)(_FLD2VAL(SRSS_CLK_ROOT_SELECT_ROOT_MUX, SRSS->CLK_ROOT_SELECT
 2968              		.loc 2 1619 0
 2969 0040 854B     		ldr	r3, .L325+4
 2970 0042 D3F88053 		ldr	r5, [r3, #896]
 2971              	.LVL296:
ARM GAS  C:\Users\gjl\AppData\Local\Temp\ccNVysBX.s 			page 113


 2972              	.LBE81:
 2973              	.LBE80:
1606:Generated_Source\PSoC6\pdl\drivers\peripheral\sysclk/cy_sysclk.c **** 
1607:Generated_Source\PSoC6\pdl\drivers\peripheral\sysclk/cy_sysclk.c ****     /* Start by finding the source input for root 0 (clkHf[0]) */
1608:Generated_Source\PSoC6\pdl\drivers\peripheral\sysclk/cy_sysclk.c ****     path = Cy_SysClk_ClkHfGetSource(0ul);
1609:Generated_Source\PSoC6\pdl\drivers\peripheral\sysclk/cy_sysclk.c **** 
1610:Generated_Source\PSoC6\pdl\drivers\peripheral\sysclk/cy_sysclk.c ****     if (path == CY_SYSCLK_CLKHF_IN_CLKPATH0) /* FLL? (always path 0) */
 2974              		.loc 1 1610 0
 2975 0046 15F00F05 		ands	r5, r5, #15
 2976 004a 0FD1     		bne	.L291
1611:Generated_Source\PSoC6\pdl\drivers\peripheral\sysclk/cy_sysclk.c ****     {
1612:Generated_Source\PSoC6\pdl\drivers\peripheral\sysclk/cy_sysclk.c ****         Cy_SysClk_FllGetConfiguration(&fllpll.fll);
 2977              		.loc 1 1612 0
 2978 004c 05A8     		add	r0, sp, #20
 2979 004e FFF7FEFF 		bl	Cy_SysClk_FllGetConfiguration
 2980              	.LVL297:
1613:Generated_Source\PSoC6\pdl\drivers\peripheral\sysclk/cy_sysclk.c ****         source = Cy_SysClk_ClkPathGetSource(0ul);
 2981              		.loc 1 1613 0
 2982 0052 0020     		movs	r0, #0
 2983 0054 FFF7FEFF 		bl	Cy_SysClk_ClkPathGetSource
 2984              	.LVL298:
 2985 0058 0446     		mov	r4, r0
 2986              	.LVL299:
1614:Generated_Source\PSoC6\pdl\drivers\peripheral\sysclk/cy_sysclk.c ****         mode = fllpll.fll.outputMode;
 2987              		.loc 1 1614 0
 2988 005a 9DF82280 		ldrb	r8, [sp, #34]	@ zero_extendqisi2
 2989              	.LVL300:
 2990              	.LBB82:
 2991              	.LBB83:
 810:Generated_Source\PSoC6\pdl\drivers\peripheral\sysclk/cy_sysclk.h **** }
 2992              		.loc 2 810 0
 2993 005e 7E4B     		ldr	r3, .L325+4
 2994 0060 D3F89035 		ldr	r3, [r3, #1424]
 2995 0064 03F00103 		and	r3, r3, #1
 2996 0068 DBB2     		uxtb	r3, r3
 2997              	.LVL301:
 2998              	.LBE83:
 2999              	.LBE82:
 3000 006a 2DE0     		b	.L292
 3001              	.LVL302:
 3002              	.L291:
1615:Generated_Source\PSoC6\pdl\drivers\peripheral\sysclk/cy_sysclk.c ****         locked = Cy_SysClk_FllLocked();
1616:Generated_Source\PSoC6\pdl\drivers\peripheral\sysclk/cy_sysclk.c ****     }
1617:Generated_Source\PSoC6\pdl\drivers\peripheral\sysclk/cy_sysclk.c ****     else if ((uint32_t)path <= (uint32_t)SRSS_NUM_PLL) /* PLL? (always path 1 - N)*/
 3003              		.loc 1 1617 0
 3004 006c 012D     		cmp	r5, #1
 3005 006e 25D8     		bhi	.L293
 3006              	.LBB84:
1618:Generated_Source\PSoC6\pdl\drivers\peripheral\sysclk/cy_sysclk.c ****     {
1619:Generated_Source\PSoC6\pdl\drivers\peripheral\sysclk/cy_sysclk.c ****         cy_stc_pll_manual_config_t config;
1620:Generated_Source\PSoC6\pdl\drivers\peripheral\sysclk/cy_sysclk.c ****         (void)Cy_SysClk_PllGetConfiguration((uint32_t)path, &config);
 3007              		.loc 1 1620 0
 3008 0070 01A9     		add	r1, sp, #4
 3009 0072 2846     		mov	r0, r5
 3010 0074 FFF7FEFF 		bl	Cy_SysClk_PllGetConfiguration
 3011              	.LVL303:
1621:Generated_Source\PSoC6\pdl\drivers\peripheral\sysclk/cy_sysclk.c ****         fllpll.pll.feedbackDiv  = config.feedbackDiv;
ARM GAS  C:\Users\gjl\AppData\Local\Temp\ccNVysBX.s 			page 114


 3012              		.loc 1 1621 0
 3013 0078 9DF80430 		ldrb	r3, [sp, #4]	@ zero_extendqisi2
 3014 007c 8DF81430 		strb	r3, [sp, #20]
1622:Generated_Source\PSoC6\pdl\drivers\peripheral\sysclk/cy_sysclk.c ****         fllpll.pll.referenceDiv = config.referenceDiv;
 3015              		.loc 1 1622 0
 3016 0080 9DF80530 		ldrb	r3, [sp, #5]	@ zero_extendqisi2
 3017 0084 8DF81530 		strb	r3, [sp, #21]
1623:Generated_Source\PSoC6\pdl\drivers\peripheral\sysclk/cy_sysclk.c ****         fllpll.pll.outputDiv    = config.outputDiv;
 3018              		.loc 1 1623 0
 3019 0088 9DF80630 		ldrb	r3, [sp, #6]	@ zero_extendqisi2
 3020 008c 8DF81630 		strb	r3, [sp, #22]
1624:Generated_Source\PSoC6\pdl\drivers\peripheral\sysclk/cy_sysclk.c ****         mode = config.outputMode;
 3021              		.loc 1 1624 0
 3022 0090 9DF80880 		ldrb	r8, [sp, #8]	@ zero_extendqisi2
 3023              	.LVL304:
1625:Generated_Source\PSoC6\pdl\drivers\peripheral\sysclk/cy_sysclk.c ****         source = Cy_SysClk_ClkPathGetSource((uint32_t)path);
 3024              		.loc 1 1625 0
 3025 0094 2846     		mov	r0, r5
 3026 0096 FFF7FEFF 		bl	Cy_SysClk_ClkPathGetSource
 3027              	.LVL305:
 3028 009a 0446     		mov	r4, r0
 3029              	.LVL306:
 3030              	.LBB85:
 3031              	.LBB86:
 918:Generated_Source\PSoC6\pdl\drivers\peripheral\sysclk/cy_sysclk.h ****     return (bool)(_FLD2VAL(SRSS_CLK_PLL_STATUS_LOCKED, SRSS->CLK_PLL_STATUS[clkPath - 1ul]));
 3032              		.loc 2 918 0
 3033 009c 012D     		cmp	r5, #1
 3034 009e 04D0     		beq	.L294
 3035 00a0 40F29631 		movw	r1, #918
 3036 00a4 6D48     		ldr	r0, .L325+8
 3037 00a6 FFF7FEFF 		bl	Cy_SysLib_AssertFailed
 3038              	.LVL307:
 3039              	.L294:
 919:Generated_Source\PSoC6\pdl\drivers\peripheral\sysclk/cy_sysclk.h **** }
 3040              		.loc 2 919 0
 3041 00aa 05F28F13 		addw	r3, r5, #399
 3042 00ae 6A4A     		ldr	r2, .L325+4
 3043 00b0 52F82330 		ldr	r3, [r2, r3, lsl #2]
 3044 00b4 03F00103 		and	r3, r3, #1
 3045 00b8 DBB2     		uxtb	r3, r3
 3046              	.LVL308:
 3047              	.LBE86:
 3048              	.LBE85:
 3049              	.LBE84:
 3050 00ba 05E0     		b	.L292
 3051              	.LVL309:
 3052              	.L293:
1626:Generated_Source\PSoC6\pdl\drivers\peripheral\sysclk/cy_sysclk.c ****         locked = Cy_SysClk_PllLocked((uint32_t)path);
1627:Generated_Source\PSoC6\pdl\drivers\peripheral\sysclk/cy_sysclk.c ****     }
1628:Generated_Source\PSoC6\pdl\drivers\peripheral\sysclk/cy_sysclk.c ****     else /* assume clk_path < SRSS_NUM_CLKPATH */
1629:Generated_Source\PSoC6\pdl\drivers\peripheral\sysclk/cy_sysclk.c ****     { /* Direct select path. Use PLL function to get the source. */
1630:Generated_Source\PSoC6\pdl\drivers\peripheral\sysclk/cy_sysclk.c ****         source = Cy_SysClk_ClkPathGetSource((uint32_t)path);
 3053              		.loc 1 1630 0
 3054 00bc 2846     		mov	r0, r5
 3055 00be FFF7FEFF 		bl	Cy_SysClk_ClkPathGetSource
 3056              	.LVL310:
 3057 00c2 0446     		mov	r4, r0
ARM GAS  C:\Users\gjl\AppData\Local\Temp\ccNVysBX.s 			page 115


 3058              	.LVL311:
1592:Generated_Source\PSoC6\pdl\drivers\peripheral\sysclk/cy_sysclk.c ****     cy_en_clkpath_in_sources_t  source;       /* source input for path (FLL, PLL, or direct) */
 3059              		.loc 1 1592 0
 3060 00c4 0023     		movs	r3, #0
1591:Generated_Source\PSoC6\pdl\drivers\peripheral\sysclk/cy_sysclk.c ****     bool                     locked = 0;      /* FLL or PLL lock status; n/a for direct */
 3061              		.loc 1 1591 0
 3062 00c6 9846     		mov	r8, r3
 3063              	.LVL312:
 3064              	.L292:
1631:Generated_Source\PSoC6\pdl\drivers\peripheral\sysclk/cy_sysclk.c ****     }
1632:Generated_Source\PSoC6\pdl\drivers\peripheral\sysclk/cy_sysclk.c **** 
1633:Generated_Source\PSoC6\pdl\drivers\peripheral\sysclk/cy_sysclk.c ****     /* get the frequency of the source, i.e., the path mux input */
1634:Generated_Source\PSoC6\pdl\drivers\peripheral\sysclk/cy_sysclk.c ****     switch(source)
 3065              		.loc 1 1634 0
 3066 00c8 24B1     		cbz	r4, .L296
 3067 00ca A4F58874 		sub	r4, r4, #272
 3068              	.LVL313:
 3069 00ce 012C     		cmp	r4, #1
 3070 00d0 02D8     		bhi	.L295
 3071 00d2 03E0     		b	.L323
 3072              	.LVL314:
 3073              	.L296:
1635:Generated_Source\PSoC6\pdl\drivers\peripheral\sysclk/cy_sysclk.c ****     {
1636:Generated_Source\PSoC6\pdl\drivers\peripheral\sysclk/cy_sysclk.c ****         case CY_SYSCLK_CLKPATH_IN_IMO: /* IMO frequency is fixed at 8 MHz */
1637:Generated_Source\PSoC6\pdl\drivers\peripheral\sysclk/cy_sysclk.c ****             source_freq = 8000000ul; /*Hz*/
 3074              		.loc 1 1637 0
 3075 00d4 624C     		ldr	r4, .L325+12
 3076              	.LVL315:
 3077 00d6 03E0     		b	.L297
 3078              	.L295:
 3079              	.LVL316:
1638:Generated_Source\PSoC6\pdl\drivers\peripheral\sysclk/cy_sysclk.c ****             break;
1639:Generated_Source\PSoC6\pdl\drivers\peripheral\sysclk/cy_sysclk.c ****         case CY_SYSCLK_CLKPATH_IN_ILO: /* ILO and WCO frequencies are nominally 32.768 kHz */
1640:Generated_Source\PSoC6\pdl\drivers\peripheral\sysclk/cy_sysclk.c ****         case CY_SYSCLK_CLKPATH_IN_WCO:
1641:Generated_Source\PSoC6\pdl\drivers\peripheral\sysclk/cy_sysclk.c ****             source_freq = 32768ul; /*Hz*/
1642:Generated_Source\PSoC6\pdl\drivers\peripheral\sysclk/cy_sysclk.c ****             break;
1643:Generated_Source\PSoC6\pdl\drivers\peripheral\sysclk/cy_sysclk.c ****         default:
1644:Generated_Source\PSoC6\pdl\drivers\peripheral\sysclk/cy_sysclk.c ****             /* don't know the frequency of clk_ext, ECO, clk_althf, dsi_out, or clk_altlf */
1645:Generated_Source\PSoC6\pdl\drivers\peripheral\sysclk/cy_sysclk.c ****             source_freq = 0ul; /* unknown frequency */
 3080              		.loc 1 1645 0
 3081 00d8 0024     		movs	r4, #0
1646:Generated_Source\PSoC6\pdl\drivers\peripheral\sysclk/cy_sysclk.c ****             break;
 3082              		.loc 1 1646 0
 3083 00da 01E0     		b	.L297
 3084              	.LVL317:
 3085              	.L323:
1641:Generated_Source\PSoC6\pdl\drivers\peripheral\sysclk/cy_sysclk.c ****             break;
 3086              		.loc 1 1641 0
 3087 00dc 4FF40044 		mov	r4, #32768
 3088              	.L297:
 3089              	.LVL318:
1647:Generated_Source\PSoC6\pdl\drivers\peripheral\sysclk/cy_sysclk.c ****     }
1648:Generated_Source\PSoC6\pdl\drivers\peripheral\sysclk/cy_sysclk.c ****     if (source_freq != 0ul)
 3090              		.loc 1 1648 0
 3091 00e0 002C     		cmp	r4, #0
 3092 00e2 00F0B280 		beq	.L318
1649:Generated_Source\PSoC6\pdl\drivers\peripheral\sysclk/cy_sysclk.c ****     {
ARM GAS  C:\Users\gjl\AppData\Local\Temp\ccNVysBX.s 			page 116


1650:Generated_Source\PSoC6\pdl\drivers\peripheral\sysclk/cy_sysclk.c ****         /* Calculate the path frequency */
1651:Generated_Source\PSoC6\pdl\drivers\peripheral\sysclk/cy_sysclk.c ****         if (path == CY_SYSCLK_CLKHF_IN_CLKPATH0) /* FLL? (always path 0) */
 3093              		.loc 1 1651 0
 3094 00e6 B5B9     		cbnz	r5, .L299
 3095              	.LVL319:
1652:Generated_Source\PSoC6\pdl\drivers\peripheral\sysclk/cy_sysclk.c ****         {
1653:Generated_Source\PSoC6\pdl\drivers\peripheral\sysclk/cy_sysclk.c ****             path_freq = source_freq; /* for bypass mode */
1654:Generated_Source\PSoC6\pdl\drivers\peripheral\sysclk/cy_sysclk.c ****             /* if not bypass mode, apply the dividers calculation */
1655:Generated_Source\PSoC6\pdl\drivers\peripheral\sysclk/cy_sysclk.c ****             if ((mode == CY_SYSCLK_FLLPLL_OUTPUT_OUTPUT) || ((mode != CY_SYSCLK_FLLPLL_OUTPUT_INPUT
 3096              		.loc 1 1655 0
 3097 00e8 B8F1030F 		cmp	r8, #3
 3098 00ec 03D0     		beq	.L300
 3099              		.loc 1 1655 0 is_stmt 0 discriminator 1
 3100 00ee B8F1020F 		cmp	r8, #2
 3101 00f2 2FD0     		beq	.L301
 3102              		.loc 1 1655 0 discriminator 2
 3103 00f4 73B3     		cbz	r3, .L301
 3104              	.L300:
1656:Generated_Source\PSoC6\pdl\drivers\peripheral\sysclk/cy_sysclk.c ****             {
1657:Generated_Source\PSoC6\pdl\drivers\peripheral\sysclk/cy_sysclk.c ****                 /* Ffll_out = Ffll_clk * FLL_MULT / FLL_REF_DIV / (FLL_OUTPUT_DIV + 1), where:
1658:Generated_Source\PSoC6\pdl\drivers\peripheral\sysclk/cy_sysclk.c ****                  *  FLL_MULT, REFERENCE_DIV, and OUTPUT_DIV are FLL configuration register bitfield
1659:Generated_Source\PSoC6\pdl\drivers\peripheral\sysclk/cy_sysclk.c ****                  * Check for possible divide by 0.
1660:Generated_Source\PSoC6\pdl\drivers\peripheral\sysclk/cy_sysclk.c ****                  */
1661:Generated_Source\PSoC6\pdl\drivers\peripheral\sysclk/cy_sysclk.c ****                 if (fllpll.fll.refDiv != 0ul)
 3105              		.loc 1 1661 0 is_stmt 1
 3106 00f6 BDF81820 		ldrh	r2, [sp, #24]
 3107 00fa 32B3     		cbz	r2, .L319
1662:Generated_Source\PSoC6\pdl\drivers\peripheral\sysclk/cy_sysclk.c ****                 {
1663:Generated_Source\PSoC6\pdl\drivers\peripheral\sysclk/cy_sysclk.c ****                     path_freq = (uint32_t)(((uint64_t)path_freq * (uint64_t)fllpll.fll.fllMult) /
 3108              		.loc 1 1663 0
 3109 00fc 92B2     		uxth	r2, r2
 3110 00fe 0023     		movs	r3, #0
 3111              	.LVL320:
 3112 0100 0598     		ldr	r0, [sp, #20]
 3113 0102 A4FB0001 		umull	r0, r1, r4, r0
 3114 0106 FFF7FEFF 		bl	__aeabi_uldivmod
 3115              	.LVL321:
1664:Generated_Source\PSoC6\pdl\drivers\peripheral\sysclk/cy_sysclk.c ****                                            (uint64_t)fllpll.fll.refDiv) /
1665:Generated_Source\PSoC6\pdl\drivers\peripheral\sysclk/cy_sysclk.c ****                                 ((uint32_t)(fllpll.fll.enableOutputDiv) + 1ul);
 3116              		.loc 1 1665 0
 3117 010a 9DF81B40 		ldrb	r4, [sp, #27]	@ zero_extendqisi2
 3118              	.LVL322:
 3119 010e 0134     		adds	r4, r4, #1
1663:Generated_Source\PSoC6\pdl\drivers\peripheral\sysclk/cy_sysclk.c ****                                            (uint64_t)fllpll.fll.refDiv) /
 3120              		.loc 1 1663 0
 3121 0110 B0FBF4F4 		udiv	r4, r0, r4
 3122              	.LVL323:
 3123 0114 1EE0     		b	.L301
 3124              	.LVL324:
 3125              	.L299:
1666:Generated_Source\PSoC6\pdl\drivers\peripheral\sysclk/cy_sysclk.c ****                 }
1667:Generated_Source\PSoC6\pdl\drivers\peripheral\sysclk/cy_sysclk.c ****                 else
1668:Generated_Source\PSoC6\pdl\drivers\peripheral\sysclk/cy_sysclk.c ****                 {
1669:Generated_Source\PSoC6\pdl\drivers\peripheral\sysclk/cy_sysclk.c ****                     path_freq = 0ul; /* error, one of the divisors is 0 */
1670:Generated_Source\PSoC6\pdl\drivers\peripheral\sysclk/cy_sysclk.c ****                 }
1671:Generated_Source\PSoC6\pdl\drivers\peripheral\sysclk/cy_sysclk.c ****             }
1672:Generated_Source\PSoC6\pdl\drivers\peripheral\sysclk/cy_sysclk.c ****         }
ARM GAS  C:\Users\gjl\AppData\Local\Temp\ccNVysBX.s 			page 117


1673:Generated_Source\PSoC6\pdl\drivers\peripheral\sysclk/cy_sysclk.c ****         else if ((uint32_t)path <= (uint32_t)SRSS_NUM_PLL) /* PLL? (always path 1 - N)*/
 3126              		.loc 1 1673 0
 3127 0116 012D     		cmp	r5, #1
 3128 0118 1CD8     		bhi	.L301
 3129              	.LVL325:
1674:Generated_Source\PSoC6\pdl\drivers\peripheral\sysclk/cy_sysclk.c ****         {
1675:Generated_Source\PSoC6\pdl\drivers\peripheral\sysclk/cy_sysclk.c ****             path_freq = source_freq; /* for bypass mode */
1676:Generated_Source\PSoC6\pdl\drivers\peripheral\sysclk/cy_sysclk.c ****             /* if not bypass mode, apply the dividers calculation */
1677:Generated_Source\PSoC6\pdl\drivers\peripheral\sysclk/cy_sysclk.c ****             if ((mode == CY_SYSCLK_FLLPLL_OUTPUT_OUTPUT) || ((mode != CY_SYSCLK_FLLPLL_OUTPUT_INPUT
 3130              		.loc 1 1677 0
 3131 011a B8F1030F 		cmp	r8, #3
 3132 011e 03D0     		beq	.L302
 3133              		.loc 1 1677 0 is_stmt 0 discriminator 1
 3134 0120 B8F1020F 		cmp	r8, #2
 3135 0124 16D0     		beq	.L301
 3136              		.loc 1 1677 0 discriminator 2
 3137 0126 ABB1     		cbz	r3, .L301
 3138              	.L302:
1678:Generated_Source\PSoC6\pdl\drivers\peripheral\sysclk/cy_sysclk.c ****             {
1679:Generated_Source\PSoC6\pdl\drivers\peripheral\sysclk/cy_sysclk.c ****                 /* Fpll_out = Fpll_clk * FEEDBACK_DIV / REFERENCE_DIV / OUTPUT_DIV, where:
1680:Generated_Source\PSoC6\pdl\drivers\peripheral\sysclk/cy_sysclk.c ****                  *  FEEDBACK_DIV, REFERENCE_DIV, and OUTPUT_DIV are PLL configuration register bitf
1681:Generated_Source\PSoC6\pdl\drivers\peripheral\sysclk/cy_sysclk.c ****                  * Check for possible divide by 0.
1682:Generated_Source\PSoC6\pdl\drivers\peripheral\sysclk/cy_sysclk.c ****                  */
1683:Generated_Source\PSoC6\pdl\drivers\peripheral\sysclk/cy_sysclk.c ****                 if ((fllpll.pll.referenceDiv != 0ul) && (fllpll.pll.outputDiv != 0ul))
 3139              		.loc 1 1683 0 is_stmt 1
 3140 0128 9DF81520 		ldrb	r2, [sp, #21]	@ zero_extendqisi2
 3141 012c 7AB1     		cbz	r2, .L320
 3142              		.loc 1 1683 0 is_stmt 0 discriminator 1
 3143 012e 9DF81650 		ldrb	r5, [sp, #22]	@ zero_extendqisi2
 3144 0132 75B1     		cbz	r5, .L321
1684:Generated_Source\PSoC6\pdl\drivers\peripheral\sysclk/cy_sysclk.c ****                 {
1685:Generated_Source\PSoC6\pdl\drivers\peripheral\sysclk/cy_sysclk.c ****                     path_freq = (uint32_t)(((uint64_t)source_freq * (uint64_t)fllpll.pll.feedbackDi
 3145              		.loc 1 1685 0 is_stmt 1
 3146 0134 9DF81400 		ldrb	r0, [sp, #20]	@ zero_extendqisi2
 3147 0138 A4FB0001 		umull	r0, r1, r4, r0
 3148 013c D2B2     		uxtb	r2, r2
 3149 013e 0023     		movs	r3, #0
 3150              	.LVL326:
 3151 0140 FFF7FEFF 		bl	__aeabi_uldivmod
 3152              	.LVL327:
 3153 0144 B0FBF5F4 		udiv	r4, r0, r5
 3154              	.LVL328:
 3155 0148 04E0     		b	.L301
 3156              	.LVL329:
 3157              	.L319:
1669:Generated_Source\PSoC6\pdl\drivers\peripheral\sysclk/cy_sysclk.c ****                 }
 3158              		.loc 1 1669 0
 3159 014a 0024     		movs	r4, #0
 3160              	.LVL330:
 3161 014c 02E0     		b	.L301
 3162              	.LVL331:
 3163              	.L320:
1686:Generated_Source\PSoC6\pdl\drivers\peripheral\sysclk/cy_sysclk.c ****                                            (uint64_t)fllpll.pll.referenceDiv) /
1687:Generated_Source\PSoC6\pdl\drivers\peripheral\sysclk/cy_sysclk.c ****                                 (uint32_t)fllpll.pll.outputDiv;
1688:Generated_Source\PSoC6\pdl\drivers\peripheral\sysclk/cy_sysclk.c ****                 }
1689:Generated_Source\PSoC6\pdl\drivers\peripheral\sysclk/cy_sysclk.c ****                 else
1690:Generated_Source\PSoC6\pdl\drivers\peripheral\sysclk/cy_sysclk.c ****                 {
ARM GAS  C:\Users\gjl\AppData\Local\Temp\ccNVysBX.s 			page 118


1691:Generated_Source\PSoC6\pdl\drivers\peripheral\sysclk/cy_sysclk.c ****                     path_freq = 0ul; /* error, one of the divisors is 0 */
 3164              		.loc 1 1691 0
 3165 014e 0024     		movs	r4, #0
 3166              	.LVL332:
 3167 0150 00E0     		b	.L301
 3168              	.LVL333:
 3169              	.L321:
 3170 0152 0024     		movs	r4, #0
 3171              	.LVL334:
 3172              	.L301:
 3173              	.LBB87:
 3174              	.LBB88:
1620:Generated_Source\PSoC6\pdl\drivers\peripheral\sysclk/cy_sysclk.h **** }
1621:Generated_Source\PSoC6\pdl\drivers\peripheral\sysclk/cy_sysclk.h **** 
1622:Generated_Source\PSoC6\pdl\drivers\peripheral\sysclk/cy_sysclk.h **** /*******************************************************************************
1623:Generated_Source\PSoC6\pdl\drivers\peripheral\sysclk/cy_sysclk.h **** * Function Name: Cy_SysClk_ClkHfSetDivider
1624:Generated_Source\PSoC6\pdl\drivers\peripheral\sysclk/cy_sysclk.h **** ****************************************************************************//**
1625:Generated_Source\PSoC6\pdl\drivers\peripheral\sysclk/cy_sysclk.h **** *
1626:Generated_Source\PSoC6\pdl\drivers\peripheral\sysclk/cy_sysclk.h **** * Sets the pre-divider for a clkHf.
1627:Generated_Source\PSoC6\pdl\drivers\peripheral\sysclk/cy_sysclk.h **** *
1628:Generated_Source\PSoC6\pdl\drivers\peripheral\sysclk/cy_sysclk.h **** * \param clkHf selects which clkHf divider to configure.
1629:Generated_Source\PSoC6\pdl\drivers\peripheral\sysclk/cy_sysclk.h **** *
1630:Generated_Source\PSoC6\pdl\drivers\peripheral\sysclk/cy_sysclk.h **** * \param divider \ref cy_en_clkhf_dividers_t
1631:Generated_Source\PSoC6\pdl\drivers\peripheral\sysclk/cy_sysclk.h **** *
1632:Generated_Source\PSoC6\pdl\drivers\peripheral\sysclk/cy_sysclk.h **** * \return \ref cy_en_sysclk_status_t
1633:Generated_Source\PSoC6\pdl\drivers\peripheral\sysclk/cy_sysclk.h **** *
1634:Generated_Source\PSoC6\pdl\drivers\peripheral\sysclk/cy_sysclk.h **** * \note Also call \ref Cy_SysClk_ClkHfSetSource to set the clkHf source.
1635:Generated_Source\PSoC6\pdl\drivers\peripheral\sysclk/cy_sysclk.h **** *
1636:Generated_Source\PSoC6\pdl\drivers\peripheral\sysclk/cy_sysclk.h **** * \funcusage
1637:Generated_Source\PSoC6\pdl\drivers\peripheral\sysclk/cy_sysclk.h **** * \snippet sysclk/sysclk_v1_10_sut_01.cydsn/main_cm4.c snippet_Cy_SysClk_ClkHfSetDivider
1638:Generated_Source\PSoC6\pdl\drivers\peripheral\sysclk/cy_sysclk.h **** *
1639:Generated_Source\PSoC6\pdl\drivers\peripheral\sysclk/cy_sysclk.h **** *******************************************************************************/
1640:Generated_Source\PSoC6\pdl\drivers\peripheral\sysclk/cy_sysclk.h **** __STATIC_INLINE cy_en_sysclk_status_t Cy_SysClk_ClkHfSetDivider(uint32_t clkHf, cy_en_clkhf_divider
1641:Generated_Source\PSoC6\pdl\drivers\peripheral\sysclk/cy_sysclk.h **** {
1642:Generated_Source\PSoC6\pdl\drivers\peripheral\sysclk/cy_sysclk.h ****     cy_en_sysclk_status_t retval = CY_SYSCLK_BAD_PARAM;
1643:Generated_Source\PSoC6\pdl\drivers\peripheral\sysclk/cy_sysclk.h ****     if ((clkHf < SRSS_NUM_HFROOT) && (divider <= CY_SYSCLK_CLKHF_DIVIDE_BY_8))
1644:Generated_Source\PSoC6\pdl\drivers\peripheral\sysclk/cy_sysclk.h ****     {
1645:Generated_Source\PSoC6\pdl\drivers\peripheral\sysclk/cy_sysclk.h ****         CY_SYSCLK_CLR_SET(SRSS->CLK_ROOT_SELECT[clkHf], SRSS_CLK_ROOT_SELECT_ROOT_DIV, divider);
1646:Generated_Source\PSoC6\pdl\drivers\peripheral\sysclk/cy_sysclk.h ****         retval = CY_SYSCLK_SUCCESS;
1647:Generated_Source\PSoC6\pdl\drivers\peripheral\sysclk/cy_sysclk.h ****     }
1648:Generated_Source\PSoC6\pdl\drivers\peripheral\sysclk/cy_sysclk.h ****     return (retval);
1649:Generated_Source\PSoC6\pdl\drivers\peripheral\sysclk/cy_sysclk.h **** }
1650:Generated_Source\PSoC6\pdl\drivers\peripheral\sysclk/cy_sysclk.h **** 
1651:Generated_Source\PSoC6\pdl\drivers\peripheral\sysclk/cy_sysclk.h **** /*******************************************************************************
1652:Generated_Source\PSoC6\pdl\drivers\peripheral\sysclk/cy_sysclk.h **** * Function Name: Cy_SysClk_ClkHfGetDivider
1653:Generated_Source\PSoC6\pdl\drivers\peripheral\sysclk/cy_sysclk.h **** ****************************************************************************//**
1654:Generated_Source\PSoC6\pdl\drivers\peripheral\sysclk/cy_sysclk.h **** *
1655:Generated_Source\PSoC6\pdl\drivers\peripheral\sysclk/cy_sysclk.h **** * Reports the pre-divider value for a clkHf.
1656:Generated_Source\PSoC6\pdl\drivers\peripheral\sysclk/cy_sysclk.h **** *
1657:Generated_Source\PSoC6\pdl\drivers\peripheral\sysclk/cy_sysclk.h **** * \param clkHf selects which clkHf to check divider of.
1658:Generated_Source\PSoC6\pdl\drivers\peripheral\sysclk/cy_sysclk.h **** *
1659:Generated_Source\PSoC6\pdl\drivers\peripheral\sysclk/cy_sysclk.h **** * \return \ref cy_en_clkhf_dividers_t
1660:Generated_Source\PSoC6\pdl\drivers\peripheral\sysclk/cy_sysclk.h **** *
1661:Generated_Source\PSoC6\pdl\drivers\peripheral\sysclk/cy_sysclk.h **** * \funcusage
1662:Generated_Source\PSoC6\pdl\drivers\peripheral\sysclk/cy_sysclk.h **** * \snippet sysclk/sysclk_v1_10_sut_01.cydsn/main_cm4.c snippet_Cy_SysClk_ClkHfSetDivider
1663:Generated_Source\PSoC6\pdl\drivers\peripheral\sysclk/cy_sysclk.h **** *
1664:Generated_Source\PSoC6\pdl\drivers\peripheral\sysclk/cy_sysclk.h **** *******************************************************************************/
ARM GAS  C:\Users\gjl\AppData\Local\Temp\ccNVysBX.s 			page 119


1665:Generated_Source\PSoC6\pdl\drivers\peripheral\sysclk/cy_sysclk.h **** __STATIC_INLINE cy_en_clkhf_dividers_t Cy_SysClk_ClkHfGetDivider(uint32_t clkHf)
1666:Generated_Source\PSoC6\pdl\drivers\peripheral\sysclk/cy_sysclk.h **** {
1667:Generated_Source\PSoC6\pdl\drivers\peripheral\sysclk/cy_sysclk.h ****     CY_ASSERT_L1(clkHf < SRSS_NUM_HFROOT);
1668:Generated_Source\PSoC6\pdl\drivers\peripheral\sysclk/cy_sysclk.h ****     return (cy_en_clkhf_dividers_t)(_FLD2VAL(SRSS_CLK_ROOT_SELECT_ROOT_DIV, SRSS->CLK_ROOT_SELECT[c
 3175              		.loc 2 1668 0
 3176 0154 404B     		ldr	r3, .L325+4
 3177 0156 D3F88033 		ldr	r3, [r3, #896]
 3178 015a C3F30113 		ubfx	r3, r3, #4, #2
 3179              	.LVL335:
 3180              	.LBE88:
 3181              	.LBE87:
1692:Generated_Source\PSoC6\pdl\drivers\peripheral\sysclk/cy_sysclk.c ****                 }
1693:Generated_Source\PSoC6\pdl\drivers\peripheral\sysclk/cy_sysclk.c ****             }
1694:Generated_Source\PSoC6\pdl\drivers\peripheral\sysclk/cy_sysclk.c ****         }
1695:Generated_Source\PSoC6\pdl\drivers\peripheral\sysclk/cy_sysclk.c ****         else /* assume clk_path < SRSS_NUM_CLKPATH */
1696:Generated_Source\PSoC6\pdl\drivers\peripheral\sysclk/cy_sysclk.c ****         { /* direct select path */
1697:Generated_Source\PSoC6\pdl\drivers\peripheral\sysclk/cy_sysclk.c ****             path_freq = source_freq;
1698:Generated_Source\PSoC6\pdl\drivers\peripheral\sysclk/cy_sysclk.c ****         }
1699:Generated_Source\PSoC6\pdl\drivers\peripheral\sysclk/cy_sysclk.c **** 
1700:Generated_Source\PSoC6\pdl\drivers\peripheral\sysclk/cy_sysclk.c ****         /* get the prescaler value for root 0, or clkHf[0]: 1/2/4/8 */
1701:Generated_Source\PSoC6\pdl\drivers\peripheral\sysclk/cy_sysclk.c ****         root_div = 1ul << (uint32_t)Cy_SysClk_ClkHfGetDivider(0ul);
 3182              		.loc 1 1701 0
 3183 015e 0120     		movs	r0, #1
 3184 0160 00FA03F8 		lsl	r8, r0, r3
 3185              	.LVL336:
 3186              	.LBB89:
 3187              	.LBB90:
1669:Generated_Source\PSoC6\pdl\drivers\peripheral\sysclk/cy_sysclk.h **** }
1670:Generated_Source\PSoC6\pdl\drivers\peripheral\sysclk/cy_sysclk.h **** /** \} group_sysclk_clk_hf_funcs */
1671:Generated_Source\PSoC6\pdl\drivers\peripheral\sysclk/cy_sysclk.h **** 
1672:Generated_Source\PSoC6\pdl\drivers\peripheral\sysclk/cy_sysclk.h **** 
1673:Generated_Source\PSoC6\pdl\drivers\peripheral\sysclk/cy_sysclk.h **** /* ========================================================================== */
1674:Generated_Source\PSoC6\pdl\drivers\peripheral\sysclk/cy_sysclk.h **** /* =========================    clk_fast SECTION    ========================= */
1675:Generated_Source\PSoC6\pdl\drivers\peripheral\sysclk/cy_sysclk.h **** /* ========================================================================== */
1676:Generated_Source\PSoC6\pdl\drivers\peripheral\sysclk/cy_sysclk.h **** /**
1677:Generated_Source\PSoC6\pdl\drivers\peripheral\sysclk/cy_sysclk.h **** * \addtogroup group_sysclk_clk_fast_funcs
1678:Generated_Source\PSoC6\pdl\drivers\peripheral\sysclk/cy_sysclk.h **** * \{
1679:Generated_Source\PSoC6\pdl\drivers\peripheral\sysclk/cy_sysclk.h **** */
1680:Generated_Source\PSoC6\pdl\drivers\peripheral\sysclk/cy_sysclk.h **** __STATIC_INLINE void Cy_SysClk_ClkFastSetDivider(uint8_t divider);
1681:Generated_Source\PSoC6\pdl\drivers\peripheral\sysclk/cy_sysclk.h **** __STATIC_INLINE uint8_t Cy_SysClk_ClkFastGetDivider(void);
1682:Generated_Source\PSoC6\pdl\drivers\peripheral\sysclk/cy_sysclk.h **** 
1683:Generated_Source\PSoC6\pdl\drivers\peripheral\sysclk/cy_sysclk.h **** /*******************************************************************************
1684:Generated_Source\PSoC6\pdl\drivers\peripheral\sysclk/cy_sysclk.h **** * Function Name: Cy_SysClk_ClkFastSetDivider
1685:Generated_Source\PSoC6\pdl\drivers\peripheral\sysclk/cy_sysclk.h **** ****************************************************************************//**
1686:Generated_Source\PSoC6\pdl\drivers\peripheral\sysclk/cy_sysclk.h **** *
1687:Generated_Source\PSoC6\pdl\drivers\peripheral\sysclk/cy_sysclk.h **** * Sets the clock divider for the fast clock, which sources the main processor.
1688:Generated_Source\PSoC6\pdl\drivers\peripheral\sysclk/cy_sysclk.h **** * The source of this divider is clkHf[0].
1689:Generated_Source\PSoC6\pdl\drivers\peripheral\sysclk/cy_sysclk.h **** *
1690:Generated_Source\PSoC6\pdl\drivers\peripheral\sysclk/cy_sysclk.h **** * \param divider divider value between 0 and 255.
1691:Generated_Source\PSoC6\pdl\drivers\peripheral\sysclk/cy_sysclk.h **** * Causes integer division of (divider value + 1), or division by 1 to 256.
1692:Generated_Source\PSoC6\pdl\drivers\peripheral\sysclk/cy_sysclk.h **** *
1693:Generated_Source\PSoC6\pdl\drivers\peripheral\sysclk/cy_sysclk.h **** * \funcusage
1694:Generated_Source\PSoC6\pdl\drivers\peripheral\sysclk/cy_sysclk.h **** * \snippet sysclk/sysclk_v1_10_sut_01.cydsn/main_cm4.c snippet_Cy_SysClk_ClkFastSetDivider
1695:Generated_Source\PSoC6\pdl\drivers\peripheral\sysclk/cy_sysclk.h **** *
1696:Generated_Source\PSoC6\pdl\drivers\peripheral\sysclk/cy_sysclk.h **** *******************************************************************************/
1697:Generated_Source\PSoC6\pdl\drivers\peripheral\sysclk/cy_sysclk.h **** __STATIC_INLINE void Cy_SysClk_ClkFastSetDivider(uint8_t divider)
1698:Generated_Source\PSoC6\pdl\drivers\peripheral\sysclk/cy_sysclk.h **** {
ARM GAS  C:\Users\gjl\AppData\Local\Temp\ccNVysBX.s 			page 120


1699:Generated_Source\PSoC6\pdl\drivers\peripheral\sysclk/cy_sysclk.h ****     CY_SYSCLK_CLR_SET(CPUSS->CM4_CLOCK_CTL, CPUSS_CM4_CLOCK_CTL_FAST_INT_DIV, (uint32_t)divider);
1700:Generated_Source\PSoC6\pdl\drivers\peripheral\sysclk/cy_sysclk.h **** }
1701:Generated_Source\PSoC6\pdl\drivers\peripheral\sysclk/cy_sysclk.h **** 
1702:Generated_Source\PSoC6\pdl\drivers\peripheral\sysclk/cy_sysclk.h **** /*******************************************************************************
1703:Generated_Source\PSoC6\pdl\drivers\peripheral\sysclk/cy_sysclk.h **** * Function Name: Cy_SysClk_ClkFastGetDivider
1704:Generated_Source\PSoC6\pdl\drivers\peripheral\sysclk/cy_sysclk.h **** ****************************************************************************//**
1705:Generated_Source\PSoC6\pdl\drivers\peripheral\sysclk/cy_sysclk.h **** *
1706:Generated_Source\PSoC6\pdl\drivers\peripheral\sysclk/cy_sysclk.h **** * Returns the clock divider for the fast clock.
1707:Generated_Source\PSoC6\pdl\drivers\peripheral\sysclk/cy_sysclk.h **** *
1708:Generated_Source\PSoC6\pdl\drivers\peripheral\sysclk/cy_sysclk.h **** * \return The divider value for the fast clock.
1709:Generated_Source\PSoC6\pdl\drivers\peripheral\sysclk/cy_sysclk.h **** * The integer division done is by (divider value + 1), or division by 1 to 256.
1710:Generated_Source\PSoC6\pdl\drivers\peripheral\sysclk/cy_sysclk.h **** *
1711:Generated_Source\PSoC6\pdl\drivers\peripheral\sysclk/cy_sysclk.h **** * \funcusage
1712:Generated_Source\PSoC6\pdl\drivers\peripheral\sysclk/cy_sysclk.h **** * \snippet sysclk/sysclk_v1_10_sut_01.cydsn/main_cm4.c snippet_Cy_SysClk_ClkFastSetDivider
1713:Generated_Source\PSoC6\pdl\drivers\peripheral\sysclk/cy_sysclk.h **** *
1714:Generated_Source\PSoC6\pdl\drivers\peripheral\sysclk/cy_sysclk.h **** *******************************************************************************/
1715:Generated_Source\PSoC6\pdl\drivers\peripheral\sysclk/cy_sysclk.h **** __STATIC_INLINE uint8_t Cy_SysClk_ClkFastGetDivider(void)
1716:Generated_Source\PSoC6\pdl\drivers\peripheral\sysclk/cy_sysclk.h **** {
1717:Generated_Source\PSoC6\pdl\drivers\peripheral\sysclk/cy_sysclk.h ****     return ((uint8_t)_FLD2VAL(CPUSS_CM4_CLOCK_CTL_FAST_INT_DIV, CPUSS->CM4_CLOCK_CTL));
1718:Generated_Source\PSoC6\pdl\drivers\peripheral\sysclk/cy_sysclk.h **** }
1719:Generated_Source\PSoC6\pdl\drivers\peripheral\sysclk/cy_sysclk.h **** /** \} group_sysclk_clk_fast_funcs */
1720:Generated_Source\PSoC6\pdl\drivers\peripheral\sysclk/cy_sysclk.h **** 
1721:Generated_Source\PSoC6\pdl\drivers\peripheral\sysclk/cy_sysclk.h **** 
1722:Generated_Source\PSoC6\pdl\drivers\peripheral\sysclk/cy_sysclk.h **** /* ========================================================================== */
1723:Generated_Source\PSoC6\pdl\drivers\peripheral\sysclk/cy_sysclk.h **** /* ========================    clk_peri SECTION    ========================== */
1724:Generated_Source\PSoC6\pdl\drivers\peripheral\sysclk/cy_sysclk.h **** /* ========================================================================== */
1725:Generated_Source\PSoC6\pdl\drivers\peripheral\sysclk/cy_sysclk.h **** /**
1726:Generated_Source\PSoC6\pdl\drivers\peripheral\sysclk/cy_sysclk.h **** * \addtogroup group_sysclk_clk_peri_funcs
1727:Generated_Source\PSoC6\pdl\drivers\peripheral\sysclk/cy_sysclk.h **** * \{
1728:Generated_Source\PSoC6\pdl\drivers\peripheral\sysclk/cy_sysclk.h **** */
1729:Generated_Source\PSoC6\pdl\drivers\peripheral\sysclk/cy_sysclk.h **** __STATIC_INLINE void Cy_SysClk_ClkPeriSetDivider(uint8_t divider);
1730:Generated_Source\PSoC6\pdl\drivers\peripheral\sysclk/cy_sysclk.h **** __STATIC_INLINE uint8_t Cy_SysClk_ClkPeriGetDivider(void);
1731:Generated_Source\PSoC6\pdl\drivers\peripheral\sysclk/cy_sysclk.h **** 
1732:Generated_Source\PSoC6\pdl\drivers\peripheral\sysclk/cy_sysclk.h **** /*******************************************************************************
1733:Generated_Source\PSoC6\pdl\drivers\peripheral\sysclk/cy_sysclk.h **** * Function Name: Cy_SysClk_ClkPeriSetDivider
1734:Generated_Source\PSoC6\pdl\drivers\peripheral\sysclk/cy_sysclk.h **** ****************************************************************************//**
1735:Generated_Source\PSoC6\pdl\drivers\peripheral\sysclk/cy_sysclk.h **** *
1736:Generated_Source\PSoC6\pdl\drivers\peripheral\sysclk/cy_sysclk.h **** * Sets the clock divider for the peripheral clock tree. All peripheral clock
1737:Generated_Source\PSoC6\pdl\drivers\peripheral\sysclk/cy_sysclk.h **** * dividers are sourced from this clock. Also the Cortex M0+ clock divider is
1738:Generated_Source\PSoC6\pdl\drivers\peripheral\sysclk/cy_sysclk.h **** * sourced from this clock. The source of this divider is clkHf[0]
1739:Generated_Source\PSoC6\pdl\drivers\peripheral\sysclk/cy_sysclk.h **** *
1740:Generated_Source\PSoC6\pdl\drivers\peripheral\sysclk/cy_sysclk.h **** * \param divider divider value between 0 and 255
1741:Generated_Source\PSoC6\pdl\drivers\peripheral\sysclk/cy_sysclk.h **** * Causes integer division of (divider value + 1), or division by 1 to 256.
1742:Generated_Source\PSoC6\pdl\drivers\peripheral\sysclk/cy_sysclk.h **** *
1743:Generated_Source\PSoC6\pdl\drivers\peripheral\sysclk/cy_sysclk.h **** * \funcusage
1744:Generated_Source\PSoC6\pdl\drivers\peripheral\sysclk/cy_sysclk.h **** * \snippet sysclk/sysclk_v1_10_sut_01.cydsn/main_cm4.c snippet_Cy_SysClk_ClkPeriSetDivider
1745:Generated_Source\PSoC6\pdl\drivers\peripheral\sysclk/cy_sysclk.h **** *
1746:Generated_Source\PSoC6\pdl\drivers\peripheral\sysclk/cy_sysclk.h **** *******************************************************************************/
1747:Generated_Source\PSoC6\pdl\drivers\peripheral\sysclk/cy_sysclk.h **** __STATIC_INLINE void Cy_SysClk_ClkPeriSetDivider(uint8_t divider)
1748:Generated_Source\PSoC6\pdl\drivers\peripheral\sysclk/cy_sysclk.h **** {
1749:Generated_Source\PSoC6\pdl\drivers\peripheral\sysclk/cy_sysclk.h ****     CY_SYSCLK_CLR_SET(CPUSS->CM0_CLOCK_CTL, CPUSS_CM0_CLOCK_CTL_PERI_INT_DIV, (uint32_t)divider);
1750:Generated_Source\PSoC6\pdl\drivers\peripheral\sysclk/cy_sysclk.h **** }
1751:Generated_Source\PSoC6\pdl\drivers\peripheral\sysclk/cy_sysclk.h **** 
1752:Generated_Source\PSoC6\pdl\drivers\peripheral\sysclk/cy_sysclk.h **** /*******************************************************************************
1753:Generated_Source\PSoC6\pdl\drivers\peripheral\sysclk/cy_sysclk.h **** * Function Name: Cy_SysClk_ClkPeriGetDivider
1754:Generated_Source\PSoC6\pdl\drivers\peripheral\sysclk/cy_sysclk.h **** ****************************************************************************//**
1755:Generated_Source\PSoC6\pdl\drivers\peripheral\sysclk/cy_sysclk.h **** *
ARM GAS  C:\Users\gjl\AppData\Local\Temp\ccNVysBX.s 			page 121


1756:Generated_Source\PSoC6\pdl\drivers\peripheral\sysclk/cy_sysclk.h **** * Returns the clock divider of the peripheral (peri) clock.
1757:Generated_Source\PSoC6\pdl\drivers\peripheral\sysclk/cy_sysclk.h **** *
1758:Generated_Source\PSoC6\pdl\drivers\peripheral\sysclk/cy_sysclk.h **** * \return The divider value.
1759:Generated_Source\PSoC6\pdl\drivers\peripheral\sysclk/cy_sysclk.h **** * The integer division done is by (divider value + 1), or division by 1 to 256.
1760:Generated_Source\PSoC6\pdl\drivers\peripheral\sysclk/cy_sysclk.h **** *
1761:Generated_Source\PSoC6\pdl\drivers\peripheral\sysclk/cy_sysclk.h **** * \funcusage
1762:Generated_Source\PSoC6\pdl\drivers\peripheral\sysclk/cy_sysclk.h **** * \snippet sysclk/sysclk_v1_10_sut_01.cydsn/main_cm4.c snippet_Cy_SysClk_ClkPeriSetDivider
1763:Generated_Source\PSoC6\pdl\drivers\peripheral\sysclk/cy_sysclk.h **** *
1764:Generated_Source\PSoC6\pdl\drivers\peripheral\sysclk/cy_sysclk.h **** *******************************************************************************/
1765:Generated_Source\PSoC6\pdl\drivers\peripheral\sysclk/cy_sysclk.h **** __STATIC_INLINE uint8_t Cy_SysClk_ClkPeriGetDivider(void)
1766:Generated_Source\PSoC6\pdl\drivers\peripheral\sysclk/cy_sysclk.h **** {
1767:Generated_Source\PSoC6\pdl\drivers\peripheral\sysclk/cy_sysclk.h ****     return ((uint8_t)_FLD2VAL(CPUSS_CM0_CLOCK_CTL_PERI_INT_DIV, CPUSS->CM0_CLOCK_CTL));
 3188              		.loc 2 1767 0
 3189 0164 3F4B     		ldr	r3, .L325+16
 3190 0166 1D69     		ldr	r5, [r3, #16]
 3191              	.LBE90:
 3192              	.LBE89:
1702:Generated_Source\PSoC6\pdl\drivers\peripheral\sysclk/cy_sysclk.c **** 
1703:Generated_Source\PSoC6\pdl\drivers\peripheral\sysclk/cy_sysclk.c ****         /* get the predivider value for clkHf[0] to clk_peri */
1704:Generated_Source\PSoC6\pdl\drivers\peripheral\sysclk/cy_sysclk.c ****         clkHf0_div = (uint32_t)Cy_SysClk_ClkPeriGetDivider() + 1ul;
 3193              		.loc 1 1704 0
 3194 0168 2D0E     		lsrs	r5, r5, #24
 3195 016a 0544     		add	r5, r5, r0
 3196              	.LVL337:
1705:Generated_Source\PSoC6\pdl\drivers\peripheral\sysclk/cy_sysclk.c **** 
1706:Generated_Source\PSoC6\pdl\drivers\peripheral\sysclk/cy_sysclk.c ****         /* get the divider value for clk_peri to the selected peripheral clock */
1707:Generated_Source\PSoC6\pdl\drivers\peripheral\sysclk/cy_sysclk.c ****         switch(dividerType)
 3197              		.loc 1 1707 0
 3198 016c 032E     		cmp	r6, #3
 3199 016e 5CD8     		bhi	.L303
 3200 0170 DFE806F0 		tbb	[pc, r6]
 3201              	.L305:
 3202 0174 02       		.byte	(.L304-.L305)/2
 3203 0175 02       		.byte	(.L304-.L305)/2
 3204 0176 29       		.byte	(.L306-.L305)/2
 3205 0177 29       		.byte	(.L306-.L305)/2
 3206              		.p2align 1
 3207              	.L304:
 3208              	.LVL338:
 3209              	.LBB91:
 3210              	.LBB92:
1768:Generated_Source\PSoC6\pdl\drivers\peripheral\sysclk/cy_sysclk.h **** }
1769:Generated_Source\PSoC6\pdl\drivers\peripheral\sysclk/cy_sysclk.h **** /** \} group_sysclk_clk_peri_funcs */
1770:Generated_Source\PSoC6\pdl\drivers\peripheral\sysclk/cy_sysclk.h **** 
1771:Generated_Source\PSoC6\pdl\drivers\peripheral\sysclk/cy_sysclk.h **** 
1772:Generated_Source\PSoC6\pdl\drivers\peripheral\sysclk/cy_sysclk.h **** /* ========================================================================== */
1773:Generated_Source\PSoC6\pdl\drivers\peripheral\sysclk/cy_sysclk.h **** /* =====================    clk_peripherals SECTION    ====================== */
1774:Generated_Source\PSoC6\pdl\drivers\peripheral\sysclk/cy_sysclk.h **** /* ========================================================================== */
1775:Generated_Source\PSoC6\pdl\drivers\peripheral\sysclk/cy_sysclk.h **** /**
1776:Generated_Source\PSoC6\pdl\drivers\peripheral\sysclk/cy_sysclk.h **** * \addtogroup group_sysclk_clk_peripheral_enums
1777:Generated_Source\PSoC6\pdl\drivers\peripheral\sysclk/cy_sysclk.h **** * \{
1778:Generated_Source\PSoC6\pdl\drivers\peripheral\sysclk/cy_sysclk.h **** */
1779:Generated_Source\PSoC6\pdl\drivers\peripheral\sysclk/cy_sysclk.h **** /** Programmable clock divider types */
1780:Generated_Source\PSoC6\pdl\drivers\peripheral\sysclk/cy_sysclk.h **** typedef enum
1781:Generated_Source\PSoC6\pdl\drivers\peripheral\sysclk/cy_sysclk.h **** {
1782:Generated_Source\PSoC6\pdl\drivers\peripheral\sysclk/cy_sysclk.h ****     CY_SYSCLK_DIV_8_BIT    = 0u, /**< Divider Type is an 8 bit divider */
1783:Generated_Source\PSoC6\pdl\drivers\peripheral\sysclk/cy_sysclk.h ****     CY_SYSCLK_DIV_16_BIT   = 1u, /**< Divider Type is a 16 bit divider */
ARM GAS  C:\Users\gjl\AppData\Local\Temp\ccNVysBX.s 			page 122


1784:Generated_Source\PSoC6\pdl\drivers\peripheral\sysclk/cy_sysclk.h ****     CY_SYSCLK_DIV_16_5_BIT = 2u, /**< Divider Type is a 16.5 bit fractional divider */
1785:Generated_Source\PSoC6\pdl\drivers\peripheral\sysclk/cy_sysclk.h ****     CY_SYSCLK_DIV_24_5_BIT = 3u  /**< Divider Type is a 24.5 bit fractional divider */
1786:Generated_Source\PSoC6\pdl\drivers\peripheral\sysclk/cy_sysclk.h **** } cy_en_divider_types_t;
1787:Generated_Source\PSoC6\pdl\drivers\peripheral\sysclk/cy_sysclk.h **** /** \} group_sysclk_clk_peripheral_enums */
1788:Generated_Source\PSoC6\pdl\drivers\peripheral\sysclk/cy_sysclk.h **** 
1789:Generated_Source\PSoC6\pdl\drivers\peripheral\sysclk/cy_sysclk.h **** /**
1790:Generated_Source\PSoC6\pdl\drivers\peripheral\sysclk/cy_sysclk.h **** * \addtogroup group_sysclk_clk_peripheral_funcs
1791:Generated_Source\PSoC6\pdl\drivers\peripheral\sysclk/cy_sysclk.h **** * \{
1792:Generated_Source\PSoC6\pdl\drivers\peripheral\sysclk/cy_sysclk.h **** */
1793:Generated_Source\PSoC6\pdl\drivers\peripheral\sysclk/cy_sysclk.h **** __STATIC_INLINE cy_en_sysclk_status_t Cy_SysClk_PeriphSetDivider(cy_en_divider_types_t dividerType,
1794:Generated_Source\PSoC6\pdl\drivers\peripheral\sysclk/cy_sysclk.h **** __STATIC_INLINE uint32_t Cy_SysClk_PeriphGetDivider(cy_en_divider_types_t dividerType, uint32_t div
1795:Generated_Source\PSoC6\pdl\drivers\peripheral\sysclk/cy_sysclk.h **** __STATIC_INLINE cy_en_sysclk_status_t Cy_SysClk_PeriphSetFracDivider(cy_en_divider_types_t dividerT
1796:Generated_Source\PSoC6\pdl\drivers\peripheral\sysclk/cy_sysclk.h **** __STATIC_INLINE void Cy_SysClk_PeriphGetFracDivider(cy_en_divider_types_t dividerType, uint32_t div
1797:Generated_Source\PSoC6\pdl\drivers\peripheral\sysclk/cy_sysclk.h **** __STATIC_INLINE cy_en_sysclk_status_t Cy_SysClk_PeriphAssignDivider(en_clk_dst_t ipBlock, cy_en_div
1798:Generated_Source\PSoC6\pdl\drivers\peripheral\sysclk/cy_sysclk.h **** __STATIC_INLINE uint32_t Cy_SysClk_PeriphGetAssignedDivider(en_clk_dst_t ipBlock);
1799:Generated_Source\PSoC6\pdl\drivers\peripheral\sysclk/cy_sysclk.h **** __STATIC_INLINE cy_en_sysclk_status_t Cy_SysClk_PeriphEnableDivider(cy_en_divider_types_t dividerTy
1800:Generated_Source\PSoC6\pdl\drivers\peripheral\sysclk/cy_sysclk.h **** __STATIC_INLINE cy_en_sysclk_status_t Cy_SysClk_PeriphDisableDivider(cy_en_divider_types_t dividerT
1801:Generated_Source\PSoC6\pdl\drivers\peripheral\sysclk/cy_sysclk.h **** __STATIC_INLINE cy_en_sysclk_status_t Cy_SysClk_PeriphEnablePhaseAlignDivider(cy_en_divider_types_t
1802:Generated_Source\PSoC6\pdl\drivers\peripheral\sysclk/cy_sysclk.h **** __STATIC_INLINE bool Cy_SysClk_PeriphGetDividerEnabled(cy_en_divider_types_t dividerType, uint32_t 
1803:Generated_Source\PSoC6\pdl\drivers\peripheral\sysclk/cy_sysclk.h **** uint32_t Cy_SysClk_PeriphGetFrequency(cy_en_divider_types_t dividerType, uint32_t dividerNum);
1804:Generated_Source\PSoC6\pdl\drivers\peripheral\sysclk/cy_sysclk.h **** 
1805:Generated_Source\PSoC6\pdl\drivers\peripheral\sysclk/cy_sysclk.h **** /*******************************************************************************
1806:Generated_Source\PSoC6\pdl\drivers\peripheral\sysclk/cy_sysclk.h **** * Function Name: Cy_SysClk_PeriphSetDivider
1807:Generated_Source\PSoC6\pdl\drivers\peripheral\sysclk/cy_sysclk.h **** ****************************************************************************//**
1808:Generated_Source\PSoC6\pdl\drivers\peripheral\sysclk/cy_sysclk.h **** *
1809:Generated_Source\PSoC6\pdl\drivers\peripheral\sysclk/cy_sysclk.h **** * Sets one of the programmable clock dividers. This is only used for integer
1810:Generated_Source\PSoC6\pdl\drivers\peripheral\sysclk/cy_sysclk.h **** * dividers. Use \ref Cy_SysClk_PeriphSetFracDivider for setting factional dividers.
1811:Generated_Source\PSoC6\pdl\drivers\peripheral\sysclk/cy_sysclk.h **** *
1812:Generated_Source\PSoC6\pdl\drivers\peripheral\sysclk/cy_sysclk.h **** * \param dividerType specifies which type of divider to use; \ref cy_en_divider_types_t
1813:Generated_Source\PSoC6\pdl\drivers\peripheral\sysclk/cy_sysclk.h **** *
1814:Generated_Source\PSoC6\pdl\drivers\peripheral\sysclk/cy_sysclk.h **** * \param dividerNum the divider number.
1815:Generated_Source\PSoC6\pdl\drivers\peripheral\sysclk/cy_sysclk.h **** *
1816:Generated_Source\PSoC6\pdl\drivers\peripheral\sysclk/cy_sysclk.h **** * \param dividerValue divider value
1817:Generated_Source\PSoC6\pdl\drivers\peripheral\sysclk/cy_sysclk.h **** * Causes integer division of (divider value + 1), or division by 1 to 256
1818:Generated_Source\PSoC6\pdl\drivers\peripheral\sysclk/cy_sysclk.h **** * (8-bit divider) or 1 to 65536 (16-bit divider).
1819:Generated_Source\PSoC6\pdl\drivers\peripheral\sysclk/cy_sysclk.h **** *
1820:Generated_Source\PSoC6\pdl\drivers\peripheral\sysclk/cy_sysclk.h **** * \return \ref cy_en_sysclk_status_t
1821:Generated_Source\PSoC6\pdl\drivers\peripheral\sysclk/cy_sysclk.h **** *
1822:Generated_Source\PSoC6\pdl\drivers\peripheral\sysclk/cy_sysclk.h **** * \funcusage
1823:Generated_Source\PSoC6\pdl\drivers\peripheral\sysclk/cy_sysclk.h **** * \snippet sysclk/sysclk_v1_10_sut_01.cydsn/main_cm4.c snippet_Cy_SysClk_PeriphSetDivider
1824:Generated_Source\PSoC6\pdl\drivers\peripheral\sysclk/cy_sysclk.h **** *
1825:Generated_Source\PSoC6\pdl\drivers\peripheral\sysclk/cy_sysclk.h **** *******************************************************************************/
1826:Generated_Source\PSoC6\pdl\drivers\peripheral\sysclk/cy_sysclk.h **** __STATIC_INLINE cy_en_sysclk_status_t
1827:Generated_Source\PSoC6\pdl\drivers\peripheral\sysclk/cy_sysclk.h ****                 Cy_SysClk_PeriphSetDivider(cy_en_divider_types_t dividerType,
1828:Generated_Source\PSoC6\pdl\drivers\peripheral\sysclk/cy_sysclk.h ****                                            uint32_t dividerNum, uint32_t dividerValue)
1829:Generated_Source\PSoC6\pdl\drivers\peripheral\sysclk/cy_sysclk.h **** {
1830:Generated_Source\PSoC6\pdl\drivers\peripheral\sysclk/cy_sysclk.h ****     cy_en_sysclk_status_t retval = CY_SYSCLK_BAD_PARAM;
1831:Generated_Source\PSoC6\pdl\drivers\peripheral\sysclk/cy_sysclk.h ****     if (dividerType == CY_SYSCLK_DIV_8_BIT)
1832:Generated_Source\PSoC6\pdl\drivers\peripheral\sysclk/cy_sysclk.h ****     {
1833:Generated_Source\PSoC6\pdl\drivers\peripheral\sysclk/cy_sysclk.h ****         if ((dividerNum < PERI_DIV_8_NR) &&
1834:Generated_Source\PSoC6\pdl\drivers\peripheral\sysclk/cy_sysclk.h ****             (dividerValue <= (PERI_DIV_8_CTL_INT8_DIV_Msk >> PERI_DIV_8_CTL_INT8_DIV_Pos)))
1835:Generated_Source\PSoC6\pdl\drivers\peripheral\sysclk/cy_sysclk.h ****         {
1836:Generated_Source\PSoC6\pdl\drivers\peripheral\sysclk/cy_sysclk.h ****             CY_SYSCLK_CLR_SET(PERI->DIV_8_CTL[dividerNum], PERI_DIV_8_CTL_INT8_DIV, dividerValue);
1837:Generated_Source\PSoC6\pdl\drivers\peripheral\sysclk/cy_sysclk.h ****             retval = CY_SYSCLK_SUCCESS;
1838:Generated_Source\PSoC6\pdl\drivers\peripheral\sysclk/cy_sysclk.h ****         }
1839:Generated_Source\PSoC6\pdl\drivers\peripheral\sysclk/cy_sysclk.h ****     }
1840:Generated_Source\PSoC6\pdl\drivers\peripheral\sysclk/cy_sysclk.h ****     else if (dividerType == CY_SYSCLK_DIV_16_BIT)
ARM GAS  C:\Users\gjl\AppData\Local\Temp\ccNVysBX.s 			page 123


1841:Generated_Source\PSoC6\pdl\drivers\peripheral\sysclk/cy_sysclk.h ****     {
1842:Generated_Source\PSoC6\pdl\drivers\peripheral\sysclk/cy_sysclk.h ****         if ((dividerNum < PERI_DIV_16_NR) &&
1843:Generated_Source\PSoC6\pdl\drivers\peripheral\sysclk/cy_sysclk.h ****             (dividerValue <= (PERI_DIV_16_CTL_INT16_DIV_Msk >> PERI_DIV_16_CTL_INT16_DIV_Pos)))
1844:Generated_Source\PSoC6\pdl\drivers\peripheral\sysclk/cy_sysclk.h ****         {
1845:Generated_Source\PSoC6\pdl\drivers\peripheral\sysclk/cy_sysclk.h ****             CY_SYSCLK_CLR_SET(PERI->DIV_16_CTL[dividerNum], PERI_DIV_16_CTL_INT16_DIV, dividerValue
1846:Generated_Source\PSoC6\pdl\drivers\peripheral\sysclk/cy_sysclk.h ****             retval = CY_SYSCLK_SUCCESS;
1847:Generated_Source\PSoC6\pdl\drivers\peripheral\sysclk/cy_sysclk.h ****         }
1848:Generated_Source\PSoC6\pdl\drivers\peripheral\sysclk/cy_sysclk.h ****     }
1849:Generated_Source\PSoC6\pdl\drivers\peripheral\sysclk/cy_sysclk.h ****     else
1850:Generated_Source\PSoC6\pdl\drivers\peripheral\sysclk/cy_sysclk.h ****     { /* return bad parameter */
1851:Generated_Source\PSoC6\pdl\drivers\peripheral\sysclk/cy_sysclk.h ****     }
1852:Generated_Source\PSoC6\pdl\drivers\peripheral\sysclk/cy_sysclk.h ****     return (retval);
1853:Generated_Source\PSoC6\pdl\drivers\peripheral\sysclk/cy_sysclk.h **** }
1854:Generated_Source\PSoC6\pdl\drivers\peripheral\sysclk/cy_sysclk.h **** 
1855:Generated_Source\PSoC6\pdl\drivers\peripheral\sysclk/cy_sysclk.h **** /*******************************************************************************
1856:Generated_Source\PSoC6\pdl\drivers\peripheral\sysclk/cy_sysclk.h **** * Function Name: Cy_SysClk_PeriphGetDivider
1857:Generated_Source\PSoC6\pdl\drivers\peripheral\sysclk/cy_sysclk.h **** ****************************************************************************//**
1858:Generated_Source\PSoC6\pdl\drivers\peripheral\sysclk/cy_sysclk.h **** *
1859:Generated_Source\PSoC6\pdl\drivers\peripheral\sysclk/cy_sysclk.h **** * Returns the integer divider value for the specified divider. One works for
1860:Generated_Source\PSoC6\pdl\drivers\peripheral\sysclk/cy_sysclk.h **** * integer dividers. Use \ref Cy_SysClk_PeriphGetFracDivider to get the fractional
1861:Generated_Source\PSoC6\pdl\drivers\peripheral\sysclk/cy_sysclk.h **** * divider value
1862:Generated_Source\PSoC6\pdl\drivers\peripheral\sysclk/cy_sysclk.h **** *
1863:Generated_Source\PSoC6\pdl\drivers\peripheral\sysclk/cy_sysclk.h **** * \param dividerType specifies which type of divider to use; \ref cy_en_divider_types_t
1864:Generated_Source\PSoC6\pdl\drivers\peripheral\sysclk/cy_sysclk.h **** *
1865:Generated_Source\PSoC6\pdl\drivers\peripheral\sysclk/cy_sysclk.h **** * \param dividerNum specifies which divider of the selected type to configure
1866:Generated_Source\PSoC6\pdl\drivers\peripheral\sysclk/cy_sysclk.h **** *
1867:Generated_Source\PSoC6\pdl\drivers\peripheral\sysclk/cy_sysclk.h **** * \return The divider value.
1868:Generated_Source\PSoC6\pdl\drivers\peripheral\sysclk/cy_sysclk.h **** * The integer division done is by (divider value + 1), or division by 1 to 256
1869:Generated_Source\PSoC6\pdl\drivers\peripheral\sysclk/cy_sysclk.h **** * (8-bit divider) or 1 to 65536 (16-bit divider).
1870:Generated_Source\PSoC6\pdl\drivers\peripheral\sysclk/cy_sysclk.h **** *
1871:Generated_Source\PSoC6\pdl\drivers\peripheral\sysclk/cy_sysclk.h **** * \funcusage
1872:Generated_Source\PSoC6\pdl\drivers\peripheral\sysclk/cy_sysclk.h **** * \snippet sysclk/sysclk_v1_10_sut_01.cydsn/main_cm4.c snippet_Cy_SysClk_PeriphSetDivider
1873:Generated_Source\PSoC6\pdl\drivers\peripheral\sysclk/cy_sysclk.h **** *
1874:Generated_Source\PSoC6\pdl\drivers\peripheral\sysclk/cy_sysclk.h **** *******************************************************************************/
1875:Generated_Source\PSoC6\pdl\drivers\peripheral\sysclk/cy_sysclk.h **** __STATIC_INLINE uint32_t Cy_SysClk_PeriphGetDivider(cy_en_divider_types_t dividerType, uint32_t div
1876:Generated_Source\PSoC6\pdl\drivers\peripheral\sysclk/cy_sysclk.h **** {
1877:Generated_Source\PSoC6\pdl\drivers\peripheral\sysclk/cy_sysclk.h ****     uint32_t retval;
1878:Generated_Source\PSoC6\pdl\drivers\peripheral\sysclk/cy_sysclk.h **** 
1879:Generated_Source\PSoC6\pdl\drivers\peripheral\sysclk/cy_sysclk.h ****     CY_ASSERT_L1(dividerType <= CY_SYSCLK_DIV_16_BIT);
 3211              		.loc 2 1879 0
 3212 0178 012E     		cmp	r6, #1
 3213 017a 04D9     		bls	.L307
 3214 017c 40F25771 		movw	r1, #1879
 3215 0180 3648     		ldr	r0, .L325+8
 3216 0182 FFF7FEFF 		bl	Cy_SysLib_AssertFailed
 3217              	.LVL339:
 3218              	.L307:
1880:Generated_Source\PSoC6\pdl\drivers\peripheral\sysclk/cy_sysclk.h **** 
1881:Generated_Source\PSoC6\pdl\drivers\peripheral\sysclk/cy_sysclk.h ****     if (dividerType == CY_SYSCLK_DIV_8_BIT)
 3219              		.loc 2 1881 0
 3220 0186 76B9     		cbnz	r6, .L308
1882:Generated_Source\PSoC6\pdl\drivers\peripheral\sysclk/cy_sysclk.h ****     {
1883:Generated_Source\PSoC6\pdl\drivers\peripheral\sysclk/cy_sysclk.h ****         CY_ASSERT_L1(dividerNum < PERI_DIV_8_NR);
 3221              		.loc 2 1883 0
 3222 0188 072F     		cmp	r7, #7
 3223 018a 04D9     		bls	.L309
 3224 018c 40F25B71 		movw	r1, #1883
ARM GAS  C:\Users\gjl\AppData\Local\Temp\ccNVysBX.s 			page 124


 3225 0190 3248     		ldr	r0, .L325+8
 3226 0192 FFF7FEFF 		bl	Cy_SysLib_AssertFailed
 3227              	.LVL340:
 3228              	.L309:
1884:Generated_Source\PSoC6\pdl\drivers\peripheral\sysclk/cy_sysclk.h ****         retval = _FLD2VAL(PERI_DIV_8_CTL_INT8_DIV, PERI->DIV_8_CTL[dividerNum]);
 3229              		.loc 2 1884 0
 3230 0196 07F50077 		add	r7, r7, #512
 3231              	.LVL341:
 3232 019a 334B     		ldr	r3, .L325+20
 3233 019c 53F82730 		ldr	r3, [r3, r7, lsl #2]
 3234 01a0 C3F30723 		ubfx	r3, r3, #8, #8
 3235              	.LVL342:
 3236 01a4 0DE0     		b	.L310
 3237              	.LVL343:
 3238              	.L308:
1885:Generated_Source\PSoC6\pdl\drivers\peripheral\sysclk/cy_sysclk.h ****     }
1886:Generated_Source\PSoC6\pdl\drivers\peripheral\sysclk/cy_sysclk.h ****     else
1887:Generated_Source\PSoC6\pdl\drivers\peripheral\sysclk/cy_sysclk.h ****     { /* 16-bit divider */
1888:Generated_Source\PSoC6\pdl\drivers\peripheral\sysclk/cy_sysclk.h ****         CY_ASSERT_L1(dividerNum < PERI_DIV_16_NR);
 3239              		.loc 2 1888 0
 3240 01a6 0F2F     		cmp	r7, #15
 3241 01a8 04D9     		bls	.L311
 3242 01aa 4FF4EC61 		mov	r1, #1888
 3243 01ae 2B48     		ldr	r0, .L325+8
 3244 01b0 FFF7FEFF 		bl	Cy_SysLib_AssertFailed
 3245              	.LVL344:
 3246              	.L311:
1889:Generated_Source\PSoC6\pdl\drivers\peripheral\sysclk/cy_sysclk.h ****         retval = _FLD2VAL(PERI_DIV_16_CTL_INT16_DIV, PERI->DIV_16_CTL[dividerNum]);
 3247              		.loc 2 1889 0
 3248 01b4 07F51077 		add	r7, r7, #576
 3249              	.LVL345:
 3250 01b8 2B4B     		ldr	r3, .L325+20
 3251 01ba 53F82730 		ldr	r3, [r3, r7, lsl #2]
 3252 01be C3F30F23 		ubfx	r3, r3, #8, #16
 3253              	.LVL346:
 3254              	.L310:
 3255              	.LBE92:
 3256              	.LBE91:
1708:Generated_Source\PSoC6\pdl\drivers\peripheral\sysclk/cy_sysclk.c ****         {
1709:Generated_Source\PSoC6\pdl\drivers\peripheral\sysclk/cy_sysclk.c ****             case CY_SYSCLK_DIV_8_BIT:
1710:Generated_Source\PSoC6\pdl\drivers\peripheral\sysclk/cy_sysclk.c ****             case CY_SYSCLK_DIV_16_BIT:
1711:Generated_Source\PSoC6\pdl\drivers\peripheral\sysclk/cy_sysclk.c ****                 clkdiv.integer = (uint32_t)Cy_SysClk_PeriphGetDivider(dividerType, dividerNum);
 3257              		.loc 1 1711 0
 3258 01c2 0393     		str	r3, [sp, #12]
1712:Generated_Source\PSoC6\pdl\drivers\peripheral\sysclk/cy_sysclk.c ****                 /* frac = 0 means it's an integer divider */
1713:Generated_Source\PSoC6\pdl\drivers\peripheral\sysclk/cy_sysclk.c ****                 break;
 3259              		.loc 1 1713 0
 3260 01c4 31E0     		b	.L303
 3261              	.LVL347:
 3262              	.L306:
 3263              	.LBB93:
 3264              	.LBB94:
1890:Generated_Source\PSoC6\pdl\drivers\peripheral\sysclk/cy_sysclk.h ****     }
1891:Generated_Source\PSoC6\pdl\drivers\peripheral\sysclk/cy_sysclk.h ****     return (retval);
1892:Generated_Source\PSoC6\pdl\drivers\peripheral\sysclk/cy_sysclk.h **** }
1893:Generated_Source\PSoC6\pdl\drivers\peripheral\sysclk/cy_sysclk.h **** 
1894:Generated_Source\PSoC6\pdl\drivers\peripheral\sysclk/cy_sysclk.h **** /*******************************************************************************
ARM GAS  C:\Users\gjl\AppData\Local\Temp\ccNVysBX.s 			page 125


1895:Generated_Source\PSoC6\pdl\drivers\peripheral\sysclk/cy_sysclk.h **** * Function Name: Cy_SysClk_PeriphSetFracDivider
1896:Generated_Source\PSoC6\pdl\drivers\peripheral\sysclk/cy_sysclk.h **** ****************************************************************************//**
1897:Generated_Source\PSoC6\pdl\drivers\peripheral\sysclk/cy_sysclk.h **** *
1898:Generated_Source\PSoC6\pdl\drivers\peripheral\sysclk/cy_sysclk.h **** * Sets one of the programmable clock dividers. This function should only be used
1899:Generated_Source\PSoC6\pdl\drivers\peripheral\sysclk/cy_sysclk.h **** * for fractional clock dividers.
1900:Generated_Source\PSoC6\pdl\drivers\peripheral\sysclk/cy_sysclk.h **** *
1901:Generated_Source\PSoC6\pdl\drivers\peripheral\sysclk/cy_sysclk.h **** * \param dividerType specifies which type of divider to use; \ref cy_en_divider_types_t
1902:Generated_Source\PSoC6\pdl\drivers\peripheral\sysclk/cy_sysclk.h **** *
1903:Generated_Source\PSoC6\pdl\drivers\peripheral\sysclk/cy_sysclk.h **** * \param dividerNum specifies which divider of the selected type to configure
1904:Generated_Source\PSoC6\pdl\drivers\peripheral\sysclk/cy_sysclk.h **** *
1905:Generated_Source\PSoC6\pdl\drivers\peripheral\sysclk/cy_sysclk.h **** * \param dividerIntValue the integer divider value
1906:Generated_Source\PSoC6\pdl\drivers\peripheral\sysclk/cy_sysclk.h **** * The source of the divider is peri_clk, which is a divided version of hf_clk[0].
1907:Generated_Source\PSoC6\pdl\drivers\peripheral\sysclk/cy_sysclk.h **** * The divider value causes integer division of (divider value + 1), or division
1908:Generated_Source\PSoC6\pdl\drivers\peripheral\sysclk/cy_sysclk.h **** * by 1 to 65536 (16-bit divider) or 1 to 16777216 (24-bit divider).
1909:Generated_Source\PSoC6\pdl\drivers\peripheral\sysclk/cy_sysclk.h **** *
1910:Generated_Source\PSoC6\pdl\drivers\peripheral\sysclk/cy_sysclk.h **** * \param dividerFracValue the fraction part of the divider
1911:Generated_Source\PSoC6\pdl\drivers\peripheral\sysclk/cy_sysclk.h **** * The fractional divider can be 1-32, thus it divides the clock by 1/32 for each
1912:Generated_Source\PSoC6\pdl\drivers\peripheral\sysclk/cy_sysclk.h **** * count. To divide the clock by 11/32nds set this value to 11.
1913:Generated_Source\PSoC6\pdl\drivers\peripheral\sysclk/cy_sysclk.h **** *
1914:Generated_Source\PSoC6\pdl\drivers\peripheral\sysclk/cy_sysclk.h **** * \return \ref cy_en_sysclk_status_t
1915:Generated_Source\PSoC6\pdl\drivers\peripheral\sysclk/cy_sysclk.h **** *
1916:Generated_Source\PSoC6\pdl\drivers\peripheral\sysclk/cy_sysclk.h **** * \funcusage
1917:Generated_Source\PSoC6\pdl\drivers\peripheral\sysclk/cy_sysclk.h **** * \snippet sysclk/sysclk_v1_10_sut_01.cydsn/main_cm4.c snippet_Cy_SysClk_PeriphSetFracDivider
1918:Generated_Source\PSoC6\pdl\drivers\peripheral\sysclk/cy_sysclk.h **** *
1919:Generated_Source\PSoC6\pdl\drivers\peripheral\sysclk/cy_sysclk.h **** *******************************************************************************/
1920:Generated_Source\PSoC6\pdl\drivers\peripheral\sysclk/cy_sysclk.h **** __STATIC_INLINE cy_en_sysclk_status_t
1921:Generated_Source\PSoC6\pdl\drivers\peripheral\sysclk/cy_sysclk.h ****                 Cy_SysClk_PeriphSetFracDivider(cy_en_divider_types_t dividerType, uint32_t dividerN
1922:Generated_Source\PSoC6\pdl\drivers\peripheral\sysclk/cy_sysclk.h ****                                                uint32_t dividerIntValue, uint32_t dividerFracValue)
1923:Generated_Source\PSoC6\pdl\drivers\peripheral\sysclk/cy_sysclk.h **** {
1924:Generated_Source\PSoC6\pdl\drivers\peripheral\sysclk/cy_sysclk.h ****     cy_en_sysclk_status_t retval = CY_SYSCLK_BAD_PARAM;
1925:Generated_Source\PSoC6\pdl\drivers\peripheral\sysclk/cy_sysclk.h ****     if (dividerType == CY_SYSCLK_DIV_16_5_BIT)
1926:Generated_Source\PSoC6\pdl\drivers\peripheral\sysclk/cy_sysclk.h ****     {
1927:Generated_Source\PSoC6\pdl\drivers\peripheral\sysclk/cy_sysclk.h ****         if ((dividerNum < PERI_DIV_16_5_NR) &&
1928:Generated_Source\PSoC6\pdl\drivers\peripheral\sysclk/cy_sysclk.h ****             (dividerIntValue <= (PERI_DIV_16_5_CTL_INT16_DIV_Msk >> PERI_DIV_16_5_CTL_INT16_DIV_Pos
1929:Generated_Source\PSoC6\pdl\drivers\peripheral\sysclk/cy_sysclk.h ****             (dividerFracValue <= (PERI_DIV_16_5_CTL_FRAC5_DIV_Msk >> PERI_DIV_16_5_CTL_FRAC5_DIV_Po
1930:Generated_Source\PSoC6\pdl\drivers\peripheral\sysclk/cy_sysclk.h ****         {
1931:Generated_Source\PSoC6\pdl\drivers\peripheral\sysclk/cy_sysclk.h ****             CY_SYSCLK_CLR_SET(PERI->DIV_16_5_CTL[dividerNum], PERI_DIV_16_5_CTL_INT16_DIV, dividerI
1932:Generated_Source\PSoC6\pdl\drivers\peripheral\sysclk/cy_sysclk.h ****             CY_SYSCLK_CLR_SET(PERI->DIV_16_5_CTL[dividerNum], PERI_DIV_16_5_CTL_FRAC5_DIV, dividerF
1933:Generated_Source\PSoC6\pdl\drivers\peripheral\sysclk/cy_sysclk.h ****             retval = CY_SYSCLK_SUCCESS;
1934:Generated_Source\PSoC6\pdl\drivers\peripheral\sysclk/cy_sysclk.h ****         }
1935:Generated_Source\PSoC6\pdl\drivers\peripheral\sysclk/cy_sysclk.h ****     }
1936:Generated_Source\PSoC6\pdl\drivers\peripheral\sysclk/cy_sysclk.h ****     else if (dividerType == CY_SYSCLK_DIV_24_5_BIT)
1937:Generated_Source\PSoC6\pdl\drivers\peripheral\sysclk/cy_sysclk.h ****     {
1938:Generated_Source\PSoC6\pdl\drivers\peripheral\sysclk/cy_sysclk.h ****         if ((dividerNum < PERI_DIV_24_5_NR) &&
1939:Generated_Source\PSoC6\pdl\drivers\peripheral\sysclk/cy_sysclk.h ****             (dividerIntValue <= (PERI_DIV_24_5_CTL_INT24_DIV_Msk >> PERI_DIV_24_5_CTL_INT24_DIV_Pos
1940:Generated_Source\PSoC6\pdl\drivers\peripheral\sysclk/cy_sysclk.h ****             (dividerFracValue <= (PERI_DIV_24_5_CTL_FRAC5_DIV_Msk >> PERI_DIV_24_5_CTL_FRAC5_DIV_Po
1941:Generated_Source\PSoC6\pdl\drivers\peripheral\sysclk/cy_sysclk.h ****         {
1942:Generated_Source\PSoC6\pdl\drivers\peripheral\sysclk/cy_sysclk.h ****             CY_SYSCLK_CLR_SET(PERI->DIV_24_5_CTL[dividerNum], PERI_DIV_24_5_CTL_INT24_DIV, dividerI
1943:Generated_Source\PSoC6\pdl\drivers\peripheral\sysclk/cy_sysclk.h ****             CY_SYSCLK_CLR_SET(PERI->DIV_24_5_CTL[dividerNum], PERI_DIV_24_5_CTL_FRAC5_DIV, dividerF
1944:Generated_Source\PSoC6\pdl\drivers\peripheral\sysclk/cy_sysclk.h ****             retval = CY_SYSCLK_SUCCESS;
1945:Generated_Source\PSoC6\pdl\drivers\peripheral\sysclk/cy_sysclk.h ****         }
1946:Generated_Source\PSoC6\pdl\drivers\peripheral\sysclk/cy_sysclk.h ****     }
1947:Generated_Source\PSoC6\pdl\drivers\peripheral\sysclk/cy_sysclk.h ****     else
1948:Generated_Source\PSoC6\pdl\drivers\peripheral\sysclk/cy_sysclk.h ****     { /* return bad parameter */
1949:Generated_Source\PSoC6\pdl\drivers\peripheral\sysclk/cy_sysclk.h ****     }
1950:Generated_Source\PSoC6\pdl\drivers\peripheral\sysclk/cy_sysclk.h ****     return (retval);
1951:Generated_Source\PSoC6\pdl\drivers\peripheral\sysclk/cy_sysclk.h **** }
ARM GAS  C:\Users\gjl\AppData\Local\Temp\ccNVysBX.s 			page 126


1952:Generated_Source\PSoC6\pdl\drivers\peripheral\sysclk/cy_sysclk.h **** 
1953:Generated_Source\PSoC6\pdl\drivers\peripheral\sysclk/cy_sysclk.h **** /*******************************************************************************
1954:Generated_Source\PSoC6\pdl\drivers\peripheral\sysclk/cy_sysclk.h **** * Function Name: Cy_SysClk_PeriphGetFracDivider
1955:Generated_Source\PSoC6\pdl\drivers\peripheral\sysclk/cy_sysclk.h **** ****************************************************************************//**
1956:Generated_Source\PSoC6\pdl\drivers\peripheral\sysclk/cy_sysclk.h **** *
1957:Generated_Source\PSoC6\pdl\drivers\peripheral\sysclk/cy_sysclk.h **** * Reports the integer and fractional parts of the divider
1958:Generated_Source\PSoC6\pdl\drivers\peripheral\sysclk/cy_sysclk.h **** *
1959:Generated_Source\PSoC6\pdl\drivers\peripheral\sysclk/cy_sysclk.h **** * \param dividerType specifies which type of divider to use; \ref cy_en_divider_types_t
1960:Generated_Source\PSoC6\pdl\drivers\peripheral\sysclk/cy_sysclk.h **** *
1961:Generated_Source\PSoC6\pdl\drivers\peripheral\sysclk/cy_sysclk.h **** * \param dividerNum specifies which divider of the selected type to configure
1962:Generated_Source\PSoC6\pdl\drivers\peripheral\sysclk/cy_sysclk.h **** *
1963:Generated_Source\PSoC6\pdl\drivers\peripheral\sysclk/cy_sysclk.h **** * \param *dividerIntValue pointer to return integer divider value
1964:Generated_Source\PSoC6\pdl\drivers\peripheral\sysclk/cy_sysclk.h **** *
1965:Generated_Source\PSoC6\pdl\drivers\peripheral\sysclk/cy_sysclk.h **** * \param *dividerFracValue pointer to return fractional divider value
1966:Generated_Source\PSoC6\pdl\drivers\peripheral\sysclk/cy_sysclk.h **** *
1967:Generated_Source\PSoC6\pdl\drivers\peripheral\sysclk/cy_sysclk.h **** * \return None. Loads pointed-to variables.
1968:Generated_Source\PSoC6\pdl\drivers\peripheral\sysclk/cy_sysclk.h **** *
1969:Generated_Source\PSoC6\pdl\drivers\peripheral\sysclk/cy_sysclk.h **** * \funcusage
1970:Generated_Source\PSoC6\pdl\drivers\peripheral\sysclk/cy_sysclk.h **** * \snippet sysclk/sysclk_v1_10_sut_01.cydsn/main_cm4.c snippet_Cy_SysClk_PeriphSetFracDivider
1971:Generated_Source\PSoC6\pdl\drivers\peripheral\sysclk/cy_sysclk.h **** *
1972:Generated_Source\PSoC6\pdl\drivers\peripheral\sysclk/cy_sysclk.h **** *******************************************************************************/
1973:Generated_Source\PSoC6\pdl\drivers\peripheral\sysclk/cy_sysclk.h **** __STATIC_INLINE void Cy_SysClk_PeriphGetFracDivider(cy_en_divider_types_t dividerType, uint32_t div
1974:Generated_Source\PSoC6\pdl\drivers\peripheral\sysclk/cy_sysclk.h ****                                                     uint32_t *dividerIntValue, uint32_t *dividerFra
1975:Generated_Source\PSoC6\pdl\drivers\peripheral\sysclk/cy_sysclk.h **** {
1976:Generated_Source\PSoC6\pdl\drivers\peripheral\sysclk/cy_sysclk.h ****     CY_ASSERT_L1(((dividerType == CY_SYSCLK_DIV_16_5_BIT) || (dividerType == CY_SYSCLK_DIV_24_5_BIT
 3265              		.loc 2 1976 0
 3266 01c6 B31E     		subs	r3, r6, #2
 3267 01c8 DBB2     		uxtb	r3, r3
 3268 01ca 012B     		cmp	r3, #1
 3269 01cc 04D9     		bls	.L312
 3270 01ce 40F2B971 		movw	r1, #1977
 3271 01d2 2248     		ldr	r0, .L325+8
 3272 01d4 FFF7FEFF 		bl	Cy_SysLib_AssertFailed
 3273              	.LVL348:
 3274              	.L312:
1977:Generated_Source\PSoC6\pdl\drivers\peripheral\sysclk/cy_sysclk.h ****                  (dividerIntValue != NULL) && (dividerFracValue != NULL));
1978:Generated_Source\PSoC6\pdl\drivers\peripheral\sysclk/cy_sysclk.h **** 
1979:Generated_Source\PSoC6\pdl\drivers\peripheral\sysclk/cy_sysclk.h ****     if (dividerType == CY_SYSCLK_DIV_16_5_BIT)
 3275              		.loc 2 1979 0
 3276 01d8 022E     		cmp	r6, #2
 3277 01da 14D1     		bne	.L313
1980:Generated_Source\PSoC6\pdl\drivers\peripheral\sysclk/cy_sysclk.h ****     {
1981:Generated_Source\PSoC6\pdl\drivers\peripheral\sysclk/cy_sysclk.h ****         CY_ASSERT_L1(dividerNum < PERI_DIV_16_5_NR);
 3278              		.loc 2 1981 0
 3279 01dc 032F     		cmp	r7, #3
 3280 01de 04D9     		bls	.L314
 3281 01e0 40F2BD71 		movw	r1, #1981
 3282 01e4 1D48     		ldr	r0, .L325+8
 3283 01e6 FFF7FEFF 		bl	Cy_SysLib_AssertFailed
 3284              	.LVL349:
 3285              	.L314:
1982:Generated_Source\PSoC6\pdl\drivers\peripheral\sysclk/cy_sysclk.h ****         *dividerIntValue  = _FLD2VAL(PERI_DIV_16_5_CTL_INT16_DIV, PERI->DIV_16_5_CTL[dividerNum]);
 3286              		.loc 2 1982 0
 3287 01ea 1F4A     		ldr	r2, .L325+20
 3288 01ec 07F52077 		add	r7, r7, #640
 3289              	.LVL350:
 3290 01f0 52F82730 		ldr	r3, [r2, r7, lsl #2]
ARM GAS  C:\Users\gjl\AppData\Local\Temp\ccNVysBX.s 			page 127


 3291 01f4 C3F30F23 		ubfx	r3, r3, #8, #16
 3292 01f8 0393     		str	r3, [sp, #12]
1983:Generated_Source\PSoC6\pdl\drivers\peripheral\sysclk/cy_sysclk.h ****         *dividerFracValue = _FLD2VAL(PERI_DIV_16_5_CTL_FRAC5_DIV, PERI->DIV_16_5_CTL[dividerNum]);
 3293              		.loc 2 1983 0
 3294 01fa 52F82730 		ldr	r3, [r2, r7, lsl #2]
 3295 01fe C3F3C403 		ubfx	r3, r3, #3, #5
 3296 0202 0493     		str	r3, [sp, #16]
 3297 0204 11E0     		b	.L303
 3298              	.LVL351:
 3299              	.L313:
1984:Generated_Source\PSoC6\pdl\drivers\peripheral\sysclk/cy_sysclk.h ****     }
1985:Generated_Source\PSoC6\pdl\drivers\peripheral\sysclk/cy_sysclk.h ****     else
1986:Generated_Source\PSoC6\pdl\drivers\peripheral\sysclk/cy_sysclk.h ****     { /* 24.5-bit divider */
1987:Generated_Source\PSoC6\pdl\drivers\peripheral\sysclk/cy_sysclk.h ****         CY_ASSERT_L1(dividerNum < PERI_DIV_24_5_NR);
 3300              		.loc 2 1987 0
 3301 0206 27B1     		cbz	r7, .L315
 3302 0208 40F2C371 		movw	r1, #1987
 3303 020c 1348     		ldr	r0, .L325+8
 3304 020e FFF7FEFF 		bl	Cy_SysLib_AssertFailed
 3305              	.LVL352:
 3306              	.L315:
1988:Generated_Source\PSoC6\pdl\drivers\peripheral\sysclk/cy_sysclk.h ****         *dividerIntValue  = _FLD2VAL(PERI_DIV_24_5_CTL_INT24_DIV, PERI->DIV_24_5_CTL[dividerNum]);
 3307              		.loc 2 1988 0
 3308 0212 154A     		ldr	r2, .L325+20
 3309 0214 07F53077 		add	r7, r7, #704
 3310              	.LVL353:
 3311 0218 52F82730 		ldr	r3, [r2, r7, lsl #2]
 3312 021c 1B0A     		lsrs	r3, r3, #8
 3313 021e 0393     		str	r3, [sp, #12]
1989:Generated_Source\PSoC6\pdl\drivers\peripheral\sysclk/cy_sysclk.h ****         *dividerFracValue = _FLD2VAL(PERI_DIV_24_5_CTL_FRAC5_DIV, PERI->DIV_24_5_CTL[dividerNum]);
 3314              		.loc 2 1989 0
 3315 0220 52F82730 		ldr	r3, [r2, r7, lsl #2]
 3316 0224 C3F3C403 		ubfx	r3, r3, #3, #5
 3317 0228 0493     		str	r3, [sp, #16]
 3318              	.LVL354:
 3319              	.L303:
 3320              	.LBE94:
 3321              	.LBE93:
1714:Generated_Source\PSoC6\pdl\drivers\peripheral\sysclk/cy_sysclk.c ****             case CY_SYSCLK_DIV_16_5_BIT:
1715:Generated_Source\PSoC6\pdl\drivers\peripheral\sysclk/cy_sysclk.c ****             case CY_SYSCLK_DIV_24_5_BIT:
1716:Generated_Source\PSoC6\pdl\drivers\peripheral\sysclk/cy_sysclk.c ****                 (void)Cy_SysClk_PeriphGetFracDivider(dividerType, dividerNum, &clkdiv.integer, &clk
1717:Generated_Source\PSoC6\pdl\drivers\peripheral\sysclk/cy_sysclk.c ****                 break;
1718:Generated_Source\PSoC6\pdl\drivers\peripheral\sysclk/cy_sysclk.c ****             default:
1719:Generated_Source\PSoC6\pdl\drivers\peripheral\sysclk/cy_sysclk.c ****                 break;
1720:Generated_Source\PSoC6\pdl\drivers\peripheral\sysclk/cy_sysclk.c ****         }
1721:Generated_Source\PSoC6\pdl\drivers\peripheral\sysclk/cy_sysclk.c ****         /* Divide the path input frequency down, and return the result.
1722:Generated_Source\PSoC6\pdl\drivers\peripheral\sysclk/cy_sysclk.c ****            Stepping through the following code shows the frequency at each stage.
1723:Generated_Source\PSoC6\pdl\drivers\peripheral\sysclk/cy_sysclk.c ****         */
1724:Generated_Source\PSoC6\pdl\drivers\peripheral\sysclk/cy_sysclk.c ****         rtnval = path_freq / root_div; /* clkHf[0] frequency */
 3322              		.loc 1 1724 0
 3323 022a B4FBF8F0 		udiv	r0, r4, r8
 3324              	.LVL355:
1725:Generated_Source\PSoC6\pdl\drivers\peripheral\sysclk/cy_sysclk.c ****         rtnval /= clkHf0_div; /* clk_peri frequency */
 3325              		.loc 1 1725 0
 3326 022e B0FBF5F4 		udiv	r4, r0, r5
 3327              	.LVL356:
1726:Generated_Source\PSoC6\pdl\drivers\peripheral\sysclk/cy_sysclk.c ****         /* For fractional dividers, the divider is (int + 1) + frac/32.
ARM GAS  C:\Users\gjl\AppData\Local\Temp\ccNVysBX.s 			page 128


1727:Generated_Source\PSoC6\pdl\drivers\peripheral\sysclk/cy_sysclk.c ****          * Use the fractional value to round the divider to the nearest integer.
1728:Generated_Source\PSoC6\pdl\drivers\peripheral\sysclk/cy_sysclk.c ****          */
1729:Generated_Source\PSoC6\pdl\drivers\peripheral\sysclk/cy_sysclk.c ****         rtnval /= (clkdiv.integer + 1ul + ((clkdiv.frac >= 16ul) ? 1ul : 0ul)); /* peripheral divid
 3328              		.loc 1 1729 0
 3329 0232 039B     		ldr	r3, [sp, #12]
 3330 0234 049A     		ldr	r2, [sp, #16]
 3331 0236 0F2A     		cmp	r2, #15
 3332 0238 01D9     		bls	.L322
 3333 023a 0120     		movs	r0, #1
 3334 023c 00E0     		b	.L316
 3335              	.L322:
 3336 023e 0020     		movs	r0, #0
 3337              	.L316:
 3338              		.loc 1 1729 0 is_stmt 0 discriminator 4
 3339 0240 1844     		add	r0, r0, r3
 3340 0242 0130     		adds	r0, r0, #1
 3341 0244 B4FBF0F0 		udiv	r0, r4, r0
 3342              	.LVL357:
 3343 0248 00E0     		b	.L298
 3344              	.LVL358:
 3345              	.L318:
1571:Generated_Source\PSoC6\pdl\drivers\peripheral\sysclk/cy_sysclk.c **** 
 3346              		.loc 1 1571 0 is_stmt 1
 3347 024a 0020     		movs	r0, #0
 3348              	.LVL359:
 3349              	.L298:
1730:Generated_Source\PSoC6\pdl\drivers\peripheral\sysclk/cy_sysclk.c ****     }
1731:Generated_Source\PSoC6\pdl\drivers\peripheral\sysclk/cy_sysclk.c **** 
1732:Generated_Source\PSoC6\pdl\drivers\peripheral\sysclk/cy_sysclk.c ****     return rtnval;
1733:Generated_Source\PSoC6\pdl\drivers\peripheral\sysclk/cy_sysclk.c **** }
 3350              		.loc 1 1733 0
 3351 024c 0AB0     		add	sp, sp, #40
 3352              		.cfi_def_cfa_offset 24
 3353              		@ sp needed
 3354 024e BDE8F081 		pop	{r4, r5, r6, r7, r8, pc}
 3355              	.L326:
 3356 0252 00BF     		.align	2
 3357              	.L325:
 3358 0254 00000000 		.word	.LC3
 3359 0258 00002640 		.word	1076232192
 3360 025c 44000000 		.word	.LC4
 3361 0260 00127A00 		.word	8000000
 3362 0264 00002140 		.word	1075904512
 3363 0268 00000140 		.word	1073807360
 3364              		.cfi_endproc
 3365              	.LFE232:
 3366              		.size	Cy_SysClk_PeriphGetFrequency, .-Cy_SysClk_PeriphGetFrequency
 3367              		.section	.rodata
 3368              		.align	2
 3369              		.set	.LANCHOR0,. + 0
 3370              	.LC0:
 3371 0000 F69F903A 		.word	982556662
 3372 0004 FC70903A 		.word	982544636
 3373 0008 E02D903A 		.word	982527456
 3374 000c E02D903A 		.word	982527456
 3375 0010 7D6F993A 		.word	983134077
 3376              	.LC1:
ARM GAS  C:\Users\gjl\AppData\Local\Temp\ccNVysBX.s 			page 129


 3377 0014 2052264C 		.word	1277579808
 3378 0018 48A25D4C 		.word	1281204808
 3379 001c 503F934C 		.word	1284718416
 3380 0020 F874C44C 		.word	1287943416
 3381 0024 20C5FB4C 		.word	1291568416
 3382              	.LC2:
 3383 0028 0000803B 		.word	998244352
 3384 002c 0000003C 		.word	1006632960
 3385 0030 0000803C 		.word	1015021568
 3386 0034 0000003D 		.word	1023410176
 3387 0038 0000803D 		.word	1031798784
 3388 003c 0000003E 		.word	1040187392
 3389 0040 0000803E 		.word	1048576000
 3390 0044 0000003F 		.word	1056964608
 3391 0048 0000803F 		.word	1065353216
 3392 004c 00000040 		.word	1073741824
 3393 0050 00008040 		.word	1082130432
 3394 0054 00000041 		.word	1090519040
 3395              		.section	.rodata.str1.4,"aMS",%progbits,1
 3396              		.align	2
 3397              	.LC3:
 3398 0000 47656E65 		.ascii	"Generated_Source\\PSoC6\\pdl\\drivers\\peripheral\\"
 3398      72617465 
 3398      645F536F 
 3398      75726365 
 3398      5C50536F 
 3399 002e 73797363 		.ascii	"sysclk\\cy_sysclk.c\000"
 3399      6C6B5C63 
 3399      795F7379 
 3399      73636C6B 
 3399      2E6300
 3400 0041 000000   		.space	3
 3401              	.LC4:
 3402 0044 47656E65 		.ascii	"Generated_Source\\PSoC6\\pdl\\drivers\\peripheral\\"
 3402      72617465 
 3402      645F536F 
 3402      75726365 
 3402      5C50536F 
 3403 0072 73797363 		.ascii	"sysclk\\cy_sysclk.h\000"
 3403      6C6B5C63 
 3403      795F7379 
 3403      73636C6B 
 3403      2E6800
 3404              		.bss
 3405              		.align	2
 3406              		.set	.LANCHOR1,. + 0
 3407              		.type	preventCounting, %object
 3408              		.size	preventCounting, 1
 3409              	preventCounting:
 3410 0000 00       		.space	1
 3411              		.type	clkCounting, %object
 3412              		.size	clkCounting, 1
 3413              	clkCounting:
 3414 0001 00       		.space	1
 3415 0002 0000     		.space	2
 3416              		.type	clk1Count1, %object
 3417              		.size	clk1Count1, 4
ARM GAS  C:\Users\gjl\AppData\Local\Temp\ccNVysBX.s 			page 130


 3418              	clk1Count1:
 3419 0004 00000000 		.space	4
 3420              		.type	changedSourcePaths.11868, %object
 3421              		.size	changedSourcePaths.11868, 2
 3422              	changedSourcePaths.11868:
 3423 0008 0000     		.space	2
 3424              		.text
 3425              	.Letext0:
 3426              		.file 3 "c:\\program files (x86)\\cypress\\psoc creator\\4.2\\psoc creator\\import\\gnu\\arm\\5.4.
 3427              		.file 4 "c:\\program files (x86)\\cypress\\psoc creator\\4.2\\psoc creator\\import\\gnu\\arm\\5.4.
 3428              		.file 5 "Generated_Source\\PSoC6\\pdl\\devices/psoc6/ip/cyip_peri.h"
 3429              		.file 6 "Generated_Source\\PSoC6\\pdl\\devices/psoc6/ip/cyip_cpuss.h"
 3430              		.file 7 "Generated_Source\\PSoC6\\pdl\\devices/psoc6/ip/cyip_srss.h"
 3431              		.file 8 "Generated_Source\\PSoC6\\pdl\\drivers/peripheral/syslib/cy_syslib.h"
 3432              		.file 9 "Generated_Source\\PSoC6\\pdl\\drivers/peripheral/syspm/cy_syspm.h"
 3433              		.file 10 "c:\\program files (x86)\\cypress\\psoc creator\\4.2\\psoc creator\\import\\gnu\\arm\\5.4
 3434              		.file 11 "Generated_Source\\PSoC6\\pdl\\cmsis/include/core_cm4.h"
 3435              		.file 12 "<built-in>"
 3436              		.section	.debug_info,"",%progbits
 3437              	.Ldebug_info0:
 3438 0000 89250000 		.4byte	0x2589
 3439 0004 0400     		.2byte	0x4
 3440 0006 00000000 		.4byte	.Ldebug_abbrev0
 3441 000a 04       		.byte	0x4
 3442 000b 01       		.uleb128 0x1
 3443 000c B7160000 		.4byte	.LASF418
 3444 0010 0C       		.byte	0xc
 3445 0011 080B0000 		.4byte	.LASF419
 3446 0015 3A030000 		.4byte	.LASF420
 3447 0019 90000000 		.4byte	.Ldebug_ranges0+0x90
 3448 001d 00000000 		.4byte	0
 3449 0021 00000000 		.4byte	.Ldebug_line0
 3450 0025 02       		.uleb128 0x2
 3451 0026 04       		.byte	0x4
 3452 0027 04       		.byte	0x4
 3453 0028 BA140000 		.4byte	.LASF0
 3454 002c 02       		.uleb128 0x2
 3455 002d 04       		.byte	0x4
 3456 002e 07       		.byte	0x7
 3457 002f 99130000 		.4byte	.LASF1
 3458 0033 02       		.uleb128 0x2
 3459 0034 02       		.byte	0x2
 3460 0035 05       		.byte	0x5
 3461 0036 87020000 		.4byte	.LASF2
 3462 003a 02       		.uleb128 0x2
 3463 003b 01       		.byte	0x1
 3464 003c 06       		.byte	0x6
 3465 003d 0E130000 		.4byte	.LASF3
 3466 0041 03       		.uleb128 0x3
 3467 0042 42130000 		.4byte	.LASF5
 3468 0046 03       		.byte	0x3
 3469 0047 1D       		.byte	0x1d
 3470 0048 4C000000 		.4byte	0x4c
 3471 004c 02       		.uleb128 0x2
 3472 004d 01       		.byte	0x1
 3473 004e 08       		.byte	0x8
 3474 004f 5D150000 		.4byte	.LASF4
ARM GAS  C:\Users\gjl\AppData\Local\Temp\ccNVysBX.s 			page 131


 3475 0053 03       		.uleb128 0x3
 3476 0054 B2060000 		.4byte	.LASF6
 3477 0058 03       		.byte	0x3
 3478 0059 2B       		.byte	0x2b
 3479 005a 5E000000 		.4byte	0x5e
 3480 005e 02       		.uleb128 0x2
 3481 005f 02       		.byte	0x2
 3482 0060 07       		.byte	0x7
 3483 0061 D60F0000 		.4byte	.LASF7
 3484 0065 03       		.uleb128 0x3
 3485 0066 D2010000 		.4byte	.LASF8
 3486 006a 03       		.byte	0x3
 3487 006b 3F       		.byte	0x3f
 3488 006c 70000000 		.4byte	0x70
 3489 0070 02       		.uleb128 0x2
 3490 0071 04       		.byte	0x4
 3491 0072 05       		.byte	0x5
 3492 0073 A4110000 		.4byte	.LASF9
 3493 0077 03       		.uleb128 0x3
 3494 0078 6B150000 		.4byte	.LASF10
 3495 007c 03       		.byte	0x3
 3496 007d 41       		.byte	0x41
 3497 007e 82000000 		.4byte	0x82
 3498 0082 02       		.uleb128 0x2
 3499 0083 04       		.byte	0x4
 3500 0084 07       		.byte	0x7
 3501 0085 6F140000 		.4byte	.LASF11
 3502 0089 02       		.uleb128 0x2
 3503 008a 08       		.byte	0x8
 3504 008b 05       		.byte	0x5
 3505 008c 5C0D0000 		.4byte	.LASF12
 3506 0090 03       		.uleb128 0x3
 3507 0091 FE0D0000 		.4byte	.LASF13
 3508 0095 03       		.byte	0x3
 3509 0096 5B       		.byte	0x5b
 3510 0097 9B000000 		.4byte	0x9b
 3511 009b 02       		.uleb128 0x2
 3512 009c 08       		.byte	0x8
 3513 009d 07       		.byte	0x7
 3514 009e 77050000 		.4byte	.LASF14
 3515 00a2 04       		.uleb128 0x4
 3516 00a3 04       		.byte	0x4
 3517 00a4 05       		.byte	0x5
 3518 00a5 696E7400 		.ascii	"int\000"
 3519 00a9 03       		.uleb128 0x3
 3520 00aa 560C0000 		.4byte	.LASF15
 3521 00ae 04       		.byte	0x4
 3522 00af 18       		.byte	0x18
 3523 00b0 41000000 		.4byte	0x41
 3524 00b4 03       		.uleb128 0x3
 3525 00b5 3E150000 		.4byte	.LASF16
 3526 00b9 04       		.byte	0x4
 3527 00ba 24       		.byte	0x24
 3528 00bb 53000000 		.4byte	0x53
 3529 00bf 03       		.uleb128 0x3
 3530 00c0 CA140000 		.4byte	.LASF17
 3531 00c4 04       		.byte	0x4
ARM GAS  C:\Users\gjl\AppData\Local\Temp\ccNVysBX.s 			page 132


 3532 00c5 2C       		.byte	0x2c
 3533 00c6 65000000 		.4byte	0x65
 3534 00ca 03       		.uleb128 0x3
 3535 00cb 68040000 		.4byte	.LASF18
 3536 00cf 04       		.byte	0x4
 3537 00d0 30       		.byte	0x30
 3538 00d1 77000000 		.4byte	0x77
 3539 00d5 03       		.uleb128 0x3
 3540 00d6 82120000 		.4byte	.LASF19
 3541 00da 04       		.byte	0x4
 3542 00db 3C       		.byte	0x3c
 3543 00dc 90000000 		.4byte	0x90
 3544 00e0 02       		.uleb128 0x2
 3545 00e1 04       		.byte	0x4
 3546 00e2 07       		.byte	0x7
 3547 00e3 40140000 		.4byte	.LASF20
 3548 00e7 05       		.uleb128 0x5
 3549 00e8 CA000000 		.4byte	0xca
 3550 00ec 06       		.uleb128 0x6
 3551 00ed E7000000 		.4byte	0xe7
 3552 00f1 07       		.uleb128 0x7
 3553 00f2 EC000000 		.4byte	0xec
 3554 00f6 01010000 		.4byte	0x101
 3555 00fa 08       		.uleb128 0x8
 3556 00fb E0000000 		.4byte	0xe0
 3557 00ff 01       		.byte	0x1
 3558 0100 00       		.byte	0
 3559 0101 07       		.uleb128 0x7
 3560 0102 EC000000 		.4byte	0xec
 3561 0106 11010000 		.4byte	0x111
 3562 010a 08       		.uleb128 0x8
 3563 010b E0000000 		.4byte	0xe0
 3564 010f 03       		.byte	0x3
 3565 0110 00       		.byte	0
 3566 0111 07       		.uleb128 0x7
 3567 0112 EC000000 		.4byte	0xec
 3568 0116 21010000 		.4byte	0x121
 3569 011a 08       		.uleb128 0x8
 3570 011b E0000000 		.4byte	0xe0
 3571 011f 04       		.byte	0x4
 3572 0120 00       		.byte	0
 3573 0121 07       		.uleb128 0x7
 3574 0122 EC000000 		.4byte	0xec
 3575 0126 31010000 		.4byte	0x131
 3576 012a 08       		.uleb128 0x8
 3577 012b E0000000 		.4byte	0xe0
 3578 012f 07       		.byte	0x7
 3579 0130 00       		.byte	0
 3580 0131 07       		.uleb128 0x7
 3581 0132 E7000000 		.4byte	0xe7
 3582 0136 41010000 		.4byte	0x141
 3583 013a 08       		.uleb128 0x8
 3584 013b E0000000 		.4byte	0xe0
 3585 013f 7F       		.byte	0x7f
 3586 0140 00       		.byte	0
 3587 0141 07       		.uleb128 0x7
 3588 0142 E7000000 		.4byte	0xe7
ARM GAS  C:\Users\gjl\AppData\Local\Temp\ccNVysBX.s 			page 133


 3589 0146 51010000 		.4byte	0x151
 3590 014a 08       		.uleb128 0x8
 3591 014b E0000000 		.4byte	0xe0
 3592 014f 0F       		.byte	0xf
 3593 0150 00       		.byte	0
 3594 0151 07       		.uleb128 0x7
 3595 0152 EC000000 		.4byte	0xec
 3596 0156 61010000 		.4byte	0x161
 3597 015a 08       		.uleb128 0x8
 3598 015b E0000000 		.4byte	0xe0
 3599 015f 2F       		.byte	0x2f
 3600 0160 00       		.byte	0
 3601 0161 09       		.uleb128 0x9
 3602 0162 40       		.byte	0x40
 3603 0163 05       		.byte	0x5
 3604 0164 27       		.byte	0x27
 3605 0165 A6010000 		.4byte	0x1a6
 3606 0169 0A       		.uleb128 0xa
 3607 016a C0140000 		.4byte	.LASF21
 3608 016e 05       		.byte	0x5
 3609 016f 28       		.byte	0x28
 3610 0170 E7000000 		.4byte	0xe7
 3611 0174 00       		.byte	0
 3612 0175 0A       		.uleb128 0xa
 3613 0176 00000000 		.4byte	.LASF22
 3614 017a 05       		.byte	0x5
 3615 017b 29       		.byte	0x29
 3616 017c BB010000 		.4byte	0x1bb
 3617 0180 04       		.byte	0x4
 3618 0181 0A       		.uleb128 0xa
 3619 0182 03050000 		.4byte	.LASF23
 3620 0186 05       		.byte	0x5
 3621 0187 2A       		.byte	0x2a
 3622 0188 E7000000 		.4byte	0xe7
 3623 018c 20       		.byte	0x20
 3624 018d 0A       		.uleb128 0xa
 3625 018e A41A0000 		.4byte	.LASF24
 3626 0192 05       		.byte	0x5
 3627 0193 2B       		.byte	0x2b
 3628 0194 E7000000 		.4byte	0xe7
 3629 0198 24       		.byte	0x24
 3630 0199 0A       		.uleb128 0xa
 3631 019a 1E110000 		.4byte	.LASF25
 3632 019e 05       		.byte	0x5
 3633 019f 2C       		.byte	0x2c
 3634 01a0 D5010000 		.4byte	0x1d5
 3635 01a4 28       		.byte	0x28
 3636 01a5 00       		.byte	0
 3637 01a6 07       		.uleb128 0x7
 3638 01a7 EC000000 		.4byte	0xec
 3639 01ab B6010000 		.4byte	0x1b6
 3640 01af 08       		.uleb128 0x8
 3641 01b0 E0000000 		.4byte	0xe0
 3642 01b4 06       		.byte	0x6
 3643 01b5 00       		.byte	0
 3644 01b6 05       		.uleb128 0x5
 3645 01b7 A6010000 		.4byte	0x1a6
ARM GAS  C:\Users\gjl\AppData\Local\Temp\ccNVysBX.s 			page 134


 3646 01bb 06       		.uleb128 0x6
 3647 01bc B6010000 		.4byte	0x1b6
 3648 01c0 07       		.uleb128 0x7
 3649 01c1 EC000000 		.4byte	0xec
 3650 01c5 D0010000 		.4byte	0x1d0
 3651 01c9 08       		.uleb128 0x8
 3652 01ca E0000000 		.4byte	0xe0
 3653 01ce 05       		.byte	0x5
 3654 01cf 00       		.byte	0
 3655 01d0 05       		.uleb128 0x5
 3656 01d1 C0010000 		.4byte	0x1c0
 3657 01d5 06       		.uleb128 0x6
 3658 01d6 D0010000 		.4byte	0x1d0
 3659 01da 03       		.uleb128 0x3
 3660 01db 19010000 		.4byte	.LASF26
 3661 01df 05       		.byte	0x5
 3662 01e0 2D       		.byte	0x2d
 3663 01e1 61010000 		.4byte	0x161
 3664 01e5 0B       		.uleb128 0xb
 3665 01e6 0002     		.2byte	0x200
 3666 01e8 05       		.byte	0x5
 3667 01e9 32       		.byte	0x32
 3668 01ea FB010000 		.4byte	0x1fb
 3669 01ee 0A       		.uleb128 0xa
 3670 01ef C00A0000 		.4byte	.LASF27
 3671 01f3 05       		.byte	0x5
 3672 01f4 33       		.byte	0x33
 3673 01f5 FB010000 		.4byte	0x1fb
 3674 01f9 00       		.byte	0
 3675 01fa 00       		.byte	0
 3676 01fb 05       		.uleb128 0x5
 3677 01fc 31010000 		.4byte	0x131
 3678 0200 03       		.uleb128 0x3
 3679 0201 F80E0000 		.4byte	.LASF28
 3680 0205 05       		.byte	0x5
 3681 0206 34       		.byte	0x34
 3682 0207 E5010000 		.4byte	0x1e5
 3683 020b 09       		.uleb128 0x9
 3684 020c 40       		.byte	0x40
 3685 020d 05       		.byte	0x5
 3686 020e 39       		.byte	0x39
 3687 020f 5C020000 		.4byte	0x25c
 3688 0213 0A       		.uleb128 0xa
 3689 0214 68190000 		.4byte	.LASF29
 3690 0218 05       		.byte	0x5
 3691 0219 3A       		.byte	0x3a
 3692 021a E7000000 		.4byte	0xe7
 3693 021e 00       		.byte	0
 3694 021f 0A       		.uleb128 0xa
 3695 0220 87190000 		.4byte	.LASF30
 3696 0224 05       		.byte	0x5
 3697 0225 3B       		.byte	0x3b
 3698 0226 E7000000 		.4byte	0xe7
 3699 022a 04       		.byte	0x4
 3700 022b 0A       		.uleb128 0xa
 3701 022c 00000000 		.4byte	.LASF22
 3702 0230 05       		.byte	0x5
ARM GAS  C:\Users\gjl\AppData\Local\Temp\ccNVysBX.s 			page 135


 3703 0231 3C       		.byte	0x3c
 3704 0232 61020000 		.4byte	0x261
 3705 0236 08       		.byte	0x8
 3706 0237 0A       		.uleb128 0xa
 3707 0238 6E190000 		.4byte	.LASF31
 3708 023c 05       		.byte	0x5
 3709 023d 3D       		.byte	0x3d
 3710 023e EC000000 		.4byte	0xec
 3711 0242 20       		.byte	0x20
 3712 0243 0A       		.uleb128 0xa
 3713 0244 8C190000 		.4byte	.LASF32
 3714 0248 05       		.byte	0x5
 3715 0249 3E       		.byte	0x3e
 3716 024a E7000000 		.4byte	0xe7
 3717 024e 24       		.byte	0x24
 3718 024f 0A       		.uleb128 0xa
 3719 0250 1E110000 		.4byte	.LASF25
 3720 0254 05       		.byte	0x5
 3721 0255 3F       		.byte	0x3f
 3722 0256 6B020000 		.4byte	0x26b
 3723 025a 28       		.byte	0x28
 3724 025b 00       		.byte	0
 3725 025c 05       		.uleb128 0x5
 3726 025d C0010000 		.4byte	0x1c0
 3727 0261 06       		.uleb128 0x6
 3728 0262 5C020000 		.4byte	0x25c
 3729 0266 05       		.uleb128 0x5
 3730 0267 C0010000 		.4byte	0x1c0
 3731 026b 06       		.uleb128 0x6
 3732 026c 66020000 		.4byte	0x266
 3733 0270 03       		.uleb128 0x3
 3734 0271 5D130000 		.4byte	.LASF33
 3735 0275 05       		.byte	0x5
 3736 0276 40       		.byte	0x40
 3737 0277 0B020000 		.4byte	0x20b
 3738 027b 09       		.uleb128 0x9
 3739 027c 40       		.byte	0x40
 3740 027d 05       		.byte	0x5
 3741 027e 45       		.byte	0x45
 3742 027f CC020000 		.4byte	0x2cc
 3743 0283 0A       		.uleb128 0xa
 3744 0284 68190000 		.4byte	.LASF29
 3745 0288 05       		.byte	0x5
 3746 0289 46       		.byte	0x46
 3747 028a EC000000 		.4byte	0xec
 3748 028e 00       		.byte	0
 3749 028f 0A       		.uleb128 0xa
 3750 0290 87190000 		.4byte	.LASF30
 3751 0294 05       		.byte	0x5
 3752 0295 47       		.byte	0x47
 3753 0296 E7000000 		.4byte	0xe7
 3754 029a 04       		.byte	0x4
 3755 029b 0A       		.uleb128 0xa
 3756 029c 00000000 		.4byte	.LASF22
 3757 02a0 05       		.byte	0x5
 3758 02a1 48       		.byte	0x48
 3759 02a2 D1020000 		.4byte	0x2d1
ARM GAS  C:\Users\gjl\AppData\Local\Temp\ccNVysBX.s 			page 136


 3760 02a6 08       		.byte	0x8
 3761 02a7 0A       		.uleb128 0xa
 3762 02a8 6E190000 		.4byte	.LASF31
 3763 02ac 05       		.byte	0x5
 3764 02ad 49       		.byte	0x49
 3765 02ae EC000000 		.4byte	0xec
 3766 02b2 20       		.byte	0x20
 3767 02b3 0A       		.uleb128 0xa
 3768 02b4 8C190000 		.4byte	.LASF32
 3769 02b8 05       		.byte	0x5
 3770 02b9 4A       		.byte	0x4a
 3771 02ba E7000000 		.4byte	0xe7
 3772 02be 24       		.byte	0x24
 3773 02bf 0A       		.uleb128 0xa
 3774 02c0 1E110000 		.4byte	.LASF25
 3775 02c4 05       		.byte	0x5
 3776 02c5 4B       		.byte	0x4b
 3777 02c6 DB020000 		.4byte	0x2db
 3778 02ca 28       		.byte	0x28
 3779 02cb 00       		.byte	0
 3780 02cc 05       		.uleb128 0x5
 3781 02cd C0010000 		.4byte	0x1c0
 3782 02d1 06       		.uleb128 0x6
 3783 02d2 CC020000 		.4byte	0x2cc
 3784 02d6 05       		.uleb128 0x5
 3785 02d7 C0010000 		.4byte	0x1c0
 3786 02db 06       		.uleb128 0x6
 3787 02dc D6020000 		.4byte	0x2d6
 3788 02e0 03       		.uleb128 0x3
 3789 02e1 DF090000 		.4byte	.LASF34
 3790 02e5 05       		.byte	0x5
 3791 02e6 4C       		.byte	0x4c
 3792 02e7 7B020000 		.4byte	0x27b
 3793 02eb 0B       		.uleb128 0xb
 3794 02ec 0054     		.2byte	0x5400
 3795 02ee 05       		.byte	0x5
 3796 02ef 69       		.byte	0x69
 3797 02f0 C3030000 		.4byte	0x3c3
 3798 02f4 0C       		.uleb128 0xc
 3799 02f5 475200   		.ascii	"GR\000"
 3800 02f8 05       		.byte	0x5
 3801 02f9 6A       		.byte	0x6a
 3802 02fa C3030000 		.4byte	0x3c3
 3803 02fe 00       		.byte	0
 3804 02ff 0D       		.uleb128 0xd
 3805 0300 AF020000 		.4byte	.LASF35
 3806 0304 05       		.byte	0x5
 3807 0305 6B       		.byte	0x6b
 3808 0306 E7000000 		.4byte	0xe7
 3809 030a 0004     		.2byte	0x400
 3810 030c 0D       		.uleb128 0xd
 3811 030d 00000000 		.4byte	.LASF22
 3812 0311 05       		.byte	0x5
 3813 0312 6C       		.byte	0x6c
 3814 0313 E8030000 		.4byte	0x3e8
 3815 0317 0404     		.2byte	0x404
 3816 0319 0D       		.uleb128 0xd
ARM GAS  C:\Users\gjl\AppData\Local\Temp\ccNVysBX.s 			page 137


 3817 031a 9C120000 		.4byte	.LASF36
 3818 031e 05       		.byte	0x5
 3819 031f 6D       		.byte	0x6d
 3820 0320 FD030000 		.4byte	0x3fd
 3821 0324 0008     		.2byte	0x800
 3822 0326 0D       		.uleb128 0xd
 3823 0327 38090000 		.4byte	.LASF37
 3824 032b 05       		.byte	0x5
 3825 032c 6E       		.byte	0x6e
 3826 032d 02040000 		.4byte	0x402
 3827 0331 0009     		.2byte	0x900
 3828 0333 0D       		.uleb128 0xd
 3829 0334 5E0A0000 		.4byte	.LASF38
 3830 0338 05       		.byte	0x5
 3831 0339 6F       		.byte	0x6f
 3832 033a 07040000 		.4byte	0x407
 3833 033e 000A     		.2byte	0xa00
 3834 0340 0D       		.uleb128 0xd
 3835 0341 E2080000 		.4byte	.LASF39
 3836 0345 05       		.byte	0x5
 3837 0346 70       		.byte	0x70
 3838 0347 1C040000 		.4byte	0x41c
 3839 034b 000B     		.2byte	0xb00
 3840 034d 0D       		.uleb128 0xd
 3841 034e 1E110000 		.4byte	.LASF25
 3842 0352 05       		.byte	0x5
 3843 0353 71       		.byte	0x71
 3844 0354 EC000000 		.4byte	0xec
 3845 0358 FC0B     		.2byte	0xbfc
 3846 035a 0D       		.uleb128 0xd
 3847 035b C0140000 		.4byte	.LASF21
 3848 035f 05       		.byte	0x5
 3849 0360 72       		.byte	0x72
 3850 0361 21040000 		.4byte	0x421
 3851 0365 000C     		.2byte	0xc00
 3852 0367 0D       		.uleb128 0xd
 3853 0368 28110000 		.4byte	.LASF40
 3854 036c 05       		.byte	0x5
 3855 036d 73       		.byte	0x73
 3856 036e 3B040000 		.4byte	0x43b
 3857 0372 000E     		.2byte	0xe00
 3858 0374 0D       		.uleb128 0xd
 3859 0375 EA070000 		.4byte	.LASF41
 3860 0379 05       		.byte	0x5
 3861 037a 74       		.byte	0x74
 3862 037b E7000000 		.4byte	0xe7
 3863 037f 0010     		.2byte	0x1000
 3864 0381 0D       		.uleb128 0xd
 3865 0382 32110000 		.4byte	.LASF42
 3866 0386 05       		.byte	0x5
 3867 0387 75       		.byte	0x75
 3868 0388 56040000 		.4byte	0x456
 3869 038c 0410     		.2byte	0x1004
 3870 038e 0D       		.uleb128 0xd
 3871 038f D80A0000 		.4byte	.LASF43
 3872 0393 05       		.byte	0x5
 3873 0394 76       		.byte	0x76
ARM GAS  C:\Users\gjl\AppData\Local\Temp\ccNVysBX.s 			page 138


 3874 0395 5B040000 		.4byte	0x45b
 3875 0399 0020     		.2byte	0x2000
 3876 039b 0D       		.uleb128 0xd
 3877 039c 25020000 		.4byte	.LASF44
 3878 03a0 05       		.byte	0x5
 3879 03a1 77       		.byte	0x77
 3880 03a2 6B040000 		.4byte	0x46b
 3881 03a6 0040     		.2byte	0x4000
 3882 03a8 0D       		.uleb128 0xd
 3883 03a9 3C110000 		.4byte	.LASF45
 3884 03ad 05       		.byte	0x5
 3885 03ae 78       		.byte	0x78
 3886 03af 91040000 		.4byte	0x491
 3887 03b3 0048     		.2byte	0x4800
 3888 03b5 0D       		.uleb128 0xd
 3889 03b6 DF0D0000 		.4byte	.LASF46
 3890 03ba 05       		.byte	0x5
 3891 03bb 79       		.byte	0x79
 3892 03bc 96040000 		.4byte	0x496
 3893 03c0 0050     		.2byte	0x5000
 3894 03c2 00       		.byte	0
 3895 03c3 07       		.uleb128 0x7
 3896 03c4 DA010000 		.4byte	0x1da
 3897 03c8 D3030000 		.4byte	0x3d3
 3898 03cc 08       		.uleb128 0x8
 3899 03cd E0000000 		.4byte	0xe0
 3900 03d1 0F       		.byte	0xf
 3901 03d2 00       		.byte	0
 3902 03d3 07       		.uleb128 0x7
 3903 03d4 EC000000 		.4byte	0xec
 3904 03d8 E3030000 		.4byte	0x3e3
 3905 03dc 08       		.uleb128 0x8
 3906 03dd E0000000 		.4byte	0xe0
 3907 03e1 FE       		.byte	0xfe
 3908 03e2 00       		.byte	0
 3909 03e3 05       		.uleb128 0x5
 3910 03e4 D3030000 		.4byte	0x3d3
 3911 03e8 06       		.uleb128 0x6
 3912 03e9 E3030000 		.4byte	0x3e3
 3913 03ed 07       		.uleb128 0x7
 3914 03ee E7000000 		.4byte	0xe7
 3915 03f2 FD030000 		.4byte	0x3fd
 3916 03f6 08       		.uleb128 0x8
 3917 03f7 E0000000 		.4byte	0xe0
 3918 03fb 3F       		.byte	0x3f
 3919 03fc 00       		.byte	0
 3920 03fd 05       		.uleb128 0x5
 3921 03fe ED030000 		.4byte	0x3ed
 3922 0402 05       		.uleb128 0x5
 3923 0403 ED030000 		.4byte	0x3ed
 3924 0407 05       		.uleb128 0x5
 3925 0408 ED030000 		.4byte	0x3ed
 3926 040c 07       		.uleb128 0x7
 3927 040d E7000000 		.4byte	0xe7
 3928 0411 1C040000 		.4byte	0x41c
 3929 0415 08       		.uleb128 0x8
 3930 0416 E0000000 		.4byte	0xe0
ARM GAS  C:\Users\gjl\AppData\Local\Temp\ccNVysBX.s 			page 139


 3931 041a 3E       		.byte	0x3e
 3932 041b 00       		.byte	0
 3933 041c 05       		.uleb128 0x5
 3934 041d 0C040000 		.4byte	0x40c
 3935 0421 05       		.uleb128 0x5
 3936 0422 31010000 		.4byte	0x131
 3937 0426 07       		.uleb128 0x7
 3938 0427 EC000000 		.4byte	0xec
 3939 042b 36040000 		.4byte	0x436
 3940 042f 08       		.uleb128 0x8
 3941 0430 E0000000 		.4byte	0xe0
 3942 0434 7F       		.byte	0x7f
 3943 0435 00       		.byte	0
 3944 0436 05       		.uleb128 0x5
 3945 0437 26040000 		.4byte	0x426
 3946 043b 06       		.uleb128 0x6
 3947 043c 36040000 		.4byte	0x436
 3948 0440 07       		.uleb128 0x7
 3949 0441 EC000000 		.4byte	0xec
 3950 0445 51040000 		.4byte	0x451
 3951 0449 0E       		.uleb128 0xe
 3952 044a E0000000 		.4byte	0xe0
 3953 044e FE03     		.2byte	0x3fe
 3954 0450 00       		.byte	0
 3955 0451 05       		.uleb128 0x5
 3956 0452 40040000 		.4byte	0x440
 3957 0456 06       		.uleb128 0x6
 3958 0457 51040000 		.4byte	0x451
 3959 045b 07       		.uleb128 0x7
 3960 045c 00020000 		.4byte	0x200
 3961 0460 6B040000 		.4byte	0x46b
 3962 0464 08       		.uleb128 0x8
 3963 0465 E0000000 		.4byte	0xe0
 3964 0469 0F       		.byte	0xf
 3965 046a 00       		.byte	0
 3966 046b 07       		.uleb128 0x7
 3967 046c 70020000 		.4byte	0x270
 3968 0470 7B040000 		.4byte	0x47b
 3969 0474 08       		.uleb128 0x8
 3970 0475 E0000000 		.4byte	0xe0
 3971 0479 1F       		.byte	0x1f
 3972 047a 00       		.byte	0
 3973 047b 07       		.uleb128 0x7
 3974 047c EC000000 		.4byte	0xec
 3975 0480 8C040000 		.4byte	0x48c
 3976 0484 0E       		.uleb128 0xe
 3977 0485 E0000000 		.4byte	0xe0
 3978 0489 FF01     		.2byte	0x1ff
 3979 048b 00       		.byte	0
 3980 048c 05       		.uleb128 0x5
 3981 048d 7B040000 		.4byte	0x47b
 3982 0491 06       		.uleb128 0x6
 3983 0492 8C040000 		.4byte	0x48c
 3984 0496 07       		.uleb128 0x7
 3985 0497 E0020000 		.4byte	0x2e0
 3986 049b A6040000 		.4byte	0x4a6
 3987 049f 08       		.uleb128 0x8
ARM GAS  C:\Users\gjl\AppData\Local\Temp\ccNVysBX.s 			page 140


 3988 04a0 E0000000 		.4byte	0xe0
 3989 04a4 0F       		.byte	0xf
 3990 04a5 00       		.byte	0
 3991 04a6 03       		.uleb128 0x3
 3992 04a7 53130000 		.4byte	.LASF47
 3993 04ab 05       		.byte	0x5
 3994 04ac 7B       		.byte	0x7b
 3995 04ad EB020000 		.4byte	0x2eb
 3996 04b1 0B       		.uleb128 0xb
 3997 04b2 08F0     		.2byte	0xf008
 3998 04b4 06       		.byte	0x6
 3999 04b5 21       		.byte	0x21
 4000 04b6 F1070000 		.4byte	0x7f1
 4001 04ba 0A       		.uleb128 0xa
 4002 04bb 23130000 		.4byte	.LASF48
 4003 04bf 06       		.byte	0x6
 4004 04c0 22       		.byte	0x22
 4005 04c1 E7000000 		.4byte	0xe7
 4006 04c5 00       		.byte	0
 4007 04c6 0A       		.uleb128 0xa
 4008 04c7 00000000 		.4byte	.LASF22
 4009 04cb 06       		.byte	0x6
 4010 04cc 23       		.byte	0x23
 4011 04cd EC000000 		.4byte	0xec
 4012 04d1 04       		.byte	0x4
 4013 04d2 0A       		.uleb128 0xa
 4014 04d3 18030000 		.4byte	.LASF49
 4015 04d7 06       		.byte	0x6
 4016 04d8 24       		.byte	0x24
 4017 04d9 EC000000 		.4byte	0xec
 4018 04dd 08       		.byte	0x8
 4019 04de 0A       		.uleb128 0xa
 4020 04df 1E110000 		.4byte	.LASF25
 4021 04e3 06       		.byte	0x6
 4022 04e4 25       		.byte	0x25
 4023 04e5 EC000000 		.4byte	0xec
 4024 04e9 0C       		.byte	0xc
 4025 04ea 0A       		.uleb128 0xa
 4026 04eb 8B010000 		.4byte	.LASF50
 4027 04ef 06       		.byte	0x6
 4028 04f0 26       		.byte	0x26
 4029 04f1 E7000000 		.4byte	0xe7
 4030 04f5 10       		.byte	0x10
 4031 04f6 0A       		.uleb128 0xa
 4032 04f7 28110000 		.4byte	.LASF40
 4033 04fb 06       		.byte	0x6
 4034 04fc 27       		.byte	0x27
 4035 04fd 06080000 		.4byte	0x806
 4036 0501 14       		.byte	0x14
 4037 0502 0A       		.uleb128 0xa
 4038 0503 04160000 		.4byte	.LASF51
 4039 0507 06       		.byte	0x6
 4040 0508 28       		.byte	0x28
 4041 0509 E7000000 		.4byte	0xe7
 4042 050d 20       		.byte	0x20
 4043 050e 0A       		.uleb128 0xa
 4044 050f D2140000 		.4byte	.LASF52
ARM GAS  C:\Users\gjl\AppData\Local\Temp\ccNVysBX.s 			page 141


 4045 0513 06       		.byte	0x6
 4046 0514 29       		.byte	0x29
 4047 0515 E7000000 		.4byte	0xe7
 4048 0519 24       		.byte	0x24
 4049 051a 0A       		.uleb128 0xa
 4050 051b DF140000 		.4byte	.LASF53
 4051 051f 06       		.byte	0x6
 4052 0520 2A       		.byte	0x2a
 4053 0521 E7000000 		.4byte	0xe7
 4054 0525 28       		.byte	0x28
 4055 0526 0A       		.uleb128 0xa
 4056 0527 EC140000 		.4byte	.LASF54
 4057 052b 06       		.byte	0x6
 4058 052c 2B       		.byte	0x2b
 4059 052d E7000000 		.4byte	0xe7
 4060 0531 2C       		.byte	0x2c
 4061 0532 0A       		.uleb128 0xa
 4062 0533 F9140000 		.4byte	.LASF55
 4063 0537 06       		.byte	0x6
 4064 0538 2C       		.byte	0x2c
 4065 0539 E7000000 		.4byte	0xe7
 4066 053d 30       		.byte	0x30
 4067 053e 0A       		.uleb128 0xa
 4068 053f 06150000 		.4byte	.LASF56
 4069 0543 06       		.byte	0x6
 4070 0544 2D       		.byte	0x2d
 4071 0545 E7000000 		.4byte	0xe7
 4072 0549 34       		.byte	0x34
 4073 054a 0A       		.uleb128 0xa
 4074 054b AD110000 		.4byte	.LASF57
 4075 054f 06       		.byte	0x6
 4076 0550 2E       		.byte	0x2e
 4077 0551 E7000000 		.4byte	0xe7
 4078 0555 38       		.byte	0x38
 4079 0556 0A       		.uleb128 0xa
 4080 0557 25150000 		.4byte	.LASF58
 4081 055b 06       		.byte	0x6
 4082 055c 2F       		.byte	0x2f
 4083 055d E7000000 		.4byte	0xe7
 4084 0561 3C       		.byte	0x3c
 4085 0562 0A       		.uleb128 0xa
 4086 0563 32110000 		.4byte	.LASF42
 4087 0567 06       		.byte	0x6
 4088 0568 30       		.byte	0x30
 4089 0569 20080000 		.4byte	0x820
 4090 056d 40       		.byte	0x40
 4091 056e 0A       		.uleb128 0xa
 4092 056f 7C0F0000 		.4byte	.LASF59
 4093 0573 06       		.byte	0x6
 4094 0574 31       		.byte	0x31
 4095 0575 E7000000 		.4byte	0xe7
 4096 0579 80       		.byte	0x80
 4097 057a 0A       		.uleb128 0xa
 4098 057b CD0D0000 		.4byte	.LASF60
 4099 057f 06       		.byte	0x6
 4100 0580 32       		.byte	0x32
 4101 0581 E7000000 		.4byte	0xe7
ARM GAS  C:\Users\gjl\AppData\Local\Temp\ccNVysBX.s 			page 142


 4102 0585 84       		.byte	0x84
 4103 0586 0A       		.uleb128 0xa
 4104 0587 E4100000 		.4byte	.LASF61
 4105 058b 06       		.byte	0x6
 4106 058c 33       		.byte	0x33
 4107 058d EC000000 		.4byte	0xec
 4108 0591 88       		.byte	0x88
 4109 0592 0A       		.uleb128 0xa
 4110 0593 3C110000 		.4byte	.LASF45
 4111 0597 06       		.byte	0x6
 4112 0598 34       		.byte	0x34
 4113 0599 EC000000 		.4byte	0xec
 4114 059d 8C       		.byte	0x8c
 4115 059e 0A       		.uleb128 0xa
 4116 059f FA0A0000 		.4byte	.LASF62
 4117 05a3 06       		.byte	0x6
 4118 05a4 35       		.byte	0x35
 4119 05a5 E7000000 		.4byte	0xe7
 4120 05a9 90       		.byte	0x90
 4121 05aa 0A       		.uleb128 0xa
 4122 05ab 46110000 		.4byte	.LASF63
 4123 05af 06       		.byte	0x6
 4124 05b0 36       		.byte	0x36
 4125 05b1 2A080000 		.4byte	0x82a
 4126 05b5 94       		.byte	0x94
 4127 05b6 0A       		.uleb128 0xa
 4128 05b7 C50E0000 		.4byte	.LASF64
 4129 05bb 06       		.byte	0x6
 4130 05bc 37       		.byte	0x37
 4131 05bd E7000000 		.4byte	0xe7
 4132 05c1 A0       		.byte	0xa0
 4133 05c2 0A       		.uleb128 0xa
 4134 05c3 50110000 		.4byte	.LASF65
 4135 05c7 06       		.byte	0x6
 4136 05c8 38       		.byte	0x38
 4137 05c9 44080000 		.4byte	0x844
 4138 05cd A4       		.byte	0xa4
 4139 05ce 0D       		.uleb128 0xd
 4140 05cf C2080000 		.4byte	.LASF66
 4141 05d3 06       		.byte	0x6
 4142 05d4 39       		.byte	0x39
 4143 05d5 E7000000 		.4byte	0xe7
 4144 05d9 0001     		.2byte	0x100
 4145 05db 0D       		.uleb128 0xd
 4146 05dc 5A110000 		.4byte	.LASF67
 4147 05e0 06       		.byte	0x6
 4148 05e1 3A       		.byte	0x3a
 4149 05e2 5E080000 		.4byte	0x85e
 4150 05e6 0401     		.2byte	0x104
 4151 05e8 0D       		.uleb128 0xd
 4152 05e9 64050000 		.4byte	.LASF68
 4153 05ed 06       		.byte	0x6
 4154 05ee 3B       		.byte	0x3b
 4155 05ef 63080000 		.4byte	0x863
 4156 05f3 4001     		.2byte	0x140
 4157 05f5 0D       		.uleb128 0xd
 4158 05f6 E9120000 		.4byte	.LASF69
ARM GAS  C:\Users\gjl\AppData\Local\Temp\ccNVysBX.s 			page 143


 4159 05fa 06       		.byte	0x6
 4160 05fb 3C       		.byte	0x3c
 4161 05fc E7000000 		.4byte	0xe7
 4162 0600 8001     		.2byte	0x180
 4163 0602 0D       		.uleb128 0xd
 4164 0603 64110000 		.4byte	.LASF70
 4165 0607 06       		.byte	0x6
 4166 0608 3D       		.byte	0x3d
 4167 0609 6D080000 		.4byte	0x86d
 4168 060d 8401     		.2byte	0x184
 4169 060f 0D       		.uleb128 0xd
 4170 0610 54040000 		.4byte	.LASF71
 4171 0614 06       		.byte	0x6
 4172 0615 3E       		.byte	0x3e
 4173 0616 E7000000 		.4byte	0xe7
 4174 061a 9001     		.2byte	0x190
 4175 061c 0D       		.uleb128 0xd
 4176 061d 6E110000 		.4byte	.LASF72
 4177 0621 06       		.byte	0x6
 4178 0622 3F       		.byte	0x3f
 4179 0623 77080000 		.4byte	0x877
 4180 0627 9401     		.2byte	0x194
 4181 0629 0D       		.uleb128 0xd
 4182 062a EB010000 		.4byte	.LASF73
 4183 062e 06       		.byte	0x6
 4184 062f 40       		.byte	0x40
 4185 0630 E7000000 		.4byte	0xe7
 4186 0634 A001     		.2byte	0x1a0
 4187 0636 0D       		.uleb128 0xd
 4188 0637 11160000 		.4byte	.LASF74
 4189 063b 06       		.byte	0x6
 4190 063c 41       		.byte	0x41
 4191 063d 81080000 		.4byte	0x881
 4192 0641 A401     		.2byte	0x1a4
 4193 0643 0D       		.uleb128 0xd
 4194 0644 F7150000 		.4byte	.LASF75
 4195 0648 06       		.byte	0x6
 4196 0649 42       		.byte	0x42
 4197 064a E7000000 		.4byte	0xe7
 4198 064e B001     		.2byte	0x1b0
 4199 0650 0D       		.uleb128 0xd
 4200 0651 1C160000 		.4byte	.LASF76
 4201 0655 06       		.byte	0x6
 4202 0656 43       		.byte	0x43
 4203 0657 8B080000 		.4byte	0x88b
 4204 065b B401     		.2byte	0x1b4
 4205 065d 0D       		.uleb128 0xd
 4206 065e 8F090000 		.4byte	.LASF77
 4207 0662 06       		.byte	0x6
 4208 0663 44       		.byte	0x44
 4209 0664 E7000000 		.4byte	0xe7
 4210 0668 C001     		.2byte	0x1c0
 4211 066a 0D       		.uleb128 0xd
 4212 066b 27160000 		.4byte	.LASF78
 4213 066f 06       		.byte	0x6
 4214 0670 45       		.byte	0x45
 4215 0671 95080000 		.4byte	0x895
ARM GAS  C:\Users\gjl\AppData\Local\Temp\ccNVysBX.s 			page 144


 4216 0675 C401     		.2byte	0x1c4
 4217 0677 0D       		.uleb128 0xd
 4218 0678 10030000 		.4byte	.LASF79
 4219 067c 06       		.byte	0x6
 4220 067d 46       		.byte	0x46
 4221 067e E7000000 		.4byte	0xe7
 4222 0682 D001     		.2byte	0x1d0
 4223 0684 0D       		.uleb128 0xd
 4224 0685 32160000 		.4byte	.LASF80
 4225 0689 06       		.byte	0x6
 4226 068a 47       		.byte	0x47
 4227 068b 9F080000 		.4byte	0x89f
 4228 068f D401     		.2byte	0x1d4
 4229 0691 0D       		.uleb128 0xd
 4230 0692 74190000 		.4byte	.LASF81
 4231 0696 06       		.byte	0x6
 4232 0697 48       		.byte	0x48
 4233 0698 E7000000 		.4byte	0xe7
 4234 069c F001     		.2byte	0x1f0
 4235 069e 0D       		.uleb128 0xd
 4236 069f B0000000 		.4byte	.LASF82
 4237 06a3 06       		.byte	0x6
 4238 06a4 49       		.byte	0x49
 4239 06a5 E7000000 		.4byte	0xe7
 4240 06a9 F401     		.2byte	0x1f4
 4241 06ab 0D       		.uleb128 0xd
 4242 06ac 3D160000 		.4byte	.LASF83
 4243 06b0 06       		.byte	0x6
 4244 06b1 4A       		.byte	0x4a
 4245 06b2 A9080000 		.4byte	0x8a9
 4246 06b6 F801     		.2byte	0x1f8
 4247 06b8 0D       		.uleb128 0xd
 4248 06b9 7B000000 		.4byte	.LASF84
 4249 06bd 06       		.byte	0x6
 4250 06be 4B       		.byte	0x4b
 4251 06bf EC000000 		.4byte	0xec
 4252 06c3 0802     		.2byte	0x208
 4253 06c5 0D       		.uleb128 0xd
 4254 06c6 48160000 		.4byte	.LASF85
 4255 06ca 06       		.byte	0x6
 4256 06cb 4C       		.byte	0x4c
 4257 06cc B3080000 		.4byte	0x8b3
 4258 06d0 0C02     		.2byte	0x20c
 4259 06d2 0D       		.uleb128 0xd
 4260 06d3 DC170000 		.4byte	.LASF86
 4261 06d7 06       		.byte	0x6
 4262 06d8 4D       		.byte	0x4d
 4263 06d9 E7000000 		.4byte	0xe7
 4264 06dd 2002     		.2byte	0x220
 4265 06df 0D       		.uleb128 0xd
 4266 06e0 53160000 		.4byte	.LASF87
 4267 06e4 06       		.byte	0x6
 4268 06e5 4E       		.byte	0x4e
 4269 06e6 BD080000 		.4byte	0x8bd
 4270 06ea 2402     		.2byte	0x224
 4271 06ec 0D       		.uleb128 0xd
 4272 06ed BC020000 		.4byte	.LASF88
ARM GAS  C:\Users\gjl\AppData\Local\Temp\ccNVysBX.s 			page 145


 4273 06f1 06       		.byte	0x6
 4274 06f2 4F       		.byte	0x4f
 4275 06f3 E7000000 		.4byte	0xe7
 4276 06f7 3002     		.2byte	0x230
 4277 06f9 0D       		.uleb128 0xd
 4278 06fa 5E160000 		.4byte	.LASF89
 4279 06fe 06       		.byte	0x6
 4280 06ff 50       		.byte	0x50
 4281 0700 C7080000 		.4byte	0x8c7
 4282 0704 3402     		.2byte	0x234
 4283 0706 0D       		.uleb128 0xd
 4284 0707 3E1B0000 		.4byte	.LASF90
 4285 070b 06       		.byte	0x6
 4286 070c 51       		.byte	0x51
 4287 070d E7000000 		.4byte	0xe7
 4288 0711 4002     		.2byte	0x240
 4289 0713 0D       		.uleb128 0xd
 4290 0714 69160000 		.4byte	.LASF91
 4291 0718 06       		.byte	0x6
 4292 0719 52       		.byte	0x52
 4293 071a E1080000 		.4byte	0x8e1
 4294 071e 4402     		.2byte	0x244
 4295 0720 0D       		.uleb128 0xd
 4296 0721 16120000 		.4byte	.LASF92
 4297 0725 06       		.byte	0x6
 4298 0726 53       		.byte	0x53
 4299 0727 E7000000 		.4byte	0xe7
 4300 072b B002     		.2byte	0x2b0
 4301 072d 0D       		.uleb128 0xd
 4302 072e 74160000 		.4byte	.LASF93
 4303 0732 06       		.byte	0x6
 4304 0733 54       		.byte	0x54
 4305 0734 EB080000 		.4byte	0x8eb
 4306 0738 B402     		.2byte	0x2b4
 4307 073a 0D       		.uleb128 0xd
 4308 073b B7010000 		.4byte	.LASF94
 4309 073f 06       		.byte	0x6
 4310 0740 55       		.byte	0x55
 4311 0741 E7000000 		.4byte	0xe7
 4312 0745 C002     		.2byte	0x2c0
 4313 0747 0D       		.uleb128 0xd
 4314 0748 09190000 		.4byte	.LASF95
 4315 074c 06       		.byte	0x6
 4316 074d 56       		.byte	0x56
 4317 074e F5080000 		.4byte	0x8f5
 4318 0752 C402     		.2byte	0x2c4
 4319 0754 0D       		.uleb128 0xd
 4320 0755 FE080000 		.4byte	.LASF96
 4321 0759 06       		.byte	0x6
 4322 075a 57       		.byte	0x57
 4323 075b E7000000 		.4byte	0xe7
 4324 075f 2003     		.2byte	0x320
 4325 0761 0D       		.uleb128 0xd
 4326 0762 14190000 		.4byte	.LASF97
 4327 0766 06       		.byte	0x6
 4328 0767 58       		.byte	0x58
 4329 0768 0F090000 		.4byte	0x90f
ARM GAS  C:\Users\gjl\AppData\Local\Temp\ccNVysBX.s 			page 146


 4330 076c 2403     		.2byte	0x324
 4331 076e 0D       		.uleb128 0xd
 4332 076f E60D0000 		.4byte	.LASF98
 4333 0773 06       		.byte	0x6
 4334 0774 59       		.byte	0x59
 4335 0775 EC000000 		.4byte	0xec
 4336 0779 0004     		.2byte	0x400
 4337 077b 0D       		.uleb128 0xd
 4338 077c 1F190000 		.4byte	.LASF99
 4339 0780 06       		.byte	0x6
 4340 0781 5A       		.byte	0x5a
 4341 0782 29090000 		.4byte	0x929
 4342 0786 0404     		.2byte	0x404
 4343 0788 0D       		.uleb128 0xd
 4344 0789 A30C0000 		.4byte	.LASF100
 4345 078d 06       		.byte	0x6
 4346 078e 5B       		.byte	0x5b
 4347 078f E7000000 		.4byte	0xe7
 4348 0793 0005     		.2byte	0x500
 4349 0795 0D       		.uleb128 0xd
 4350 0796 2A190000 		.4byte	.LASF101
 4351 079a 06       		.byte	0x6
 4352 079b 5C       		.byte	0x5c
 4353 079c 33090000 		.4byte	0x933
 4354 07a0 0405     		.2byte	0x504
 4355 07a2 0D       		.uleb128 0xd
 4356 07a3 840A0000 		.4byte	.LASF102
 4357 07a7 06       		.byte	0x6
 4358 07a8 5D       		.byte	0x5d
 4359 07a9 E7000000 		.4byte	0xe7
 4360 07ad 2005     		.2byte	0x520
 4361 07af 0D       		.uleb128 0xd
 4362 07b0 35190000 		.4byte	.LASF103
 4363 07b4 06       		.byte	0x6
 4364 07b5 5E       		.byte	0x5e
 4365 07b6 4D090000 		.4byte	0x94d
 4366 07ba 2405     		.2byte	0x524
 4367 07bc 0D       		.uleb128 0xd
 4368 07bd A40E0000 		.4byte	.LASF104
 4369 07c1 06       		.byte	0x6
 4370 07c2 5F       		.byte	0x5f
 4371 07c3 EC000000 		.4byte	0xec
 4372 07c7 A005     		.2byte	0x5a0
 4373 07c9 0D       		.uleb128 0xd
 4374 07ca 40190000 		.4byte	.LASF105
 4375 07ce 06       		.byte	0x6
 4376 07cf 60       		.byte	0x60
 4377 07d0 68090000 		.4byte	0x968
 4378 07d4 A405     		.2byte	0x5a4
 4379 07d6 0D       		.uleb128 0xd
 4380 07d7 9C020000 		.4byte	.LASF106
 4381 07db 06       		.byte	0x6
 4382 07dc 61       		.byte	0x61
 4383 07dd E7000000 		.4byte	0xe7
 4384 07e1 00F0     		.2byte	0xf000
 4385 07e3 0D       		.uleb128 0xd
 4386 07e4 B50F0000 		.4byte	.LASF107
ARM GAS  C:\Users\gjl\AppData\Local\Temp\ccNVysBX.s 			page 147


 4387 07e8 06       		.byte	0x6
 4388 07e9 62       		.byte	0x62
 4389 07ea E7000000 		.4byte	0xe7
 4390 07ee 04F0     		.2byte	0xf004
 4391 07f0 00       		.byte	0
 4392 07f1 07       		.uleb128 0x7
 4393 07f2 EC000000 		.4byte	0xec
 4394 07f6 01080000 		.4byte	0x801
 4395 07fa 08       		.uleb128 0x8
 4396 07fb E0000000 		.4byte	0xe0
 4397 07ff 02       		.byte	0x2
 4398 0800 00       		.byte	0
 4399 0801 05       		.uleb128 0x5
 4400 0802 F1070000 		.4byte	0x7f1
 4401 0806 06       		.uleb128 0x6
 4402 0807 01080000 		.4byte	0x801
 4403 080b 07       		.uleb128 0x7
 4404 080c EC000000 		.4byte	0xec
 4405 0810 1B080000 		.4byte	0x81b
 4406 0814 08       		.uleb128 0x8
 4407 0815 E0000000 		.4byte	0xe0
 4408 0819 0F       		.byte	0xf
 4409 081a 00       		.byte	0
 4410 081b 05       		.uleb128 0x5
 4411 081c 0B080000 		.4byte	0x80b
 4412 0820 06       		.uleb128 0x6
 4413 0821 1B080000 		.4byte	0x81b
 4414 0825 05       		.uleb128 0x5
 4415 0826 F1070000 		.4byte	0x7f1
 4416 082a 06       		.uleb128 0x6
 4417 082b 25080000 		.4byte	0x825
 4418 082f 07       		.uleb128 0x7
 4419 0830 EC000000 		.4byte	0xec
 4420 0834 3F080000 		.4byte	0x83f
 4421 0838 08       		.uleb128 0x8
 4422 0839 E0000000 		.4byte	0xe0
 4423 083d 16       		.byte	0x16
 4424 083e 00       		.byte	0
 4425 083f 05       		.uleb128 0x5
 4426 0840 2F080000 		.4byte	0x82f
 4427 0844 06       		.uleb128 0x6
 4428 0845 3F080000 		.4byte	0x83f
 4429 0849 07       		.uleb128 0x7
 4430 084a EC000000 		.4byte	0xec
 4431 084e 59080000 		.4byte	0x859
 4432 0852 08       		.uleb128 0x8
 4433 0853 E0000000 		.4byte	0xe0
 4434 0857 0E       		.byte	0xe
 4435 0858 00       		.byte	0
 4436 0859 05       		.uleb128 0x5
 4437 085a 49080000 		.4byte	0x849
 4438 085e 06       		.uleb128 0x6
 4439 085f 59080000 		.4byte	0x859
 4440 0863 05       		.uleb128 0x5
 4441 0864 41010000 		.4byte	0x141
 4442 0868 05       		.uleb128 0x5
 4443 0869 F1070000 		.4byte	0x7f1
ARM GAS  C:\Users\gjl\AppData\Local\Temp\ccNVysBX.s 			page 148


 4444 086d 06       		.uleb128 0x6
 4445 086e 68080000 		.4byte	0x868
 4446 0872 05       		.uleb128 0x5
 4447 0873 F1070000 		.4byte	0x7f1
 4448 0877 06       		.uleb128 0x6
 4449 0878 72080000 		.4byte	0x872
 4450 087c 05       		.uleb128 0x5
 4451 087d F1070000 		.4byte	0x7f1
 4452 0881 06       		.uleb128 0x6
 4453 0882 7C080000 		.4byte	0x87c
 4454 0886 05       		.uleb128 0x5
 4455 0887 F1070000 		.4byte	0x7f1
 4456 088b 06       		.uleb128 0x6
 4457 088c 86080000 		.4byte	0x886
 4458 0890 05       		.uleb128 0x5
 4459 0891 F1070000 		.4byte	0x7f1
 4460 0895 06       		.uleb128 0x6
 4461 0896 90080000 		.4byte	0x890
 4462 089a 05       		.uleb128 0x5
 4463 089b A6010000 		.4byte	0x1a6
 4464 089f 06       		.uleb128 0x6
 4465 08a0 9A080000 		.4byte	0x89a
 4466 08a4 05       		.uleb128 0x5
 4467 08a5 01010000 		.4byte	0x101
 4468 08a9 06       		.uleb128 0x6
 4469 08aa A4080000 		.4byte	0x8a4
 4470 08ae 05       		.uleb128 0x5
 4471 08af 11010000 		.4byte	0x111
 4472 08b3 06       		.uleb128 0x6
 4473 08b4 AE080000 		.4byte	0x8ae
 4474 08b8 05       		.uleb128 0x5
 4475 08b9 F1070000 		.4byte	0x7f1
 4476 08bd 06       		.uleb128 0x6
 4477 08be B8080000 		.4byte	0x8b8
 4478 08c2 05       		.uleb128 0x5
 4479 08c3 F1070000 		.4byte	0x7f1
 4480 08c7 06       		.uleb128 0x6
 4481 08c8 C2080000 		.4byte	0x8c2
 4482 08cc 07       		.uleb128 0x7
 4483 08cd EC000000 		.4byte	0xec
 4484 08d1 DC080000 		.4byte	0x8dc
 4485 08d5 08       		.uleb128 0x8
 4486 08d6 E0000000 		.4byte	0xe0
 4487 08da 1A       		.byte	0x1a
 4488 08db 00       		.byte	0
 4489 08dc 05       		.uleb128 0x5
 4490 08dd CC080000 		.4byte	0x8cc
 4491 08e1 06       		.uleb128 0x6
 4492 08e2 DC080000 		.4byte	0x8dc
 4493 08e6 05       		.uleb128 0x5
 4494 08e7 F1070000 		.4byte	0x7f1
 4495 08eb 06       		.uleb128 0x6
 4496 08ec E6080000 		.4byte	0x8e6
 4497 08f0 05       		.uleb128 0x5
 4498 08f1 2F080000 		.4byte	0x82f
 4499 08f5 06       		.uleb128 0x6
 4500 08f6 F0080000 		.4byte	0x8f0
ARM GAS  C:\Users\gjl\AppData\Local\Temp\ccNVysBX.s 			page 149


 4501 08fa 07       		.uleb128 0x7
 4502 08fb EC000000 		.4byte	0xec
 4503 08ff 0A090000 		.4byte	0x90a
 4504 0903 08       		.uleb128 0x8
 4505 0904 E0000000 		.4byte	0xe0
 4506 0908 36       		.byte	0x36
 4507 0909 00       		.byte	0
 4508 090a 05       		.uleb128 0x5
 4509 090b FA080000 		.4byte	0x8fa
 4510 090f 06       		.uleb128 0x6
 4511 0910 0A090000 		.4byte	0x90a
 4512 0914 07       		.uleb128 0x7
 4513 0915 EC000000 		.4byte	0xec
 4514 0919 24090000 		.4byte	0x924
 4515 091d 08       		.uleb128 0x8
 4516 091e E0000000 		.4byte	0xe0
 4517 0922 3E       		.byte	0x3e
 4518 0923 00       		.byte	0
 4519 0924 05       		.uleb128 0x5
 4520 0925 14090000 		.4byte	0x914
 4521 0929 06       		.uleb128 0x6
 4522 092a 24090000 		.4byte	0x924
 4523 092e 05       		.uleb128 0x5
 4524 092f A6010000 		.4byte	0x1a6
 4525 0933 06       		.uleb128 0x6
 4526 0934 2E090000 		.4byte	0x92e
 4527 0938 07       		.uleb128 0x7
 4528 0939 EC000000 		.4byte	0xec
 4529 093d 48090000 		.4byte	0x948
 4530 0941 08       		.uleb128 0x8
 4531 0942 E0000000 		.4byte	0xe0
 4532 0946 1E       		.byte	0x1e
 4533 0947 00       		.byte	0
 4534 0948 05       		.uleb128 0x5
 4535 0949 38090000 		.4byte	0x938
 4536 094d 06       		.uleb128 0x6
 4537 094e 48090000 		.4byte	0x948
 4538 0952 07       		.uleb128 0x7
 4539 0953 EC000000 		.4byte	0xec
 4540 0957 63090000 		.4byte	0x963
 4541 095b 0E       		.uleb128 0xe
 4542 095c E0000000 		.4byte	0xe0
 4543 0960 963A     		.2byte	0x3a96
 4544 0962 00       		.byte	0
 4545 0963 05       		.uleb128 0x5
 4546 0964 52090000 		.4byte	0x952
 4547 0968 06       		.uleb128 0x6
 4548 0969 63090000 		.4byte	0x963
 4549 096d 03       		.uleb128 0x3
 4550 096e 5A070000 		.4byte	.LASF108
 4551 0972 06       		.byte	0x6
 4552 0973 63       		.byte	0x63
 4553 0974 B1040000 		.4byte	0x4b1
 4554 0978 07       		.uleb128 0x7
 4555 0979 EC000000 		.4byte	0xec
 4556 097d 88090000 		.4byte	0x988
 4557 0981 08       		.uleb128 0x8
ARM GAS  C:\Users\gjl\AppData\Local\Temp\ccNVysBX.s 			page 150


 4558 0982 E0000000 		.4byte	0xe0
 4559 0986 1C       		.byte	0x1c
 4560 0987 00       		.byte	0
 4561 0988 09       		.uleb128 0x9
 4562 0989 40       		.byte	0x40
 4563 098a 07       		.byte	0x7
 4564 098b 22       		.byte	0x22
 4565 098c 210A0000 		.4byte	0xa21
 4566 0990 0A       		.uleb128 0xa
 4567 0991 00000000 		.4byte	.LASF22
 4568 0995 07       		.byte	0x7
 4569 0996 23       		.byte	0x23
 4570 0997 EC000000 		.4byte	0xec
 4571 099b 00       		.byte	0
 4572 099c 0A       		.uleb128 0xa
 4573 099d 440D0000 		.4byte	.LASF109
 4574 09a1 07       		.byte	0x7
 4575 09a2 24       		.byte	0x24
 4576 09a3 E7000000 		.4byte	0xe7
 4577 09a7 04       		.byte	0x4
 4578 09a8 0A       		.uleb128 0xa
 4579 09a9 85070000 		.4byte	.LASF110
 4580 09ad 07       		.byte	0x7
 4581 09ae 25       		.byte	0x25
 4582 09af E7000000 		.4byte	0xe7
 4583 09b3 08       		.byte	0x8
 4584 09b4 0A       		.uleb128 0xa
 4585 09b5 C5190000 		.4byte	.LASF111
 4586 09b9 07       		.byte	0x7
 4587 09ba 26       		.byte	0x26
 4588 09bb E7000000 		.4byte	0xe7
 4589 09bf 0C       		.byte	0xc
 4590 09c0 0A       		.uleb128 0xa
 4591 09c1 88170000 		.4byte	.LASF112
 4592 09c5 07       		.byte	0x7
 4593 09c6 27       		.byte	0x27
 4594 09c7 E7000000 		.4byte	0xe7
 4595 09cb 10       		.byte	0x10
 4596 09cc 0A       		.uleb128 0xa
 4597 09cd 6A170000 		.4byte	.LASF113
 4598 09d1 07       		.byte	0x7
 4599 09d2 28       		.byte	0x28
 4600 09d3 E7000000 		.4byte	0xe7
 4601 09d7 14       		.byte	0x14
 4602 09d8 0A       		.uleb128 0xa
 4603 09d9 860D0000 		.4byte	.LASF114
 4604 09dd 07       		.byte	0x7
 4605 09de 29       		.byte	0x29
 4606 09df E7000000 		.4byte	0xe7
 4607 09e3 18       		.byte	0x18
 4608 09e4 0A       		.uleb128 0xa
 4609 09e5 CA120000 		.4byte	.LASF115
 4610 09e9 07       		.byte	0x7
 4611 09ea 2A       		.byte	0x2a
 4612 09eb E7000000 		.4byte	0xe7
 4613 09ef 1C       		.byte	0x1c
 4614 09f0 0A       		.uleb128 0xa
ARM GAS  C:\Users\gjl\AppData\Local\Temp\ccNVysBX.s 			page 151


 4615 09f1 D2080000 		.4byte	.LASF116
 4616 09f5 07       		.byte	0x7
 4617 09f6 2B       		.byte	0x2b
 4618 09f7 E7000000 		.4byte	0xe7
 4619 09fb 20       		.byte	0x20
 4620 09fc 0A       		.uleb128 0xa
 4621 09fd A6040000 		.4byte	.LASF117
 4622 0a01 07       		.byte	0x7
 4623 0a02 2C       		.byte	0x2c
 4624 0a03 EC000000 		.4byte	0xec
 4625 0a07 24       		.byte	0x24
 4626 0a08 0A       		.uleb128 0xa
 4627 0a09 C20F0000 		.4byte	.LASF118
 4628 0a0d 07       		.byte	0x7
 4629 0a0e 2D       		.byte	0x2d
 4630 0a0f E7000000 		.4byte	0xe7
 4631 0a13 28       		.byte	0x28
 4632 0a14 0A       		.uleb128 0xa
 4633 0a15 1E110000 		.4byte	.LASF25
 4634 0a19 07       		.byte	0x7
 4635 0a1a 2E       		.byte	0x2e
 4636 0a1b 260A0000 		.4byte	0xa26
 4637 0a1f 2C       		.byte	0x2c
 4638 0a20 00       		.byte	0
 4639 0a21 05       		.uleb128 0x5
 4640 0a22 11010000 		.4byte	0x111
 4641 0a26 06       		.uleb128 0x6
 4642 0a27 210A0000 		.4byte	0xa21
 4643 0a2b 03       		.uleb128 0x3
 4644 0a2c B01A0000 		.4byte	.LASF119
 4645 0a30 07       		.byte	0x7
 4646 0a31 2F       		.byte	0x2f
 4647 0a32 88090000 		.4byte	0x988
 4648 0a36 0B       		.uleb128 0xb
 4649 0a37 30FF     		.2byte	0xff30
 4650 0a39 07       		.byte	0x7
 4651 0a3a 34       		.byte	0x34
 4652 0a3b AA0D0000 		.4byte	0xdaa
 4653 0a3f 0A       		.uleb128 0xa
 4654 0a40 C5030000 		.4byte	.LASF120
 4655 0a44 07       		.byte	0x7
 4656 0a45 35       		.byte	0x35
 4657 0a46 E7000000 		.4byte	0xe7
 4658 0a4a 00       		.byte	0
 4659 0a4b 0A       		.uleb128 0xa
 4660 0a4c EA0E0000 		.4byte	.LASF121
 4661 0a50 07       		.byte	0x7
 4662 0a51 36       		.byte	0x36
 4663 0a52 E7000000 		.4byte	0xe7
 4664 0a56 04       		.byte	0x4
 4665 0a57 0A       		.uleb128 0xa
 4666 0a58 B70B0000 		.4byte	.LASF122
 4667 0a5c 07       		.byte	0x7
 4668 0a5d 37       		.byte	0x37
 4669 0a5e E7000000 		.4byte	0xe7
 4670 0a62 08       		.byte	0x8
 4671 0a63 0A       		.uleb128 0xa
ARM GAS  C:\Users\gjl\AppData\Local\Temp\ccNVysBX.s 			page 152


 4672 0a64 00000000 		.4byte	.LASF22
 4673 0a68 07       		.byte	0x7
 4674 0a69 38       		.byte	0x38
 4675 0a6a AF0D0000 		.4byte	0xdaf
 4676 0a6e 0C       		.byte	0xc
 4677 0a6f 0A       		.uleb128 0xa
 4678 0a70 EA110000 		.4byte	.LASF123
 4679 0a74 07       		.byte	0x7
 4680 0a75 39       		.byte	0x39
 4681 0a76 E7000000 		.4byte	0xe7
 4682 0a7a 14       		.byte	0x14
 4683 0a7b 0A       		.uleb128 0xa
 4684 0a7c BD060000 		.4byte	.LASF124
 4685 0a80 07       		.byte	0x7
 4686 0a81 3A       		.byte	0x3a
 4687 0a82 E7000000 		.4byte	0xe7
 4688 0a86 18       		.byte	0x18
 4689 0a87 0A       		.uleb128 0xa
 4690 0a88 49010000 		.4byte	.LASF125
 4691 0a8c 07       		.byte	0x7
 4692 0a8d 3B       		.byte	0x3b
 4693 0a8e EC000000 		.4byte	0xec
 4694 0a92 1C       		.byte	0x1c
 4695 0a93 0A       		.uleb128 0xa
 4696 0a94 1E110000 		.4byte	.LASF25
 4697 0a98 07       		.byte	0x7
 4698 0a99 3C       		.byte	0x3c
 4699 0a9a C90D0000 		.4byte	0xdc9
 4700 0a9e 20       		.byte	0x20
 4701 0a9f 0A       		.uleb128 0xa
 4702 0aa0 DF030000 		.4byte	.LASF126
 4703 0aa4 07       		.byte	0x7
 4704 0aa5 3D       		.byte	0x3d
 4705 0aa6 CE0D0000 		.4byte	0xdce
 4706 0aaa 80       		.byte	0x80
 4707 0aab 0A       		.uleb128 0xa
 4708 0aac 28110000 		.4byte	.LASF40
 4709 0ab0 07       		.byte	0x7
 4710 0ab1 3E       		.byte	0x3e
 4711 0ab2 D80D0000 		.4byte	0xdd8
 4712 0ab6 C0       		.byte	0xc0
 4713 0ab7 0D       		.uleb128 0xd
 4714 0ab8 55150000 		.4byte	.LASF127
 4715 0abc 07       		.byte	0x7
 4716 0abd 3F       		.byte	0x3f
 4717 0abe E7000000 		.4byte	0xe7
 4718 0ac2 8001     		.2byte	0x180
 4719 0ac4 0D       		.uleb128 0xd
 4720 0ac5 FD0B0000 		.4byte	.LASF128
 4721 0ac9 07       		.byte	0x7
 4722 0aca 40       		.byte	0x40
 4723 0acb E7000000 		.4byte	0xe7
 4724 0acf 8401     		.2byte	0x184
 4725 0ad1 0D       		.uleb128 0xd
 4726 0ad2 57080000 		.4byte	.LASF129
 4727 0ad6 07       		.byte	0x7
 4728 0ad7 41       		.byte	0x41
ARM GAS  C:\Users\gjl\AppData\Local\Temp\ccNVysBX.s 			page 153


 4729 0ad8 E7000000 		.4byte	0xe7
 4730 0adc 8801     		.2byte	0x188
 4731 0ade 0D       		.uleb128 0xd
 4732 0adf 32110000 		.4byte	.LASF42
 4733 0ae3 07       		.byte	0x7
 4734 0ae4 42       		.byte	0x42
 4735 0ae5 E20D0000 		.4byte	0xde2
 4736 0ae9 8C01     		.2byte	0x18c
 4737 0aeb 0D       		.uleb128 0xd
 4738 0aec 4A120000 		.4byte	.LASF130
 4739 0af0 07       		.byte	0x7
 4740 0af1 43       		.byte	0x43
 4741 0af2 E70D0000 		.4byte	0xde7
 4742 0af6 0002     		.2byte	0x200
 4743 0af8 0D       		.uleb128 0xd
 4744 0af9 731A0000 		.4byte	.LASF131
 4745 0afd 07       		.byte	0x7
 4746 0afe 44       		.byte	0x44
 4747 0aff F70D0000 		.4byte	0xdf7
 4748 0b03 0003     		.2byte	0x300
 4749 0b05 0D       		.uleb128 0xd
 4750 0b06 94110000 		.4byte	.LASF132
 4751 0b0a 07       		.byte	0x7
 4752 0b0b 45       		.byte	0x45
 4753 0b0c FC0D0000 		.4byte	0xdfc
 4754 0b10 4003     		.2byte	0x340
 4755 0b12 0D       		.uleb128 0xd
 4756 0b13 90100000 		.4byte	.LASF133
 4757 0b17 07       		.byte	0x7
 4758 0b18 46       		.byte	0x46
 4759 0b19 010E0000 		.4byte	0xe01
 4760 0b1d 8003     		.2byte	0x380
 4761 0b1f 0D       		.uleb128 0xd
 4762 0b20 3C110000 		.4byte	.LASF45
 4763 0b24 07       		.byte	0x7
 4764 0b25 47       		.byte	0x47
 4765 0b26 1B0E0000 		.4byte	0xe1b
 4766 0b2a C003     		.2byte	0x3c0
 4767 0b2c 0D       		.uleb128 0xd
 4768 0b2d 91020000 		.4byte	.LASF134
 4769 0b31 07       		.byte	0x7
 4770 0b32 48       		.byte	0x48
 4771 0b33 E7000000 		.4byte	0xe7
 4772 0b37 0005     		.2byte	0x500
 4773 0b39 0D       		.uleb128 0xd
 4774 0b3a 5E0C0000 		.4byte	.LASF135
 4775 0b3e 07       		.byte	0x7
 4776 0b3f 49       		.byte	0x49
 4777 0b40 E7000000 		.4byte	0xe7
 4778 0b44 0405     		.2byte	0x504
 4779 0b46 0D       		.uleb128 0xd
 4780 0b47 46110000 		.4byte	.LASF63
 4781 0b4b 07       		.byte	0x7
 4782 0b4c 4A       		.byte	0x4a
 4783 0b4d EC000000 		.4byte	0xec
 4784 0b51 0805     		.2byte	0x508
 4785 0b53 0D       		.uleb128 0xd
ARM GAS  C:\Users\gjl\AppData\Local\Temp\ccNVysBX.s 			page 154


 4786 0b54 DC010000 		.4byte	.LASF136
 4787 0b58 07       		.byte	0x7
 4788 0b59 4B       		.byte	0x4b
 4789 0b5a E7000000 		.4byte	0xe7
 4790 0b5e 0C05     		.2byte	0x50c
 4791 0b60 0D       		.uleb128 0xd
 4792 0b61 C7090000 		.4byte	.LASF137
 4793 0b65 07       		.byte	0x7
 4794 0b66 4C       		.byte	0x4c
 4795 0b67 E7000000 		.4byte	0xe7
 4796 0b6b 1005     		.2byte	0x510
 4797 0b6d 0D       		.uleb128 0xd
 4798 0b6e B50D0000 		.4byte	.LASF138
 4799 0b72 07       		.byte	0x7
 4800 0b73 4D       		.byte	0x4d
 4801 0b74 E7000000 		.4byte	0xe7
 4802 0b78 1405     		.2byte	0x514
 4803 0b7a 0D       		.uleb128 0xd
 4804 0b7b 6F020000 		.4byte	.LASF139
 4805 0b7f 07       		.byte	0x7
 4806 0b80 4E       		.byte	0x4e
 4807 0b81 E7000000 		.4byte	0xe7
 4808 0b85 1805     		.2byte	0x518
 4809 0b87 0D       		.uleb128 0xd
 4810 0b88 61080000 		.4byte	.LASF140
 4811 0b8c 07       		.byte	0x7
 4812 0b8d 4F       		.byte	0x4f
 4813 0b8e E7000000 		.4byte	0xe7
 4814 0b92 1C05     		.2byte	0x51c
 4815 0b94 0D       		.uleb128 0xd
 4816 0b95 6E080000 		.4byte	.LASF141
 4817 0b99 07       		.byte	0x7
 4818 0b9a 50       		.byte	0x50
 4819 0b9b EC000000 		.4byte	0xec
 4820 0b9f 2005     		.2byte	0x520
 4821 0ba1 0D       		.uleb128 0xd
 4822 0ba2 50110000 		.4byte	.LASF65
 4823 0ba6 07       		.byte	0x7
 4824 0ba7 51       		.byte	0x51
 4825 0ba8 250E0000 		.4byte	0xe25
 4826 0bac 2405     		.2byte	0x524
 4827 0bae 0D       		.uleb128 0xd
 4828 0baf 770D0000 		.4byte	.LASF142
 4829 0bb3 07       		.byte	0x7
 4830 0bb4 52       		.byte	0x52
 4831 0bb5 E7000000 		.4byte	0xe7
 4832 0bb9 2C05     		.2byte	0x52c
 4833 0bbb 0D       		.uleb128 0xd
 4834 0bbc 65070000 		.4byte	.LASF143
 4835 0bc0 07       		.byte	0x7
 4836 0bc1 53       		.byte	0x53
 4837 0bc2 EC000000 		.4byte	0xec
 4838 0bc6 3005     		.2byte	0x530
 4839 0bc8 0D       		.uleb128 0xd
 4840 0bc9 5A110000 		.4byte	.LASF67
 4841 0bcd 07       		.byte	0x7
 4842 0bce 54       		.byte	0x54
ARM GAS  C:\Users\gjl\AppData\Local\Temp\ccNVysBX.s 			page 155


 4843 0bcf 2F0E0000 		.4byte	0xe2f
 4844 0bd3 3405     		.2byte	0x534
 4845 0bd5 0D       		.uleb128 0xd
 4846 0bd6 080F0000 		.4byte	.LASF144
 4847 0bda 07       		.byte	0x7
 4848 0bdb 55       		.byte	0x55
 4849 0bdc E7000000 		.4byte	0xe7
 4850 0be0 3C05     		.2byte	0x53c
 4851 0be2 0D       		.uleb128 0xd
 4852 0be3 64110000 		.4byte	.LASF70
 4853 0be7 07       		.byte	0x7
 4854 0be8 56       		.byte	0x56
 4855 0be9 390E0000 		.4byte	0xe39
 4856 0bed 4005     		.2byte	0x540
 4857 0bef 0D       		.uleb128 0xd
 4858 0bf0 2A070000 		.4byte	.LASF145
 4859 0bf4 07       		.byte	0x7
 4860 0bf5 57       		.byte	0x57
 4861 0bf6 E7000000 		.4byte	0xe7
 4862 0bfa 8005     		.2byte	0x580
 4863 0bfc 0D       		.uleb128 0xd
 4864 0bfd 23080000 		.4byte	.LASF146
 4865 0c01 07       		.byte	0x7
 4866 0c02 58       		.byte	0x58
 4867 0c03 E7000000 		.4byte	0xe7
 4868 0c07 8405     		.2byte	0x584
 4869 0c09 0D       		.uleb128 0xd
 4870 0c0a B2170000 		.4byte	.LASF147
 4871 0c0e 07       		.byte	0x7
 4872 0c0f 59       		.byte	0x59
 4873 0c10 E7000000 		.4byte	0xe7
 4874 0c14 8805     		.2byte	0x588
 4875 0c16 0D       		.uleb128 0xd
 4876 0c17 47080000 		.4byte	.LASF148
 4877 0c1b 07       		.byte	0x7
 4878 0c1c 5A       		.byte	0x5a
 4879 0c1d E7000000 		.4byte	0xe7
 4880 0c21 8C05     		.2byte	0x58c
 4881 0c23 0D       		.uleb128 0xd
 4882 0c24 A8010000 		.4byte	.LASF149
 4883 0c28 07       		.byte	0x7
 4884 0c29 5B       		.byte	0x5b
 4885 0c2a E7000000 		.4byte	0xe7
 4886 0c2e 9005     		.2byte	0x590
 4887 0c30 0D       		.uleb128 0xd
 4888 0c31 6E110000 		.4byte	.LASF72
 4889 0c35 07       		.byte	0x7
 4890 0c36 5C       		.byte	0x5c
 4891 0c37 430E0000 		.4byte	0xe43
 4892 0c3b 9405     		.2byte	0x594
 4893 0c3d 0D       		.uleb128 0xd
 4894 0c3e EF080000 		.4byte	.LASF150
 4895 0c42 07       		.byte	0x7
 4896 0c43 5D       		.byte	0x5d
 4897 0c44 580E0000 		.4byte	0xe58
 4898 0c48 0006     		.2byte	0x600
 4899 0c4a 0D       		.uleb128 0xd
ARM GAS  C:\Users\gjl\AppData\Local\Temp\ccNVysBX.s 			page 156


 4900 0c4b 11160000 		.4byte	.LASF74
 4901 0c4f 07       		.byte	0x7
 4902 0c50 5E       		.byte	0x5e
 4903 0c51 EC000000 		.4byte	0xec
 4904 0c55 3C06     		.2byte	0x63c
 4905 0c57 0D       		.uleb128 0xd
 4906 0c58 29090000 		.4byte	.LASF151
 4907 0c5c 07       		.byte	0x7
 4908 0c5d 5F       		.byte	0x5f
 4909 0c5e 5D0E0000 		.4byte	0xe5d
 4910 0c62 4006     		.2byte	0x640
 4911 0c64 0D       		.uleb128 0xd
 4912 0c65 1C160000 		.4byte	.LASF76
 4913 0c69 07       		.byte	0x7
 4914 0c6a 60       		.byte	0x60
 4915 0c6b 770E0000 		.4byte	0xe77
 4916 0c6f 7C06     		.2byte	0x67c
 4917 0c71 0D       		.uleb128 0xd
 4918 0c72 20070000 		.4byte	.LASF152
 4919 0c76 07       		.byte	0x7
 4920 0c77 61       		.byte	0x61
 4921 0c78 E7000000 		.4byte	0xe7
 4922 0c7c 0007     		.2byte	0x700
 4923 0c7e 0D       		.uleb128 0xd
 4924 0c7f 480C0000 		.4byte	.LASF153
 4925 0c83 07       		.byte	0x7
 4926 0c84 62       		.byte	0x62
 4927 0c85 E7000000 		.4byte	0xe7
 4928 0c89 0407     		.2byte	0x704
 4929 0c8b 0D       		.uleb128 0xd
 4930 0c8c 99010000 		.4byte	.LASF154
 4931 0c90 07       		.byte	0x7
 4932 0c91 63       		.byte	0x63
 4933 0c92 E7000000 		.4byte	0xe7
 4934 0c96 0807     		.2byte	0x708
 4935 0c98 0D       		.uleb128 0xd
 4936 0c99 D9110000 		.4byte	.LASF155
 4937 0c9d 07       		.byte	0x7
 4938 0c9e 64       		.byte	0x64
 4939 0c9f EC000000 		.4byte	0xec
 4940 0ca3 0C07     		.2byte	0x70c
 4941 0ca5 0D       		.uleb128 0xd
 4942 0ca6 81090000 		.4byte	.LASF156
 4943 0caa 07       		.byte	0x7
 4944 0cab 65       		.byte	0x65
 4945 0cac E7000000 		.4byte	0xe7
 4946 0cb0 1007     		.2byte	0x710
 4947 0cb2 0D       		.uleb128 0xd
 4948 0cb3 27160000 		.4byte	.LASF78
 4949 0cb7 07       		.byte	0x7
 4950 0cb8 66       		.byte	0x66
 4951 0cb9 910E0000 		.4byte	0xe91
 4952 0cbd 1407     		.2byte	0x714
 4953 0cbf 0D       		.uleb128 0xd
 4954 0cc0 49140000 		.4byte	.LASF157
 4955 0cc4 07       		.byte	0x7
 4956 0cc5 67       		.byte	0x67
ARM GAS  C:\Users\gjl\AppData\Local\Temp\ccNVysBX.s 			page 157


 4957 0cc6 E7000000 		.4byte	0xe7
 4958 0cca 0008     		.2byte	0x800
 4959 0ccc 0D       		.uleb128 0xd
 4960 0ccd 58010000 		.4byte	.LASF158
 4961 0cd1 07       		.byte	0x7
 4962 0cd2 68       		.byte	0x68
 4963 0cd3 E7000000 		.4byte	0xe7
 4964 0cd7 0408     		.2byte	0x804
 4965 0cd9 0D       		.uleb128 0xd
 4966 0cda 32160000 		.4byte	.LASF80
 4967 0cde 07       		.byte	0x7
 4968 0cdf 69       		.byte	0x69
 4969 0ce0 AC0E0000 		.4byte	0xeac
 4970 0ce4 0808     		.2byte	0x808
 4971 0ce6 0D       		.uleb128 0xd
 4972 0ce7 3D0F0000 		.4byte	.LASF159
 4973 0ceb 07       		.byte	0x7
 4974 0cec 6A       		.byte	0x6a
 4975 0ced E7000000 		.4byte	0xe7
 4976 0cf1 007F     		.2byte	0x7f00
 4977 0cf3 0D       		.uleb128 0xd
 4978 0cf4 F4020000 		.4byte	.LASF160
 4979 0cf8 07       		.byte	0x7
 4980 0cf9 6B       		.byte	0x6b
 4981 0cfa E7000000 		.4byte	0xe7
 4982 0cfe 047F     		.2byte	0x7f04
 4983 0d00 0D       		.uleb128 0xd
 4984 0d01 8B120000 		.4byte	.LASF161
 4985 0d05 07       		.byte	0x7
 4986 0d06 6C       		.byte	0x6c
 4987 0d07 E7000000 		.4byte	0xe7
 4988 0d0b 087F     		.2byte	0x7f08
 4989 0d0d 0D       		.uleb128 0xd
 4990 0d0e 09000000 		.4byte	.LASF162
 4991 0d12 07       		.byte	0x7
 4992 0d13 6D       		.byte	0x6d
 4993 0d14 E7000000 		.4byte	0xe7
 4994 0d18 0C7F     		.2byte	0x7f0c
 4995 0d1a 0D       		.uleb128 0xd
 4996 0d1b 3D160000 		.4byte	.LASF83
 4997 0d1f 07       		.byte	0x7
 4998 0d20 6E       		.byte	0x6e
 4999 0d21 B60E0000 		.4byte	0xeb6
 5000 0d25 107F     		.2byte	0x7f10
 5001 0d27 0D       		.uleb128 0xd
 5002 0d28 CD030000 		.4byte	.LASF163
 5003 0d2c 07       		.byte	0x7
 5004 0d2d 6F       		.byte	0x6f
 5005 0d2e E7000000 		.4byte	0xe7
 5006 0d32 307F     		.2byte	0x7f30
 5007 0d34 0D       		.uleb128 0xd
 5008 0d35 48160000 		.4byte	.LASF85
 5009 0d39 07       		.byte	0x7
 5010 0d3a 70       		.byte	0x70
 5011 0d3b D10E0000 		.4byte	0xed1
 5012 0d3f 347F     		.2byte	0x7f34
 5013 0d41 0D       		.uleb128 0xd
ARM GAS  C:\Users\gjl\AppData\Local\Temp\ccNVysBX.s 			page 158


 5014 0d42 53050000 		.4byte	.LASF164
 5015 0d46 07       		.byte	0x7
 5016 0d47 71       		.byte	0x71
 5017 0d48 E7000000 		.4byte	0xe7
 5018 0d4c 10FF     		.2byte	0xff10
 5019 0d4e 0D       		.uleb128 0xd
 5020 0d4f 53160000 		.4byte	.LASF87
 5021 0d53 07       		.byte	0x7
 5022 0d54 72       		.byte	0x72
 5023 0d55 EC000000 		.4byte	0xec
 5024 0d59 14FF     		.2byte	0xff14
 5025 0d5b 0D       		.uleb128 0xd
 5026 0d5c 95040000 		.4byte	.LASF165
 5027 0d60 07       		.byte	0x7
 5028 0d61 73       		.byte	0x73
 5029 0d62 E7000000 		.4byte	0xe7
 5030 0d66 18FF     		.2byte	0xff18
 5031 0d68 0D       		.uleb128 0xd
 5032 0d69 C8170000 		.4byte	.LASF166
 5033 0d6d 07       		.byte	0x7
 5034 0d6e 74       		.byte	0x74
 5035 0d6f E7000000 		.4byte	0xe7
 5036 0d73 1CFF     		.2byte	0xff1c
 5037 0d75 0D       		.uleb128 0xd
 5038 0d76 B5100000 		.4byte	.LASF167
 5039 0d7a 07       		.byte	0x7
 5040 0d7b 75       		.byte	0x75
 5041 0d7c E7000000 		.4byte	0xe7
 5042 0d80 20FF     		.2byte	0xff20
 5043 0d82 0D       		.uleb128 0xd
 5044 0d83 C7110000 		.4byte	.LASF168
 5045 0d87 07       		.byte	0x7
 5046 0d88 76       		.byte	0x76
 5047 0d89 E7000000 		.4byte	0xe7
 5048 0d8d 24FF     		.2byte	0xff24
 5049 0d8f 0D       		.uleb128 0xd
 5050 0d90 A1090000 		.4byte	.LASF169
 5051 0d94 07       		.byte	0x7
 5052 0d95 77       		.byte	0x77
 5053 0d96 E7000000 		.4byte	0xe7
 5054 0d9a 28FF     		.2byte	0xff28
 5055 0d9c 0D       		.uleb128 0xd
 5056 0d9d B4090000 		.4byte	.LASF170
 5057 0da1 07       		.byte	0x7
 5058 0da2 78       		.byte	0x78
 5059 0da3 E7000000 		.4byte	0xe7
 5060 0da7 2CFF     		.2byte	0xff2c
 5061 0da9 00       		.byte	0
 5062 0daa 05       		.uleb128 0x5
 5063 0dab F1000000 		.4byte	0xf1
 5064 0daf 06       		.uleb128 0x6
 5065 0db0 AA0D0000 		.4byte	0xdaa
 5066 0db4 07       		.uleb128 0x7
 5067 0db5 EC000000 		.4byte	0xec
 5068 0db9 C40D0000 		.4byte	0xdc4
 5069 0dbd 08       		.uleb128 0x8
 5070 0dbe E0000000 		.4byte	0xe0
ARM GAS  C:\Users\gjl\AppData\Local\Temp\ccNVysBX.s 			page 159


 5071 0dc2 17       		.byte	0x17
 5072 0dc3 00       		.byte	0
 5073 0dc4 05       		.uleb128 0x5
 5074 0dc5 B40D0000 		.4byte	0xdb4
 5075 0dc9 06       		.uleb128 0x6
 5076 0dca C40D0000 		.4byte	0xdc4
 5077 0dce 05       		.uleb128 0x5
 5078 0dcf 41010000 		.4byte	0x141
 5079 0dd3 05       		.uleb128 0x5
 5080 0dd4 51010000 		.4byte	0x151
 5081 0dd8 06       		.uleb128 0x6
 5082 0dd9 D30D0000 		.4byte	0xdd3
 5083 0ddd 05       		.uleb128 0x5
 5084 0dde 78090000 		.4byte	0x978
 5085 0de2 06       		.uleb128 0x6
 5086 0de3 DD0D0000 		.4byte	0xddd
 5087 0de7 07       		.uleb128 0x7
 5088 0de8 2B0A0000 		.4byte	0xa2b
 5089 0dec F70D0000 		.4byte	0xdf7
 5090 0df0 08       		.uleb128 0x8
 5091 0df1 E0000000 		.4byte	0xe0
 5092 0df5 03       		.byte	0x3
 5093 0df6 00       		.byte	0
 5094 0df7 05       		.uleb128 0x5
 5095 0df8 41010000 		.4byte	0x141
 5096 0dfc 05       		.uleb128 0x5
 5097 0dfd 41010000 		.4byte	0x141
 5098 0e01 05       		.uleb128 0x5
 5099 0e02 41010000 		.4byte	0x141
 5100 0e06 07       		.uleb128 0x7
 5101 0e07 EC000000 		.4byte	0xec
 5102 0e0b 160E0000 		.4byte	0xe16
 5103 0e0f 08       		.uleb128 0x8
 5104 0e10 E0000000 		.4byte	0xe0
 5105 0e14 4F       		.byte	0x4f
 5106 0e15 00       		.byte	0
 5107 0e16 05       		.uleb128 0x5
 5108 0e17 060E0000 		.4byte	0xe06
 5109 0e1b 06       		.uleb128 0x6
 5110 0e1c 160E0000 		.4byte	0xe16
 5111 0e20 05       		.uleb128 0x5
 5112 0e21 F1000000 		.4byte	0xf1
 5113 0e25 06       		.uleb128 0x6
 5114 0e26 200E0000 		.4byte	0xe20
 5115 0e2a 05       		.uleb128 0x5
 5116 0e2b F1000000 		.4byte	0xf1
 5117 0e2f 06       		.uleb128 0x6
 5118 0e30 2A0E0000 		.4byte	0xe2a
 5119 0e34 05       		.uleb128 0x5
 5120 0e35 0B080000 		.4byte	0x80b
 5121 0e39 06       		.uleb128 0x6
 5122 0e3a 340E0000 		.4byte	0xe34
 5123 0e3e 05       		.uleb128 0x5
 5124 0e3f CC080000 		.4byte	0x8cc
 5125 0e43 06       		.uleb128 0x6
 5126 0e44 3E0E0000 		.4byte	0xe3e
 5127 0e48 07       		.uleb128 0x7
ARM GAS  C:\Users\gjl\AppData\Local\Temp\ccNVysBX.s 			page 160


 5128 0e49 E7000000 		.4byte	0xe7
 5129 0e4d 580E0000 		.4byte	0xe58
 5130 0e51 08       		.uleb128 0x8
 5131 0e52 E0000000 		.4byte	0xe0
 5132 0e56 0E       		.byte	0xe
 5133 0e57 00       		.byte	0
 5134 0e58 05       		.uleb128 0x5
 5135 0e59 480E0000 		.4byte	0xe48
 5136 0e5d 05       		.uleb128 0x5
 5137 0e5e 480E0000 		.4byte	0xe48
 5138 0e62 07       		.uleb128 0x7
 5139 0e63 EC000000 		.4byte	0xec
 5140 0e67 720E0000 		.4byte	0xe72
 5141 0e6b 08       		.uleb128 0x8
 5142 0e6c E0000000 		.4byte	0xe0
 5143 0e70 20       		.byte	0x20
 5144 0e71 00       		.byte	0
 5145 0e72 05       		.uleb128 0x5
 5146 0e73 620E0000 		.4byte	0xe62
 5147 0e77 06       		.uleb128 0x6
 5148 0e78 720E0000 		.4byte	0xe72
 5149 0e7c 07       		.uleb128 0x7
 5150 0e7d EC000000 		.4byte	0xec
 5151 0e81 8C0E0000 		.4byte	0xe8c
 5152 0e85 08       		.uleb128 0x8
 5153 0e86 E0000000 		.4byte	0xe0
 5154 0e8a 3A       		.byte	0x3a
 5155 0e8b 00       		.byte	0
 5156 0e8c 05       		.uleb128 0x5
 5157 0e8d 7C0E0000 		.4byte	0xe7c
 5158 0e91 06       		.uleb128 0x6
 5159 0e92 8C0E0000 		.4byte	0xe8c
 5160 0e96 07       		.uleb128 0x7
 5161 0e97 EC000000 		.4byte	0xec
 5162 0e9b A70E0000 		.4byte	0xea7
 5163 0e9f 0E       		.uleb128 0xe
 5164 0ea0 E0000000 		.4byte	0xe0
 5165 0ea4 BD1D     		.2byte	0x1dbd
 5166 0ea6 00       		.byte	0
 5167 0ea7 05       		.uleb128 0x5
 5168 0ea8 960E0000 		.4byte	0xe96
 5169 0eac 06       		.uleb128 0x6
 5170 0ead A70E0000 		.4byte	0xea7
 5171 0eb1 05       		.uleb128 0x5
 5172 0eb2 21010000 		.4byte	0x121
 5173 0eb6 06       		.uleb128 0x6
 5174 0eb7 B10E0000 		.4byte	0xeb1
 5175 0ebb 07       		.uleb128 0x7
 5176 0ebc EC000000 		.4byte	0xec
 5177 0ec0 CC0E0000 		.4byte	0xecc
 5178 0ec4 0E       		.uleb128 0xe
 5179 0ec5 E0000000 		.4byte	0xe0
 5180 0ec9 F61F     		.2byte	0x1ff6
 5181 0ecb 00       		.byte	0
 5182 0ecc 05       		.uleb128 0x5
 5183 0ecd BB0E0000 		.4byte	0xebb
 5184 0ed1 06       		.uleb128 0x6
ARM GAS  C:\Users\gjl\AppData\Local\Temp\ccNVysBX.s 			page 161


 5185 0ed2 CC0E0000 		.4byte	0xecc
 5186 0ed6 03       		.uleb128 0x3
 5187 0ed7 1B000000 		.4byte	.LASF171
 5188 0edb 07       		.byte	0x7
 5189 0edc 79       		.byte	0x79
 5190 0edd 360A0000 		.4byte	0xa36
 5191 0ee1 0F       		.uleb128 0xf
 5192 0ee2 57120000 		.4byte	.LASF172
 5193 0ee6 08       		.byte	0x8
 5194 0ee7 C401     		.2byte	0x1c4
 5195 0ee9 ED0E0000 		.4byte	0xeed
 5196 0eed 02       		.uleb128 0x2
 5197 0eee 01       		.byte	0x1
 5198 0eef 08       		.byte	0x8
 5199 0ef0 76000000 		.4byte	.LASF173
 5200 0ef4 0F       		.uleb128 0xf
 5201 0ef5 F7060000 		.4byte	.LASF174
 5202 0ef9 08       		.byte	0x8
 5203 0efa C501     		.2byte	0x1c5
 5204 0efc 25000000 		.4byte	0x25
 5205 0f00 0F       		.uleb128 0xf
 5206 0f01 9A0E0000 		.4byte	.LASF175
 5207 0f05 08       		.byte	0x8
 5208 0f06 C601     		.2byte	0x1c6
 5209 0f08 0C0F0000 		.4byte	0xf0c
 5210 0f0c 02       		.uleb128 0x2
 5211 0f0d 08       		.byte	0x8
 5212 0f0e 04       		.byte	0x4
 5213 0f0f 80190000 		.4byte	.LASF176
 5214 0f13 0F       		.uleb128 0xf
 5215 0f14 DA0B0000 		.4byte	.LASF177
 5216 0f18 08       		.byte	0x8
 5217 0f19 8603     		.2byte	0x386
 5218 0f1b B4000000 		.4byte	0xb4
 5219 0f1f 02       		.uleb128 0x2
 5220 0f20 08       		.byte	0x8
 5221 0f21 04       		.byte	0x4
 5222 0f22 F00F0000 		.4byte	.LASF178
 5223 0f26 10       		.uleb128 0x10
 5224 0f27 04       		.byte	0x4
 5225 0f28 2C000000 		.4byte	0x2c
 5226 0f2c 09       		.byte	0x9
 5227 0f2d 9703     		.2byte	0x397
 5228 0f2f 5E0F0000 		.4byte	0xf5e
 5229 0f33 11       		.uleb128 0x11
 5230 0f34 74070000 		.4byte	.LASF179
 5231 0f38 00       		.byte	0
 5232 0f39 12       		.uleb128 0x12
 5233 0f3a FC170000 		.4byte	.LASF180
 5234 0f3e 01004200 		.4byte	0x420001
 5235 0f42 12       		.uleb128 0x12
 5236 0f43 1D0A0000 		.4byte	.LASF181
 5237 0f47 02004200 		.4byte	0x420002
 5238 0f4b 12       		.uleb128 0x12
 5239 0f4c 470A0000 		.4byte	.LASF182
 5240 0f50 03004200 		.4byte	0x420003
 5241 0f54 12       		.uleb128 0x12
ARM GAS  C:\Users\gjl\AppData\Local\Temp\ccNVysBX.s 			page 162


 5242 0f55 47150000 		.4byte	.LASF183
 5243 0f59 FF004200 		.4byte	0x4200ff
 5244 0f5d 00       		.byte	0
 5245 0f5e 0F       		.uleb128 0xf
 5246 0f5f E1000000 		.4byte	.LASF184
 5247 0f63 09       		.byte	0x9
 5248 0f64 9E03     		.2byte	0x39e
 5249 0f66 260F0000 		.4byte	0xf26
 5250 0f6a 10       		.uleb128 0x10
 5251 0f6b 01       		.byte	0x1
 5252 0f6c 4C000000 		.4byte	0x4c
 5253 0f70 09       		.byte	0x9
 5254 0f71 3704     		.2byte	0x437
 5255 0f73 900F0000 		.4byte	0xf90
 5256 0f77 11       		.uleb128 0x11
 5257 0f78 A5140000 		.4byte	.LASF185
 5258 0f7c 01       		.byte	0x1
 5259 0f7d 11       		.uleb128 0x11
 5260 0f7e 85080000 		.4byte	.LASF186
 5261 0f82 02       		.byte	0x2
 5262 0f83 11       		.uleb128 0x11
 5263 0f84 6B1B0000 		.4byte	.LASF187
 5264 0f88 04       		.byte	0x4
 5265 0f89 11       		.uleb128 0x11
 5266 0f8a 861B0000 		.4byte	.LASF188
 5267 0f8e 08       		.byte	0x8
 5268 0f8f 00       		.byte	0
 5269 0f90 0F       		.uleb128 0xf
 5270 0f91 78110000 		.4byte	.LASF189
 5271 0f95 09       		.byte	0x9
 5272 0f96 4104     		.2byte	0x441
 5273 0f98 6A0F0000 		.4byte	0xf6a
 5274 0f9c 13       		.uleb128 0x13
 5275 0f9d 0C       		.byte	0xc
 5276 0f9e 09       		.byte	0x9
 5277 0f9f 5D04     		.2byte	0x45d
 5278 0fa1 CD0F0000 		.4byte	0xfcd
 5279 0fa5 14       		.uleb128 0x14
 5280 0fa6 B7020000 		.4byte	.LASF190
 5281 0faa 09       		.byte	0x9
 5282 0fab 5F04     		.2byte	0x45f
 5283 0fad 900F0000 		.4byte	0xf90
 5284 0fb1 00       		.byte	0
 5285 0fb2 14       		.uleb128 0x14
 5286 0fb3 C8040000 		.4byte	.LASF191
 5287 0fb7 09       		.byte	0x9
 5288 0fb8 6304     		.2byte	0x463
 5289 0fba CD0F0000 		.4byte	0xfcd
 5290 0fbe 04       		.byte	0x4
 5291 0fbf 14       		.uleb128 0x14
 5292 0fc0 C50D0000 		.4byte	.LASF192
 5293 0fc4 09       		.byte	0x9
 5294 0fc5 6504     		.2byte	0x465
 5295 0fc7 CD0F0000 		.4byte	0xfcd
 5296 0fcb 08       		.byte	0x8
 5297 0fcc 00       		.byte	0
 5298 0fcd 15       		.uleb128 0x15
ARM GAS  C:\Users\gjl\AppData\Local\Temp\ccNVysBX.s 			page 163


 5299 0fce 04       		.byte	0x4
 5300 0fcf 0F       		.uleb128 0xf
 5301 0fd0 93070000 		.4byte	.LASF193
 5302 0fd4 09       		.byte	0x9
 5303 0fd5 6804     		.2byte	0x468
 5304 0fd7 9C0F0000 		.4byte	0xf9c
 5305 0fdb 16       		.uleb128 0x16
 5306 0fdc 04       		.byte	0x4
 5307 0fdd CF0F0000 		.4byte	0xfcf
 5308 0fe1 10       		.uleb128 0x10
 5309 0fe2 04       		.byte	0x4
 5310 0fe3 2C000000 		.4byte	0x2c
 5311 0fe7 02       		.byte	0x2
 5312 0fe8 5E02     		.2byte	0x25e
 5313 0fea 10100000 		.4byte	0x1010
 5314 0fee 11       		.uleb128 0x11
 5315 0fef 6E010000 		.4byte	.LASF194
 5316 0ff3 00       		.byte	0
 5317 0ff4 12       		.uleb128 0x12
 5318 0ff5 EF100000 		.4byte	.LASF195
 5319 0ff9 01004A00 		.4byte	0x4a0001
 5320 0ffd 12       		.uleb128 0x12
 5321 0ffe 2E010000 		.4byte	.LASF196
 5322 1002 02004A00 		.4byte	0x4a0002
 5323 1006 12       		.uleb128 0x12
 5324 1007 810B0000 		.4byte	.LASF197
 5325 100b 03004A00 		.4byte	0x4a0003
 5326 100f 00       		.byte	0
 5327 1010 0F       		.uleb128 0xf
 5328 1011 0D080000 		.4byte	.LASF198
 5329 1015 02       		.byte	0x2
 5330 1016 6302     		.2byte	0x263
 5331 1018 E10F0000 		.4byte	0xfe1
 5332 101c 10       		.uleb128 0x10
 5333 101d 02       		.byte	0x2
 5334 101e 5E000000 		.4byte	0x5e
 5335 1022 02       		.byte	0x2
 5336 1023 C102     		.2byte	0x2c1
 5337 1025 6B100000 		.4byte	0x106b
 5338 1029 11       		.uleb128 0x11
 5339 102a 31120000 		.4byte	.LASF199
 5340 102e 00       		.byte	0
 5341 102f 11       		.uleb128 0x11
 5342 1030 DE150000 		.4byte	.LASF200
 5343 1034 01       		.byte	0x1
 5344 1035 11       		.uleb128 0x11
 5345 1036 7E0C0000 		.4byte	.LASF201
 5346 103a 02       		.byte	0x2
 5347 103b 11       		.uleb128 0x11
 5348 103c 67120000 		.4byte	.LASF202
 5349 1040 03       		.byte	0x3
 5350 1041 11       		.uleb128 0x11
 5351 1042 6E130000 		.4byte	.LASF203
 5352 1046 04       		.byte	0x4
 5353 1047 17       		.uleb128 0x17
 5354 1048 56020000 		.4byte	.LASF204
 5355 104c 0001     		.2byte	0x100
ARM GAS  C:\Users\gjl\AppData\Local\Temp\ccNVysBX.s 			page 164


 5356 104e 17       		.uleb128 0x17
 5357 104f 821A0000 		.4byte	.LASF205
 5358 1053 1001     		.2byte	0x110
 5359 1055 17       		.uleb128 0x17
 5360 1056 880F0000 		.4byte	.LASF206
 5361 105a 1101     		.2byte	0x111
 5362 105c 17       		.uleb128 0x17
 5363 105d A01B0000 		.4byte	.LASF207
 5364 1061 1201     		.2byte	0x112
 5365 1063 17       		.uleb128 0x17
 5366 1064 34020000 		.4byte	.LASF208
 5367 1068 1301     		.2byte	0x113
 5368 106a 00       		.byte	0
 5369 106b 0F       		.uleb128 0xf
 5370 106c 4A1B0000 		.4byte	.LASF209
 5371 1070 02       		.byte	0x2
 5372 1071 CC02     		.2byte	0x2cc
 5373 1073 1C100000 		.4byte	0x101c
 5374 1077 10       		.uleb128 0x10
 5375 1078 01       		.byte	0x1
 5376 1079 4C000000 		.4byte	0x4c
 5377 107d 02       		.byte	0x2
 5378 107e E302     		.2byte	0x2e3
 5379 1080 9D100000 		.4byte	0x109d
 5380 1084 11       		.uleb128 0x11
 5381 1085 81140000 		.4byte	.LASF210
 5382 1089 00       		.byte	0
 5383 108a 11       		.uleb128 0x11
 5384 108b 990B0000 		.4byte	.LASF211
 5385 108f 01       		.byte	0x1
 5386 1090 11       		.uleb128 0x11
 5387 1091 22140000 		.4byte	.LASF212
 5388 1095 02       		.byte	0x2
 5389 1096 11       		.uleb128 0x11
 5390 1097 F7110000 		.4byte	.LASF213
 5391 109b 03       		.byte	0x3
 5392 109c 00       		.byte	0
 5393 109d 0F       		.uleb128 0xf
 5394 109e 43090000 		.4byte	.LASF214
 5395 10a2 02       		.byte	0x2
 5396 10a3 E802     		.2byte	0x2e8
 5397 10a5 77100000 		.4byte	0x1077
 5398 10a9 10       		.uleb128 0x10
 5399 10aa 01       		.byte	0x1
 5400 10ab 4C000000 		.4byte	0x4c
 5401 10af 02       		.byte	0x2
 5402 10b0 EE02     		.2byte	0x2ee
 5403 10b2 D5100000 		.4byte	0x10d5
 5404 10b6 11       		.uleb128 0x11
 5405 10b7 F31A0000 		.4byte	.LASF215
 5406 10bb 00       		.byte	0
 5407 10bc 11       		.uleb128 0x11
 5408 10bd 6B0A0000 		.4byte	.LASF216
 5409 10c1 01       		.byte	0x1
 5410 10c2 11       		.uleb128 0x11
 5411 10c3 0C1B0000 		.4byte	.LASF217
 5412 10c7 02       		.byte	0x2
ARM GAS  C:\Users\gjl\AppData\Local\Temp\ccNVysBX.s 			page 165


 5413 10c8 11       		.uleb128 0x11
 5414 10c9 251B0000 		.4byte	.LASF218
 5415 10cd 03       		.byte	0x3
 5416 10ce 11       		.uleb128 0x11
 5417 10cf A70A0000 		.4byte	.LASF219
 5418 10d3 04       		.byte	0x4
 5419 10d4 00       		.byte	0
 5420 10d5 0F       		.uleb128 0xf
 5421 10d6 C6100000 		.4byte	.LASF220
 5422 10da 02       		.byte	0x2
 5423 10db F402     		.2byte	0x2f4
 5424 10dd A9100000 		.4byte	0x10a9
 5425 10e1 13       		.uleb128 0x13
 5426 10e2 14       		.byte	0x14
 5427 10e3 02       		.byte	0x2
 5428 10e4 FD02     		.2byte	0x2fd
 5429 10e6 6D110000 		.4byte	0x116d
 5430 10ea 14       		.uleb128 0x14
 5431 10eb 08030000 		.4byte	.LASF221
 5432 10ef 02       		.byte	0x2
 5433 10f0 FF02     		.2byte	0x2ff
 5434 10f2 CA000000 		.4byte	0xca
 5435 10f6 00       		.byte	0
 5436 10f7 14       		.uleb128 0x14
 5437 10f8 1E020000 		.4byte	.LASF222
 5438 10fc 02       		.byte	0x2
 5439 10fd 0003     		.2byte	0x300
 5440 10ff B4000000 		.4byte	0xb4
 5441 1103 04       		.byte	0x4
 5442 1104 14       		.uleb128 0x14
 5443 1105 5E120000 		.4byte	.LASF223
 5444 1109 02       		.byte	0x2
 5445 110a 0103     		.2byte	0x301
 5446 110c D5100000 		.4byte	0x10d5
 5447 1110 06       		.byte	0x6
 5448 1111 14       		.uleb128 0x14
 5449 1112 CA0B0000 		.4byte	.LASF224
 5450 1116 02       		.byte	0x2
 5451 1117 0203     		.2byte	0x302
 5452 1119 6D110000 		.4byte	0x116d
 5453 111d 07       		.byte	0x7
 5454 111e 14       		.uleb128 0x14
 5455 111f 10020000 		.4byte	.LASF225
 5456 1123 02       		.byte	0x2
 5457 1124 0303     		.2byte	0x303
 5458 1126 B4000000 		.4byte	0xb4
 5459 112a 08       		.byte	0x8
 5460 112b 14       		.uleb128 0x14
 5461 112c 94050000 		.4byte	.LASF226
 5462 1130 02       		.byte	0x2
 5463 1131 0403     		.2byte	0x304
 5464 1133 A9000000 		.4byte	0xa9
 5465 1137 0A       		.byte	0xa
 5466 1138 14       		.uleb128 0x14
 5467 1139 CC080000 		.4byte	.LASF227
 5468 113d 02       		.byte	0x2
 5469 113e 0503     		.2byte	0x305
ARM GAS  C:\Users\gjl\AppData\Local\Temp\ccNVysBX.s 			page 166


 5470 1140 A9000000 		.4byte	0xa9
 5471 1144 0B       		.byte	0xb
 5472 1145 14       		.uleb128 0x14
 5473 1146 45050000 		.4byte	.LASF228
 5474 114a 02       		.byte	0x2
 5475 114b 0603     		.2byte	0x306
 5476 114d B4000000 		.4byte	0xb4
 5477 1151 0C       		.byte	0xc
 5478 1152 14       		.uleb128 0x14
 5479 1153 510D0000 		.4byte	.LASF229
 5480 1157 02       		.byte	0x2
 5481 1158 0703     		.2byte	0x307
 5482 115a 9D100000 		.4byte	0x109d
 5483 115e 0E       		.byte	0xe
 5484 115f 14       		.uleb128 0x14
 5485 1160 40010000 		.4byte	.LASF230
 5486 1164 02       		.byte	0x2
 5487 1165 0803     		.2byte	0x308
 5488 1167 B4000000 		.4byte	0xb4
 5489 116b 10       		.byte	0x10
 5490 116c 00       		.byte	0
 5491 116d 02       		.uleb128 0x2
 5492 116e 01       		.byte	0x1
 5493 116f 02       		.byte	0x2
 5494 1170 BC080000 		.4byte	.LASF231
 5495 1174 0F       		.uleb128 0xf
 5496 1175 7F160000 		.4byte	.LASF232
 5497 1179 02       		.byte	0x2
 5498 117a 0903     		.2byte	0x309
 5499 117c E1100000 		.4byte	0x10e1
 5500 1180 13       		.uleb128 0x13
 5501 1181 0C       		.byte	0xc
 5502 1182 02       		.byte	0x2
 5503 1183 6403     		.2byte	0x364
 5504 1185 BE110000 		.4byte	0x11be
 5505 1189 14       		.uleb128 0x14
 5506 118a 7B080000 		.4byte	.LASF233
 5507 118e 02       		.byte	0x2
 5508 118f 6603     		.2byte	0x366
 5509 1191 CA000000 		.4byte	0xca
 5510 1195 00       		.byte	0
 5511 1196 14       		.uleb128 0x14
 5512 1197 730C0000 		.4byte	.LASF234
 5513 119b 02       		.byte	0x2
 5514 119c 6703     		.2byte	0x367
 5515 119e CA000000 		.4byte	0xca
 5516 11a2 04       		.byte	0x4
 5517 11a3 14       		.uleb128 0x14
 5518 11a4 8E040000 		.4byte	.LASF235
 5519 11a8 02       		.byte	0x2
 5520 11a9 6803     		.2byte	0x368
 5521 11ab 6D110000 		.4byte	0x116d
 5522 11af 08       		.byte	0x8
 5523 11b0 14       		.uleb128 0x14
 5524 11b1 510D0000 		.4byte	.LASF229
 5525 11b5 02       		.byte	0x2
 5526 11b6 6903     		.2byte	0x369
ARM GAS  C:\Users\gjl\AppData\Local\Temp\ccNVysBX.s 			page 167


 5527 11b8 9D100000 		.4byte	0x109d
 5528 11bc 09       		.byte	0x9
 5529 11bd 00       		.byte	0
 5530 11be 0F       		.uleb128 0xf
 5531 11bf A10F0000 		.4byte	.LASF236
 5532 11c3 02       		.byte	0x2
 5533 11c4 6A03     		.2byte	0x36a
 5534 11c6 80110000 		.4byte	0x1180
 5535 11ca 13       		.uleb128 0x13
 5536 11cb 05       		.byte	0x5
 5537 11cc 02       		.byte	0x2
 5538 11cd 6E03     		.2byte	0x36e
 5539 11cf 15120000 		.4byte	0x1215
 5540 11d3 14       		.uleb128 0x14
 5541 11d4 55190000 		.4byte	.LASF237
 5542 11d8 02       		.byte	0x2
 5543 11d9 7003     		.2byte	0x370
 5544 11db A9000000 		.4byte	0xa9
 5545 11df 00       		.byte	0
 5546 11e0 14       		.uleb128 0x14
 5547 11e1 7B170000 		.4byte	.LASF238
 5548 11e5 02       		.byte	0x2
 5549 11e6 7103     		.2byte	0x371
 5550 11e8 A9000000 		.4byte	0xa9
 5551 11ec 01       		.byte	0x1
 5552 11ed 14       		.uleb128 0x14
 5553 11ee 99080000 		.4byte	.LASF239
 5554 11f2 02       		.byte	0x2
 5555 11f3 7203     		.2byte	0x372
 5556 11f5 A9000000 		.4byte	0xa9
 5557 11f9 02       		.byte	0x2
 5558 11fa 14       		.uleb128 0x14
 5559 11fb 8E040000 		.4byte	.LASF235
 5560 11ff 02       		.byte	0x2
 5561 1200 7303     		.2byte	0x373
 5562 1202 6D110000 		.4byte	0x116d
 5563 1206 03       		.byte	0x3
 5564 1207 14       		.uleb128 0x14
 5565 1208 510D0000 		.4byte	.LASF229
 5566 120c 02       		.byte	0x2
 5567 120d 7403     		.2byte	0x374
 5568 120f 9D100000 		.4byte	0x109d
 5569 1213 04       		.byte	0x4
 5570 1214 00       		.byte	0
 5571 1215 0F       		.uleb128 0xf
 5572 1216 0E090000 		.4byte	.LASF240
 5573 121a 02       		.byte	0x2
 5574 121b 7503     		.2byte	0x375
 5575 121d CA110000 		.4byte	0x11ca
 5576 1221 10       		.uleb128 0x10
 5577 1222 02       		.byte	0x2
 5578 1223 5E000000 		.4byte	0x5e
 5579 1227 02       		.byte	0x2
 5580 1228 8404     		.2byte	0x484
 5581 122a 6A130000 		.4byte	0x136a
 5582 122e 11       		.uleb128 0x11
 5583 122f 0B140000 		.4byte	.LASF241
ARM GAS  C:\Users\gjl\AppData\Local\Temp\ccNVysBX.s 			page 168


 5584 1233 01       		.byte	0x1
 5585 1234 11       		.uleb128 0x11
 5586 1235 650F0000 		.4byte	.LASF242
 5587 1239 02       		.byte	0x2
 5588 123a 11       		.uleb128 0x11
 5589 123b CB060000 		.4byte	.LASF243
 5590 123f 03       		.byte	0x3
 5591 1240 11       		.uleb128 0x11
 5592 1241 D6130000 		.4byte	.LASF244
 5593 1245 04       		.byte	0x4
 5594 1246 11       		.uleb128 0x11
 5595 1247 2E0A0000 		.4byte	.LASF245
 5596 124b 05       		.byte	0x5
 5597 124c 11       		.uleb128 0x11
 5598 124d 8D150000 		.4byte	.LASF246
 5599 1251 06       		.byte	0x6
 5600 1252 11       		.uleb128 0x11
 5601 1253 39000000 		.4byte	.LASF247
 5602 1257 08       		.byte	0x8
 5603 1258 17       		.uleb128 0x17
 5604 1259 EB190000 		.4byte	.LASF248
 5605 125d 0001     		.2byte	0x100
 5606 125f 17       		.uleb128 0x17
 5607 1260 260F0000 		.4byte	.LASF249
 5608 1264 0101     		.2byte	0x101
 5609 1266 17       		.uleb128 0x17
 5610 1267 C21A0000 		.4byte	.LASF250
 5611 126b 0201     		.2byte	0x102
 5612 126d 17       		.uleb128 0x17
 5613 126e 9C0D0000 		.4byte	.LASF251
 5614 1272 0301     		.2byte	0x103
 5615 1274 17       		.uleb128 0x17
 5616 1275 64090000 		.4byte	.LASF252
 5617 1279 0005     		.2byte	0x500
 5618 127b 17       		.uleb128 0x17
 5619 127c 0F180000 		.4byte	.LASF253
 5620 1280 0005     		.2byte	0x500
 5621 1282 17       		.uleb128 0x17
 5622 1283 28180000 		.4byte	.LASF254
 5623 1287 0105     		.2byte	0x501
 5624 1289 17       		.uleb128 0x17
 5625 128a 41180000 		.4byte	.LASF255
 5626 128e 0205     		.2byte	0x502
 5627 1290 17       		.uleb128 0x17
 5628 1291 5A180000 		.4byte	.LASF256
 5629 1295 0305     		.2byte	0x503
 5630 1297 17       		.uleb128 0x17
 5631 1298 73180000 		.4byte	.LASF257
 5632 129c 0405     		.2byte	0x504
 5633 129e 17       		.uleb128 0x17
 5634 129f 8C180000 		.4byte	.LASF258
 5635 12a3 0505     		.2byte	0x505
 5636 12a5 17       		.uleb128 0x17
 5637 12a6 A5180000 		.4byte	.LASF259
 5638 12aa 0605     		.2byte	0x506
 5639 12ac 17       		.uleb128 0x17
 5640 12ad BE180000 		.4byte	.LASF260
ARM GAS  C:\Users\gjl\AppData\Local\Temp\ccNVysBX.s 			page 169


 5641 12b1 0705     		.2byte	0x507
 5642 12b3 17       		.uleb128 0x17
 5643 12b4 D7180000 		.4byte	.LASF261
 5644 12b8 0805     		.2byte	0x508
 5645 12ba 17       		.uleb128 0x17
 5646 12bb F0180000 		.4byte	.LASF262
 5647 12bf 0905     		.2byte	0x509
 5648 12c1 17       		.uleb128 0x17
 5649 12c2 510B0000 		.4byte	.LASF263
 5650 12c6 0A05     		.2byte	0x50a
 5651 12c8 17       		.uleb128 0x17
 5652 12c9 AE0C0000 		.4byte	.LASF264
 5653 12cd 0B05     		.2byte	0x50b
 5654 12cf 17       		.uleb128 0x17
 5655 12d0 C80C0000 		.4byte	.LASF265
 5656 12d4 0C05     		.2byte	0x50c
 5657 12d6 17       		.uleb128 0x17
 5658 12d7 E20C0000 		.4byte	.LASF266
 5659 12db 0D05     		.2byte	0x50d
 5660 12dd 17       		.uleb128 0x17
 5661 12de FC0C0000 		.4byte	.LASF267
 5662 12e2 0E05     		.2byte	0x50e
 5663 12e4 17       		.uleb128 0x17
 5664 12e5 160D0000 		.4byte	.LASF268
 5665 12e9 0F05     		.2byte	0x50f
 5666 12eb 17       		.uleb128 0x17
 5667 12ec D91A0000 		.4byte	.LASF269
 5668 12f0 0006     		.2byte	0x600
 5669 12f2 17       		.uleb128 0x17
 5670 12f3 28100000 		.4byte	.LASF270
 5671 12f7 0006     		.2byte	0x600
 5672 12f9 17       		.uleb128 0x17
 5673 12fa 91190000 		.4byte	.LASF271
 5674 12fe 0106     		.2byte	0x601
 5675 1300 17       		.uleb128 0x17
 5676 1301 AB190000 		.4byte	.LASF272
 5677 1305 0206     		.2byte	0x602
 5678 1307 17       		.uleb128 0x17
 5679 1308 42100000 		.4byte	.LASF273
 5680 130c 0306     		.2byte	0x603
 5681 130e 17       		.uleb128 0x17
 5682 130f D1190000 		.4byte	.LASF274
 5683 1313 0406     		.2byte	0x604
 5684 1315 17       		.uleb128 0x17
 5685 1316 5C100000 		.4byte	.LASF275
 5686 131a 0506     		.2byte	0x605
 5687 131c 17       		.uleb128 0x17
 5688 131d 081A0000 		.4byte	.LASF276
 5689 1321 0606     		.2byte	0x606
 5690 1323 17       		.uleb128 0x17
 5691 1324 221A0000 		.4byte	.LASF277
 5692 1328 0706     		.2byte	0x607
 5693 132a 17       		.uleb128 0x17
 5694 132b 76100000 		.4byte	.LASF278
 5695 132f 0806     		.2byte	0x608
 5696 1331 17       		.uleb128 0x17
 5697 1332 591A0000 		.4byte	.LASF279
ARM GAS  C:\Users\gjl\AppData\Local\Temp\ccNVysBX.s 			page 170


 5698 1336 0906     		.2byte	0x609
 5699 1338 17       		.uleb128 0x17
 5700 1339 CD040000 		.4byte	.LASF280
 5701 133d 0A06     		.2byte	0x60a
 5702 133f 17       		.uleb128 0x17
 5703 1340 E8040000 		.4byte	.LASF281
 5704 1344 0B06     		.2byte	0x60b
 5705 1346 17       		.uleb128 0x17
 5706 1347 03110000 		.4byte	.LASF282
 5707 134b 0C06     		.2byte	0x60c
 5708 134d 17       		.uleb128 0x17
 5709 134e F5010000 		.4byte	.LASF283
 5710 1352 0D06     		.2byte	0x60d
 5711 1354 17       		.uleb128 0x17
 5712 1355 0F050000 		.4byte	.LASF284
 5713 1359 0E06     		.2byte	0x60e
 5714 135b 17       		.uleb128 0x17
 5715 135c 2A050000 		.4byte	.LASF285
 5716 1360 0F06     		.2byte	0x60f
 5717 1362 17       		.uleb128 0x17
 5718 1363 A9030000 		.4byte	.LASF286
 5719 1367 1006     		.2byte	0x610
 5720 1369 00       		.byte	0
 5721 136a 0F       		.uleb128 0xf
 5722 136b F9130000 		.4byte	.LASF287
 5723 136f 02       		.byte	0x2
 5724 1370 B304     		.2byte	0x4b3
 5725 1372 21120000 		.4byte	0x1221
 5726 1376 10       		.uleb128 0x10
 5727 1377 01       		.byte	0x1
 5728 1378 4C000000 		.4byte	0x4c
 5729 137c 02       		.byte	0x2
 5730 137d A405     		.2byte	0x5a4
 5731 137f E4130000 		.4byte	0x13e4
 5732 1383 11       		.uleb128 0x11
 5733 1384 9A050000 		.4byte	.LASF288
 5734 1388 00       		.byte	0
 5735 1389 11       		.uleb128 0x11
 5736 138a B6050000 		.4byte	.LASF289
 5737 138e 01       		.byte	0x1
 5738 138f 11       		.uleb128 0x11
 5739 1390 D2050000 		.4byte	.LASF290
 5740 1394 02       		.byte	0x2
 5741 1395 11       		.uleb128 0x11
 5742 1396 EE050000 		.4byte	.LASF291
 5743 139a 03       		.byte	0x3
 5744 139b 11       		.uleb128 0x11
 5745 139c 0A060000 		.4byte	.LASF292
 5746 13a0 04       		.byte	0x4
 5747 13a1 11       		.uleb128 0x11
 5748 13a2 26060000 		.4byte	.LASF293
 5749 13a6 05       		.byte	0x5
 5750 13a7 11       		.uleb128 0x11
 5751 13a8 42060000 		.4byte	.LASF294
 5752 13ac 06       		.byte	0x6
 5753 13ad 11       		.uleb128 0x11
 5754 13ae 5E060000 		.4byte	.LASF295
ARM GAS  C:\Users\gjl\AppData\Local\Temp\ccNVysBX.s 			page 171


 5755 13b2 07       		.byte	0x7
 5756 13b3 11       		.uleb128 0x11
 5757 13b4 7A060000 		.4byte	.LASF296
 5758 13b8 08       		.byte	0x8
 5759 13b9 11       		.uleb128 0x11
 5760 13ba 96060000 		.4byte	.LASF297
 5761 13be 09       		.byte	0x9
 5762 13bf 11       		.uleb128 0x11
 5763 13c0 090E0000 		.4byte	.LASF298
 5764 13c4 0A       		.byte	0xa
 5765 13c5 11       		.uleb128 0x11
 5766 13c6 71040000 		.4byte	.LASF299
 5767 13ca 0B       		.byte	0xb
 5768 13cb 11       		.uleb128 0x11
 5769 13cc 360E0000 		.4byte	.LASF300
 5770 13d0 0C       		.byte	0xc
 5771 13d1 11       		.uleb128 0x11
 5772 13d2 530E0000 		.4byte	.LASF301
 5773 13d6 0D       		.byte	0xd
 5774 13d7 11       		.uleb128 0x11
 5775 13d8 700E0000 		.4byte	.LASF302
 5776 13dc 0E       		.byte	0xe
 5777 13dd 11       		.uleb128 0x11
 5778 13de 95170000 		.4byte	.LASF303
 5779 13e2 0F       		.byte	0xf
 5780 13e3 00       		.byte	0
 5781 13e4 0F       		.uleb128 0xf
 5782 13e5 A3080000 		.4byte	.LASF304
 5783 13e9 02       		.byte	0x2
 5784 13ea B505     		.2byte	0x5b5
 5785 13ec 76130000 		.4byte	0x1376
 5786 13f0 10       		.uleb128 0x10
 5787 13f1 01       		.byte	0x1
 5788 13f2 4C000000 		.4byte	0x4c
 5789 13f6 02       		.byte	0x2
 5790 13f7 BD05     		.2byte	0x5bd
 5791 13f9 16140000 		.4byte	0x1416
 5792 13fd 11       		.uleb128 0x11
 5793 13fe A6120000 		.4byte	.LASF305
 5794 1402 00       		.byte	0
 5795 1403 11       		.uleb128 0x11
 5796 1404 B2070000 		.4byte	.LASF306
 5797 1408 01       		.byte	0x1
 5798 1409 11       		.uleb128 0x11
 5799 140a CE070000 		.4byte	.LASF307
 5800 140e 02       		.byte	0x2
 5801 140f 11       		.uleb128 0x11
 5802 1410 F1070000 		.4byte	.LASF308
 5803 1414 03       		.byte	0x3
 5804 1415 00       		.byte	0
 5805 1416 0F       		.uleb128 0xf
 5806 1417 23030000 		.4byte	.LASF309
 5807 141b 02       		.byte	0x2
 5808 141c C205     		.2byte	0x5c2
 5809 141e F0130000 		.4byte	0x13f0
 5810 1422 10       		.uleb128 0x10
 5811 1423 01       		.byte	0x1
ARM GAS  C:\Users\gjl\AppData\Local\Temp\ccNVysBX.s 			page 172


 5812 1424 4C000000 		.4byte	0x4c
 5813 1428 02       		.byte	0x2
 5814 1429 F506     		.2byte	0x6f5
 5815 142b 48140000 		.4byte	0x1448
 5816 142f 11       		.uleb128 0x11
 5817 1430 C2000000 		.4byte	.LASF310
 5818 1434 00       		.byte	0
 5819 1435 11       		.uleb128 0x11
 5820 1436 A0100000 		.4byte	.LASF311
 5821 143a 01       		.byte	0x1
 5822 143b 11       		.uleb128 0x11
 5823 143c 4E0F0000 		.4byte	.LASF312
 5824 1440 02       		.byte	0x2
 5825 1441 11       		.uleb128 0x11
 5826 1442 C7150000 		.4byte	.LASF313
 5827 1446 03       		.byte	0x3
 5828 1447 00       		.byte	0
 5829 1448 0F       		.uleb128 0xf
 5830 1449 A1160000 		.4byte	.LASF314
 5831 144d 02       		.byte	0x2
 5832 144e FA06     		.2byte	0x6fa
 5833 1450 22140000 		.4byte	0x1422
 5834 1454 18       		.uleb128 0x18
 5835 1455 E2060000 		.4byte	.LASF315
 5836 1459 02       		.byte	0x2
 5837 145a 5203     		.2byte	0x352
 5838 145c 10100000 		.4byte	0x1010
 5839 1460 03       		.byte	0x3
 5840 1461 18       		.uleb128 0x18
 5841 1462 53140000 		.4byte	.LASF316
 5842 1466 02       		.byte	0x2
 5843 1467 7404     		.2byte	0x474
 5844 1469 CA000000 		.4byte	0xca
 5845 146d 03       		.byte	0x3
 5846 146e 19       		.uleb128 0x19
 5847 146f AF0E0000 		.4byte	.LASF396
 5848 1473 02       		.byte	0x2
 5849 1474 6504     		.2byte	0x465
 5850 1476 03       		.byte	0x3
 5851 1477 88140000 		.4byte	0x1488
 5852 147b 1A       		.uleb128 0x1a
 5853 147c 11010000 		.4byte	.LASF320
 5854 1480 02       		.byte	0x2
 5855 1481 6504     		.2byte	0x465
 5856 1483 CA000000 		.4byte	0xca
 5857 1487 00       		.byte	0
 5858 1488 1B       		.uleb128 0x1b
 5859 1489 2B130000 		.4byte	.LASF318
 5860 148d 02       		.byte	0x2
 5861 148e AD02     		.2byte	0x2ad
 5862 1490 CA000000 		.4byte	0xca
 5863 1494 03       		.byte	0x3
 5864 1495 A6140000 		.4byte	0x14a6
 5865 1499 1C       		.uleb128 0x1c
 5866 149a 3D0D0000 		.4byte	.LASF344
 5867 149e 02       		.byte	0x2
 5868 149f AF02     		.2byte	0x2af
ARM GAS  C:\Users\gjl\AppData\Local\Temp\ccNVysBX.s 			page 173


 5869 14a1 CA000000 		.4byte	0xca
 5870 14a5 00       		.byte	0
 5871 14a6 18       		.uleb128 0x18
 5872 14a7 33080000 		.4byte	.LASF317
 5873 14ab 02       		.byte	0x2
 5874 14ac 2803     		.2byte	0x328
 5875 14ae 6D110000 		.4byte	0x116d
 5876 14b2 03       		.byte	0x3
 5877 14b3 1B       		.uleb128 0x1b
 5878 14b4 3A040000 		.4byte	.LASF319
 5879 14b8 02       		.byte	0x2
 5880 14b9 9403     		.2byte	0x394
 5881 14bb 6D110000 		.4byte	0x116d
 5882 14bf 03       		.byte	0x3
 5883 14c0 D1140000 		.4byte	0x14d1
 5884 14c4 1A       		.uleb128 0x1a
 5885 14c5 7F020000 		.4byte	.LASF321
 5886 14c9 02       		.byte	0x2
 5887 14ca 9403     		.2byte	0x394
 5888 14cc CA000000 		.4byte	0xca
 5889 14d0 00       		.byte	0
 5890 14d1 1B       		.uleb128 0x1b
 5891 14d2 39070000 		.4byte	.LASF322
 5892 14d6 02       		.byte	0x2
 5893 14d7 5006     		.2byte	0x650
 5894 14d9 E4130000 		.4byte	0x13e4
 5895 14dd 03       		.byte	0x3
 5896 14de EF140000 		.4byte	0x14ef
 5897 14e2 1A       		.uleb128 0x1a
 5898 14e3 51000000 		.4byte	.LASF323
 5899 14e7 02       		.byte	0x2
 5900 14e8 5006     		.2byte	0x650
 5901 14ea CA000000 		.4byte	0xca
 5902 14ee 00       		.byte	0
 5903 14ef 18       		.uleb128 0x18
 5904 14f0 E10B0000 		.4byte	.LASF324
 5905 14f4 02       		.byte	0x2
 5906 14f5 E506     		.2byte	0x6e5
 5907 14f7 A9000000 		.4byte	0xa9
 5908 14fb 03       		.byte	0x3
 5909 14fc 1B       		.uleb128 0x1b
 5910 14fd 0E100000 		.4byte	.LASF325
 5911 1501 02       		.byte	0x2
 5912 1502 8106     		.2byte	0x681
 5913 1504 16140000 		.4byte	0x1416
 5914 1508 03       		.byte	0x3
 5915 1509 1A150000 		.4byte	0x151a
 5916 150d 1A       		.uleb128 0x1a
 5917 150e 51000000 		.4byte	.LASF323
 5918 1512 02       		.byte	0x2
 5919 1513 8106     		.2byte	0x681
 5920 1515 CA000000 		.4byte	0xca
 5921 1519 00       		.byte	0
 5922 151a 1D       		.uleb128 0x1d
 5923 151b 76150000 		.4byte	.LASF339
 5924 151f 01       		.byte	0x1
 5925 1520 64       		.byte	0x64
ARM GAS  C:\Users\gjl\AppData\Local\Temp\ccNVysBX.s 			page 174


 5926 1521 10100000 		.4byte	0x1010
 5927 1525 00000000 		.4byte	.LFB215
 5928 1529 28020000 		.4byte	.LFE215-.LFB215
 5929 152d 01       		.uleb128 0x1
 5930 152e 9C       		.byte	0x9c
 5931 152f 32160000 		.4byte	0x1632
 5932 1533 1E       		.uleb128 0x1e
 5933 1534 5F090000 		.4byte	.LASF326
 5934 1538 01       		.byte	0x1
 5935 1539 64       		.byte	0x64
 5936 153a CA000000 		.4byte	0xca
 5937 153e 00000000 		.4byte	.LLST0
 5938 1542 1E       		.uleb128 0x1e
 5939 1543 69140000 		.4byte	.LASF327
 5940 1547 01       		.byte	0x1
 5941 1548 64       		.byte	0x64
 5942 1549 CA000000 		.4byte	0xca
 5943 154d 3A000000 		.4byte	.LLST1
 5944 1551 1F       		.uleb128 0x1f
 5945 1552 65737200 		.ascii	"esr\000"
 5946 1556 01       		.byte	0x1
 5947 1557 64       		.byte	0x64
 5948 1558 CA000000 		.4byte	0xca
 5949 155c 7E000000 		.4byte	.LLST2
 5950 1560 1E       		.uleb128 0x1e
 5951 1561 63010000 		.4byte	.LASF328
 5952 1565 01       		.byte	0x1
 5953 1566 64       		.byte	0x64
 5954 1567 CA000000 		.4byte	0xca
 5955 156b B8000000 		.4byte	.LLST3
 5956 156f 20       		.uleb128 0x20
 5957 1570 9E140000 		.4byte	.LASF329
 5958 1574 01       		.byte	0x1
 5959 1575 67       		.byte	0x67
 5960 1576 10100000 		.4byte	0x1010
 5961 157a F2000000 		.4byte	.LLST4
 5962 157e 21       		.uleb128 0x21
 5963 157f 00000000 		.4byte	.Ldebug_ranges0+0
 5964 1583 20       		.uleb128 0x20
 5965 1584 A6130000 		.4byte	.LASF330
 5966 1588 01       		.byte	0x1
 5967 1589 6B       		.byte	0x6b
 5968 158a F40E0000 		.4byte	0xef4
 5969 158e 51010000 		.4byte	.LLST5
 5970 1592 20       		.uleb128 0x20
 5971 1593 300D0000 		.4byte	.LASF331
 5972 1597 01       		.byte	0x1
 5973 1598 6C       		.byte	0x6c
 5974 1599 F40E0000 		.4byte	0xef4
 5975 159d 71010000 		.4byte	.LLST6
 5976 15a1 20       		.uleb128 0x20
 5977 15a2 61190000 		.4byte	.LASF332
 5978 15a6 01       		.byte	0x1
 5979 15a7 6F       		.byte	0x6f
 5980 15a8 F40E0000 		.4byte	0xef4
 5981 15ac F1010000 		.4byte	.LLST7
 5982 15b0 20       		.uleb128 0x20
ARM GAS  C:\Users\gjl\AppData\Local\Temp\ccNVysBX.s 			page 175


 5983 15b1 CB0A0000 		.4byte	.LASF333
 5984 15b5 01       		.byte	0x1
 5985 15b6 72       		.byte	0x72
 5986 15b7 CA000000 		.4byte	0xca
 5987 15bb 11020000 		.4byte	.LLST8
 5988 15bf 22       		.uleb128 0x22
 5989 15c0 B2000000 		.4byte	.LBB30
 5990 15c4 1C010000 		.4byte	.LBE30-.LBB30
 5991 15c8 27160000 		.4byte	0x1627
 5992 15cc 20       		.uleb128 0x20
 5993 15cd C2170000 		.4byte	.LASF334
 5994 15d1 01       		.byte	0x1
 5995 15d2 78       		.byte	0x78
 5996 15d3 CA000000 		.4byte	0xca
 5997 15d7 84020000 		.4byte	.LLST9
 5998 15db 20       		.uleb128 0x20
 5999 15dc 74170000 		.4byte	.LASF335
 6000 15e0 01       		.byte	0x1
 6001 15e1 78       		.byte	0x78
 6002 15e2 CA000000 		.4byte	0xca
 6003 15e6 97020000 		.4byte	.LLST10
 6004 15ea 20       		.uleb128 0x20
 6005 15eb 4E040000 		.4byte	.LASF336
 6006 15ef 01       		.byte	0x1
 6007 15f0 78       		.byte	0x78
 6008 15f1 CA000000 		.4byte	0xca
 6009 15f5 AA020000 		.4byte	.LLST11
 6010 15f9 20       		.uleb128 0x20
 6011 15fa 8E050000 		.4byte	.LASF337
 6012 15fe 01       		.byte	0x1
 6013 15ff 78       		.byte	0x78
 6014 1600 CA000000 		.4byte	0xca
 6015 1604 BE020000 		.4byte	.LLST12
 6016 1608 20       		.uleb128 0x20
 6017 1609 940E0000 		.4byte	.LASF338
 6018 160d 01       		.byte	0x1
 6019 160e 78       		.byte	0x78
 6020 160f CA000000 		.4byte	0xca
 6021 1613 D1020000 		.4byte	.LLST13
 6022 1617 23       		.uleb128 0x23
 6023 1618 72656700 		.ascii	"reg\000"
 6024 161c 01       		.byte	0x1
 6025 161d 78       		.byte	0x78
 6026 161e CA000000 		.4byte	0xca
 6027 1622 E8020000 		.4byte	.LLST14
 6028 1626 00       		.byte	0
 6029 1627 24       		.uleb128 0x24
 6030 1628 4C000000 		.4byte	.LVL5
 6031 162c 38250000 		.4byte	0x2538
 6032 1630 00       		.byte	0
 6033 1631 00       		.byte	0
 6034 1632 25       		.uleb128 0x25
 6035 1633 01070000 		.4byte	.LASF340
 6036 1637 01       		.byte	0x1
 6037 1638 B7       		.byte	0xb7
 6038 1639 10100000 		.4byte	0x1010
 6039 163d 00000000 		.4byte	.LFB216
ARM GAS  C:\Users\gjl\AppData\Local\Temp\ccNVysBX.s 			page 176


 6040 1641 50000000 		.4byte	.LFE216-.LFB216
 6041 1645 01       		.uleb128 0x1
 6042 1646 9C       		.byte	0x9c
 6043 1647 79160000 		.4byte	0x1679
 6044 164b 1E       		.uleb128 0x1e
 6045 164c 4B190000 		.4byte	.LASF341
 6046 1650 01       		.byte	0x1
 6047 1651 B7       		.byte	0xb7
 6048 1652 CA000000 		.4byte	0xca
 6049 1656 06030000 		.4byte	.LLST15
 6050 165a 20       		.uleb128 0x20
 6051 165b 9E140000 		.4byte	.LASF329
 6052 165f 01       		.byte	0x1
 6053 1660 B9       		.byte	0xb9
 6054 1661 10100000 		.4byte	0x1010
 6055 1665 48030000 		.4byte	.LLST16
 6056 1669 26       		.uleb128 0x26
 6057 166a 24000000 		.4byte	.LVL33
 6058 166e 43250000 		.4byte	0x2543
 6059 1672 27       		.uleb128 0x27
 6060 1673 01       		.uleb128 0x1
 6061 1674 50       		.byte	0x50
 6062 1675 01       		.uleb128 0x1
 6063 1676 31       		.byte	0x31
 6064 1677 00       		.byte	0
 6065 1678 00       		.byte	0
 6066 1679 25       		.uleb128 0x25
 6067 167a F6000000 		.4byte	.LASF342
 6068 167e 01       		.byte	0x1
 6069 167f EC       		.byte	0xec
 6070 1680 10100000 		.4byte	0x1010
 6071 1684 00000000 		.4byte	.LFB217
 6072 1688 50000000 		.4byte	.LFE217-.LFB217
 6073 168c 01       		.uleb128 0x1
 6074 168d 9C       		.byte	0x9c
 6075 168e C0160000 		.4byte	0x16c0
 6076 1692 1E       		.uleb128 0x1e
 6077 1693 7F020000 		.4byte	.LASF321
 6078 1697 01       		.byte	0x1
 6079 1698 EC       		.byte	0xec
 6080 1699 CA000000 		.4byte	0xca
 6081 169d 86030000 		.4byte	.LLST17
 6082 16a1 1E       		.uleb128 0x1e
 6083 16a2 4C130000 		.4byte	.LASF343
 6084 16a6 01       		.byte	0x1
 6085 16a7 EC       		.byte	0xec
 6086 16a8 6B100000 		.4byte	0x106b
 6087 16ac 0E040000 		.4byte	.LLST18
 6088 16b0 20       		.uleb128 0x20
 6089 16b1 3D0D0000 		.4byte	.LASF344
 6090 16b5 01       		.byte	0x1
 6091 16b6 EE       		.byte	0xee
 6092 16b7 10100000 		.4byte	0x1010
 6093 16bb 53040000 		.4byte	.LLST19
 6094 16bf 00       		.byte	0
 6095 16c0 28       		.uleb128 0x28
 6096 16c1 F3120000 		.4byte	.LASF345
ARM GAS  C:\Users\gjl\AppData\Local\Temp\ccNVysBX.s 			page 177


 6097 16c5 01       		.byte	0x1
 6098 16c6 1001     		.2byte	0x110
 6099 16c8 6B100000 		.4byte	0x106b
 6100 16cc 00000000 		.4byte	.LFB218
 6101 16d0 3C000000 		.4byte	.LFE218-.LFB218
 6102 16d4 01       		.uleb128 0x1
 6103 16d5 9C       		.byte	0x9c
 6104 16d6 15170000 		.4byte	0x1715
 6105 16da 29       		.uleb128 0x29
 6106 16db 7F020000 		.4byte	.LASF321
 6107 16df 01       		.byte	0x1
 6108 16e0 1001     		.2byte	0x110
 6109 16e2 CA000000 		.4byte	0xca
 6110 16e6 76040000 		.4byte	.LLST20
 6111 16ea 2A       		.uleb128 0x2a
 6112 16eb 9E140000 		.4byte	.LASF329
 6113 16ef 01       		.byte	0x1
 6114 16f0 1301     		.2byte	0x113
 6115 16f2 6B100000 		.4byte	0x106b
 6116 16f6 B0040000 		.4byte	.LLST21
 6117 16fa 26       		.uleb128 0x26
 6118 16fb 12000000 		.4byte	.LVL54
 6119 16ff 4F250000 		.4byte	0x254f
 6120 1703 27       		.uleb128 0x27
 6121 1704 01       		.uleb128 0x1
 6122 1705 50       		.byte	0x50
 6123 1706 05       		.uleb128 0x5
 6124 1707 03       		.byte	0x3
 6125 1708 00000000 		.4byte	.LC3
 6126 170c 27       		.uleb128 0x27
 6127 170d 01       		.uleb128 0x1
 6128 170e 51       		.byte	0x51
 6129 170f 03       		.uleb128 0x3
 6130 1710 0A       		.byte	0xa
 6131 1711 1201     		.2byte	0x112
 6132 1713 00       		.byte	0
 6133 1714 00       		.byte	0
 6134 1715 28       		.uleb128 0x28
 6135 1716 000A0000 		.4byte	.LASF346
 6136 171a 01       		.byte	0x1
 6137 171b DA01     		.2byte	0x1da
 6138 171d 10100000 		.4byte	0x1010
 6139 1721 00000000 		.4byte	.LFB220
 6140 1725 50010000 		.4byte	.LFE220-.LFB220
 6141 1729 01       		.uleb128 0x1
 6142 172a 9C       		.byte	0x9c
 6143 172b 74180000 		.4byte	0x1874
 6144 172f 29       		.uleb128 0x29
 6145 1730 DD100000 		.4byte	.LASF347
 6146 1734 01       		.byte	0x1
 6147 1735 DA01     		.2byte	0x1da
 6148 1737 74180000 		.4byte	0x1874
 6149 173b CE040000 		.4byte	.LLST22
 6150 173f 2A       		.uleb128 0x2a
 6151 1740 A3000000 		.4byte	.LASF348
 6152 1744 01       		.byte	0x1
 6153 1745 DC01     		.2byte	0x1dc
ARM GAS  C:\Users\gjl\AppData\Local\Temp\ccNVysBX.s 			page 178


 6154 1747 10100000 		.4byte	0x1010
 6155 174b FA040000 		.4byte	.LLST23
 6156 174f 22       		.uleb128 0x22
 6157 1750 26000000 		.4byte	.LBB32
 6158 1754 10010000 		.4byte	.LBE32-.LBB32
 6159 1758 59180000 		.4byte	0x1859
 6160 175c 2B       		.uleb128 0x2b
 6161 175d 72656700 		.ascii	"reg\000"
 6162 1761 01       		.byte	0x1
 6163 1762 EE01     		.2byte	0x1ee
 6164 1764 CA000000 		.4byte	0xca
 6165 1768 24050000 		.4byte	.LLST24
 6166 176c 2C       		.uleb128 0x2c
 6167 176d 38000000 		.4byte	.LVL64
 6168 1771 4F250000 		.4byte	0x254f
 6169 1775 8A170000 		.4byte	0x178a
 6170 1779 27       		.uleb128 0x27
 6171 177a 01       		.uleb128 0x1
 6172 177b 50       		.byte	0x50
 6173 177c 05       		.uleb128 0x5
 6174 177d 03       		.byte	0x3
 6175 177e 00000000 		.4byte	.LC3
 6176 1782 27       		.uleb128 0x27
 6177 1783 01       		.uleb128 0x1
 6178 1784 51       		.byte	0x51
 6179 1785 03       		.uleb128 0x3
 6180 1786 0A       		.byte	0xa
 6181 1787 ED01     		.2byte	0x1ed
 6182 1789 00       		.byte	0
 6183 178a 2C       		.uleb128 0x2c
 6184 178b 60000000 		.4byte	.LVL68
 6185 178f 4F250000 		.4byte	0x254f
 6186 1793 A8170000 		.4byte	0x17a8
 6187 1797 27       		.uleb128 0x27
 6188 1798 01       		.uleb128 0x1
 6189 1799 50       		.byte	0x50
 6190 179a 05       		.uleb128 0x5
 6191 179b 03       		.byte	0x3
 6192 179c 00000000 		.4byte	.LC3
 6193 17a0 27       		.uleb128 0x27
 6194 17a1 01       		.uleb128 0x1
 6195 17a2 51       		.byte	0x51
 6196 17a3 03       		.uleb128 0x3
 6197 17a4 0A       		.byte	0xa
 6198 17a5 F401     		.2byte	0x1f4
 6199 17a7 00       		.byte	0
 6200 17a8 2C       		.uleb128 0x2c
 6201 17a9 72000000 		.4byte	.LVL69
 6202 17ad 4F250000 		.4byte	0x254f
 6203 17b1 C6170000 		.4byte	0x17c6
 6204 17b5 27       		.uleb128 0x27
 6205 17b6 01       		.uleb128 0x1
 6206 17b7 50       		.byte	0x50
 6207 17b8 05       		.uleb128 0x5
 6208 17b9 03       		.byte	0x3
 6209 17ba 00000000 		.4byte	.LC3
 6210 17be 27       		.uleb128 0x27
ARM GAS  C:\Users\gjl\AppData\Local\Temp\ccNVysBX.s 			page 179


 6211 17bf 01       		.uleb128 0x1
 6212 17c0 51       		.byte	0x51
 6213 17c1 03       		.uleb128 0x3
 6214 17c2 0A       		.byte	0xa
 6215 17c3 F501     		.2byte	0x1f5
 6216 17c5 00       		.byte	0
 6217 17c6 2C       		.uleb128 0x2c
 6218 17c7 98000000 		.4byte	.LVL72
 6219 17cb 4F250000 		.4byte	0x254f
 6220 17cf E4170000 		.4byte	0x17e4
 6221 17d3 27       		.uleb128 0x27
 6222 17d4 01       		.uleb128 0x1
 6223 17d5 50       		.byte	0x50
 6224 17d6 05       		.uleb128 0x5
 6225 17d7 03       		.byte	0x3
 6226 17d8 00000000 		.4byte	.LC3
 6227 17dc 27       		.uleb128 0x27
 6228 17dd 01       		.uleb128 0x1
 6229 17de 51       		.byte	0x51
 6230 17df 03       		.uleb128 0x3
 6231 17e0 0A       		.byte	0xa
 6232 17e1 FB01     		.2byte	0x1fb
 6233 17e3 00       		.byte	0
 6234 17e4 2C       		.uleb128 0x2c
 6235 17e5 A8000000 		.4byte	.LVL73
 6236 17e9 4F250000 		.4byte	0x254f
 6237 17ed 02180000 		.4byte	0x1802
 6238 17f1 27       		.uleb128 0x27
 6239 17f2 01       		.uleb128 0x1
 6240 17f3 50       		.byte	0x50
 6241 17f4 05       		.uleb128 0x5
 6242 17f5 03       		.byte	0x3
 6243 17f6 00000000 		.4byte	.LC3
 6244 17fa 27       		.uleb128 0x27
 6245 17fb 01       		.uleb128 0x1
 6246 17fc 51       		.byte	0x51
 6247 17fd 03       		.uleb128 0x3
 6248 17fe 0A       		.byte	0xa
 6249 17ff FC01     		.2byte	0x1fc
 6250 1801 00       		.byte	0
 6251 1802 2C       		.uleb128 0x2c
 6252 1803 BA000000 		.4byte	.LVL74
 6253 1807 4F250000 		.4byte	0x254f
 6254 180b 20180000 		.4byte	0x1820
 6255 180f 27       		.uleb128 0x27
 6256 1810 01       		.uleb128 0x1
 6257 1811 50       		.byte	0x50
 6258 1812 05       		.uleb128 0x5
 6259 1813 03       		.byte	0x3
 6260 1814 00000000 		.4byte	.LC3
 6261 1818 27       		.uleb128 0x27
 6262 1819 01       		.uleb128 0x1
 6263 181a 51       		.byte	0x51
 6264 181b 03       		.uleb128 0x3
 6265 181c 0A       		.byte	0xa
 6266 181d FD01     		.2byte	0x1fd
 6267 181f 00       		.byte	0
ARM GAS  C:\Users\gjl\AppData\Local\Temp\ccNVysBX.s 			page 180


 6268 1820 2C       		.uleb128 0x2c
 6269 1821 F2000000 		.4byte	.LVL80
 6270 1825 4F250000 		.4byte	0x254f
 6271 1829 3E180000 		.4byte	0x183e
 6272 182d 27       		.uleb128 0x27
 6273 182e 01       		.uleb128 0x1
 6274 182f 50       		.byte	0x50
 6275 1830 05       		.uleb128 0x5
 6276 1831 03       		.byte	0x3
 6277 1832 00000000 		.4byte	.LC3
 6278 1836 27       		.uleb128 0x27
 6279 1837 01       		.uleb128 0x1
 6280 1838 51       		.byte	0x51
 6281 1839 03       		.uleb128 0x3
 6282 183a 0A       		.byte	0xa
 6283 183b 0502     		.2byte	0x205
 6284 183d 00       		.byte	0
 6285 183e 26       		.uleb128 0x26
 6286 183f 04010000 		.4byte	.LVL81
 6287 1843 4F250000 		.4byte	0x254f
 6288 1847 27       		.uleb128 0x27
 6289 1848 01       		.uleb128 0x1
 6290 1849 50       		.byte	0x50
 6291 184a 05       		.uleb128 0x5
 6292 184b 03       		.byte	0x3
 6293 184c 00000000 		.4byte	.LC3
 6294 1850 27       		.uleb128 0x27
 6295 1851 01       		.uleb128 0x1
 6296 1852 51       		.byte	0x51
 6297 1853 03       		.uleb128 0x3
 6298 1854 0A       		.byte	0xa
 6299 1855 0602     		.2byte	0x206
 6300 1857 00       		.byte	0
 6301 1858 00       		.byte	0
 6302 1859 26       		.uleb128 0x26
 6303 185a 10000000 		.4byte	.LVL62
 6304 185e 4F250000 		.4byte	0x254f
 6305 1862 27       		.uleb128 0x27
 6306 1863 01       		.uleb128 0x1
 6307 1864 50       		.byte	0x50
 6308 1865 05       		.uleb128 0x5
 6309 1866 03       		.byte	0x3
 6310 1867 00000000 		.4byte	.LC3
 6311 186b 27       		.uleb128 0x27
 6312 186c 01       		.uleb128 0x1
 6313 186d 51       		.byte	0x51
 6314 186e 03       		.uleb128 0x3
 6315 186f 0A       		.byte	0xa
 6316 1870 DE01     		.2byte	0x1de
 6317 1872 00       		.byte	0
 6318 1873 00       		.byte	0
 6319 1874 16       		.uleb128 0x16
 6320 1875 04       		.byte	0x4
 6321 1876 7A180000 		.4byte	0x187a
 6322 187a 06       		.uleb128 0x6
 6323 187b 74110000 		.4byte	0x1174
 6324 187f 2D       		.uleb128 0x2d
ARM GAS  C:\Users\gjl\AppData\Local\Temp\ccNVysBX.s 			page 181


 6325 1880 E5170000 		.4byte	.LASF349
 6326 1884 01       		.byte	0x1
 6327 1885 4B01     		.2byte	0x14b
 6328 1887 10100000 		.4byte	0x1010
 6329 188b 00000000 		.4byte	.LFB219
 6330 188f 7C030000 		.4byte	.LFE219-.LFB219
 6331 1893 01       		.uleb128 0x1
 6332 1894 9C       		.byte	0x9c
 6333 1895 9C1A0000 		.4byte	0x1a9c
 6334 1899 29       		.uleb128 0x29
 6335 189a 7B080000 		.4byte	.LASF233
 6336 189e 01       		.byte	0x1
 6337 189f 4B01     		.2byte	0x14b
 6338 18a1 CA000000 		.4byte	0xca
 6339 18a5 8A050000 		.4byte	.LLST25
 6340 18a9 29       		.uleb128 0x29
 6341 18aa 730C0000 		.4byte	.LASF234
 6342 18ae 01       		.byte	0x1
 6343 18af 4B01     		.2byte	0x14b
 6344 18b1 CA000000 		.4byte	0xca
 6345 18b5 06060000 		.4byte	.LLST26
 6346 18b9 29       		.uleb128 0x29
 6347 18ba 510D0000 		.4byte	.LASF229
 6348 18be 01       		.byte	0x1
 6349 18bf 4B01     		.2byte	0x14b
 6350 18c1 9D100000 		.4byte	0x109d
 6351 18c5 4C060000 		.4byte	.LLST27
 6352 18c9 2A       		.uleb128 0x2a
 6353 18ca A3000000 		.4byte	.LASF348
 6354 18ce 01       		.byte	0x1
 6355 18cf 4D01     		.2byte	0x14d
 6356 18d1 10100000 		.4byte	0x1010
 6357 18d5 86060000 		.4byte	.LLST28
 6358 18d9 2E       		.uleb128 0x2e
 6359 18da 68000000 		.4byte	.LBB33
 6360 18de AE020000 		.4byte	.LBE33-.LBB33
 6361 18e2 2F       		.uleb128 0x2f
 6362 18e3 DD100000 		.4byte	.LASF347
 6363 18e7 01       		.byte	0x1
 6364 18e8 6801     		.2byte	0x168
 6365 18ea 74110000 		.4byte	0x1174
 6366 18ee 03       		.uleb128 0x3
 6367 18ef 91       		.byte	0x91
 6368 18f0 E47E     		.sleb128 -156
 6369 18f2 2A       		.uleb128 0x2a
 6370 18f3 52070000 		.4byte	.LASF350
 6371 18f7 01       		.byte	0x1
 6372 18f8 6901     		.2byte	0x169
 6373 18fa CA000000 		.4byte	0xca
 6374 18fe B0060000 		.4byte	.LLST29
 6375 1902 2A       		.uleb128 0x2a
 6376 1903 EF130000 		.4byte	.LASF351
 6377 1907 01       		.byte	0x1
 6378 1908 6A01     		.2byte	0x16a
 6379 190a 6D110000 		.4byte	0x116d
 6380 190e C3060000 		.4byte	.LLST30
 6381 1912 22       		.uleb128 0x22
ARM GAS  C:\Users\gjl\AppData\Local\Temp\ccNVysBX.s 			page 182


 6382 1913 AA000000 		.4byte	.LBB34
 6383 1917 CE010000 		.4byte	.LBE34-.LBB34
 6384 191b FC190000 		.4byte	0x19fc
 6385 191f 2F       		.uleb128 0x2f
 6386 1920 770B0000 		.4byte	.LASF352
 6387 1924 01       		.byte	0x1
 6388 1925 7801     		.2byte	0x178
 6389 1927 B11A0000 		.4byte	0x1ab1
 6390 192b 03       		.uleb128 0x3
 6391 192c 91       		.byte	0x91
 6392 192d F87E     		.sleb128 -136
 6393 192f 2F       		.uleb128 0x2f
 6394 1930 B7150000 		.4byte	.LASF353
 6395 1934 01       		.byte	0x1
 6396 1935 7901     		.2byte	0x179
 6397 1937 B61A0000 		.4byte	0x1ab6
 6398 193b 03       		.uleb128 0x3
 6399 193c 91       		.byte	0x91
 6400 193d 8C7F     		.sleb128 -116
 6401 193f 22       		.uleb128 0x22
 6402 1940 4E010000 		.4byte	.LBB35
 6403 1944 D4000000 		.4byte	.LBE35-.LBB35
 6404 1948 7D190000 		.4byte	0x197d
 6405 194c 2A       		.uleb128 0x2a
 6406 194d 8B030000 		.4byte	.LASF354
 6407 1951 01       		.byte	0x1
 6408 1952 8C01     		.2byte	0x18c
 6409 1954 F40E0000 		.4byte	0xef4
 6410 1958 E0060000 		.4byte	.LLST31
 6411 195c 2A       		.uleb128 0x2a
 6412 195d 1B070000 		.4byte	.LASF355
 6413 1961 01       		.byte	0x1
 6414 1962 8D01     		.2byte	0x18d
 6415 1964 F40E0000 		.4byte	0xef4
 6416 1968 0D070000 		.4byte	.LLST32
 6417 196c 2F       		.uleb128 0x2f
 6418 196d 651B0000 		.4byte	.LASF356
 6419 1971 01       		.byte	0x1
 6420 1972 9001     		.2byte	0x190
 6421 1974 CB1A0000 		.4byte	0x1acb
 6422 1978 03       		.uleb128 0x3
 6423 1979 91       		.byte	0x91
 6424 197a A07F     		.sleb128 -96
 6425 197c 00       		.byte	0
 6426 197d 2C       		.uleb128 0x2c
 6427 197e F8000000 		.4byte	.LVL92
 6428 1982 5B250000 		.4byte	0x255b
 6429 1986 A6190000 		.4byte	0x19a6
 6430 198a 27       		.uleb128 0x27
 6431 198b 01       		.uleb128 0x1
 6432 198c 50       		.byte	0x50
 6433 198d 17       		.uleb128 0x17
 6434 198e 92       		.byte	0x92
 6435 198f 50       		.uleb128 0x50
 6436 1990 00       		.sleb128 0
 6437 1991 F7       		.byte	0xf7
 6438 1992 2C       		.uleb128 0x2c
ARM GAS  C:\Users\gjl\AppData\Local\Temp\ccNVysBX.s 			page 183


 6439 1993 F7       		.byte	0xf7
 6440 1994 25       		.uleb128 0x25
 6441 1995 92       		.byte	0x92
 6442 1996 51       		.uleb128 0x51
 6443 1997 00       		.sleb128 0
 6444 1998 F7       		.byte	0xf7
 6445 1999 2C       		.uleb128 0x2c
 6446 199a F7       		.byte	0xf7
 6447 199b 25       		.uleb128 0x25
 6448 199c 1B       		.byte	0x1b
 6449 199d F4       		.byte	0xf4
 6450 199e 25       		.uleb128 0x25
 6451 199f 04       		.byte	0x4
 6452 19a0 00007A43 		.4byte	0x437a0000
 6453 19a4 1E       		.byte	0x1e
 6454 19a5 00       		.byte	0
 6455 19a6 2C       		.uleb128 0x2c
 6456 19a7 3E010000 		.4byte	.LVL96
 6457 19ab 5B250000 		.4byte	0x255b
 6458 19af E0190000 		.4byte	0x19e0
 6459 19b3 27       		.uleb128 0x27
 6460 19b4 01       		.uleb128 0x1
 6461 19b5 50       		.byte	0x50
 6462 19b6 28       		.uleb128 0x28
 6463 19b7 74       		.byte	0x74
 6464 19b8 7F       		.sleb128 -1
 6465 19b9 F7       		.byte	0xf7
 6466 19ba 2C       		.uleb128 0x2c
 6467 19bb 76       		.byte	0x76
 6468 19bc 00       		.sleb128 0
 6469 19bd 31       		.byte	0x31
 6470 19be 25       		.byte	0x25
 6471 19bf 92       		.byte	0x92
 6472 19c0 50       		.uleb128 0x50
 6473 19c1 00       		.sleb128 0
 6474 19c2 22       		.byte	0x22
 6475 19c3 F7       		.byte	0xf7
 6476 19c4 2C       		.uleb128 0x2c
 6477 19c5 76       		.byte	0x76
 6478 19c6 00       		.sleb128 0
 6479 19c7 F7       		.byte	0xf7
 6480 19c8 2C       		.uleb128 0x2c
 6481 19c9 1B       		.byte	0x1b
 6482 19ca F7       		.byte	0xf7
 6483 19cb 00       		.uleb128 0
 6484 19cc F7       		.byte	0xf7
 6485 19cd 2C       		.uleb128 0x2c
 6486 19ce 1B       		.byte	0x1b
 6487 19cf F7       		.byte	0xf7
 6488 19d0 00       		.uleb128 0
 6489 19d1 23       		.byte	0x23
 6490 19d2 01       		.uleb128 0x1
 6491 19d3 F7       		.byte	0xf7
 6492 19d4 2C       		.uleb128 0x2c
 6493 19d5 F7       		.byte	0xf7
 6494 19d6 25       		.uleb128 0x25
 6495 19d7 F4       		.byte	0xf4
ARM GAS  C:\Users\gjl\AppData\Local\Temp\ccNVysBX.s 			page 184


 6496 19d8 25       		.uleb128 0x25
 6497 19d9 04       		.byte	0x4
 6498 19da F6259B3C 		.4byte	0x3c9b25f6
 6499 19de 1E       		.byte	0x1e
 6500 19df 00       		.byte	0
 6501 19e0 24       		.uleb128 0x24
 6502 19e1 3A020000 		.4byte	.LVL103
 6503 19e5 67250000 		.4byte	0x2567
 6504 19e9 24       		.uleb128 0x24
 6505 19ea 60020000 		.4byte	.LVL105
 6506 19ee 67250000 		.4byte	0x2567
 6507 19f2 24       		.uleb128 0x24
 6508 19f3 70020000 		.4byte	.LVL107
 6509 19f7 72250000 		.4byte	0x2572
 6510 19fb 00       		.byte	0
 6511 19fc 22       		.uleb128 0x22
 6512 19fd 78020000 		.4byte	.LBB36
 6513 1a01 98000000 		.4byte	.LBE36-.LBB36
 6514 1a05 801A0000 		.4byte	0x1a80
 6515 1a09 2A       		.uleb128 0x2a
 6516 1a0a 15070000 		.4byte	.LASF357
 6517 1a0e 01       		.byte	0x1
 6518 1a0f AD01     		.2byte	0x1ad
 6519 1a11 F40E0000 		.4byte	0xef4
 6520 1a15 37070000 		.4byte	.LLST33
 6521 1a19 2A       		.uleb128 0x2a
 6522 1a1a 490B0000 		.4byte	.LASF358
 6523 1a1e 01       		.byte	0x1
 6524 1a1f AE01     		.2byte	0x1ae
 6525 1a21 F40E0000 		.4byte	0xef4
 6526 1a25 4B070000 		.4byte	.LLST34
 6527 1a29 2A       		.uleb128 0x2a
 6528 1a2a C30B0000 		.4byte	.LASF359
 6529 1a2e 01       		.byte	0x1
 6530 1a2f AF01     		.2byte	0x1af
 6531 1a31 F40E0000 		.4byte	0xef4
 6532 1a35 5F070000 		.4byte	.LLST35
 6533 1a39 2A       		.uleb128 0x2a
 6534 1a3a 32150000 		.4byte	.LASF360
 6535 1a3e 01       		.byte	0x1
 6536 1a3f B001     		.2byte	0x1b0
 6537 1a41 F40E0000 		.4byte	0xef4
 6538 1a45 7E070000 		.4byte	.LLST36
 6539 1a49 2C       		.uleb128 0x2c
 6540 1a4a AC020000 		.4byte	.LVL112
 6541 1a4e 7D250000 		.4byte	0x257d
 6542 1a52 661A0000 		.4byte	0x1a66
 6543 1a56 27       		.uleb128 0x27
 6544 1a57 01       		.uleb128 0x1
 6545 1a58 50       		.byte	0x50
 6546 1a59 0B       		.uleb128 0xb
 6547 1a5a F5       		.byte	0xf5
 6548 1a5b 50       		.uleb128 0x50
 6549 1a5c 25       		.uleb128 0x25
 6550 1a5d F4       		.byte	0xf4
 6551 1a5e 25       		.uleb128 0x25
 6552 1a5f 04       		.byte	0x4
ARM GAS  C:\Users\gjl\AppData\Local\Temp\ccNVysBX.s 			page 185


 6553 1a60 BD378635 		.4byte	0x358637bd
 6554 1a64 1E       		.byte	0x1e
 6555 1a65 00       		.byte	0
 6556 1a66 26       		.uleb128 0x26
 6557 1a67 C0020000 		.4byte	.LVL115
 6558 1a6b 7D250000 		.4byte	0x257d
 6559 1a6f 27       		.uleb128 0x27
 6560 1a70 01       		.uleb128 0x1
 6561 1a71 50       		.byte	0x50
 6562 1a72 0B       		.uleb128 0xb
 6563 1a73 F5       		.byte	0xf5
 6564 1a74 50       		.uleb128 0x50
 6565 1a75 25       		.uleb128 0x25
 6566 1a76 F5       		.byte	0xf5
 6567 1a77 53       		.uleb128 0x53
 6568 1a78 25       		.uleb128 0x25
 6569 1a79 1B       		.byte	0x1b
 6570 1a7a F5       		.byte	0xf5
 6571 1a7b 52       		.uleb128 0x52
 6572 1a7c 25       		.uleb128 0x25
 6573 1a7d 22       		.byte	0x22
 6574 1a7e 00       		.byte	0
 6575 1a7f 00       		.byte	0
 6576 1a80 24       		.uleb128 0x24
 6577 1a81 6C000000 		.4byte	.LVL89
 6578 1a85 C0160000 		.4byte	0x16c0
 6579 1a89 26       		.uleb128 0x26
 6580 1a8a 16030000 		.4byte	.LVL118
 6581 1a8e 15170000 		.4byte	0x1715
 6582 1a92 27       		.uleb128 0x27
 6583 1a93 01       		.uleb128 0x1
 6584 1a94 50       		.byte	0x50
 6585 1a95 03       		.uleb128 0x3
 6586 1a96 91       		.byte	0x91
 6587 1a97 E47E     		.sleb128 -156
 6588 1a99 00       		.byte	0
 6589 1a9a 00       		.byte	0
 6590 1a9b 00       		.byte	0
 6591 1a9c 07       		.uleb128 0x7
 6592 1a9d AC1A0000 		.4byte	0x1aac
 6593 1aa1 AC1A0000 		.4byte	0x1aac
 6594 1aa5 08       		.uleb128 0x8
 6595 1aa6 E0000000 		.4byte	0xe0
 6596 1aaa 04       		.byte	0x4
 6597 1aab 00       		.byte	0
 6598 1aac 06       		.uleb128 0x6
 6599 1aad F40E0000 		.4byte	0xef4
 6600 1ab1 06       		.uleb128 0x6
 6601 1ab2 9C1A0000 		.4byte	0x1a9c
 6602 1ab6 06       		.uleb128 0x6
 6603 1ab7 9C1A0000 		.4byte	0x1a9c
 6604 1abb 07       		.uleb128 0x7
 6605 1abc AC1A0000 		.4byte	0x1aac
 6606 1ac0 CB1A0000 		.4byte	0x1acb
 6607 1ac4 08       		.uleb128 0x8
 6608 1ac5 E0000000 		.4byte	0xe0
 6609 1ac9 0B       		.byte	0xb
ARM GAS  C:\Users\gjl\AppData\Local\Temp\ccNVysBX.s 			page 186


 6610 1aca 00       		.byte	0
 6611 1acb 06       		.uleb128 0x6
 6612 1acc BB1A0000 		.4byte	0x1abb
 6613 1ad0 30       		.uleb128 0x30
 6614 1ad1 0D0C0000 		.4byte	.LASF421
 6615 1ad5 01       		.byte	0x1
 6616 1ad6 1A02     		.2byte	0x21a
 6617 1ad8 00000000 		.4byte	.LFB221
 6618 1adc 64000000 		.4byte	.LFE221-.LFB221
 6619 1ae0 01       		.uleb128 0x1
 6620 1ae1 9C       		.byte	0x9c
 6621 1ae2 211B0000 		.4byte	0x1b21
 6622 1ae6 29       		.uleb128 0x29
 6623 1ae7 DD100000 		.4byte	.LASF347
 6624 1aeb 01       		.byte	0x1
 6625 1aec 1A02     		.2byte	0x21a
 6626 1aee 211B0000 		.4byte	0x1b21
 6627 1af2 91070000 		.4byte	.LLST37
 6628 1af6 2A       		.uleb128 0x2a
 6629 1af7 A1030000 		.4byte	.LASF361
 6630 1afb 01       		.byte	0x1
 6631 1afc 1E02     		.2byte	0x21e
 6632 1afe CA000000 		.4byte	0xca
 6633 1b02 BD070000 		.4byte	.LLST38
 6634 1b06 26       		.uleb128 0x26
 6635 1b07 10000000 		.4byte	.LVL125
 6636 1b0b 4F250000 		.4byte	0x254f
 6637 1b0f 27       		.uleb128 0x27
 6638 1b10 01       		.uleb128 0x1
 6639 1b11 50       		.byte	0x50
 6640 1b12 05       		.uleb128 0x5
 6641 1b13 03       		.byte	0x3
 6642 1b14 00000000 		.4byte	.LC3
 6643 1b18 27       		.uleb128 0x27
 6644 1b19 01       		.uleb128 0x1
 6645 1b1a 51       		.byte	0x51
 6646 1b1b 03       		.uleb128 0x3
 6647 1b1c 0A       		.byte	0xa
 6648 1b1d 1C02     		.2byte	0x21c
 6649 1b1f 00       		.byte	0
 6650 1b20 00       		.byte	0
 6651 1b21 16       		.uleb128 0x16
 6652 1b22 04       		.byte	0x4
 6653 1b23 74110000 		.4byte	0x1174
 6654 1b27 28       		.uleb128 0x28
 6655 1b28 C5020000 		.4byte	.LASF362
 6656 1b2c 01       		.byte	0x1
 6657 1b2d 4502     		.2byte	0x245
 6658 1b2f 10100000 		.4byte	0x1010
 6659 1b33 00000000 		.4byte	.LFB222
 6660 1b37 B4000000 		.4byte	.LFE222-.LFB222
 6661 1b3b 01       		.uleb128 0x1
 6662 1b3c 9C       		.byte	0x9c
 6663 1b3d A21B0000 		.4byte	0x1ba2
 6664 1b41 29       		.uleb128 0x29
 6665 1b42 4B190000 		.4byte	.LASF341
 6666 1b46 01       		.byte	0x1
ARM GAS  C:\Users\gjl\AppData\Local\Temp\ccNVysBX.s 			page 187


 6667 1b47 4502     		.2byte	0x245
 6668 1b49 CA000000 		.4byte	0xca
 6669 1b4d E6070000 		.4byte	.LLST39
 6670 1b51 2F       		.uleb128 0x2f
 6671 1b52 9E140000 		.4byte	.LASF329
 6672 1b56 01       		.byte	0x1
 6673 1b57 4702     		.2byte	0x247
 6674 1b59 10100000 		.4byte	0x1010
 6675 1b5d 01       		.uleb128 0x1
 6676 1b5e 50       		.byte	0x50
 6677 1b5f 2A       		.uleb128 0x2a
 6678 1b60 8A130000 		.4byte	.LASF363
 6679 1b64 01       		.byte	0x1
 6680 1b65 4802     		.2byte	0x248
 6681 1b67 6D110000 		.4byte	0x116d
 6682 1b6b 04080000 		.4byte	.LLST40
 6683 1b6f 31       		.uleb128 0x31
 6684 1b70 54140000 		.4byte	0x1454
 6685 1b74 72000000 		.4byte	.LBB37
 6686 1b78 1C000000 		.4byte	.LBE37-.LBB37
 6687 1b7c 01       		.byte	0x1
 6688 1b7d 6902     		.2byte	0x269
 6689 1b7f 2C       		.uleb128 0x2c
 6690 1b80 1C000000 		.4byte	.LVL136
 6691 1b84 43250000 		.4byte	0x2543
 6692 1b88 921B0000 		.4byte	0x1b92
 6693 1b8c 27       		.uleb128 0x27
 6694 1b8d 01       		.uleb128 0x1
 6695 1b8e 50       		.byte	0x50
 6696 1b8f 01       		.uleb128 0x1
 6697 1b90 31       		.byte	0x31
 6698 1b91 00       		.byte	0
 6699 1b92 26       		.uleb128 0x26
 6700 1b93 5C000000 		.4byte	.LVL138
 6701 1b97 43250000 		.4byte	0x2543
 6702 1b9b 27       		.uleb128 0x27
 6703 1b9c 01       		.uleb128 0x1
 6704 1b9d 50       		.byte	0x50
 6705 1b9e 01       		.uleb128 0x1
 6706 1b9f 31       		.byte	0x31
 6707 1ba0 00       		.byte	0
 6708 1ba1 00       		.byte	0
 6709 1ba2 28       		.uleb128 0x28
 6710 1ba3 2B0C0000 		.4byte	.LASF364
 6711 1ba7 01       		.byte	0x1
 6712 1ba8 3503     		.2byte	0x335
 6713 1baa 10100000 		.4byte	0x1010
 6714 1bae 00000000 		.4byte	.LFB224
 6715 1bb2 C8000000 		.4byte	.LFE224-.LFB224
 6716 1bb6 01       		.uleb128 0x1
 6717 1bb7 9C       		.byte	0x9c
 6718 1bb8 EB1B0000 		.4byte	0x1beb
 6719 1bbc 29       		.uleb128 0x29
 6720 1bbd 7F020000 		.4byte	.LASF321
 6721 1bc1 01       		.byte	0x1
 6722 1bc2 3503     		.2byte	0x335
 6723 1bc4 CA000000 		.4byte	0xca
ARM GAS  C:\Users\gjl\AppData\Local\Temp\ccNVysBX.s 			page 188


 6724 1bc8 3A080000 		.4byte	.LLST41
 6725 1bcc 32       		.uleb128 0x32
 6726 1bcd DD100000 		.4byte	.LASF347
 6727 1bd1 01       		.byte	0x1
 6728 1bd2 3503     		.2byte	0x335
 6729 1bd4 EB1B0000 		.4byte	0x1beb
 6730 1bd8 01       		.uleb128 0x1
 6731 1bd9 51       		.byte	0x51
 6732 1bda 2A       		.uleb128 0x2a
 6733 1bdb A3000000 		.4byte	.LASF348
 6734 1bdf 01       		.byte	0x1
 6735 1be0 3703     		.2byte	0x337
 6736 1be2 10100000 		.4byte	0x1010
 6737 1be6 66080000 		.4byte	.LLST42
 6738 1bea 00       		.byte	0
 6739 1beb 16       		.uleb128 0x16
 6740 1bec 04       		.byte	0x4
 6741 1bed F11B0000 		.4byte	0x1bf1
 6742 1bf1 06       		.uleb128 0x6
 6743 1bf2 15120000 		.4byte	0x1215
 6744 1bf6 2D       		.uleb128 0x2d
 6745 1bf7 900A0000 		.4byte	.LASF365
 6746 1bfb 01       		.byte	0x1
 6747 1bfc C402     		.2byte	0x2c4
 6748 1bfe 10100000 		.4byte	0x1010
 6749 1c02 00000000 		.4byte	.LFB223
 6750 1c06 68010000 		.4byte	.LFE223-.LFB223
 6751 1c0a 01       		.uleb128 0x1
 6752 1c0b 9C       		.byte	0x9c
 6753 1c0c EA1C0000 		.4byte	0x1cea
 6754 1c10 29       		.uleb128 0x29
 6755 1c11 7F020000 		.4byte	.LASF321
 6756 1c15 01       		.byte	0x1
 6757 1c16 C402     		.2byte	0x2c4
 6758 1c18 CA000000 		.4byte	0xca
 6759 1c1c 90080000 		.4byte	.LLST43
 6760 1c20 29       		.uleb128 0x29
 6761 1c21 DD100000 		.4byte	.LASF347
 6762 1c25 01       		.byte	0x1
 6763 1c26 C402     		.2byte	0x2c4
 6764 1c28 EA1C0000 		.4byte	0x1cea
 6765 1c2c 2A090000 		.4byte	.LLST44
 6766 1c30 2A       		.uleb128 0x2a
 6767 1c31 A3000000 		.4byte	.LASF348
 6768 1c35 01       		.byte	0x1
 6769 1c36 C602     		.2byte	0x2c6
 6770 1c38 10100000 		.4byte	0x1010
 6771 1c3c 6C090000 		.4byte	.LLST45
 6772 1c40 2E       		.uleb128 0x2e
 6773 1c41 5C000000 		.4byte	.LBB39
 6774 1c45 DC000000 		.4byte	.LBE39-.LBB39
 6775 1c49 2F       		.uleb128 0x2f
 6776 1c4a 6A0D0000 		.4byte	.LASF366
 6777 1c4e 01       		.byte	0x1
 6778 1c4f E202     		.2byte	0x2e2
 6779 1c51 15120000 		.4byte	0x1215
 6780 1c55 02       		.uleb128 0x2
ARM GAS  C:\Users\gjl\AppData\Local\Temp\ccNVysBX.s 			page 189


 6781 1c56 91       		.byte	0x91
 6782 1c57 50       		.sleb128 -48
 6783 1c58 33       		.uleb128 0x33
 6784 1c59 18000000 		.4byte	.Ldebug_ranges0+0x18
 6785 1c5d D21C0000 		.4byte	0x1cd2
 6786 1c61 2B       		.uleb128 0x2b
 6787 1c62 7000     		.ascii	"p\000"
 6788 1c64 01       		.byte	0x1
 6789 1c65 EF02     		.2byte	0x2ef
 6790 1c67 CA000000 		.4byte	0xca
 6791 1c6b A1090000 		.4byte	.LLST46
 6792 1c6f 2B       		.uleb128 0x2b
 6793 1c70 7100     		.ascii	"q\000"
 6794 1c72 01       		.byte	0x1
 6795 1c73 EF02     		.2byte	0x2ef
 6796 1c75 CA000000 		.4byte	0xca
 6797 1c79 B4090000 		.4byte	.LLST47
 6798 1c7d 2B       		.uleb128 0x2b
 6799 1c7e 6F757400 		.ascii	"out\000"
 6800 1c82 01       		.byte	0x1
 6801 1c83 EF02     		.2byte	0x2ef
 6802 1c85 CA000000 		.4byte	0xca
 6803 1c89 D2090000 		.4byte	.LLST48
 6804 1c8d 2A       		.uleb128 0x2a
 6805 1c8e CD0F0000 		.4byte	.LASF367
 6806 1c92 01       		.byte	0x1
 6807 1c93 F002     		.2byte	0x2f0
 6808 1c95 CA000000 		.4byte	0xca
 6809 1c99 F0090000 		.4byte	.LLST49
 6810 1c9d 2E       		.uleb128 0x2e
 6811 1c9e 88000000 		.4byte	.LBB41
 6812 1ca2 72000000 		.4byte	.LBE41-.LBB41
 6813 1ca6 2A       		.uleb128 0x2a
 6814 1ca7 39150000 		.4byte	.LASF368
 6815 1cab 01       		.byte	0x1
 6816 1cac F902     		.2byte	0x2f9
 6817 1cae CA000000 		.4byte	0xca
 6818 1cb2 240A0000 		.4byte	.LLST50
 6819 1cb6 2E       		.uleb128 0x2e
 6820 1cb7 BA000000 		.4byte	.LBB42
 6821 1cbb 32000000 		.4byte	.LBE42-.LBB42
 6822 1cbf 2A       		.uleb128 0x2a
 6823 1cc0 0A050000 		.4byte	.LASF369
 6824 1cc4 01       		.byte	0x1
 6825 1cc5 0103     		.2byte	0x301
 6826 1cc7 CA000000 		.4byte	0xca
 6827 1ccb 420A0000 		.4byte	.LLST51
 6828 1ccf 00       		.byte	0
 6829 1cd0 00       		.byte	0
 6830 1cd1 00       		.byte	0
 6831 1cd2 26       		.uleb128 0x26
 6832 1cd3 38010000 		.4byte	.LVL179
 6833 1cd7 A21B0000 		.4byte	0x1ba2
 6834 1cdb 27       		.uleb128 0x27
 6835 1cdc 01       		.uleb128 0x1
 6836 1cdd 50       		.byte	0x50
 6837 1cde 02       		.uleb128 0x2
ARM GAS  C:\Users\gjl\AppData\Local\Temp\ccNVysBX.s 			page 190


 6838 1cdf 7A       		.byte	0x7a
 6839 1ce0 00       		.sleb128 0
 6840 1ce1 27       		.uleb128 0x27
 6841 1ce2 01       		.uleb128 0x1
 6842 1ce3 51       		.byte	0x51
 6843 1ce4 02       		.uleb128 0x2
 6844 1ce5 7D       		.byte	0x7d
 6845 1ce6 00       		.sleb128 0
 6846 1ce7 00       		.byte	0
 6847 1ce8 00       		.byte	0
 6848 1ce9 00       		.byte	0
 6849 1cea 16       		.uleb128 0x16
 6850 1ceb 04       		.byte	0x4
 6851 1cec F01C0000 		.4byte	0x1cf0
 6852 1cf0 06       		.uleb128 0x6
 6853 1cf1 BE110000 		.4byte	0x11be
 6854 1cf5 28       		.uleb128 0x28
 6855 1cf6 85000000 		.4byte	.LASF370
 6856 1cfa 01       		.byte	0x1
 6857 1cfb 7503     		.2byte	0x375
 6858 1cfd 10100000 		.4byte	0x1010
 6859 1d01 00000000 		.4byte	.LFB225
 6860 1d05 44000000 		.4byte	.LFE225-.LFB225
 6861 1d09 01       		.uleb128 0x1
 6862 1d0a 9C       		.byte	0x9c
 6863 1d0b 581D0000 		.4byte	0x1d58
 6864 1d0f 29       		.uleb128 0x29
 6865 1d10 7F020000 		.4byte	.LASF321
 6866 1d14 01       		.byte	0x1
 6867 1d15 7503     		.2byte	0x375
 6868 1d17 CA000000 		.4byte	0xca
 6869 1d1b 550A0000 		.4byte	.LLST52
 6870 1d1f 32       		.uleb128 0x32
 6871 1d20 DD100000 		.4byte	.LASF347
 6872 1d24 01       		.byte	0x1
 6873 1d25 7503     		.2byte	0x375
 6874 1d27 581D0000 		.4byte	0x1d58
 6875 1d2b 01       		.uleb128 0x1
 6876 1d2c 51       		.byte	0x51
 6877 1d2d 2A       		.uleb128 0x2a
 6878 1d2e 9E140000 		.4byte	.LASF329
 6879 1d32 01       		.byte	0x1
 6880 1d33 7703     		.2byte	0x377
 6881 1d35 10100000 		.4byte	0x1010
 6882 1d39 9D0A0000 		.4byte	.LLST53
 6883 1d3d 2E       		.uleb128 0x2e
 6884 1d3e 04000000 		.4byte	.LBB44
 6885 1d42 32000000 		.4byte	.LBE44-.LBB44
 6886 1d46 2A       		.uleb128 0x2a
 6887 1d47 A1030000 		.4byte	.LASF361
 6888 1d4b 01       		.byte	0x1
 6889 1d4c 7A03     		.2byte	0x37a
 6890 1d4e CA000000 		.4byte	0xca
 6891 1d52 DC0A0000 		.4byte	.LLST54
 6892 1d56 00       		.byte	0
 6893 1d57 00       		.byte	0
 6894 1d58 16       		.uleb128 0x16
ARM GAS  C:\Users\gjl\AppData\Local\Temp\ccNVysBX.s 			page 191


 6895 1d59 04       		.byte	0x4
 6896 1d5a 15120000 		.4byte	0x1215
 6897 1d5e 28       		.uleb128 0x28
 6898 1d5f 25000000 		.4byte	.LASF371
 6899 1d63 01       		.byte	0x1
 6900 1d64 9A03     		.2byte	0x39a
 6901 1d66 10100000 		.4byte	0x1010
 6902 1d6a 00000000 		.4byte	.LFB226
 6903 1d6e 54000000 		.4byte	.LFE226-.LFB226
 6904 1d72 01       		.uleb128 0x1
 6905 1d73 9C       		.byte	0x9c
 6906 1d74 B81D0000 		.4byte	0x1db8
 6907 1d78 29       		.uleb128 0x29
 6908 1d79 7F020000 		.4byte	.LASF321
 6909 1d7d 01       		.byte	0x1
 6910 1d7e 9A03     		.2byte	0x39a
 6911 1d80 CA000000 		.4byte	0xca
 6912 1d84 EF0A0000 		.4byte	.LLST55
 6913 1d88 29       		.uleb128 0x29
 6914 1d89 4B190000 		.4byte	.LASF341
 6915 1d8d 01       		.byte	0x1
 6916 1d8e 9A03     		.2byte	0x39a
 6917 1d90 CA000000 		.4byte	0xca
 6918 1d94 410B0000 		.4byte	.LLST56
 6919 1d98 2A       		.uleb128 0x2a
 6920 1d99 9E140000 		.4byte	.LASF329
 6921 1d9d 01       		.byte	0x1
 6922 1d9e 9C03     		.2byte	0x39c
 6923 1da0 10100000 		.4byte	0x1010
 6924 1da4 750B0000 		.4byte	.LLST57
 6925 1da8 26       		.uleb128 0x26
 6926 1da9 24000000 		.4byte	.LVL192
 6927 1dad 43250000 		.4byte	0x2543
 6928 1db1 27       		.uleb128 0x27
 6929 1db2 01       		.uleb128 0x1
 6930 1db3 50       		.byte	0x50
 6931 1db4 01       		.uleb128 0x1
 6932 1db5 31       		.byte	0x31
 6933 1db6 00       		.byte	0
 6934 1db7 00       		.byte	0
 6935 1db8 28       		.uleb128 0x28
 6936 1db9 EC030000 		.4byte	.LASF372
 6937 1dbd 01       		.byte	0x1
 6938 1dbe EE03     		.2byte	0x3ee
 6939 1dc0 10100000 		.4byte	0x1010
 6940 1dc4 00000000 		.4byte	.LFB227
 6941 1dc8 80010000 		.4byte	.LFE227-.LFB227
 6942 1dcc 01       		.uleb128 0x1
 6943 1dcd 9C       		.byte	0x9c
 6944 1dce 0F1E0000 		.4byte	0x1e0f
 6945 1dd2 29       		.uleb128 0x29
 6946 1dd3 7D030000 		.4byte	.LASF373
 6947 1dd7 01       		.byte	0x1
 6948 1dd8 EE03     		.2byte	0x3ee
 6949 1dda 6A130000 		.4byte	0x136a
 6950 1dde B30B0000 		.4byte	.LLST58
 6951 1de2 32       		.uleb128 0x32
ARM GAS  C:\Users\gjl\AppData\Local\Temp\ccNVysBX.s 			page 192


 6952 1de3 8D0E0000 		.4byte	.LASF374
 6953 1de7 01       		.byte	0x1
 6954 1de8 EE03     		.2byte	0x3ee
 6955 1dea CA000000 		.4byte	0xca
 6956 1dee 01       		.uleb128 0x1
 6957 1def 51       		.byte	0x51
 6958 1df0 32       		.uleb128 0x32
 6959 1df1 84030000 		.4byte	.LASF375
 6960 1df5 01       		.byte	0x1
 6961 1df6 EE03     		.2byte	0x3ee
 6962 1df8 6A130000 		.4byte	0x136a
 6963 1dfc 01       		.uleb128 0x1
 6964 1dfd 52       		.byte	0x52
 6965 1dfe 2A       		.uleb128 0x2a
 6966 1dff 9E140000 		.4byte	.LASF329
 6967 1e03 01       		.byte	0x1
 6968 1e04 F003     		.2byte	0x3f0
 6969 1e06 10100000 		.4byte	0x1010
 6970 1e0a 6A0C0000 		.4byte	.LLST59
 6971 1e0e 00       		.byte	0
 6972 1e0f 2D       		.uleb128 0x2d
 6973 1e10 AE130000 		.4byte	.LASF376
 6974 1e14 01       		.byte	0x1
 6975 1e15 6704     		.2byte	0x467
 6976 1e17 CA000000 		.4byte	0xca
 6977 1e1b 00000000 		.4byte	.LFB228
 6978 1e1f 84000000 		.4byte	.LFE228-.LFB228
 6979 1e23 01       		.uleb128 0x1
 6980 1e24 9C       		.byte	0x9c
 6981 1e25 591E0000 		.4byte	0x1e59
 6982 1e29 29       		.uleb128 0x29
 6983 1e2a 180F0000 		.4byte	.LASF377
 6984 1e2e 01       		.byte	0x1
 6985 1e2f 6704     		.2byte	0x467
 6986 1e31 6D110000 		.4byte	0x116d
 6987 1e35 E40C0000 		.4byte	.LLST60
 6988 1e39 29       		.uleb128 0x29
 6989 1e3a D6000000 		.4byte	.LASF378
 6990 1e3e 01       		.byte	0x1
 6991 1e3f 6704     		.2byte	0x467
 6992 1e41 CA000000 		.4byte	0xca
 6993 1e45 1E0D0000 		.4byte	.LLST61
 6994 1e49 2F       		.uleb128 0x2f
 6995 1e4a 9E140000 		.4byte	.LASF329
 6996 1e4e 01       		.byte	0x1
 6997 1e4f 6904     		.2byte	0x469
 6998 1e51 591E0000 		.4byte	0x1e59
 6999 1e55 02       		.uleb128 0x2
 7000 1e56 91       		.byte	0x91
 7001 1e57 68       		.sleb128 -24
 7002 1e58 00       		.byte	0
 7003 1e59 05       		.uleb128 0x5
 7004 1e5a D5000000 		.4byte	0xd5
 7005 1e5e 28       		.uleb128 0x28
 7006 1e5f FC0F0000 		.4byte	.LASF379
 7007 1e63 01       		.byte	0x1
 7008 1e64 9C04     		.2byte	0x49c
ARM GAS  C:\Users\gjl\AppData\Local\Temp\ccNVysBX.s 			page 193


 7009 1e66 BF000000 		.4byte	0xbf
 7010 1e6a 00000000 		.4byte	.LFB229
 7011 1e6e 74000000 		.4byte	.LFE229-.LFB229
 7012 1e72 01       		.uleb128 0x1
 7013 1e73 9C       		.byte	0x9c
 7014 1e74 C71E0000 		.4byte	0x1ec7
 7015 1e78 29       		.uleb128 0x29
 7016 1e79 2C020000 		.4byte	.LASF380
 7017 1e7d 01       		.byte	0x1
 7018 1e7e 9C04     		.2byte	0x49c
 7019 1e80 CA000000 		.4byte	0xca
 7020 1e84 580D0000 		.4byte	.LLST62
 7021 1e88 34       		.uleb128 0x34
 7022 1e89 D6090000 		.4byte	.LASF381
 7023 1e8d 01       		.byte	0x1
 7024 1e8e 9F04     		.2byte	0x49f
 7025 1e90 C71E0000 		.4byte	0x1ec7
 7026 1e94 EC01     		.2byte	0x1ec
 7027 1e96 2A       		.uleb128 0x2a
 7028 1e97 4E020000 		.4byte	.LASF382
 7029 1e9b 01       		.byte	0x1
 7030 1e9c A104     		.2byte	0x4a1
 7031 1e9e CA000000 		.4byte	0xca
 7032 1ea2 AB0D0000 		.4byte	.LLST63
 7033 1ea6 2A       		.uleb128 0x2a
 7034 1ea7 050C0000 		.4byte	.LASF383
 7035 1eab 01       		.byte	0x1
 7036 1eac A204     		.2byte	0x4a2
 7037 1eae CA000000 		.4byte	0xca
 7038 1eb2 030E0000 		.4byte	.LLST64
 7039 1eb6 2A       		.uleb128 0x2a
 7040 1eb7 2C120000 		.4byte	.LASF384
 7041 1ebb 01       		.byte	0x1
 7042 1ebc A504     		.2byte	0x4a5
 7043 1ebe CA000000 		.4byte	0xca
 7044 1ec2 390E0000 		.4byte	.LLST65
 7045 1ec6 00       		.byte	0
 7046 1ec7 06       		.uleb128 0x6
 7047 1ec8 CA000000 		.4byte	0xca
 7048 1ecc 28       		.uleb128 0x28
 7049 1ecd A4150000 		.4byte	.LASF385
 7050 1ed1 01       		.byte	0x1
 7051 1ed2 CE04     		.2byte	0x4ce
 7052 1ed4 BF000000 		.4byte	0xbf
 7053 1ed8 00000000 		.4byte	.LFB230
 7054 1edc 88000000 		.4byte	.LFE230-.LFB230
 7055 1ee0 01       		.uleb128 0x1
 7056 1ee1 9C       		.byte	0x9c
 7057 1ee2 511F0000 		.4byte	0x1f51
 7058 1ee6 29       		.uleb128 0x29
 7059 1ee7 1A130000 		.4byte	.LASF386
 7060 1eeb 01       		.byte	0x1
 7061 1eec CE04     		.2byte	0x4ce
 7062 1eee CA000000 		.4byte	0xca
 7063 1ef2 0C0F0000 		.4byte	.LLST66
 7064 1ef6 2A       		.uleb128 0x2a
 7065 1ef7 4E020000 		.4byte	.LASF382
ARM GAS  C:\Users\gjl\AppData\Local\Temp\ccNVysBX.s 			page 194


 7066 1efb 01       		.byte	0x1
 7067 1efc D004     		.2byte	0x4d0
 7068 1efe CA000000 		.4byte	0xca
 7069 1f02 6E0F0000 		.4byte	.LLST67
 7070 1f06 2A       		.uleb128 0x2a
 7071 1f07 050C0000 		.4byte	.LASF383
 7072 1f0b 01       		.byte	0x1
 7073 1f0c D104     		.2byte	0x4d1
 7074 1f0e CA000000 		.4byte	0xca
 7075 1f12 F50F0000 		.4byte	.LLST68
 7076 1f16 2A       		.uleb128 0x2a
 7077 1f17 2C120000 		.4byte	.LASF384
 7078 1f1b 01       		.byte	0x1
 7079 1f1c D404     		.2byte	0x4d4
 7080 1f1e CA000000 		.4byte	0xca
 7081 1f22 20100000 		.4byte	.LLST69
 7082 1f26 31       		.uleb128 0x31
 7083 1f27 61140000 		.4byte	0x1461
 7084 1f2b 10000000 		.4byte	.LBB45
 7085 1f2f 0A000000 		.4byte	.LBE45-.LBB45
 7086 1f33 01       		.byte	0x1
 7087 1f34 D704     		.2byte	0x4d7
 7088 1f36 35       		.uleb128 0x35
 7089 1f37 6E140000 		.4byte	0x146e
 7090 1f3b 56000000 		.4byte	.LBB47
 7091 1f3f 1A000000 		.4byte	.LBE47-.LBB47
 7092 1f43 01       		.byte	0x1
 7093 1f44 E804     		.2byte	0x4e8
 7094 1f46 36       		.uleb128 0x36
 7095 1f47 7B140000 		.4byte	0x147b
 7096 1f4b 0D110000 		.4byte	.LLST70
 7097 1f4f 00       		.byte	0
 7098 1f50 00       		.byte	0
 7099 1f51 28       		.uleb128 0x28
 7100 1f52 12040000 		.4byte	.LASF387
 7101 1f56 01       		.byte	0x1
 7102 1f57 2105     		.2byte	0x521
 7103 1f59 5E0F0000 		.4byte	0xf5e
 7104 1f5d 00000000 		.4byte	.LFB231
 7105 1f61 A4010000 		.4byte	.LFE231-.LFB231
 7106 1f65 01       		.uleb128 0x1
 7107 1f66 9C       		.byte	0x9c
 7108 1f67 CA200000 		.4byte	0x20ca
 7109 1f6b 29       		.uleb128 0x29
 7110 1f6c EF0D0000 		.4byte	.LASF388
 7111 1f70 01       		.byte	0x1
 7112 1f71 2105     		.2byte	0x521
 7113 1f73 DB0F0000 		.4byte	0xfdb
 7114 1f77 2B110000 		.4byte	.LLST71
 7115 1f7b 2F       		.uleb128 0x2f
 7116 1f7c D70E0000 		.4byte	.LASF389
 7117 1f80 01       		.byte	0x1
 7118 1f81 2405     		.2byte	0x524
 7119 1f83 B4000000 		.4byte	0xb4
 7120 1f87 05       		.uleb128 0x5
 7121 1f88 03       		.byte	0x3
 7122 1f89 08000000 		.4byte	changedSourcePaths.11868
ARM GAS  C:\Users\gjl\AppData\Local\Temp\ccNVysBX.s 			page 195


 7123 1f8d 2A       		.uleb128 0x2a
 7124 1f8e 9E140000 		.4byte	.LASF329
 7125 1f92 01       		.byte	0x1
 7126 1f93 2605     		.2byte	0x526
 7127 1f95 5E0F0000 		.4byte	0xf5e
 7128 1f99 A2110000 		.4byte	.LLST72
 7129 1f9d 22       		.uleb128 0x22
 7130 1f9e 20000000 		.4byte	.LBB49
 7131 1fa2 7A000000 		.4byte	.LBE49-.LBB49
 7132 1fa6 E41F0000 		.4byte	0x1fe4
 7133 1faa 2A       		.uleb128 0x2a
 7134 1fab E90F0000 		.4byte	.LASF390
 7135 1faf 01       		.byte	0x1
 7136 1fb0 3405     		.2byte	0x534
 7137 1fb2 CA000000 		.4byte	0xca
 7138 1fb6 E3110000 		.4byte	.LLST73
 7139 1fba 2C       		.uleb128 0x2c
 7140 1fbb 48000000 		.4byte	.LVL263
 7141 1fbf C0160000 		.4byte	0x16c0
 7142 1fc3 CE1F0000 		.4byte	0x1fce
 7143 1fc7 27       		.uleb128 0x27
 7144 1fc8 01       		.uleb128 0x1
 7145 1fc9 50       		.byte	0x50
 7146 1fca 02       		.uleb128 0x2
 7147 1fcb 74       		.byte	0x74
 7148 1fcc 00       		.sleb128 0
 7149 1fcd 00       		.byte	0
 7150 1fce 26       		.uleb128 0x26
 7151 1fcf 54000000 		.4byte	.LVL264
 7152 1fd3 79160000 		.4byte	0x1679
 7153 1fd7 27       		.uleb128 0x27
 7154 1fd8 01       		.uleb128 0x1
 7155 1fd9 50       		.byte	0x50
 7156 1fda 02       		.uleb128 0x2
 7157 1fdb 74       		.byte	0x74
 7158 1fdc 00       		.sleb128 0
 7159 1fdd 27       		.uleb128 0x27
 7160 1fde 01       		.uleb128 0x1
 7161 1fdf 51       		.byte	0x51
 7162 1fe0 01       		.uleb128 0x1
 7163 1fe1 30       		.byte	0x30
 7164 1fe2 00       		.byte	0
 7165 1fe3 00       		.byte	0
 7166 1fe4 33       		.uleb128 0x33
 7167 1fe5 30000000 		.4byte	.Ldebug_ranges0+0x30
 7168 1fe9 22200000 		.4byte	0x2022
 7169 1fed 2A       		.uleb128 0x2a
 7170 1fee BF150000 		.4byte	.LASF391
 7171 1ff2 01       		.byte	0x1
 7172 1ff3 6105     		.2byte	0x561
 7173 1ff5 CA000000 		.4byte	0xca
 7174 1ff9 02120000 		.4byte	.LLST74
 7175 1ffd 35       		.uleb128 0x35
 7176 1ffe 88140000 		.4byte	0x1488
 7177 2002 B4000000 		.4byte	.LBB51
 7178 2006 12000000 		.4byte	.LBE51-.LBB51
 7179 200a 01       		.byte	0x1
ARM GAS  C:\Users\gjl\AppData\Local\Temp\ccNVysBX.s 			page 196


 7180 200b 6305     		.2byte	0x563
 7181 200d 2E       		.uleb128 0x2e
 7182 200e B4000000 		.4byte	.LBB52
 7183 2012 12000000 		.4byte	.LBE52-.LBB52
 7184 2016 37       		.uleb128 0x37
 7185 2017 99140000 		.4byte	0x1499
 7186 201b 20120000 		.4byte	.LLST75
 7187 201f 00       		.byte	0
 7188 2020 00       		.byte	0
 7189 2021 00       		.byte	0
 7190 2022 33       		.uleb128 0x33
 7191 2023 58000000 		.4byte	.Ldebug_ranges0+0x58
 7192 2027 AF200000 		.4byte	0x20af
 7193 202b 2A       		.uleb128 0x2a
 7194 202c E90F0000 		.4byte	.LASF390
 7195 2030 01       		.byte	0x1
 7196 2031 6D05     		.2byte	0x56d
 7197 2033 CA000000 		.4byte	0xca
 7198 2037 33120000 		.4byte	.LLST76
 7199 203b 21       		.uleb128 0x21
 7200 203c 78000000 		.4byte	.Ldebug_ranges0+0x78
 7201 2040 2A       		.uleb128 0x2a
 7202 2041 9A160000 		.4byte	.LASF392
 7203 2045 01       		.byte	0x1
 7204 2046 7C05     		.2byte	0x57c
 7205 2048 CA000000 		.4byte	0xca
 7206 204c 51120000 		.4byte	.LLST77
 7207 2050 31       		.uleb128 0x31
 7208 2051 A6140000 		.4byte	0x14a6
 7209 2055 0E010000 		.4byte	.LBB57
 7210 2059 0C000000 		.4byte	.LBE57-.LBB57
 7211 205d 01       		.byte	0x1
 7212 205e 7F05     		.2byte	0x57f
 7213 2060 38       		.uleb128 0x38
 7214 2061 B3140000 		.4byte	0x14b3
 7215 2065 1C010000 		.4byte	.LBB59
 7216 2069 1E000000 		.4byte	.LBE59-.LBB59
 7217 206d 01       		.byte	0x1
 7218 206e 7F05     		.2byte	0x57f
 7219 2070 98200000 		.4byte	0x2098
 7220 2074 36       		.uleb128 0x36
 7221 2075 C4140000 		.4byte	0x14c4
 7222 2079 64120000 		.4byte	.LLST78
 7223 207d 26       		.uleb128 0x26
 7224 207e 2A010000 		.4byte	.LVL278
 7225 2082 4F250000 		.4byte	0x254f
 7226 2086 27       		.uleb128 0x27
 7227 2087 01       		.uleb128 0x1
 7228 2088 50       		.byte	0x50
 7229 2089 05       		.uleb128 0x5
 7230 208a 03       		.byte	0x3
 7231 208b 44000000 		.4byte	.LC4
 7232 208f 27       		.uleb128 0x27
 7233 2090 01       		.uleb128 0x1
 7234 2091 51       		.byte	0x51
 7235 2092 03       		.uleb128 0x3
 7236 2093 0A       		.byte	0xa
ARM GAS  C:\Users\gjl\AppData\Local\Temp\ccNVysBX.s 			page 197


 7237 2094 9603     		.2byte	0x396
 7238 2096 00       		.byte	0
 7239 2097 00       		.byte	0
 7240 2098 26       		.uleb128 0x26
 7241 2099 08010000 		.4byte	.LVL275
 7242 209d 79160000 		.4byte	0x1679
 7243 20a1 27       		.uleb128 0x27
 7244 20a2 01       		.uleb128 0x1
 7245 20a3 50       		.byte	0x50
 7246 20a4 02       		.uleb128 0x2
 7247 20a5 74       		.byte	0x74
 7248 20a6 00       		.sleb128 0
 7249 20a7 27       		.uleb128 0x27
 7250 20a8 01       		.uleb128 0x1
 7251 20a9 51       		.byte	0x51
 7252 20aa 01       		.uleb128 0x1
 7253 20ab 32       		.byte	0x32
 7254 20ac 00       		.byte	0
 7255 20ad 00       		.byte	0
 7256 20ae 00       		.byte	0
 7257 20af 26       		.uleb128 0x26
 7258 20b0 10000000 		.4byte	.LVL259
 7259 20b4 4F250000 		.4byte	0x254f
 7260 20b8 27       		.uleb128 0x27
 7261 20b9 01       		.uleb128 0x1
 7262 20ba 50       		.byte	0x50
 7263 20bb 05       		.uleb128 0x5
 7264 20bc 03       		.byte	0x3
 7265 20bd 00000000 		.4byte	.LC3
 7266 20c1 27       		.uleb128 0x27
 7267 20c2 01       		.uleb128 0x1
 7268 20c3 51       		.byte	0x51
 7269 20c4 03       		.uleb128 0x3
 7270 20c5 0A       		.byte	0xa
 7271 20c6 2805     		.2byte	0x528
 7272 20c8 00       		.byte	0
 7273 20c9 00       		.byte	0
 7274 20ca 1B       		.uleb128 0x1b
 7275 20cb D9020000 		.4byte	.LASF393
 7276 20cf 02       		.byte	0x2
 7277 20d0 5307     		.2byte	0x753
 7278 20d2 CA000000 		.4byte	0xca
 7279 20d6 03       		.byte	0x3
 7280 20d7 00210000 		.4byte	0x2100
 7281 20db 1A       		.uleb128 0x1a
 7282 20dc 6B0B0000 		.4byte	.LASF394
 7283 20e0 02       		.byte	0x2
 7284 20e1 5307     		.2byte	0x753
 7285 20e3 48140000 		.4byte	0x1448
 7286 20e7 1A       		.uleb128 0x1a
 7287 20e8 80010000 		.4byte	.LASF395
 7288 20ec 02       		.byte	0x2
 7289 20ed 5307     		.2byte	0x753
 7290 20ef CA000000 		.4byte	0xca
 7291 20f3 1C       		.uleb128 0x1c
 7292 20f4 3D0D0000 		.4byte	.LASF344
 7293 20f8 02       		.byte	0x2
ARM GAS  C:\Users\gjl\AppData\Local\Temp\ccNVysBX.s 			page 198


 7294 20f9 5507     		.2byte	0x755
 7295 20fb CA000000 		.4byte	0xca
 7296 20ff 00       		.byte	0
 7297 2100 19       		.uleb128 0x19
 7298 2101 57000000 		.4byte	.LASF397
 7299 2105 02       		.byte	0x2
 7300 2106 B507     		.2byte	0x7b5
 7301 2108 03       		.byte	0x3
 7302 2109 3E210000 		.4byte	0x213e
 7303 210d 1A       		.uleb128 0x1a
 7304 210e 6B0B0000 		.4byte	.LASF394
 7305 2112 02       		.byte	0x2
 7306 2113 B507     		.2byte	0x7b5
 7307 2115 48140000 		.4byte	0x1448
 7308 2119 1A       		.uleb128 0x1a
 7309 211a 80010000 		.4byte	.LASF395
 7310 211e 02       		.byte	0x2
 7311 211f B507     		.2byte	0x7b5
 7312 2121 CA000000 		.4byte	0xca
 7313 2125 1A       		.uleb128 0x1a
 7314 2126 F0090000 		.4byte	.LASF398
 7315 212a 02       		.byte	0x2
 7316 212b B607     		.2byte	0x7b6
 7317 212d 3E210000 		.4byte	0x213e
 7318 2131 1A       		.uleb128 0x1a
 7319 2132 90030000 		.4byte	.LASF399
 7320 2136 02       		.byte	0x2
 7321 2137 B607     		.2byte	0x7b6
 7322 2139 3E210000 		.4byte	0x213e
 7323 213d 00       		.byte	0
 7324 213e 16       		.uleb128 0x16
 7325 213f 04       		.byte	0x4
 7326 2140 CA000000 		.4byte	0xca
 7327 2144 2D       		.uleb128 0x2d
 7328 2145 3C1A0000 		.4byte	.LASF400
 7329 2149 01       		.byte	0x1
 7330 214a 2106     		.2byte	0x621
 7331 214c CA000000 		.4byte	0xca
 7332 2150 00000000 		.4byte	.LFB232
 7333 2154 6C020000 		.4byte	.LFE232-.LFB232
 7334 2158 01       		.uleb128 0x1
 7335 2159 9C       		.byte	0x9c
 7336 215a F1240000 		.4byte	0x24f1
 7337 215e 29       		.uleb128 0x29
 7338 215f 6B0B0000 		.4byte	.LASF394
 7339 2163 01       		.byte	0x1
 7340 2164 2106     		.2byte	0x621
 7341 2166 48140000 		.4byte	0x1448
 7342 216a 77120000 		.4byte	.LLST79
 7343 216e 29       		.uleb128 0x29
 7344 216f 80010000 		.4byte	.LASF395
 7345 2173 01       		.byte	0x1
 7346 2174 2106     		.2byte	0x621
 7347 2176 CA000000 		.4byte	0xca
 7348 217a 98120000 		.4byte	.LLST80
 7349 217e 2A       		.uleb128 0x2a
 7350 217f 9E140000 		.4byte	.LASF329
ARM GAS  C:\Users\gjl\AppData\Local\Temp\ccNVysBX.s 			page 199


 7351 2183 01       		.byte	0x1
 7352 2184 2306     		.2byte	0x623
 7353 2186 CA000000 		.4byte	0xca
 7354 218a 44130000 		.4byte	.LLST81
 7355 218e 39       		.uleb128 0x39
 7356 218f 14       		.byte	0x14
 7357 2190 01       		.byte	0x1
 7358 2191 2B06     		.2byte	0x62b
 7359 2193 B0210000 		.4byte	0x21b0
 7360 2197 3A       		.uleb128 0x3a
 7361 2198 666C6C00 		.ascii	"fll\000"
 7362 219c 01       		.byte	0x1
 7363 219d 2D06     		.2byte	0x62d
 7364 219f 74110000 		.4byte	0x1174
 7365 21a3 3A       		.uleb128 0x3a
 7366 21a4 706C6C00 		.ascii	"pll\000"
 7367 21a8 01       		.byte	0x1
 7368 21a9 3306     		.2byte	0x633
 7369 21ab B0210000 		.4byte	0x21b0
 7370 21af 00       		.byte	0
 7371 21b0 13       		.uleb128 0x13
 7372 21b1 03       		.byte	0x3
 7373 21b2 01       		.byte	0x1
 7374 21b3 2E06     		.2byte	0x62e
 7375 21b5 E1210000 		.4byte	0x21e1
 7376 21b9 14       		.uleb128 0x14
 7377 21ba 55190000 		.4byte	.LASF237
 7378 21be 01       		.byte	0x1
 7379 21bf 3006     		.2byte	0x630
 7380 21c1 A9000000 		.4byte	0xa9
 7381 21c5 00       		.byte	0
 7382 21c6 14       		.uleb128 0x14
 7383 21c7 7B170000 		.4byte	.LASF238
 7384 21cb 01       		.byte	0x1
 7385 21cc 3106     		.2byte	0x631
 7386 21ce A9000000 		.4byte	0xa9
 7387 21d2 01       		.byte	0x1
 7388 21d3 14       		.uleb128 0x14
 7389 21d4 99080000 		.4byte	.LASF239
 7390 21d8 01       		.byte	0x1
 7391 21d9 3206     		.2byte	0x632
 7392 21db A9000000 		.4byte	0xa9
 7393 21df 02       		.byte	0x2
 7394 21e0 00       		.byte	0
 7395 21e1 2F       		.uleb128 0x2f
 7396 21e2 E90F0000 		.4byte	.LASF390
 7397 21e6 01       		.byte	0x1
 7398 21e7 3406     		.2byte	0x634
 7399 21e9 8E210000 		.4byte	0x218e
 7400 21ed 02       		.uleb128 0x2
 7401 21ee 91       		.byte	0x91
 7402 21ef 54       		.sleb128 -44
 7403 21f0 2A       		.uleb128 0x2a
 7404 21f1 B7020000 		.4byte	.LASF190
 7405 21f5 01       		.byte	0x1
 7406 21f6 3706     		.2byte	0x637
 7407 21f8 9D100000 		.4byte	0x109d
ARM GAS  C:\Users\gjl\AppData\Local\Temp\ccNVysBX.s 			page 200


 7408 21fc 90130000 		.4byte	.LLST82
 7409 2200 2A       		.uleb128 0x2a
 7410 2201 6C0C0000 		.4byte	.LASF401
 7411 2205 01       		.byte	0x1
 7412 2206 3806     		.2byte	0x638
 7413 2208 6D110000 		.4byte	0x116d
 7414 220c E8130000 		.4byte	.LLST83
 7415 2210 2A       		.uleb128 0x2a
 7416 2211 4C130000 		.4byte	.LASF343
 7417 2215 01       		.byte	0x1
 7418 2216 3906     		.2byte	0x639
 7419 2218 6B100000 		.4byte	0x106b
 7420 221c 40140000 		.4byte	.LLST84
 7421 2220 2A       		.uleb128 0x2a
 7422 2221 2E040000 		.4byte	.LASF402
 7423 2225 01       		.byte	0x1
 7424 2226 3A06     		.2byte	0x63a
 7425 2228 CA000000 		.4byte	0xca
 7426 222c 74140000 		.4byte	.LLST85
 7427 2230 1C       		.uleb128 0x1c
 7428 2231 DE0A0000 		.4byte	.LASF403
 7429 2235 01       		.byte	0x1
 7430 2236 3B06     		.2byte	0x63b
 7431 2238 E4130000 		.4byte	0x13e4
 7432 223c 2A       		.uleb128 0x2a
 7433 223d C0120000 		.4byte	.LASF404
 7434 2241 01       		.byte	0x1
 7435 2242 3C06     		.2byte	0x63c
 7436 2244 CA000000 		.4byte	0xca
 7437 2248 CA140000 		.4byte	.LLST86
 7438 224c 2A       		.uleb128 0x2a
 7439 224d 9B1A0000 		.4byte	.LASF405
 7440 2251 01       		.byte	0x1
 7441 2252 3D06     		.2byte	0x63d
 7442 2254 CA000000 		.4byte	0xca
 7443 2258 2D150000 		.4byte	.LLST87
 7444 225c 2A       		.uleb128 0x2a
 7445 225d B8040000 		.4byte	.LASF406
 7446 2261 01       		.byte	0x1
 7447 2262 3E06     		.2byte	0x63e
 7448 2264 CA000000 		.4byte	0xca
 7449 2268 40150000 		.4byte	.LLST88
 7450 226c 13       		.uleb128 0x13
 7451 226d 08       		.byte	0x8
 7452 226e 01       		.byte	0x1
 7453 226f 4106     		.2byte	0x641
 7454 2271 90220000 		.4byte	0x2290
 7455 2275 14       		.uleb128 0x14
 7456 2276 26010000 		.4byte	.LASF407
 7457 227a 01       		.byte	0x1
 7458 227b 4306     		.2byte	0x643
 7459 227d CA000000 		.4byte	0xca
 7460 2281 00       		.byte	0
 7461 2282 14       		.uleb128 0x14
 7462 2283 CD010000 		.4byte	.LASF408
 7463 2287 01       		.byte	0x1
 7464 2288 4406     		.2byte	0x644
ARM GAS  C:\Users\gjl\AppData\Local\Temp\ccNVysBX.s 			page 201


 7465 228a CA000000 		.4byte	0xca
 7466 228e 04       		.byte	0x4
 7467 228f 00       		.byte	0
 7468 2290 2F       		.uleb128 0x2f
 7469 2291 61040000 		.4byte	.LASF409
 7470 2295 01       		.byte	0x1
 7471 2296 4506     		.2byte	0x645
 7472 2298 6C220000 		.4byte	0x226c
 7473 229c 02       		.uleb128 0x2
 7474 229d 91       		.byte	0x91
 7475 229e 4C       		.sleb128 -52
 7476 229f 38       		.uleb128 0x38
 7477 22a0 D1140000 		.4byte	0x14d1
 7478 22a4 40000000 		.4byte	.LBB80
 7479 22a8 06000000 		.4byte	.LBE80-.LBB80
 7480 22ac 01       		.byte	0x1
 7481 22ad 4806     		.2byte	0x648
 7482 22af BD220000 		.4byte	0x22bd
 7483 22b3 36       		.uleb128 0x36
 7484 22b4 E2140000 		.4byte	0x14e2
 7485 22b8 53150000 		.4byte	.LLST89
 7486 22bc 00       		.byte	0
 7487 22bd 31       		.uleb128 0x31
 7488 22be A6140000 		.4byte	0x14a6
 7489 22c2 5E000000 		.4byte	.LBB82
 7490 22c6 0C000000 		.4byte	.LBE82-.LBB82
 7491 22ca 01       		.byte	0x1
 7492 22cb 4F06     		.2byte	0x64f
 7493 22cd 22       		.uleb128 0x22
 7494 22ce 70000000 		.4byte	.LBB84
 7495 22d2 4A000000 		.4byte	.LBE84-.LBB84
 7496 22d6 4C230000 		.4byte	0x234c
 7497 22da 2F       		.uleb128 0x2f
 7498 22db DD100000 		.4byte	.LASF347
 7499 22df 01       		.byte	0x1
 7500 22e0 5306     		.2byte	0x653
 7501 22e2 15120000 		.4byte	0x1215
 7502 22e6 02       		.uleb128 0x2
 7503 22e7 91       		.byte	0x91
 7504 22e8 44       		.sleb128 -60
 7505 22e9 38       		.uleb128 0x38
 7506 22ea B3140000 		.4byte	0x14b3
 7507 22ee 9C000000 		.4byte	.LBB85
 7508 22f2 1E000000 		.4byte	.LBE85-.LBB85
 7509 22f6 01       		.byte	0x1
 7510 22f7 5A06     		.2byte	0x65a
 7511 22f9 21230000 		.4byte	0x2321
 7512 22fd 36       		.uleb128 0x36
 7513 22fe C4140000 		.4byte	0x14c4
 7514 2302 67150000 		.4byte	.LLST90
 7515 2306 26       		.uleb128 0x26
 7516 2307 AA000000 		.4byte	.LVL307
 7517 230b 4F250000 		.4byte	0x254f
 7518 230f 27       		.uleb128 0x27
 7519 2310 01       		.uleb128 0x1
 7520 2311 50       		.byte	0x50
 7521 2312 05       		.uleb128 0x5
ARM GAS  C:\Users\gjl\AppData\Local\Temp\ccNVysBX.s 			page 202


 7522 2313 03       		.byte	0x3
 7523 2314 44000000 		.4byte	.LC4
 7524 2318 27       		.uleb128 0x27
 7525 2319 01       		.uleb128 0x1
 7526 231a 51       		.byte	0x51
 7527 231b 03       		.uleb128 0x3
 7528 231c 0A       		.byte	0xa
 7529 231d 9603     		.2byte	0x396
 7530 231f 00       		.byte	0
 7531 2320 00       		.byte	0
 7532 2321 2C       		.uleb128 0x2c
 7533 2322 78000000 		.4byte	.LVL303
 7534 2326 F51C0000 		.4byte	0x1cf5
 7535 232a 3B230000 		.4byte	0x233b
 7536 232e 27       		.uleb128 0x27
 7537 232f 01       		.uleb128 0x1
 7538 2330 50       		.byte	0x50
 7539 2331 02       		.uleb128 0x2
 7540 2332 75       		.byte	0x75
 7541 2333 00       		.sleb128 0
 7542 2334 27       		.uleb128 0x27
 7543 2335 01       		.uleb128 0x1
 7544 2336 51       		.byte	0x51
 7545 2337 02       		.uleb128 0x2
 7546 2338 91       		.byte	0x91
 7547 2339 44       		.sleb128 -60
 7548 233a 00       		.byte	0
 7549 233b 26       		.uleb128 0x26
 7550 233c 9A000000 		.4byte	.LVL305
 7551 2340 C0160000 		.4byte	0x16c0
 7552 2344 27       		.uleb128 0x27
 7553 2345 01       		.uleb128 0x1
 7554 2346 50       		.byte	0x50
 7555 2347 02       		.uleb128 0x2
 7556 2348 75       		.byte	0x75
 7557 2349 00       		.sleb128 0
 7558 234a 00       		.byte	0
 7559 234b 00       		.byte	0
 7560 234c 38       		.uleb128 0x38
 7561 234d FC140000 		.4byte	0x14fc
 7562 2351 54010000 		.4byte	.LBB87
 7563 2355 0A000000 		.4byte	.LBE87-.LBB87
 7564 2359 01       		.byte	0x1
 7565 235a A506     		.2byte	0x6a5
 7566 235c 6A230000 		.4byte	0x236a
 7567 2360 36       		.uleb128 0x36
 7568 2361 0D150000 		.4byte	0x150d
 7569 2365 7A150000 		.4byte	.LLST91
 7570 2369 00       		.byte	0
 7571 236a 31       		.uleb128 0x31
 7572 236b EF140000 		.4byte	0x14ef
 7573 236f 64010000 		.4byte	.LBB89
 7574 2373 04000000 		.4byte	.LBE89-.LBB89
 7575 2377 01       		.byte	0x1
 7576 2378 A806     		.2byte	0x6a8
 7577 237a 38       		.uleb128 0x38
 7578 237b CA200000 		.4byte	0x20ca
ARM GAS  C:\Users\gjl\AppData\Local\Temp\ccNVysBX.s 			page 203


 7579 237f 78010000 		.4byte	.LBB91
 7580 2383 4A000000 		.4byte	.LBE91-.LBB91
 7581 2387 01       		.byte	0x1
 7582 2388 AF06     		.2byte	0x6af
 7583 238a 0A240000 		.4byte	0x240a
 7584 238e 36       		.uleb128 0x36
 7585 238f E7200000 		.4byte	0x20e7
 7586 2393 8E150000 		.4byte	.LLST92
 7587 2397 36       		.uleb128 0x36
 7588 2398 DB200000 		.4byte	0x20db
 7589 239c C8150000 		.4byte	.LLST93
 7590 23a0 2E       		.uleb128 0x2e
 7591 23a1 78010000 		.4byte	.LBB92
 7592 23a5 4A000000 		.4byte	.LBE92-.LBB92
 7593 23a9 37       		.uleb128 0x37
 7594 23aa F3200000 		.4byte	0x20f3
 7595 23ae DB150000 		.4byte	.LLST94
 7596 23b2 2C       		.uleb128 0x2c
 7597 23b3 86010000 		.4byte	.LVL339
 7598 23b7 4F250000 		.4byte	0x254f
 7599 23bb D0230000 		.4byte	0x23d0
 7600 23bf 27       		.uleb128 0x27
 7601 23c0 01       		.uleb128 0x1
 7602 23c1 50       		.byte	0x50
 7603 23c2 05       		.uleb128 0x5
 7604 23c3 03       		.byte	0x3
 7605 23c4 44000000 		.4byte	.LC4
 7606 23c8 27       		.uleb128 0x27
 7607 23c9 01       		.uleb128 0x1
 7608 23ca 51       		.byte	0x51
 7609 23cb 03       		.uleb128 0x3
 7610 23cc 0A       		.byte	0xa
 7611 23cd 5707     		.2byte	0x757
 7612 23cf 00       		.byte	0
 7613 23d0 2C       		.uleb128 0x2c
 7614 23d1 96010000 		.4byte	.LVL340
 7615 23d5 4F250000 		.4byte	0x254f
 7616 23d9 EE230000 		.4byte	0x23ee
 7617 23dd 27       		.uleb128 0x27
 7618 23de 01       		.uleb128 0x1
 7619 23df 50       		.byte	0x50
 7620 23e0 05       		.uleb128 0x5
 7621 23e1 03       		.byte	0x3
 7622 23e2 44000000 		.4byte	.LC4
 7623 23e6 27       		.uleb128 0x27
 7624 23e7 01       		.uleb128 0x1
 7625 23e8 51       		.byte	0x51
 7626 23e9 03       		.uleb128 0x3
 7627 23ea 0A       		.byte	0xa
 7628 23eb 5B07     		.2byte	0x75b
 7629 23ed 00       		.byte	0
 7630 23ee 26       		.uleb128 0x26
 7631 23ef B4010000 		.4byte	.LVL344
 7632 23f3 4F250000 		.4byte	0x254f
 7633 23f7 27       		.uleb128 0x27
 7634 23f8 01       		.uleb128 0x1
 7635 23f9 50       		.byte	0x50
ARM GAS  C:\Users\gjl\AppData\Local\Temp\ccNVysBX.s 			page 204


 7636 23fa 05       		.uleb128 0x5
 7637 23fb 03       		.byte	0x3
 7638 23fc 44000000 		.4byte	.LC4
 7639 2400 27       		.uleb128 0x27
 7640 2401 01       		.uleb128 0x1
 7641 2402 51       		.byte	0x51
 7642 2403 03       		.uleb128 0x3
 7643 2404 0A       		.byte	0xa
 7644 2405 6007     		.2byte	0x760
 7645 2407 00       		.byte	0
 7646 2408 00       		.byte	0
 7647 2409 00       		.byte	0
 7648 240a 38       		.uleb128 0x38
 7649 240b 00210000 		.4byte	0x2100
 7650 240f C6010000 		.4byte	.LBB93
 7651 2413 64000000 		.4byte	.LBE93-.LBB93
 7652 2417 01       		.byte	0x1
 7653 2418 B406     		.2byte	0x6b4
 7654 241a 99240000 		.4byte	0x2499
 7655 241e 36       		.uleb128 0x36
 7656 241f 31210000 		.4byte	0x2131
 7657 2423 EE150000 		.4byte	.LLST95
 7658 2427 36       		.uleb128 0x36
 7659 2428 25210000 		.4byte	0x2125
 7660 242c 03160000 		.4byte	.LLST96
 7661 2430 36       		.uleb128 0x36
 7662 2431 19210000 		.4byte	0x2119
 7663 2435 18160000 		.4byte	.LLST97
 7664 2439 36       		.uleb128 0x36
 7665 243a 0D210000 		.4byte	0x210d
 7666 243e 52160000 		.4byte	.LLST98
 7667 2442 2C       		.uleb128 0x2c
 7668 2443 D8010000 		.4byte	.LVL348
 7669 2447 4F250000 		.4byte	0x254f
 7670 244b 60240000 		.4byte	0x2460
 7671 244f 27       		.uleb128 0x27
 7672 2450 01       		.uleb128 0x1
 7673 2451 50       		.byte	0x50
 7674 2452 05       		.uleb128 0x5
 7675 2453 03       		.byte	0x3
 7676 2454 44000000 		.4byte	.LC4
 7677 2458 27       		.uleb128 0x27
 7678 2459 01       		.uleb128 0x1
 7679 245a 51       		.byte	0x51
 7680 245b 03       		.uleb128 0x3
 7681 245c 0A       		.byte	0xa
 7682 245d B907     		.2byte	0x7b9
 7683 245f 00       		.byte	0
 7684 2460 2C       		.uleb128 0x2c
 7685 2461 EA010000 		.4byte	.LVL349
 7686 2465 4F250000 		.4byte	0x254f
 7687 2469 7E240000 		.4byte	0x247e
 7688 246d 27       		.uleb128 0x27
 7689 246e 01       		.uleb128 0x1
 7690 246f 50       		.byte	0x50
 7691 2470 05       		.uleb128 0x5
 7692 2471 03       		.byte	0x3
ARM GAS  C:\Users\gjl\AppData\Local\Temp\ccNVysBX.s 			page 205


 7693 2472 44000000 		.4byte	.LC4
 7694 2476 27       		.uleb128 0x27
 7695 2477 01       		.uleb128 0x1
 7696 2478 51       		.byte	0x51
 7697 2479 03       		.uleb128 0x3
 7698 247a 0A       		.byte	0xa
 7699 247b BD07     		.2byte	0x7bd
 7700 247d 00       		.byte	0
 7701 247e 26       		.uleb128 0x26
 7702 247f 12020000 		.4byte	.LVL352
 7703 2483 4F250000 		.4byte	0x254f
 7704 2487 27       		.uleb128 0x27
 7705 2488 01       		.uleb128 0x1
 7706 2489 50       		.byte	0x50
 7707 248a 05       		.uleb128 0x5
 7708 248b 03       		.byte	0x3
 7709 248c 44000000 		.4byte	.LC4
 7710 2490 27       		.uleb128 0x27
 7711 2491 01       		.uleb128 0x1
 7712 2492 51       		.byte	0x51
 7713 2493 03       		.uleb128 0x3
 7714 2494 0A       		.byte	0xa
 7715 2495 C307     		.2byte	0x7c3
 7716 2497 00       		.byte	0
 7717 2498 00       		.byte	0
 7718 2499 2C       		.uleb128 0x2c
 7719 249a 30000000 		.4byte	.LVL293
 7720 249e 4F250000 		.4byte	0x254f
 7721 24a2 B7240000 		.4byte	0x24b7
 7722 24a6 27       		.uleb128 0x27
 7723 24a7 01       		.uleb128 0x1
 7724 24a8 50       		.byte	0x50
 7725 24a9 05       		.uleb128 0x5
 7726 24aa 03       		.byte	0x3
 7727 24ab 00000000 		.4byte	.LC3
 7728 24af 27       		.uleb128 0x27
 7729 24b0 01       		.uleb128 0x1
 7730 24b1 51       		.byte	0x51
 7731 24b2 03       		.uleb128 0x3
 7732 24b3 0A       		.byte	0xa
 7733 24b4 2806     		.2byte	0x628
 7734 24b6 00       		.byte	0
 7735 24b7 2C       		.uleb128 0x2c
 7736 24b8 52000000 		.4byte	.LVL297
 7737 24bc D01A0000 		.4byte	0x1ad0
 7738 24c0 CB240000 		.4byte	0x24cb
 7739 24c4 27       		.uleb128 0x27
 7740 24c5 01       		.uleb128 0x1
 7741 24c6 50       		.byte	0x50
 7742 24c7 02       		.uleb128 0x2
 7743 24c8 91       		.byte	0x91
 7744 24c9 54       		.sleb128 -44
 7745 24ca 00       		.byte	0
 7746 24cb 2C       		.uleb128 0x2c
 7747 24cc 58000000 		.4byte	.LVL298
 7748 24d0 C0160000 		.4byte	0x16c0
 7749 24d4 E0240000 		.4byte	0x24e0
ARM GAS  C:\Users\gjl\AppData\Local\Temp\ccNVysBX.s 			page 206


 7750 24d8 27       		.uleb128 0x27
 7751 24d9 01       		.uleb128 0x1
 7752 24da 50       		.byte	0x50
 7753 24db 03       		.uleb128 0x3
 7754 24dc 91       		.byte	0x91
 7755 24dd 4C       		.sleb128 -52
 7756 24de 06       		.byte	0x6
 7757 24df 00       		.byte	0
 7758 24e0 26       		.uleb128 0x26
 7759 24e1 C2000000 		.4byte	.LVL310
 7760 24e5 C0160000 		.4byte	0x16c0
 7761 24e9 27       		.uleb128 0x27
 7762 24ea 01       		.uleb128 0x1
 7763 24eb 50       		.byte	0x50
 7764 24ec 02       		.uleb128 0x2
 7765 24ed 75       		.byte	0x75
 7766 24ee 00       		.sleb128 0
 7767 24ef 00       		.byte	0
 7768 24f0 00       		.byte	0
 7769 24f1 2F       		.uleb128 0x2f
 7770 24f2 910D0000 		.4byte	.LASF410
 7771 24f6 01       		.byte	0x1
 7772 24f7 B603     		.2byte	0x3b6
 7773 24f9 CA000000 		.4byte	0xca
 7774 24fd 05       		.uleb128 0x5
 7775 24fe 03       		.byte	0x3
 7776 24ff 04000000 		.4byte	clk1Count1
 7777 2503 2F       		.uleb128 0x2f
 7778 2504 970C0000 		.4byte	.LASF411
 7779 2508 01       		.byte	0x1
 7780 2509 BA03     		.2byte	0x3ba
 7781 250b 6D110000 		.4byte	0x116d
 7782 250f 05       		.uleb128 0x5
 7783 2510 03       		.byte	0x3
 7784 2511 01000000 		.4byte	clkCounting
 7785 2515 2F       		.uleb128 0x2f
 7786 2516 260E0000 		.4byte	.LASF412
 7787 251a 01       		.byte	0x1
 7788 251b BB03     		.2byte	0x3bb
 7789 251d 6D110000 		.4byte	0x116d
 7790 2521 05       		.uleb128 0x5
 7791 2522 03       		.byte	0x3
 7792 2523 00000000 		.4byte	preventCounting
 7793 2527 3B       		.uleb128 0x3b
 7794 2528 BA110000 		.4byte	.LASF422
 7795 252c 0B       		.byte	0xb
 7796 252d EA07     		.2byte	0x7ea
 7797 252f 33250000 		.4byte	0x2533
 7798 2533 05       		.uleb128 0x5
 7799 2534 BF000000 		.4byte	0xbf
 7800 2538 3C       		.uleb128 0x3c
 7801 2539 C3040000 		.4byte	.LASF413
 7802 253d C3040000 		.4byte	.LASF413
 7803 2541 0A       		.byte	0xa
 7804 2542 87       		.byte	0x87
 7805 2543 3D       		.uleb128 0x3d
 7806 2544 13150000 		.4byte	.LASF414
ARM GAS  C:\Users\gjl\AppData\Local\Temp\ccNVysBX.s 			page 207


 7807 2548 13150000 		.4byte	.LASF414
 7808 254c 08       		.byte	0x8
 7809 254d 2203     		.2byte	0x322
 7810 254f 3D       		.uleb128 0x3d
 7811 2550 E30A0000 		.4byte	.LASF415
 7812 2554 E30A0000 		.4byte	.LASF415
 7813 2558 08       		.byte	0x8
 7814 2559 2A03     		.2byte	0x32a
 7815 255b 3D       		.uleb128 0x3d
 7816 255c D10E0000 		.4byte	.LASF416
 7817 2560 D10E0000 		.4byte	.LASF416
 7818 2564 0A       		.byte	0xa
 7819 2565 7601     		.2byte	0x176
 7820 2567 3E       		.uleb128 0x3e
 7821 2568 6C6F6700 		.ascii	"log\000"
 7822 256c 6C6F6700 		.ascii	"log\000"
 7823 2570 0A       		.byte	0xa
 7824 2571 84       		.byte	0x84
 7825 2572 3C       		.uleb128 0x3c
 7826 2573 A9020000 		.4byte	.LASF417
 7827 2577 A9020000 		.4byte	.LASF417
 7828 257b 0A       		.byte	0xa
 7829 257c 76       		.byte	0x76
 7830 257d 3F       		.uleb128 0x3f
 7831 257e D10E0000 		.4byte	.LASF416
 7832 2582 D9120000 		.4byte	.LASF423
 7833 2586 0C       		.byte	0xc
 7834 2587 00       		.byte	0
 7835 2588 D10E0000 		.4byte	.LASF416
 7836 258c 00       		.byte	0
 7837              		.section	.debug_abbrev,"",%progbits
 7838              	.Ldebug_abbrev0:
 7839 0000 01       		.uleb128 0x1
 7840 0001 11       		.uleb128 0x11
 7841 0002 01       		.byte	0x1
 7842 0003 25       		.uleb128 0x25
 7843 0004 0E       		.uleb128 0xe
 7844 0005 13       		.uleb128 0x13
 7845 0006 0B       		.uleb128 0xb
 7846 0007 03       		.uleb128 0x3
 7847 0008 0E       		.uleb128 0xe
 7848 0009 1B       		.uleb128 0x1b
 7849 000a 0E       		.uleb128 0xe
 7850 000b 55       		.uleb128 0x55
 7851 000c 17       		.uleb128 0x17
 7852 000d 11       		.uleb128 0x11
 7853 000e 01       		.uleb128 0x1
 7854 000f 10       		.uleb128 0x10
 7855 0010 17       		.uleb128 0x17
 7856 0011 00       		.byte	0
 7857 0012 00       		.byte	0
 7858 0013 02       		.uleb128 0x2
 7859 0014 24       		.uleb128 0x24
 7860 0015 00       		.byte	0
 7861 0016 0B       		.uleb128 0xb
 7862 0017 0B       		.uleb128 0xb
 7863 0018 3E       		.uleb128 0x3e
ARM GAS  C:\Users\gjl\AppData\Local\Temp\ccNVysBX.s 			page 208


 7864 0019 0B       		.uleb128 0xb
 7865 001a 03       		.uleb128 0x3
 7866 001b 0E       		.uleb128 0xe
 7867 001c 00       		.byte	0
 7868 001d 00       		.byte	0
 7869 001e 03       		.uleb128 0x3
 7870 001f 16       		.uleb128 0x16
 7871 0020 00       		.byte	0
 7872 0021 03       		.uleb128 0x3
 7873 0022 0E       		.uleb128 0xe
 7874 0023 3A       		.uleb128 0x3a
 7875 0024 0B       		.uleb128 0xb
 7876 0025 3B       		.uleb128 0x3b
 7877 0026 0B       		.uleb128 0xb
 7878 0027 49       		.uleb128 0x49
 7879 0028 13       		.uleb128 0x13
 7880 0029 00       		.byte	0
 7881 002a 00       		.byte	0
 7882 002b 04       		.uleb128 0x4
 7883 002c 24       		.uleb128 0x24
 7884 002d 00       		.byte	0
 7885 002e 0B       		.uleb128 0xb
 7886 002f 0B       		.uleb128 0xb
 7887 0030 3E       		.uleb128 0x3e
 7888 0031 0B       		.uleb128 0xb
 7889 0032 03       		.uleb128 0x3
 7890 0033 08       		.uleb128 0x8
 7891 0034 00       		.byte	0
 7892 0035 00       		.byte	0
 7893 0036 05       		.uleb128 0x5
 7894 0037 35       		.uleb128 0x35
 7895 0038 00       		.byte	0
 7896 0039 49       		.uleb128 0x49
 7897 003a 13       		.uleb128 0x13
 7898 003b 00       		.byte	0
 7899 003c 00       		.byte	0
 7900 003d 06       		.uleb128 0x6
 7901 003e 26       		.uleb128 0x26
 7902 003f 00       		.byte	0
 7903 0040 49       		.uleb128 0x49
 7904 0041 13       		.uleb128 0x13
 7905 0042 00       		.byte	0
 7906 0043 00       		.byte	0
 7907 0044 07       		.uleb128 0x7
 7908 0045 01       		.uleb128 0x1
 7909 0046 01       		.byte	0x1
 7910 0047 49       		.uleb128 0x49
 7911 0048 13       		.uleb128 0x13
 7912 0049 01       		.uleb128 0x1
 7913 004a 13       		.uleb128 0x13
 7914 004b 00       		.byte	0
 7915 004c 00       		.byte	0
 7916 004d 08       		.uleb128 0x8
 7917 004e 21       		.uleb128 0x21
 7918 004f 00       		.byte	0
 7919 0050 49       		.uleb128 0x49
 7920 0051 13       		.uleb128 0x13
ARM GAS  C:\Users\gjl\AppData\Local\Temp\ccNVysBX.s 			page 209


 7921 0052 2F       		.uleb128 0x2f
 7922 0053 0B       		.uleb128 0xb
 7923 0054 00       		.byte	0
 7924 0055 00       		.byte	0
 7925 0056 09       		.uleb128 0x9
 7926 0057 13       		.uleb128 0x13
 7927 0058 01       		.byte	0x1
 7928 0059 0B       		.uleb128 0xb
 7929 005a 0B       		.uleb128 0xb
 7930 005b 3A       		.uleb128 0x3a
 7931 005c 0B       		.uleb128 0xb
 7932 005d 3B       		.uleb128 0x3b
 7933 005e 0B       		.uleb128 0xb
 7934 005f 01       		.uleb128 0x1
 7935 0060 13       		.uleb128 0x13
 7936 0061 00       		.byte	0
 7937 0062 00       		.byte	0
 7938 0063 0A       		.uleb128 0xa
 7939 0064 0D       		.uleb128 0xd
 7940 0065 00       		.byte	0
 7941 0066 03       		.uleb128 0x3
 7942 0067 0E       		.uleb128 0xe
 7943 0068 3A       		.uleb128 0x3a
 7944 0069 0B       		.uleb128 0xb
 7945 006a 3B       		.uleb128 0x3b
 7946 006b 0B       		.uleb128 0xb
 7947 006c 49       		.uleb128 0x49
 7948 006d 13       		.uleb128 0x13
 7949 006e 38       		.uleb128 0x38
 7950 006f 0B       		.uleb128 0xb
 7951 0070 00       		.byte	0
 7952 0071 00       		.byte	0
 7953 0072 0B       		.uleb128 0xb
 7954 0073 13       		.uleb128 0x13
 7955 0074 01       		.byte	0x1
 7956 0075 0B       		.uleb128 0xb
 7957 0076 05       		.uleb128 0x5
 7958 0077 3A       		.uleb128 0x3a
 7959 0078 0B       		.uleb128 0xb
 7960 0079 3B       		.uleb128 0x3b
 7961 007a 0B       		.uleb128 0xb
 7962 007b 01       		.uleb128 0x1
 7963 007c 13       		.uleb128 0x13
 7964 007d 00       		.byte	0
 7965 007e 00       		.byte	0
 7966 007f 0C       		.uleb128 0xc
 7967 0080 0D       		.uleb128 0xd
 7968 0081 00       		.byte	0
 7969 0082 03       		.uleb128 0x3
 7970 0083 08       		.uleb128 0x8
 7971 0084 3A       		.uleb128 0x3a
 7972 0085 0B       		.uleb128 0xb
 7973 0086 3B       		.uleb128 0x3b
 7974 0087 0B       		.uleb128 0xb
 7975 0088 49       		.uleb128 0x49
 7976 0089 13       		.uleb128 0x13
 7977 008a 38       		.uleb128 0x38
ARM GAS  C:\Users\gjl\AppData\Local\Temp\ccNVysBX.s 			page 210


 7978 008b 0B       		.uleb128 0xb
 7979 008c 00       		.byte	0
 7980 008d 00       		.byte	0
 7981 008e 0D       		.uleb128 0xd
 7982 008f 0D       		.uleb128 0xd
 7983 0090 00       		.byte	0
 7984 0091 03       		.uleb128 0x3
 7985 0092 0E       		.uleb128 0xe
 7986 0093 3A       		.uleb128 0x3a
 7987 0094 0B       		.uleb128 0xb
 7988 0095 3B       		.uleb128 0x3b
 7989 0096 0B       		.uleb128 0xb
 7990 0097 49       		.uleb128 0x49
 7991 0098 13       		.uleb128 0x13
 7992 0099 38       		.uleb128 0x38
 7993 009a 05       		.uleb128 0x5
 7994 009b 00       		.byte	0
 7995 009c 00       		.byte	0
 7996 009d 0E       		.uleb128 0xe
 7997 009e 21       		.uleb128 0x21
 7998 009f 00       		.byte	0
 7999 00a0 49       		.uleb128 0x49
 8000 00a1 13       		.uleb128 0x13
 8001 00a2 2F       		.uleb128 0x2f
 8002 00a3 05       		.uleb128 0x5
 8003 00a4 00       		.byte	0
 8004 00a5 00       		.byte	0
 8005 00a6 0F       		.uleb128 0xf
 8006 00a7 16       		.uleb128 0x16
 8007 00a8 00       		.byte	0
 8008 00a9 03       		.uleb128 0x3
 8009 00aa 0E       		.uleb128 0xe
 8010 00ab 3A       		.uleb128 0x3a
 8011 00ac 0B       		.uleb128 0xb
 8012 00ad 3B       		.uleb128 0x3b
 8013 00ae 05       		.uleb128 0x5
 8014 00af 49       		.uleb128 0x49
 8015 00b0 13       		.uleb128 0x13
 8016 00b1 00       		.byte	0
 8017 00b2 00       		.byte	0
 8018 00b3 10       		.uleb128 0x10
 8019 00b4 04       		.uleb128 0x4
 8020 00b5 01       		.byte	0x1
 8021 00b6 0B       		.uleb128 0xb
 8022 00b7 0B       		.uleb128 0xb
 8023 00b8 49       		.uleb128 0x49
 8024 00b9 13       		.uleb128 0x13
 8025 00ba 3A       		.uleb128 0x3a
 8026 00bb 0B       		.uleb128 0xb
 8027 00bc 3B       		.uleb128 0x3b
 8028 00bd 05       		.uleb128 0x5
 8029 00be 01       		.uleb128 0x1
 8030 00bf 13       		.uleb128 0x13
 8031 00c0 00       		.byte	0
 8032 00c1 00       		.byte	0
 8033 00c2 11       		.uleb128 0x11
 8034 00c3 28       		.uleb128 0x28
ARM GAS  C:\Users\gjl\AppData\Local\Temp\ccNVysBX.s 			page 211


 8035 00c4 00       		.byte	0
 8036 00c5 03       		.uleb128 0x3
 8037 00c6 0E       		.uleb128 0xe
 8038 00c7 1C       		.uleb128 0x1c
 8039 00c8 0B       		.uleb128 0xb
 8040 00c9 00       		.byte	0
 8041 00ca 00       		.byte	0
 8042 00cb 12       		.uleb128 0x12
 8043 00cc 28       		.uleb128 0x28
 8044 00cd 00       		.byte	0
 8045 00ce 03       		.uleb128 0x3
 8046 00cf 0E       		.uleb128 0xe
 8047 00d0 1C       		.uleb128 0x1c
 8048 00d1 06       		.uleb128 0x6
 8049 00d2 00       		.byte	0
 8050 00d3 00       		.byte	0
 8051 00d4 13       		.uleb128 0x13
 8052 00d5 13       		.uleb128 0x13
 8053 00d6 01       		.byte	0x1
 8054 00d7 0B       		.uleb128 0xb
 8055 00d8 0B       		.uleb128 0xb
 8056 00d9 3A       		.uleb128 0x3a
 8057 00da 0B       		.uleb128 0xb
 8058 00db 3B       		.uleb128 0x3b
 8059 00dc 05       		.uleb128 0x5
 8060 00dd 01       		.uleb128 0x1
 8061 00de 13       		.uleb128 0x13
 8062 00df 00       		.byte	0
 8063 00e0 00       		.byte	0
 8064 00e1 14       		.uleb128 0x14
 8065 00e2 0D       		.uleb128 0xd
 8066 00e3 00       		.byte	0
 8067 00e4 03       		.uleb128 0x3
 8068 00e5 0E       		.uleb128 0xe
 8069 00e6 3A       		.uleb128 0x3a
 8070 00e7 0B       		.uleb128 0xb
 8071 00e8 3B       		.uleb128 0x3b
 8072 00e9 05       		.uleb128 0x5
 8073 00ea 49       		.uleb128 0x49
 8074 00eb 13       		.uleb128 0x13
 8075 00ec 38       		.uleb128 0x38
 8076 00ed 0B       		.uleb128 0xb
 8077 00ee 00       		.byte	0
 8078 00ef 00       		.byte	0
 8079 00f0 15       		.uleb128 0x15
 8080 00f1 0F       		.uleb128 0xf
 8081 00f2 00       		.byte	0
 8082 00f3 0B       		.uleb128 0xb
 8083 00f4 0B       		.uleb128 0xb
 8084 00f5 00       		.byte	0
 8085 00f6 00       		.byte	0
 8086 00f7 16       		.uleb128 0x16
 8087 00f8 0F       		.uleb128 0xf
 8088 00f9 00       		.byte	0
 8089 00fa 0B       		.uleb128 0xb
 8090 00fb 0B       		.uleb128 0xb
 8091 00fc 49       		.uleb128 0x49
ARM GAS  C:\Users\gjl\AppData\Local\Temp\ccNVysBX.s 			page 212


 8092 00fd 13       		.uleb128 0x13
 8093 00fe 00       		.byte	0
 8094 00ff 00       		.byte	0
 8095 0100 17       		.uleb128 0x17
 8096 0101 28       		.uleb128 0x28
 8097 0102 00       		.byte	0
 8098 0103 03       		.uleb128 0x3
 8099 0104 0E       		.uleb128 0xe
 8100 0105 1C       		.uleb128 0x1c
 8101 0106 05       		.uleb128 0x5
 8102 0107 00       		.byte	0
 8103 0108 00       		.byte	0
 8104 0109 18       		.uleb128 0x18
 8105 010a 2E       		.uleb128 0x2e
 8106 010b 00       		.byte	0
 8107 010c 03       		.uleb128 0x3
 8108 010d 0E       		.uleb128 0xe
 8109 010e 3A       		.uleb128 0x3a
 8110 010f 0B       		.uleb128 0xb
 8111 0110 3B       		.uleb128 0x3b
 8112 0111 05       		.uleb128 0x5
 8113 0112 27       		.uleb128 0x27
 8114 0113 19       		.uleb128 0x19
 8115 0114 49       		.uleb128 0x49
 8116 0115 13       		.uleb128 0x13
 8117 0116 20       		.uleb128 0x20
 8118 0117 0B       		.uleb128 0xb
 8119 0118 00       		.byte	0
 8120 0119 00       		.byte	0
 8121 011a 19       		.uleb128 0x19
 8122 011b 2E       		.uleb128 0x2e
 8123 011c 01       		.byte	0x1
 8124 011d 03       		.uleb128 0x3
 8125 011e 0E       		.uleb128 0xe
 8126 011f 3A       		.uleb128 0x3a
 8127 0120 0B       		.uleb128 0xb
 8128 0121 3B       		.uleb128 0x3b
 8129 0122 05       		.uleb128 0x5
 8130 0123 27       		.uleb128 0x27
 8131 0124 19       		.uleb128 0x19
 8132 0125 20       		.uleb128 0x20
 8133 0126 0B       		.uleb128 0xb
 8134 0127 01       		.uleb128 0x1
 8135 0128 13       		.uleb128 0x13
 8136 0129 00       		.byte	0
 8137 012a 00       		.byte	0
 8138 012b 1A       		.uleb128 0x1a
 8139 012c 05       		.uleb128 0x5
 8140 012d 00       		.byte	0
 8141 012e 03       		.uleb128 0x3
 8142 012f 0E       		.uleb128 0xe
 8143 0130 3A       		.uleb128 0x3a
 8144 0131 0B       		.uleb128 0xb
 8145 0132 3B       		.uleb128 0x3b
 8146 0133 05       		.uleb128 0x5
 8147 0134 49       		.uleb128 0x49
 8148 0135 13       		.uleb128 0x13
ARM GAS  C:\Users\gjl\AppData\Local\Temp\ccNVysBX.s 			page 213


 8149 0136 00       		.byte	0
 8150 0137 00       		.byte	0
 8151 0138 1B       		.uleb128 0x1b
 8152 0139 2E       		.uleb128 0x2e
 8153 013a 01       		.byte	0x1
 8154 013b 03       		.uleb128 0x3
 8155 013c 0E       		.uleb128 0xe
 8156 013d 3A       		.uleb128 0x3a
 8157 013e 0B       		.uleb128 0xb
 8158 013f 3B       		.uleb128 0x3b
 8159 0140 05       		.uleb128 0x5
 8160 0141 27       		.uleb128 0x27
 8161 0142 19       		.uleb128 0x19
 8162 0143 49       		.uleb128 0x49
 8163 0144 13       		.uleb128 0x13
 8164 0145 20       		.uleb128 0x20
 8165 0146 0B       		.uleb128 0xb
 8166 0147 01       		.uleb128 0x1
 8167 0148 13       		.uleb128 0x13
 8168 0149 00       		.byte	0
 8169 014a 00       		.byte	0
 8170 014b 1C       		.uleb128 0x1c
 8171 014c 34       		.uleb128 0x34
 8172 014d 00       		.byte	0
 8173 014e 03       		.uleb128 0x3
 8174 014f 0E       		.uleb128 0xe
 8175 0150 3A       		.uleb128 0x3a
 8176 0151 0B       		.uleb128 0xb
 8177 0152 3B       		.uleb128 0x3b
 8178 0153 05       		.uleb128 0x5
 8179 0154 49       		.uleb128 0x49
 8180 0155 13       		.uleb128 0x13
 8181 0156 00       		.byte	0
 8182 0157 00       		.byte	0
 8183 0158 1D       		.uleb128 0x1d
 8184 0159 2E       		.uleb128 0x2e
 8185 015a 01       		.byte	0x1
 8186 015b 3F       		.uleb128 0x3f
 8187 015c 19       		.uleb128 0x19
 8188 015d 03       		.uleb128 0x3
 8189 015e 0E       		.uleb128 0xe
 8190 015f 3A       		.uleb128 0x3a
 8191 0160 0B       		.uleb128 0xb
 8192 0161 3B       		.uleb128 0x3b
 8193 0162 0B       		.uleb128 0xb
 8194 0163 27       		.uleb128 0x27
 8195 0164 19       		.uleb128 0x19
 8196 0165 49       		.uleb128 0x49
 8197 0166 13       		.uleb128 0x13
 8198 0167 11       		.uleb128 0x11
 8199 0168 01       		.uleb128 0x1
 8200 0169 12       		.uleb128 0x12
 8201 016a 06       		.uleb128 0x6
 8202 016b 40       		.uleb128 0x40
 8203 016c 18       		.uleb128 0x18
 8204 016d 9642     		.uleb128 0x2116
 8205 016f 19       		.uleb128 0x19
ARM GAS  C:\Users\gjl\AppData\Local\Temp\ccNVysBX.s 			page 214


 8206 0170 01       		.uleb128 0x1
 8207 0171 13       		.uleb128 0x13
 8208 0172 00       		.byte	0
 8209 0173 00       		.byte	0
 8210 0174 1E       		.uleb128 0x1e
 8211 0175 05       		.uleb128 0x5
 8212 0176 00       		.byte	0
 8213 0177 03       		.uleb128 0x3
 8214 0178 0E       		.uleb128 0xe
 8215 0179 3A       		.uleb128 0x3a
 8216 017a 0B       		.uleb128 0xb
 8217 017b 3B       		.uleb128 0x3b
 8218 017c 0B       		.uleb128 0xb
 8219 017d 49       		.uleb128 0x49
 8220 017e 13       		.uleb128 0x13
 8221 017f 02       		.uleb128 0x2
 8222 0180 17       		.uleb128 0x17
 8223 0181 00       		.byte	0
 8224 0182 00       		.byte	0
 8225 0183 1F       		.uleb128 0x1f
 8226 0184 05       		.uleb128 0x5
 8227 0185 00       		.byte	0
 8228 0186 03       		.uleb128 0x3
 8229 0187 08       		.uleb128 0x8
 8230 0188 3A       		.uleb128 0x3a
 8231 0189 0B       		.uleb128 0xb
 8232 018a 3B       		.uleb128 0x3b
 8233 018b 0B       		.uleb128 0xb
 8234 018c 49       		.uleb128 0x49
 8235 018d 13       		.uleb128 0x13
 8236 018e 02       		.uleb128 0x2
 8237 018f 17       		.uleb128 0x17
 8238 0190 00       		.byte	0
 8239 0191 00       		.byte	0
 8240 0192 20       		.uleb128 0x20
 8241 0193 34       		.uleb128 0x34
 8242 0194 00       		.byte	0
 8243 0195 03       		.uleb128 0x3
 8244 0196 0E       		.uleb128 0xe
 8245 0197 3A       		.uleb128 0x3a
 8246 0198 0B       		.uleb128 0xb
 8247 0199 3B       		.uleb128 0x3b
 8248 019a 0B       		.uleb128 0xb
 8249 019b 49       		.uleb128 0x49
 8250 019c 13       		.uleb128 0x13
 8251 019d 02       		.uleb128 0x2
 8252 019e 17       		.uleb128 0x17
 8253 019f 00       		.byte	0
 8254 01a0 00       		.byte	0
 8255 01a1 21       		.uleb128 0x21
 8256 01a2 0B       		.uleb128 0xb
 8257 01a3 01       		.byte	0x1
 8258 01a4 55       		.uleb128 0x55
 8259 01a5 17       		.uleb128 0x17
 8260 01a6 00       		.byte	0
 8261 01a7 00       		.byte	0
 8262 01a8 22       		.uleb128 0x22
ARM GAS  C:\Users\gjl\AppData\Local\Temp\ccNVysBX.s 			page 215


 8263 01a9 0B       		.uleb128 0xb
 8264 01aa 01       		.byte	0x1
 8265 01ab 11       		.uleb128 0x11
 8266 01ac 01       		.uleb128 0x1
 8267 01ad 12       		.uleb128 0x12
 8268 01ae 06       		.uleb128 0x6
 8269 01af 01       		.uleb128 0x1
 8270 01b0 13       		.uleb128 0x13
 8271 01b1 00       		.byte	0
 8272 01b2 00       		.byte	0
 8273 01b3 23       		.uleb128 0x23
 8274 01b4 34       		.uleb128 0x34
 8275 01b5 00       		.byte	0
 8276 01b6 03       		.uleb128 0x3
 8277 01b7 08       		.uleb128 0x8
 8278 01b8 3A       		.uleb128 0x3a
 8279 01b9 0B       		.uleb128 0xb
 8280 01ba 3B       		.uleb128 0x3b
 8281 01bb 0B       		.uleb128 0xb
 8282 01bc 49       		.uleb128 0x49
 8283 01bd 13       		.uleb128 0x13
 8284 01be 02       		.uleb128 0x2
 8285 01bf 17       		.uleb128 0x17
 8286 01c0 00       		.byte	0
 8287 01c1 00       		.byte	0
 8288 01c2 24       		.uleb128 0x24
 8289 01c3 898201   		.uleb128 0x4109
 8290 01c6 00       		.byte	0
 8291 01c7 11       		.uleb128 0x11
 8292 01c8 01       		.uleb128 0x1
 8293 01c9 31       		.uleb128 0x31
 8294 01ca 13       		.uleb128 0x13
 8295 01cb 00       		.byte	0
 8296 01cc 00       		.byte	0
 8297 01cd 25       		.uleb128 0x25
 8298 01ce 2E       		.uleb128 0x2e
 8299 01cf 01       		.byte	0x1
 8300 01d0 3F       		.uleb128 0x3f
 8301 01d1 19       		.uleb128 0x19
 8302 01d2 03       		.uleb128 0x3
 8303 01d3 0E       		.uleb128 0xe
 8304 01d4 3A       		.uleb128 0x3a
 8305 01d5 0B       		.uleb128 0xb
 8306 01d6 3B       		.uleb128 0x3b
 8307 01d7 0B       		.uleb128 0xb
 8308 01d8 27       		.uleb128 0x27
 8309 01d9 19       		.uleb128 0x19
 8310 01da 49       		.uleb128 0x49
 8311 01db 13       		.uleb128 0x13
 8312 01dc 11       		.uleb128 0x11
 8313 01dd 01       		.uleb128 0x1
 8314 01de 12       		.uleb128 0x12
 8315 01df 06       		.uleb128 0x6
 8316 01e0 40       		.uleb128 0x40
 8317 01e1 18       		.uleb128 0x18
 8318 01e2 9742     		.uleb128 0x2117
 8319 01e4 19       		.uleb128 0x19
ARM GAS  C:\Users\gjl\AppData\Local\Temp\ccNVysBX.s 			page 216


 8320 01e5 01       		.uleb128 0x1
 8321 01e6 13       		.uleb128 0x13
 8322 01e7 00       		.byte	0
 8323 01e8 00       		.byte	0
 8324 01e9 26       		.uleb128 0x26
 8325 01ea 898201   		.uleb128 0x4109
 8326 01ed 01       		.byte	0x1
 8327 01ee 11       		.uleb128 0x11
 8328 01ef 01       		.uleb128 0x1
 8329 01f0 31       		.uleb128 0x31
 8330 01f1 13       		.uleb128 0x13
 8331 01f2 00       		.byte	0
 8332 01f3 00       		.byte	0
 8333 01f4 27       		.uleb128 0x27
 8334 01f5 8A8201   		.uleb128 0x410a
 8335 01f8 00       		.byte	0
 8336 01f9 02       		.uleb128 0x2
 8337 01fa 18       		.uleb128 0x18
 8338 01fb 9142     		.uleb128 0x2111
 8339 01fd 18       		.uleb128 0x18
 8340 01fe 00       		.byte	0
 8341 01ff 00       		.byte	0
 8342 0200 28       		.uleb128 0x28
 8343 0201 2E       		.uleb128 0x2e
 8344 0202 01       		.byte	0x1
 8345 0203 3F       		.uleb128 0x3f
 8346 0204 19       		.uleb128 0x19
 8347 0205 03       		.uleb128 0x3
 8348 0206 0E       		.uleb128 0xe
 8349 0207 3A       		.uleb128 0x3a
 8350 0208 0B       		.uleb128 0xb
 8351 0209 3B       		.uleb128 0x3b
 8352 020a 05       		.uleb128 0x5
 8353 020b 27       		.uleb128 0x27
 8354 020c 19       		.uleb128 0x19
 8355 020d 49       		.uleb128 0x49
 8356 020e 13       		.uleb128 0x13
 8357 020f 11       		.uleb128 0x11
 8358 0210 01       		.uleb128 0x1
 8359 0211 12       		.uleb128 0x12
 8360 0212 06       		.uleb128 0x6
 8361 0213 40       		.uleb128 0x40
 8362 0214 18       		.uleb128 0x18
 8363 0215 9742     		.uleb128 0x2117
 8364 0217 19       		.uleb128 0x19
 8365 0218 01       		.uleb128 0x1
 8366 0219 13       		.uleb128 0x13
 8367 021a 00       		.byte	0
 8368 021b 00       		.byte	0
 8369 021c 29       		.uleb128 0x29
 8370 021d 05       		.uleb128 0x5
 8371 021e 00       		.byte	0
 8372 021f 03       		.uleb128 0x3
 8373 0220 0E       		.uleb128 0xe
 8374 0221 3A       		.uleb128 0x3a
 8375 0222 0B       		.uleb128 0xb
 8376 0223 3B       		.uleb128 0x3b
ARM GAS  C:\Users\gjl\AppData\Local\Temp\ccNVysBX.s 			page 217


 8377 0224 05       		.uleb128 0x5
 8378 0225 49       		.uleb128 0x49
 8379 0226 13       		.uleb128 0x13
 8380 0227 02       		.uleb128 0x2
 8381 0228 17       		.uleb128 0x17
 8382 0229 00       		.byte	0
 8383 022a 00       		.byte	0
 8384 022b 2A       		.uleb128 0x2a
 8385 022c 34       		.uleb128 0x34
 8386 022d 00       		.byte	0
 8387 022e 03       		.uleb128 0x3
 8388 022f 0E       		.uleb128 0xe
 8389 0230 3A       		.uleb128 0x3a
 8390 0231 0B       		.uleb128 0xb
 8391 0232 3B       		.uleb128 0x3b
 8392 0233 05       		.uleb128 0x5
 8393 0234 49       		.uleb128 0x49
 8394 0235 13       		.uleb128 0x13
 8395 0236 02       		.uleb128 0x2
 8396 0237 17       		.uleb128 0x17
 8397 0238 00       		.byte	0
 8398 0239 00       		.byte	0
 8399 023a 2B       		.uleb128 0x2b
 8400 023b 34       		.uleb128 0x34
 8401 023c 00       		.byte	0
 8402 023d 03       		.uleb128 0x3
 8403 023e 08       		.uleb128 0x8
 8404 023f 3A       		.uleb128 0x3a
 8405 0240 0B       		.uleb128 0xb
 8406 0241 3B       		.uleb128 0x3b
 8407 0242 05       		.uleb128 0x5
 8408 0243 49       		.uleb128 0x49
 8409 0244 13       		.uleb128 0x13
 8410 0245 02       		.uleb128 0x2
 8411 0246 17       		.uleb128 0x17
 8412 0247 00       		.byte	0
 8413 0248 00       		.byte	0
 8414 0249 2C       		.uleb128 0x2c
 8415 024a 898201   		.uleb128 0x4109
 8416 024d 01       		.byte	0x1
 8417 024e 11       		.uleb128 0x11
 8418 024f 01       		.uleb128 0x1
 8419 0250 31       		.uleb128 0x31
 8420 0251 13       		.uleb128 0x13
 8421 0252 01       		.uleb128 0x1
 8422 0253 13       		.uleb128 0x13
 8423 0254 00       		.byte	0
 8424 0255 00       		.byte	0
 8425 0256 2D       		.uleb128 0x2d
 8426 0257 2E       		.uleb128 0x2e
 8427 0258 01       		.byte	0x1
 8428 0259 3F       		.uleb128 0x3f
 8429 025a 19       		.uleb128 0x19
 8430 025b 03       		.uleb128 0x3
 8431 025c 0E       		.uleb128 0xe
 8432 025d 3A       		.uleb128 0x3a
 8433 025e 0B       		.uleb128 0xb
ARM GAS  C:\Users\gjl\AppData\Local\Temp\ccNVysBX.s 			page 218


 8434 025f 3B       		.uleb128 0x3b
 8435 0260 05       		.uleb128 0x5
 8436 0261 27       		.uleb128 0x27
 8437 0262 19       		.uleb128 0x19
 8438 0263 49       		.uleb128 0x49
 8439 0264 13       		.uleb128 0x13
 8440 0265 11       		.uleb128 0x11
 8441 0266 01       		.uleb128 0x1
 8442 0267 12       		.uleb128 0x12
 8443 0268 06       		.uleb128 0x6
 8444 0269 40       		.uleb128 0x40
 8445 026a 18       		.uleb128 0x18
 8446 026b 9642     		.uleb128 0x2116
 8447 026d 19       		.uleb128 0x19
 8448 026e 01       		.uleb128 0x1
 8449 026f 13       		.uleb128 0x13
 8450 0270 00       		.byte	0
 8451 0271 00       		.byte	0
 8452 0272 2E       		.uleb128 0x2e
 8453 0273 0B       		.uleb128 0xb
 8454 0274 01       		.byte	0x1
 8455 0275 11       		.uleb128 0x11
 8456 0276 01       		.uleb128 0x1
 8457 0277 12       		.uleb128 0x12
 8458 0278 06       		.uleb128 0x6
 8459 0279 00       		.byte	0
 8460 027a 00       		.byte	0
 8461 027b 2F       		.uleb128 0x2f
 8462 027c 34       		.uleb128 0x34
 8463 027d 00       		.byte	0
 8464 027e 03       		.uleb128 0x3
 8465 027f 0E       		.uleb128 0xe
 8466 0280 3A       		.uleb128 0x3a
 8467 0281 0B       		.uleb128 0xb
 8468 0282 3B       		.uleb128 0x3b
 8469 0283 05       		.uleb128 0x5
 8470 0284 49       		.uleb128 0x49
 8471 0285 13       		.uleb128 0x13
 8472 0286 02       		.uleb128 0x2
 8473 0287 18       		.uleb128 0x18
 8474 0288 00       		.byte	0
 8475 0289 00       		.byte	0
 8476 028a 30       		.uleb128 0x30
 8477 028b 2E       		.uleb128 0x2e
 8478 028c 01       		.byte	0x1
 8479 028d 3F       		.uleb128 0x3f
 8480 028e 19       		.uleb128 0x19
 8481 028f 03       		.uleb128 0x3
 8482 0290 0E       		.uleb128 0xe
 8483 0291 3A       		.uleb128 0x3a
 8484 0292 0B       		.uleb128 0xb
 8485 0293 3B       		.uleb128 0x3b
 8486 0294 05       		.uleb128 0x5
 8487 0295 27       		.uleb128 0x27
 8488 0296 19       		.uleb128 0x19
 8489 0297 11       		.uleb128 0x11
 8490 0298 01       		.uleb128 0x1
ARM GAS  C:\Users\gjl\AppData\Local\Temp\ccNVysBX.s 			page 219


 8491 0299 12       		.uleb128 0x12
 8492 029a 06       		.uleb128 0x6
 8493 029b 40       		.uleb128 0x40
 8494 029c 18       		.uleb128 0x18
 8495 029d 9742     		.uleb128 0x2117
 8496 029f 19       		.uleb128 0x19
 8497 02a0 01       		.uleb128 0x1
 8498 02a1 13       		.uleb128 0x13
 8499 02a2 00       		.byte	0
 8500 02a3 00       		.byte	0
 8501 02a4 31       		.uleb128 0x31
 8502 02a5 1D       		.uleb128 0x1d
 8503 02a6 00       		.byte	0
 8504 02a7 31       		.uleb128 0x31
 8505 02a8 13       		.uleb128 0x13
 8506 02a9 11       		.uleb128 0x11
 8507 02aa 01       		.uleb128 0x1
 8508 02ab 12       		.uleb128 0x12
 8509 02ac 06       		.uleb128 0x6
 8510 02ad 58       		.uleb128 0x58
 8511 02ae 0B       		.uleb128 0xb
 8512 02af 59       		.uleb128 0x59
 8513 02b0 05       		.uleb128 0x5
 8514 02b1 00       		.byte	0
 8515 02b2 00       		.byte	0
 8516 02b3 32       		.uleb128 0x32
 8517 02b4 05       		.uleb128 0x5
 8518 02b5 00       		.byte	0
 8519 02b6 03       		.uleb128 0x3
 8520 02b7 0E       		.uleb128 0xe
 8521 02b8 3A       		.uleb128 0x3a
 8522 02b9 0B       		.uleb128 0xb
 8523 02ba 3B       		.uleb128 0x3b
 8524 02bb 05       		.uleb128 0x5
 8525 02bc 49       		.uleb128 0x49
 8526 02bd 13       		.uleb128 0x13
 8527 02be 02       		.uleb128 0x2
 8528 02bf 18       		.uleb128 0x18
 8529 02c0 00       		.byte	0
 8530 02c1 00       		.byte	0
 8531 02c2 33       		.uleb128 0x33
 8532 02c3 0B       		.uleb128 0xb
 8533 02c4 01       		.byte	0x1
 8534 02c5 55       		.uleb128 0x55
 8535 02c6 17       		.uleb128 0x17
 8536 02c7 01       		.uleb128 0x1
 8537 02c8 13       		.uleb128 0x13
 8538 02c9 00       		.byte	0
 8539 02ca 00       		.byte	0
 8540 02cb 34       		.uleb128 0x34
 8541 02cc 34       		.uleb128 0x34
 8542 02cd 00       		.byte	0
 8543 02ce 03       		.uleb128 0x3
 8544 02cf 0E       		.uleb128 0xe
 8545 02d0 3A       		.uleb128 0x3a
 8546 02d1 0B       		.uleb128 0xb
 8547 02d2 3B       		.uleb128 0x3b
ARM GAS  C:\Users\gjl\AppData\Local\Temp\ccNVysBX.s 			page 220


 8548 02d3 05       		.uleb128 0x5
 8549 02d4 49       		.uleb128 0x49
 8550 02d5 13       		.uleb128 0x13
 8551 02d6 1C       		.uleb128 0x1c
 8552 02d7 05       		.uleb128 0x5
 8553 02d8 00       		.byte	0
 8554 02d9 00       		.byte	0
 8555 02da 35       		.uleb128 0x35
 8556 02db 1D       		.uleb128 0x1d
 8557 02dc 01       		.byte	0x1
 8558 02dd 31       		.uleb128 0x31
 8559 02de 13       		.uleb128 0x13
 8560 02df 11       		.uleb128 0x11
 8561 02e0 01       		.uleb128 0x1
 8562 02e1 12       		.uleb128 0x12
 8563 02e2 06       		.uleb128 0x6
 8564 02e3 58       		.uleb128 0x58
 8565 02e4 0B       		.uleb128 0xb
 8566 02e5 59       		.uleb128 0x59
 8567 02e6 05       		.uleb128 0x5
 8568 02e7 00       		.byte	0
 8569 02e8 00       		.byte	0
 8570 02e9 36       		.uleb128 0x36
 8571 02ea 05       		.uleb128 0x5
 8572 02eb 00       		.byte	0
 8573 02ec 31       		.uleb128 0x31
 8574 02ed 13       		.uleb128 0x13
 8575 02ee 02       		.uleb128 0x2
 8576 02ef 17       		.uleb128 0x17
 8577 02f0 00       		.byte	0
 8578 02f1 00       		.byte	0
 8579 02f2 37       		.uleb128 0x37
 8580 02f3 34       		.uleb128 0x34
 8581 02f4 00       		.byte	0
 8582 02f5 31       		.uleb128 0x31
 8583 02f6 13       		.uleb128 0x13
 8584 02f7 02       		.uleb128 0x2
 8585 02f8 17       		.uleb128 0x17
 8586 02f9 00       		.byte	0
 8587 02fa 00       		.byte	0
 8588 02fb 38       		.uleb128 0x38
 8589 02fc 1D       		.uleb128 0x1d
 8590 02fd 01       		.byte	0x1
 8591 02fe 31       		.uleb128 0x31
 8592 02ff 13       		.uleb128 0x13
 8593 0300 11       		.uleb128 0x11
 8594 0301 01       		.uleb128 0x1
 8595 0302 12       		.uleb128 0x12
 8596 0303 06       		.uleb128 0x6
 8597 0304 58       		.uleb128 0x58
 8598 0305 0B       		.uleb128 0xb
 8599 0306 59       		.uleb128 0x59
 8600 0307 05       		.uleb128 0x5
 8601 0308 01       		.uleb128 0x1
 8602 0309 13       		.uleb128 0x13
 8603 030a 00       		.byte	0
 8604 030b 00       		.byte	0
ARM GAS  C:\Users\gjl\AppData\Local\Temp\ccNVysBX.s 			page 221


 8605 030c 39       		.uleb128 0x39
 8606 030d 17       		.uleb128 0x17
 8607 030e 01       		.byte	0x1
 8608 030f 0B       		.uleb128 0xb
 8609 0310 0B       		.uleb128 0xb
 8610 0311 3A       		.uleb128 0x3a
 8611 0312 0B       		.uleb128 0xb
 8612 0313 3B       		.uleb128 0x3b
 8613 0314 05       		.uleb128 0x5
 8614 0315 01       		.uleb128 0x1
 8615 0316 13       		.uleb128 0x13
 8616 0317 00       		.byte	0
 8617 0318 00       		.byte	0
 8618 0319 3A       		.uleb128 0x3a
 8619 031a 0D       		.uleb128 0xd
 8620 031b 00       		.byte	0
 8621 031c 03       		.uleb128 0x3
 8622 031d 08       		.uleb128 0x8
 8623 031e 3A       		.uleb128 0x3a
 8624 031f 0B       		.uleb128 0xb
 8625 0320 3B       		.uleb128 0x3b
 8626 0321 05       		.uleb128 0x5
 8627 0322 49       		.uleb128 0x49
 8628 0323 13       		.uleb128 0x13
 8629 0324 00       		.byte	0
 8630 0325 00       		.byte	0
 8631 0326 3B       		.uleb128 0x3b
 8632 0327 34       		.uleb128 0x34
 8633 0328 00       		.byte	0
 8634 0329 03       		.uleb128 0x3
 8635 032a 0E       		.uleb128 0xe
 8636 032b 3A       		.uleb128 0x3a
 8637 032c 0B       		.uleb128 0xb
 8638 032d 3B       		.uleb128 0x3b
 8639 032e 05       		.uleb128 0x5
 8640 032f 49       		.uleb128 0x49
 8641 0330 13       		.uleb128 0x13
 8642 0331 3F       		.uleb128 0x3f
 8643 0332 19       		.uleb128 0x19
 8644 0333 3C       		.uleb128 0x3c
 8645 0334 19       		.uleb128 0x19
 8646 0335 00       		.byte	0
 8647 0336 00       		.byte	0
 8648 0337 3C       		.uleb128 0x3c
 8649 0338 2E       		.uleb128 0x2e
 8650 0339 00       		.byte	0
 8651 033a 3F       		.uleb128 0x3f
 8652 033b 19       		.uleb128 0x19
 8653 033c 3C       		.uleb128 0x3c
 8654 033d 19       		.uleb128 0x19
 8655 033e 6E       		.uleb128 0x6e
 8656 033f 0E       		.uleb128 0xe
 8657 0340 03       		.uleb128 0x3
 8658 0341 0E       		.uleb128 0xe
 8659 0342 3A       		.uleb128 0x3a
 8660 0343 0B       		.uleb128 0xb
 8661 0344 3B       		.uleb128 0x3b
ARM GAS  C:\Users\gjl\AppData\Local\Temp\ccNVysBX.s 			page 222


 8662 0345 0B       		.uleb128 0xb
 8663 0346 00       		.byte	0
 8664 0347 00       		.byte	0
 8665 0348 3D       		.uleb128 0x3d
 8666 0349 2E       		.uleb128 0x2e
 8667 034a 00       		.byte	0
 8668 034b 3F       		.uleb128 0x3f
 8669 034c 19       		.uleb128 0x19
 8670 034d 3C       		.uleb128 0x3c
 8671 034e 19       		.uleb128 0x19
 8672 034f 6E       		.uleb128 0x6e
 8673 0350 0E       		.uleb128 0xe
 8674 0351 03       		.uleb128 0x3
 8675 0352 0E       		.uleb128 0xe
 8676 0353 3A       		.uleb128 0x3a
 8677 0354 0B       		.uleb128 0xb
 8678 0355 3B       		.uleb128 0x3b
 8679 0356 05       		.uleb128 0x5
 8680 0357 00       		.byte	0
 8681 0358 00       		.byte	0
 8682 0359 3E       		.uleb128 0x3e
 8683 035a 2E       		.uleb128 0x2e
 8684 035b 00       		.byte	0
 8685 035c 3F       		.uleb128 0x3f
 8686 035d 19       		.uleb128 0x19
 8687 035e 3C       		.uleb128 0x3c
 8688 035f 19       		.uleb128 0x19
 8689 0360 6E       		.uleb128 0x6e
 8690 0361 08       		.uleb128 0x8
 8691 0362 03       		.uleb128 0x3
 8692 0363 08       		.uleb128 0x8
 8693 0364 3A       		.uleb128 0x3a
 8694 0365 0B       		.uleb128 0xb
 8695 0366 3B       		.uleb128 0x3b
 8696 0367 0B       		.uleb128 0xb
 8697 0368 00       		.byte	0
 8698 0369 00       		.byte	0
 8699 036a 3F       		.uleb128 0x3f
 8700 036b 2E       		.uleb128 0x2e
 8701 036c 00       		.byte	0
 8702 036d 3F       		.uleb128 0x3f
 8703 036e 19       		.uleb128 0x19
 8704 036f 3C       		.uleb128 0x3c
 8705 0370 19       		.uleb128 0x19
 8706 0371 6E       		.uleb128 0x6e
 8707 0372 0E       		.uleb128 0xe
 8708 0373 03       		.uleb128 0x3
 8709 0374 0E       		.uleb128 0xe
 8710 0375 3A       		.uleb128 0x3a
 8711 0376 0B       		.uleb128 0xb
 8712 0377 3B       		.uleb128 0x3b
 8713 0378 0B       		.uleb128 0xb
 8714 0379 6E       		.uleb128 0x6e
 8715 037a 0E       		.uleb128 0xe
 8716 037b 00       		.byte	0
 8717 037c 00       		.byte	0
 8718 037d 00       		.byte	0
ARM GAS  C:\Users\gjl\AppData\Local\Temp\ccNVysBX.s 			page 223


 8719              		.section	.debug_loc,"",%progbits
 8720              	.Ldebug_loc0:
 8721              	.LLST0:
 8722 0000 00000000 		.4byte	.LVL0
 8723 0004 44000000 		.4byte	.LVL3
 8724 0008 0100     		.2byte	0x1
 8725 000a 50       		.byte	0x50
 8726 000b 44000000 		.4byte	.LVL3
 8727 000f CE010000 		.4byte	.LVL26
 8728 0013 0400     		.2byte	0x4
 8729 0015 F3       		.byte	0xf3
 8730 0016 01       		.uleb128 0x1
 8731 0017 50       		.byte	0x50
 8732 0018 9F       		.byte	0x9f
 8733 0019 CE010000 		.4byte	.LVL26
 8734 001d D0010000 		.4byte	.LVL27
 8735 0021 0100     		.2byte	0x1
 8736 0023 50       		.byte	0x50
 8737 0024 D0010000 		.4byte	.LVL27
 8738 0028 28020000 		.4byte	.LFE215
 8739 002c 0400     		.2byte	0x4
 8740 002e F3       		.byte	0xf3
 8741 002f 01       		.uleb128 0x1
 8742 0030 50       		.byte	0x50
 8743 0031 9F       		.byte	0x9f
 8744 0032 00000000 		.4byte	0
 8745 0036 00000000 		.4byte	0
 8746              	.LLST1:
 8747 003a 00000000 		.4byte	.LVL0
 8748 003e 47000000 		.4byte	.LVL4-1
 8749 0042 0100     		.2byte	0x1
 8750 0044 51       		.byte	0x51
 8751 0045 47000000 		.4byte	.LVL4-1
 8752 0049 CE010000 		.4byte	.LVL26
 8753 004d 0200     		.2byte	0x2
 8754 004f 90       		.byte	0x90
 8755 0050 50       		.uleb128 0x50
 8756 0051 CE010000 		.4byte	.LVL26
 8757 0055 D2010000 		.4byte	.LVL28
 8758 0059 0100     		.2byte	0x1
 8759 005b 51       		.byte	0x51
 8760 005c D2010000 		.4byte	.LVL28
 8761 0060 D8010000 		.4byte	.LVL30
 8762 0064 0200     		.2byte	0x2
 8763 0066 90       		.byte	0x90
 8764 0067 50       		.uleb128 0x50
 8765 0068 D8010000 		.4byte	.LVL30
 8766 006c 28020000 		.4byte	.LFE215
 8767 0070 0400     		.2byte	0x4
 8768 0072 F3       		.byte	0xf3
 8769 0073 01       		.uleb128 0x1
 8770 0074 51       		.byte	0x51
 8771 0075 9F       		.byte	0x9f
 8772 0076 00000000 		.4byte	0
 8773 007a 00000000 		.4byte	0
 8774              	.LLST2:
 8775 007e 00000000 		.4byte	.LVL0
ARM GAS  C:\Users\gjl\AppData\Local\Temp\ccNVysBX.s 			page 224


 8776 0082 47000000 		.4byte	.LVL4-1
 8777 0086 0100     		.2byte	0x1
 8778 0088 52       		.byte	0x52
 8779 0089 47000000 		.4byte	.LVL4-1
 8780 008d CE010000 		.4byte	.LVL26
 8781 0091 0400     		.2byte	0x4
 8782 0093 F3       		.byte	0xf3
 8783 0094 01       		.uleb128 0x1
 8784 0095 52       		.byte	0x52
 8785 0096 9F       		.byte	0x9f
 8786 0097 CE010000 		.4byte	.LVL26
 8787 009b D2010000 		.4byte	.LVL28
 8788 009f 0100     		.2byte	0x1
 8789 00a1 52       		.byte	0x52
 8790 00a2 D2010000 		.4byte	.LVL28
 8791 00a6 28020000 		.4byte	.LFE215
 8792 00aa 0400     		.2byte	0x4
 8793 00ac F3       		.byte	0xf3
 8794 00ad 01       		.uleb128 0x1
 8795 00ae 52       		.byte	0x52
 8796 00af 9F       		.byte	0x9f
 8797 00b0 00000000 		.4byte	0
 8798 00b4 00000000 		.4byte	0
 8799              	.LLST3:
 8800 00b8 00000000 		.4byte	.LVL0
 8801 00bc 47000000 		.4byte	.LVL4-1
 8802 00c0 0100     		.2byte	0x1
 8803 00c2 53       		.byte	0x53
 8804 00c3 47000000 		.4byte	.LVL4-1
 8805 00c7 CE010000 		.4byte	.LVL26
 8806 00cb 0400     		.2byte	0x4
 8807 00cd F3       		.byte	0xf3
 8808 00ce 01       		.uleb128 0x1
 8809 00cf 53       		.byte	0x53
 8810 00d0 9F       		.byte	0x9f
 8811 00d1 CE010000 		.4byte	.LVL26
 8812 00d5 D2010000 		.4byte	.LVL28
 8813 00d9 0100     		.2byte	0x1
 8814 00db 53       		.byte	0x53
 8815 00dc D2010000 		.4byte	.LVL28
 8816 00e0 28020000 		.4byte	.LFE215
 8817 00e4 0400     		.2byte	0x4
 8818 00e6 F3       		.byte	0xf3
 8819 00e7 01       		.uleb128 0x1
 8820 00e8 53       		.byte	0x53
 8821 00e9 9F       		.byte	0x9f
 8822 00ea 00000000 		.4byte	0
 8823 00ee 00000000 		.4byte	0
 8824              	.LLST4:
 8825 00f2 06000000 		.4byte	.LVL1
 8826 00f6 98000000 		.4byte	.LVL9
 8827 00fa 0600     		.2byte	0x6
 8828 00fc 0C       		.byte	0xc
 8829 00fd 03004A00 		.4byte	0x4a0003
 8830 0101 9F       		.byte	0x9f
 8831 0102 98000000 		.4byte	.LVL9
 8832 0106 CA010000 		.4byte	.LVL25
ARM GAS  C:\Users\gjl\AppData\Local\Temp\ccNVysBX.s 			page 225


 8833 010a 0600     		.2byte	0x6
 8834 010c 0C       		.byte	0xc
 8835 010d 01004A00 		.4byte	0x4a0001
 8836 0111 9F       		.byte	0x9f
 8837 0112 CA010000 		.4byte	.LVL25
 8838 0116 CE010000 		.4byte	.LVL26
 8839 011a 0200     		.2byte	0x2
 8840 011c 30       		.byte	0x30
 8841 011d 9F       		.byte	0x9f
 8842 011e CE010000 		.4byte	.LVL26
 8843 0122 D2010000 		.4byte	.LVL28
 8844 0126 0600     		.2byte	0x6
 8845 0128 0C       		.byte	0xc
 8846 0129 03004A00 		.4byte	0x4a0003
 8847 012d 9F       		.byte	0x9f
 8848 012e D2010000 		.4byte	.LVL28
 8849 0132 D8010000 		.4byte	.LVL30
 8850 0136 0600     		.2byte	0x6
 8851 0138 0C       		.byte	0xc
 8852 0139 01004A00 		.4byte	0x4a0001
 8853 013d 9F       		.byte	0x9f
 8854 013e D8010000 		.4byte	.LVL30
 8855 0142 28020000 		.4byte	.LFE215
 8856 0146 0100     		.2byte	0x1
 8857 0148 50       		.byte	0x50
 8858 0149 00000000 		.4byte	0
 8859 014d 00000000 		.4byte	0
 8860              	.LLST5:
 8861 0151 30000000 		.4byte	.LVL2
 8862 0155 CE010000 		.4byte	.LVL26
 8863 0159 0200     		.2byte	0x2
 8864 015b 90       		.byte	0x90
 8865 015c 51       		.uleb128 0x51
 8866 015d D2010000 		.4byte	.LVL28
 8867 0161 D8010000 		.4byte	.LVL30
 8868 0165 0200     		.2byte	0x2
 8869 0167 90       		.byte	0x90
 8870 0168 51       		.uleb128 0x51
 8871 0169 00000000 		.4byte	0
 8872 016d 00000000 		.4byte	0
 8873              	.LLST6:
 8874 0171 70000000 		.4byte	.LVL7
 8875 0175 36010000 		.4byte	.LVL11
 8876 0179 0200     		.2byte	0x2
 8877 017b 90       		.byte	0x90
 8878 017c 4C       		.uleb128 0x4c
 8879 017d 36010000 		.4byte	.LVL11
 8880 0181 48010000 		.4byte	.LVL12
 8881 0185 2000     		.2byte	0x20
 8882 0187 F5       		.byte	0xf5
 8883 0188 00       		.uleb128 0
 8884 0189 25       		.uleb128 0x25
 8885 018a F4       		.byte	0xf4
 8886 018b 25       		.uleb128 0x25
 8887 018c 04       		.byte	0x4
 8888 018d 00007A44 		.4byte	0x447a0000
 8889 0191 1E       		.byte	0x1e
ARM GAS  C:\Users\gjl\AppData\Local\Temp\ccNVysBX.s 			page 226


 8890 0192 F5       		.byte	0xf5
 8891 0193 51       		.uleb128 0x51
 8892 0194 25       		.uleb128 0x25
 8893 0195 F4       		.byte	0xf4
 8894 0196 25       		.uleb128 0x25
 8895 0197 04       		.byte	0x4
 8896 0198 C3F54840 		.4byte	0x4048f5c3
 8897 019c 1E       		.byte	0x1e
 8898 019d 92       		.byte	0x92
 8899 019e 50       		.uleb128 0x50
 8900 019f 00       		.sleb128 0
 8901 01a0 F7       		.byte	0xf7
 8902 01a1 2C       		.uleb128 0x2c
 8903 01a2 F7       		.byte	0xf7
 8904 01a3 25       		.uleb128 0x25
 8905 01a4 1E       		.byte	0x1e
 8906 01a5 1B       		.byte	0x1b
 8907 01a6 9F       		.byte	0x9f
 8908 01a7 48010000 		.4byte	.LVL12
 8909 01ab 4A010000 		.4byte	.LVL13
 8910 01af 0200     		.2byte	0x2
 8911 01b1 90       		.byte	0x90
 8912 01b2 4C       		.uleb128 0x4c
 8913 01b3 4A010000 		.4byte	.LVL13
 8914 01b7 9C010000 		.4byte	.LVL18
 8915 01bb 2000     		.2byte	0x20
 8916 01bd F5       		.byte	0xf5
 8917 01be 00       		.uleb128 0
 8918 01bf 25       		.uleb128 0x25
 8919 01c0 F4       		.byte	0xf4
 8920 01c1 25       		.uleb128 0x25
 8921 01c2 04       		.byte	0x4
 8922 01c3 00007A44 		.4byte	0x447a0000
 8923 01c7 1E       		.byte	0x1e
 8924 01c8 F5       		.byte	0xf5
 8925 01c9 51       		.uleb128 0x51
 8926 01ca 25       		.uleb128 0x25
 8927 01cb F4       		.byte	0xf4
 8928 01cc 25       		.uleb128 0x25
 8929 01cd 04       		.byte	0x4
 8930 01ce C3F54840 		.4byte	0x4048f5c3
 8931 01d2 1E       		.byte	0x1e
 8932 01d3 92       		.byte	0x92
 8933 01d4 50       		.uleb128 0x50
 8934 01d5 00       		.sleb128 0
 8935 01d6 F7       		.byte	0xf7
 8936 01d7 2C       		.uleb128 0x2c
 8937 01d8 F7       		.byte	0xf7
 8938 01d9 25       		.uleb128 0x25
 8939 01da 1E       		.byte	0x1e
 8940 01db 1B       		.byte	0x1b
 8941 01dc 9F       		.byte	0x9f
 8942 01dd D2010000 		.4byte	.LVL28
 8943 01e1 D8010000 		.4byte	.LVL30
 8944 01e5 0200     		.2byte	0x2
 8945 01e7 90       		.byte	0x90
 8946 01e8 4C       		.uleb128 0x4c
ARM GAS  C:\Users\gjl\AppData\Local\Temp\ccNVysBX.s 			page 227


 8947 01e9 00000000 		.4byte	0
 8948 01ed 00000000 		.4byte	0
 8949              	.LLST7:
 8950 01f1 8C000000 		.4byte	.LVL8
 8951 01f5 CE010000 		.4byte	.LVL26
 8952 01f9 0200     		.2byte	0x2
 8953 01fb 90       		.byte	0x90
 8954 01fc 4D       		.uleb128 0x4d
 8955 01fd D2010000 		.4byte	.LVL28
 8956 0201 D8010000 		.4byte	.LVL30
 8957 0205 0200     		.2byte	0x2
 8958 0207 90       		.byte	0x90
 8959 0208 4D       		.uleb128 0x4d
 8960 0209 00000000 		.4byte	0
 8961 020d 00000000 		.4byte	0
 8962              	.LLST8:
 8963 0211 98000000 		.4byte	.LVL9
 8964 0215 48010000 		.4byte	.LVL12
 8965 0219 0200     		.2byte	0x2
 8966 021b 90       		.byte	0x90
 8967 021c 4F       		.uleb128 0x4f
 8968 021d 48010000 		.4byte	.LVL12
 8969 0221 4A010000 		.4byte	.LVL13
 8970 0225 0100     		.2byte	0x1
 8971 0227 53       		.byte	0x53
 8972 0228 4A010000 		.4byte	.LVL13
 8973 022c 52010000 		.4byte	.LVL14
 8974 0230 0200     		.2byte	0x2
 8975 0232 90       		.byte	0x90
 8976 0233 4F       		.uleb128 0x4f
 8977 0234 52010000 		.4byte	.LVL14
 8978 0238 56010000 		.4byte	.LVL15
 8979 023c 0100     		.2byte	0x1
 8980 023e 53       		.byte	0x53
 8981 023f 56010000 		.4byte	.LVL15
 8982 0243 5E010000 		.4byte	.LVL16
 8983 0247 0200     		.2byte	0x2
 8984 0249 90       		.byte	0x90
 8985 024a 4F       		.uleb128 0x4f
 8986 024b 5E010000 		.4byte	.LVL16
 8987 024f CE010000 		.4byte	.LVL26
 8988 0253 1000     		.2byte	0x10
 8989 0255 F5       		.byte	0xf5
 8990 0256 4D       		.uleb128 0x4d
 8991 0257 25       		.uleb128 0x25
 8992 0258 F4       		.byte	0xf4
 8993 0259 25       		.uleb128 0x25
 8994 025a 04       		.byte	0x4
 8995 025b 00009040 		.4byte	0x40900000
 8996 025f 1B       		.byte	0x1b
 8997 0260 F7       		.byte	0xf7
 8998 0261 25       		.uleb128 0x25
 8999 0262 F7       		.byte	0xf7
 9000 0263 2C       		.uleb128 0x2c
 9001 0264 9F       		.byte	0x9f
 9002 0265 D2010000 		.4byte	.LVL28
 9003 0269 D6010000 		.4byte	.LVL29
ARM GAS  C:\Users\gjl\AppData\Local\Temp\ccNVysBX.s 			page 228


 9004 026d 0200     		.2byte	0x2
 9005 026f 90       		.byte	0x90
 9006 0270 4F       		.uleb128 0x4f
 9007 0271 D6010000 		.4byte	.LVL29
 9008 0275 D8010000 		.4byte	.LVL30
 9009 0279 0100     		.2byte	0x1
 9010 027b 53       		.byte	0x53
 9011 027c 00000000 		.4byte	0
 9012 0280 00000000 		.4byte	0
 9013              	.LLST9:
 9014 0284 20010000 		.4byte	.LVL10
 9015 0288 CE010000 		.4byte	.LVL26
 9016 028c 0100     		.2byte	0x1
 9017 028e 55       		.byte	0x55
 9018 028f 00000000 		.4byte	0
 9019 0293 00000000 		.4byte	0
 9020              	.LLST10:
 9021 0297 4A010000 		.4byte	.LVL13
 9022 029b CE010000 		.4byte	.LVL26
 9023 029f 0100     		.2byte	0x1
 9024 02a1 51       		.byte	0x51
 9025 02a2 00000000 		.4byte	0
 9026 02a6 00000000 		.4byte	0
 9027              	.LLST11:
 9028 02aa 5E010000 		.4byte	.LVL16
 9029 02ae CE010000 		.4byte	.LVL26
 9030 02b2 0200     		.2byte	0x2
 9031 02b4 90       		.byte	0x90
 9032 02b5 4F       		.uleb128 0x4f
 9033 02b6 00000000 		.4byte	0
 9034 02ba 00000000 		.4byte	0
 9035              	.LLST12:
 9036 02be 96010000 		.4byte	.LVL17
 9037 02c2 CE010000 		.4byte	.LVL26
 9038 02c6 0100     		.2byte	0x1
 9039 02c8 56       		.byte	0x56
 9040 02c9 00000000 		.4byte	0
 9041 02cd 00000000 		.4byte	0
 9042              	.LLST13:
 9043 02d1 96010000 		.4byte	.LVL17
 9044 02d5 CE010000 		.4byte	.LVL26
 9045 02d9 0500     		.2byte	0x5
 9046 02db 75       		.byte	0x75
 9047 02dc 00       		.sleb128 0
 9048 02dd 31       		.byte	0x31
 9049 02de 25       		.byte	0x25
 9050 02df 9F       		.byte	0x9f
 9051 02e0 00000000 		.4byte	0
 9052 02e4 00000000 		.4byte	0
 9053              	.LLST14:
 9054 02e8 A6010000 		.4byte	.LVL19
 9055 02ec C2010000 		.4byte	.LVL23
 9056 02f0 0100     		.2byte	0x1
 9057 02f2 53       		.byte	0x53
 9058 02f3 C2010000 		.4byte	.LVL23
 9059 02f7 CE010000 		.4byte	.LVL26
 9060 02fb 0100     		.2byte	0x1
ARM GAS  C:\Users\gjl\AppData\Local\Temp\ccNVysBX.s 			page 229


 9061 02fd 52       		.byte	0x52
 9062 02fe 00000000 		.4byte	0
 9063 0302 00000000 		.4byte	0
 9064              	.LLST15:
 9065 0306 00000000 		.4byte	.LVL31
 9066 030a 1E000000 		.4byte	.LVL32
 9067 030e 0100     		.2byte	0x1
 9068 0310 50       		.byte	0x50
 9069 0311 1E000000 		.4byte	.LVL32
 9070 0315 3C000000 		.4byte	.LVL35
 9071 0319 0100     		.2byte	0x1
 9072 031b 54       		.byte	0x54
 9073 031c 3C000000 		.4byte	.LVL35
 9074 0320 3E000000 		.4byte	.LVL36
 9075 0324 0100     		.2byte	0x1
 9076 0326 50       		.byte	0x50
 9077 0327 3E000000 		.4byte	.LVL36
 9078 032b 40000000 		.4byte	.LVL37
 9079 032f 0400     		.2byte	0x4
 9080 0331 F3       		.byte	0xf3
 9081 0332 01       		.uleb128 0x1
 9082 0333 50       		.byte	0x50
 9083 0334 9F       		.byte	0x9f
 9084 0335 40000000 		.4byte	.LVL37
 9085 0339 44000000 		.4byte	.LVL39
 9086 033d 0100     		.2byte	0x1
 9087 033f 54       		.byte	0x54
 9088 0340 00000000 		.4byte	0
 9089 0344 00000000 		.4byte	0
 9090              	.LLST16:
 9091 0348 00000000 		.4byte	.LVL31
 9092 034c 3E000000 		.4byte	.LVL36
 9093 0350 0600     		.2byte	0x6
 9094 0352 0C       		.byte	0xc
 9095 0353 03004A00 		.4byte	0x4a0003
 9096 0357 9F       		.byte	0x9f
 9097 0358 3E000000 		.4byte	.LVL36
 9098 035c 40000000 		.4byte	.LVL37
 9099 0360 0100     		.2byte	0x1
 9100 0362 50       		.byte	0x50
 9101 0363 40000000 		.4byte	.LVL37
 9102 0367 42000000 		.4byte	.LVL38
 9103 036b 0600     		.2byte	0x6
 9104 036d 0C       		.byte	0xc
 9105 036e 03004A00 		.4byte	0x4a0003
 9106 0372 9F       		.byte	0x9f
 9107 0373 42000000 		.4byte	.LVL38
 9108 0377 50000000 		.4byte	.LFE216
 9109 037b 0100     		.2byte	0x1
 9110 037d 50       		.byte	0x50
 9111 037e 00000000 		.4byte	0
 9112 0382 00000000 		.4byte	0
 9113              	.LLST17:
 9114 0386 00000000 		.4byte	.LVL40
 9115 038a 26000000 		.4byte	.LVL42
 9116 038e 0100     		.2byte	0x1
 9117 0390 50       		.byte	0x50
ARM GAS  C:\Users\gjl\AppData\Local\Temp\ccNVysBX.s 			page 230


 9118 0391 26000000 		.4byte	.LVL42
 9119 0395 2E000000 		.4byte	.LVL43
 9120 0399 0400     		.2byte	0x4
 9121 039b 70       		.byte	0x70
 9122 039c B07E     		.sleb128 -208
 9123 039e 9F       		.byte	0x9f
 9124 039f 2E000000 		.4byte	.LVL43
 9125 03a3 30000000 		.4byte	.LVL44
 9126 03a7 0400     		.2byte	0x4
 9127 03a9 F3       		.byte	0xf3
 9128 03aa 01       		.uleb128 0x1
 9129 03ab 50       		.byte	0x50
 9130 03ac 9F       		.byte	0x9f
 9131 03ad 30000000 		.4byte	.LVL44
 9132 03b1 36000000 		.4byte	.LVL46
 9133 03b5 0100     		.2byte	0x1
 9134 03b7 50       		.byte	0x50
 9135 03b8 36000000 		.4byte	.LVL46
 9136 03bc 3E000000 		.4byte	.LVL47
 9137 03c0 0400     		.2byte	0x4
 9138 03c2 70       		.byte	0x70
 9139 03c3 B07E     		.sleb128 -208
 9140 03c5 9F       		.byte	0x9f
 9141 03c6 3E000000 		.4byte	.LVL47
 9142 03ca 40000000 		.4byte	.LVL48
 9143 03ce 0400     		.2byte	0x4
 9144 03d0 F3       		.byte	0xf3
 9145 03d1 01       		.uleb128 0x1
 9146 03d2 50       		.byte	0x50
 9147 03d3 9F       		.byte	0x9f
 9148 03d4 40000000 		.4byte	.LVL48
 9149 03d8 42000000 		.4byte	.LVL49
 9150 03dc 0100     		.2byte	0x1
 9151 03de 50       		.byte	0x50
 9152 03df 42000000 		.4byte	.LVL49
 9153 03e3 44000000 		.4byte	.LVL50
 9154 03e7 0400     		.2byte	0x4
 9155 03e9 F3       		.byte	0xf3
 9156 03ea 01       		.uleb128 0x1
 9157 03eb 50       		.byte	0x50
 9158 03ec 9F       		.byte	0x9f
 9159 03ed 44000000 		.4byte	.LVL50
 9160 03f1 46000000 		.4byte	.LVL51
 9161 03f5 0100     		.2byte	0x1
 9162 03f7 50       		.byte	0x50
 9163 03f8 46000000 		.4byte	.LVL51
 9164 03fc 50000000 		.4byte	.LFE217
 9165 0400 0400     		.2byte	0x4
 9166 0402 F3       		.byte	0xf3
 9167 0403 01       		.uleb128 0x1
 9168 0404 50       		.byte	0x50
 9169 0405 9F       		.byte	0x9f
 9170 0406 00000000 		.4byte	0
 9171 040a 00000000 		.4byte	0
 9172              	.LLST18:
 9173 040e 00000000 		.4byte	.LVL40
 9174 0412 1A000000 		.4byte	.LVL41
ARM GAS  C:\Users\gjl\AppData\Local\Temp\ccNVysBX.s 			page 231


 9175 0416 0100     		.2byte	0x1
 9176 0418 51       		.byte	0x51
 9177 0419 1A000000 		.4byte	.LVL41
 9178 041d 30000000 		.4byte	.LVL44
 9179 0421 0400     		.2byte	0x4
 9180 0423 F3       		.byte	0xf3
 9181 0424 01       		.uleb128 0x1
 9182 0425 51       		.byte	0x51
 9183 0426 9F       		.byte	0x9f
 9184 0427 30000000 		.4byte	.LVL44
 9185 042b 34000000 		.4byte	.LVL45
 9186 042f 0100     		.2byte	0x1
 9187 0431 51       		.byte	0x51
 9188 0432 34000000 		.4byte	.LVL45
 9189 0436 40000000 		.4byte	.LVL48
 9190 043a 0400     		.2byte	0x4
 9191 043c F3       		.byte	0xf3
 9192 043d 01       		.uleb128 0x1
 9193 043e 51       		.byte	0x51
 9194 043f 9F       		.byte	0x9f
 9195 0440 40000000 		.4byte	.LVL48
 9196 0444 50000000 		.4byte	.LFE217
 9197 0448 0100     		.2byte	0x1
 9198 044a 51       		.byte	0x51
 9199 044b 00000000 		.4byte	0
 9200 044f 00000000 		.4byte	0
 9201              	.LLST19:
 9202 0453 00000000 		.4byte	.LVL40
 9203 0457 46000000 		.4byte	.LVL51
 9204 045b 0600     		.2byte	0x6
 9205 045d 0C       		.byte	0xc
 9206 045e 01004A00 		.4byte	0x4a0001
 9207 0462 9F       		.byte	0x9f
 9208 0463 46000000 		.4byte	.LVL51
 9209 0467 50000000 		.4byte	.LFE217
 9210 046b 0100     		.2byte	0x1
 9211 046d 50       		.byte	0x50
 9212 046e 00000000 		.4byte	0
 9213 0472 00000000 		.4byte	0
 9214              	.LLST20:
 9215 0476 00000000 		.4byte	.LVL52
 9216 047a 0E000000 		.4byte	.LVL53
 9217 047e 0100     		.2byte	0x1
 9218 0480 50       		.byte	0x50
 9219 0481 0E000000 		.4byte	.LVL53
 9220 0485 26000000 		.4byte	.LVL56
 9221 0489 0100     		.2byte	0x1
 9222 048b 54       		.byte	0x54
 9223 048c 26000000 		.4byte	.LVL56
 9224 0490 32000000 		.4byte	.LVL58
 9225 0494 0400     		.2byte	0x4
 9226 0496 74       		.byte	0x74
 9227 0497 C07E     		.sleb128 -192
 9228 0499 9F       		.byte	0x9f
 9229 049a 32000000 		.4byte	.LVL58
 9230 049e 3C000000 		.4byte	.LFE218
 9231 04a2 0400     		.2byte	0x4
ARM GAS  C:\Users\gjl\AppData\Local\Temp\ccNVysBX.s 			page 232


 9232 04a4 73       		.byte	0x73
 9233 04a5 B07E     		.sleb128 -208
 9234 04a7 9F       		.byte	0x9f
 9235 04a8 00000000 		.4byte	0
 9236 04ac 00000000 		.4byte	0
 9237              	.LLST21:
 9238 04b0 20000000 		.4byte	.LVL55
 9239 04b4 2A000000 		.4byte	.LVL57
 9240 04b8 0100     		.2byte	0x1
 9241 04ba 50       		.byte	0x50
 9242 04bb 32000000 		.4byte	.LVL58
 9243 04bf 3C000000 		.4byte	.LFE218
 9244 04c3 0100     		.2byte	0x1
 9245 04c5 50       		.byte	0x50
 9246 04c6 00000000 		.4byte	0
 9247 04ca 00000000 		.4byte	0
 9248              	.LLST22:
 9249 04ce 00000000 		.4byte	.LVL59
 9250 04d2 0C000000 		.4byte	.LVL61
 9251 04d6 0100     		.2byte	0x1
 9252 04d8 50       		.byte	0x50
 9253 04d9 0C000000 		.4byte	.LVL61
 9254 04dd 3A010000 		.4byte	.LVL82
 9255 04e1 0100     		.2byte	0x1
 9256 04e3 54       		.byte	0x54
 9257 04e4 3A010000 		.4byte	.LVL82
 9258 04e8 50010000 		.4byte	.LFE220
 9259 04ec 0400     		.2byte	0x4
 9260 04ee F3       		.byte	0xf3
 9261 04ef 01       		.uleb128 0x1
 9262 04f0 50       		.byte	0x50
 9263 04f1 9F       		.byte	0x9f
 9264 04f2 00000000 		.4byte	0
 9265 04f6 00000000 		.4byte	0
 9266              	.LLST23:
 9267 04fa 02000000 		.4byte	.LVL60
 9268 04fe 20000000 		.4byte	.LVL63
 9269 0502 0200     		.2byte	0x2
 9270 0504 30       		.byte	0x30
 9271 0505 9F       		.byte	0x9f
 9272 0506 20000000 		.4byte	.LVL63
 9273 050a 3A010000 		.4byte	.LVL82
 9274 050e 0100     		.2byte	0x1
 9275 0510 55       		.byte	0x55
 9276 0511 3A010000 		.4byte	.LVL82
 9277 0515 50010000 		.4byte	.LFE220
 9278 0519 0100     		.2byte	0x1
 9279 051b 50       		.byte	0x50
 9280 051c 00000000 		.4byte	0
 9281 0520 00000000 		.4byte	0
 9282              	.LLST24:
 9283 0524 3E000000 		.4byte	.LVL65
 9284 0528 4A000000 		.4byte	.LVL66
 9285 052c 0100     		.2byte	0x1
 9286 052e 52       		.byte	0x52
 9287 052f 4A000000 		.4byte	.LVL66
 9288 0533 4E000000 		.4byte	.LVL67
ARM GAS  C:\Users\gjl\AppData\Local\Temp\ccNVysBX.s 			page 233


 9289 0537 0A00     		.2byte	0xa
 9290 0539 74       		.byte	0x74
 9291 053a 00       		.sleb128 0
 9292 053b 06       		.byte	0x6
 9293 053c 09       		.byte	0x9
 9294 053d F2       		.byte	0xf2
 9295 053e 24       		.byte	0x24
 9296 053f 09       		.byte	0x9
 9297 0540 F2       		.byte	0xf2
 9298 0541 25       		.byte	0x25
 9299 0542 9F       		.byte	0x9f
 9300 0543 78000000 		.4byte	.LVL70
 9301 0547 92000000 		.4byte	.LVL71
 9302 054b 0100     		.2byte	0x1
 9303 054d 51       		.byte	0x51
 9304 054e C0000000 		.4byte	.LVL75
 9305 0552 DE000000 		.4byte	.LVL78
 9306 0556 0100     		.2byte	0x1
 9307 0558 52       		.byte	0x52
 9308 0559 DE000000 		.4byte	.LVL78
 9309 055d E2000000 		.4byte	.LVL79
 9310 0561 1F00     		.2byte	0x1f
 9311 0563 71       		.byte	0x71
 9312 0564 00       		.sleb128 0
 9313 0565 38       		.byte	0x38
 9314 0566 24       		.byte	0x24
 9315 0567 0C       		.byte	0xc
 9316 0568 00FF1F00 		.4byte	0x1fff00
 9317 056c 1A       		.byte	0x1a
 9318 056d 74       		.byte	0x74
 9319 056e 0A       		.sleb128 10
 9320 056f 94       		.byte	0x94
 9321 0570 01       		.byte	0x1
 9322 0571 3F       		.byte	0x3f
 9323 0572 1A       		.byte	0x1a
 9324 0573 08       		.byte	0x8
 9325 0574 FF       		.byte	0xff
 9326 0575 1A       		.byte	0x1a
 9327 0576 21       		.byte	0x21
 9328 0577 74       		.byte	0x74
 9329 0578 0B       		.sleb128 11
 9330 0579 94       		.byte	0x94
 9331 057a 01       		.byte	0x1
 9332 057b 34       		.byte	0x34
 9333 057c 24       		.byte	0x24
 9334 057d 08       		.byte	0x8
 9335 057e FF       		.byte	0xff
 9336 057f 1A       		.byte	0x1a
 9337 0580 21       		.byte	0x21
 9338 0581 9F       		.byte	0x9f
 9339 0582 00000000 		.4byte	0
 9340 0586 00000000 		.4byte	0
 9341              	.LLST25:
 9342 058a 00000000 		.4byte	.LVL83
 9343 058e 1E000000 		.4byte	.LVL85
 9344 0592 0100     		.2byte	0x1
 9345 0594 50       		.byte	0x50
ARM GAS  C:\Users\gjl\AppData\Local\Temp\ccNVysBX.s 			page 234


 9346 0595 1E000000 		.4byte	.LVL85
 9347 0599 48000000 		.4byte	.LVL86
 9348 059d 0300     		.2byte	0x3
 9349 059f 91       		.byte	0x91
 9350 05a0 DC7E     		.sleb128 -164
 9351 05a2 48000000 		.4byte	.LVL86
 9352 05a6 4A000000 		.4byte	.LVL87
 9353 05aa 0100     		.2byte	0x1
 9354 05ac 50       		.byte	0x50
 9355 05ad 4A000000 		.4byte	.LVL87
 9356 05b1 04010000 		.4byte	.LVL93
 9357 05b5 0300     		.2byte	0x3
 9358 05b7 91       		.byte	0x91
 9359 05b8 DC7E     		.sleb128 -164
 9360 05ba 04010000 		.4byte	.LVL93
 9361 05be 0A010000 		.4byte	.LVL94
 9362 05c2 0400     		.2byte	0x4
 9363 05c4 F3       		.byte	0xf3
 9364 05c5 01       		.uleb128 0x1
 9365 05c6 50       		.byte	0x50
 9366 05c7 9F       		.byte	0x9f
 9367 05c8 0A010000 		.4byte	.LVL94
 9368 05cc 0C010000 		.4byte	.LVL95
 9369 05d0 0300     		.2byte	0x3
 9370 05d2 91       		.byte	0x91
 9371 05d3 DC7E     		.sleb128 -164
 9372 05d5 0C010000 		.4byte	.LVL95
 9373 05d9 18030000 		.4byte	.LVL119
 9374 05dd 0400     		.2byte	0x4
 9375 05df F3       		.byte	0xf3
 9376 05e0 01       		.uleb128 0x1
 9377 05e1 50       		.byte	0x50
 9378 05e2 9F       		.byte	0x9f
 9379 05e3 18030000 		.4byte	.LVL119
 9380 05e7 2E030000 		.4byte	.LVL122
 9381 05eb 0300     		.2byte	0x3
 9382 05ed 91       		.byte	0x91
 9383 05ee DC7E     		.sleb128 -164
 9384 05f0 2E030000 		.4byte	.LVL122
 9385 05f4 7C030000 		.4byte	.LFE219
 9386 05f8 0400     		.2byte	0x4
 9387 05fa F3       		.byte	0xf3
 9388 05fb 01       		.uleb128 0x1
 9389 05fc 50       		.byte	0x50
 9390 05fd 9F       		.byte	0x9f
 9391 05fe 00000000 		.4byte	0
 9392 0602 00000000 		.4byte	0
 9393              	.LLST26:
 9394 0606 00000000 		.4byte	.LVL83
 9395 060a 6B000000 		.4byte	.LVL89-1
 9396 060e 0100     		.2byte	0x1
 9397 0610 51       		.byte	0x51
 9398 0611 6B000000 		.4byte	.LVL89-1
 9399 0615 94020000 		.4byte	.LVL110
 9400 0619 0200     		.2byte	0x2
 9401 061b 90       		.byte	0x90
 9402 061c 51       		.uleb128 0x51
ARM GAS  C:\Users\gjl\AppData\Local\Temp\ccNVysBX.s 			page 235


 9403 061d 94020000 		.4byte	.LVL110
 9404 0621 18030000 		.4byte	.LVL119
 9405 0625 0400     		.2byte	0x4
 9406 0627 F3       		.byte	0xf3
 9407 0628 01       		.uleb128 0x1
 9408 0629 51       		.byte	0x51
 9409 062a 9F       		.byte	0x9f
 9410 062b 18030000 		.4byte	.LVL119
 9411 062f 1A030000 		.4byte	.LVL120
 9412 0633 0100     		.2byte	0x1
 9413 0635 51       		.byte	0x51
 9414 0636 1A030000 		.4byte	.LVL120
 9415 063a 7C030000 		.4byte	.LFE219
 9416 063e 0400     		.2byte	0x4
 9417 0640 F3       		.byte	0xf3
 9418 0641 01       		.uleb128 0x1
 9419 0642 51       		.byte	0x51
 9420 0643 9F       		.byte	0x9f
 9421 0644 00000000 		.4byte	0
 9422 0648 00000000 		.4byte	0
 9423              	.LLST27:
 9424 064c 00000000 		.4byte	.LVL83
 9425 0650 6B000000 		.4byte	.LVL89-1
 9426 0654 0100     		.2byte	0x1
 9427 0656 52       		.byte	0x52
 9428 0657 6B000000 		.4byte	.LVL89-1
 9429 065b 18030000 		.4byte	.LVL119
 9430 065f 0400     		.2byte	0x4
 9431 0661 F3       		.byte	0xf3
 9432 0662 01       		.uleb128 0x1
 9433 0663 52       		.byte	0x52
 9434 0664 9F       		.byte	0x9f
 9435 0665 18030000 		.4byte	.LVL119
 9436 0669 24030000 		.4byte	.LVL121
 9437 066d 0100     		.2byte	0x1
 9438 066f 52       		.byte	0x52
 9439 0670 24030000 		.4byte	.LVL121
 9440 0674 7C030000 		.4byte	.LFE219
 9441 0678 0400     		.2byte	0x4
 9442 067a F3       		.byte	0xf3
 9443 067b 01       		.uleb128 0x1
 9444 067c 52       		.byte	0x52
 9445 067d 9F       		.byte	0x9f
 9446 067e 00000000 		.4byte	0
 9447 0682 00000000 		.4byte	0
 9448              	.LLST28:
 9449 0686 0A000000 		.4byte	.LVL84
 9450 068a 52000000 		.4byte	.LVL88
 9451 068e 0200     		.2byte	0x2
 9452 0690 30       		.byte	0x30
 9453 0691 9F       		.byte	0x9f
 9454 0692 52000000 		.4byte	.LVL88
 9455 0696 6B000000 		.4byte	.LVL89-1
 9456 069a 0100     		.2byte	0x1
 9457 069c 50       		.byte	0x50
 9458 069d 16030000 		.4byte	.LVL118
 9459 06a1 7C030000 		.4byte	.LFE219
ARM GAS  C:\Users\gjl\AppData\Local\Temp\ccNVysBX.s 			page 236


 9460 06a5 0100     		.2byte	0x1
 9461 06a7 50       		.byte	0x50
 9462 06a8 00000000 		.4byte	0
 9463 06ac 00000000 		.4byte	0
 9464              	.LLST29:
 9465 06b0 7E000000 		.4byte	.LVL91
 9466 06b4 18030000 		.4byte	.LVL119
 9467 06b8 0100     		.2byte	0x1
 9468 06ba 54       		.byte	0x54
 9469 06bb 00000000 		.4byte	0
 9470 06bf 00000000 		.4byte	0
 9471              	.LLST30:
 9472 06c3 6E000000 		.4byte	.LVL90
 9473 06c7 18030000 		.4byte	.LVL119
 9474 06cb 0B00     		.2byte	0xb
 9475 06cd 75       		.byte	0x75
 9476 06ce 00       		.sleb128 0
 9477 06cf 0A       		.byte	0xa
 9478 06d0 FFFF     		.2byte	0xffff
 9479 06d2 1A       		.byte	0x1a
 9480 06d3 0A       		.byte	0xa
 9481 06d4 1101     		.2byte	0x111
 9482 06d6 29       		.byte	0x29
 9483 06d7 9F       		.byte	0x9f
 9484 06d8 00000000 		.4byte	0
 9485 06dc 00000000 		.4byte	0
 9486              	.LLST31:
 9487 06e0 68010000 		.4byte	.LVL97
 9488 06e4 80010000 		.4byte	.LVL98
 9489 06e8 0200     		.2byte	0x2
 9490 06ea 90       		.byte	0x90
 9491 06eb 4E       		.uleb128 0x4e
 9492 06ec 80010000 		.4byte	.LVL98
 9493 06f0 8C010000 		.4byte	.LVL100
 9494 06f4 0F00     		.2byte	0xf
 9495 06f6 77       		.byte	0x77
 9496 06f7 A87F     		.sleb128 -88
 9497 06f9 F6       		.byte	0xf6
 9498 06fa 04       		.byte	0x4
 9499 06fb 25       		.uleb128 0x25
 9500 06fc F5       		.byte	0xf5
 9501 06fd 4C       		.uleb128 0x4c
 9502 06fe 25       		.uleb128 0x25
 9503 06ff 1E       		.byte	0x1e
 9504 0700 F5       		.byte	0xf5
 9505 0701 4D       		.uleb128 0x4d
 9506 0702 25       		.uleb128 0x25
 9507 0703 1B       		.byte	0x1b
 9508 0704 9F       		.byte	0x9f
 9509 0705 00000000 		.4byte	0
 9510 0709 00000000 		.4byte	0
 9511              	.LLST32:
 9512 070d 88010000 		.4byte	.LVL99
 9513 0711 2E020000 		.4byte	.LVL101
 9514 0715 0200     		.2byte	0x2
 9515 0717 90       		.byte	0x90
 9516 0718 4E       		.uleb128 0x4e
ARM GAS  C:\Users\gjl\AppData\Local\Temp\ccNVysBX.s 			page 237


 9517 0719 2E020000 		.4byte	.LVL101
 9518 071d 35020000 		.4byte	.LVL102-1
 9519 0721 0C00     		.2byte	0xc
 9520 0723 F5       		.byte	0xf5
 9521 0724 4B       		.uleb128 0x4b
 9522 0725 25       		.uleb128 0x25
 9523 0726 F4       		.byte	0xf4
 9524 0727 25       		.uleb128 0x25
 9525 0728 04       		.byte	0x4
 9526 0729 00007A44 		.4byte	0x447a0000
 9527 072d 1B       		.byte	0x1b
 9528 072e 9F       		.byte	0x9f
 9529 072f 00000000 		.4byte	0
 9530 0733 00000000 		.4byte	0
 9531              	.LLST33:
 9532 0737 90020000 		.4byte	.LVL109
 9533 073b 18030000 		.4byte	.LVL119
 9534 073f 0200     		.2byte	0x2
 9535 0741 90       		.byte	0x90
 9536 0742 53       		.uleb128 0x53
 9537 0743 00000000 		.4byte	0
 9538 0747 00000000 		.4byte	0
 9539              	.LLST34:
 9540 074b 9C020000 		.4byte	.LVL111
 9541 074f 18030000 		.4byte	.LVL119
 9542 0753 0200     		.2byte	0x2
 9543 0755 90       		.byte	0x90
 9544 0756 54       		.uleb128 0x54
 9545 0757 00000000 		.4byte	0
 9546 075b 00000000 		.4byte	0
 9547              	.LLST35:
 9548 075f B0020000 		.4byte	.LVL113
 9549 0763 BC020000 		.4byte	.LVL114
 9550 0767 0100     		.2byte	0x1
 9551 0769 50       		.byte	0x50
 9552 076a BC020000 		.4byte	.LVL114
 9553 076e 18030000 		.4byte	.LVL119
 9554 0772 0200     		.2byte	0x2
 9555 0774 90       		.byte	0x90
 9556 0775 50       		.uleb128 0x50
 9557 0776 00000000 		.4byte	0
 9558 077a 00000000 		.4byte	0
 9559              	.LLST36:
 9560 077e C4020000 		.4byte	.LVL116
 9561 0782 12030000 		.4byte	.LVL117
 9562 0786 0100     		.2byte	0x1
 9563 0788 50       		.byte	0x50
 9564 0789 00000000 		.4byte	0
 9565 078d 00000000 		.4byte	0
 9566              	.LLST37:
 9567 0791 00000000 		.4byte	.LVL123
 9568 0795 0C000000 		.4byte	.LVL124
 9569 0799 0100     		.2byte	0x1
 9570 079b 50       		.byte	0x50
 9571 079c 0C000000 		.4byte	.LVL124
 9572 07a0 5A000000 		.4byte	.LVL132
 9573 07a4 0100     		.2byte	0x1
ARM GAS  C:\Users\gjl\AppData\Local\Temp\ccNVysBX.s 			page 238


 9574 07a6 54       		.byte	0x54
 9575 07a7 5A000000 		.4byte	.LVL132
 9576 07ab 64000000 		.4byte	.LFE221
 9577 07af 0400     		.2byte	0x4
 9578 07b1 F3       		.byte	0xf3
 9579 07b2 01       		.uleb128 0x1
 9580 07b3 50       		.byte	0x50
 9581 07b4 9F       		.byte	0x9f
 9582 07b5 00000000 		.4byte	0
 9583 07b9 00000000 		.4byte	0
 9584              	.LLST38:
 9585 07bd 16000000 		.4byte	.LVL126
 9586 07c1 20000000 		.4byte	.LVL127
 9587 07c5 0100     		.2byte	0x1
 9588 07c7 53       		.byte	0x53
 9589 07c8 26000000 		.4byte	.LVL128
 9590 07cc 30000000 		.4byte	.LVL129
 9591 07d0 0100     		.2byte	0x1
 9592 07d2 53       		.byte	0x53
 9593 07d3 36000000 		.4byte	.LVL130
 9594 07d7 4C000000 		.4byte	.LVL131
 9595 07db 0100     		.2byte	0x1
 9596 07dd 53       		.byte	0x53
 9597 07de 00000000 		.4byte	0
 9598 07e2 00000000 		.4byte	0
 9599              	.LLST39:
 9600 07e6 00000000 		.4byte	.LVL133
 9601 07ea 16000000 		.4byte	.LVL135
 9602 07ee 0100     		.2byte	0x1
 9603 07f0 50       		.byte	0x50
 9604 07f1 16000000 		.4byte	.LVL135
 9605 07f5 AC000000 		.4byte	.LVL142
 9606 07f9 0100     		.2byte	0x1
 9607 07fb 54       		.byte	0x54
 9608 07fc 00000000 		.4byte	0
 9609 0800 00000000 		.4byte	0
 9610              	.LLST40:
 9611 0804 04000000 		.4byte	.LVL134
 9612 0808 16000000 		.4byte	.LVL135
 9613 080c 0500     		.2byte	0x5
 9614 080e 70       		.byte	0x70
 9615 080f 00       		.sleb128 0
 9616 0810 30       		.byte	0x30
 9617 0811 2E       		.byte	0x2e
 9618 0812 9F       		.byte	0x9f
 9619 0813 16000000 		.4byte	.LVL135
 9620 0817 AC000000 		.4byte	.LVL142
 9621 081b 0500     		.2byte	0x5
 9622 081d 75       		.byte	0x75
 9623 081e 00       		.sleb128 0
 9624 081f 30       		.byte	0x30
 9625 0820 2E       		.byte	0x2e
 9626 0821 9F       		.byte	0x9f
 9627 0822 AC000000 		.4byte	.LVL142
 9628 0826 B4000000 		.4byte	.LFE222
 9629 082a 0600     		.2byte	0x6
 9630 082c F3       		.byte	0xf3
ARM GAS  C:\Users\gjl\AppData\Local\Temp\ccNVysBX.s 			page 239


 9631 082d 01       		.uleb128 0x1
 9632 082e 50       		.byte	0x50
 9633 082f 30       		.byte	0x30
 9634 0830 2E       		.byte	0x2e
 9635 0831 9F       		.byte	0x9f
 9636 0832 00000000 		.4byte	0
 9637 0836 00000000 		.4byte	0
 9638              	.LLST41:
 9639 083a 00000000 		.4byte	.LVL143
 9640 083e 64000000 		.4byte	.LVL146
 9641 0842 0100     		.2byte	0x1
 9642 0844 50       		.byte	0x50
 9643 0845 64000000 		.4byte	.LVL146
 9644 0849 9E000000 		.4byte	.LVL147
 9645 084d 0100     		.2byte	0x1
 9646 084f 53       		.byte	0x53
 9647 0850 9E000000 		.4byte	.LVL147
 9648 0854 B4000000 		.4byte	.LVL148
 9649 0858 0400     		.2byte	0x4
 9650 085a 73       		.byte	0x73
 9651 085b 807D     		.sleb128 -384
 9652 085d 9F       		.byte	0x9f
 9653 085e 00000000 		.4byte	0
 9654 0862 00000000 		.4byte	0
 9655              	.LLST42:
 9656 0866 02000000 		.4byte	.LVL144
 9657 086a 60000000 		.4byte	.LVL145
 9658 086e 0200     		.2byte	0x2
 9659 0870 30       		.byte	0x30
 9660 0871 9F       		.byte	0x9f
 9661 0872 60000000 		.4byte	.LVL145
 9662 0876 B8000000 		.4byte	.LVL149
 9663 087a 0100     		.2byte	0x1
 9664 087c 55       		.byte	0x55
 9665 087d B8000000 		.4byte	.LVL149
 9666 0881 C8000000 		.4byte	.LFE224
 9667 0885 0100     		.2byte	0x1
 9668 0887 50       		.byte	0x50
 9669 0888 00000000 		.4byte	0
 9670 088c 00000000 		.4byte	0
 9671              	.LLST43:
 9672 0890 00000000 		.4byte	.LVL150
 9673 0894 42000000 		.4byte	.LVL152
 9674 0898 0100     		.2byte	0x1
 9675 089a 50       		.byte	0x50
 9676 089b 42000000 		.4byte	.LVL152
 9677 089f 44000000 		.4byte	.LVL153
 9678 08a3 0100     		.2byte	0x1
 9679 08a5 5A       		.byte	0x5a
 9680 08a6 44000000 		.4byte	.LVL153
 9681 08aa 46000000 		.4byte	.LVL154
 9682 08ae 0100     		.2byte	0x1
 9683 08b0 50       		.byte	0x50
 9684 08b1 46000000 		.4byte	.LVL154
 9685 08b5 48000000 		.4byte	.LVL155
 9686 08b9 0100     		.2byte	0x1
 9687 08bb 5A       		.byte	0x5a
ARM GAS  C:\Users\gjl\AppData\Local\Temp\ccNVysBX.s 			page 240


 9688 08bc 48000000 		.4byte	.LVL155
 9689 08c0 4A000000 		.4byte	.LVL156
 9690 08c4 0100     		.2byte	0x1
 9691 08c6 50       		.byte	0x50
 9692 08c7 4A000000 		.4byte	.LVL156
 9693 08cb 4C000000 		.4byte	.LVL157
 9694 08cf 0100     		.2byte	0x1
 9695 08d1 5A       		.byte	0x5a
 9696 08d2 4C000000 		.4byte	.LVL157
 9697 08d6 4E000000 		.4byte	.LVL158
 9698 08da 0100     		.2byte	0x1
 9699 08dc 50       		.byte	0x50
 9700 08dd 4E000000 		.4byte	.LVL158
 9701 08e1 50000000 		.4byte	.LVL159
 9702 08e5 0100     		.2byte	0x1
 9703 08e7 5A       		.byte	0x5a
 9704 08e8 50000000 		.4byte	.LVL159
 9705 08ec 52000000 		.4byte	.LVL160
 9706 08f0 0100     		.2byte	0x1
 9707 08f2 50       		.byte	0x50
 9708 08f3 52000000 		.4byte	.LVL160
 9709 08f7 54000000 		.4byte	.LVL161
 9710 08fb 0100     		.2byte	0x1
 9711 08fd 5A       		.byte	0x5a
 9712 08fe 54000000 		.4byte	.LVL161
 9713 0902 56000000 		.4byte	.LVL162
 9714 0906 0100     		.2byte	0x1
 9715 0908 50       		.byte	0x50
 9716 0909 56000000 		.4byte	.LVL162
 9717 090d 3E010000 		.4byte	.LVL180
 9718 0911 0100     		.2byte	0x1
 9719 0913 5A       		.byte	0x5a
 9720 0914 3E010000 		.4byte	.LVL180
 9721 0918 68010000 		.4byte	.LFE223
 9722 091c 0400     		.2byte	0x4
 9723 091e F3       		.byte	0xf3
 9724 091f 01       		.uleb128 0x1
 9725 0920 50       		.byte	0x50
 9726 0921 9F       		.byte	0x9f
 9727 0922 00000000 		.4byte	0
 9728 0926 00000000 		.4byte	0
 9729              	.LLST44:
 9730 092a 00000000 		.4byte	.LVL150
 9731 092e 76000000 		.4byte	.LVL163
 9732 0932 0100     		.2byte	0x1
 9733 0934 51       		.byte	0x51
 9734 0935 76000000 		.4byte	.LVL163
 9735 0939 14010000 		.4byte	.LVL176
 9736 093d 0100     		.2byte	0x1
 9737 093f 58       		.byte	0x58
 9738 0940 14010000 		.4byte	.LVL176
 9739 0944 18010000 		.4byte	.LVL177
 9740 0948 0100     		.2byte	0x1
 9741 094a 51       		.byte	0x51
 9742 094b 18010000 		.4byte	.LVL177
 9743 094f 38010000 		.4byte	.LVL179
 9744 0953 0100     		.2byte	0x1
ARM GAS  C:\Users\gjl\AppData\Local\Temp\ccNVysBX.s 			page 241


 9745 0955 58       		.byte	0x58
 9746 0956 38010000 		.4byte	.LVL179
 9747 095a 68010000 		.4byte	.LFE223
 9748 095e 0400     		.2byte	0x4
 9749 0960 F3       		.byte	0xf3
 9750 0961 01       		.uleb128 0x1
 9751 0962 51       		.byte	0x51
 9752 0963 9F       		.byte	0x9f
 9753 0964 00000000 		.4byte	0
 9754 0968 00000000 		.4byte	0
 9755              	.LLST45:
 9756 096c 08000000 		.4byte	.LVL151
 9757 0970 56000000 		.4byte	.LVL162
 9758 0974 0200     		.2byte	0x2
 9759 0976 30       		.byte	0x30
 9760 0977 9F       		.byte	0x9f
 9761 0978 56000000 		.4byte	.LVL162
 9762 097c 76000000 		.4byte	.LVL163
 9763 0980 0100     		.2byte	0x1
 9764 0982 50       		.byte	0x50
 9765 0983 14010000 		.4byte	.LVL176
 9766 0987 18010000 		.4byte	.LVL177
 9767 098b 0100     		.2byte	0x1
 9768 098d 50       		.byte	0x50
 9769 098e 38010000 		.4byte	.LVL179
 9770 0992 68010000 		.4byte	.LFE223
 9771 0996 0100     		.2byte	0x1
 9772 0998 50       		.byte	0x50
 9773 0999 00000000 		.4byte	0
 9774 099d 00000000 		.4byte	0
 9775              	.LLST46:
 9776 09a1 88000000 		.4byte	.LVL164
 9777 09a5 14010000 		.4byte	.LVL176
 9778 09a9 0100     		.2byte	0x1
 9779 09ab 55       		.byte	0x55
 9780 09ac 00000000 		.4byte	0
 9781 09b0 00000000 		.4byte	0
 9782              	.LLST47:
 9783 09b4 76000000 		.4byte	.LVL163
 9784 09b8 14010000 		.4byte	.LVL176
 9785 09bc 0100     		.2byte	0x1
 9786 09be 57       		.byte	0x57
 9787 09bf 18010000 		.4byte	.LVL177
 9788 09c3 24010000 		.4byte	.LVL178
 9789 09c7 0100     		.2byte	0x1
 9790 09c9 57       		.byte	0x57
 9791 09ca 00000000 		.4byte	0
 9792 09ce 00000000 		.4byte	0
 9793              	.LLST48:
 9794 09d2 BA000000 		.4byte	.LVL166
 9795 09d6 F0000000 		.4byte	.LVL171
 9796 09da 0100     		.2byte	0x1
 9797 09dc 52       		.byte	0x52
 9798 09dd F2000000 		.4byte	.LVL172
 9799 09e1 FA000000 		.4byte	.LVL173
 9800 09e5 0100     		.2byte	0x1
 9801 09e7 52       		.byte	0x52
ARM GAS  C:\Users\gjl\AppData\Local\Temp\ccNVysBX.s 			page 242


 9802 09e8 00000000 		.4byte	0
 9803 09ec 00000000 		.4byte	0
 9804              	.LLST49:
 9805 09f0 76000000 		.4byte	.LVL163
 9806 09f4 DE000000 		.4byte	.LVL168
 9807 09f8 0100     		.2byte	0x1
 9808 09fa 56       		.byte	0x56
 9809 09fb DE000000 		.4byte	.LVL168
 9810 09ff EC000000 		.4byte	.LVL169
 9811 0a03 0100     		.2byte	0x1
 9812 0a05 53       		.byte	0x53
 9813 0a06 EC000000 		.4byte	.LVL169
 9814 0a0a 14010000 		.4byte	.LVL176
 9815 0a0e 0100     		.2byte	0x1
 9816 0a10 56       		.byte	0x56
 9817 0a11 18010000 		.4byte	.LVL177
 9818 0a15 24010000 		.4byte	.LVL178
 9819 0a19 0100     		.2byte	0x1
 9820 0a1b 56       		.byte	0x56
 9821 0a1c 00000000 		.4byte	0
 9822 0a20 00000000 		.4byte	0
 9823              	.LLST50:
 9824 0a24 98000000 		.4byte	.LVL165
 9825 0a28 BA000000 		.4byte	.LVL166
 9826 0a2c 0100     		.2byte	0x1
 9827 0a2e 50       		.byte	0x50
 9828 0a2f F0000000 		.4byte	.LVL171
 9829 0a33 F2000000 		.4byte	.LVL172
 9830 0a37 0100     		.2byte	0x1
 9831 0a39 50       		.byte	0x50
 9832 0a3a 00000000 		.4byte	0
 9833 0a3e 00000000 		.4byte	0
 9834              	.LLST51:
 9835 0a42 CA000000 		.4byte	.LVL167
 9836 0a46 F0000000 		.4byte	.LVL171
 9837 0a4a 0100     		.2byte	0x1
 9838 0a4c 53       		.byte	0x53
 9839 0a4d 00000000 		.4byte	0
 9840 0a51 00000000 		.4byte	0
 9841              	.LLST52:
 9842 0a55 00000000 		.4byte	.LVL181
 9843 0a59 08000000 		.4byte	.LVL182
 9844 0a5d 0100     		.2byte	0x1
 9845 0a5f 50       		.byte	0x50
 9846 0a60 08000000 		.4byte	.LVL182
 9847 0a64 20000000 		.4byte	.LVL184
 9848 0a68 0400     		.2byte	0x4
 9849 0a6a 70       		.byte	0x70
 9850 0a6b 817D     		.sleb128 -383
 9851 0a6d 9F       		.byte	0x9f
 9852 0a6e 20000000 		.4byte	.LVL184
 9853 0a72 36000000 		.4byte	.LVL187
 9854 0a76 0400     		.2byte	0x4
 9855 0a78 F3       		.byte	0xf3
 9856 0a79 01       		.uleb128 0x1
 9857 0a7a 50       		.byte	0x50
 9858 0a7b 9F       		.byte	0x9f
ARM GAS  C:\Users\gjl\AppData\Local\Temp\ccNVysBX.s 			page 243


 9859 0a7c 36000000 		.4byte	.LVL187
 9860 0a80 38000000 		.4byte	.LVL188
 9861 0a84 0100     		.2byte	0x1
 9862 0a86 50       		.byte	0x50
 9863 0a87 38000000 		.4byte	.LVL188
 9864 0a8b 44000000 		.4byte	.LFE225
 9865 0a8f 0400     		.2byte	0x4
 9866 0a91 F3       		.byte	0xf3
 9867 0a92 01       		.uleb128 0x1
 9868 0a93 50       		.byte	0x50
 9869 0a94 9F       		.byte	0x9f
 9870 0a95 00000000 		.4byte	0
 9871 0a99 00000000 		.4byte	0
 9872              	.LLST53:
 9873 0a9d 00000000 		.4byte	.LVL181
 9874 0aa1 32000000 		.4byte	.LVL186
 9875 0aa5 0600     		.2byte	0x6
 9876 0aa7 0C       		.byte	0xc
 9877 0aa8 01004A00 		.4byte	0x4a0001
 9878 0aac 9F       		.byte	0x9f
 9879 0aad 32000000 		.4byte	.LVL186
 9880 0ab1 36000000 		.4byte	.LVL187
 9881 0ab5 0200     		.2byte	0x2
 9882 0ab7 30       		.byte	0x30
 9883 0ab8 9F       		.byte	0x9f
 9884 0ab9 36000000 		.4byte	.LVL187
 9885 0abd 38000000 		.4byte	.LVL188
 9886 0ac1 0600     		.2byte	0x6
 9887 0ac3 0C       		.byte	0xc
 9888 0ac4 01004A00 		.4byte	0x4a0001
 9889 0ac8 9F       		.byte	0x9f
 9890 0ac9 38000000 		.4byte	.LVL188
 9891 0acd 44000000 		.4byte	.LFE225
 9892 0ad1 0100     		.2byte	0x1
 9893 0ad3 50       		.byte	0x50
 9894 0ad4 00000000 		.4byte	0
 9895 0ad8 00000000 		.4byte	0
 9896              	.LLST54:
 9897 0adc 0E000000 		.4byte	.LVL183
 9898 0ae0 30000000 		.4byte	.LVL185
 9899 0ae4 0100     		.2byte	0x1
 9900 0ae6 52       		.byte	0x52
 9901 0ae7 00000000 		.4byte	0
 9902 0aeb 00000000 		.4byte	0
 9903              	.LLST55:
 9904 0aef 00000000 		.4byte	.LVL189
 9905 0af3 0A000000 		.4byte	.LVL190
 9906 0af7 0100     		.2byte	0x1
 9907 0af9 50       		.byte	0x50
 9908 0afa 0A000000 		.4byte	.LVL190
 9909 0afe 40000000 		.4byte	.LVL194
 9910 0b02 0100     		.2byte	0x1
 9911 0b04 55       		.byte	0x55
 9912 0b05 40000000 		.4byte	.LVL194
 9913 0b09 42000000 		.4byte	.LVL195
 9914 0b0d 0100     		.2byte	0x1
 9915 0b0f 50       		.byte	0x50
ARM GAS  C:\Users\gjl\AppData\Local\Temp\ccNVysBX.s 			page 244


 9916 0b10 42000000 		.4byte	.LVL195
 9917 0b14 44000000 		.4byte	.LVL196
 9918 0b18 0400     		.2byte	0x4
 9919 0b1a F3       		.byte	0xf3
 9920 0b1b 01       		.uleb128 0x1
 9921 0b1c 50       		.byte	0x50
 9922 0b1d 9F       		.byte	0x9f
 9923 0b1e 44000000 		.4byte	.LVL196
 9924 0b22 48000000 		.4byte	.LVL198
 9925 0b26 0100     		.2byte	0x1
 9926 0b28 55       		.byte	0x55
 9927 0b29 48000000 		.4byte	.LVL198
 9928 0b2d 54000000 		.4byte	.LFE226
 9929 0b31 0600     		.2byte	0x6
 9930 0b33 F3       		.byte	0xf3
 9931 0b34 01       		.uleb128 0x1
 9932 0b35 50       		.byte	0x50
 9933 0b36 31       		.byte	0x31
 9934 0b37 1C       		.byte	0x1c
 9935 0b38 9F       		.byte	0x9f
 9936 0b39 00000000 		.4byte	0
 9937 0b3d 00000000 		.4byte	0
 9938              	.LLST56:
 9939 0b41 00000000 		.4byte	.LVL189
 9940 0b45 1E000000 		.4byte	.LVL191
 9941 0b49 0100     		.2byte	0x1
 9942 0b4b 51       		.byte	0x51
 9943 0b4c 1E000000 		.4byte	.LVL191
 9944 0b50 40000000 		.4byte	.LVL194
 9945 0b54 0100     		.2byte	0x1
 9946 0b56 54       		.byte	0x54
 9947 0b57 40000000 		.4byte	.LVL194
 9948 0b5b 44000000 		.4byte	.LVL196
 9949 0b5f 0100     		.2byte	0x1
 9950 0b61 51       		.byte	0x51
 9951 0b62 44000000 		.4byte	.LVL196
 9952 0b66 48000000 		.4byte	.LVL198
 9953 0b6a 0100     		.2byte	0x1
 9954 0b6c 54       		.byte	0x54
 9955 0b6d 00000000 		.4byte	0
 9956 0b71 00000000 		.4byte	0
 9957              	.LLST57:
 9958 0b75 00000000 		.4byte	.LVL189
 9959 0b79 42000000 		.4byte	.LVL195
 9960 0b7d 0600     		.2byte	0x6
 9961 0b7f 0C       		.byte	0xc
 9962 0b80 01004A00 		.4byte	0x4a0001
 9963 0b84 9F       		.byte	0x9f
 9964 0b85 42000000 		.4byte	.LVL195
 9965 0b89 44000000 		.4byte	.LVL196
 9966 0b8d 0100     		.2byte	0x1
 9967 0b8f 50       		.byte	0x50
 9968 0b90 44000000 		.4byte	.LVL196
 9969 0b94 46000000 		.4byte	.LVL197
 9970 0b98 0600     		.2byte	0x6
 9971 0b9a 0C       		.byte	0xc
 9972 0b9b 01004A00 		.4byte	0x4a0001
ARM GAS  C:\Users\gjl\AppData\Local\Temp\ccNVysBX.s 			page 245


 9973 0b9f 9F       		.byte	0x9f
 9974 0ba0 46000000 		.4byte	.LVL197
 9975 0ba4 54000000 		.4byte	.LFE226
 9976 0ba8 0100     		.2byte	0x1
 9977 0baa 50       		.byte	0x50
 9978 0bab 00000000 		.4byte	0
 9979 0baf 00000000 		.4byte	0
 9980              	.LLST58:
 9981 0bb3 00000000 		.4byte	.LVL199
 9982 0bb7 44000000 		.4byte	.LVL201
 9983 0bbb 0100     		.2byte	0x1
 9984 0bbd 50       		.byte	0x50
 9985 0bbe 44000000 		.4byte	.LVL201
 9986 0bc2 5C000000 		.4byte	.LVL202
 9987 0bc6 0400     		.2byte	0x4
 9988 0bc8 F3       		.byte	0xf3
 9989 0bc9 01       		.uleb128 0x1
 9990 0bca 50       		.byte	0x50
 9991 0bcb 9F       		.byte	0x9f
 9992 0bcc 5C000000 		.4byte	.LVL202
 9993 0bd0 70000000 		.4byte	.LVL203
 9994 0bd4 0100     		.2byte	0x1
 9995 0bd6 50       		.byte	0x50
 9996 0bd7 70000000 		.4byte	.LVL203
 9997 0bdb 78000000 		.4byte	.LVL204
 9998 0bdf 0400     		.2byte	0x4
 9999 0be1 F3       		.byte	0xf3
 10000 0be2 01       		.uleb128 0x1
 10001 0be3 50       		.byte	0x50
 10002 0be4 9F       		.byte	0x9f
 10003 0be5 78000000 		.4byte	.LVL204
 10004 0be9 BC000000 		.4byte	.LVL205
 10005 0bed 0100     		.2byte	0x1
 10006 0bef 50       		.byte	0x50
 10007 0bf0 BC000000 		.4byte	.LVL205
 10008 0bf4 5C010000 		.4byte	.LVL207
 10009 0bf8 0400     		.2byte	0x4
 10010 0bfa F3       		.byte	0xf3
 10011 0bfb 01       		.uleb128 0x1
 10012 0bfc 50       		.byte	0x50
 10013 0bfd 9F       		.byte	0x9f
 10014 0bfe 5C010000 		.4byte	.LVL207
 10015 0c02 5E010000 		.4byte	.LVL208
 10016 0c06 0100     		.2byte	0x1
 10017 0c08 50       		.byte	0x50
 10018 0c09 5E010000 		.4byte	.LVL208
 10019 0c0d 60010000 		.4byte	.LVL209
 10020 0c11 0400     		.2byte	0x4
 10021 0c13 F3       		.byte	0xf3
 10022 0c14 01       		.uleb128 0x1
 10023 0c15 50       		.byte	0x50
 10024 0c16 9F       		.byte	0x9f
 10025 0c17 60010000 		.4byte	.LVL209
 10026 0c1b 62010000 		.4byte	.LVL210
 10027 0c1f 0100     		.2byte	0x1
 10028 0c21 50       		.byte	0x50
 10029 0c22 62010000 		.4byte	.LVL210
ARM GAS  C:\Users\gjl\AppData\Local\Temp\ccNVysBX.s 			page 246


 10030 0c26 64010000 		.4byte	.LVL211
 10031 0c2a 0400     		.2byte	0x4
 10032 0c2c F3       		.byte	0xf3
 10033 0c2d 01       		.uleb128 0x1
 10034 0c2e 50       		.byte	0x50
 10035 0c2f 9F       		.byte	0x9f
 10036 0c30 64010000 		.4byte	.LVL211
 10037 0c34 66010000 		.4byte	.LVL212
 10038 0c38 0100     		.2byte	0x1
 10039 0c3a 50       		.byte	0x50
 10040 0c3b 66010000 		.4byte	.LVL212
 10041 0c3f 68010000 		.4byte	.LVL213
 10042 0c43 0400     		.2byte	0x4
 10043 0c45 F3       		.byte	0xf3
 10044 0c46 01       		.uleb128 0x1
 10045 0c47 50       		.byte	0x50
 10046 0c48 9F       		.byte	0x9f
 10047 0c49 68010000 		.4byte	.LVL213
 10048 0c4d 6A010000 		.4byte	.LVL214
 10049 0c51 0100     		.2byte	0x1
 10050 0c53 50       		.byte	0x50
 10051 0c54 6A010000 		.4byte	.LVL214
 10052 0c58 80010000 		.4byte	.LFE227
 10053 0c5c 0400     		.2byte	0x4
 10054 0c5e F3       		.byte	0xf3
 10055 0c5f 01       		.uleb128 0x1
 10056 0c60 50       		.byte	0x50
 10057 0c61 9F       		.byte	0x9f
 10058 0c62 00000000 		.4byte	0
 10059 0c66 00000000 		.4byte	0
 10060              	.LLST59:
 10061 0c6a 00000000 		.4byte	.LVL199
 10062 0c6e 12000000 		.4byte	.LVL200
 10063 0c72 0600     		.2byte	0x6
 10064 0c74 0C       		.byte	0xc
 10065 0c75 03004A00 		.4byte	0x4a0003
 10066 0c79 9F       		.byte	0x9f
 10067 0c7a 12000000 		.4byte	.LVL200
 10068 0c7e 4E010000 		.4byte	.LVL206
 10069 0c82 0600     		.2byte	0x6
 10070 0c84 0C       		.byte	0xc
 10071 0c85 01004A00 		.4byte	0x4a0001
 10072 0c89 9F       		.byte	0x9f
 10073 0c8a 4E010000 		.4byte	.LVL206
 10074 0c8e 5C010000 		.4byte	.LVL207
 10075 0c92 0200     		.2byte	0x2
 10076 0c94 30       		.byte	0x30
 10077 0c95 9F       		.byte	0x9f
 10078 0c96 5C010000 		.4byte	.LVL207
 10079 0c9a 60010000 		.4byte	.LVL209
 10080 0c9e 0600     		.2byte	0x6
 10081 0ca0 0C       		.byte	0xc
 10082 0ca1 03004A00 		.4byte	0x4a0003
 10083 0ca5 9F       		.byte	0x9f
 10084 0ca6 60010000 		.4byte	.LVL209
 10085 0caa 62010000 		.4byte	.LVL210
 10086 0cae 0600     		.2byte	0x6
ARM GAS  C:\Users\gjl\AppData\Local\Temp\ccNVysBX.s 			page 247


 10087 0cb0 0C       		.byte	0xc
 10088 0cb1 01004A00 		.4byte	0x4a0001
 10089 0cb5 9F       		.byte	0x9f
 10090 0cb6 62010000 		.4byte	.LVL210
 10091 0cba 64010000 		.4byte	.LVL211
 10092 0cbe 0100     		.2byte	0x1
 10093 0cc0 50       		.byte	0x50
 10094 0cc1 64010000 		.4byte	.LVL211
 10095 0cc5 6C010000 		.4byte	.LVL215
 10096 0cc9 0600     		.2byte	0x6
 10097 0ccb 0C       		.byte	0xc
 10098 0ccc 01004A00 		.4byte	0x4a0001
 10099 0cd0 9F       		.byte	0x9f
 10100 0cd1 6C010000 		.4byte	.LVL215
 10101 0cd5 80010000 		.4byte	.LFE227
 10102 0cd9 0100     		.2byte	0x1
 10103 0cdb 50       		.byte	0x50
 10104 0cdc 00000000 		.4byte	0
 10105 0ce0 00000000 		.4byte	0
 10106              	.LLST60:
 10107 0ce4 00000000 		.4byte	.LVL216
 10108 0ce8 2A000000 		.4byte	.LVL217
 10109 0cec 0100     		.2byte	0x1
 10110 0cee 50       		.byte	0x50
 10111 0cef 2A000000 		.4byte	.LVL217
 10112 0cf3 4A000000 		.4byte	.LVL220
 10113 0cf7 0400     		.2byte	0x4
 10114 0cf9 F3       		.byte	0xf3
 10115 0cfa 01       		.uleb128 0x1
 10116 0cfb 50       		.byte	0x50
 10117 0cfc 9F       		.byte	0x9f
 10118 0cfd 4A000000 		.4byte	.LVL220
 10119 0d01 5C000000 		.4byte	.LVL221
 10120 0d05 0100     		.2byte	0x1
 10121 0d07 50       		.byte	0x50
 10122 0d08 5C000000 		.4byte	.LVL221
 10123 0d0c 84000000 		.4byte	.LFE228
 10124 0d10 0400     		.2byte	0x4
 10125 0d12 F3       		.byte	0xf3
 10126 0d13 01       		.uleb128 0x1
 10127 0d14 50       		.byte	0x50
 10128 0d15 9F       		.byte	0x9f
 10129 0d16 00000000 		.4byte	0
 10130 0d1a 00000000 		.4byte	0
 10131              	.LLST61:
 10132 0d1e 00000000 		.4byte	.LVL216
 10133 0d22 40000000 		.4byte	.LVL218
 10134 0d26 0100     		.2byte	0x1
 10135 0d28 51       		.byte	0x51
 10136 0d29 40000000 		.4byte	.LVL218
 10137 0d2d 4A000000 		.4byte	.LVL220
 10138 0d31 0400     		.2byte	0x4
 10139 0d33 F3       		.byte	0xf3
 10140 0d34 01       		.uleb128 0x1
 10141 0d35 51       		.byte	0x51
 10142 0d36 9F       		.byte	0x9f
 10143 0d37 4A000000 		.4byte	.LVL220
ARM GAS  C:\Users\gjl\AppData\Local\Temp\ccNVysBX.s 			page 248


 10144 0d3b 6A000000 		.4byte	.LVL222
 10145 0d3f 0100     		.2byte	0x1
 10146 0d41 51       		.byte	0x51
 10147 0d42 6A000000 		.4byte	.LVL222
 10148 0d46 84000000 		.4byte	.LFE228
 10149 0d4a 0400     		.2byte	0x4
 10150 0d4c F3       		.byte	0xf3
 10151 0d4d 01       		.uleb128 0x1
 10152 0d4e 51       		.byte	0x51
 10153 0d4f 9F       		.byte	0x9f
 10154 0d50 00000000 		.4byte	0
 10155 0d54 00000000 		.4byte	0
 10156              	.LLST62:
 10157 0d58 00000000 		.4byte	.LVL224
 10158 0d5c 2E000000 		.4byte	.LVL228
 10159 0d60 0100     		.2byte	0x1
 10160 0d62 50       		.byte	0x50
 10161 0d63 2E000000 		.4byte	.LVL228
 10162 0d67 38000000 		.4byte	.LVL230
 10163 0d6b 0400     		.2byte	0x4
 10164 0d6d F3       		.byte	0xf3
 10165 0d6e 01       		.uleb128 0x1
 10166 0d6f 50       		.byte	0x50
 10167 0d70 9F       		.byte	0x9f
 10168 0d71 38000000 		.4byte	.LVL230
 10169 0d75 42000000 		.4byte	.LVL231
 10170 0d79 0100     		.2byte	0x1
 10171 0d7b 50       		.byte	0x50
 10172 0d7c 42000000 		.4byte	.LVL231
 10173 0d80 60000000 		.4byte	.LVL233
 10174 0d84 0400     		.2byte	0x4
 10175 0d86 F3       		.byte	0xf3
 10176 0d87 01       		.uleb128 0x1
 10177 0d88 50       		.byte	0x50
 10178 0d89 9F       		.byte	0x9f
 10179 0d8a 60000000 		.4byte	.LVL233
 10180 0d8e 64000000 		.4byte	.LVL235
 10181 0d92 0100     		.2byte	0x1
 10182 0d94 50       		.byte	0x50
 10183 0d95 64000000 		.4byte	.LVL235
 10184 0d99 74000000 		.4byte	.LFE229
 10185 0d9d 0400     		.2byte	0x4
 10186 0d9f F3       		.byte	0xf3
 10187 0da0 01       		.uleb128 0x1
 10188 0da1 50       		.byte	0x50
 10189 0da2 9F       		.byte	0x9f
 10190 0da3 00000000 		.4byte	0
 10191 0da7 00000000 		.4byte	0
 10192              	.LLST63:
 10193 0dab 00000000 		.4byte	.LVL224
 10194 0daf 36000000 		.4byte	.LVL229
 10195 0db3 0200     		.2byte	0x2
 10196 0db5 30       		.byte	0x30
 10197 0db6 9F       		.byte	0x9f
 10198 0db7 36000000 		.4byte	.LVL229
 10199 0dbb 38000000 		.4byte	.LVL230
 10200 0dbf 0100     		.2byte	0x1
ARM GAS  C:\Users\gjl\AppData\Local\Temp\ccNVysBX.s 			page 249


 10201 0dc1 50       		.byte	0x50
 10202 0dc2 38000000 		.4byte	.LVL230
 10203 0dc6 4A000000 		.4byte	.LVL232
 10204 0dca 0200     		.2byte	0x2
 10205 0dcc 30       		.byte	0x30
 10206 0dcd 9F       		.byte	0x9f
 10207 0dce 4A000000 		.4byte	.LVL232
 10208 0dd2 60000000 		.4byte	.LVL233
 10209 0dd6 0100     		.2byte	0x1
 10210 0dd8 50       		.byte	0x50
 10211 0dd9 60000000 		.4byte	.LVL233
 10212 0ddd 62000000 		.4byte	.LVL234
 10213 0de1 0200     		.2byte	0x2
 10214 0de3 30       		.byte	0x30
 10215 0de4 9F       		.byte	0x9f
 10216 0de5 62000000 		.4byte	.LVL234
 10217 0de9 66000000 		.4byte	.LVL236
 10218 0ded 0100     		.2byte	0x1
 10219 0def 52       		.byte	0x52
 10220 0df0 66000000 		.4byte	.LVL236
 10221 0df4 68000000 		.4byte	.LVL237
 10222 0df8 0100     		.2byte	0x1
 10223 0dfa 50       		.byte	0x50
 10224 0dfb 00000000 		.4byte	0
 10225 0dff 00000000 		.4byte	0
 10226              	.LLST64:
 10227 0e03 00000000 		.4byte	.LVL224
 10228 0e07 1E000000 		.4byte	.LVL227
 10229 0e0b 0200     		.2byte	0x2
 10230 0e0d 30       		.byte	0x30
 10231 0e0e 9F       		.byte	0x9f
 10232 0e0f 1E000000 		.4byte	.LVL227
 10233 0e13 60000000 		.4byte	.LVL233
 10234 0e17 0100     		.2byte	0x1
 10235 0e19 52       		.byte	0x52
 10236 0e1a 60000000 		.4byte	.LVL233
 10237 0e1e 62000000 		.4byte	.LVL234
 10238 0e22 0200     		.2byte	0x2
 10239 0e24 30       		.byte	0x30
 10240 0e25 9F       		.byte	0x9f
 10241 0e26 62000000 		.4byte	.LVL234
 10242 0e2a 74000000 		.4byte	.LFE229
 10243 0e2e 0100     		.2byte	0x1
 10244 0e30 52       		.byte	0x52
 10245 0e31 00000000 		.4byte	0
 10246 0e35 00000000 		.4byte	0
 10247              	.LLST65:
 10248 0e39 0A000000 		.4byte	.LVL225
 10249 0e3d 16000000 		.4byte	.LVL226
 10250 0e41 0100     		.2byte	0x1
 10251 0e43 53       		.byte	0x53
 10252 0e44 16000000 		.4byte	.LVL226
 10253 0e48 2E000000 		.4byte	.LVL228
 10254 0e4c 1600     		.2byte	0x16
 10255 0e4e 0A       		.byte	0xa
 10256 0e4f 0080     		.2byte	0x8000
 10257 0e51 70       		.byte	0x70
ARM GAS  C:\Users\gjl\AppData\Local\Temp\ccNVysBX.s 			page 250


 10258 0e52 00       		.sleb128 0
 10259 0e53 1C       		.byte	0x1c
 10260 0e54 70       		.byte	0x70
 10261 0e55 80807E   		.sleb128 -32768
 10262 0e58 70       		.byte	0x70
 10263 0e59 80807E   		.sleb128 -32768
 10264 0e5c 30       		.byte	0x30
 10265 0e5d 2D       		.byte	0x2d
 10266 0e5e 28       		.byte	0x28
 10267 0e5f 0100     		.2byte	0x1
 10268 0e61 16       		.byte	0x16
 10269 0e62 13       		.byte	0x13
 10270 0e63 9F       		.byte	0x9f
 10271 0e64 2E000000 		.4byte	.LVL228
 10272 0e68 38000000 		.4byte	.LVL230
 10273 0e6c 1D00     		.2byte	0x1d
 10274 0e6e 0A       		.byte	0xa
 10275 0e6f 0080     		.2byte	0x8000
 10276 0e71 F3       		.byte	0xf3
 10277 0e72 01       		.uleb128 0x1
 10278 0e73 50       		.byte	0x50
 10279 0e74 1C       		.byte	0x1c
 10280 0e75 F3       		.byte	0xf3
 10281 0e76 01       		.uleb128 0x1
 10282 0e77 50       		.byte	0x50
 10283 0e78 0A       		.byte	0xa
 10284 0e79 0080     		.2byte	0x8000
 10285 0e7b 1C       		.byte	0x1c
 10286 0e7c F3       		.byte	0xf3
 10287 0e7d 01       		.uleb128 0x1
 10288 0e7e 50       		.byte	0x50
 10289 0e7f 0A       		.byte	0xa
 10290 0e80 0080     		.2byte	0x8000
 10291 0e82 1C       		.byte	0x1c
 10292 0e83 30       		.byte	0x30
 10293 0e84 2D       		.byte	0x2d
 10294 0e85 28       		.byte	0x28
 10295 0e86 0100     		.2byte	0x1
 10296 0e88 16       		.byte	0x16
 10297 0e89 13       		.byte	0x13
 10298 0e8a 9F       		.byte	0x9f
 10299 0e8b 38000000 		.4byte	.LVL230
 10300 0e8f 42000000 		.4byte	.LVL231
 10301 0e93 1600     		.2byte	0x16
 10302 0e95 0A       		.byte	0xa
 10303 0e96 0080     		.2byte	0x8000
 10304 0e98 70       		.byte	0x70
 10305 0e99 00       		.sleb128 0
 10306 0e9a 1C       		.byte	0x1c
 10307 0e9b 70       		.byte	0x70
 10308 0e9c 80807E   		.sleb128 -32768
 10309 0e9f 70       		.byte	0x70
 10310 0ea0 80807E   		.sleb128 -32768
 10311 0ea3 30       		.byte	0x30
 10312 0ea4 2D       		.byte	0x2d
 10313 0ea5 28       		.byte	0x28
 10314 0ea6 0100     		.2byte	0x1
ARM GAS  C:\Users\gjl\AppData\Local\Temp\ccNVysBX.s 			page 251


 10315 0ea8 16       		.byte	0x16
 10316 0ea9 13       		.byte	0x13
 10317 0eaa 9F       		.byte	0x9f
 10318 0eab 42000000 		.4byte	.LVL231
 10319 0eaf 60000000 		.4byte	.LVL233
 10320 0eb3 1D00     		.2byte	0x1d
 10321 0eb5 0A       		.byte	0xa
 10322 0eb6 0080     		.2byte	0x8000
 10323 0eb8 F3       		.byte	0xf3
 10324 0eb9 01       		.uleb128 0x1
 10325 0eba 50       		.byte	0x50
 10326 0ebb 1C       		.byte	0x1c
 10327 0ebc F3       		.byte	0xf3
 10328 0ebd 01       		.uleb128 0x1
 10329 0ebe 50       		.byte	0x50
 10330 0ebf 0A       		.byte	0xa
 10331 0ec0 0080     		.2byte	0x8000
 10332 0ec2 1C       		.byte	0x1c
 10333 0ec3 F3       		.byte	0xf3
 10334 0ec4 01       		.uleb128 0x1
 10335 0ec5 50       		.byte	0x50
 10336 0ec6 0A       		.byte	0xa
 10337 0ec7 0080     		.2byte	0x8000
 10338 0ec9 1C       		.byte	0x1c
 10339 0eca 30       		.byte	0x30
 10340 0ecb 2D       		.byte	0x2d
 10341 0ecc 28       		.byte	0x28
 10342 0ecd 0100     		.2byte	0x1
 10343 0ecf 16       		.byte	0x16
 10344 0ed0 13       		.byte	0x13
 10345 0ed1 9F       		.byte	0x9f
 10346 0ed2 60000000 		.4byte	.LVL233
 10347 0ed6 66000000 		.4byte	.LVL236
 10348 0eda 0100     		.2byte	0x1
 10349 0edc 53       		.byte	0x53
 10350 0edd 66000000 		.4byte	.LVL236
 10351 0ee1 74000000 		.4byte	.LFE229
 10352 0ee5 1D00     		.2byte	0x1d
 10353 0ee7 0A       		.byte	0xa
 10354 0ee8 0080     		.2byte	0x8000
 10355 0eea F3       		.byte	0xf3
 10356 0eeb 01       		.uleb128 0x1
 10357 0eec 50       		.byte	0x50
 10358 0eed 1C       		.byte	0x1c
 10359 0eee F3       		.byte	0xf3
 10360 0eef 01       		.uleb128 0x1
 10361 0ef0 50       		.byte	0x50
 10362 0ef1 0A       		.byte	0xa
 10363 0ef2 0080     		.2byte	0x8000
 10364 0ef4 1C       		.byte	0x1c
 10365 0ef5 F3       		.byte	0xf3
 10366 0ef6 01       		.uleb128 0x1
 10367 0ef7 50       		.byte	0x50
 10368 0ef8 0A       		.byte	0xa
 10369 0ef9 0080     		.2byte	0x8000
 10370 0efb 1C       		.byte	0x1c
 10371 0efc 30       		.byte	0x30
ARM GAS  C:\Users\gjl\AppData\Local\Temp\ccNVysBX.s 			page 252


 10372 0efd 2D       		.byte	0x2d
 10373 0efe 28       		.byte	0x28
 10374 0eff 0100     		.2byte	0x1
 10375 0f01 16       		.byte	0x16
 10376 0f02 13       		.byte	0x13
 10377 0f03 9F       		.byte	0x9f
 10378 0f04 00000000 		.4byte	0
 10379 0f08 00000000 		.4byte	0
 10380              	.LLST66:
 10381 0f0c 00000000 		.4byte	.LVL238
 10382 0f10 28000000 		.4byte	.LVL242
 10383 0f14 0100     		.2byte	0x1
 10384 0f16 50       		.byte	0x50
 10385 0f17 28000000 		.4byte	.LVL242
 10386 0f1b 2C000000 		.4byte	.LVL243
 10387 0f1f 0500     		.2byte	0x5
 10388 0f21 73       		.byte	0x73
 10389 0f22 FEFF01   		.sleb128 32766
 10390 0f25 9F       		.byte	0x9f
 10391 0f26 2C000000 		.4byte	.LVL243
 10392 0f2a 34000000 		.4byte	.LVL245
 10393 0f2e 0400     		.2byte	0x4
 10394 0f30 F3       		.byte	0xf3
 10395 0f31 01       		.uleb128 0x1
 10396 0f32 50       		.byte	0x50
 10397 0f33 9F       		.byte	0x9f
 10398 0f34 34000000 		.4byte	.LVL245
 10399 0f38 3C000000 		.4byte	.LVL246
 10400 0f3c 0100     		.2byte	0x1
 10401 0f3e 50       		.byte	0x50
 10402 0f3f 3C000000 		.4byte	.LVL246
 10403 0f43 70000000 		.4byte	.LVL251
 10404 0f47 0400     		.2byte	0x4
 10405 0f49 F3       		.byte	0xf3
 10406 0f4a 01       		.uleb128 0x1
 10407 0f4b 50       		.byte	0x50
 10408 0f4c 9F       		.byte	0x9f
 10409 0f4d 70000000 		.4byte	.LVL251
 10410 0f51 74000000 		.4byte	.LVL253
 10411 0f55 0100     		.2byte	0x1
 10412 0f57 50       		.byte	0x50
 10413 0f58 74000000 		.4byte	.LVL253
 10414 0f5c 88000000 		.4byte	.LFE230
 10415 0f60 0400     		.2byte	0x4
 10416 0f62 F3       		.byte	0xf3
 10417 0f63 01       		.uleb128 0x1
 10418 0f64 50       		.byte	0x50
 10419 0f65 9F       		.byte	0x9f
 10420 0f66 00000000 		.4byte	0
 10421 0f6a 00000000 		.4byte	0
 10422              	.LLST67:
 10423 0f6e 00000000 		.4byte	.LVL238
 10424 0f72 2C000000 		.4byte	.LVL243
 10425 0f76 0200     		.2byte	0x2
 10426 0f78 30       		.byte	0x30
 10427 0f79 9F       		.byte	0x9f
 10428 0f7a 2C000000 		.4byte	.LVL243
ARM GAS  C:\Users\gjl\AppData\Local\Temp\ccNVysBX.s 			page 253


 10429 0f7e 30000000 		.4byte	.LVL244
 10430 0f82 0800     		.2byte	0x8
 10431 0f84 72       		.byte	0x72
 10432 0f85 00       		.sleb128 0
 10433 0f86 73       		.byte	0x73
 10434 0f87 00       		.sleb128 0
 10435 0f88 32       		.byte	0x32
 10436 0f89 25       		.byte	0x25
 10437 0f8a 1C       		.byte	0x1c
 10438 0f8b 9F       		.byte	0x9f
 10439 0f8c 30000000 		.4byte	.LVL244
 10440 0f90 34000000 		.4byte	.LVL245
 10441 0f94 0100     		.2byte	0x1
 10442 0f96 50       		.byte	0x50
 10443 0f97 34000000 		.4byte	.LVL245
 10444 0f9b 44000000 		.4byte	.LVL247
 10445 0f9f 0200     		.2byte	0x2
 10446 0fa1 30       		.byte	0x30
 10447 0fa2 9F       		.byte	0x9f
 10448 0fa3 44000000 		.4byte	.LVL247
 10449 0fa7 50000000 		.4byte	.LVL248
 10450 0fab 0100     		.2byte	0x1
 10451 0fad 50       		.byte	0x50
 10452 0fae 50000000 		.4byte	.LVL248
 10453 0fb2 52000000 		.4byte	.LVL249
 10454 0fb6 0800     		.2byte	0x8
 10455 0fb8 72       		.byte	0x72
 10456 0fb9 00       		.sleb128 0
 10457 0fba 73       		.byte	0x73
 10458 0fbb 00       		.sleb128 0
 10459 0fbc 32       		.byte	0x32
 10460 0fbd 25       		.byte	0x25
 10461 0fbe 1C       		.byte	0x1c
 10462 0fbf 9F       		.byte	0x9f
 10463 0fc0 52000000 		.4byte	.LVL249
 10464 0fc4 70000000 		.4byte	.LVL251
 10465 0fc8 0100     		.2byte	0x1
 10466 0fca 50       		.byte	0x50
 10467 0fcb 70000000 		.4byte	.LVL251
 10468 0fcf 72000000 		.4byte	.LVL252
 10469 0fd3 0200     		.2byte	0x2
 10470 0fd5 30       		.byte	0x30
 10471 0fd6 9F       		.byte	0x9f
 10472 0fd7 72000000 		.4byte	.LVL252
 10473 0fdb 76000000 		.4byte	.LVL254
 10474 0fdf 0100     		.2byte	0x1
 10475 0fe1 52       		.byte	0x52
 10476 0fe2 76000000 		.4byte	.LVL254
 10477 0fe6 78000000 		.4byte	.LVL255
 10478 0fea 0100     		.2byte	0x1
 10479 0fec 50       		.byte	0x50
 10480 0fed 00000000 		.4byte	0
 10481 0ff1 00000000 		.4byte	0
 10482              	.LLST68:
 10483 0ff5 00000000 		.4byte	.LVL238
 10484 0ff9 1A000000 		.4byte	.LVL241
 10485 0ffd 0200     		.2byte	0x2
ARM GAS  C:\Users\gjl\AppData\Local\Temp\ccNVysBX.s 			page 254


 10486 0fff 30       		.byte	0x30
 10487 1000 9F       		.byte	0x9f
 10488 1001 70000000 		.4byte	.LVL251
 10489 1005 72000000 		.4byte	.LVL252
 10490 1009 0200     		.2byte	0x2
 10491 100b 30       		.byte	0x30
 10492 100c 9F       		.byte	0x9f
 10493 100d 72000000 		.4byte	.LVL252
 10494 1011 88000000 		.4byte	.LFE230
 10495 1015 0100     		.2byte	0x1
 10496 1017 52       		.byte	0x52
 10497 1018 00000000 		.4byte	0
 10498 101c 00000000 		.4byte	0
 10499              	.LLST69:
 10500 1020 0A000000 		.4byte	.LVL239
 10501 1024 12000000 		.4byte	.LVL240
 10502 1028 0100     		.2byte	0x1
 10503 102a 53       		.byte	0x53
 10504 102b 12000000 		.4byte	.LVL240
 10505 102f 28000000 		.4byte	.LVL242
 10506 1033 1600     		.2byte	0x16
 10507 1035 0A       		.byte	0xa
 10508 1036 0080     		.2byte	0x8000
 10509 1038 70       		.byte	0x70
 10510 1039 00       		.sleb128 0
 10511 103a 1C       		.byte	0x1c
 10512 103b 70       		.byte	0x70
 10513 103c 80807E   		.sleb128 -32768
 10514 103f 70       		.byte	0x70
 10515 1040 80807E   		.sleb128 -32768
 10516 1043 30       		.byte	0x30
 10517 1044 2D       		.byte	0x2d
 10518 1045 28       		.byte	0x28
 10519 1046 0100     		.2byte	0x1
 10520 1048 16       		.byte	0x16
 10521 1049 13       		.byte	0x13
 10522 104a 9F       		.byte	0x9f
 10523 104b 28000000 		.4byte	.LVL242
 10524 104f 2C000000 		.4byte	.LVL243
 10525 1053 1000     		.2byte	0x10
 10526 1055 32       		.byte	0x32
 10527 1056 73       		.byte	0x73
 10528 1057 00       		.sleb128 0
 10529 1058 1C       		.byte	0x1c
 10530 1059 73       		.byte	0x73
 10531 105a 7E       		.sleb128 -2
 10532 105b 73       		.byte	0x73
 10533 105c 7E       		.sleb128 -2
 10534 105d 30       		.byte	0x30
 10535 105e 2D       		.byte	0x2d
 10536 105f 28       		.byte	0x28
 10537 1060 0100     		.2byte	0x1
 10538 1062 16       		.byte	0x16
 10539 1063 13       		.byte	0x13
 10540 1064 9F       		.byte	0x9f
 10541 1065 2C000000 		.4byte	.LVL243
 10542 1069 34000000 		.4byte	.LVL245
ARM GAS  C:\Users\gjl\AppData\Local\Temp\ccNVysBX.s 			page 255


 10543 106d 1D00     		.2byte	0x1d
 10544 106f 0A       		.byte	0xa
 10545 1070 0080     		.2byte	0x8000
 10546 1072 F3       		.byte	0xf3
 10547 1073 01       		.uleb128 0x1
 10548 1074 50       		.byte	0x50
 10549 1075 1C       		.byte	0x1c
 10550 1076 F3       		.byte	0xf3
 10551 1077 01       		.uleb128 0x1
 10552 1078 50       		.byte	0x50
 10553 1079 0A       		.byte	0xa
 10554 107a 0080     		.2byte	0x8000
 10555 107c 1C       		.byte	0x1c
 10556 107d F3       		.byte	0xf3
 10557 107e 01       		.uleb128 0x1
 10558 107f 50       		.byte	0x50
 10559 1080 0A       		.byte	0xa
 10560 1081 0080     		.2byte	0x8000
 10561 1083 1C       		.byte	0x1c
 10562 1084 30       		.byte	0x30
 10563 1085 2D       		.byte	0x2d
 10564 1086 28       		.byte	0x28
 10565 1087 0100     		.2byte	0x1
 10566 1089 16       		.byte	0x16
 10567 108a 13       		.byte	0x13
 10568 108b 9F       		.byte	0x9f
 10569 108c 34000000 		.4byte	.LVL245
 10570 1090 3C000000 		.4byte	.LVL246
 10571 1094 1600     		.2byte	0x16
 10572 1096 0A       		.byte	0xa
 10573 1097 0080     		.2byte	0x8000
 10574 1099 70       		.byte	0x70
 10575 109a 00       		.sleb128 0
 10576 109b 1C       		.byte	0x1c
 10577 109c 70       		.byte	0x70
 10578 109d 80807E   		.sleb128 -32768
 10579 10a0 70       		.byte	0x70
 10580 10a1 80807E   		.sleb128 -32768
 10581 10a4 30       		.byte	0x30
 10582 10a5 2D       		.byte	0x2d
 10583 10a6 28       		.byte	0x28
 10584 10a7 0100     		.2byte	0x1
 10585 10a9 16       		.byte	0x16
 10586 10aa 13       		.byte	0x13
 10587 10ab 9F       		.byte	0x9f
 10588 10ac 3C000000 		.4byte	.LVL246
 10589 10b0 70000000 		.4byte	.LVL251
 10590 10b4 1D00     		.2byte	0x1d
 10591 10b6 0A       		.byte	0xa
 10592 10b7 0080     		.2byte	0x8000
 10593 10b9 F3       		.byte	0xf3
 10594 10ba 01       		.uleb128 0x1
 10595 10bb 50       		.byte	0x50
 10596 10bc 1C       		.byte	0x1c
 10597 10bd F3       		.byte	0xf3
 10598 10be 01       		.uleb128 0x1
 10599 10bf 50       		.byte	0x50
ARM GAS  C:\Users\gjl\AppData\Local\Temp\ccNVysBX.s 			page 256


 10600 10c0 0A       		.byte	0xa
 10601 10c1 0080     		.2byte	0x8000
 10602 10c3 1C       		.byte	0x1c
 10603 10c4 F3       		.byte	0xf3
 10604 10c5 01       		.uleb128 0x1
 10605 10c6 50       		.byte	0x50
 10606 10c7 0A       		.byte	0xa
 10607 10c8 0080     		.2byte	0x8000
 10608 10ca 1C       		.byte	0x1c
 10609 10cb 30       		.byte	0x30
 10610 10cc 2D       		.byte	0x2d
 10611 10cd 28       		.byte	0x28
 10612 10ce 0100     		.2byte	0x1
 10613 10d0 16       		.byte	0x16
 10614 10d1 13       		.byte	0x13
 10615 10d2 9F       		.byte	0x9f
 10616 10d3 70000000 		.4byte	.LVL251
 10617 10d7 76000000 		.4byte	.LVL254
 10618 10db 0100     		.2byte	0x1
 10619 10dd 53       		.byte	0x53
 10620 10de 76000000 		.4byte	.LVL254
 10621 10e2 88000000 		.4byte	.LFE230
 10622 10e6 1D00     		.2byte	0x1d
 10623 10e8 0A       		.byte	0xa
 10624 10e9 0080     		.2byte	0x8000
 10625 10eb F3       		.byte	0xf3
 10626 10ec 01       		.uleb128 0x1
 10627 10ed 50       		.byte	0x50
 10628 10ee 1C       		.byte	0x1c
 10629 10ef F3       		.byte	0xf3
 10630 10f0 01       		.uleb128 0x1
 10631 10f1 50       		.byte	0x50
 10632 10f2 0A       		.byte	0xa
 10633 10f3 0080     		.2byte	0x8000
 10634 10f5 1C       		.byte	0x1c
 10635 10f6 F3       		.byte	0xf3
 10636 10f7 01       		.uleb128 0x1
 10637 10f8 50       		.byte	0x50
 10638 10f9 0A       		.byte	0xa
 10639 10fa 0080     		.2byte	0x8000
 10640 10fc 1C       		.byte	0x1c
 10641 10fd 30       		.byte	0x30
 10642 10fe 2D       		.byte	0x2d
 10643 10ff 28       		.byte	0x28
 10644 1100 0100     		.2byte	0x1
 10645 1102 16       		.byte	0x16
 10646 1103 13       		.byte	0x13
 10647 1104 9F       		.byte	0x9f
 10648 1105 00000000 		.4byte	0
 10649 1109 00000000 		.4byte	0
 10650              	.LLST70:
 10651 110d 56000000 		.4byte	.LVL250
 10652 1111 70000000 		.4byte	.LVL251
 10653 1115 0100     		.2byte	0x1
 10654 1117 50       		.byte	0x50
 10655 1118 76000000 		.4byte	.LVL254
 10656 111c 78000000 		.4byte	.LVL255
ARM GAS  C:\Users\gjl\AppData\Local\Temp\ccNVysBX.s 			page 257


 10657 1120 0100     		.2byte	0x1
 10658 1122 50       		.byte	0x50
 10659 1123 00000000 		.4byte	0
 10660 1127 00000000 		.4byte	0
 10661              	.LLST71:
 10662 112b 00000000 		.4byte	.LVL256
 10663 112f 0C000000 		.4byte	.LVL258
 10664 1133 0100     		.2byte	0x1
 10665 1135 50       		.byte	0x50
 10666 1136 0C000000 		.4byte	.LVL258
 10667 113a 22000000 		.4byte	.LVL260
 10668 113e 0100     		.2byte	0x1
 10669 1140 54       		.byte	0x54
 10670 1141 22000000 		.4byte	.LVL260
 10671 1145 9E000000 		.4byte	.LVL266
 10672 1149 0400     		.2byte	0x4
 10673 114b F3       		.byte	0xf3
 10674 114c 01       		.uleb128 0x1
 10675 114d 50       		.byte	0x50
 10676 114e 9F       		.byte	0x9f
 10677 114f 9E000000 		.4byte	.LVL266
 10678 1153 D8000000 		.4byte	.LVL274
 10679 1157 0100     		.2byte	0x1
 10680 1159 54       		.byte	0x54
 10681 115a D8000000 		.4byte	.LVL274
 10682 115e 70010000 		.4byte	.LVL283
 10683 1162 0400     		.2byte	0x4
 10684 1164 F3       		.byte	0xf3
 10685 1165 01       		.uleb128 0x1
 10686 1166 50       		.byte	0x50
 10687 1167 9F       		.byte	0x9f
 10688 1168 70010000 		.4byte	.LVL283
 10689 116c 72010000 		.4byte	.LVL284
 10690 1170 0100     		.2byte	0x1
 10691 1172 54       		.byte	0x54
 10692 1173 72010000 		.4byte	.LVL284
 10693 1177 7E010000 		.4byte	.LVL286
 10694 117b 0400     		.2byte	0x4
 10695 117d F3       		.byte	0xf3
 10696 117e 01       		.uleb128 0x1
 10697 117f 50       		.byte	0x50
 10698 1180 9F       		.byte	0x9f
 10699 1181 7E010000 		.4byte	.LVL286
 10700 1185 84010000 		.4byte	.LVL287
 10701 1189 0100     		.2byte	0x1
 10702 118b 54       		.byte	0x54
 10703 118c 84010000 		.4byte	.LVL287
 10704 1190 A4010000 		.4byte	.LFE231
 10705 1194 0400     		.2byte	0x4
 10706 1196 F3       		.byte	0xf3
 10707 1197 01       		.uleb128 0x1
 10708 1198 50       		.byte	0x50
 10709 1199 9F       		.byte	0x9f
 10710 119a 00000000 		.4byte	0
 10711 119e 00000000 		.4byte	0
 10712              	.LLST72:
 10713 11a2 02000000 		.4byte	.LVL257
ARM GAS  C:\Users\gjl\AppData\Local\Temp\ccNVysBX.s 			page 258


 10714 11a6 D2000000 		.4byte	.LVL273
 10715 11aa 0200     		.2byte	0x2
 10716 11ac 30       		.byte	0x30
 10717 11ad 9F       		.byte	0x9f
 10718 11ae D2000000 		.4byte	.LVL273
 10719 11b2 7E010000 		.4byte	.LVL286
 10720 11b6 0100     		.2byte	0x1
 10721 11b8 56       		.byte	0x56
 10722 11b9 7E010000 		.4byte	.LVL286
 10723 11bd 84010000 		.4byte	.LVL287
 10724 11c1 0200     		.2byte	0x2
 10725 11c3 30       		.byte	0x30
 10726 11c4 9F       		.byte	0x9f
 10727 11c5 84010000 		.4byte	.LVL287
 10728 11c9 88010000 		.4byte	.LVL288
 10729 11cd 0100     		.2byte	0x1
 10730 11cf 56       		.byte	0x56
 10731 11d0 88010000 		.4byte	.LVL288
 10732 11d4 A4010000 		.4byte	.LFE231
 10733 11d8 0100     		.2byte	0x1
 10734 11da 50       		.byte	0x50
 10735 11db 00000000 		.4byte	0
 10736 11df 00000000 		.4byte	0
 10737              	.LLST73:
 10738 11e3 26000000 		.4byte	.LVL261
 10739 11e7 28000000 		.4byte	.LVL262
 10740 11eb 0200     		.2byte	0x2
 10741 11ed 30       		.byte	0x30
 10742 11ee 9F       		.byte	0x9f
 10743 11ef 28000000 		.4byte	.LVL262
 10744 11f3 9E000000 		.4byte	.LVL266
 10745 11f7 0100     		.2byte	0x1
 10746 11f9 54       		.byte	0x54
 10747 11fa 00000000 		.4byte	0
 10748 11fe 00000000 		.4byte	0
 10749              	.LLST74:
 10750 1202 AC000000 		.4byte	.LVL267
 10751 1206 B0000000 		.4byte	.LVL269
 10752 120a 0100     		.2byte	0x1
 10753 120c 52       		.byte	0x52
 10754 120d B2000000 		.4byte	.LVL270
 10755 1211 D2000000 		.4byte	.LVL273
 10756 1215 0100     		.2byte	0x1
 10757 1217 52       		.byte	0x52
 10758 1218 00000000 		.4byte	0
 10759 121c 00000000 		.4byte	0
 10760              	.LLST75:
 10761 1220 BE000000 		.4byte	.LVL271
 10762 1224 C6000000 		.4byte	.LVL272
 10763 1228 0100     		.2byte	0x1
 10764 122a 53       		.byte	0x53
 10765 122b 00000000 		.4byte	0
 10766 122f 00000000 		.4byte	0
 10767              	.LLST76:
 10768 1233 D8000000 		.4byte	.LVL274
 10769 1237 70010000 		.4byte	.LVL283
 10770 123b 0100     		.2byte	0x1
ARM GAS  C:\Users\gjl\AppData\Local\Temp\ccNVysBX.s 			page 259


 10771 123d 54       		.byte	0x54
 10772 123e 72010000 		.4byte	.LVL284
 10773 1242 76010000 		.4byte	.LVL285
 10774 1246 0100     		.2byte	0x1
 10775 1248 54       		.byte	0x54
 10776 1249 00000000 		.4byte	0
 10777 124d 00000000 		.4byte	0
 10778              	.LLST77:
 10779 1251 0C010000 		.4byte	.LVL276
 10780 1255 6C010000 		.4byte	.LVL281
 10781 1259 0100     		.2byte	0x1
 10782 125b 55       		.byte	0x55
 10783 125c 00000000 		.4byte	0
 10784 1260 00000000 		.4byte	0
 10785              	.LLST78:
 10786 1264 1C010000 		.4byte	.LVL277
 10787 1268 3A010000 		.4byte	.LVL279
 10788 126c 0100     		.2byte	0x1
 10789 126e 54       		.byte	0x54
 10790 126f 00000000 		.4byte	0
 10791 1273 00000000 		.4byte	0
 10792              	.LLST79:
 10793 1277 00000000 		.4byte	.LVL289
 10794 127b 2C000000 		.4byte	.LVL292
 10795 127f 0100     		.2byte	0x1
 10796 1281 50       		.byte	0x50
 10797 1282 2C000000 		.4byte	.LVL292
 10798 1286 6C020000 		.4byte	.LFE232
 10799 128a 0400     		.2byte	0x4
 10800 128c F3       		.byte	0xf3
 10801 128d 01       		.uleb128 0x1
 10802 128e 50       		.byte	0x50
 10803 128f 9F       		.byte	0x9f
 10804 1290 00000000 		.4byte	0
 10805 1294 00000000 		.4byte	0
 10806              	.LLST80:
 10807 1298 00000000 		.4byte	.LVL289
 10808 129c 2A000000 		.4byte	.LVL291
 10809 12a0 0100     		.2byte	0x1
 10810 12a2 51       		.byte	0x51
 10811 12a3 2A000000 		.4byte	.LVL291
 10812 12a7 9A010000 		.4byte	.LVL341
 10813 12ab 0100     		.2byte	0x1
 10814 12ad 57       		.byte	0x57
 10815 12ae 9A010000 		.4byte	.LVL341
 10816 12b2 A6010000 		.4byte	.LVL343
 10817 12b6 0400     		.2byte	0x4
 10818 12b8 77       		.byte	0x77
 10819 12b9 807C     		.sleb128 -512
 10820 12bb 9F       		.byte	0x9f
 10821 12bc A6010000 		.4byte	.LVL343
 10822 12c0 B8010000 		.4byte	.LVL345
 10823 12c4 0100     		.2byte	0x1
 10824 12c6 57       		.byte	0x57
 10825 12c7 B8010000 		.4byte	.LVL345
 10826 12cb C2010000 		.4byte	.LVL346
 10827 12cf 0400     		.2byte	0x4
ARM GAS  C:\Users\gjl\AppData\Local\Temp\ccNVysBX.s 			page 260


 10828 12d1 77       		.byte	0x77
 10829 12d2 C07B     		.sleb128 -576
 10830 12d4 9F       		.byte	0x9f
 10831 12d5 C2010000 		.4byte	.LVL346
 10832 12d9 C6010000 		.4byte	.LVL347
 10833 12dd 0400     		.2byte	0x4
 10834 12df F3       		.byte	0xf3
 10835 12e0 01       		.uleb128 0x1
 10836 12e1 51       		.byte	0x51
 10837 12e2 9F       		.byte	0x9f
 10838 12e3 C6010000 		.4byte	.LVL347
 10839 12e7 F0010000 		.4byte	.LVL350
 10840 12eb 0100     		.2byte	0x1
 10841 12ed 57       		.byte	0x57
 10842 12ee F0010000 		.4byte	.LVL350
 10843 12f2 06020000 		.4byte	.LVL351
 10844 12f6 0400     		.2byte	0x4
 10845 12f8 77       		.byte	0x77
 10846 12f9 807B     		.sleb128 -640
 10847 12fb 9F       		.byte	0x9f
 10848 12fc 06020000 		.4byte	.LVL351
 10849 1300 18020000 		.4byte	.LVL353
 10850 1304 0100     		.2byte	0x1
 10851 1306 57       		.byte	0x57
 10852 1307 18020000 		.4byte	.LVL353
 10853 130b 2A020000 		.4byte	.LVL354
 10854 130f 0400     		.2byte	0x4
 10855 1311 77       		.byte	0x77
 10856 1312 C07A     		.sleb128 -704
 10857 1314 9F       		.byte	0x9f
 10858 1315 2A020000 		.4byte	.LVL354
 10859 1319 4A020000 		.4byte	.LVL358
 10860 131d 0400     		.2byte	0x4
 10861 131f F3       		.byte	0xf3
 10862 1320 01       		.uleb128 0x1
 10863 1321 51       		.byte	0x51
 10864 1322 9F       		.byte	0x9f
 10865 1323 4A020000 		.4byte	.LVL358
 10866 1327 4C020000 		.4byte	.LVL359
 10867 132b 0100     		.2byte	0x1
 10868 132d 57       		.byte	0x57
 10869 132e 4C020000 		.4byte	.LVL359
 10870 1332 6C020000 		.4byte	.LFE232
 10871 1336 0400     		.2byte	0x4
 10872 1338 F3       		.byte	0xf3
 10873 1339 01       		.uleb128 0x1
 10874 133a 51       		.byte	0x51
 10875 133b 9F       		.byte	0x9f
 10876 133c 00000000 		.4byte	0
 10877 1340 00000000 		.4byte	0
 10878              	.LLST81:
 10879 1344 08000000 		.4byte	.LVL290
 10880 1348 2E020000 		.4byte	.LVL355
 10881 134c 0200     		.2byte	0x2
 10882 134e 30       		.byte	0x30
 10883 134f 9F       		.byte	0x9f
 10884 1350 2E020000 		.4byte	.LVL355
ARM GAS  C:\Users\gjl\AppData\Local\Temp\ccNVysBX.s 			page 261


 10885 1354 32020000 		.4byte	.LVL356
 10886 1358 0100     		.2byte	0x1
 10887 135a 50       		.byte	0x50
 10888 135b 32020000 		.4byte	.LVL356
 10889 135f 48020000 		.4byte	.LVL357
 10890 1363 0100     		.2byte	0x1
 10891 1365 54       		.byte	0x54
 10892 1366 48020000 		.4byte	.LVL357
 10893 136a 4A020000 		.4byte	.LVL358
 10894 136e 0100     		.2byte	0x1
 10895 1370 50       		.byte	0x50
 10896 1371 4A020000 		.4byte	.LVL358
 10897 1375 4C020000 		.4byte	.LVL359
 10898 1379 0200     		.2byte	0x2
 10899 137b 30       		.byte	0x30
 10900 137c 9F       		.byte	0x9f
 10901 137d 4C020000 		.4byte	.LVL359
 10902 1381 6C020000 		.4byte	.LFE232
 10903 1385 0100     		.2byte	0x1
 10904 1387 50       		.byte	0x50
 10905 1388 00000000 		.4byte	0
 10906 138c 00000000 		.4byte	0
 10907              	.LLST82:
 10908 1390 3C000000 		.4byte	.LVL294
 10909 1394 5E000000 		.4byte	.LVL300
 10910 1398 0200     		.2byte	0x2
 10911 139a 30       		.byte	0x30
 10912 139b 9F       		.byte	0x9f
 10913 139c 5E000000 		.4byte	.LVL300
 10914 13a0 6C000000 		.4byte	.LVL302
 10915 13a4 0100     		.2byte	0x1
 10916 13a6 58       		.byte	0x58
 10917 13a7 6C000000 		.4byte	.LVL302
 10918 13ab 94000000 		.4byte	.LVL304
 10919 13af 0200     		.2byte	0x2
 10920 13b1 30       		.byte	0x30
 10921 13b2 9F       		.byte	0x9f
 10922 13b3 94000000 		.4byte	.LVL304
 10923 13b7 BC000000 		.4byte	.LVL309
 10924 13bb 0100     		.2byte	0x1
 10925 13bd 58       		.byte	0x58
 10926 13be BC000000 		.4byte	.LVL309
 10927 13c2 C8000000 		.4byte	.LVL312
 10928 13c6 0200     		.2byte	0x2
 10929 13c8 30       		.byte	0x30
 10930 13c9 9F       		.byte	0x9f
 10931 13ca C8000000 		.4byte	.LVL312
 10932 13ce 64010000 		.4byte	.LVL336
 10933 13d2 0100     		.2byte	0x1
 10934 13d4 58       		.byte	0x58
 10935 13d5 4A020000 		.4byte	.LVL358
 10936 13d9 4C020000 		.4byte	.LVL359
 10937 13dd 0100     		.2byte	0x1
 10938 13df 58       		.byte	0x58
 10939 13e0 00000000 		.4byte	0
 10940 13e4 00000000 		.4byte	0
 10941              	.LLST83:
ARM GAS  C:\Users\gjl\AppData\Local\Temp\ccNVysBX.s 			page 262


 10942 13e8 3C000000 		.4byte	.LVL294
 10943 13ec 6A000000 		.4byte	.LVL301
 10944 13f0 0200     		.2byte	0x2
 10945 13f2 30       		.byte	0x30
 10946 13f3 9F       		.byte	0x9f
 10947 13f4 6C000000 		.4byte	.LVL302
 10948 13f8 BA000000 		.4byte	.LVL308
 10949 13fc 0200     		.2byte	0x2
 10950 13fe 30       		.byte	0x30
 10951 13ff 9F       		.byte	0x9f
 10952 1400 BC000000 		.4byte	.LVL309
 10953 1404 C8000000 		.4byte	.LVL312
 10954 1408 0200     		.2byte	0x2
 10955 140a 30       		.byte	0x30
 10956 140b 9F       		.byte	0x9f
 10957 140c C8000000 		.4byte	.LVL312
 10958 1410 00010000 		.4byte	.LVL320
 10959 1414 0100     		.2byte	0x1
 10960 1416 53       		.byte	0x53
 10961 1417 16010000 		.4byte	.LVL324
 10962 141b 40010000 		.4byte	.LVL326
 10963 141f 0100     		.2byte	0x1
 10964 1421 53       		.byte	0x53
 10965 1422 4A010000 		.4byte	.LVL329
 10966 1426 54010000 		.4byte	.LVL334
 10967 142a 0100     		.2byte	0x1
 10968 142c 53       		.byte	0x53
 10969 142d 4A020000 		.4byte	.LVL358
 10970 1431 4C020000 		.4byte	.LVL359
 10971 1435 0100     		.2byte	0x1
 10972 1437 53       		.byte	0x53
 10973 1438 00000000 		.4byte	0
 10974 143c 00000000 		.4byte	0
 10975              	.LLST84:
 10976 1440 5A000000 		.4byte	.LVL299
 10977 1444 6C000000 		.4byte	.LVL302
 10978 1448 0100     		.2byte	0x1
 10979 144a 54       		.byte	0x54
 10980 144b 9C000000 		.4byte	.LVL306
 10981 144f BC000000 		.4byte	.LVL309
 10982 1453 0100     		.2byte	0x1
 10983 1455 54       		.byte	0x54
 10984 1456 C4000000 		.4byte	.LVL311
 10985 145a CE000000 		.4byte	.LVL313
 10986 145e 0100     		.2byte	0x1
 10987 1460 54       		.byte	0x54
 10988 1461 D4000000 		.4byte	.LVL314
 10989 1465 D6000000 		.4byte	.LVL315
 10990 1469 0100     		.2byte	0x1
 10991 146b 54       		.byte	0x54
 10992 146c 00000000 		.4byte	0
 10993 1470 00000000 		.4byte	0
 10994              	.LLST85:
 10995 1474 D8000000 		.4byte	.LVL316
 10996 1478 DC000000 		.4byte	.LVL317
 10997 147c 0200     		.2byte	0x2
 10998 147e 30       		.byte	0x30
ARM GAS  C:\Users\gjl\AppData\Local\Temp\ccNVysBX.s 			page 263


 10999 147f 9F       		.byte	0x9f
 11000 1480 E0000000 		.4byte	.LVL318
 11001 1484 0E010000 		.4byte	.LVL322
 11002 1488 0100     		.2byte	0x1
 11003 148a 54       		.byte	0x54
 11004 148b 16010000 		.4byte	.LVL324
 11005 148f 48010000 		.4byte	.LVL328
 11006 1493 0100     		.2byte	0x1
 11007 1495 54       		.byte	0x54
 11008 1496 4A010000 		.4byte	.LVL329
 11009 149a 4C010000 		.4byte	.LVL330
 11010 149e 0100     		.2byte	0x1
 11011 14a0 54       		.byte	0x54
 11012 14a1 4E010000 		.4byte	.LVL331
 11013 14a5 50010000 		.4byte	.LVL332
 11014 14a9 0100     		.2byte	0x1
 11015 14ab 54       		.byte	0x54
 11016 14ac 52010000 		.4byte	.LVL333
 11017 14b0 54010000 		.4byte	.LVL334
 11018 14b4 0100     		.2byte	0x1
 11019 14b6 54       		.byte	0x54
 11020 14b7 4A020000 		.4byte	.LVL358
 11021 14bb 4C020000 		.4byte	.LVL359
 11022 14bf 0100     		.2byte	0x1
 11023 14c1 54       		.byte	0x54
 11024 14c2 00000000 		.4byte	0
 11025 14c6 00000000 		.4byte	0
 11026              	.LLST86:
 11027 14ca 3C000000 		.4byte	.LVL294
 11028 14ce E8000000 		.4byte	.LVL319
 11029 14d2 0200     		.2byte	0x2
 11030 14d4 30       		.byte	0x30
 11031 14d5 9F       		.byte	0x9f
 11032 14d6 E8000000 		.4byte	.LVL319
 11033 14da 0E010000 		.4byte	.LVL322
 11034 14de 0100     		.2byte	0x1
 11035 14e0 54       		.byte	0x54
 11036 14e1 14010000 		.4byte	.LVL323
 11037 14e5 16010000 		.4byte	.LVL324
 11038 14e9 0100     		.2byte	0x1
 11039 14eb 54       		.byte	0x54
 11040 14ec 16010000 		.4byte	.LVL324
 11041 14f0 1A010000 		.4byte	.LVL325
 11042 14f4 0200     		.2byte	0x2
 11043 14f6 30       		.byte	0x30
 11044 14f7 9F       		.byte	0x9f
 11045 14f8 1A010000 		.4byte	.LVL325
 11046 14fc 4C010000 		.4byte	.LVL330
 11047 1500 0100     		.2byte	0x1
 11048 1502 54       		.byte	0x54
 11049 1503 4E010000 		.4byte	.LVL331
 11050 1507 50010000 		.4byte	.LVL332
 11051 150b 0100     		.2byte	0x1
 11052 150d 54       		.byte	0x54
 11053 150e 52010000 		.4byte	.LVL333
 11054 1512 32020000 		.4byte	.LVL356
 11055 1516 0100     		.2byte	0x1
ARM GAS  C:\Users\gjl\AppData\Local\Temp\ccNVysBX.s 			page 264


 11056 1518 54       		.byte	0x54
 11057 1519 4A020000 		.4byte	.LVL358
 11058 151d 4C020000 		.4byte	.LVL359
 11059 1521 0200     		.2byte	0x2
 11060 1523 30       		.byte	0x30
 11061 1524 9F       		.byte	0x9f
 11062 1525 00000000 		.4byte	0
 11063 1529 00000000 		.4byte	0
 11064              	.LLST87:
 11065 152d 64010000 		.4byte	.LVL336
 11066 1531 4A020000 		.4byte	.LVL358
 11067 1535 0100     		.2byte	0x1
 11068 1537 58       		.byte	0x58
 11069 1538 00000000 		.4byte	0
 11070 153c 00000000 		.4byte	0
 11071              	.LLST88:
 11072 1540 6C010000 		.4byte	.LVL337
 11073 1544 4A020000 		.4byte	.LVL358
 11074 1548 0100     		.2byte	0x1
 11075 154a 55       		.byte	0x55
 11076 154b 00000000 		.4byte	0
 11077 154f 00000000 		.4byte	0
 11078              	.LLST89:
 11079 1553 40000000 		.4byte	.LVL295
 11080 1557 46000000 		.4byte	.LVL296
 11081 155b 0200     		.2byte	0x2
 11082 155d 30       		.byte	0x30
 11083 155e 9F       		.byte	0x9f
 11084 155f 00000000 		.4byte	0
 11085 1563 00000000 		.4byte	0
 11086              	.LLST90:
 11087 1567 9C000000 		.4byte	.LVL306
 11088 156b BA000000 		.4byte	.LVL308
 11089 156f 0100     		.2byte	0x1
 11090 1571 55       		.byte	0x55
 11091 1572 00000000 		.4byte	0
 11092 1576 00000000 		.4byte	0
 11093              	.LLST91:
 11094 157a 54010000 		.4byte	.LVL334
 11095 157e 5E010000 		.4byte	.LVL335
 11096 1582 0200     		.2byte	0x2
 11097 1584 30       		.byte	0x30
 11098 1585 9F       		.byte	0x9f
 11099 1586 00000000 		.4byte	0
 11100 158a 00000000 		.4byte	0
 11101              	.LLST92:
 11102 158e 78010000 		.4byte	.LVL338
 11103 1592 9A010000 		.4byte	.LVL341
 11104 1596 0100     		.2byte	0x1
 11105 1598 57       		.byte	0x57
 11106 1599 9A010000 		.4byte	.LVL341
 11107 159d A6010000 		.4byte	.LVL343
 11108 15a1 0400     		.2byte	0x4
 11109 15a3 77       		.byte	0x77
 11110 15a4 807C     		.sleb128 -512
 11111 15a6 9F       		.byte	0x9f
 11112 15a7 A6010000 		.4byte	.LVL343
ARM GAS  C:\Users\gjl\AppData\Local\Temp\ccNVysBX.s 			page 265


 11113 15ab B8010000 		.4byte	.LVL345
 11114 15af 0100     		.2byte	0x1
 11115 15b1 57       		.byte	0x57
 11116 15b2 B8010000 		.4byte	.LVL345
 11117 15b6 C2010000 		.4byte	.LVL346
 11118 15ba 0400     		.2byte	0x4
 11119 15bc 77       		.byte	0x77
 11120 15bd C07B     		.sleb128 -576
 11121 15bf 9F       		.byte	0x9f
 11122 15c0 00000000 		.4byte	0
 11123 15c4 00000000 		.4byte	0
 11124              	.LLST93:
 11125 15c8 78010000 		.4byte	.LVL338
 11126 15cc C2010000 		.4byte	.LVL346
 11127 15d0 0100     		.2byte	0x1
 11128 15d2 56       		.byte	0x56
 11129 15d3 00000000 		.4byte	0
 11130 15d7 00000000 		.4byte	0
 11131              	.LLST94:
 11132 15db A4010000 		.4byte	.LVL342
 11133 15df A6010000 		.4byte	.LVL343
 11134 15e3 0100     		.2byte	0x1
 11135 15e5 53       		.byte	0x53
 11136 15e6 00000000 		.4byte	0
 11137 15ea 00000000 		.4byte	0
 11138              	.LLST95:
 11139 15ee C6010000 		.4byte	.LVL347
 11140 15f2 2A020000 		.4byte	.LVL354
 11141 15f6 0300     		.2byte	0x3
 11142 15f8 91       		.byte	0x91
 11143 15f9 50       		.sleb128 -48
 11144 15fa 9F       		.byte	0x9f
 11145 15fb 00000000 		.4byte	0
 11146 15ff 00000000 		.4byte	0
 11147              	.LLST96:
 11148 1603 C6010000 		.4byte	.LVL347
 11149 1607 2A020000 		.4byte	.LVL354
 11150 160b 0300     		.2byte	0x3
 11151 160d 91       		.byte	0x91
 11152 160e 4C       		.sleb128 -52
 11153 160f 9F       		.byte	0x9f
 11154 1610 00000000 		.4byte	0
 11155 1614 00000000 		.4byte	0
 11156              	.LLST97:
 11157 1618 C6010000 		.4byte	.LVL347
 11158 161c F0010000 		.4byte	.LVL350
 11159 1620 0100     		.2byte	0x1
 11160 1622 57       		.byte	0x57
 11161 1623 F0010000 		.4byte	.LVL350
 11162 1627 06020000 		.4byte	.LVL351
 11163 162b 0400     		.2byte	0x4
 11164 162d 77       		.byte	0x77
 11165 162e 807B     		.sleb128 -640
 11166 1630 9F       		.byte	0x9f
 11167 1631 06020000 		.4byte	.LVL351
 11168 1635 18020000 		.4byte	.LVL353
 11169 1639 0100     		.2byte	0x1
ARM GAS  C:\Users\gjl\AppData\Local\Temp\ccNVysBX.s 			page 266


 11170 163b 57       		.byte	0x57
 11171 163c 18020000 		.4byte	.LVL353
 11172 1640 2A020000 		.4byte	.LVL354
 11173 1644 0400     		.2byte	0x4
 11174 1646 77       		.byte	0x77
 11175 1647 C07A     		.sleb128 -704
 11176 1649 9F       		.byte	0x9f
 11177 164a 00000000 		.4byte	0
 11178 164e 00000000 		.4byte	0
 11179              	.LLST98:
 11180 1652 C6010000 		.4byte	.LVL347
 11181 1656 2A020000 		.4byte	.LVL354
 11182 165a 0100     		.2byte	0x1
 11183 165c 56       		.byte	0x56
 11184 165d 00000000 		.4byte	0
 11185 1661 00000000 		.4byte	0
 11186              		.section	.debug_aranges,"",%progbits
 11187 0000 A4000000 		.4byte	0xa4
 11188 0004 0200     		.2byte	0x2
 11189 0006 00000000 		.4byte	.Ldebug_info0
 11190 000a 04       		.byte	0x4
 11191 000b 00       		.byte	0
 11192 000c 0000     		.2byte	0
 11193 000e 0000     		.2byte	0
 11194 0010 00000000 		.4byte	.LFB215
 11195 0014 28020000 		.4byte	.LFE215-.LFB215
 11196 0018 00000000 		.4byte	.LFB216
 11197 001c 50000000 		.4byte	.LFE216-.LFB216
 11198 0020 00000000 		.4byte	.LFB217
 11199 0024 50000000 		.4byte	.LFE217-.LFB217
 11200 0028 00000000 		.4byte	.LFB218
 11201 002c 3C000000 		.4byte	.LFE218-.LFB218
 11202 0030 00000000 		.4byte	.LFB220
 11203 0034 50010000 		.4byte	.LFE220-.LFB220
 11204 0038 00000000 		.4byte	.LFB219
 11205 003c 7C030000 		.4byte	.LFE219-.LFB219
 11206 0040 00000000 		.4byte	.LFB221
 11207 0044 64000000 		.4byte	.LFE221-.LFB221
 11208 0048 00000000 		.4byte	.LFB222
 11209 004c B4000000 		.4byte	.LFE222-.LFB222
 11210 0050 00000000 		.4byte	.LFB224
 11211 0054 C8000000 		.4byte	.LFE224-.LFB224
 11212 0058 00000000 		.4byte	.LFB223
 11213 005c 68010000 		.4byte	.LFE223-.LFB223
 11214 0060 00000000 		.4byte	.LFB225
 11215 0064 44000000 		.4byte	.LFE225-.LFB225
 11216 0068 00000000 		.4byte	.LFB226
 11217 006c 54000000 		.4byte	.LFE226-.LFB226
 11218 0070 00000000 		.4byte	.LFB227
 11219 0074 80010000 		.4byte	.LFE227-.LFB227
 11220 0078 00000000 		.4byte	.LFB228
 11221 007c 84000000 		.4byte	.LFE228-.LFB228
 11222 0080 00000000 		.4byte	.LFB229
 11223 0084 74000000 		.4byte	.LFE229-.LFB229
 11224 0088 00000000 		.4byte	.LFB230
 11225 008c 88000000 		.4byte	.LFE230-.LFB230
 11226 0090 00000000 		.4byte	.LFB231
ARM GAS  C:\Users\gjl\AppData\Local\Temp\ccNVysBX.s 			page 267


 11227 0094 A4010000 		.4byte	.LFE231-.LFB231
 11228 0098 00000000 		.4byte	.LFB232
 11229 009c 6C020000 		.4byte	.LFE232-.LFB232
 11230 00a0 00000000 		.4byte	0
 11231 00a4 00000000 		.4byte	0
 11232              		.section	.debug_ranges,"",%progbits
 11233              	.Ldebug_ranges0:
 11234 0000 24000000 		.4byte	.LBB29
 11235 0004 CE010000 		.4byte	.LBE29
 11236 0008 D2010000 		.4byte	.LBB31
 11237 000c D8010000 		.4byte	.LBE31
 11238 0010 00000000 		.4byte	0
 11239 0014 00000000 		.4byte	0
 11240 0018 74000000 		.4byte	.LBB40
 11241 001c 14010000 		.4byte	.LBE40
 11242 0020 18010000 		.4byte	.LBB43
 11243 0024 24010000 		.4byte	.LBE43
 11244 0028 00000000 		.4byte	0
 11245 002c 00000000 		.4byte	0
 11246 0030 AC000000 		.4byte	.LBB50
 11247 0034 B0000000 		.4byte	.LBE50
 11248 0038 B2000000 		.4byte	.LBB53
 11249 003c CC000000 		.4byte	.LBE53
 11250 0040 D0000000 		.4byte	.LBB54
 11251 0044 D2000000 		.4byte	.LBE54
 11252 0048 08010000 		.4byte	.LBB62
 11253 004c 0C010000 		.4byte	.LBE62
 11254 0050 00000000 		.4byte	0
 11255 0054 00000000 		.4byte	0
 11256 0058 D6000000 		.4byte	.LBB55
 11257 005c 08010000 		.4byte	.LBE55
 11258 0060 0C010000 		.4byte	.LBB63
 11259 0064 70010000 		.4byte	.LBE63
 11260 0068 72010000 		.4byte	.LBB64
 11261 006c 76010000 		.4byte	.LBE64
 11262 0070 00000000 		.4byte	0
 11263 0074 00000000 		.4byte	0
 11264 0078 F4000000 		.4byte	.LBB56
 11265 007c 08010000 		.4byte	.LBE56
 11266 0080 0C010000 		.4byte	.LBB61
 11267 0084 6C010000 		.4byte	.LBE61
 11268 0088 00000000 		.4byte	0
 11269 008c 00000000 		.4byte	0
 11270 0090 00000000 		.4byte	.LFB215
 11271 0094 28020000 		.4byte	.LFE215
 11272 0098 00000000 		.4byte	.LFB216
 11273 009c 50000000 		.4byte	.LFE216
 11274 00a0 00000000 		.4byte	.LFB217
 11275 00a4 50000000 		.4byte	.LFE217
 11276 00a8 00000000 		.4byte	.LFB218
 11277 00ac 3C000000 		.4byte	.LFE218
 11278 00b0 00000000 		.4byte	.LFB220
 11279 00b4 50010000 		.4byte	.LFE220
 11280 00b8 00000000 		.4byte	.LFB219
 11281 00bc 7C030000 		.4byte	.LFE219
 11282 00c0 00000000 		.4byte	.LFB221
 11283 00c4 64000000 		.4byte	.LFE221
ARM GAS  C:\Users\gjl\AppData\Local\Temp\ccNVysBX.s 			page 268


 11284 00c8 00000000 		.4byte	.LFB222
 11285 00cc B4000000 		.4byte	.LFE222
 11286 00d0 00000000 		.4byte	.LFB224
 11287 00d4 C8000000 		.4byte	.LFE224
 11288 00d8 00000000 		.4byte	.LFB223
 11289 00dc 68010000 		.4byte	.LFE223
 11290 00e0 00000000 		.4byte	.LFB225
 11291 00e4 44000000 		.4byte	.LFE225
 11292 00e8 00000000 		.4byte	.LFB226
 11293 00ec 54000000 		.4byte	.LFE226
 11294 00f0 00000000 		.4byte	.LFB227
 11295 00f4 80010000 		.4byte	.LFE227
 11296 00f8 00000000 		.4byte	.LFB228
 11297 00fc 84000000 		.4byte	.LFE228
 11298 0100 00000000 		.4byte	.LFB229
 11299 0104 74000000 		.4byte	.LFE229
 11300 0108 00000000 		.4byte	.LFB230
 11301 010c 88000000 		.4byte	.LFE230
 11302 0110 00000000 		.4byte	.LFB231
 11303 0114 A4010000 		.4byte	.LFE231
 11304 0118 00000000 		.4byte	.LFB232
 11305 011c 6C020000 		.4byte	.LFE232
 11306 0120 00000000 		.4byte	0
 11307 0124 00000000 		.4byte	0
 11308              		.section	.debug_line,"",%progbits
 11309              	.Ldebug_line0:
 11310 0000 61090000 		.section	.debug_str,"MS",%progbits,1
 11310      0200FA02 
 11310      00000201 
 11310      FB0E0D00 
 11310      01010101 
 11311              	.LASF22:
 11312 0000 52455345 		.ascii	"RESERVED\000"
 11312      52564544 
 11312      00
 11313              	.LASF162:
 11314 0009 434C4B5F 		.ascii	"CLK_TRIM_CCO_CTL2\000"
 11314      5452494D 
 11314      5F43434F 
 11314      5F43544C 
 11314      3200
 11315              	.LASF171:
 11316 001b 53525353 		.ascii	"SRSS_Type\000"
 11316      5F547970 
 11316      6500
 11317              	.LASF371:
 11318 0025 43795F53 		.ascii	"Cy_SysClk_PllEnable\000"
 11318      7973436C 
 11318      6B5F506C 
 11318      6C456E61 
 11318      626C6500 
 11319              	.LASF247:
 11320 0039 43595F53 		.ascii	"CY_SYSCLK_MEAS_CLK_PILO\000"
 11320      5953434C 
 11320      4B5F4D45 
 11320      41535F43 
 11320      4C4B5F50 
ARM GAS  C:\Users\gjl\AppData\Local\Temp\ccNVysBX.s 			page 269


 11321              	.LASF323:
 11322 0051 636C6B48 		.ascii	"clkHf\000"
 11322      6600
 11323              	.LASF397:
 11324 0057 43795F53 		.ascii	"Cy_SysClk_PeriphGetFracDivider\000"
 11324      7973436C 
 11324      6B5F5065 
 11324      72697068 
 11324      47657446 
 11325              	.LASF173:
 11326 0076 63686172 		.ascii	"char\000"
 11326      00
 11327              	.LASF84:
 11328 007b 44505F53 		.ascii	"DP_STATUS\000"
 11328      54415455 
 11328      5300
 11329              	.LASF370:
 11330 0085 43795F53 		.ascii	"Cy_SysClk_PllGetConfiguration\000"
 11330      7973436C 
 11330      6B5F506C 
 11330      6C476574 
 11330      436F6E66 
 11331              	.LASF348:
 11332 00a3 72657475 		.ascii	"returnStatus\000"
 11332      726E5374 
 11332      61747573 
 11332      00
 11333              	.LASF82:
 11334 00b0 5544425F 		.ascii	"UDB_PWR_DELAY_CTL\000"
 11334      5057525F 
 11334      44454C41 
 11334      595F4354 
 11334      4C00
 11335              	.LASF310:
 11336 00c2 43595F53 		.ascii	"CY_SYSCLK_DIV_8_BIT\000"
 11336      5953434C 
 11336      4B5F4449 
 11336      565F385F 
 11336      42495400 
 11337              	.LASF378:
 11338 00d6 72656643 		.ascii	"refClkFreq\000"
 11338      6C6B4672 
 11338      657100
 11339              	.LASF184:
 11340 00e1 63795F65 		.ascii	"cy_en_syspm_status_t\000"
 11340      6E5F7379 
 11340      73706D5F 
 11340      73746174 
 11340      75735F74 
 11341              	.LASF342:
 11342 00f6 43795F53 		.ascii	"Cy_SysClk_ClkPathSetSource\000"
 11342      7973436C 
 11342      6B5F436C 
 11342      6B506174 
 11342      68536574 
 11343              	.LASF320:
 11344 0111 7472696D 		.ascii	"trimVal\000"
ARM GAS  C:\Users\gjl\AppData\Local\Temp\ccNVysBX.s 			page 270


 11344      56616C00 
 11345              	.LASF26:
 11346 0119 50455249 		.ascii	"PERI_GR_Type\000"
 11346      5F47525F 
 11346      54797065 
 11346      00
 11347              	.LASF407:
 11348 0126 696E7465 		.ascii	"integer\000"
 11348      67657200 
 11349              	.LASF196:
 11350 012e 43595F53 		.ascii	"CY_SYSCLK_TIMEOUT\000"
 11350      5953434C 
 11350      4B5F5449 
 11350      4D454F55 
 11350      5400
 11351              	.LASF230:
 11352 0140 63636F5F 		.ascii	"cco_Freq\000"
 11352      46726571 
 11352      00
 11353              	.LASF125:
 11354 0149 5057525F 		.ascii	"PWR_LVD_STATUS\000"
 11354      4C56445F 
 11354      53544154 
 11354      555300
 11355              	.LASF158:
 11356 0158 5245535F 		.ascii	"RES_CAUSE2\000"
 11356      43415553 
 11356      453200
 11357              	.LASF328:
 11358 0163 64726976 		.ascii	"driveLevel\000"
 11358      654C6576 
 11358      656C00
 11359              	.LASF194:
 11360 016e 43595F53 		.ascii	"CY_SYSCLK_SUCCESS\000"
 11360      5953434C 
 11360      4B5F5355 
 11360      43434553 
 11360      5300
 11361              	.LASF395:
 11362 0180 64697669 		.ascii	"dividerNum\000"
 11362      6465724E 
 11362      756D00
 11363              	.LASF50:
 11364 018b 434D305F 		.ascii	"CM0_CLOCK_CTL\000"
 11364      434C4F43 
 11364      4B5F4354 
 11364      4C00
 11365              	.LASF154:
 11366 0199 53525353 		.ascii	"SRSS_INTR_MASK\000"
 11366      5F494E54 
 11366      525F4D41 
 11366      534B00
 11367              	.LASF149:
 11368 01a8 434C4B5F 		.ascii	"CLK_FLL_STATUS\000"
 11368      464C4C5F 
 11368      53544154 
 11368      555300
ARM GAS  C:\Users\gjl\AppData\Local\Temp\ccNVysBX.s 			page 271


 11369              	.LASF94:
 11370 01b7 434D345F 		.ascii	"CM4_VECTOR_TABLE_BASE\000"
 11370      56454354 
 11370      4F525F54 
 11370      41424C45 
 11370      5F424153 
 11371              	.LASF408:
 11372 01cd 66726163 		.ascii	"frac\000"
 11372      00
 11373              	.LASF8:
 11374 01d2 5F5F696E 		.ascii	"__int32_t\000"
 11374      7433325F 
 11374      7400
 11375              	.LASF136:
 11376 01dc 434C4B5F 		.ascii	"CLK_ILO_CONFIG\000"
 11376      494C4F5F 
 11376      434F4E46 
 11376      494700
 11377              	.LASF73:
 11378 01eb 52414D32 		.ascii	"RAM2_CTL0\000"
 11378      5F43544C 
 11378      3000
 11379              	.LASF283:
 11380 01f5 43595F53 		.ascii	"CY_SYSCLK_MEAS_CLK_CLKHF13\000"
 11380      5953434C 
 11380      4B5F4D45 
 11380      41535F43 
 11380      4C4B5F43 
 11381              	.LASF225:
 11382 0210 6C6F636B 		.ascii	"lockTolerance\000"
 11382      546F6C65 
 11382      72616E63 
 11382      6500
 11383              	.LASF222:
 11384 021e 72656644 		.ascii	"refDiv\000"
 11384      697600
 11385              	.LASF44:
 11386 0225 5050555F 		.ascii	"PPU_PR\000"
 11386      505200
 11387              	.LASF380:
 11388 022c 696C6F46 		.ascii	"iloFreq\000"
 11388      72657100 
 11389              	.LASF208:
 11390 0234 43595F53 		.ascii	"CY_SYSCLK_CLKPATH_IN_PILO\000"
 11390      5953434C 
 11390      4B5F434C 
 11390      4B504154 
 11390      485F494E 
 11391              	.LASF382:
 11392 024e 6E657754 		.ascii	"newTrim\000"
 11392      72696D00 
 11393              	.LASF204:
 11394 0256 43595F53 		.ascii	"CY_SYSCLK_CLKPATH_IN_DSI\000"
 11394      5953434C 
 11394      4B5F434C 
 11394      4B504154 
 11394      485F494E 
ARM GAS  C:\Users\gjl\AppData\Local\Temp\ccNVysBX.s 			page 272


 11395              	.LASF139:
 11396 026f 434C4B5F 		.ascii	"CLK_OUTPUT_SLOW\000"
 11396      4F555450 
 11396      55545F53 
 11396      4C4F5700 
 11397              	.LASF321:
 11398 027f 636C6B50 		.ascii	"clkPath\000"
 11398      61746800 
 11399              	.LASF2:
 11400 0287 73686F72 		.ascii	"short int\000"
 11400      7420696E 
 11400      7400
 11401              	.LASF134:
 11402 0291 434C4B5F 		.ascii	"CLK_SELECT\000"
 11402      53454C45 
 11402      435400
 11403              	.LASF106:
 11404 029c 5452494D 		.ascii	"TRIM_ROM_CTL\000"
 11404      5F524F4D 
 11404      5F43544C 
 11404      00
 11405              	.LASF417:
 11406 02a9 666C6F6F 		.ascii	"floor\000"
 11406      7200
 11407              	.LASF35:
 11408 02af 4449565F 		.ascii	"DIV_CMD\000"
 11408      434D4400 
 11409              	.LASF190:
 11410 02b7 6D6F6465 		.ascii	"mode\000"
 11410      00
 11411              	.LASF88:
 11412 02bc 44444654 		.ascii	"DDFT_CTL\000"
 11412      5F43544C 
 11412      00
 11413              	.LASF362:
 11414 02c5 43795F53 		.ascii	"Cy_SysClk_FllEnable\000"
 11414      7973436C 
 11414      6B5F466C 
 11414      6C456E61 
 11414      626C6500 
 11415              	.LASF393:
 11416 02d9 43795F53 		.ascii	"Cy_SysClk_PeriphGetDivider\000"
 11416      7973436C 
 11416      6B5F5065 
 11416      72697068 
 11416      47657444 
 11417              	.LASF160:
 11418 02f4 5057525F 		.ascii	"PWR_TRIM_BODOVP_CTL\000"
 11418      5452494D 
 11418      5F424F44 
 11418      4F56505F 
 11418      43544C00 
 11419              	.LASF221:
 11420 0308 666C6C4D 		.ascii	"fllMult\000"
 11420      756C7400 
 11421              	.LASF79:
 11422 0310 524F4D5F 		.ascii	"ROM_CTL\000"
ARM GAS  C:\Users\gjl\AppData\Local\Temp\ccNVysBX.s 			page 273


 11422      43544C00 
 11423              	.LASF49:
 11424 0318 434D305F 		.ascii	"CM0_STATUS\000"
 11424      53544154 
 11424      555300
 11425              	.LASF309:
 11426 0323 63795F65 		.ascii	"cy_en_clkhf_dividers_t\000"
 11426      6E5F636C 
 11426      6B68665F 
 11426      64697669 
 11426      64657273 
 11427              	.LASF420:
 11428 033a 433A5C55 		.ascii	"C:\\Users\\gjl\\Documents\\PSoC Creator\\PSoC 6_101"
 11428      73657273 
 11428      5C676A6C 
 11428      5C446F63 
 11428      756D656E 
 11429 0368 5C48656C 		.ascii	"\\HelloWorldCM4.cydsn\000"
 11429      6C6F576F 
 11429      726C6443 
 11429      4D342E63 
 11429      7964736E 
 11430              	.LASF373:
 11431 037d 636C6F63 		.ascii	"clock1\000"
 11431      6B3100
 11432              	.LASF375:
 11433 0384 636C6F63 		.ascii	"clock2\000"
 11433      6B3200
 11434              	.LASF354:
 11435 038b 6B63636F 		.ascii	"kcco\000"
 11435      00
 11436              	.LASF399:
 11437 0390 64697669 		.ascii	"dividerFracValue\000"
 11437      64657246 
 11437      72616356 
 11437      616C7565 
 11437      00
 11438              	.LASF361:
 11439 03a1 74656D70 		.ascii	"tempReg\000"
 11439      52656700 
 11440              	.LASF286:
 11441 03a9 43595F53 		.ascii	"CY_SYSCLK_MEAS_CLK_LAST_CLK\000"
 11441      5953434C 
 11441      4B5F4D45 
 11441      41535F43 
 11441      4C4B5F4C 
 11442              	.LASF120:
 11443 03c5 5057525F 		.ascii	"PWR_CTL\000"
 11443      43544C00 
 11444              	.LASF163:
 11445 03cd 5057525F 		.ascii	"PWR_TRIM_WAKE_CTL\000"
 11445      5452494D 
 11445      5F57414B 
 11445      455F4354 
 11445      4C00
 11446              	.LASF126:
 11447 03df 5057525F 		.ascii	"PWR_HIB_DATA\000"
ARM GAS  C:\Users\gjl\AppData\Local\Temp\ccNVysBX.s 			page 274


 11447      4849425F 
 11447      44415441 
 11447      00
 11448              	.LASF372:
 11449 03ec 43795F53 		.ascii	"Cy_SysClk_StartClkMeasurementCounters\000"
 11449      7973436C 
 11449      6B5F5374 
 11449      61727443 
 11449      6C6B4D65 
 11450              	.LASF387:
 11451 0412 43795F53 		.ascii	"Cy_SysClk_DeepSleepCallback\000"
 11451      7973436C 
 11451      6B5F4465 
 11451      6570536C 
 11451      65657043 
 11452              	.LASF402:
 11453 042e 736F7572 		.ascii	"source_freq\000"
 11453      63655F66 
 11453      72657100 
 11454              	.LASF319:
 11455 043a 43795F53 		.ascii	"Cy_SysClk_PllLocked\000"
 11455      7973436C 
 11455      6B5F506C 
 11455      6C4C6F63 
 11455      6B656400 
 11456              	.LASF336:
 11457 044e 67747269 		.ascii	"gtrim\000"
 11457      6D00
 11458              	.LASF71:
 11459 0454 52414D31 		.ascii	"RAM1_PWR_CTL\000"
 11459      5F505752 
 11459      5F43544C 
 11459      00
 11460              	.LASF409:
 11461 0461 636C6B64 		.ascii	"clkdiv\000"
 11461      697600
 11462              	.LASF18:
 11463 0468 75696E74 		.ascii	"uint32_t\000"
 11463      33325F74 
 11463      00
 11464              	.LASF299:
 11465 0471 43595F53 		.ascii	"CY_SYSCLK_CLKHF_IN_CLKPATH11\000"
 11465      5953434C 
 11465      4B5F434C 
 11465      4B48465F 
 11465      494E5F43 
 11466              	.LASF235:
 11467 048e 6C664D6F 		.ascii	"lfMode\000"
 11467      646500
 11468              	.LASF165:
 11469 0495 434C4B5F 		.ascii	"CLK_TRIM_ILO_CTL\000"
 11469      5452494D 
 11469      5F494C4F 
 11469      5F43544C 
 11469      00
 11470              	.LASF117:
 11471 04a6 4D435744 		.ascii	"MCWDT_INTR_MASKED\000"
ARM GAS  C:\Users\gjl\AppData\Local\Temp\ccNVysBX.s 			page 275


 11471      545F494E 
 11471      54525F4D 
 11471      41534B45 
 11471      4400
 11472              	.LASF406:
 11473 04b8 636C6B48 		.ascii	"clkHf0_div\000"
 11473      66305F64 
 11473      697600
 11474              	.LASF413:
 11475 04c3 73717274 		.ascii	"sqrt\000"
 11475      00
 11476              	.LASF191:
 11477 04c8 62617365 		.ascii	"base\000"
 11477      00
 11478              	.LASF280:
 11479 04cd 43595F53 		.ascii	"CY_SYSCLK_MEAS_CLK_CLKHF10\000"
 11479      5953434C 
 11479      4B5F4D45 
 11479      41535F43 
 11479      4C4B5F43 
 11480              	.LASF281:
 11481 04e8 43595F53 		.ascii	"CY_SYSCLK_MEAS_CLK_CLKHF11\000"
 11481      5953434C 
 11481      4B5F4D45 
 11481      41535F43 
 11481      4C4B5F43 
 11482              	.LASF23:
 11483 0503 534C5F43 		.ascii	"SL_CTL\000"
 11483      544C00
 11484              	.LASF369:
 11485 050a 666F7574 		.ascii	"fout\000"
 11485      00
 11486              	.LASF284:
 11487 050f 43595F53 		.ascii	"CY_SYSCLK_MEAS_CLK_CLKHF14\000"
 11487      5953434C 
 11487      4B5F4D45 
 11487      41535F43 
 11487      4C4B5F43 
 11488              	.LASF285:
 11489 052a 43595F53 		.ascii	"CY_SYSCLK_MEAS_CLK_CLKHF15\000"
 11489      5953434C 
 11489      4B5F4D45 
 11489      41535F43 
 11489      4C4B5F43 
 11490              	.LASF228:
 11491 0545 73657474 		.ascii	"settlingCount\000"
 11491      6C696E67 
 11491      436F756E 
 11491      7400
 11492              	.LASF164:
 11493 0553 5057525F 		.ascii	"PWR_TRIM_LVD_CTL\000"
 11493      5452494D 
 11493      5F4C5644 
 11493      5F43544C 
 11493      00
 11494              	.LASF68:
 11495 0564 52414D30 		.ascii	"RAM0_PWR_MACRO_CTL\000"
ARM GAS  C:\Users\gjl\AppData\Local\Temp\ccNVysBX.s 			page 276


 11495      5F505752 
 11495      5F4D4143 
 11495      524F5F43 
 11495      544C00
 11496              	.LASF14:
 11497 0577 6C6F6E67 		.ascii	"long long unsigned int\000"
 11497      206C6F6E 
 11497      6720756E 
 11497      7369676E 
 11497      65642069 
 11498              	.LASF337:
 11499 058e 72747269 		.ascii	"rtrim\000"
 11499      6D00
 11500              	.LASF226:
 11501 0594 69676169 		.ascii	"igain\000"
 11501      6E00
 11502              	.LASF288:
 11503 059a 43595F53 		.ascii	"CY_SYSCLK_CLKHF_IN_CLKPATH0\000"
 11503      5953434C 
 11503      4B5F434C 
 11503      4B48465F 
 11503      494E5F43 
 11504              	.LASF289:
 11505 05b6 43595F53 		.ascii	"CY_SYSCLK_CLKHF_IN_CLKPATH1\000"
 11505      5953434C 
 11505      4B5F434C 
 11505      4B48465F 
 11505      494E5F43 
 11506              	.LASF290:
 11507 05d2 43595F53 		.ascii	"CY_SYSCLK_CLKHF_IN_CLKPATH2\000"
 11507      5953434C 
 11507      4B5F434C 
 11507      4B48465F 
 11507      494E5F43 
 11508              	.LASF291:
 11509 05ee 43595F53 		.ascii	"CY_SYSCLK_CLKHF_IN_CLKPATH3\000"
 11509      5953434C 
 11509      4B5F434C 
 11509      4B48465F 
 11509      494E5F43 
 11510              	.LASF292:
 11511 060a 43595F53 		.ascii	"CY_SYSCLK_CLKHF_IN_CLKPATH4\000"
 11511      5953434C 
 11511      4B5F434C 
 11511      4B48465F 
 11511      494E5F43 
 11512              	.LASF293:
 11513 0626 43595F53 		.ascii	"CY_SYSCLK_CLKHF_IN_CLKPATH5\000"
 11513      5953434C 
 11513      4B5F434C 
 11513      4B48465F 
 11513      494E5F43 
 11514              	.LASF294:
 11515 0642 43595F53 		.ascii	"CY_SYSCLK_CLKHF_IN_CLKPATH6\000"
 11515      5953434C 
 11515      4B5F434C 
 11515      4B48465F 
ARM GAS  C:\Users\gjl\AppData\Local\Temp\ccNVysBX.s 			page 277


 11515      494E5F43 
 11516              	.LASF295:
 11517 065e 43595F53 		.ascii	"CY_SYSCLK_CLKHF_IN_CLKPATH7\000"
 11517      5953434C 
 11517      4B5F434C 
 11517      4B48465F 
 11517      494E5F43 
 11518              	.LASF296:
 11519 067a 43595F53 		.ascii	"CY_SYSCLK_CLKHF_IN_CLKPATH8\000"
 11519      5953434C 
 11519      4B5F434C 
 11519      4B48465F 
 11519      494E5F43 
 11520              	.LASF297:
 11521 0696 43595F53 		.ascii	"CY_SYSCLK_CLKHF_IN_CLKPATH9\000"
 11521      5953434C 
 11521      4B5F434C 
 11521      4B48465F 
 11521      494E5F43 
 11522              	.LASF6:
 11523 06b2 5F5F7569 		.ascii	"__uint16_t\000"
 11523      6E743136 
 11523      5F7400
 11524              	.LASF124:
 11525 06bd 5057525F 		.ascii	"PWR_BUCK_CTL2\000"
 11525      4255434B 
 11525      5F43544C 
 11525      3200
 11526              	.LASF243:
 11527 06cb 43595F53 		.ascii	"CY_SYSCLK_MEAS_CLK_BAK\000"
 11527      5953434C 
 11527      4B5F4D45 
 11527      41535F43 
 11527      4C4B5F42 
 11528              	.LASF315:
 11529 06e2 43795F53 		.ascii	"Cy_SysClk_FllDisable\000"
 11529      7973436C 
 11529      6B5F466C 
 11529      6C446973 
 11529      61626C65 
 11530              	.LASF174:
 11531 06f7 666C6F61 		.ascii	"float32_t\000"
 11531      7433325F 
 11531      7400
 11532              	.LASF340:
 11533 0701 43795F53 		.ascii	"Cy_SysClk_EcoEnable\000"
 11533      7973436C 
 11533      6B5F4563 
 11533      6F456E61 
 11533      626C6500 
 11534              	.LASF357:
 11535 0715 74747265 		.ascii	"ttref\000"
 11535      6600
 11536              	.LASF355:
 11537 071b 6B695F70 		.ascii	"ki_p\000"
 11537      00
 11538              	.LASF152:
ARM GAS  C:\Users\gjl\AppData\Local\Temp\ccNVysBX.s 			page 278


 11539 0720 53525353 		.ascii	"SRSS_INTR\000"
 11539      5F494E54 
 11539      5200
 11540              	.LASF145:
 11541 072a 434C4B5F 		.ascii	"CLK_FLL_CONFIG\000"
 11541      464C4C5F 
 11541      434F4E46 
 11541      494700
 11542              	.LASF322:
 11543 0739 43795F53 		.ascii	"Cy_SysClk_ClkHfGetSource\000"
 11543      7973436C 
 11543      6B5F436C 
 11543      6B486647 
 11543      6574536F 
 11544              	.LASF350:
 11545 0752 63636F46 		.ascii	"ccoFreq\000"
 11545      72657100 
 11546              	.LASF108:
 11547 075a 43505553 		.ascii	"CPUSS_Type\000"
 11547      535F5479 
 11547      706500
 11548              	.LASF143:
 11549 0765 434C4B5F 		.ascii	"CLK_ECO_STATUS\000"
 11549      45434F5F 
 11549      53544154 
 11549      555300
 11550              	.LASF179:
 11551 0774 43595F53 		.ascii	"CY_SYSPM_SUCCESS\000"
 11551      5953504D 
 11551      5F535543 
 11551      43455353 
 11551      00
 11552              	.LASF110:
 11553 0785 4D435744 		.ascii	"MCWDT_CNTHIGH\000"
 11553      545F434E 
 11553      54484947 
 11553      4800
 11554              	.LASF193:
 11555 0793 63795F73 		.ascii	"cy_stc_syspm_callback_params_t\000"
 11555      74635F73 
 11555      7973706D 
 11555      5F63616C 
 11555      6C626163 
 11556              	.LASF306:
 11557 07b2 43595F53 		.ascii	"CY_SYSCLK_CLKHF_DIVIDE_BY_2\000"
 11557      5953434C 
 11557      4B5F434C 
 11557      4B48465F 
 11557      44495649 
 11558              	.LASF307:
 11559 07ce 43595F53 		.ascii	"CY_SYSCLK_CLKHF_DIVIDE_BY_4\000"
 11559      5953434C 
 11559      4B5F434C 
 11559      4B48465F 
 11559      44495649 
 11560              	.LASF41:
 11561 07ea 54525F43 		.ascii	"TR_CMD\000"
ARM GAS  C:\Users\gjl\AppData\Local\Temp\ccNVysBX.s 			page 279


 11561      4D4400
 11562              	.LASF308:
 11563 07f1 43595F53 		.ascii	"CY_SYSCLK_CLKHF_DIVIDE_BY_8\000"
 11563      5953434C 
 11563      4B5F434C 
 11563      4B48465F 
 11563      44495649 
 11564              	.LASF198:
 11565 080d 63795F65 		.ascii	"cy_en_sysclk_status_t\000"
 11565      6E5F7379 
 11565      73636C6B 
 11565      5F737461 
 11565      7475735F 
 11566              	.LASF146:
 11567 0823 434C4B5F 		.ascii	"CLK_FLL_CONFIG2\000"
 11567      464C4C5F 
 11567      434F4E46 
 11567      49473200 
 11568              	.LASF317:
 11569 0833 43795F53 		.ascii	"Cy_SysClk_FllLocked\000"
 11569      7973436C 
 11569      6B5F466C 
 11569      6C4C6F63 
 11569      6B656400 
 11570              	.LASF148:
 11571 0847 434C4B5F 		.ascii	"CLK_FLL_CONFIG4\000"
 11571      464C4C5F 
 11571      434F4E46 
 11571      49473400 
 11572              	.LASF129:
 11573 0857 5744545F 		.ascii	"WDT_MATCH\000"
 11573      4D415443 
 11573      4800
 11574              	.LASF140:
 11575 0861 434C4B5F 		.ascii	"CLK_CAL_CNT1\000"
 11575      43414C5F 
 11575      434E5431 
 11575      00
 11576              	.LASF141:
 11577 086e 434C4B5F 		.ascii	"CLK_CAL_CNT2\000"
 11577      43414C5F 
 11577      434E5432 
 11577      00
 11578              	.LASF233:
 11579 087b 696E7075 		.ascii	"inputFreq\000"
 11579      74467265 
 11579      7100
 11580              	.LASF186:
 11581 0885 43595F53 		.ascii	"CY_SYSPM_CHECK_FAIL\000"
 11581      5953504D 
 11581      5F434845 
 11581      434B5F46 
 11581      41494C00 
 11582              	.LASF239:
 11583 0899 6F757470 		.ascii	"outputDiv\000"
 11583      75744469 
 11583      7600
ARM GAS  C:\Users\gjl\AppData\Local\Temp\ccNVysBX.s 			page 280


 11584              	.LASF304:
 11585 08a3 63795F65 		.ascii	"cy_en_clkhf_in_sources_t\000"
 11585      6E5F636C 
 11585      6B68665F 
 11585      696E5F73 
 11585      6F757263 
 11586              	.LASF231:
 11587 08bc 5F426F6F 		.ascii	"_Bool\000"
 11587      6C00
 11588              	.LASF66:
 11589 08c2 52414D30 		.ascii	"RAM0_CTL0\000"
 11589      5F43544C 
 11589      3000
 11590              	.LASF227:
 11591 08cc 70676169 		.ascii	"pgain\000"
 11591      6E00
 11592              	.LASF116:
 11593 08d2 4D435744 		.ascii	"MCWDT_INTR_MASK\000"
 11593      545F494E 
 11593      54525F4D 
 11593      41534B00 
 11594              	.LASF39:
 11595 08e2 4449565F 		.ascii	"DIV_24_5_CTL\000"
 11595      32345F35 
 11595      5F43544C 
 11595      00
 11596              	.LASF150:
 11597 08ef 434C4B5F 		.ascii	"CLK_PLL_CONFIG\000"
 11597      504C4C5F 
 11597      434F4E46 
 11597      494700
 11598              	.LASF96:
 11599 08fe 434D305F 		.ascii	"CM0_PC0_HANDLER\000"
 11599      5043305F 
 11599      48414E44 
 11599      4C455200 
 11600              	.LASF240:
 11601 090e 63795F73 		.ascii	"cy_stc_pll_manual_config_t\000"
 11601      74635F70 
 11601      6C6C5F6D 
 11601      616E7561 
 11601      6C5F636F 
 11602              	.LASF151:
 11603 0929 434C4B5F 		.ascii	"CLK_PLL_STATUS\000"
 11603      504C4C5F 
 11603      53544154 
 11603      555300
 11604              	.LASF37:
 11605 0938 4449565F 		.ascii	"DIV_16_CTL\000"
 11605      31365F43 
 11605      544C00
 11606              	.LASF214:
 11607 0943 63795F65 		.ascii	"cy_en_fll_pll_output_mode_t\000"
 11607      6E5F666C 
 11607      6C5F706C 
 11607      6C5F6F75 
 11607      74707574 
ARM GAS  C:\Users\gjl\AppData\Local\Temp\ccNVysBX.s 			page 281


 11608              	.LASF326:
 11609 095f 66726571 		.ascii	"freq\000"
 11609      00
 11610              	.LASF252:
 11611 0964 43595F53 		.ascii	"CY_SYSCLK_MEAS_CLK_PATH_CLKS\000"
 11611      5953434C 
 11611      4B5F4D45 
 11611      41535F43 
 11611      4C4B5F50 
 11612              	.LASF156:
 11613 0981 53525353 		.ascii	"SRSS_INTR_CFG\000"
 11613      5F494E54 
 11613      525F4346 
 11613      4700
 11614              	.LASF77:
 11615 098f 52414D5F 		.ascii	"RAM_PWR_DELAY_CTL\000"
 11615      5057525F 
 11615      44454C41 
 11615      595F4354 
 11615      4C00
 11616              	.LASF169:
 11617 09a1 434C4B5F 		.ascii	"CLK_TRIM_PILO_CTL2\000"
 11617      5452494D 
 11617      5F50494C 
 11617      4F5F4354 
 11617      4C3200
 11618              	.LASF170:
 11619 09b4 434C4B5F 		.ascii	"CLK_TRIM_PILO_CTL3\000"
 11619      5452494D 
 11619      5F50494C 
 11619      4F5F4354 
 11619      4C3300
 11620              	.LASF137:
 11621 09c7 434C4B5F 		.ascii	"CLK_IMO_CONFIG\000"
 11621      494D4F5F 
 11621      434F4E46 
 11621      494700
 11622              	.LASF381:
 11623 09d6 7472696D 		.ascii	"trimStep\000"
 11623      53746570 
 11623      00
 11624              	.LASF34:
 11625 09df 50455249 		.ascii	"PERI_PPU_GR_Type\000"
 11625      5F505055 
 11625      5F47525F 
 11625      54797065 
 11625      00
 11626              	.LASF398:
 11627 09f0 64697669 		.ascii	"dividerIntValue\000"
 11627      64657249 
 11627      6E745661 
 11627      6C756500 
 11628              	.LASF346:
 11629 0a00 43795F53 		.ascii	"Cy_SysClk_FllManualConfigure\000"
 11629      7973436C 
 11629      6B5F466C 
 11629      6C4D616E 
ARM GAS  C:\Users\gjl\AppData\Local\Temp\ccNVysBX.s 			page 282


 11629      75616C43 
 11630              	.LASF181:
 11631 0a1d 43595F53 		.ascii	"CY_SYSPM_TIMEOUT\000"
 11631      5953504D 
 11631      5F54494D 
 11631      454F5554 
 11631      00
 11632              	.LASF245:
 11633 0a2e 43595F53 		.ascii	"CY_SYSCLK_MEAS_CLK_LFCLK\000"
 11633      5953434C 
 11633      4B5F4D45 
 11633      41535F43 
 11633      4C4B5F4C 
 11634              	.LASF182:
 11635 0a47 43595F53 		.ascii	"CY_SYSPM_INVALID_STATE\000"
 11635      5953504D 
 11635      5F494E56 
 11635      414C4944 
 11635      5F535441 
 11636              	.LASF38:
 11637 0a5e 4449565F 		.ascii	"DIV_16_5_CTL\000"
 11637      31365F35 
 11637      5F43544C 
 11637      00
 11638              	.LASF216:
 11639 0a6b 43595F53 		.ascii	"CY_SYSCLK_FLL_CCO_RANGE1\000"
 11639      5953434C 
 11639      4B5F464C 
 11639      4C5F4343 
 11639      4F5F5241 
 11640              	.LASF102:
 11641 0a84 434D305F 		.ascii	"CM0_NMI_CTL\000"
 11641      4E4D495F 
 11641      43544C00 
 11642              	.LASF365:
 11643 0a90 43795F53 		.ascii	"Cy_SysClk_PllConfigure\000"
 11643      7973436C 
 11643      6B5F506C 
 11643      6C436F6E 
 11643      66696775 
 11644              	.LASF219:
 11645 0aa7 43595F53 		.ascii	"CY_SYSCLK_FLL_CCO_RANGE4\000"
 11645      5953434C 
 11645      4B5F464C 
 11645      4C5F4343 
 11645      4F5F5241 
 11646              	.LASF27:
 11647 0ac0 54525F4F 		.ascii	"TR_OUT_CTL\000"
 11647      55545F43 
 11647      544C00
 11648              	.LASF333:
 11649 0acb 6E416D70 		.ascii	"nAmpSections\000"
 11649      53656374 
 11649      696F6E73 
 11649      00
 11650              	.LASF43:
 11651 0ad8 54525F47 		.ascii	"TR_GR\000"
ARM GAS  C:\Users\gjl\AppData\Local\Temp\ccNVysBX.s 			page 283


 11651      5200
 11652              	.LASF403:
 11653 0ade 70617468 		.ascii	"path\000"
 11653      00
 11654              	.LASF415:
 11655 0ae3 43795F53 		.ascii	"Cy_SysLib_AssertFailed\000"
 11655      79734C69 
 11655      625F4173 
 11655      73657274 
 11655      4661696C 
 11656              	.LASF62:
 11657 0afa 434D345F 		.ascii	"CM4_CLOCK_CTL\000"
 11657      434C4F43 
 11657      4B5F4354 
 11657      4C00
 11658              	.LASF419:
 11659 0b08 47656E65 		.ascii	"Generated_Source\\PSoC6\\pdl\\drivers\\peripheral\\"
 11659      72617465 
 11659      645F536F 
 11659      75726365 
 11659      5C50536F 
 11660 0b36 73797363 		.ascii	"sysclk\\cy_sysclk.c\000"
 11660      6C6B5C63 
 11660      795F7379 
 11660      73636C6B 
 11660      2E6300
 11661              	.LASF358:
 11662 0b49 74657374 		.ascii	"testval\000"
 11662      76616C00 
 11663              	.LASF263:
 11664 0b51 43595F53 		.ascii	"CY_SYSCLK_MEAS_CLK_PATH10\000"
 11664      5953434C 
 11664      4B5F4D45 
 11664      41535F43 
 11664      4C4B5F50 
 11665              	.LASF394:
 11666 0b6b 64697669 		.ascii	"dividerType\000"
 11666      64657254 
 11666      79706500 
 11667              	.LASF352:
 11668 0b77 7472696D 		.ascii	"trimSteps\000"
 11668      53746570 
 11668      7300
 11669              	.LASF197:
 11670 0b81 43595F53 		.ascii	"CY_SYSCLK_INVALID_STATE\000"
 11670      5953434C 
 11670      4B5F494E 
 11670      56414C49 
 11670      445F5354 
 11671              	.LASF211:
 11672 0b99 43595F53 		.ascii	"CY_SYSCLK_FLLPLL_OUTPUT_AUTO1\000"
 11672      5953434C 
 11672      4B5F464C 
 11672      4C504C4C 
 11672      5F4F5554 
 11673              	.LASF122:
 11674 0bb7 5057525F 		.ascii	"PWR_LVD_CTL\000"
ARM GAS  C:\Users\gjl\AppData\Local\Temp\ccNVysBX.s 			page 284


 11674      4C56445F 
 11674      43544C00 
 11675              	.LASF359:
 11676 0bc3 64697676 		.ascii	"divval\000"
 11676      616C00
 11677              	.LASF224:
 11678 0bca 656E6162 		.ascii	"enableOutputDiv\000"
 11678      6C654F75 
 11678      74707574 
 11678      44697600 
 11679              	.LASF177:
 11680 0bda 75696E74 		.ascii	"uint16\000"
 11680      313600
 11681              	.LASF324:
 11682 0be1 43795F53 		.ascii	"Cy_SysClk_ClkPeriGetDivider\000"
 11682      7973436C 
 11682      6B5F436C 
 11682      6B506572 
 11682      69476574 
 11683              	.LASF128:
 11684 0bfd 5744545F 		.ascii	"WDT_CNT\000"
 11684      434E5400 
 11685              	.LASF383:
 11686 0c05 63757254 		.ascii	"curTrim\000"
 11686      72696D00 
 11687              	.LASF421:
 11688 0c0d 43795F53 		.ascii	"Cy_SysClk_FllGetConfiguration\000"
 11688      7973436C 
 11688      6B5F466C 
 11688      6C476574 
 11688      436F6E66 
 11689              	.LASF364:
 11690 0c2b 43795F53 		.ascii	"Cy_SysClk_PllManualConfigure\000"
 11690      7973436C 
 11690      6B5F506C 
 11690      6C4D616E 
 11690      75616C43 
 11691              	.LASF153:
 11692 0c48 53525353 		.ascii	"SRSS_INTR_SET\000"
 11692      5F494E54 
 11692      525F5345 
 11692      5400
 11693              	.LASF15:
 11694 0c56 75696E74 		.ascii	"uint8_t\000"
 11694      385F7400 
 11695              	.LASF135:
 11696 0c5e 434C4B5F 		.ascii	"CLK_TIMER_CTL\000"
 11696      54494D45 
 11696      525F4354 
 11696      4C00
 11697              	.LASF401:
 11698 0c6c 6C6F636B 		.ascii	"locked\000"
 11698      656400
 11699              	.LASF234:
 11700 0c73 6F757470 		.ascii	"outputFreq\000"
 11700      75744672 
 11700      657100
ARM GAS  C:\Users\gjl\AppData\Local\Temp\ccNVysBX.s 			page 285


 11701              	.LASF201:
 11702 0c7e 43595F53 		.ascii	"CY_SYSCLK_CLKPATH_IN_ECO\000"
 11702      5953434C 
 11702      4B5F434C 
 11702      4B504154 
 11702      485F494E 
 11703              	.LASF411:
 11704 0c97 636C6B43 		.ascii	"clkCounting\000"
 11704      6F756E74 
 11704      696E6700 
 11705              	.LASF100:
 11706 0ca3 50524F54 		.ascii	"PROTECTION\000"
 11706      45435449 
 11706      4F4E00
 11707              	.LASF264:
 11708 0cae 43595F53 		.ascii	"CY_SYSCLK_MEAS_CLK_PATH11\000"
 11708      5953434C 
 11708      4B5F4D45 
 11708      41535F43 
 11708      4C4B5F50 
 11709              	.LASF265:
 11710 0cc8 43595F53 		.ascii	"CY_SYSCLK_MEAS_CLK_PATH12\000"
 11710      5953434C 
 11710      4B5F4D45 
 11710      41535F43 
 11710      4C4B5F50 
 11711              	.LASF266:
 11712 0ce2 43595F53 		.ascii	"CY_SYSCLK_MEAS_CLK_PATH13\000"
 11712      5953434C 
 11712      4B5F4D45 
 11712      41535F43 
 11712      4C4B5F50 
 11713              	.LASF267:
 11714 0cfc 43595F53 		.ascii	"CY_SYSCLK_MEAS_CLK_PATH14\000"
 11714      5953434C 
 11714      4B5F4D45 
 11714      41535F43 
 11714      4C4B5F50 
 11715              	.LASF268:
 11716 0d16 43595F53 		.ascii	"CY_SYSCLK_MEAS_CLK_PATH15\000"
 11716      5953434C 
 11716      4B5F4D45 
 11716      41535F43 
 11716      4C4B5F50 
 11717              	.LASF331:
 11718 0d30 6D617841 		.ascii	"maxAmplitude\000"
 11718      6D706C69 
 11718      74756465 
 11718      00
 11719              	.LASF344:
 11720 0d3d 72657476 		.ascii	"retval\000"
 11720      616C00
 11721              	.LASF109:
 11722 0d44 4D435744 		.ascii	"MCWDT_CNTLOW\000"
 11722      545F434E 
 11722      544C4F57 
 11722      00
ARM GAS  C:\Users\gjl\AppData\Local\Temp\ccNVysBX.s 			page 286


 11723              	.LASF229:
 11724 0d51 6F757470 		.ascii	"outputMode\000"
 11724      75744D6F 
 11724      646500
 11725              	.LASF12:
 11726 0d5c 6C6F6E67 		.ascii	"long long int\000"
 11726      206C6F6E 
 11726      6720696E 
 11726      7400
 11727              	.LASF366:
 11728 0d6a 6D616E75 		.ascii	"manualConfig\000"
 11728      616C436F 
 11728      6E666967 
 11728      00
 11729              	.LASF142:
 11730 0d77 434C4B5F 		.ascii	"CLK_ECO_CONFIG\000"
 11730      45434F5F 
 11730      434F4E46 
 11730      494700
 11731              	.LASF114:
 11732 0d86 4D435744 		.ascii	"MCWDT_INTR\000"
 11732      545F494E 
 11732      545200
 11733              	.LASF410:
 11734 0d91 636C6B31 		.ascii	"clk1Count1\000"
 11734      436F756E 
 11734      743100
 11735              	.LASF251:
 11736 0d9c 43595F53 		.ascii	"CY_SYSCLK_MEAS_CLK_ALTHF\000"
 11736      5953434C 
 11736      4B5F4D45 
 11736      41535F43 
 11736      4C4B5F41 
 11737              	.LASF138:
 11738 0db5 434C4B5F 		.ascii	"CLK_OUTPUT_FAST\000"
 11738      4F555450 
 11738      55545F46 
 11738      41535400 
 11739              	.LASF192:
 11740 0dc5 636F6E74 		.ascii	"context\000"
 11740      65787400 
 11741              	.LASF60:
 11742 0dcd 434D345F 		.ascii	"CM4_PWR_DELAY_CTL\000"
 11742      5057525F 
 11742      44454C41 
 11742      595F4354 
 11742      4C00
 11743              	.LASF46:
 11744 0ddf 5050555F 		.ascii	"PPU_GR\000"
 11744      475200
 11745              	.LASF98:
 11746 0de6 4944454E 		.ascii	"IDENTITY\000"
 11746      54495459 
 11746      00
 11747              	.LASF388:
 11748 0def 63616C6C 		.ascii	"callbackParams\000"
 11748      6261636B 
ARM GAS  C:\Users\gjl\AppData\Local\Temp\ccNVysBX.s 			page 287


 11748      50617261 
 11748      6D7300
 11749              	.LASF13:
 11750 0dfe 5F5F7569 		.ascii	"__uint64_t\000"
 11750      6E743634 
 11750      5F7400
 11751              	.LASF298:
 11752 0e09 43595F53 		.ascii	"CY_SYSCLK_CLKHF_IN_CLKPATH10\000"
 11752      5953434C 
 11752      4B5F434C 
 11752      4B48465F 
 11752      494E5F43 
 11753              	.LASF412:
 11754 0e26 70726576 		.ascii	"preventCounting\000"
 11754      656E7443 
 11754      6F756E74 
 11754      696E6700 
 11755              	.LASF300:
 11756 0e36 43595F53 		.ascii	"CY_SYSCLK_CLKHF_IN_CLKPATH12\000"
 11756      5953434C 
 11756      4B5F434C 
 11756      4B48465F 
 11756      494E5F43 
 11757              	.LASF301:
 11758 0e53 43595F53 		.ascii	"CY_SYSCLK_CLKHF_IN_CLKPATH13\000"
 11758      5953434C 
 11758      4B5F434C 
 11758      4B48465F 
 11758      494E5F43 
 11759              	.LASF302:
 11760 0e70 43595F53 		.ascii	"CY_SYSCLK_CLKHF_IN_CLKPATH14\000"
 11760      5953434C 
 11760      4B5F434C 
 11760      4B48465F 
 11760      494E5F43 
 11761              	.LASF374:
 11762 0e8d 636F756E 		.ascii	"count1\000"
 11762      743100
 11763              	.LASF338:
 11764 0e94 66747269 		.ascii	"ftrim\000"
 11764      6D00
 11765              	.LASF175:
 11766 0e9a 666C6F61 		.ascii	"float64_t\000"
 11766      7436345F 
 11766      7400
 11767              	.LASF104:
 11768 0ea4 4D424953 		.ascii	"MBIST_STAT\000"
 11768      545F5354 
 11768      415400
 11769              	.LASF396:
 11770 0eaf 43795F53 		.ascii	"Cy_SysClk_PiloSetTrim\000"
 11770      7973436C 
 11770      6B5F5069 
 11770      6C6F5365 
 11770      74547269 
 11771              	.LASF64:
 11772 0ec5 434D345F 		.ascii	"CM4_NMI_CTL\000"
ARM GAS  C:\Users\gjl\AppData\Local\Temp\ccNVysBX.s 			page 288


 11772      4E4D495F 
 11772      43544C00 
 11773              	.LASF416:
 11774 0ed1 6365696C 		.ascii	"ceilf\000"
 11774      6600
 11775              	.LASF389:
 11776 0ed7 6368616E 		.ascii	"changedSourcePaths\000"
 11776      67656453 
 11776      6F757263 
 11776      65506174 
 11776      687300
 11777              	.LASF121:
 11778 0eea 5057525F 		.ascii	"PWR_HIBERNATE\000"
 11778      48494245 
 11778      524E4154 
 11778      4500
 11779              	.LASF28:
 11780 0ef8 50455249 		.ascii	"PERI_TR_GR_Type\000"
 11780      5F54525F 
 11780      47525F54 
 11780      79706500 
 11781              	.LASF144:
 11782 0f08 434C4B5F 		.ascii	"CLK_PILO_CONFIG\000"
 11782      50494C4F 
 11782      5F434F4E 
 11782      46494700 
 11783              	.LASF377:
 11784 0f18 6D656173 		.ascii	"measuredClock\000"
 11784      75726564 
 11784      436C6F63 
 11784      6B00
 11785              	.LASF249:
 11786 0f26 43595F53 		.ascii	"CY_SYSCLK_MEAS_CLK_ECO\000"
 11786      5953434C 
 11786      4B5F4D45 
 11786      41535F43 
 11786      4C4B5F45 
 11787              	.LASF159:
 11788 0f3d 5057525F 		.ascii	"PWR_TRIM_REF_CTL\000"
 11788      5452494D 
 11788      5F524546 
 11788      5F43544C 
 11788      00
 11789              	.LASF312:
 11790 0f4e 43595F53 		.ascii	"CY_SYSCLK_DIV_16_5_BIT\000"
 11790      5953434C 
 11790      4B5F4449 
 11790      565F3136 
 11790      5F355F42 
 11791              	.LASF242:
 11792 0f65 43595F53 		.ascii	"CY_SYSCLK_MEAS_CLK_WCO\000"
 11792      5953434C 
 11792      4B5F4D45 
 11792      41535F43 
 11792      4C4B5F57 
 11793              	.LASF59:
 11794 0f7c 434D345F 		.ascii	"CM4_PWR_CTL\000"
ARM GAS  C:\Users\gjl\AppData\Local\Temp\ccNVysBX.s 			page 289


 11794      5057525F 
 11794      43544C00 
 11795              	.LASF206:
 11796 0f88 43595F53 		.ascii	"CY_SYSCLK_CLKPATH_IN_WCO\000"
 11796      5953434C 
 11796      4B5F434C 
 11796      4B504154 
 11796      485F494E 
 11797              	.LASF236:
 11798 0fa1 63795F73 		.ascii	"cy_stc_pll_config_t\000"
 11798      74635F70 
 11798      6C6C5F63 
 11798      6F6E6669 
 11798      675F7400 
 11799              	.LASF107:
 11800 0fb5 5452494D 		.ascii	"TRIM_RAM_CTL\000"
 11800      5F52414D 
 11800      5F43544C 
 11800      00
 11801              	.LASF118:
 11802 0fc2 4D435744 		.ascii	"MCWDT_LOCK\000"
 11802      545F4C4F 
 11802      434B00
 11803              	.LASF367:
 11804 0fcd 666F7574 		.ascii	"foutBest\000"
 11804      42657374 
 11804      00
 11805              	.LASF7:
 11806 0fd6 73686F72 		.ascii	"short unsigned int\000"
 11806      7420756E 
 11806      7369676E 
 11806      65642069 
 11806      6E7400
 11807              	.LASF390:
 11808 0fe9 666C6C70 		.ascii	"fllpll\000"
 11808      6C6C00
 11809              	.LASF178:
 11810 0ff0 6C6F6E67 		.ascii	"long double\000"
 11810      20646F75 
 11810      626C6500 
 11811              	.LASF379:
 11812 0ffc 43795F53 		.ascii	"Cy_SysClk_IloTrim\000"
 11812      7973436C 
 11812      6B5F496C 
 11812      6F547269 
 11812      6D00
 11813              	.LASF325:
 11814 100e 43795F53 		.ascii	"Cy_SysClk_ClkHfGetDivider\000"
 11814      7973436C 
 11814      6B5F436C 
 11814      6B486647 
 11814      65744469 
 11815              	.LASF270:
 11816 1028 43595F53 		.ascii	"CY_SYSCLK_MEAS_CLK_CLKHF0\000"
 11816      5953434C 
 11816      4B5F4D45 
 11816      41535F43 
ARM GAS  C:\Users\gjl\AppData\Local\Temp\ccNVysBX.s 			page 290


 11816      4C4B5F43 
 11817              	.LASF273:
 11818 1042 43595F53 		.ascii	"CY_SYSCLK_MEAS_CLK_CLKHF3\000"
 11818      5953434C 
 11818      4B5F4D45 
 11818      41535F43 
 11818      4C4B5F43 
 11819              	.LASF275:
 11820 105c 43595F53 		.ascii	"CY_SYSCLK_MEAS_CLK_CLKHF5\000"
 11820      5953434C 
 11820      4B5F4D45 
 11820      41535F43 
 11820      4C4B5F43 
 11821              	.LASF278:
 11822 1076 43595F53 		.ascii	"CY_SYSCLK_MEAS_CLK_CLKHF8\000"
 11822      5953434C 
 11822      4B5F4D45 
 11822      41535F43 
 11822      4C4B5F43 
 11823              	.LASF133:
 11824 1090 434C4B5F 		.ascii	"CLK_ROOT_SELECT\000"
 11824      524F4F54 
 11824      5F53454C 
 11824      45435400 
 11825              	.LASF311:
 11826 10a0 43595F53 		.ascii	"CY_SYSCLK_DIV_16_BIT\000"
 11826      5953434C 
 11826      4B5F4449 
 11826      565F3136 
 11826      5F424954 
 11827              	.LASF167:
 11828 10b5 434C4B5F 		.ascii	"CLK_TRIM_ECO_CTL\000"
 11828      5452494D 
 11828      5F45434F 
 11828      5F43544C 
 11828      00
 11829              	.LASF220:
 11830 10c6 63795F65 		.ascii	"cy_en_fll_cco_ranges_t\000"
 11830      6E5F666C 
 11830      6C5F6363 
 11830      6F5F7261 
 11830      6E676573 
 11831              	.LASF347:
 11832 10dd 636F6E66 		.ascii	"config\000"
 11832      696700
 11833              	.LASF61:
 11834 10e4 434D345F 		.ascii	"CM4_STATUS\000"
 11834      53544154 
 11834      555300
 11835              	.LASF195:
 11836 10ef 43595F53 		.ascii	"CY_SYSCLK_BAD_PARAM\000"
 11836      5953434C 
 11836      4B5F4241 
 11836      445F5041 
 11836      52414D00 
 11837              	.LASF282:
 11838 1103 43595F53 		.ascii	"CY_SYSCLK_MEAS_CLK_CLKHF12\000"
ARM GAS  C:\Users\gjl\AppData\Local\Temp\ccNVysBX.s 			page 291


 11838      5953434C 
 11838      4B5F4D45 
 11838      41535F43 
 11838      4C4B5F43 
 11839              	.LASF25:
 11840 111e 52455345 		.ascii	"RESERVED1\000"
 11840      52564544 
 11840      3100
 11841              	.LASF40:
 11842 1128 52455345 		.ascii	"RESERVED2\000"
 11842      52564544 
 11842      3200
 11843              	.LASF42:
 11844 1132 52455345 		.ascii	"RESERVED3\000"
 11844      52564544 
 11844      3300
 11845              	.LASF45:
 11846 113c 52455345 		.ascii	"RESERVED4\000"
 11846      52564544 
 11846      3400
 11847              	.LASF63:
 11848 1146 52455345 		.ascii	"RESERVED5\000"
 11848      52564544 
 11848      3500
 11849              	.LASF65:
 11850 1150 52455345 		.ascii	"RESERVED6\000"
 11850      52564544 
 11850      3600
 11851              	.LASF67:
 11852 115a 52455345 		.ascii	"RESERVED7\000"
 11852      52564544 
 11852      3700
 11853              	.LASF70:
 11854 1164 52455345 		.ascii	"RESERVED8\000"
 11854      52564544 
 11854      3800
 11855              	.LASF72:
 11856 116e 52455345 		.ascii	"RESERVED9\000"
 11856      52564544 
 11856      3900
 11857              	.LASF189:
 11858 1178 63795F65 		.ascii	"cy_en_syspm_callback_mode_t\000"
 11858      6E5F7379 
 11858      73706D5F 
 11858      63616C6C 
 11858      6261636B 
 11859              	.LASF132:
 11860 1194 434C4B5F 		.ascii	"CLK_PATH_SELECT\000"
 11860      50415448 
 11860      5F53454C 
 11860      45435400 
 11861              	.LASF9:
 11862 11a4 6C6F6E67 		.ascii	"long int\000"
 11862      20696E74 
 11862      00
 11863              	.LASF57:
 11864 11ad 434D305F 		.ascii	"CM0_INT_CTL6\000"
ARM GAS  C:\Users\gjl\AppData\Local\Temp\ccNVysBX.s 			page 292


 11864      494E545F 
 11864      43544C36 
 11864      00
 11865              	.LASF422:
 11866 11ba 49544D5F 		.ascii	"ITM_RxBuffer\000"
 11866      52784275 
 11866      66666572 
 11866      00
 11867              	.LASF168:
 11868 11c7 434C4B5F 		.ascii	"CLK_TRIM_PILO_CTL\000"
 11868      5452494D 
 11868      5F50494C 
 11868      4F5F4354 
 11868      4C00
 11869              	.LASF155:
 11870 11d9 53525353 		.ascii	"SRSS_INTR_MASKED\000"
 11870      5F494E54 
 11870      525F4D41 
 11870      534B4544 
 11870      00
 11871              	.LASF123:
 11872 11ea 5057525F 		.ascii	"PWR_BUCK_CTL\000"
 11872      4255434B 
 11872      5F43544C 
 11872      00
 11873              	.LASF213:
 11874 11f7 43595F53 		.ascii	"CY_SYSCLK_FLLPLL_OUTPUT_OUTPUT\000"
 11874      5953434C 
 11874      4B5F464C 
 11874      4C504C4C 
 11874      5F4F5554 
 11875              	.LASF92:
 11876 1216 434D305F 		.ascii	"CM0_VECTOR_TABLE_BASE\000"
 11876      56454354 
 11876      4F525F54 
 11876      41424C45 
 11876      5F424153 
 11877              	.LASF384:
 11878 122c 64696666 		.ascii	"diff\000"
 11878      00
 11879              	.LASF199:
 11880 1231 43595F53 		.ascii	"CY_SYSCLK_CLKPATH_IN_IMO\000"
 11880      5953434C 
 11880      4B5F434C 
 11880      4B504154 
 11880      485F494E 
 11881              	.LASF130:
 11882 124a 4D435744 		.ascii	"MCWDT_STRUCT\000"
 11882      545F5354 
 11882      52554354 
 11882      00
 11883              	.LASF172:
 11884 1257 63686172 		.ascii	"char_t\000"
 11884      5F7400
 11885              	.LASF223:
 11886 125e 63636F52 		.ascii	"ccoRange\000"
 11886      616E6765 
ARM GAS  C:\Users\gjl\AppData\Local\Temp\ccNVysBX.s 			page 293


 11886      00
 11887              	.LASF202:
 11888 1267 43595F53 		.ascii	"CY_SYSCLK_CLKPATH_IN_ALTHF\000"
 11888      5953434C 
 11888      4B5F434C 
 11888      4B504154 
 11888      485F494E 
 11889              	.LASF19:
 11890 1282 75696E74 		.ascii	"uint64_t\000"
 11890      36345F74 
 11890      00
 11891              	.LASF161:
 11892 128b 434C4B5F 		.ascii	"CLK_TRIM_CCO_CTL\000"
 11892      5452494D 
 11892      5F43434F 
 11892      5F43544C 
 11892      00
 11893              	.LASF36:
 11894 129c 4449565F 		.ascii	"DIV_8_CTL\000"
 11894      385F4354 
 11894      4C00
 11895              	.LASF305:
 11896 12a6 43595F53 		.ascii	"CY_SYSCLK_CLKHF_NO_DIVIDE\000"
 11896      5953434C 
 11896      4B5F434C 
 11896      4B48465F 
 11896      4E4F5F44 
 11897              	.LASF404:
 11898 12c0 70617468 		.ascii	"path_freq\000"
 11898      5F667265 
 11898      7100
 11899              	.LASF115:
 11900 12ca 4D435744 		.ascii	"MCWDT_INTR_SET\000"
 11900      545F494E 
 11900      54525F53 
 11900      455400
 11901              	.LASF423:
 11902 12d9 5F5F6275 		.ascii	"__builtin_ceilf\000"
 11902      696C7469 
 11902      6E5F6365 
 11902      696C6600 
 11903              	.LASF69:
 11904 12e9 52414D31 		.ascii	"RAM1_CTL0\000"
 11904      5F43544C 
 11904      3000
 11905              	.LASF345:
 11906 12f3 43795F53 		.ascii	"Cy_SysClk_ClkPathGetSource\000"
 11906      7973436C 
 11906      6B5F436C 
 11906      6B506174 
 11906      68476574 
 11907              	.LASF3:
 11908 130e 7369676E 		.ascii	"signed char\000"
 11908      65642063 
 11908      68617200 
 11909              	.LASF386:
 11910 131a 70696C6F 		.ascii	"piloFreq\000"
ARM GAS  C:\Users\gjl\AppData\Local\Temp\ccNVysBX.s 			page 294


 11910      46726571 
 11910      00
 11911              	.LASF48:
 11912 1323 434D305F 		.ascii	"CM0_CTL\000"
 11912      43544C00 
 11913              	.LASF318:
 11914 132b 43795F53 		.ascii	"Cy_SysClk_EcoGetStatus\000"
 11914      7973436C 
 11914      6B5F4563 
 11914      6F476574 
 11914      53746174 
 11915              	.LASF5:
 11916 1342 5F5F7569 		.ascii	"__uint8_t\000"
 11916      6E74385F 
 11916      7400
 11917              	.LASF343:
 11918 134c 736F7572 		.ascii	"source\000"
 11918      636500
 11919              	.LASF47:
 11920 1353 50455249 		.ascii	"PERI_Type\000"
 11920      5F547970 
 11920      6500
 11921              	.LASF33:
 11922 135d 50455249 		.ascii	"PERI_PPU_PR_Type\000"
 11922      5F505055 
 11922      5F50525F 
 11922      54797065 
 11922      00
 11923              	.LASF203:
 11924 136e 43595F53 		.ascii	"CY_SYSCLK_CLKPATH_IN_DSIMUX\000"
 11924      5953434C 
 11924      4B5F434C 
 11924      4B504154 
 11924      485F494E 
 11925              	.LASF363:
 11926 138a 6E6F6E5A 		.ascii	"nonZeroTimeout\000"
 11926      65726F54 
 11926      696D656F 
 11926      757400
 11927              	.LASF1:
 11928 1399 756E7369 		.ascii	"unsigned int\000"
 11928      676E6564 
 11928      20696E74 
 11928      00
 11929              	.LASF330:
 11930 13a6 66726571 		.ascii	"freqMHz\000"
 11930      4D487A00 
 11931              	.LASF376:
 11932 13ae 43795F53 		.ascii	"Cy_SysClk_ClkMeasurementCountersGetFreq\000"
 11932      7973436C 
 11932      6B5F436C 
 11932      6B4D6561 
 11932      73757265 
 11933              	.LASF244:
 11934 13d6 43595F53 		.ascii	"CY_SYSCLK_MEAS_CLK_ALTLF\000"
 11934      5953434C 
 11934      4B5F4D45 
ARM GAS  C:\Users\gjl\AppData\Local\Temp\ccNVysBX.s 			page 295


 11934      41535F43 
 11934      4C4B5F41 
 11935              	.LASF351:
 11936 13ef 77636F53 		.ascii	"wcoSource\000"
 11936      6F757263 
 11936      6500
 11937              	.LASF287:
 11938 13f9 63795F65 		.ascii	"cy_en_meas_clks_t\000"
 11938      6E5F6D65 
 11938      61735F63 
 11938      6C6B735F 
 11938      7400
 11939              	.LASF241:
 11940 140b 43595F53 		.ascii	"CY_SYSCLK_MEAS_CLK_ILO\000"
 11940      5953434C 
 11940      4B5F4D45 
 11940      41535F43 
 11940      4C4B5F49 
 11941              	.LASF212:
 11942 1422 43595F53 		.ascii	"CY_SYSCLK_FLLPLL_OUTPUT_INPUT\000"
 11942      5953434C 
 11942      4B5F464C 
 11942      4C504C4C 
 11942      5F4F5554 
 11943              	.LASF20:
 11944 1440 73697A65 		.ascii	"sizetype\000"
 11944      74797065 
 11944      00
 11945              	.LASF157:
 11946 1449 5245535F 		.ascii	"RES_CAUSE\000"
 11946      43415553 
 11946      4500
 11947              	.LASF316:
 11948 1453 43795F53 		.ascii	"Cy_SysClk_PiloGetTrim\000"
 11948      7973436C 
 11948      6B5F5069 
 11948      6C6F4765 
 11948      74547269 
 11949              	.LASF327:
 11950 1469 634C6F61 		.ascii	"cLoad\000"
 11950      6400
 11951              	.LASF11:
 11952 146f 6C6F6E67 		.ascii	"long unsigned int\000"
 11952      20756E73 
 11952      69676E65 
 11952      6420696E 
 11952      7400
 11953              	.LASF210:
 11954 1481 43595F53 		.ascii	"CY_SYSCLK_FLLPLL_OUTPUT_AUTO\000"
 11954      5953434C 
 11954      4B5F464C 
 11954      4C504C4C 
 11954      5F4F5554 
 11955              	.LASF329:
 11956 149e 72746E76 		.ascii	"rtnval\000"
 11956      616C00
 11957              	.LASF185:
ARM GAS  C:\Users\gjl\AppData\Local\Temp\ccNVysBX.s 			page 296


 11958 14a5 43595F53 		.ascii	"CY_SYSPM_CHECK_READY\000"
 11958      5953504D 
 11958      5F434845 
 11958      434B5F52 
 11958      45414459 
 11959              	.LASF0:
 11960 14ba 666C6F61 		.ascii	"float\000"
 11960      7400
 11961              	.LASF21:
 11962 14c0 434C4F43 		.ascii	"CLOCK_CTL\000"
 11962      4B5F4354 
 11962      4C00
 11963              	.LASF17:
 11964 14ca 696E7433 		.ascii	"int32_t\000"
 11964      325F7400 
 11965              	.LASF52:
 11966 14d2 434D305F 		.ascii	"CM0_INT_CTL1\000"
 11966      494E545F 
 11966      43544C31 
 11966      00
 11967              	.LASF53:
 11968 14df 434D305F 		.ascii	"CM0_INT_CTL2\000"
 11968      494E545F 
 11968      43544C32 
 11968      00
 11969              	.LASF54:
 11970 14ec 434D305F 		.ascii	"CM0_INT_CTL3\000"
 11970      494E545F 
 11970      43544C33 
 11970      00
 11971              	.LASF55:
 11972 14f9 434D305F 		.ascii	"CM0_INT_CTL4\000"
 11972      494E545F 
 11972      43544C34 
 11972      00
 11973              	.LASF56:
 11974 1506 434D305F 		.ascii	"CM0_INT_CTL5\000"
 11974      494E545F 
 11974      43544C35 
 11974      00
 11975              	.LASF414:
 11976 1513 43795F53 		.ascii	"Cy_SysLib_DelayUs\000"
 11976      79734C69 
 11976      625F4465 
 11976      6C617955 
 11976      7300
 11977              	.LASF58:
 11978 1525 434D305F 		.ascii	"CM0_INT_CTL7\000"
 11978      494E545F 
 11978      43544C37 
 11978      00
 11979              	.LASF360:
 11980 1532 616C7476 		.ascii	"altval\000"
 11980      616C00
 11981              	.LASF368:
 11982 1539 6676636F 		.ascii	"fvco\000"
 11982      00
ARM GAS  C:\Users\gjl\AppData\Local\Temp\ccNVysBX.s 			page 297


 11983              	.LASF16:
 11984 153e 75696E74 		.ascii	"uint16_t\000"
 11984      31365F74 
 11984      00
 11985              	.LASF183:
 11986 1547 43595F53 		.ascii	"CY_SYSPM_FAIL\000"
 11986      5953504D 
 11986      5F464149 
 11986      4C00
 11987              	.LASF127:
 11988 1555 5744545F 		.ascii	"WDT_CTL\000"
 11988      43544C00 
 11989              	.LASF4:
 11990 155d 756E7369 		.ascii	"unsigned char\000"
 11990      676E6564 
 11990      20636861 
 11990      7200
 11991              	.LASF10:
 11992 156b 5F5F7569 		.ascii	"__uint32_t\000"
 11992      6E743332 
 11992      5F7400
 11993              	.LASF339:
 11994 1576 43795F53 		.ascii	"Cy_SysClk_EcoConfigure\000"
 11994      7973436C 
 11994      6B5F4563 
 11994      6F436F6E 
 11994      66696775 
 11995              	.LASF246:
 11996 158d 43595F53 		.ascii	"CY_SYSCLK_MEAS_CLK_IMO\000"
 11996      5953434C 
 11996      4B5F4D45 
 11996      41535F43 
 11996      4C4B5F49 
 11997              	.LASF385:
 11998 15a4 43795F53 		.ascii	"Cy_SysClk_PiloTrim\000"
 11998      7973436C 
 11998      6B5F5069 
 11998      6C6F5472 
 11998      696D00
 11999              	.LASF353:
 12000 15b7 664D6172 		.ascii	"fMargin\000"
 12000      67696E00 
 12001              	.LASF391:
 12002 15bf 74696D65 		.ascii	"timeout\000"
 12002      6F757400 
 12003              	.LASF313:
 12004 15c7 43595F53 		.ascii	"CY_SYSCLK_DIV_24_5_BIT\000"
 12004      5953434C 
 12004      4B5F4449 
 12004      565F3234 
 12004      5F355F42 
 12005              	.LASF200:
 12006 15de 43595F53 		.ascii	"CY_SYSCLK_CLKPATH_IN_EXT\000"
 12006      5953434C 
 12006      4B5F434C 
 12006      4B504154 
 12006      485F494E 
ARM GAS  C:\Users\gjl\AppData\Local\Temp\ccNVysBX.s 			page 298


 12007              	.LASF75:
 12008 15f7 52414D32 		.ascii	"RAM2_PWR_CTL\000"
 12008      5F505752 
 12008      5F43544C 
 12008      00
 12009              	.LASF51:
 12010 1604 434D305F 		.ascii	"CM0_INT_CTL0\000"
 12010      494E545F 
 12010      43544C30 
 12010      00
 12011              	.LASF74:
 12012 1611 52455345 		.ascii	"RESERVED10\000"
 12012      52564544 
 12012      313000
 12013              	.LASF76:
 12014 161c 52455345 		.ascii	"RESERVED11\000"
 12014      52564544 
 12014      313100
 12015              	.LASF78:
 12016 1627 52455345 		.ascii	"RESERVED12\000"
 12016      52564544 
 12016      313200
 12017              	.LASF80:
 12018 1632 52455345 		.ascii	"RESERVED13\000"
 12018      52564544 
 12018      313300
 12019              	.LASF83:
 12020 163d 52455345 		.ascii	"RESERVED14\000"
 12020      52564544 
 12020      313400
 12021              	.LASF85:
 12022 1648 52455345 		.ascii	"RESERVED15\000"
 12022      52564544 
 12022      313500
 12023              	.LASF87:
 12024 1653 52455345 		.ascii	"RESERVED16\000"
 12024      52564544 
 12024      313600
 12025              	.LASF89:
 12026 165e 52455345 		.ascii	"RESERVED17\000"
 12026      52564544 
 12026      313700
 12027              	.LASF91:
 12028 1669 52455345 		.ascii	"RESERVED18\000"
 12028      52564544 
 12028      313800
 12029              	.LASF93:
 12030 1674 52455345 		.ascii	"RESERVED19\000"
 12030      52564544 
 12030      313900
 12031              	.LASF232:
 12032 167f 63795F73 		.ascii	"cy_stc_fll_manual_config_t\000"
 12032      74635F66 
 12032      6C6C5F6D 
 12032      616E7561 
 12032      6C5F636F 
 12033              	.LASF392:
ARM GAS  C:\Users\gjl\AppData\Local\Temp\ccNVysBX.s 			page 299


 12034 169a 74696D6F 		.ascii	"timout\000"
 12034      757400
 12035              	.LASF314:
 12036 16a1 63795F65 		.ascii	"cy_en_divider_types_t\000"
 12036      6E5F6469 
 12036      76696465 
 12036      725F7479 
 12036      7065735F 
 12037              	.LASF418:
 12038 16b7 474E5520 		.ascii	"GNU C11 5.4.1 20160609 (release) [ARM/embedded-5-br"
 12038      43313120 
 12038      352E342E 
 12038      31203230 
 12038      31363036 
 12039 16ea 616E6368 		.ascii	"anch revision 237715] -mcpu=cortex-m4 -mfloat-abi=s"
 12039      20726576 
 12039      6973696F 
 12039      6E203233 
 12039      37373135 
 12040 171d 6F667466 		.ascii	"oftfp -mfpu=fpv4-sp-d16 -mthumb -g -Og -ffunction-s"
 12040      70202D6D 
 12040      6670753D 
 12040      66707634 
 12040      2D73702D 
 12041 1750 65637469 		.ascii	"ections -ffat-lto-objects\000"
 12041      6F6E7320 
 12041      2D666661 
 12041      742D6C74 
 12041      6F2D6F62 
 12042              	.LASF113:
 12043 176a 4D435744 		.ascii	"MCWDT_CTL\000"
 12043      545F4354 
 12043      4C00
 12044              	.LASF335:
 12045 1774 77647472 		.ascii	"wdtrim\000"
 12045      696D00
 12046              	.LASF238:
 12047 177b 72656665 		.ascii	"referenceDiv\000"
 12047      72656E63 
 12047      65446976 
 12047      00
 12048              	.LASF112:
 12049 1788 4D435744 		.ascii	"MCWDT_CONFIG\000"
 12049      545F434F 
 12049      4E464947 
 12049      00
 12050              	.LASF303:
 12051 1795 43595F53 		.ascii	"CY_SYSCLK_CLKHF_IN_CLKPATH15\000"
 12051      5953434C 
 12051      4B5F434C 
 12051      4B48465F 
 12051      494E5F43 
 12052              	.LASF147:
 12053 17b2 434C4B5F 		.ascii	"CLK_FLL_CONFIG3\000"
 12053      464C4C5F 
 12053      434F4E46 
 12053      49473300 
ARM GAS  C:\Users\gjl\AppData\Local\Temp\ccNVysBX.s 			page 300


 12054              	.LASF334:
 12055 17c2 61747269 		.ascii	"atrim\000"
 12055      6D00
 12056              	.LASF166:
 12057 17c8 5057525F 		.ascii	"PWR_TRIM_PWRSYS_CTL\000"
 12057      5452494D 
 12057      5F505752 
 12057      5359535F 
 12057      43544C00 
 12058              	.LASF86:
 12059 17dc 42554646 		.ascii	"BUFF_CTL\000"
 12059      5F43544C 
 12059      00
 12060              	.LASF349:
 12061 17e5 43795F53 		.ascii	"Cy_SysClk_FllConfigure\000"
 12061      7973436C 
 12061      6B5F466C 
 12061      6C436F6E 
 12061      66696775 
 12062              	.LASF180:
 12063 17fc 43595F53 		.ascii	"CY_SYSPM_BAD_PARAM\000"
 12063      5953504D 
 12063      5F424144 
 12063      5F504152 
 12063      414D00
 12064              	.LASF253:
 12065 180f 43595F53 		.ascii	"CY_SYSCLK_MEAS_CLK_PATH0\000"
 12065      5953434C 
 12065      4B5F4D45 
 12065      41535F43 
 12065      4C4B5F50 
 12066              	.LASF254:
 12067 1828 43595F53 		.ascii	"CY_SYSCLK_MEAS_CLK_PATH1\000"
 12067      5953434C 
 12067      4B5F4D45 
 12067      41535F43 
 12067      4C4B5F50 
 12068              	.LASF255:
 12069 1841 43595F53 		.ascii	"CY_SYSCLK_MEAS_CLK_PATH2\000"
 12069      5953434C 
 12069      4B5F4D45 
 12069      41535F43 
 12069      4C4B5F50 
 12070              	.LASF256:
 12071 185a 43595F53 		.ascii	"CY_SYSCLK_MEAS_CLK_PATH3\000"
 12071      5953434C 
 12071      4B5F4D45 
 12071      41535F43 
 12071      4C4B5F50 
 12072              	.LASF257:
 12073 1873 43595F53 		.ascii	"CY_SYSCLK_MEAS_CLK_PATH4\000"
 12073      5953434C 
 12073      4B5F4D45 
 12073      41535F43 
 12073      4C4B5F50 
 12074              	.LASF258:
 12075 188c 43595F53 		.ascii	"CY_SYSCLK_MEAS_CLK_PATH5\000"
ARM GAS  C:\Users\gjl\AppData\Local\Temp\ccNVysBX.s 			page 301


 12075      5953434C 
 12075      4B5F4D45 
 12075      41535F43 
 12075      4C4B5F50 
 12076              	.LASF259:
 12077 18a5 43595F53 		.ascii	"CY_SYSCLK_MEAS_CLK_PATH6\000"
 12077      5953434C 
 12077      4B5F4D45 
 12077      41535F43 
 12077      4C4B5F50 
 12078              	.LASF260:
 12079 18be 43595F53 		.ascii	"CY_SYSCLK_MEAS_CLK_PATH7\000"
 12079      5953434C 
 12079      4B5F4D45 
 12079      41535F43 
 12079      4C4B5F50 
 12080              	.LASF261:
 12081 18d7 43595F53 		.ascii	"CY_SYSCLK_MEAS_CLK_PATH8\000"
 12081      5953434C 
 12081      4B5F4D45 
 12081      41535F43 
 12081      4C4B5F50 
 12082              	.LASF262:
 12083 18f0 43595F53 		.ascii	"CY_SYSCLK_MEAS_CLK_PATH9\000"
 12083      5953434C 
 12083      4B5F4D45 
 12083      41535F43 
 12083      4C4B5F50 
 12084              	.LASF95:
 12085 1909 52455345 		.ascii	"RESERVED20\000"
 12085      52564544 
 12085      323000
 12086              	.LASF97:
 12087 1914 52455345 		.ascii	"RESERVED21\000"
 12087      52564544 
 12087      323100
 12088              	.LASF99:
 12089 191f 52455345 		.ascii	"RESERVED22\000"
 12089      52564544 
 12089      323200
 12090              	.LASF101:
 12091 192a 52455345 		.ascii	"RESERVED23\000"
 12091      52564544 
 12091      323300
 12092              	.LASF103:
 12093 1935 52455345 		.ascii	"RESERVED24\000"
 12093      52564544 
 12093      323400
 12094              	.LASF105:
 12095 1940 52455345 		.ascii	"RESERVED25\000"
 12095      52564544 
 12095      323500
 12096              	.LASF341:
 12097 194b 74696D65 		.ascii	"timeoutus\000"
 12097      6F757475 
 12097      7300
 12098              	.LASF237:
ARM GAS  C:\Users\gjl\AppData\Local\Temp\ccNVysBX.s 			page 302


 12099 1955 66656564 		.ascii	"feedbackDiv\000"
 12099      6261636B 
 12099      44697600 
 12100              	.LASF332:
 12101 1961 676D5F6D 		.ascii	"gm_min\000"
 12101      696E00
 12102              	.LASF29:
 12103 1968 41444452 		.ascii	"ADDR0\000"
 12103      3000
 12104              	.LASF31:
 12105 196e 41444452 		.ascii	"ADDR1\000"
 12105      3100
 12106              	.LASF81:
 12107 1974 5544425F 		.ascii	"UDB_PWR_CTL\000"
 12107      5057525F 
 12107      43544C00 
 12108              	.LASF176:
 12109 1980 646F7562 		.ascii	"double\000"
 12109      6C6500
 12110              	.LASF30:
 12111 1987 41545430 		.ascii	"ATT0\000"
 12111      00
 12112              	.LASF32:
 12113 198c 41545431 		.ascii	"ATT1\000"
 12113      00
 12114              	.LASF271:
 12115 1991 43595F53 		.ascii	"CY_SYSCLK_MEAS_CLK_CLKHF1\000"
 12115      5953434C 
 12115      4B5F4D45 
 12115      41535F43 
 12115      4C4B5F43 
 12116              	.LASF272:
 12117 19ab 43595F53 		.ascii	"CY_SYSCLK_MEAS_CLK_CLKHF2\000"
 12117      5953434C 
 12117      4B5F4D45 
 12117      41535F43 
 12117      4C4B5F43 
 12118              	.LASF111:
 12119 19c5 4D435744 		.ascii	"MCWDT_MATCH\000"
 12119      545F4D41 
 12119      54434800 
 12120              	.LASF274:
 12121 19d1 43595F53 		.ascii	"CY_SYSCLK_MEAS_CLK_CLKHF4\000"
 12121      5953434C 
 12121      4B5F4D45 
 12121      41535F43 
 12121      4C4B5F43 
 12122              	.LASF248:
 12123 19eb 43595F53 		.ascii	"CY_SYSCLK_MEAS_CLK_FAST_CLKS\000"
 12123      5953434C 
 12123      4B5F4D45 
 12123      41535F43 
 12123      4C4B5F46 
 12124              	.LASF276:
 12125 1a08 43595F53 		.ascii	"CY_SYSCLK_MEAS_CLK_CLKHF6\000"
 12125      5953434C 
 12125      4B5F4D45 
ARM GAS  C:\Users\gjl\AppData\Local\Temp\ccNVysBX.s 			page 303


 12125      41535F43 
 12125      4C4B5F43 
 12126              	.LASF277:
 12127 1a22 43595F53 		.ascii	"CY_SYSCLK_MEAS_CLK_CLKHF7\000"
 12127      5953434C 
 12127      4B5F4D45 
 12127      41535F43 
 12127      4C4B5F43 
 12128              	.LASF400:
 12129 1a3c 43795F53 		.ascii	"Cy_SysClk_PeriphGetFrequency\000"
 12129      7973436C 
 12129      6B5F5065 
 12129      72697068 
 12129      47657446 
 12130              	.LASF279:
 12131 1a59 43595F53 		.ascii	"CY_SYSCLK_MEAS_CLK_CLKHF9\000"
 12131      5953434C 
 12131      4B5F4D45 
 12131      41535F43 
 12131      4C4B5F43 
 12132              	.LASF131:
 12133 1a73 434C4B5F 		.ascii	"CLK_DSI_SELECT\000"
 12133      4453495F 
 12133      53454C45 
 12133      435400
 12134              	.LASF205:
 12135 1a82 43595F53 		.ascii	"CY_SYSCLK_CLKPATH_IN_ILO\000"
 12135      5953434C 
 12135      4B5F434C 
 12135      4B504154 
 12135      485F494E 
 12136              	.LASF405:
 12137 1a9b 726F6F74 		.ascii	"root_div\000"
 12137      5F646976 
 12137      00
 12138              	.LASF24:
 12139 1aa4 54494D45 		.ascii	"TIMEOUT_CTL\000"
 12139      4F55545F 
 12139      43544C00 
 12140              	.LASF119:
 12141 1ab0 4D435744 		.ascii	"MCWDT_STRUCT_Type\000"
 12141      545F5354 
 12141      52554354 
 12141      5F547970 
 12141      6500
 12142              	.LASF250:
 12143 1ac2 43595F53 		.ascii	"CY_SYSCLK_MEAS_CLK_EXT\000"
 12143      5953434C 
 12143      4B5F4D45 
 12143      41535F43 
 12143      4C4B5F45 
 12144              	.LASF269:
 12145 1ad9 43595F53 		.ascii	"CY_SYSCLK_MEAS_CLK_CLKHFS\000"
 12145      5953434C 
 12145      4B5F4D45 
 12145      41535F43 
 12145      4C4B5F43 
ARM GAS  C:\Users\gjl\AppData\Local\Temp\ccNVysBX.s 			page 304


 12146              	.LASF215:
 12147 1af3 43595F53 		.ascii	"CY_SYSCLK_FLL_CCO_RANGE0\000"
 12147      5953434C 
 12147      4B5F464C 
 12147      4C5F4343 
 12147      4F5F5241 
 12148              	.LASF217:
 12149 1b0c 43595F53 		.ascii	"CY_SYSCLK_FLL_CCO_RANGE2\000"
 12149      5953434C 
 12149      4B5F464C 
 12149      4C5F4343 
 12149      4F5F5241 
 12150              	.LASF218:
 12151 1b25 43595F53 		.ascii	"CY_SYSCLK_FLL_CCO_RANGE3\000"
 12151      5953434C 
 12151      4B5F464C 
 12151      4C5F4343 
 12151      4F5F5241 
 12152              	.LASF90:
 12153 1b3e 53595354 		.ascii	"SYSTICK_CTL\000"
 12153      49434B5F 
 12153      43544C00 
 12154              	.LASF209:
 12155 1b4a 63795F65 		.ascii	"cy_en_clkpath_in_sources_t\000"
 12155      6E5F636C 
 12155      6B706174 
 12155      685F696E 
 12155      5F736F75 
 12156              	.LASF356:
 12157 1b65 6761696E 		.ascii	"gains\000"
 12157      7300
 12158              	.LASF187:
 12159 1b6b 43595F53 		.ascii	"CY_SYSPM_BEFORE_TRANSITION\000"
 12159      5953504D 
 12159      5F424546 
 12159      4F52455F 
 12159      5452414E 
 12160              	.LASF188:
 12161 1b86 43595F53 		.ascii	"CY_SYSPM_AFTER_TRANSITION\000"
 12161      5953504D 
 12161      5F414654 
 12161      45525F54 
 12161      52414E53 
 12162              	.LASF207:
 12163 1ba0 43595F53 		.ascii	"CY_SYSCLK_CLKPATH_IN_ALTLF\000"
 12163      5953434C 
 12163      4B5F434C 
 12163      4B504154 
 12163      485F494E 
 12164              		.ident	"GCC: (GNU Tools for ARM Embedded Processors) 5.4.1 20160609 (release) [ARM/embedded-5-bran
