ARM GAS  C:\Users\gjl\AppData\Local\Temp\cclKMu0d.s 			page 1


   1              		.syntax unified
   2              		.cpu cortex-m0plus
   3              		.fpu softvfp
   4              		.eabi_attribute 20, 1
   5              		.eabi_attribute 21, 1
   6              		.eabi_attribute 23, 3
   7              		.eabi_attribute 24, 1
   8              		.eabi_attribute 25, 1
   9              		.eabi_attribute 26, 1
  10              		.eabi_attribute 30, 1
  11              		.eabi_attribute 34, 0
  12              		.eabi_attribute 18, 4
  13              		.thumb
  14              		.syntax unified
  15              		.file	"cy_sysint.c"
  16              		.text
  17              	.Ltext0:
  18              		.cfi_sections	.debug_frame
  19              		.section	.text.Cy_SysInt_SetIntSource,"ax",%progbits
  20              		.align	2
  21              		.global	Cy_SysInt_SetIntSource
  22              		.code	16
  23              		.thumb_func
  24              		.type	Cy_SysInt_SetIntSource, %function
  25              	Cy_SysInt_SetIntSource:
  26              	.LFB39:
  27              		.file 1 "Generated_Source\\PSoC6\\pdl\\drivers\\peripheral\\sysint\\cy_sysint.c"
   1:Generated_Source\PSoC6\pdl\drivers\peripheral\sysint/cy_sysint.c **** /***************************************************************************//**
   2:Generated_Source\PSoC6\pdl\drivers\peripheral\sysint/cy_sysint.c **** * \file  cy_sysint.c
   3:Generated_Source\PSoC6\pdl\drivers\peripheral\sysint/cy_sysint.c **** * \version 1.10
   4:Generated_Source\PSoC6\pdl\drivers\peripheral\sysint/cy_sysint.c **** *
   5:Generated_Source\PSoC6\pdl\drivers\peripheral\sysint/cy_sysint.c **** * \brief
   6:Generated_Source\PSoC6\pdl\drivers\peripheral\sysint/cy_sysint.c **** * Provides an API implementation of the SysInt driver.
   7:Generated_Source\PSoC6\pdl\drivers\peripheral\sysint/cy_sysint.c **** *
   8:Generated_Source\PSoC6\pdl\drivers\peripheral\sysint/cy_sysint.c **** ********************************************************************************
   9:Generated_Source\PSoC6\pdl\drivers\peripheral\sysint/cy_sysint.c **** * \copyright
  10:Generated_Source\PSoC6\pdl\drivers\peripheral\sysint/cy_sysint.c **** * Copyright 2016-2018, Cypress Semiconductor Corporation. All rights reserved.
  11:Generated_Source\PSoC6\pdl\drivers\peripheral\sysint/cy_sysint.c **** * You may use this file only in accordance with the license, terms, conditions,
  12:Generated_Source\PSoC6\pdl\drivers\peripheral\sysint/cy_sysint.c **** * disclaimers, and limitations in the end user license agreement accompanying
  13:Generated_Source\PSoC6\pdl\drivers\peripheral\sysint/cy_sysint.c **** * the software package with which this file was provided.
  14:Generated_Source\PSoC6\pdl\drivers\peripheral\sysint/cy_sysint.c **** *******************************************************************************/
  15:Generated_Source\PSoC6\pdl\drivers\peripheral\sysint/cy_sysint.c **** 
  16:Generated_Source\PSoC6\pdl\drivers\peripheral\sysint/cy_sysint.c **** #include "cy_sysint.h"
  17:Generated_Source\PSoC6\pdl\drivers\peripheral\sysint/cy_sysint.c **** 
  18:Generated_Source\PSoC6\pdl\drivers\peripheral\sysint/cy_sysint.c **** #if defined(__cplusplus)
  19:Generated_Source\PSoC6\pdl\drivers\peripheral\sysint/cy_sysint.c **** extern "C" {
  20:Generated_Source\PSoC6\pdl\drivers\peripheral\sysint/cy_sysint.c **** #endif
  21:Generated_Source\PSoC6\pdl\drivers\peripheral\sysint/cy_sysint.c **** 
  22:Generated_Source\PSoC6\pdl\drivers\peripheral\sysint/cy_sysint.c **** 
  23:Generated_Source\PSoC6\pdl\drivers\peripheral\sysint/cy_sysint.c **** /*******************************************************************************
  24:Generated_Source\PSoC6\pdl\drivers\peripheral\sysint/cy_sysint.c **** * Function Name: Cy_SysInt_Init
  25:Generated_Source\PSoC6\pdl\drivers\peripheral\sysint/cy_sysint.c **** ****************************************************************************//**
  26:Generated_Source\PSoC6\pdl\drivers\peripheral\sysint/cy_sysint.c **** *
  27:Generated_Source\PSoC6\pdl\drivers\peripheral\sysint/cy_sysint.c **** * \brief Initializes the referenced interrupt by setting the priority and the
  28:Generated_Source\PSoC6\pdl\drivers\peripheral\sysint/cy_sysint.c **** * interrupt vector. 
  29:Generated_Source\PSoC6\pdl\drivers\peripheral\sysint/cy_sysint.c **** *
  30:Generated_Source\PSoC6\pdl\drivers\peripheral\sysint/cy_sysint.c **** * Note that the interrupt vector will only be relocated if the vector table was
ARM GAS  C:\Users\gjl\AppData\Local\Temp\cclKMu0d.s 			page 2


  31:Generated_Source\PSoC6\pdl\drivers\peripheral\sysint/cy_sysint.c **** * moved to __ramVectors in SRAM. Otherwise it is ignored.
  32:Generated_Source\PSoC6\pdl\drivers\peripheral\sysint/cy_sysint.c **** *
  33:Generated_Source\PSoC6\pdl\drivers\peripheral\sysint/cy_sysint.c **** * Use the CMSIS core function NVIC_EnableIRQ(config.intrSrc) to enable the interrupt.
  34:Generated_Source\PSoC6\pdl\drivers\peripheral\sysint/cy_sysint.c **** *
  35:Generated_Source\PSoC6\pdl\drivers\peripheral\sysint/cy_sysint.c **** * \param config
  36:Generated_Source\PSoC6\pdl\drivers\peripheral\sysint/cy_sysint.c **** * Interrupt configuration structure
  37:Generated_Source\PSoC6\pdl\drivers\peripheral\sysint/cy_sysint.c **** *
  38:Generated_Source\PSoC6\pdl\drivers\peripheral\sysint/cy_sysint.c **** * \param userIsr
  39:Generated_Source\PSoC6\pdl\drivers\peripheral\sysint/cy_sysint.c **** * Address of the ISR
  40:Generated_Source\PSoC6\pdl\drivers\peripheral\sysint/cy_sysint.c **** *
  41:Generated_Source\PSoC6\pdl\drivers\peripheral\sysint/cy_sysint.c **** * \return 
  42:Generated_Source\PSoC6\pdl\drivers\peripheral\sysint/cy_sysint.c **** * Initialization status  
  43:Generated_Source\PSoC6\pdl\drivers\peripheral\sysint/cy_sysint.c **** *
  44:Generated_Source\PSoC6\pdl\drivers\peripheral\sysint/cy_sysint.c **** * \funcusage
  45:Generated_Source\PSoC6\pdl\drivers\peripheral\sysint/cy_sysint.c **** * \snippet sysint/sysint_v1_10_sut_01.cydsn/main_cm4.c snippet_Cy_SysInt_Init
  46:Generated_Source\PSoC6\pdl\drivers\peripheral\sysint/cy_sysint.c **** *
  47:Generated_Source\PSoC6\pdl\drivers\peripheral\sysint/cy_sysint.c **** *******************************************************************************/
  48:Generated_Source\PSoC6\pdl\drivers\peripheral\sysint/cy_sysint.c **** cy_en_sysint_status_t Cy_SysInt_Init(const cy_stc_sysint_t* config, cy_israddress userIsr)
  49:Generated_Source\PSoC6\pdl\drivers\peripheral\sysint/cy_sysint.c **** {
  50:Generated_Source\PSoC6\pdl\drivers\peripheral\sysint/cy_sysint.c ****     cy_en_sysint_status_t status = CY_SYSINT_SUCCESS;
  51:Generated_Source\PSoC6\pdl\drivers\peripheral\sysint/cy_sysint.c **** 
  52:Generated_Source\PSoC6\pdl\drivers\peripheral\sysint/cy_sysint.c ****     if(NULL != config)
  53:Generated_Source\PSoC6\pdl\drivers\peripheral\sysint/cy_sysint.c ****     {
  54:Generated_Source\PSoC6\pdl\drivers\peripheral\sysint/cy_sysint.c ****         CY_ASSERT_L3(CY_SYSINT_IS_PRIORITY_VALID(config->intrPriority));
  55:Generated_Source\PSoC6\pdl\drivers\peripheral\sysint/cy_sysint.c ****         
  56:Generated_Source\PSoC6\pdl\drivers\peripheral\sysint/cy_sysint.c ****         #if (CY_CPU_CORTEX_M0P)
  57:Generated_Source\PSoC6\pdl\drivers\peripheral\sysint/cy_sysint.c ****             if (config->intrSrc > SysTick_IRQn)
  58:Generated_Source\PSoC6\pdl\drivers\peripheral\sysint/cy_sysint.c ****             {
  59:Generated_Source\PSoC6\pdl\drivers\peripheral\sysint/cy_sysint.c ****                 /* Configure the interrupt mux */
  60:Generated_Source\PSoC6\pdl\drivers\peripheral\sysint/cy_sysint.c ****                 Cy_SysInt_SetIntSource(config->intrSrc, config->cm0pSrc);
  61:Generated_Source\PSoC6\pdl\drivers\peripheral\sysint/cy_sysint.c ****             }
  62:Generated_Source\PSoC6\pdl\drivers\peripheral\sysint/cy_sysint.c ****         #endif
  63:Generated_Source\PSoC6\pdl\drivers\peripheral\sysint/cy_sysint.c ****         
  64:Generated_Source\PSoC6\pdl\drivers\peripheral\sysint/cy_sysint.c ****         NVIC_SetPriority(config->intrSrc, config->intrPriority);
  65:Generated_Source\PSoC6\pdl\drivers\peripheral\sysint/cy_sysint.c ****         
  66:Generated_Source\PSoC6\pdl\drivers\peripheral\sysint/cy_sysint.c ****         /* Only set the new vector if it was moved to __ramVectors */
  67:Generated_Source\PSoC6\pdl\drivers\peripheral\sysint/cy_sysint.c ****         if (SCB->VTOR == (uint32_t)&__ramVectors)
  68:Generated_Source\PSoC6\pdl\drivers\peripheral\sysint/cy_sysint.c ****         {
  69:Generated_Source\PSoC6\pdl\drivers\peripheral\sysint/cy_sysint.c ****             CY_ASSERT_L1(CY_SYSINT_IS_VECTOR_VALID(userIsr));
  70:Generated_Source\PSoC6\pdl\drivers\peripheral\sysint/cy_sysint.c **** 
  71:Generated_Source\PSoC6\pdl\drivers\peripheral\sysint/cy_sysint.c ****             (void)Cy_SysInt_SetVector(config->intrSrc, userIsr);
  72:Generated_Source\PSoC6\pdl\drivers\peripheral\sysint/cy_sysint.c ****         }
  73:Generated_Source\PSoC6\pdl\drivers\peripheral\sysint/cy_sysint.c ****     }
  74:Generated_Source\PSoC6\pdl\drivers\peripheral\sysint/cy_sysint.c ****     else
  75:Generated_Source\PSoC6\pdl\drivers\peripheral\sysint/cy_sysint.c ****     {
  76:Generated_Source\PSoC6\pdl\drivers\peripheral\sysint/cy_sysint.c ****         status = CY_SYSINT_BAD_PARAM;
  77:Generated_Source\PSoC6\pdl\drivers\peripheral\sysint/cy_sysint.c ****     }
  78:Generated_Source\PSoC6\pdl\drivers\peripheral\sysint/cy_sysint.c ****     
  79:Generated_Source\PSoC6\pdl\drivers\peripheral\sysint/cy_sysint.c ****     return(status);
  80:Generated_Source\PSoC6\pdl\drivers\peripheral\sysint/cy_sysint.c **** }
  81:Generated_Source\PSoC6\pdl\drivers\peripheral\sysint/cy_sysint.c **** 
  82:Generated_Source\PSoC6\pdl\drivers\peripheral\sysint/cy_sysint.c **** 
  83:Generated_Source\PSoC6\pdl\drivers\peripheral\sysint/cy_sysint.c **** #if (CY_CPU_CORTEX_M0P) || defined (CY_DOXYGEN)
  84:Generated_Source\PSoC6\pdl\drivers\peripheral\sysint/cy_sysint.c **** 
  85:Generated_Source\PSoC6\pdl\drivers\peripheral\sysint/cy_sysint.c **** /*******************************************************************************
  86:Generated_Source\PSoC6\pdl\drivers\peripheral\sysint/cy_sysint.c **** * Function Name: Cy_SysInt_SetIntSource
  87:Generated_Source\PSoC6\pdl\drivers\peripheral\sysint/cy_sysint.c **** ****************************************************************************//**
ARM GAS  C:\Users\gjl\AppData\Local\Temp\cclKMu0d.s 			page 3


  88:Generated_Source\PSoC6\pdl\drivers\peripheral\sysint/cy_sysint.c **** *
  89:Generated_Source\PSoC6\pdl\drivers\peripheral\sysint/cy_sysint.c **** * \brief Configures the interrupt mux for the specified CM0+ NVIC channel.
  90:Generated_Source\PSoC6\pdl\drivers\peripheral\sysint/cy_sysint.c **** *
  91:Generated_Source\PSoC6\pdl\drivers\peripheral\sysint/cy_sysint.c **** * Setting this value to "disconnected_IRQn" (240) disconnects the interrupt 
  92:Generated_Source\PSoC6\pdl\drivers\peripheral\sysint/cy_sysint.c **** * source and will effectively deactivate the interrupt.
  93:Generated_Source\PSoC6\pdl\drivers\peripheral\sysint/cy_sysint.c **** *
  94:Generated_Source\PSoC6\pdl\drivers\peripheral\sysint/cy_sysint.c **** * \param intrSrc
  95:Generated_Source\PSoC6\pdl\drivers\peripheral\sysint/cy_sysint.c **** * NVIC mux number connected to the NVIC channel of the CM0+ core
  96:Generated_Source\PSoC6\pdl\drivers\peripheral\sysint/cy_sysint.c **** *
  97:Generated_Source\PSoC6\pdl\drivers\peripheral\sysint/cy_sysint.c **** * \param cm0pSrc
  98:Generated_Source\PSoC6\pdl\drivers\peripheral\sysint/cy_sysint.c **** * Device interrupt to be routed to the NVIC mux
  99:Generated_Source\PSoC6\pdl\drivers\peripheral\sysint/cy_sysint.c **** *
 100:Generated_Source\PSoC6\pdl\drivers\peripheral\sysint/cy_sysint.c **** * \funcusage
 101:Generated_Source\PSoC6\pdl\drivers\peripheral\sysint/cy_sysint.c **** * \snippet sysint/sysint_v1_10_sut_01.cydsn/main_cm4.c snippet_Cy_SysInt_SetIntSource
 102:Generated_Source\PSoC6\pdl\drivers\peripheral\sysint/cy_sysint.c **** *
 103:Generated_Source\PSoC6\pdl\drivers\peripheral\sysint/cy_sysint.c **** *******************************************************************************/
 104:Generated_Source\PSoC6\pdl\drivers\peripheral\sysint/cy_sysint.c **** void Cy_SysInt_SetIntSource(IRQn_Type intrSrc, cy_en_intr_t cm0pSrc)
 105:Generated_Source\PSoC6\pdl\drivers\peripheral\sysint/cy_sysint.c **** {
  28              		.loc 1 105 0
  29              		.cfi_startproc
  30              		@ args = 0, pretend = 0, frame = 0
  31              		@ frame_needed = 0, uses_anonymous_args = 0
  32              	.LVL0:
  33 0000 10B5     		push	{r4, lr}
  34              		.cfi_def_cfa_offset 8
  35              		.cfi_offset 4, -8
  36              		.cfi_offset 14, -4
 106:Generated_Source\PSoC6\pdl\drivers\peripheral\sysint/cy_sysint.c ****     /* Calculation of variables and masks */
 107:Generated_Source\PSoC6\pdl\drivers\peripheral\sysint/cy_sysint.c ****     uint32_t regPos     = (uint32_t)intrSrc >> CY_SYSINT_CM0P_MUX_SHIFT;
  37              		.loc 1 107 0
  38 0002 8308     		lsrs	r3, r0, #2
  39              	.LVL1:
 108:Generated_Source\PSoC6\pdl\drivers\peripheral\sysint/cy_sysint.c ****     uint32_t bitPos     = ((uint32_t)intrSrc - (uint32_t)(regPos << CY_SYSINT_CM0P_MUX_SHIFT)) << C
  40              		.loc 1 108 0
  41 0004 9A00     		lsls	r2, r3, #2
  42 0006 801A     		subs	r0, r0, r2
  43              	.LVL2:
  44 0008 C000     		lsls	r0, r0, #3
  45              	.LVL3:
 109:Generated_Source\PSoC6\pdl\drivers\peripheral\sysint/cy_sysint.c ****     uint32_t bitMask    = (uint32_t)(CY_SYSINT_CM0P_MUX_MASK << bitPos);
  46              		.loc 1 109 0
  47 000a FF22     		movs	r2, #255
  48 000c 8240     		lsls	r2, r2, r0
  49              	.LVL4:
 110:Generated_Source\PSoC6\pdl\drivers\peripheral\sysint/cy_sysint.c ****     uint32_t bitMaskClr = (uint32_t)(~bitMask);
  50              		.loc 1 110 0
  51 000e D443     		mvns	r4, r2
  52              	.LVL5:
 111:Generated_Source\PSoC6\pdl\drivers\peripheral\sysint/cy_sysint.c ****     uint32_t bitMaskSet = (((uint32_t)cm0pSrc << bitPos) & bitMask);
  53              		.loc 1 111 0
  54 0010 8140     		lsls	r1, r1, r0
  55              	.LVL6:
  56 0012 0A40     		ands	r2, r1
  57              	.LVL7:
 112:Generated_Source\PSoC6\pdl\drivers\peripheral\sysint/cy_sysint.c **** 
 113:Generated_Source\PSoC6\pdl\drivers\peripheral\sysint/cy_sysint.c ****     uint32_t tempReg;
 114:Generated_Source\PSoC6\pdl\drivers\peripheral\sysint/cy_sysint.c **** 
ARM GAS  C:\Users\gjl\AppData\Local\Temp\cclKMu0d.s 			page 4


 115:Generated_Source\PSoC6\pdl\drivers\peripheral\sysint/cy_sysint.c ****     switch(regPos)
  58              		.loc 1 115 0
  59 0014 072B     		cmp	r3, #7
  60 0016 32D8     		bhi	.L1
  61 0018 9B00     		lsls	r3, r3, #2
  62              	.LVL8:
  63 001a 1949     		ldr	r1, .L12
  64 001c CB58     		ldr	r3, [r1, r3]
  65 001e 9F46     		mov	pc, r3
  66              		.section	.rodata
  67              		.align	2
  68              	.L4:
  69 0000 20000000 		.word	.L3
  70 0004 2C000000 		.word	.L5
  71 0008 38000000 		.word	.L6
  72 000c 44000000 		.word	.L7
  73 0010 50000000 		.word	.L8
  74 0014 5C000000 		.word	.L9
  75 0018 68000000 		.word	.L10
  76 001c 74000000 		.word	.L11
  77              		.section	.text.Cy_SysInt_SetIntSource
  78              	.L3:
 116:Generated_Source\PSoC6\pdl\drivers\peripheral\sysint/cy_sysint.c ****     {
 117:Generated_Source\PSoC6\pdl\drivers\peripheral\sysint/cy_sysint.c ****         case CY_SYSINT_CM0P_MUX0:
 118:Generated_Source\PSoC6\pdl\drivers\peripheral\sysint/cy_sysint.c ****             tempReg = CPUSS->CM0_INT_CTL0 & bitMaskClr;
  79              		.loc 1 118 0
  80 0020 184B     		ldr	r3, .L12+4
  81 0022 196A     		ldr	r1, [r3, #32]
  82 0024 0C40     		ands	r4, r1
  83              	.LVL9:
 119:Generated_Source\PSoC6\pdl\drivers\peripheral\sysint/cy_sysint.c ****             CPUSS->CM0_INT_CTL0 = tempReg | bitMaskSet;
  84              		.loc 1 119 0
  85 0026 2243     		orrs	r2, r4
  86              	.LVL10:
  87 0028 1A62     		str	r2, [r3, #32]
 120:Generated_Source\PSoC6\pdl\drivers\peripheral\sysint/cy_sysint.c ****         break;
  88              		.loc 1 120 0
  89 002a 28E0     		b	.L1
  90              	.LVL11:
  91              	.L5:
 121:Generated_Source\PSoC6\pdl\drivers\peripheral\sysint/cy_sysint.c ****         case CY_SYSINT_CM0P_MUX1:
 122:Generated_Source\PSoC6\pdl\drivers\peripheral\sysint/cy_sysint.c ****             tempReg = CPUSS->CM0_INT_CTL1 & bitMaskClr;
  92              		.loc 1 122 0
  93 002c 154B     		ldr	r3, .L12+4
  94 002e 596A     		ldr	r1, [r3, #36]
  95 0030 0C40     		ands	r4, r1
  96              	.LVL12:
 123:Generated_Source\PSoC6\pdl\drivers\peripheral\sysint/cy_sysint.c ****             CPUSS->CM0_INT_CTL1 = tempReg | bitMaskSet;
  97              		.loc 1 123 0
  98 0032 2243     		orrs	r2, r4
  99              	.LVL13:
 100 0034 5A62     		str	r2, [r3, #36]
 124:Generated_Source\PSoC6\pdl\drivers\peripheral\sysint/cy_sysint.c ****         break;
 101              		.loc 1 124 0
 102 0036 22E0     		b	.L1
 103              	.LVL14:
 104              	.L6:
ARM GAS  C:\Users\gjl\AppData\Local\Temp\cclKMu0d.s 			page 5


 125:Generated_Source\PSoC6\pdl\drivers\peripheral\sysint/cy_sysint.c ****         case CY_SYSINT_CM0P_MUX2:
 126:Generated_Source\PSoC6\pdl\drivers\peripheral\sysint/cy_sysint.c ****             tempReg = CPUSS->CM0_INT_CTL2 & bitMaskClr;
 105              		.loc 1 126 0
 106 0038 124B     		ldr	r3, .L12+4
 107 003a 996A     		ldr	r1, [r3, #40]
 108 003c 0C40     		ands	r4, r1
 109              	.LVL15:
 127:Generated_Source\PSoC6\pdl\drivers\peripheral\sysint/cy_sysint.c ****             CPUSS->CM0_INT_CTL2 = tempReg | bitMaskSet;
 110              		.loc 1 127 0
 111 003e 2243     		orrs	r2, r4
 112              	.LVL16:
 113 0040 9A62     		str	r2, [r3, #40]
 128:Generated_Source\PSoC6\pdl\drivers\peripheral\sysint/cy_sysint.c ****         break;
 114              		.loc 1 128 0
 115 0042 1CE0     		b	.L1
 116              	.LVL17:
 117              	.L7:
 129:Generated_Source\PSoC6\pdl\drivers\peripheral\sysint/cy_sysint.c ****         case CY_SYSINT_CM0P_MUX3:
 130:Generated_Source\PSoC6\pdl\drivers\peripheral\sysint/cy_sysint.c ****             tempReg = CPUSS->CM0_INT_CTL3 & bitMaskClr;
 118              		.loc 1 130 0
 119 0044 0F4B     		ldr	r3, .L12+4
 120 0046 D96A     		ldr	r1, [r3, #44]
 121 0048 0C40     		ands	r4, r1
 122              	.LVL18:
 131:Generated_Source\PSoC6\pdl\drivers\peripheral\sysint/cy_sysint.c ****             CPUSS->CM0_INT_CTL3 = tempReg | bitMaskSet;
 123              		.loc 1 131 0
 124 004a 2243     		orrs	r2, r4
 125              	.LVL19:
 126 004c DA62     		str	r2, [r3, #44]
 132:Generated_Source\PSoC6\pdl\drivers\peripheral\sysint/cy_sysint.c ****         break;
 127              		.loc 1 132 0
 128 004e 16E0     		b	.L1
 129              	.LVL20:
 130              	.L8:
 133:Generated_Source\PSoC6\pdl\drivers\peripheral\sysint/cy_sysint.c ****         case CY_SYSINT_CM0P_MUX4:
 134:Generated_Source\PSoC6\pdl\drivers\peripheral\sysint/cy_sysint.c ****             tempReg = CPUSS->CM0_INT_CTL4 & bitMaskClr;
 131              		.loc 1 134 0
 132 0050 0C4B     		ldr	r3, .L12+4
 133 0052 196B     		ldr	r1, [r3, #48]
 134 0054 0C40     		ands	r4, r1
 135              	.LVL21:
 135:Generated_Source\PSoC6\pdl\drivers\peripheral\sysint/cy_sysint.c ****             CPUSS->CM0_INT_CTL4 = tempReg | bitMaskSet;
 136              		.loc 1 135 0
 137 0056 2243     		orrs	r2, r4
 138              	.LVL22:
 139 0058 1A63     		str	r2, [r3, #48]
 136:Generated_Source\PSoC6\pdl\drivers\peripheral\sysint/cy_sysint.c ****         break;
 140              		.loc 1 136 0
 141 005a 10E0     		b	.L1
 142              	.LVL23:
 143              	.L9:
 137:Generated_Source\PSoC6\pdl\drivers\peripheral\sysint/cy_sysint.c ****         case CY_SYSINT_CM0P_MUX5:
 138:Generated_Source\PSoC6\pdl\drivers\peripheral\sysint/cy_sysint.c ****             tempReg = CPUSS->CM0_INT_CTL5 & bitMaskClr;
 144              		.loc 1 138 0
 145 005c 094B     		ldr	r3, .L12+4
 146 005e 596B     		ldr	r1, [r3, #52]
 147 0060 0C40     		ands	r4, r1
ARM GAS  C:\Users\gjl\AppData\Local\Temp\cclKMu0d.s 			page 6


 148              	.LVL24:
 139:Generated_Source\PSoC6\pdl\drivers\peripheral\sysint/cy_sysint.c ****             CPUSS->CM0_INT_CTL5 = tempReg | bitMaskSet;
 149              		.loc 1 139 0
 150 0062 2243     		orrs	r2, r4
 151              	.LVL25:
 152 0064 5A63     		str	r2, [r3, #52]
 140:Generated_Source\PSoC6\pdl\drivers\peripheral\sysint/cy_sysint.c ****         break;
 153              		.loc 1 140 0
 154 0066 0AE0     		b	.L1
 155              	.LVL26:
 156              	.L10:
 141:Generated_Source\PSoC6\pdl\drivers\peripheral\sysint/cy_sysint.c ****         case CY_SYSINT_CM0P_MUX6:
 142:Generated_Source\PSoC6\pdl\drivers\peripheral\sysint/cy_sysint.c ****             tempReg = CPUSS->CM0_INT_CTL6 & bitMaskClr;
 157              		.loc 1 142 0
 158 0068 064B     		ldr	r3, .L12+4
 159 006a 996B     		ldr	r1, [r3, #56]
 160 006c 0C40     		ands	r4, r1
 161              	.LVL27:
 143:Generated_Source\PSoC6\pdl\drivers\peripheral\sysint/cy_sysint.c ****             CPUSS->CM0_INT_CTL6 = tempReg | bitMaskSet;
 162              		.loc 1 143 0
 163 006e 2243     		orrs	r2, r4
 164              	.LVL28:
 165 0070 9A63     		str	r2, [r3, #56]
 144:Generated_Source\PSoC6\pdl\drivers\peripheral\sysint/cy_sysint.c ****         break;
 166              		.loc 1 144 0
 167 0072 04E0     		b	.L1
 168              	.LVL29:
 169              	.L11:
 145:Generated_Source\PSoC6\pdl\drivers\peripheral\sysint/cy_sysint.c ****         case CY_SYSINT_CM0P_MUX7:
 146:Generated_Source\PSoC6\pdl\drivers\peripheral\sysint/cy_sysint.c ****             tempReg = CPUSS->CM0_INT_CTL7 & bitMaskClr;
 170              		.loc 1 146 0
 171 0074 034B     		ldr	r3, .L12+4
 172 0076 D96B     		ldr	r1, [r3, #60]
 173 0078 0C40     		ands	r4, r1
 174              	.LVL30:
 147:Generated_Source\PSoC6\pdl\drivers\peripheral\sysint/cy_sysint.c ****             CPUSS->CM0_INT_CTL7 = tempReg | bitMaskSet;
 175              		.loc 1 147 0
 176 007a 2243     		orrs	r2, r4
 177              	.LVL31:
 178 007c DA63     		str	r2, [r3, #60]
 179              	.LVL32:
 180              	.L1:
 148:Generated_Source\PSoC6\pdl\drivers\peripheral\sysint/cy_sysint.c ****         break;
 149:Generated_Source\PSoC6\pdl\drivers\peripheral\sysint/cy_sysint.c ****         default:
 150:Generated_Source\PSoC6\pdl\drivers\peripheral\sysint/cy_sysint.c ****         break;
 151:Generated_Source\PSoC6\pdl\drivers\peripheral\sysint/cy_sysint.c ****     }
 152:Generated_Source\PSoC6\pdl\drivers\peripheral\sysint/cy_sysint.c **** }
 181              		.loc 1 152 0
 182              		@ sp needed
 183 007e 10BD     		pop	{r4, pc}
 184              	.L13:
 185              		.align	2
 186              	.L12:
 187 0080 00000000 		.word	.L4
 188 0084 00002140 		.word	1075904512
 189              		.cfi_endproc
 190              	.LFE39:
ARM GAS  C:\Users\gjl\AppData\Local\Temp\cclKMu0d.s 			page 7


 191              		.size	Cy_SysInt_SetIntSource, .-Cy_SysInt_SetIntSource
 192              		.section	.text.Cy_SysInt_GetIntSource,"ax",%progbits
 193              		.align	2
 194              		.global	Cy_SysInt_GetIntSource
 195              		.code	16
 196              		.thumb_func
 197              		.type	Cy_SysInt_GetIntSource, %function
 198              	Cy_SysInt_GetIntSource:
 199              	.LFB40:
 153:Generated_Source\PSoC6\pdl\drivers\peripheral\sysint/cy_sysint.c **** 
 154:Generated_Source\PSoC6\pdl\drivers\peripheral\sysint/cy_sysint.c **** 
 155:Generated_Source\PSoC6\pdl\drivers\peripheral\sysint/cy_sysint.c **** /*******************************************************************************
 156:Generated_Source\PSoC6\pdl\drivers\peripheral\sysint/cy_sysint.c **** * Function Name: Cy_SysInt_GetIntSource
 157:Generated_Source\PSoC6\pdl\drivers\peripheral\sysint/cy_sysint.c **** ****************************************************************************//**
 158:Generated_Source\PSoC6\pdl\drivers\peripheral\sysint/cy_sysint.c **** *
 159:Generated_Source\PSoC6\pdl\drivers\peripheral\sysint/cy_sysint.c **** * \brief Gets the interrupt source of CM0+ NVIC channel.
 160:Generated_Source\PSoC6\pdl\drivers\peripheral\sysint/cy_sysint.c **** *
 161:Generated_Source\PSoC6\pdl\drivers\peripheral\sysint/cy_sysint.c **** * \param intrSrc
 162:Generated_Source\PSoC6\pdl\drivers\peripheral\sysint/cy_sysint.c **** * NVIC mux number connected to the NVIC channel of the CM0+ core
 163:Generated_Source\PSoC6\pdl\drivers\peripheral\sysint/cy_sysint.c **** *
 164:Generated_Source\PSoC6\pdl\drivers\peripheral\sysint/cy_sysint.c **** * \return 
 165:Generated_Source\PSoC6\pdl\drivers\peripheral\sysint/cy_sysint.c **** * Device interrupt source connected to the NVIC mux. A returned value of 
 166:Generated_Source\PSoC6\pdl\drivers\peripheral\sysint/cy_sysint.c **** * "disconnected_IRQn" (240) indicates that the interrupt source is disconnected.  
 167:Generated_Source\PSoC6\pdl\drivers\peripheral\sysint/cy_sysint.c **** *
 168:Generated_Source\PSoC6\pdl\drivers\peripheral\sysint/cy_sysint.c **** * \funcusage
 169:Generated_Source\PSoC6\pdl\drivers\peripheral\sysint/cy_sysint.c **** * \snippet sysint/sysint_v1_10_sut_01.cydsn/main_cm4.c snippet_Cy_SysInt_SetIntSource
 170:Generated_Source\PSoC6\pdl\drivers\peripheral\sysint/cy_sysint.c **** *
 171:Generated_Source\PSoC6\pdl\drivers\peripheral\sysint/cy_sysint.c **** *******************************************************************************/
 172:Generated_Source\PSoC6\pdl\drivers\peripheral\sysint/cy_sysint.c **** cy_en_intr_t Cy_SysInt_GetIntSource(IRQn_Type intrSrc)
 173:Generated_Source\PSoC6\pdl\drivers\peripheral\sysint/cy_sysint.c **** {
 200              		.loc 1 173 0
 201              		.cfi_startproc
 202              		@ args = 0, pretend = 0, frame = 0
 203              		@ frame_needed = 0, uses_anonymous_args = 0
 204              		@ link register save eliminated.
 205              	.LVL33:
 174:Generated_Source\PSoC6\pdl\drivers\peripheral\sysint/cy_sysint.c ****     /* Calculation of variables */
 175:Generated_Source\PSoC6\pdl\drivers\peripheral\sysint/cy_sysint.c ****     uint32_t regPos  = (uint32_t)intrSrc >>  CY_SYSINT_CM0P_MUX_SHIFT;
 206              		.loc 1 175 0
 207 0000 8308     		lsrs	r3, r0, #2
 208              	.LVL34:
 176:Generated_Source\PSoC6\pdl\drivers\peripheral\sysint/cy_sysint.c ****     uint32_t bitPos  = ((uint32_t)intrSrc - (regPos <<  CY_SYSINT_CM0P_MUX_SHIFT)) <<  CY_SYSINT_CM
 209              		.loc 1 176 0
 210 0002 9A00     		lsls	r2, r3, #2
 211 0004 801A     		subs	r0, r0, r2
 212              	.LVL35:
 213 0006 C100     		lsls	r1, r0, #3
 214              	.LVL36:
 177:Generated_Source\PSoC6\pdl\drivers\peripheral\sysint/cy_sysint.c ****     uint32_t bitMask = (uint32_t)(CY_SYSINT_CM0P_MUX_MASK << bitPos);
 215              		.loc 1 177 0
 216 0008 FF22     		movs	r2, #255
 217 000a 8A40     		lsls	r2, r2, r1
 218              	.LVL37:
 178:Generated_Source\PSoC6\pdl\drivers\peripheral\sysint/cy_sysint.c **** 
 179:Generated_Source\PSoC6\pdl\drivers\peripheral\sysint/cy_sysint.c ****     cy_en_intr_t srcVal = disconnected_IRQn;
 180:Generated_Source\PSoC6\pdl\drivers\peripheral\sysint/cy_sysint.c ****     uint32_t tempReg = 0UL;
 181:Generated_Source\PSoC6\pdl\drivers\peripheral\sysint/cy_sysint.c ****     
ARM GAS  C:\Users\gjl\AppData\Local\Temp\cclKMu0d.s 			page 8


 182:Generated_Source\PSoC6\pdl\drivers\peripheral\sysint/cy_sysint.c ****     switch(regPos)
 219              		.loc 1 182 0
 220 000c 072B     		cmp	r3, #7
 221 000e 2BD8     		bhi	.L25
 222 0010 9B00     		lsls	r3, r3, #2
 223              	.LVL38:
 224 0012 1748     		ldr	r0, .L26
 225 0014 C358     		ldr	r3, [r0, r3]
 226 0016 9F46     		mov	pc, r3
 227              		.section	.rodata
 228              		.align	2
 229              	.L17:
 230 0020 18000000 		.word	.L16
 231 0024 22000000 		.word	.L18
 232 0028 2C000000 		.word	.L19
 233 002c 36000000 		.word	.L20
 234 0030 40000000 		.word	.L21
 235 0034 4A000000 		.word	.L22
 236 0038 54000000 		.word	.L23
 237 003c 5E000000 		.word	.L24
 238              		.section	.text.Cy_SysInt_GetIntSource
 239              	.L16:
 183:Generated_Source\PSoC6\pdl\drivers\peripheral\sysint/cy_sysint.c ****     {
 184:Generated_Source\PSoC6\pdl\drivers\peripheral\sysint/cy_sysint.c ****         case CY_SYSINT_CM0P_MUX0:
 185:Generated_Source\PSoC6\pdl\drivers\peripheral\sysint/cy_sysint.c ****             tempReg = (CPUSS->CM0_INT_CTL0 & bitMask) >> bitPos;
 240              		.loc 1 185 0
 241 0018 164B     		ldr	r3, .L26+4
 242 001a 186A     		ldr	r0, [r3, #32]
 243 001c 1040     		ands	r0, r2
 244 001e C840     		lsrs	r0, r0, r1
 245              	.LVL39:
 186:Generated_Source\PSoC6\pdl\drivers\peripheral\sysint/cy_sysint.c ****         break;
 246              		.loc 1 186 0
 247 0020 23E0     		b	.L15
 248              	.LVL40:
 249              	.L18:
 187:Generated_Source\PSoC6\pdl\drivers\peripheral\sysint/cy_sysint.c ****         case CY_SYSINT_CM0P_MUX1:
 188:Generated_Source\PSoC6\pdl\drivers\peripheral\sysint/cy_sysint.c ****             tempReg = (CPUSS->CM0_INT_CTL1 & bitMask) >> bitPos;
 250              		.loc 1 188 0
 251 0022 144B     		ldr	r3, .L26+4
 252 0024 586A     		ldr	r0, [r3, #36]
 253 0026 1040     		ands	r0, r2
 254 0028 C840     		lsrs	r0, r0, r1
 255              	.LVL41:
 189:Generated_Source\PSoC6\pdl\drivers\peripheral\sysint/cy_sysint.c ****         break;
 256              		.loc 1 189 0
 257 002a 1EE0     		b	.L15
 258              	.LVL42:
 259              	.L19:
 190:Generated_Source\PSoC6\pdl\drivers\peripheral\sysint/cy_sysint.c ****         case CY_SYSINT_CM0P_MUX2:
 191:Generated_Source\PSoC6\pdl\drivers\peripheral\sysint/cy_sysint.c ****             tempReg = (CPUSS->CM0_INT_CTL2 & bitMask) >> bitPos;
 260              		.loc 1 191 0
 261 002c 114B     		ldr	r3, .L26+4
 262 002e 986A     		ldr	r0, [r3, #40]
 263 0030 1040     		ands	r0, r2
 264 0032 C840     		lsrs	r0, r0, r1
 265              	.LVL43:
ARM GAS  C:\Users\gjl\AppData\Local\Temp\cclKMu0d.s 			page 9


 192:Generated_Source\PSoC6\pdl\drivers\peripheral\sysint/cy_sysint.c ****         break;
 266              		.loc 1 192 0
 267 0034 19E0     		b	.L15
 268              	.LVL44:
 269              	.L20:
 193:Generated_Source\PSoC6\pdl\drivers\peripheral\sysint/cy_sysint.c ****         case CY_SYSINT_CM0P_MUX3:
 194:Generated_Source\PSoC6\pdl\drivers\peripheral\sysint/cy_sysint.c ****             tempReg = (CPUSS->CM0_INT_CTL3 & bitMask) >> bitPos;
 270              		.loc 1 194 0
 271 0036 0F4B     		ldr	r3, .L26+4
 272 0038 D86A     		ldr	r0, [r3, #44]
 273 003a 1040     		ands	r0, r2
 274 003c C840     		lsrs	r0, r0, r1
 275              	.LVL45:
 195:Generated_Source\PSoC6\pdl\drivers\peripheral\sysint/cy_sysint.c ****         break;
 276              		.loc 1 195 0
 277 003e 14E0     		b	.L15
 278              	.LVL46:
 279              	.L21:
 196:Generated_Source\PSoC6\pdl\drivers\peripheral\sysint/cy_sysint.c ****         case CY_SYSINT_CM0P_MUX4:
 197:Generated_Source\PSoC6\pdl\drivers\peripheral\sysint/cy_sysint.c ****             tempReg = (CPUSS->CM0_INT_CTL4 & bitMask) >> bitPos;
 280              		.loc 1 197 0
 281 0040 0C4B     		ldr	r3, .L26+4
 282 0042 186B     		ldr	r0, [r3, #48]
 283 0044 1040     		ands	r0, r2
 284 0046 C840     		lsrs	r0, r0, r1
 285              	.LVL47:
 198:Generated_Source\PSoC6\pdl\drivers\peripheral\sysint/cy_sysint.c ****         break;
 286              		.loc 1 198 0
 287 0048 0FE0     		b	.L15
 288              	.LVL48:
 289              	.L22:
 199:Generated_Source\PSoC6\pdl\drivers\peripheral\sysint/cy_sysint.c ****         case CY_SYSINT_CM0P_MUX5:
 200:Generated_Source\PSoC6\pdl\drivers\peripheral\sysint/cy_sysint.c ****             tempReg = (CPUSS->CM0_INT_CTL5 & bitMask) >> bitPos;
 290              		.loc 1 200 0
 291 004a 0A4B     		ldr	r3, .L26+4
 292 004c 586B     		ldr	r0, [r3, #52]
 293 004e 1040     		ands	r0, r2
 294 0050 C840     		lsrs	r0, r0, r1
 295              	.LVL49:
 201:Generated_Source\PSoC6\pdl\drivers\peripheral\sysint/cy_sysint.c ****         break;
 296              		.loc 1 201 0
 297 0052 0AE0     		b	.L15
 298              	.LVL50:
 299              	.L23:
 202:Generated_Source\PSoC6\pdl\drivers\peripheral\sysint/cy_sysint.c ****         case CY_SYSINT_CM0P_MUX6:
 203:Generated_Source\PSoC6\pdl\drivers\peripheral\sysint/cy_sysint.c ****             tempReg = (CPUSS->CM0_INT_CTL6 & bitMask) >> bitPos;
 300              		.loc 1 203 0
 301 0054 074B     		ldr	r3, .L26+4
 302 0056 986B     		ldr	r0, [r3, #56]
 303 0058 1040     		ands	r0, r2
 304 005a C840     		lsrs	r0, r0, r1
 305              	.LVL51:
 204:Generated_Source\PSoC6\pdl\drivers\peripheral\sysint/cy_sysint.c ****         break;
 306              		.loc 1 204 0
 307 005c 05E0     		b	.L15
 308              	.LVL52:
 309              	.L24:
ARM GAS  C:\Users\gjl\AppData\Local\Temp\cclKMu0d.s 			page 10


 205:Generated_Source\PSoC6\pdl\drivers\peripheral\sysint/cy_sysint.c ****         case CY_SYSINT_CM0P_MUX7:
 206:Generated_Source\PSoC6\pdl\drivers\peripheral\sysint/cy_sysint.c ****             tempReg = (CPUSS->CM0_INT_CTL7 & bitMask) >> bitPos;
 310              		.loc 1 206 0
 311 005e 054B     		ldr	r3, .L26+4
 312 0060 D86B     		ldr	r0, [r3, #60]
 313 0062 1040     		ands	r0, r2
 314 0064 C840     		lsrs	r0, r0, r1
 315              	.LVL53:
 207:Generated_Source\PSoC6\pdl\drivers\peripheral\sysint/cy_sysint.c ****         break;
 316              		.loc 1 207 0
 317 0066 00E0     		b	.L15
 318              	.LVL54:
 319              	.L25:
 180:Generated_Source\PSoC6\pdl\drivers\peripheral\sysint/cy_sysint.c ****     
 320              		.loc 1 180 0
 321 0068 0020     		movs	r0, #0
 322              	.LVL55:
 323              	.L15:
 208:Generated_Source\PSoC6\pdl\drivers\peripheral\sysint/cy_sysint.c ****         default:
 209:Generated_Source\PSoC6\pdl\drivers\peripheral\sysint/cy_sysint.c ****         break;
 210:Generated_Source\PSoC6\pdl\drivers\peripheral\sysint/cy_sysint.c ****     }
 211:Generated_Source\PSoC6\pdl\drivers\peripheral\sysint/cy_sysint.c ****     
 212:Generated_Source\PSoC6\pdl\drivers\peripheral\sysint/cy_sysint.c ****     srcVal = (cy_en_intr_t)tempReg;
 324              		.loc 1 212 0
 325 006a C0B2     		uxtb	r0, r0
 326              	.LVL56:
 213:Generated_Source\PSoC6\pdl\drivers\peripheral\sysint/cy_sysint.c ****     return (srcVal);
 214:Generated_Source\PSoC6\pdl\drivers\peripheral\sysint/cy_sysint.c **** }
 327              		.loc 1 214 0
 328              		@ sp needed
 329 006c 7047     		bx	lr
 330              	.L27:
 331 006e C046     		.align	2
 332              	.L26:
 333 0070 20000000 		.word	.L17
 334 0074 00002140 		.word	1075904512
 335              		.cfi_endproc
 336              	.LFE40:
 337              		.size	Cy_SysInt_GetIntSource, .-Cy_SysInt_GetIntSource
 338              		.section	.text.Cy_SysInt_SetVector,"ax",%progbits
 339              		.align	2
 340              		.global	Cy_SysInt_SetVector
 341              		.code	16
 342              		.thumb_func
 343              		.type	Cy_SysInt_SetVector, %function
 344              	Cy_SysInt_SetVector:
 345              	.LFB41:
 215:Generated_Source\PSoC6\pdl\drivers\peripheral\sysint/cy_sysint.c **** #endif
 216:Generated_Source\PSoC6\pdl\drivers\peripheral\sysint/cy_sysint.c **** 
 217:Generated_Source\PSoC6\pdl\drivers\peripheral\sysint/cy_sysint.c **** 
 218:Generated_Source\PSoC6\pdl\drivers\peripheral\sysint/cy_sysint.c **** /*******************************************************************************
 219:Generated_Source\PSoC6\pdl\drivers\peripheral\sysint/cy_sysint.c **** * Function Name: Cy_SysInt_SetVector
 220:Generated_Source\PSoC6\pdl\drivers\peripheral\sysint/cy_sysint.c **** ****************************************************************************//**
 221:Generated_Source\PSoC6\pdl\drivers\peripheral\sysint/cy_sysint.c **** *
 222:Generated_Source\PSoC6\pdl\drivers\peripheral\sysint/cy_sysint.c **** * \brief Changes the ISR vector for the Interrupt.
 223:Generated_Source\PSoC6\pdl\drivers\peripheral\sysint/cy_sysint.c **** *
 224:Generated_Source\PSoC6\pdl\drivers\peripheral\sysint/cy_sysint.c **** * Note that for CM0+, this function sets the interrupt vector for the interrupt
ARM GAS  C:\Users\gjl\AppData\Local\Temp\cclKMu0d.s 			page 11


 225:Generated_Source\PSoC6\pdl\drivers\peripheral\sysint/cy_sysint.c **** * mux output feeding into the NVIC.
 226:Generated_Source\PSoC6\pdl\drivers\peripheral\sysint/cy_sysint.c **** *
 227:Generated_Source\PSoC6\pdl\drivers\peripheral\sysint/cy_sysint.c **** * Note that this function relies on the assumption that the vector table is
 228:Generated_Source\PSoC6\pdl\drivers\peripheral\sysint/cy_sysint.c **** * relocated to __ramVectors[RAM_VECTORS_SIZE] in SRAM. Otherwise it will
 229:Generated_Source\PSoC6\pdl\drivers\peripheral\sysint/cy_sysint.c **** * return the address of the default ISR location in Flash vector table.
 230:Generated_Source\PSoC6\pdl\drivers\peripheral\sysint/cy_sysint.c **** *
 231:Generated_Source\PSoC6\pdl\drivers\peripheral\sysint/cy_sysint.c **** * \param intrSrc
 232:Generated_Source\PSoC6\pdl\drivers\peripheral\sysint/cy_sysint.c **** * Interrrupt source
 233:Generated_Source\PSoC6\pdl\drivers\peripheral\sysint/cy_sysint.c **** *
 234:Generated_Source\PSoC6\pdl\drivers\peripheral\sysint/cy_sysint.c **** * \param userIsr
 235:Generated_Source\PSoC6\pdl\drivers\peripheral\sysint/cy_sysint.c **** * Address of the ISR to set in the interrupt vector table
 236:Generated_Source\PSoC6\pdl\drivers\peripheral\sysint/cy_sysint.c **** *
 237:Generated_Source\PSoC6\pdl\drivers\peripheral\sysint/cy_sysint.c **** * \return
 238:Generated_Source\PSoC6\pdl\drivers\peripheral\sysint/cy_sysint.c **** * Previous address of the ISR in the interrupt vector table, before the
 239:Generated_Source\PSoC6\pdl\drivers\peripheral\sysint/cy_sysint.c **** * function call
 240:Generated_Source\PSoC6\pdl\drivers\peripheral\sysint/cy_sysint.c **** *
 241:Generated_Source\PSoC6\pdl\drivers\peripheral\sysint/cy_sysint.c **** * \funcusage
 242:Generated_Source\PSoC6\pdl\drivers\peripheral\sysint/cy_sysint.c **** * \snippet sysint/sysint_v1_10_sut_01.cydsn/main_cm4.c snippet_Cy_SysInt_SetVector
 243:Generated_Source\PSoC6\pdl\drivers\peripheral\sysint/cy_sysint.c **** *
 244:Generated_Source\PSoC6\pdl\drivers\peripheral\sysint/cy_sysint.c **** *******************************************************************************/
 245:Generated_Source\PSoC6\pdl\drivers\peripheral\sysint/cy_sysint.c **** cy_israddress Cy_SysInt_SetVector(IRQn_Type intrSrc, cy_israddress userIsr)
 246:Generated_Source\PSoC6\pdl\drivers\peripheral\sysint/cy_sysint.c **** {
 346              		.loc 1 246 0
 347              		.cfi_startproc
 348              		@ args = 0, pretend = 0, frame = 0
 349              		@ frame_needed = 0, uses_anonymous_args = 0
 350              	.LVL57:
 351 0000 70B5     		push	{r4, r5, r6, lr}
 352              		.cfi_def_cfa_offset 16
 353              		.cfi_offset 4, -16
 354              		.cfi_offset 5, -12
 355              		.cfi_offset 6, -8
 356              		.cfi_offset 14, -4
 357 0002 0400     		movs	r4, r0
 358 0004 0D00     		movs	r5, r1
 247:Generated_Source\PSoC6\pdl\drivers\peripheral\sysint/cy_sysint.c ****     cy_israddress prevIsr;
 248:Generated_Source\PSoC6\pdl\drivers\peripheral\sysint/cy_sysint.c ****     
 249:Generated_Source\PSoC6\pdl\drivers\peripheral\sysint/cy_sysint.c ****     /* Only set the new vector if it was moved to __ramVectors */
 250:Generated_Source\PSoC6\pdl\drivers\peripheral\sysint/cy_sysint.c ****     if (SCB->VTOR == (uint32_t)&__ramVectors)
 359              		.loc 1 250 0
 360 0006 0B4B     		ldr	r3, .L32
 361 0008 9A68     		ldr	r2, [r3, #8]
 362 000a 0B4B     		ldr	r3, .L32+4
 363 000c 9A42     		cmp	r2, r3
 364 000e 0BD1     		bne	.L29
 251:Generated_Source\PSoC6\pdl\drivers\peripheral\sysint/cy_sysint.c ****     {
 252:Generated_Source\PSoC6\pdl\drivers\peripheral\sysint/cy_sysint.c ****         CY_ASSERT_L1(CY_SYSINT_IS_VECTOR_VALID(userIsr));
 365              		.loc 1 252 0
 366 0010 0029     		cmp	r1, #0
 367 0012 03D1     		bne	.L30
 368              		.loc 1 252 0 is_stmt 0 discriminator 1
 369 0014 FC21     		movs	r1, #252
 370              	.LVL58:
 371 0016 0948     		ldr	r0, .L32+8
 372              	.LVL59:
 373 0018 FFF7FEFF 		bl	Cy_SysLib_AssertFailed
 374              	.LVL60:
ARM GAS  C:\Users\gjl\AppData\Local\Temp\cclKMu0d.s 			page 12


 375              	.L30:
 253:Generated_Source\PSoC6\pdl\drivers\peripheral\sysint/cy_sysint.c **** 
 254:Generated_Source\PSoC6\pdl\drivers\peripheral\sysint/cy_sysint.c ****         prevIsr = __ramVectors[CY_INT_IRQ_BASE + intrSrc];
 376              		.loc 1 254 0 is_stmt 1
 377 001c 1034     		adds	r4, r4, #16
 378 001e 064B     		ldr	r3, .L32+4
 379 0020 A400     		lsls	r4, r4, #2
 380 0022 E058     		ldr	r0, [r4, r3]
 381              	.LVL61:
 255:Generated_Source\PSoC6\pdl\drivers\peripheral\sysint/cy_sysint.c ****         __ramVectors[CY_INT_IRQ_BASE + intrSrc] = userIsr;
 382              		.loc 1 255 0
 383 0024 E550     		str	r5, [r4, r3]
 384 0026 03E0     		b	.L31
 385              	.LVL62:
 386              	.L29:
 256:Generated_Source\PSoC6\pdl\drivers\peripheral\sysint/cy_sysint.c ****     }
 257:Generated_Source\PSoC6\pdl\drivers\peripheral\sysint/cy_sysint.c ****     else
 258:Generated_Source\PSoC6\pdl\drivers\peripheral\sysint/cy_sysint.c ****     {
 259:Generated_Source\PSoC6\pdl\drivers\peripheral\sysint/cy_sysint.c ****         prevIsr = __Vectors[CY_INT_IRQ_BASE + intrSrc];
 387              		.loc 1 259 0
 388 0028 1034     		adds	r4, r4, #16
 389 002a A400     		lsls	r4, r4, #2
 390 002c 044B     		ldr	r3, .L32+12
 391 002e E058     		ldr	r0, [r4, r3]
 392              	.LVL63:
 393              	.L31:
 260:Generated_Source\PSoC6\pdl\drivers\peripheral\sysint/cy_sysint.c ****     }
 261:Generated_Source\PSoC6\pdl\drivers\peripheral\sysint/cy_sysint.c **** 
 262:Generated_Source\PSoC6\pdl\drivers\peripheral\sysint/cy_sysint.c ****     return prevIsr;
 263:Generated_Source\PSoC6\pdl\drivers\peripheral\sysint/cy_sysint.c **** }
 394              		.loc 1 263 0
 395              		@ sp needed
 396              	.LVL64:
 397 0030 70BD     		pop	{r4, r5, r6, pc}
 398              	.L33:
 399 0032 C046     		.align	2
 400              	.L32:
 401 0034 00ED00E0 		.word	-536810240
 402 0038 00000000 		.word	__ramVectors
 403 003c 00000000 		.word	.LC3
 404 0040 00000000 		.word	__Vectors
 405              		.cfi_endproc
 406              	.LFE41:
 407              		.size	Cy_SysInt_SetVector, .-Cy_SysInt_SetVector
 408              		.section	.text.Cy_SysInt_Init,"ax",%progbits
 409              		.align	2
 410              		.global	Cy_SysInt_Init
 411              		.code	16
 412              		.thumb_func
 413              		.type	Cy_SysInt_Init, %function
 414              	Cy_SysInt_Init:
 415              	.LFB38:
  49:Generated_Source\PSoC6\pdl\drivers\peripheral\sysint/cy_sysint.c ****     cy_en_sysint_status_t status = CY_SYSINT_SUCCESS;
 416              		.loc 1 49 0
 417              		.cfi_startproc
 418              		@ args = 0, pretend = 0, frame = 8
 419              		@ frame_needed = 0, uses_anonymous_args = 0
ARM GAS  C:\Users\gjl\AppData\Local\Temp\cclKMu0d.s 			page 13


 420              	.LVL65:
 421 0000 F0B5     		push	{r4, r5, r6, r7, lr}
 422              		.cfi_def_cfa_offset 20
 423              		.cfi_offset 4, -20
 424              		.cfi_offset 5, -16
 425              		.cfi_offset 6, -12
 426              		.cfi_offset 7, -8
 427              		.cfi_offset 14, -4
 428 0002 83B0     		sub	sp, sp, #12
 429              		.cfi_def_cfa_offset 32
 430 0004 041E     		subs	r4, r0, #0
 431 0006 0191     		str	r1, [sp, #4]
 432              	.LVL66:
  52:Generated_Source\PSoC6\pdl\drivers\peripheral\sysint/cy_sysint.c ****     {
 433              		.loc 1 52 0
 434 0008 50D0     		beq	.L41
  54:Generated_Source\PSoC6\pdl\drivers\peripheral\sysint/cy_sysint.c ****         
 435              		.loc 1 54 0
 436 000a 4368     		ldr	r3, [r0, #4]
 437 000c 032B     		cmp	r3, #3
 438 000e 03D9     		bls	.L36
  54:Generated_Source\PSoC6\pdl\drivers\peripheral\sysint/cy_sysint.c ****         
 439              		.loc 1 54 0 is_stmt 0 discriminator 1
 440 0010 3621     		movs	r1, #54
 441              	.LVL67:
 442 0012 2948     		ldr	r0, .L43
 443              	.LVL68:
 444 0014 FFF7FEFF 		bl	Cy_SysLib_AssertFailed
 445              	.LVL69:
 446              	.L36:
  57:Generated_Source\PSoC6\pdl\drivers\peripheral\sysint/cy_sysint.c ****             {
 447              		.loc 1 57 0 is_stmt 1
 448 0018 0023     		movs	r3, #0
 449 001a E05E     		ldrsh	r0, [r4, r3]
 450 001c 0028     		cmp	r0, #0
 451 001e 02DB     		blt	.L37
  60:Generated_Source\PSoC6\pdl\drivers\peripheral\sysint/cy_sysint.c ****             }
 452              		.loc 1 60 0
 453 0020 A178     		ldrb	r1, [r4, #2]
 454 0022 FFF7FEFF 		bl	Cy_SysInt_SetIntSource
 455              	.LVL70:
 456              	.L37:
  64:Generated_Source\PSoC6\pdl\drivers\peripheral\sysint/cy_sysint.c ****         
 457              		.loc 1 64 0
 458 0026 0023     		movs	r3, #0
 459 0028 E25E     		ldrsh	r2, [r4, r3]
 460 002a 6368     		ldr	r3, [r4, #4]
 461              	.LVL71:
 462              	.LBB4:
 463              	.LBB5:
 464              		.file 2 "Generated_Source\\PSoC6\\pdl\\cmsis/include/core_cm0plus.h"
   1:Generated_Source\PSoC6\pdl\cmsis/include/core_cm0plus.h **** /**************************************************************************//**
   2:Generated_Source\PSoC6\pdl\cmsis/include/core_cm0plus.h ****  * @file     core_cm0plus.h
   3:Generated_Source\PSoC6\pdl\cmsis/include/core_cm0plus.h ****  * @brief    CMSIS Cortex-M0+ Core Peripheral Access Layer Header File
   4:Generated_Source\PSoC6\pdl\cmsis/include/core_cm0plus.h ****  * @version  V5.0.1
   5:Generated_Source\PSoC6\pdl\cmsis/include/core_cm0plus.h ****  * @date     25. November 2016
   6:Generated_Source\PSoC6\pdl\cmsis/include/core_cm0plus.h ****  ******************************************************************************/
ARM GAS  C:\Users\gjl\AppData\Local\Temp\cclKMu0d.s 			page 14


   7:Generated_Source\PSoC6\pdl\cmsis/include/core_cm0plus.h **** /*
   8:Generated_Source\PSoC6\pdl\cmsis/include/core_cm0plus.h ****  * Copyright (c) 2009-2016 ARM Limited. All rights reserved.
   9:Generated_Source\PSoC6\pdl\cmsis/include/core_cm0plus.h ****  *
  10:Generated_Source\PSoC6\pdl\cmsis/include/core_cm0plus.h ****  * SPDX-License-Identifier: Apache-2.0
  11:Generated_Source\PSoC6\pdl\cmsis/include/core_cm0plus.h ****  *
  12:Generated_Source\PSoC6\pdl\cmsis/include/core_cm0plus.h ****  * Licensed under the Apache License, Version 2.0 (the License); you may
  13:Generated_Source\PSoC6\pdl\cmsis/include/core_cm0plus.h ****  * not use this file except in compliance with the License.
  14:Generated_Source\PSoC6\pdl\cmsis/include/core_cm0plus.h ****  * You may obtain a copy of the License at
  15:Generated_Source\PSoC6\pdl\cmsis/include/core_cm0plus.h ****  *
  16:Generated_Source\PSoC6\pdl\cmsis/include/core_cm0plus.h ****  * www.apache.org/licenses/LICENSE-2.0
  17:Generated_Source\PSoC6\pdl\cmsis/include/core_cm0plus.h ****  *
  18:Generated_Source\PSoC6\pdl\cmsis/include/core_cm0plus.h ****  * Unless required by applicable law or agreed to in writing, software
  19:Generated_Source\PSoC6\pdl\cmsis/include/core_cm0plus.h ****  * distributed under the License is distributed on an AS IS BASIS, WITHOUT
  20:Generated_Source\PSoC6\pdl\cmsis/include/core_cm0plus.h ****  * WARRANTIES OR CONDITIONS OF ANY KIND, either express or implied.
  21:Generated_Source\PSoC6\pdl\cmsis/include/core_cm0plus.h ****  * See the License for the specific language governing permissions and
  22:Generated_Source\PSoC6\pdl\cmsis/include/core_cm0plus.h ****  * limitations under the License.
  23:Generated_Source\PSoC6\pdl\cmsis/include/core_cm0plus.h ****  */
  24:Generated_Source\PSoC6\pdl\cmsis/include/core_cm0plus.h **** 
  25:Generated_Source\PSoC6\pdl\cmsis/include/core_cm0plus.h **** #if   defined ( __ICCARM__ )
  26:Generated_Source\PSoC6\pdl\cmsis/include/core_cm0plus.h ****  #pragma system_include         /* treat file as system include file for MISRA check */
  27:Generated_Source\PSoC6\pdl\cmsis/include/core_cm0plus.h **** #elif defined (__ARMCC_VERSION) && (__ARMCC_VERSION >= 6010050)
  28:Generated_Source\PSoC6\pdl\cmsis/include/core_cm0plus.h ****   #pragma clang system_header   /* treat file as system include file */
  29:Generated_Source\PSoC6\pdl\cmsis/include/core_cm0plus.h **** #endif
  30:Generated_Source\PSoC6\pdl\cmsis/include/core_cm0plus.h **** 
  31:Generated_Source\PSoC6\pdl\cmsis/include/core_cm0plus.h **** #ifndef __CORE_CM0PLUS_H_GENERIC
  32:Generated_Source\PSoC6\pdl\cmsis/include/core_cm0plus.h **** #define __CORE_CM0PLUS_H_GENERIC
  33:Generated_Source\PSoC6\pdl\cmsis/include/core_cm0plus.h **** 
  34:Generated_Source\PSoC6\pdl\cmsis/include/core_cm0plus.h **** #include <stdint.h>
  35:Generated_Source\PSoC6\pdl\cmsis/include/core_cm0plus.h **** 
  36:Generated_Source\PSoC6\pdl\cmsis/include/core_cm0plus.h **** #ifdef __cplusplus
  37:Generated_Source\PSoC6\pdl\cmsis/include/core_cm0plus.h ****  extern "C" {
  38:Generated_Source\PSoC6\pdl\cmsis/include/core_cm0plus.h **** #endif
  39:Generated_Source\PSoC6\pdl\cmsis/include/core_cm0plus.h **** 
  40:Generated_Source\PSoC6\pdl\cmsis/include/core_cm0plus.h **** /**
  41:Generated_Source\PSoC6\pdl\cmsis/include/core_cm0plus.h ****   \page CMSIS_MISRA_Exceptions  MISRA-C:2004 Compliance Exceptions
  42:Generated_Source\PSoC6\pdl\cmsis/include/core_cm0plus.h ****   CMSIS violates the following MISRA-C:2004 rules:
  43:Generated_Source\PSoC6\pdl\cmsis/include/core_cm0plus.h **** 
  44:Generated_Source\PSoC6\pdl\cmsis/include/core_cm0plus.h ****    \li Required Rule 8.5, object/function definition in header file.<br>
  45:Generated_Source\PSoC6\pdl\cmsis/include/core_cm0plus.h ****      Function definitions in header files are used to allow 'inlining'.
  46:Generated_Source\PSoC6\pdl\cmsis/include/core_cm0plus.h **** 
  47:Generated_Source\PSoC6\pdl\cmsis/include/core_cm0plus.h ****    \li Required Rule 18.4, declaration of union type or object of union type: '{...}'.<br>
  48:Generated_Source\PSoC6\pdl\cmsis/include/core_cm0plus.h ****      Unions are used for effective representation of core registers.
  49:Generated_Source\PSoC6\pdl\cmsis/include/core_cm0plus.h **** 
  50:Generated_Source\PSoC6\pdl\cmsis/include/core_cm0plus.h ****    \li Advisory Rule 19.7, Function-like macro defined.<br>
  51:Generated_Source\PSoC6\pdl\cmsis/include/core_cm0plus.h ****      Function-like macros are used to allow more efficient code.
  52:Generated_Source\PSoC6\pdl\cmsis/include/core_cm0plus.h ****  */
  53:Generated_Source\PSoC6\pdl\cmsis/include/core_cm0plus.h **** 
  54:Generated_Source\PSoC6\pdl\cmsis/include/core_cm0plus.h **** 
  55:Generated_Source\PSoC6\pdl\cmsis/include/core_cm0plus.h **** /*******************************************************************************
  56:Generated_Source\PSoC6\pdl\cmsis/include/core_cm0plus.h ****  *                 CMSIS definitions
  57:Generated_Source\PSoC6\pdl\cmsis/include/core_cm0plus.h ****  ******************************************************************************/
  58:Generated_Source\PSoC6\pdl\cmsis/include/core_cm0plus.h **** /**
  59:Generated_Source\PSoC6\pdl\cmsis/include/core_cm0plus.h ****   \ingroup Cortex-M0+
  60:Generated_Source\PSoC6\pdl\cmsis/include/core_cm0plus.h ****   @{
  61:Generated_Source\PSoC6\pdl\cmsis/include/core_cm0plus.h ****  */
  62:Generated_Source\PSoC6\pdl\cmsis/include/core_cm0plus.h **** 
  63:Generated_Source\PSoC6\pdl\cmsis/include/core_cm0plus.h **** /*  CMSIS CM0+ definitions */
ARM GAS  C:\Users\gjl\AppData\Local\Temp\cclKMu0d.s 			page 15


  64:Generated_Source\PSoC6\pdl\cmsis/include/core_cm0plus.h **** #define __CM0PLUS_CMSIS_VERSION_MAIN ( 5U)                                      /*!< [31:16] CMSIS 
  65:Generated_Source\PSoC6\pdl\cmsis/include/core_cm0plus.h **** #define __CM0PLUS_CMSIS_VERSION_SUB  ( 0U)                                      /*!< [15:0]  CMSIS 
  66:Generated_Source\PSoC6\pdl\cmsis/include/core_cm0plus.h **** #define __CM0PLUS_CMSIS_VERSION      ((__CM0PLUS_CMSIS_VERSION_MAIN << 16U) | \
  67:Generated_Source\PSoC6\pdl\cmsis/include/core_cm0plus.h ****                                        __CM0PLUS_CMSIS_VERSION_SUB           )  /*!< CMSIS HAL vers
  68:Generated_Source\PSoC6\pdl\cmsis/include/core_cm0plus.h **** 
  69:Generated_Source\PSoC6\pdl\cmsis/include/core_cm0plus.h **** #define __CORTEX_M                   (0U)                                       /*!< Cortex-M Core 
  70:Generated_Source\PSoC6\pdl\cmsis/include/core_cm0plus.h **** 
  71:Generated_Source\PSoC6\pdl\cmsis/include/core_cm0plus.h **** /** __FPU_USED indicates whether an FPU is used or not.
  72:Generated_Source\PSoC6\pdl\cmsis/include/core_cm0plus.h ****     This core does not support an FPU at all
  73:Generated_Source\PSoC6\pdl\cmsis/include/core_cm0plus.h **** */
  74:Generated_Source\PSoC6\pdl\cmsis/include/core_cm0plus.h **** #define __FPU_USED       0U
  75:Generated_Source\PSoC6\pdl\cmsis/include/core_cm0plus.h **** 
  76:Generated_Source\PSoC6\pdl\cmsis/include/core_cm0plus.h **** #if defined ( __CC_ARM )
  77:Generated_Source\PSoC6\pdl\cmsis/include/core_cm0plus.h ****   #if defined __TARGET_FPU_VFP
  78:Generated_Source\PSoC6\pdl\cmsis/include/core_cm0plus.h ****     #error "Compiler generates FPU instructions for a device without an FPU (check __FPU_PRESENT)"
  79:Generated_Source\PSoC6\pdl\cmsis/include/core_cm0plus.h ****   #endif
  80:Generated_Source\PSoC6\pdl\cmsis/include/core_cm0plus.h **** 
  81:Generated_Source\PSoC6\pdl\cmsis/include/core_cm0plus.h **** #elif defined (__ARMCC_VERSION) && (__ARMCC_VERSION >= 6010050)
  82:Generated_Source\PSoC6\pdl\cmsis/include/core_cm0plus.h ****   #if defined __ARM_PCS_VFP
  83:Generated_Source\PSoC6\pdl\cmsis/include/core_cm0plus.h ****     #error "Compiler generates FPU instructions for a device without an FPU (check __FPU_PRESENT)"
  84:Generated_Source\PSoC6\pdl\cmsis/include/core_cm0plus.h ****   #endif
  85:Generated_Source\PSoC6\pdl\cmsis/include/core_cm0plus.h **** 
  86:Generated_Source\PSoC6\pdl\cmsis/include/core_cm0plus.h **** #elif defined ( __GNUC__ )
  87:Generated_Source\PSoC6\pdl\cmsis/include/core_cm0plus.h ****   #if defined (__VFP_FP__) && !defined(__SOFTFP__)
  88:Generated_Source\PSoC6\pdl\cmsis/include/core_cm0plus.h ****     #error "Compiler generates FPU instructions for a device without an FPU (check __FPU_PRESENT)"
  89:Generated_Source\PSoC6\pdl\cmsis/include/core_cm0plus.h ****   #endif
  90:Generated_Source\PSoC6\pdl\cmsis/include/core_cm0plus.h **** 
  91:Generated_Source\PSoC6\pdl\cmsis/include/core_cm0plus.h **** #elif defined ( __ICCARM__ )
  92:Generated_Source\PSoC6\pdl\cmsis/include/core_cm0plus.h ****   #if defined __ARMVFP__
  93:Generated_Source\PSoC6\pdl\cmsis/include/core_cm0plus.h ****     #error "Compiler generates FPU instructions for a device without an FPU (check __FPU_PRESENT)"
  94:Generated_Source\PSoC6\pdl\cmsis/include/core_cm0plus.h ****   #endif
  95:Generated_Source\PSoC6\pdl\cmsis/include/core_cm0plus.h **** 
  96:Generated_Source\PSoC6\pdl\cmsis/include/core_cm0plus.h **** #elif defined ( __TI_ARM__ )
  97:Generated_Source\PSoC6\pdl\cmsis/include/core_cm0plus.h ****   #if defined __TI_VFP_SUPPORT__
  98:Generated_Source\PSoC6\pdl\cmsis/include/core_cm0plus.h ****     #error "Compiler generates FPU instructions for a device without an FPU (check __FPU_PRESENT)"
  99:Generated_Source\PSoC6\pdl\cmsis/include/core_cm0plus.h ****   #endif
 100:Generated_Source\PSoC6\pdl\cmsis/include/core_cm0plus.h **** 
 101:Generated_Source\PSoC6\pdl\cmsis/include/core_cm0plus.h **** #elif defined ( __TASKING__ )
 102:Generated_Source\PSoC6\pdl\cmsis/include/core_cm0plus.h ****   #if defined __FPU_VFP__
 103:Generated_Source\PSoC6\pdl\cmsis/include/core_cm0plus.h ****     #error "Compiler generates FPU instructions for a device without an FPU (check __FPU_PRESENT)"
 104:Generated_Source\PSoC6\pdl\cmsis/include/core_cm0plus.h ****   #endif
 105:Generated_Source\PSoC6\pdl\cmsis/include/core_cm0plus.h **** 
 106:Generated_Source\PSoC6\pdl\cmsis/include/core_cm0plus.h **** #elif defined ( __CSMC__ )
 107:Generated_Source\PSoC6\pdl\cmsis/include/core_cm0plus.h ****   #if ( __CSMC__ & 0x400U)
 108:Generated_Source\PSoC6\pdl\cmsis/include/core_cm0plus.h ****     #error "Compiler generates FPU instructions for a device without an FPU (check __FPU_PRESENT)"
 109:Generated_Source\PSoC6\pdl\cmsis/include/core_cm0plus.h ****   #endif
 110:Generated_Source\PSoC6\pdl\cmsis/include/core_cm0plus.h **** 
 111:Generated_Source\PSoC6\pdl\cmsis/include/core_cm0plus.h **** #endif
 112:Generated_Source\PSoC6\pdl\cmsis/include/core_cm0plus.h **** 
 113:Generated_Source\PSoC6\pdl\cmsis/include/core_cm0plus.h **** #include "cmsis_compiler.h"               /* CMSIS compiler specific defines */
 114:Generated_Source\PSoC6\pdl\cmsis/include/core_cm0plus.h **** 
 115:Generated_Source\PSoC6\pdl\cmsis/include/core_cm0plus.h **** 
 116:Generated_Source\PSoC6\pdl\cmsis/include/core_cm0plus.h **** #ifdef __cplusplus
 117:Generated_Source\PSoC6\pdl\cmsis/include/core_cm0plus.h **** }
 118:Generated_Source\PSoC6\pdl\cmsis/include/core_cm0plus.h **** #endif
 119:Generated_Source\PSoC6\pdl\cmsis/include/core_cm0plus.h **** 
 120:Generated_Source\PSoC6\pdl\cmsis/include/core_cm0plus.h **** #endif /* __CORE_CM0PLUS_H_GENERIC */
ARM GAS  C:\Users\gjl\AppData\Local\Temp\cclKMu0d.s 			page 16


 121:Generated_Source\PSoC6\pdl\cmsis/include/core_cm0plus.h **** 
 122:Generated_Source\PSoC6\pdl\cmsis/include/core_cm0plus.h **** #ifndef __CMSIS_GENERIC
 123:Generated_Source\PSoC6\pdl\cmsis/include/core_cm0plus.h **** 
 124:Generated_Source\PSoC6\pdl\cmsis/include/core_cm0plus.h **** #ifndef __CORE_CM0PLUS_H_DEPENDANT
 125:Generated_Source\PSoC6\pdl\cmsis/include/core_cm0plus.h **** #define __CORE_CM0PLUS_H_DEPENDANT
 126:Generated_Source\PSoC6\pdl\cmsis/include/core_cm0plus.h **** 
 127:Generated_Source\PSoC6\pdl\cmsis/include/core_cm0plus.h **** #ifdef __cplusplus
 128:Generated_Source\PSoC6\pdl\cmsis/include/core_cm0plus.h ****  extern "C" {
 129:Generated_Source\PSoC6\pdl\cmsis/include/core_cm0plus.h **** #endif
 130:Generated_Source\PSoC6\pdl\cmsis/include/core_cm0plus.h **** 
 131:Generated_Source\PSoC6\pdl\cmsis/include/core_cm0plus.h **** /* check device defines and use defaults */
 132:Generated_Source\PSoC6\pdl\cmsis/include/core_cm0plus.h **** #if defined __CHECK_DEVICE_DEFINES
 133:Generated_Source\PSoC6\pdl\cmsis/include/core_cm0plus.h ****   #ifndef __CM0PLUS_REV
 134:Generated_Source\PSoC6\pdl\cmsis/include/core_cm0plus.h ****     #define __CM0PLUS_REV             0x0000U
 135:Generated_Source\PSoC6\pdl\cmsis/include/core_cm0plus.h ****     #warning "__CM0PLUS_REV not defined in device header file; using default!"
 136:Generated_Source\PSoC6\pdl\cmsis/include/core_cm0plus.h ****   #endif
 137:Generated_Source\PSoC6\pdl\cmsis/include/core_cm0plus.h **** 
 138:Generated_Source\PSoC6\pdl\cmsis/include/core_cm0plus.h ****   #ifndef __MPU_PRESENT
 139:Generated_Source\PSoC6\pdl\cmsis/include/core_cm0plus.h ****     #define __MPU_PRESENT             0U
 140:Generated_Source\PSoC6\pdl\cmsis/include/core_cm0plus.h ****     #warning "__MPU_PRESENT not defined in device header file; using default!"
 141:Generated_Source\PSoC6\pdl\cmsis/include/core_cm0plus.h ****   #endif
 142:Generated_Source\PSoC6\pdl\cmsis/include/core_cm0plus.h **** 
 143:Generated_Source\PSoC6\pdl\cmsis/include/core_cm0plus.h ****   #ifndef __VTOR_PRESENT
 144:Generated_Source\PSoC6\pdl\cmsis/include/core_cm0plus.h ****     #define __VTOR_PRESENT            0U
 145:Generated_Source\PSoC6\pdl\cmsis/include/core_cm0plus.h ****     #warning "__VTOR_PRESENT not defined in device header file; using default!"
 146:Generated_Source\PSoC6\pdl\cmsis/include/core_cm0plus.h ****   #endif
 147:Generated_Source\PSoC6\pdl\cmsis/include/core_cm0plus.h **** 
 148:Generated_Source\PSoC6\pdl\cmsis/include/core_cm0plus.h ****   #ifndef __NVIC_PRIO_BITS
 149:Generated_Source\PSoC6\pdl\cmsis/include/core_cm0plus.h ****     #define __NVIC_PRIO_BITS          2U
 150:Generated_Source\PSoC6\pdl\cmsis/include/core_cm0plus.h ****     #warning "__NVIC_PRIO_BITS not defined in device header file; using default!"
 151:Generated_Source\PSoC6\pdl\cmsis/include/core_cm0plus.h ****   #endif
 152:Generated_Source\PSoC6\pdl\cmsis/include/core_cm0plus.h **** 
 153:Generated_Source\PSoC6\pdl\cmsis/include/core_cm0plus.h ****   #ifndef __Vendor_SysTickConfig
 154:Generated_Source\PSoC6\pdl\cmsis/include/core_cm0plus.h ****     #define __Vendor_SysTickConfig    0U
 155:Generated_Source\PSoC6\pdl\cmsis/include/core_cm0plus.h ****     #warning "__Vendor_SysTickConfig not defined in device header file; using default!"
 156:Generated_Source\PSoC6\pdl\cmsis/include/core_cm0plus.h ****   #endif
 157:Generated_Source\PSoC6\pdl\cmsis/include/core_cm0plus.h **** #endif
 158:Generated_Source\PSoC6\pdl\cmsis/include/core_cm0plus.h **** 
 159:Generated_Source\PSoC6\pdl\cmsis/include/core_cm0plus.h **** /* IO definitions (access restrictions to peripheral registers) */
 160:Generated_Source\PSoC6\pdl\cmsis/include/core_cm0plus.h **** /**
 161:Generated_Source\PSoC6\pdl\cmsis/include/core_cm0plus.h ****     \defgroup CMSIS_glob_defs CMSIS Global Defines
 162:Generated_Source\PSoC6\pdl\cmsis/include/core_cm0plus.h **** 
 163:Generated_Source\PSoC6\pdl\cmsis/include/core_cm0plus.h ****     <strong>IO Type Qualifiers</strong> are used
 164:Generated_Source\PSoC6\pdl\cmsis/include/core_cm0plus.h ****     \li to specify the access to peripheral variables.
 165:Generated_Source\PSoC6\pdl\cmsis/include/core_cm0plus.h ****     \li for automatic generation of peripheral register debug information.
 166:Generated_Source\PSoC6\pdl\cmsis/include/core_cm0plus.h **** */
 167:Generated_Source\PSoC6\pdl\cmsis/include/core_cm0plus.h **** #ifdef __cplusplus
 168:Generated_Source\PSoC6\pdl\cmsis/include/core_cm0plus.h ****   #define   __I     volatile             /*!< Defines 'read only' permissions */
 169:Generated_Source\PSoC6\pdl\cmsis/include/core_cm0plus.h **** #else
 170:Generated_Source\PSoC6\pdl\cmsis/include/core_cm0plus.h ****   #define   __I     volatile const       /*!< Defines 'read only' permissions */
 171:Generated_Source\PSoC6\pdl\cmsis/include/core_cm0plus.h **** #endif
 172:Generated_Source\PSoC6\pdl\cmsis/include/core_cm0plus.h **** #define     __O     volatile             /*!< Defines 'write only' permissions */
 173:Generated_Source\PSoC6\pdl\cmsis/include/core_cm0plus.h **** #define     __IO    volatile             /*!< Defines 'read / write' permissions */
 174:Generated_Source\PSoC6\pdl\cmsis/include/core_cm0plus.h **** 
 175:Generated_Source\PSoC6\pdl\cmsis/include/core_cm0plus.h **** /* following defines should be used for structure members */
 176:Generated_Source\PSoC6\pdl\cmsis/include/core_cm0plus.h **** #define     __IM     volatile const      /*! Defines 'read only' structure member permissions */
 177:Generated_Source\PSoC6\pdl\cmsis/include/core_cm0plus.h **** #define     __OM     volatile            /*! Defines 'write only' structure member permissions */
ARM GAS  C:\Users\gjl\AppData\Local\Temp\cclKMu0d.s 			page 17


 178:Generated_Source\PSoC6\pdl\cmsis/include/core_cm0plus.h **** #define     __IOM    volatile            /*! Defines 'read / write' structure member permissions */
 179:Generated_Source\PSoC6\pdl\cmsis/include/core_cm0plus.h **** 
 180:Generated_Source\PSoC6\pdl\cmsis/include/core_cm0plus.h **** /*@} end of group Cortex-M0+ */
 181:Generated_Source\PSoC6\pdl\cmsis/include/core_cm0plus.h **** 
 182:Generated_Source\PSoC6\pdl\cmsis/include/core_cm0plus.h **** 
 183:Generated_Source\PSoC6\pdl\cmsis/include/core_cm0plus.h **** 
 184:Generated_Source\PSoC6\pdl\cmsis/include/core_cm0plus.h **** /*******************************************************************************
 185:Generated_Source\PSoC6\pdl\cmsis/include/core_cm0plus.h ****  *                 Register Abstraction
 186:Generated_Source\PSoC6\pdl\cmsis/include/core_cm0plus.h ****   Core Register contain:
 187:Generated_Source\PSoC6\pdl\cmsis/include/core_cm0plus.h ****   - Core Register
 188:Generated_Source\PSoC6\pdl\cmsis/include/core_cm0plus.h ****   - Core NVIC Register
 189:Generated_Source\PSoC6\pdl\cmsis/include/core_cm0plus.h ****   - Core SCB Register
 190:Generated_Source\PSoC6\pdl\cmsis/include/core_cm0plus.h ****   - Core SysTick Register
 191:Generated_Source\PSoC6\pdl\cmsis/include/core_cm0plus.h ****   - Core MPU Register
 192:Generated_Source\PSoC6\pdl\cmsis/include/core_cm0plus.h ****  ******************************************************************************/
 193:Generated_Source\PSoC6\pdl\cmsis/include/core_cm0plus.h **** /**
 194:Generated_Source\PSoC6\pdl\cmsis/include/core_cm0plus.h ****   \defgroup CMSIS_core_register Defines and Type Definitions
 195:Generated_Source\PSoC6\pdl\cmsis/include/core_cm0plus.h ****   \brief Type definitions and defines for Cortex-M processor based devices.
 196:Generated_Source\PSoC6\pdl\cmsis/include/core_cm0plus.h **** */
 197:Generated_Source\PSoC6\pdl\cmsis/include/core_cm0plus.h **** 
 198:Generated_Source\PSoC6\pdl\cmsis/include/core_cm0plus.h **** /**
 199:Generated_Source\PSoC6\pdl\cmsis/include/core_cm0plus.h ****   \ingroup    CMSIS_core_register
 200:Generated_Source\PSoC6\pdl\cmsis/include/core_cm0plus.h ****   \defgroup   CMSIS_CORE  Status and Control Registers
 201:Generated_Source\PSoC6\pdl\cmsis/include/core_cm0plus.h ****   \brief      Core Register type definitions.
 202:Generated_Source\PSoC6\pdl\cmsis/include/core_cm0plus.h ****   @{
 203:Generated_Source\PSoC6\pdl\cmsis/include/core_cm0plus.h ****  */
 204:Generated_Source\PSoC6\pdl\cmsis/include/core_cm0plus.h **** 
 205:Generated_Source\PSoC6\pdl\cmsis/include/core_cm0plus.h **** /**
 206:Generated_Source\PSoC6\pdl\cmsis/include/core_cm0plus.h ****   \brief  Union type to access the Application Program Status Register (APSR).
 207:Generated_Source\PSoC6\pdl\cmsis/include/core_cm0plus.h ****  */
 208:Generated_Source\PSoC6\pdl\cmsis/include/core_cm0plus.h **** typedef union
 209:Generated_Source\PSoC6\pdl\cmsis/include/core_cm0plus.h **** {
 210:Generated_Source\PSoC6\pdl\cmsis/include/core_cm0plus.h ****   struct
 211:Generated_Source\PSoC6\pdl\cmsis/include/core_cm0plus.h ****   {
 212:Generated_Source\PSoC6\pdl\cmsis/include/core_cm0plus.h ****     uint32_t _reserved0:28;              /*!< bit:  0..27  Reserved */
 213:Generated_Source\PSoC6\pdl\cmsis/include/core_cm0plus.h ****     uint32_t V:1;                        /*!< bit:     28  Overflow condition code flag */
 214:Generated_Source\PSoC6\pdl\cmsis/include/core_cm0plus.h ****     uint32_t C:1;                        /*!< bit:     29  Carry condition code flag */
 215:Generated_Source\PSoC6\pdl\cmsis/include/core_cm0plus.h ****     uint32_t Z:1;                        /*!< bit:     30  Zero condition code flag */
 216:Generated_Source\PSoC6\pdl\cmsis/include/core_cm0plus.h ****     uint32_t N:1;                        /*!< bit:     31  Negative condition code flag */
 217:Generated_Source\PSoC6\pdl\cmsis/include/core_cm0plus.h ****   } b;                                   /*!< Structure used for bit  access */
 218:Generated_Source\PSoC6\pdl\cmsis/include/core_cm0plus.h ****   uint32_t w;                            /*!< Type      used for word access */
 219:Generated_Source\PSoC6\pdl\cmsis/include/core_cm0plus.h **** } APSR_Type;
 220:Generated_Source\PSoC6\pdl\cmsis/include/core_cm0plus.h **** 
 221:Generated_Source\PSoC6\pdl\cmsis/include/core_cm0plus.h **** /* APSR Register Definitions */
 222:Generated_Source\PSoC6\pdl\cmsis/include/core_cm0plus.h **** #define APSR_N_Pos                         31U                                            /*!< APSR
 223:Generated_Source\PSoC6\pdl\cmsis/include/core_cm0plus.h **** #define APSR_N_Msk                         (1UL << APSR_N_Pos)                            /*!< APSR
 224:Generated_Source\PSoC6\pdl\cmsis/include/core_cm0plus.h **** 
 225:Generated_Source\PSoC6\pdl\cmsis/include/core_cm0plus.h **** #define APSR_Z_Pos                         30U                                            /*!< APSR
 226:Generated_Source\PSoC6\pdl\cmsis/include/core_cm0plus.h **** #define APSR_Z_Msk                         (1UL << APSR_Z_Pos)                            /*!< APSR
 227:Generated_Source\PSoC6\pdl\cmsis/include/core_cm0plus.h **** 
 228:Generated_Source\PSoC6\pdl\cmsis/include/core_cm0plus.h **** #define APSR_C_Pos                         29U                                            /*!< APSR
 229:Generated_Source\PSoC6\pdl\cmsis/include/core_cm0plus.h **** #define APSR_C_Msk                         (1UL << APSR_C_Pos)                            /*!< APSR
 230:Generated_Source\PSoC6\pdl\cmsis/include/core_cm0plus.h **** 
 231:Generated_Source\PSoC6\pdl\cmsis/include/core_cm0plus.h **** #define APSR_V_Pos                         28U                                            /*!< APSR
 232:Generated_Source\PSoC6\pdl\cmsis/include/core_cm0plus.h **** #define APSR_V_Msk                         (1UL << APSR_V_Pos)                            /*!< APSR
 233:Generated_Source\PSoC6\pdl\cmsis/include/core_cm0plus.h **** 
 234:Generated_Source\PSoC6\pdl\cmsis/include/core_cm0plus.h **** 
ARM GAS  C:\Users\gjl\AppData\Local\Temp\cclKMu0d.s 			page 18


 235:Generated_Source\PSoC6\pdl\cmsis/include/core_cm0plus.h **** /**
 236:Generated_Source\PSoC6\pdl\cmsis/include/core_cm0plus.h ****   \brief  Union type to access the Interrupt Program Status Register (IPSR).
 237:Generated_Source\PSoC6\pdl\cmsis/include/core_cm0plus.h ****  */
 238:Generated_Source\PSoC6\pdl\cmsis/include/core_cm0plus.h **** typedef union
 239:Generated_Source\PSoC6\pdl\cmsis/include/core_cm0plus.h **** {
 240:Generated_Source\PSoC6\pdl\cmsis/include/core_cm0plus.h ****   struct
 241:Generated_Source\PSoC6\pdl\cmsis/include/core_cm0plus.h ****   {
 242:Generated_Source\PSoC6\pdl\cmsis/include/core_cm0plus.h ****     uint32_t ISR:9;                      /*!< bit:  0.. 8  Exception number */
 243:Generated_Source\PSoC6\pdl\cmsis/include/core_cm0plus.h ****     uint32_t _reserved0:23;              /*!< bit:  9..31  Reserved */
 244:Generated_Source\PSoC6\pdl\cmsis/include/core_cm0plus.h ****   } b;                                   /*!< Structure used for bit  access */
 245:Generated_Source\PSoC6\pdl\cmsis/include/core_cm0plus.h ****   uint32_t w;                            /*!< Type      used for word access */
 246:Generated_Source\PSoC6\pdl\cmsis/include/core_cm0plus.h **** } IPSR_Type;
 247:Generated_Source\PSoC6\pdl\cmsis/include/core_cm0plus.h **** 
 248:Generated_Source\PSoC6\pdl\cmsis/include/core_cm0plus.h **** /* IPSR Register Definitions */
 249:Generated_Source\PSoC6\pdl\cmsis/include/core_cm0plus.h **** #define IPSR_ISR_Pos                        0U                                            /*!< IPSR
 250:Generated_Source\PSoC6\pdl\cmsis/include/core_cm0plus.h **** #define IPSR_ISR_Msk                       (0x1FFUL /*<< IPSR_ISR_Pos*/)                  /*!< IPSR
 251:Generated_Source\PSoC6\pdl\cmsis/include/core_cm0plus.h **** 
 252:Generated_Source\PSoC6\pdl\cmsis/include/core_cm0plus.h **** 
 253:Generated_Source\PSoC6\pdl\cmsis/include/core_cm0plus.h **** /**
 254:Generated_Source\PSoC6\pdl\cmsis/include/core_cm0plus.h ****   \brief  Union type to access the Special-Purpose Program Status Registers (xPSR).
 255:Generated_Source\PSoC6\pdl\cmsis/include/core_cm0plus.h ****  */
 256:Generated_Source\PSoC6\pdl\cmsis/include/core_cm0plus.h **** typedef union
 257:Generated_Source\PSoC6\pdl\cmsis/include/core_cm0plus.h **** {
 258:Generated_Source\PSoC6\pdl\cmsis/include/core_cm0plus.h ****   struct
 259:Generated_Source\PSoC6\pdl\cmsis/include/core_cm0plus.h ****   {
 260:Generated_Source\PSoC6\pdl\cmsis/include/core_cm0plus.h ****     uint32_t ISR:9;                      /*!< bit:  0.. 8  Exception number */
 261:Generated_Source\PSoC6\pdl\cmsis/include/core_cm0plus.h ****     uint32_t _reserved0:15;              /*!< bit:  9..23  Reserved */
 262:Generated_Source\PSoC6\pdl\cmsis/include/core_cm0plus.h ****     uint32_t T:1;                        /*!< bit:     24  Thumb bit        (read 0) */
 263:Generated_Source\PSoC6\pdl\cmsis/include/core_cm0plus.h ****     uint32_t _reserved1:3;               /*!< bit: 25..27  Reserved */
 264:Generated_Source\PSoC6\pdl\cmsis/include/core_cm0plus.h ****     uint32_t V:1;                        /*!< bit:     28  Overflow condition code flag */
 265:Generated_Source\PSoC6\pdl\cmsis/include/core_cm0plus.h ****     uint32_t C:1;                        /*!< bit:     29  Carry condition code flag */
 266:Generated_Source\PSoC6\pdl\cmsis/include/core_cm0plus.h ****     uint32_t Z:1;                        /*!< bit:     30  Zero condition code flag */
 267:Generated_Source\PSoC6\pdl\cmsis/include/core_cm0plus.h ****     uint32_t N:1;                        /*!< bit:     31  Negative condition code flag */
 268:Generated_Source\PSoC6\pdl\cmsis/include/core_cm0plus.h ****   } b;                                   /*!< Structure used for bit  access */
 269:Generated_Source\PSoC6\pdl\cmsis/include/core_cm0plus.h ****   uint32_t w;                            /*!< Type      used for word access */
 270:Generated_Source\PSoC6\pdl\cmsis/include/core_cm0plus.h **** } xPSR_Type;
 271:Generated_Source\PSoC6\pdl\cmsis/include/core_cm0plus.h **** 
 272:Generated_Source\PSoC6\pdl\cmsis/include/core_cm0plus.h **** /* xPSR Register Definitions */
 273:Generated_Source\PSoC6\pdl\cmsis/include/core_cm0plus.h **** #define xPSR_N_Pos                         31U                                            /*!< xPSR
 274:Generated_Source\PSoC6\pdl\cmsis/include/core_cm0plus.h **** #define xPSR_N_Msk                         (1UL << xPSR_N_Pos)                            /*!< xPSR
 275:Generated_Source\PSoC6\pdl\cmsis/include/core_cm0plus.h **** 
 276:Generated_Source\PSoC6\pdl\cmsis/include/core_cm0plus.h **** #define xPSR_Z_Pos                         30U                                            /*!< xPSR
 277:Generated_Source\PSoC6\pdl\cmsis/include/core_cm0plus.h **** #define xPSR_Z_Msk                         (1UL << xPSR_Z_Pos)                            /*!< xPSR
 278:Generated_Source\PSoC6\pdl\cmsis/include/core_cm0plus.h **** 
 279:Generated_Source\PSoC6\pdl\cmsis/include/core_cm0plus.h **** #define xPSR_C_Pos                         29U                                            /*!< xPSR
 280:Generated_Source\PSoC6\pdl\cmsis/include/core_cm0plus.h **** #define xPSR_C_Msk                         (1UL << xPSR_C_Pos)                            /*!< xPSR
 281:Generated_Source\PSoC6\pdl\cmsis/include/core_cm0plus.h **** 
 282:Generated_Source\PSoC6\pdl\cmsis/include/core_cm0plus.h **** #define xPSR_V_Pos                         28U                                            /*!< xPSR
 283:Generated_Source\PSoC6\pdl\cmsis/include/core_cm0plus.h **** #define xPSR_V_Msk                         (1UL << xPSR_V_Pos)                            /*!< xPSR
 284:Generated_Source\PSoC6\pdl\cmsis/include/core_cm0plus.h **** 
 285:Generated_Source\PSoC6\pdl\cmsis/include/core_cm0plus.h **** #define xPSR_T_Pos                         24U                                            /*!< xPSR
 286:Generated_Source\PSoC6\pdl\cmsis/include/core_cm0plus.h **** #define xPSR_T_Msk                         (1UL << xPSR_T_Pos)                            /*!< xPSR
 287:Generated_Source\PSoC6\pdl\cmsis/include/core_cm0plus.h **** 
 288:Generated_Source\PSoC6\pdl\cmsis/include/core_cm0plus.h **** #define xPSR_ISR_Pos                        0U                                            /*!< xPSR
 289:Generated_Source\PSoC6\pdl\cmsis/include/core_cm0plus.h **** #define xPSR_ISR_Msk                       (0x1FFUL /*<< xPSR_ISR_Pos*/)                  /*!< xPSR
 290:Generated_Source\PSoC6\pdl\cmsis/include/core_cm0plus.h **** 
 291:Generated_Source\PSoC6\pdl\cmsis/include/core_cm0plus.h **** 
ARM GAS  C:\Users\gjl\AppData\Local\Temp\cclKMu0d.s 			page 19


 292:Generated_Source\PSoC6\pdl\cmsis/include/core_cm0plus.h **** /**
 293:Generated_Source\PSoC6\pdl\cmsis/include/core_cm0plus.h ****   \brief  Union type to access the Control Registers (CONTROL).
 294:Generated_Source\PSoC6\pdl\cmsis/include/core_cm0plus.h ****  */
 295:Generated_Source\PSoC6\pdl\cmsis/include/core_cm0plus.h **** typedef union
 296:Generated_Source\PSoC6\pdl\cmsis/include/core_cm0plus.h **** {
 297:Generated_Source\PSoC6\pdl\cmsis/include/core_cm0plus.h ****   struct
 298:Generated_Source\PSoC6\pdl\cmsis/include/core_cm0plus.h ****   {
 299:Generated_Source\PSoC6\pdl\cmsis/include/core_cm0plus.h ****     uint32_t nPRIV:1;                    /*!< bit:      0  Execution privilege in Thread mode */
 300:Generated_Source\PSoC6\pdl\cmsis/include/core_cm0plus.h ****     uint32_t SPSEL:1;                    /*!< bit:      1  Stack to be used */
 301:Generated_Source\PSoC6\pdl\cmsis/include/core_cm0plus.h ****     uint32_t _reserved1:30;              /*!< bit:  2..31  Reserved */
 302:Generated_Source\PSoC6\pdl\cmsis/include/core_cm0plus.h ****   } b;                                   /*!< Structure used for bit  access */
 303:Generated_Source\PSoC6\pdl\cmsis/include/core_cm0plus.h ****   uint32_t w;                            /*!< Type      used for word access */
 304:Generated_Source\PSoC6\pdl\cmsis/include/core_cm0plus.h **** } CONTROL_Type;
 305:Generated_Source\PSoC6\pdl\cmsis/include/core_cm0plus.h **** 
 306:Generated_Source\PSoC6\pdl\cmsis/include/core_cm0plus.h **** /* CONTROL Register Definitions */
 307:Generated_Source\PSoC6\pdl\cmsis/include/core_cm0plus.h **** #define CONTROL_SPSEL_Pos                   1U                                            /*!< CONT
 308:Generated_Source\PSoC6\pdl\cmsis/include/core_cm0plus.h **** #define CONTROL_SPSEL_Msk                  (1UL << CONTROL_SPSEL_Pos)                     /*!< CONT
 309:Generated_Source\PSoC6\pdl\cmsis/include/core_cm0plus.h **** 
 310:Generated_Source\PSoC6\pdl\cmsis/include/core_cm0plus.h **** #define CONTROL_nPRIV_Pos                   0U                                            /*!< CONT
 311:Generated_Source\PSoC6\pdl\cmsis/include/core_cm0plus.h **** #define CONTROL_nPRIV_Msk                  (1UL /*<< CONTROL_nPRIV_Pos*/)                 /*!< CONT
 312:Generated_Source\PSoC6\pdl\cmsis/include/core_cm0plus.h **** 
 313:Generated_Source\PSoC6\pdl\cmsis/include/core_cm0plus.h **** /*@} end of group CMSIS_CORE */
 314:Generated_Source\PSoC6\pdl\cmsis/include/core_cm0plus.h **** 
 315:Generated_Source\PSoC6\pdl\cmsis/include/core_cm0plus.h **** 
 316:Generated_Source\PSoC6\pdl\cmsis/include/core_cm0plus.h **** /**
 317:Generated_Source\PSoC6\pdl\cmsis/include/core_cm0plus.h ****   \ingroup    CMSIS_core_register
 318:Generated_Source\PSoC6\pdl\cmsis/include/core_cm0plus.h ****   \defgroup   CMSIS_NVIC  Nested Vectored Interrupt Controller (NVIC)
 319:Generated_Source\PSoC6\pdl\cmsis/include/core_cm0plus.h ****   \brief      Type definitions for the NVIC Registers
 320:Generated_Source\PSoC6\pdl\cmsis/include/core_cm0plus.h ****   @{
 321:Generated_Source\PSoC6\pdl\cmsis/include/core_cm0plus.h ****  */
 322:Generated_Source\PSoC6\pdl\cmsis/include/core_cm0plus.h **** 
 323:Generated_Source\PSoC6\pdl\cmsis/include/core_cm0plus.h **** /**
 324:Generated_Source\PSoC6\pdl\cmsis/include/core_cm0plus.h ****   \brief  Structure type to access the Nested Vectored Interrupt Controller (NVIC).
 325:Generated_Source\PSoC6\pdl\cmsis/include/core_cm0plus.h ****  */
 326:Generated_Source\PSoC6\pdl\cmsis/include/core_cm0plus.h **** typedef struct
 327:Generated_Source\PSoC6\pdl\cmsis/include/core_cm0plus.h **** {
 328:Generated_Source\PSoC6\pdl\cmsis/include/core_cm0plus.h ****   __IOM uint32_t ISER[1U];               /*!< Offset: 0x000 (R/W)  Interrupt Set Enable Register */
 329:Generated_Source\PSoC6\pdl\cmsis/include/core_cm0plus.h ****         uint32_t RESERVED0[31U];
 330:Generated_Source\PSoC6\pdl\cmsis/include/core_cm0plus.h ****   __IOM uint32_t ICER[1U];               /*!< Offset: 0x080 (R/W)  Interrupt Clear Enable Register 
 331:Generated_Source\PSoC6\pdl\cmsis/include/core_cm0plus.h ****         uint32_t RSERVED1[31U];
 332:Generated_Source\PSoC6\pdl\cmsis/include/core_cm0plus.h ****   __IOM uint32_t ISPR[1U];               /*!< Offset: 0x100 (R/W)  Interrupt Set Pending Register *
 333:Generated_Source\PSoC6\pdl\cmsis/include/core_cm0plus.h ****         uint32_t RESERVED2[31U];
 334:Generated_Source\PSoC6\pdl\cmsis/include/core_cm0plus.h ****   __IOM uint32_t ICPR[1U];               /*!< Offset: 0x180 (R/W)  Interrupt Clear Pending Register
 335:Generated_Source\PSoC6\pdl\cmsis/include/core_cm0plus.h ****         uint32_t RESERVED3[31U];
 336:Generated_Source\PSoC6\pdl\cmsis/include/core_cm0plus.h ****         uint32_t RESERVED4[64U];
 337:Generated_Source\PSoC6\pdl\cmsis/include/core_cm0plus.h ****   __IOM uint32_t IP[8U];                 /*!< Offset: 0x300 (R/W)  Interrupt Priority Register */
 338:Generated_Source\PSoC6\pdl\cmsis/include/core_cm0plus.h **** }  NVIC_Type;
 339:Generated_Source\PSoC6\pdl\cmsis/include/core_cm0plus.h **** 
 340:Generated_Source\PSoC6\pdl\cmsis/include/core_cm0plus.h **** /*@} end of group CMSIS_NVIC */
 341:Generated_Source\PSoC6\pdl\cmsis/include/core_cm0plus.h **** 
 342:Generated_Source\PSoC6\pdl\cmsis/include/core_cm0plus.h **** 
 343:Generated_Source\PSoC6\pdl\cmsis/include/core_cm0plus.h **** /**
 344:Generated_Source\PSoC6\pdl\cmsis/include/core_cm0plus.h ****   \ingroup  CMSIS_core_register
 345:Generated_Source\PSoC6\pdl\cmsis/include/core_cm0plus.h ****   \defgroup CMSIS_SCB     System Control Block (SCB)
 346:Generated_Source\PSoC6\pdl\cmsis/include/core_cm0plus.h ****   \brief    Type definitions for the System Control Block Registers
 347:Generated_Source\PSoC6\pdl\cmsis/include/core_cm0plus.h ****   @{
 348:Generated_Source\PSoC6\pdl\cmsis/include/core_cm0plus.h ****  */
ARM GAS  C:\Users\gjl\AppData\Local\Temp\cclKMu0d.s 			page 20


 349:Generated_Source\PSoC6\pdl\cmsis/include/core_cm0plus.h **** 
 350:Generated_Source\PSoC6\pdl\cmsis/include/core_cm0plus.h **** /**
 351:Generated_Source\PSoC6\pdl\cmsis/include/core_cm0plus.h ****   \brief  Structure type to access the System Control Block (SCB).
 352:Generated_Source\PSoC6\pdl\cmsis/include/core_cm0plus.h ****  */
 353:Generated_Source\PSoC6\pdl\cmsis/include/core_cm0plus.h **** typedef struct
 354:Generated_Source\PSoC6\pdl\cmsis/include/core_cm0plus.h **** {
 355:Generated_Source\PSoC6\pdl\cmsis/include/core_cm0plus.h ****   __IM  uint32_t CPUID;                  /*!< Offset: 0x000 (R/ )  CPUID Base Register */
 356:Generated_Source\PSoC6\pdl\cmsis/include/core_cm0plus.h ****   __IOM uint32_t ICSR;                   /*!< Offset: 0x004 (R/W)  Interrupt Control and State Regi
 357:Generated_Source\PSoC6\pdl\cmsis/include/core_cm0plus.h **** #if defined (__VTOR_PRESENT) && (__VTOR_PRESENT == 1U)
 358:Generated_Source\PSoC6\pdl\cmsis/include/core_cm0plus.h ****   __IOM uint32_t VTOR;                   /*!< Offset: 0x008 (R/W)  Vector Table Offset Register */
 359:Generated_Source\PSoC6\pdl\cmsis/include/core_cm0plus.h **** #else
 360:Generated_Source\PSoC6\pdl\cmsis/include/core_cm0plus.h ****         uint32_t RESERVED0;
 361:Generated_Source\PSoC6\pdl\cmsis/include/core_cm0plus.h **** #endif
 362:Generated_Source\PSoC6\pdl\cmsis/include/core_cm0plus.h ****   __IOM uint32_t AIRCR;                  /*!< Offset: 0x00C (R/W)  Application Interrupt and Reset 
 363:Generated_Source\PSoC6\pdl\cmsis/include/core_cm0plus.h ****   __IOM uint32_t SCR;                    /*!< Offset: 0x010 (R/W)  System Control Register */
 364:Generated_Source\PSoC6\pdl\cmsis/include/core_cm0plus.h ****   __IOM uint32_t CCR;                    /*!< Offset: 0x014 (R/W)  Configuration Control Register *
 365:Generated_Source\PSoC6\pdl\cmsis/include/core_cm0plus.h ****         uint32_t RESERVED1;
 366:Generated_Source\PSoC6\pdl\cmsis/include/core_cm0plus.h ****   __IOM uint32_t SHP[2U];                /*!< Offset: 0x01C (R/W)  System Handlers Priority Registe
 367:Generated_Source\PSoC6\pdl\cmsis/include/core_cm0plus.h ****   __IOM uint32_t SHCSR;                  /*!< Offset: 0x024 (R/W)  System Handler Control and State
 368:Generated_Source\PSoC6\pdl\cmsis/include/core_cm0plus.h **** } SCB_Type;
 369:Generated_Source\PSoC6\pdl\cmsis/include/core_cm0plus.h **** 
 370:Generated_Source\PSoC6\pdl\cmsis/include/core_cm0plus.h **** /* SCB CPUID Register Definitions */
 371:Generated_Source\PSoC6\pdl\cmsis/include/core_cm0plus.h **** #define SCB_CPUID_IMPLEMENTER_Pos          24U                                            /*!< SCB 
 372:Generated_Source\PSoC6\pdl\cmsis/include/core_cm0plus.h **** #define SCB_CPUID_IMPLEMENTER_Msk          (0xFFUL << SCB_CPUID_IMPLEMENTER_Pos)          /*!< SCB 
 373:Generated_Source\PSoC6\pdl\cmsis/include/core_cm0plus.h **** 
 374:Generated_Source\PSoC6\pdl\cmsis/include/core_cm0plus.h **** #define SCB_CPUID_VARIANT_Pos              20U                                            /*!< SCB 
 375:Generated_Source\PSoC6\pdl\cmsis/include/core_cm0plus.h **** #define SCB_CPUID_VARIANT_Msk              (0xFUL << SCB_CPUID_VARIANT_Pos)               /*!< SCB 
 376:Generated_Source\PSoC6\pdl\cmsis/include/core_cm0plus.h **** 
 377:Generated_Source\PSoC6\pdl\cmsis/include/core_cm0plus.h **** #define SCB_CPUID_ARCHITECTURE_Pos         16U                                            /*!< SCB 
 378:Generated_Source\PSoC6\pdl\cmsis/include/core_cm0plus.h **** #define SCB_CPUID_ARCHITECTURE_Msk         (0xFUL << SCB_CPUID_ARCHITECTURE_Pos)          /*!< SCB 
 379:Generated_Source\PSoC6\pdl\cmsis/include/core_cm0plus.h **** 
 380:Generated_Source\PSoC6\pdl\cmsis/include/core_cm0plus.h **** #define SCB_CPUID_PARTNO_Pos                4U                                            /*!< SCB 
 381:Generated_Source\PSoC6\pdl\cmsis/include/core_cm0plus.h **** #define SCB_CPUID_PARTNO_Msk               (0xFFFUL << SCB_CPUID_PARTNO_Pos)              /*!< SCB 
 382:Generated_Source\PSoC6\pdl\cmsis/include/core_cm0plus.h **** 
 383:Generated_Source\PSoC6\pdl\cmsis/include/core_cm0plus.h **** #define SCB_CPUID_REVISION_Pos              0U                                            /*!< SCB 
 384:Generated_Source\PSoC6\pdl\cmsis/include/core_cm0plus.h **** #define SCB_CPUID_REVISION_Msk             (0xFUL /*<< SCB_CPUID_REVISION_Pos*/)          /*!< SCB 
 385:Generated_Source\PSoC6\pdl\cmsis/include/core_cm0plus.h **** 
 386:Generated_Source\PSoC6\pdl\cmsis/include/core_cm0plus.h **** /* SCB Interrupt Control State Register Definitions */
 387:Generated_Source\PSoC6\pdl\cmsis/include/core_cm0plus.h **** #define SCB_ICSR_NMIPENDSET_Pos            31U                                            /*!< SCB 
 388:Generated_Source\PSoC6\pdl\cmsis/include/core_cm0plus.h **** #define SCB_ICSR_NMIPENDSET_Msk            (1UL << SCB_ICSR_NMIPENDSET_Pos)               /*!< SCB 
 389:Generated_Source\PSoC6\pdl\cmsis/include/core_cm0plus.h **** 
 390:Generated_Source\PSoC6\pdl\cmsis/include/core_cm0plus.h **** #define SCB_ICSR_PENDSVSET_Pos             28U                                            /*!< SCB 
 391:Generated_Source\PSoC6\pdl\cmsis/include/core_cm0plus.h **** #define SCB_ICSR_PENDSVSET_Msk             (1UL << SCB_ICSR_PENDSVSET_Pos)                /*!< SCB 
 392:Generated_Source\PSoC6\pdl\cmsis/include/core_cm0plus.h **** 
 393:Generated_Source\PSoC6\pdl\cmsis/include/core_cm0plus.h **** #define SCB_ICSR_PENDSVCLR_Pos             27U                                            /*!< SCB 
 394:Generated_Source\PSoC6\pdl\cmsis/include/core_cm0plus.h **** #define SCB_ICSR_PENDSVCLR_Msk             (1UL << SCB_ICSR_PENDSVCLR_Pos)                /*!< SCB 
 395:Generated_Source\PSoC6\pdl\cmsis/include/core_cm0plus.h **** 
 396:Generated_Source\PSoC6\pdl\cmsis/include/core_cm0plus.h **** #define SCB_ICSR_PENDSTSET_Pos             26U                                            /*!< SCB 
 397:Generated_Source\PSoC6\pdl\cmsis/include/core_cm0plus.h **** #define SCB_ICSR_PENDSTSET_Msk             (1UL << SCB_ICSR_PENDSTSET_Pos)                /*!< SCB 
 398:Generated_Source\PSoC6\pdl\cmsis/include/core_cm0plus.h **** 
 399:Generated_Source\PSoC6\pdl\cmsis/include/core_cm0plus.h **** #define SCB_ICSR_PENDSTCLR_Pos             25U                                            /*!< SCB 
 400:Generated_Source\PSoC6\pdl\cmsis/include/core_cm0plus.h **** #define SCB_ICSR_PENDSTCLR_Msk             (1UL << SCB_ICSR_PENDSTCLR_Pos)                /*!< SCB 
 401:Generated_Source\PSoC6\pdl\cmsis/include/core_cm0plus.h **** 
 402:Generated_Source\PSoC6\pdl\cmsis/include/core_cm0plus.h **** #define SCB_ICSR_ISRPREEMPT_Pos            23U                                            /*!< SCB 
 403:Generated_Source\PSoC6\pdl\cmsis/include/core_cm0plus.h **** #define SCB_ICSR_ISRPREEMPT_Msk            (1UL << SCB_ICSR_ISRPREEMPT_Pos)               /*!< SCB 
 404:Generated_Source\PSoC6\pdl\cmsis/include/core_cm0plus.h **** 
 405:Generated_Source\PSoC6\pdl\cmsis/include/core_cm0plus.h **** #define SCB_ICSR_ISRPENDING_Pos            22U                                            /*!< SCB 
ARM GAS  C:\Users\gjl\AppData\Local\Temp\cclKMu0d.s 			page 21


 406:Generated_Source\PSoC6\pdl\cmsis/include/core_cm0plus.h **** #define SCB_ICSR_ISRPENDING_Msk            (1UL << SCB_ICSR_ISRPENDING_Pos)               /*!< SCB 
 407:Generated_Source\PSoC6\pdl\cmsis/include/core_cm0plus.h **** 
 408:Generated_Source\PSoC6\pdl\cmsis/include/core_cm0plus.h **** #define SCB_ICSR_VECTPENDING_Pos           12U                                            /*!< SCB 
 409:Generated_Source\PSoC6\pdl\cmsis/include/core_cm0plus.h **** #define SCB_ICSR_VECTPENDING_Msk           (0x1FFUL << SCB_ICSR_VECTPENDING_Pos)          /*!< SCB 
 410:Generated_Source\PSoC6\pdl\cmsis/include/core_cm0plus.h **** 
 411:Generated_Source\PSoC6\pdl\cmsis/include/core_cm0plus.h **** #define SCB_ICSR_VECTACTIVE_Pos             0U                                            /*!< SCB 
 412:Generated_Source\PSoC6\pdl\cmsis/include/core_cm0plus.h **** #define SCB_ICSR_VECTACTIVE_Msk            (0x1FFUL /*<< SCB_ICSR_VECTACTIVE_Pos*/)       /*!< SCB 
 413:Generated_Source\PSoC6\pdl\cmsis/include/core_cm0plus.h **** 
 414:Generated_Source\PSoC6\pdl\cmsis/include/core_cm0plus.h **** #if defined (__VTOR_PRESENT) && (__VTOR_PRESENT == 1U)
 415:Generated_Source\PSoC6\pdl\cmsis/include/core_cm0plus.h **** /* SCB Interrupt Control State Register Definitions */
 416:Generated_Source\PSoC6\pdl\cmsis/include/core_cm0plus.h **** #define SCB_VTOR_TBLOFF_Pos                 8U                                            /*!< SCB 
 417:Generated_Source\PSoC6\pdl\cmsis/include/core_cm0plus.h **** #define SCB_VTOR_TBLOFF_Msk                (0xFFFFFFUL << SCB_VTOR_TBLOFF_Pos)            /*!< SCB 
 418:Generated_Source\PSoC6\pdl\cmsis/include/core_cm0plus.h **** #endif
 419:Generated_Source\PSoC6\pdl\cmsis/include/core_cm0plus.h **** 
 420:Generated_Source\PSoC6\pdl\cmsis/include/core_cm0plus.h **** /* SCB Application Interrupt and Reset Control Register Definitions */
 421:Generated_Source\PSoC6\pdl\cmsis/include/core_cm0plus.h **** #define SCB_AIRCR_VECTKEY_Pos              16U                                            /*!< SCB 
 422:Generated_Source\PSoC6\pdl\cmsis/include/core_cm0plus.h **** #define SCB_AIRCR_VECTKEY_Msk              (0xFFFFUL << SCB_AIRCR_VECTKEY_Pos)            /*!< SCB 
 423:Generated_Source\PSoC6\pdl\cmsis/include/core_cm0plus.h **** 
 424:Generated_Source\PSoC6\pdl\cmsis/include/core_cm0plus.h **** #define SCB_AIRCR_VECTKEYSTAT_Pos          16U                                            /*!< SCB 
 425:Generated_Source\PSoC6\pdl\cmsis/include/core_cm0plus.h **** #define SCB_AIRCR_VECTKEYSTAT_Msk          (0xFFFFUL << SCB_AIRCR_VECTKEYSTAT_Pos)        /*!< SCB 
 426:Generated_Source\PSoC6\pdl\cmsis/include/core_cm0plus.h **** 
 427:Generated_Source\PSoC6\pdl\cmsis/include/core_cm0plus.h **** #define SCB_AIRCR_ENDIANESS_Pos            15U                                            /*!< SCB 
 428:Generated_Source\PSoC6\pdl\cmsis/include/core_cm0plus.h **** #define SCB_AIRCR_ENDIANESS_Msk            (1UL << SCB_AIRCR_ENDIANESS_Pos)               /*!< SCB 
 429:Generated_Source\PSoC6\pdl\cmsis/include/core_cm0plus.h **** 
 430:Generated_Source\PSoC6\pdl\cmsis/include/core_cm0plus.h **** #define SCB_AIRCR_SYSRESETREQ_Pos           2U                                            /*!< SCB 
 431:Generated_Source\PSoC6\pdl\cmsis/include/core_cm0plus.h **** #define SCB_AIRCR_SYSRESETREQ_Msk          (1UL << SCB_AIRCR_SYSRESETREQ_Pos)             /*!< SCB 
 432:Generated_Source\PSoC6\pdl\cmsis/include/core_cm0plus.h **** 
 433:Generated_Source\PSoC6\pdl\cmsis/include/core_cm0plus.h **** #define SCB_AIRCR_VECTCLRACTIVE_Pos         1U                                            /*!< SCB 
 434:Generated_Source\PSoC6\pdl\cmsis/include/core_cm0plus.h **** #define SCB_AIRCR_VECTCLRACTIVE_Msk        (1UL << SCB_AIRCR_VECTCLRACTIVE_Pos)           /*!< SCB 
 435:Generated_Source\PSoC6\pdl\cmsis/include/core_cm0plus.h **** 
 436:Generated_Source\PSoC6\pdl\cmsis/include/core_cm0plus.h **** /* SCB System Control Register Definitions */
 437:Generated_Source\PSoC6\pdl\cmsis/include/core_cm0plus.h **** #define SCB_SCR_SEVONPEND_Pos               4U                                            /*!< SCB 
 438:Generated_Source\PSoC6\pdl\cmsis/include/core_cm0plus.h **** #define SCB_SCR_SEVONPEND_Msk              (1UL << SCB_SCR_SEVONPEND_Pos)                 /*!< SCB 
 439:Generated_Source\PSoC6\pdl\cmsis/include/core_cm0plus.h **** 
 440:Generated_Source\PSoC6\pdl\cmsis/include/core_cm0plus.h **** #define SCB_SCR_SLEEPDEEP_Pos               2U                                            /*!< SCB 
 441:Generated_Source\PSoC6\pdl\cmsis/include/core_cm0plus.h **** #define SCB_SCR_SLEEPDEEP_Msk              (1UL << SCB_SCR_SLEEPDEEP_Pos)                 /*!< SCB 
 442:Generated_Source\PSoC6\pdl\cmsis/include/core_cm0plus.h **** 
 443:Generated_Source\PSoC6\pdl\cmsis/include/core_cm0plus.h **** #define SCB_SCR_SLEEPONEXIT_Pos             1U                                            /*!< SCB 
 444:Generated_Source\PSoC6\pdl\cmsis/include/core_cm0plus.h **** #define SCB_SCR_SLEEPONEXIT_Msk            (1UL << SCB_SCR_SLEEPONEXIT_Pos)               /*!< SCB 
 445:Generated_Source\PSoC6\pdl\cmsis/include/core_cm0plus.h **** 
 446:Generated_Source\PSoC6\pdl\cmsis/include/core_cm0plus.h **** /* SCB Configuration Control Register Definitions */
 447:Generated_Source\PSoC6\pdl\cmsis/include/core_cm0plus.h **** #define SCB_CCR_STKALIGN_Pos                9U                                            /*!< SCB 
 448:Generated_Source\PSoC6\pdl\cmsis/include/core_cm0plus.h **** #define SCB_CCR_STKALIGN_Msk               (1UL << SCB_CCR_STKALIGN_Pos)                  /*!< SCB 
 449:Generated_Source\PSoC6\pdl\cmsis/include/core_cm0plus.h **** 
 450:Generated_Source\PSoC6\pdl\cmsis/include/core_cm0plus.h **** #define SCB_CCR_UNALIGN_TRP_Pos             3U                                            /*!< SCB 
 451:Generated_Source\PSoC6\pdl\cmsis/include/core_cm0plus.h **** #define SCB_CCR_UNALIGN_TRP_Msk            (1UL << SCB_CCR_UNALIGN_TRP_Pos)               /*!< SCB 
 452:Generated_Source\PSoC6\pdl\cmsis/include/core_cm0plus.h **** 
 453:Generated_Source\PSoC6\pdl\cmsis/include/core_cm0plus.h **** /* SCB System Handler Control and State Register Definitions */
 454:Generated_Source\PSoC6\pdl\cmsis/include/core_cm0plus.h **** #define SCB_SHCSR_SVCALLPENDED_Pos         15U                                            /*!< SCB 
 455:Generated_Source\PSoC6\pdl\cmsis/include/core_cm0plus.h **** #define SCB_SHCSR_SVCALLPENDED_Msk         (1UL << SCB_SHCSR_SVCALLPENDED_Pos)            /*!< SCB 
 456:Generated_Source\PSoC6\pdl\cmsis/include/core_cm0plus.h **** 
 457:Generated_Source\PSoC6\pdl\cmsis/include/core_cm0plus.h **** /*@} end of group CMSIS_SCB */
 458:Generated_Source\PSoC6\pdl\cmsis/include/core_cm0plus.h **** 
 459:Generated_Source\PSoC6\pdl\cmsis/include/core_cm0plus.h **** 
 460:Generated_Source\PSoC6\pdl\cmsis/include/core_cm0plus.h **** /**
 461:Generated_Source\PSoC6\pdl\cmsis/include/core_cm0plus.h ****   \ingroup  CMSIS_core_register
 462:Generated_Source\PSoC6\pdl\cmsis/include/core_cm0plus.h ****   \defgroup CMSIS_SysTick     System Tick Timer (SysTick)
ARM GAS  C:\Users\gjl\AppData\Local\Temp\cclKMu0d.s 			page 22


 463:Generated_Source\PSoC6\pdl\cmsis/include/core_cm0plus.h ****   \brief    Type definitions for the System Timer Registers.
 464:Generated_Source\PSoC6\pdl\cmsis/include/core_cm0plus.h ****   @{
 465:Generated_Source\PSoC6\pdl\cmsis/include/core_cm0plus.h ****  */
 466:Generated_Source\PSoC6\pdl\cmsis/include/core_cm0plus.h **** 
 467:Generated_Source\PSoC6\pdl\cmsis/include/core_cm0plus.h **** /**
 468:Generated_Source\PSoC6\pdl\cmsis/include/core_cm0plus.h ****   \brief  Structure type to access the System Timer (SysTick).
 469:Generated_Source\PSoC6\pdl\cmsis/include/core_cm0plus.h ****  */
 470:Generated_Source\PSoC6\pdl\cmsis/include/core_cm0plus.h **** typedef struct
 471:Generated_Source\PSoC6\pdl\cmsis/include/core_cm0plus.h **** {
 472:Generated_Source\PSoC6\pdl\cmsis/include/core_cm0plus.h ****   __IOM uint32_t CTRL;                   /*!< Offset: 0x000 (R/W)  SysTick Control and Status Regis
 473:Generated_Source\PSoC6\pdl\cmsis/include/core_cm0plus.h ****   __IOM uint32_t LOAD;                   /*!< Offset: 0x004 (R/W)  SysTick Reload Value Register */
 474:Generated_Source\PSoC6\pdl\cmsis/include/core_cm0plus.h ****   __IOM uint32_t VAL;                    /*!< Offset: 0x008 (R/W)  SysTick Current Value Register *
 475:Generated_Source\PSoC6\pdl\cmsis/include/core_cm0plus.h ****   __IM  uint32_t CALIB;                  /*!< Offset: 0x00C (R/ )  SysTick Calibration Register */
 476:Generated_Source\PSoC6\pdl\cmsis/include/core_cm0plus.h **** } SysTick_Type;
 477:Generated_Source\PSoC6\pdl\cmsis/include/core_cm0plus.h **** 
 478:Generated_Source\PSoC6\pdl\cmsis/include/core_cm0plus.h **** /* SysTick Control / Status Register Definitions */
 479:Generated_Source\PSoC6\pdl\cmsis/include/core_cm0plus.h **** #define SysTick_CTRL_COUNTFLAG_Pos         16U                                            /*!< SysT
 480:Generated_Source\PSoC6\pdl\cmsis/include/core_cm0plus.h **** #define SysTick_CTRL_COUNTFLAG_Msk         (1UL << SysTick_CTRL_COUNTFLAG_Pos)            /*!< SysT
 481:Generated_Source\PSoC6\pdl\cmsis/include/core_cm0plus.h **** 
 482:Generated_Source\PSoC6\pdl\cmsis/include/core_cm0plus.h **** #define SysTick_CTRL_CLKSOURCE_Pos          2U                                            /*!< SysT
 483:Generated_Source\PSoC6\pdl\cmsis/include/core_cm0plus.h **** #define SysTick_CTRL_CLKSOURCE_Msk         (1UL << SysTick_CTRL_CLKSOURCE_Pos)            /*!< SysT
 484:Generated_Source\PSoC6\pdl\cmsis/include/core_cm0plus.h **** 
 485:Generated_Source\PSoC6\pdl\cmsis/include/core_cm0plus.h **** #define SysTick_CTRL_TICKINT_Pos            1U                                            /*!< SysT
 486:Generated_Source\PSoC6\pdl\cmsis/include/core_cm0plus.h **** #define SysTick_CTRL_TICKINT_Msk           (1UL << SysTick_CTRL_TICKINT_Pos)              /*!< SysT
 487:Generated_Source\PSoC6\pdl\cmsis/include/core_cm0plus.h **** 
 488:Generated_Source\PSoC6\pdl\cmsis/include/core_cm0plus.h **** #define SysTick_CTRL_ENABLE_Pos             0U                                            /*!< SysT
 489:Generated_Source\PSoC6\pdl\cmsis/include/core_cm0plus.h **** #define SysTick_CTRL_ENABLE_Msk            (1UL /*<< SysTick_CTRL_ENABLE_Pos*/)           /*!< SysT
 490:Generated_Source\PSoC6\pdl\cmsis/include/core_cm0plus.h **** 
 491:Generated_Source\PSoC6\pdl\cmsis/include/core_cm0plus.h **** /* SysTick Reload Register Definitions */
 492:Generated_Source\PSoC6\pdl\cmsis/include/core_cm0plus.h **** #define SysTick_LOAD_RELOAD_Pos             0U                                            /*!< SysT
 493:Generated_Source\PSoC6\pdl\cmsis/include/core_cm0plus.h **** #define SysTick_LOAD_RELOAD_Msk            (0xFFFFFFUL /*<< SysTick_LOAD_RELOAD_Pos*/)    /*!< SysT
 494:Generated_Source\PSoC6\pdl\cmsis/include/core_cm0plus.h **** 
 495:Generated_Source\PSoC6\pdl\cmsis/include/core_cm0plus.h **** /* SysTick Current Register Definitions */
 496:Generated_Source\PSoC6\pdl\cmsis/include/core_cm0plus.h **** #define SysTick_VAL_CURRENT_Pos             0U                                            /*!< SysT
 497:Generated_Source\PSoC6\pdl\cmsis/include/core_cm0plus.h **** #define SysTick_VAL_CURRENT_Msk            (0xFFFFFFUL /*<< SysTick_VAL_CURRENT_Pos*/)    /*!< SysT
 498:Generated_Source\PSoC6\pdl\cmsis/include/core_cm0plus.h **** 
 499:Generated_Source\PSoC6\pdl\cmsis/include/core_cm0plus.h **** /* SysTick Calibration Register Definitions */
 500:Generated_Source\PSoC6\pdl\cmsis/include/core_cm0plus.h **** #define SysTick_CALIB_NOREF_Pos            31U                                            /*!< SysT
 501:Generated_Source\PSoC6\pdl\cmsis/include/core_cm0plus.h **** #define SysTick_CALIB_NOREF_Msk            (1UL << SysTick_CALIB_NOREF_Pos)               /*!< SysT
 502:Generated_Source\PSoC6\pdl\cmsis/include/core_cm0plus.h **** 
 503:Generated_Source\PSoC6\pdl\cmsis/include/core_cm0plus.h **** #define SysTick_CALIB_SKEW_Pos             30U                                            /*!< SysT
 504:Generated_Source\PSoC6\pdl\cmsis/include/core_cm0plus.h **** #define SysTick_CALIB_SKEW_Msk             (1UL << SysTick_CALIB_SKEW_Pos)                /*!< SysT
 505:Generated_Source\PSoC6\pdl\cmsis/include/core_cm0plus.h **** 
 506:Generated_Source\PSoC6\pdl\cmsis/include/core_cm0plus.h **** #define SysTick_CALIB_TENMS_Pos             0U                                            /*!< SysT
 507:Generated_Source\PSoC6\pdl\cmsis/include/core_cm0plus.h **** #define SysTick_CALIB_TENMS_Msk            (0xFFFFFFUL /*<< SysTick_CALIB_TENMS_Pos*/)    /*!< SysT
 508:Generated_Source\PSoC6\pdl\cmsis/include/core_cm0plus.h **** 
 509:Generated_Source\PSoC6\pdl\cmsis/include/core_cm0plus.h **** /*@} end of group CMSIS_SysTick */
 510:Generated_Source\PSoC6\pdl\cmsis/include/core_cm0plus.h **** 
 511:Generated_Source\PSoC6\pdl\cmsis/include/core_cm0plus.h **** #if defined (__MPU_PRESENT) && (__MPU_PRESENT == 1U)
 512:Generated_Source\PSoC6\pdl\cmsis/include/core_cm0plus.h **** /**
 513:Generated_Source\PSoC6\pdl\cmsis/include/core_cm0plus.h ****   \ingroup  CMSIS_core_register
 514:Generated_Source\PSoC6\pdl\cmsis/include/core_cm0plus.h ****   \defgroup CMSIS_MPU     Memory Protection Unit (MPU)
 515:Generated_Source\PSoC6\pdl\cmsis/include/core_cm0plus.h ****   \brief    Type definitions for the Memory Protection Unit (MPU)
 516:Generated_Source\PSoC6\pdl\cmsis/include/core_cm0plus.h ****   @{
 517:Generated_Source\PSoC6\pdl\cmsis/include/core_cm0plus.h ****  */
 518:Generated_Source\PSoC6\pdl\cmsis/include/core_cm0plus.h **** 
 519:Generated_Source\PSoC6\pdl\cmsis/include/core_cm0plus.h **** /**
ARM GAS  C:\Users\gjl\AppData\Local\Temp\cclKMu0d.s 			page 23


 520:Generated_Source\PSoC6\pdl\cmsis/include/core_cm0plus.h ****   \brief  Structure type to access the Memory Protection Unit (MPU).
 521:Generated_Source\PSoC6\pdl\cmsis/include/core_cm0plus.h ****  */
 522:Generated_Source\PSoC6\pdl\cmsis/include/core_cm0plus.h **** typedef struct
 523:Generated_Source\PSoC6\pdl\cmsis/include/core_cm0plus.h **** {
 524:Generated_Source\PSoC6\pdl\cmsis/include/core_cm0plus.h ****   __IM  uint32_t TYPE;                   /*!< Offset: 0x000 (R/ )  MPU Type Register */
 525:Generated_Source\PSoC6\pdl\cmsis/include/core_cm0plus.h ****   __IOM uint32_t CTRL;                   /*!< Offset: 0x004 (R/W)  MPU Control Register */
 526:Generated_Source\PSoC6\pdl\cmsis/include/core_cm0plus.h ****   __IOM uint32_t RNR;                    /*!< Offset: 0x008 (R/W)  MPU Region RNRber Register */
 527:Generated_Source\PSoC6\pdl\cmsis/include/core_cm0plus.h ****   __IOM uint32_t RBAR;                   /*!< Offset: 0x00C (R/W)  MPU Region Base Address Register
 528:Generated_Source\PSoC6\pdl\cmsis/include/core_cm0plus.h ****   __IOM uint32_t RASR;                   /*!< Offset: 0x010 (R/W)  MPU Region Attribute and Size Re
 529:Generated_Source\PSoC6\pdl\cmsis/include/core_cm0plus.h **** } MPU_Type;
 530:Generated_Source\PSoC6\pdl\cmsis/include/core_cm0plus.h **** 
 531:Generated_Source\PSoC6\pdl\cmsis/include/core_cm0plus.h **** /* MPU Type Register Definitions */
 532:Generated_Source\PSoC6\pdl\cmsis/include/core_cm0plus.h **** #define MPU_TYPE_IREGION_Pos               16U                                            /*!< MPU 
 533:Generated_Source\PSoC6\pdl\cmsis/include/core_cm0plus.h **** #define MPU_TYPE_IREGION_Msk               (0xFFUL << MPU_TYPE_IREGION_Pos)               /*!< MPU 
 534:Generated_Source\PSoC6\pdl\cmsis/include/core_cm0plus.h **** 
 535:Generated_Source\PSoC6\pdl\cmsis/include/core_cm0plus.h **** #define MPU_TYPE_DREGION_Pos                8U                                            /*!< MPU 
 536:Generated_Source\PSoC6\pdl\cmsis/include/core_cm0plus.h **** #define MPU_TYPE_DREGION_Msk               (0xFFUL << MPU_TYPE_DREGION_Pos)               /*!< MPU 
 537:Generated_Source\PSoC6\pdl\cmsis/include/core_cm0plus.h **** 
 538:Generated_Source\PSoC6\pdl\cmsis/include/core_cm0plus.h **** #define MPU_TYPE_SEPARATE_Pos               0U                                            /*!< MPU 
 539:Generated_Source\PSoC6\pdl\cmsis/include/core_cm0plus.h **** #define MPU_TYPE_SEPARATE_Msk              (1UL /*<< MPU_TYPE_SEPARATE_Pos*/)             /*!< MPU 
 540:Generated_Source\PSoC6\pdl\cmsis/include/core_cm0plus.h **** 
 541:Generated_Source\PSoC6\pdl\cmsis/include/core_cm0plus.h **** /* MPU Control Register Definitions */
 542:Generated_Source\PSoC6\pdl\cmsis/include/core_cm0plus.h **** #define MPU_CTRL_PRIVDEFENA_Pos             2U                                            /*!< MPU 
 543:Generated_Source\PSoC6\pdl\cmsis/include/core_cm0plus.h **** #define MPU_CTRL_PRIVDEFENA_Msk            (1UL << MPU_CTRL_PRIVDEFENA_Pos)               /*!< MPU 
 544:Generated_Source\PSoC6\pdl\cmsis/include/core_cm0plus.h **** 
 545:Generated_Source\PSoC6\pdl\cmsis/include/core_cm0plus.h **** #define MPU_CTRL_HFNMIENA_Pos               1U                                            /*!< MPU 
 546:Generated_Source\PSoC6\pdl\cmsis/include/core_cm0plus.h **** #define MPU_CTRL_HFNMIENA_Msk              (1UL << MPU_CTRL_HFNMIENA_Pos)                 /*!< MPU 
 547:Generated_Source\PSoC6\pdl\cmsis/include/core_cm0plus.h **** 
 548:Generated_Source\PSoC6\pdl\cmsis/include/core_cm0plus.h **** #define MPU_CTRL_ENABLE_Pos                 0U                                            /*!< MPU 
 549:Generated_Source\PSoC6\pdl\cmsis/include/core_cm0plus.h **** #define MPU_CTRL_ENABLE_Msk                (1UL /*<< MPU_CTRL_ENABLE_Pos*/)               /*!< MPU 
 550:Generated_Source\PSoC6\pdl\cmsis/include/core_cm0plus.h **** 
 551:Generated_Source\PSoC6\pdl\cmsis/include/core_cm0plus.h **** /* MPU Region Number Register Definitions */
 552:Generated_Source\PSoC6\pdl\cmsis/include/core_cm0plus.h **** #define MPU_RNR_REGION_Pos                  0U                                            /*!< MPU 
 553:Generated_Source\PSoC6\pdl\cmsis/include/core_cm0plus.h **** #define MPU_RNR_REGION_Msk                 (0xFFUL /*<< MPU_RNR_REGION_Pos*/)             /*!< MPU 
 554:Generated_Source\PSoC6\pdl\cmsis/include/core_cm0plus.h **** 
 555:Generated_Source\PSoC6\pdl\cmsis/include/core_cm0plus.h **** /* MPU Region Base Address Register Definitions */
 556:Generated_Source\PSoC6\pdl\cmsis/include/core_cm0plus.h **** #define MPU_RBAR_ADDR_Pos                   8U                                            /*!< MPU 
 557:Generated_Source\PSoC6\pdl\cmsis/include/core_cm0plus.h **** #define MPU_RBAR_ADDR_Msk                  (0xFFFFFFUL << MPU_RBAR_ADDR_Pos)              /*!< MPU 
 558:Generated_Source\PSoC6\pdl\cmsis/include/core_cm0plus.h **** 
 559:Generated_Source\PSoC6\pdl\cmsis/include/core_cm0plus.h **** #define MPU_RBAR_VALID_Pos                  4U                                            /*!< MPU 
 560:Generated_Source\PSoC6\pdl\cmsis/include/core_cm0plus.h **** #define MPU_RBAR_VALID_Msk                 (1UL << MPU_RBAR_VALID_Pos)                    /*!< MPU 
 561:Generated_Source\PSoC6\pdl\cmsis/include/core_cm0plus.h **** 
 562:Generated_Source\PSoC6\pdl\cmsis/include/core_cm0plus.h **** #define MPU_RBAR_REGION_Pos                 0U                                            /*!< MPU 
 563:Generated_Source\PSoC6\pdl\cmsis/include/core_cm0plus.h **** #define MPU_RBAR_REGION_Msk                (0xFUL /*<< MPU_RBAR_REGION_Pos*/)             /*!< MPU 
 564:Generated_Source\PSoC6\pdl\cmsis/include/core_cm0plus.h **** 
 565:Generated_Source\PSoC6\pdl\cmsis/include/core_cm0plus.h **** /* MPU Region Attribute and Size Register Definitions */
 566:Generated_Source\PSoC6\pdl\cmsis/include/core_cm0plus.h **** #define MPU_RASR_ATTRS_Pos                 16U                                            /*!< MPU 
 567:Generated_Source\PSoC6\pdl\cmsis/include/core_cm0plus.h **** #define MPU_RASR_ATTRS_Msk                 (0xFFFFUL << MPU_RASR_ATTRS_Pos)               /*!< MPU 
 568:Generated_Source\PSoC6\pdl\cmsis/include/core_cm0plus.h **** 
 569:Generated_Source\PSoC6\pdl\cmsis/include/core_cm0plus.h **** #define MPU_RASR_XN_Pos                    28U                                            /*!< MPU 
 570:Generated_Source\PSoC6\pdl\cmsis/include/core_cm0plus.h **** #define MPU_RASR_XN_Msk                    (1UL << MPU_RASR_XN_Pos)                       /*!< MPU 
 571:Generated_Source\PSoC6\pdl\cmsis/include/core_cm0plus.h **** 
 572:Generated_Source\PSoC6\pdl\cmsis/include/core_cm0plus.h **** #define MPU_RASR_AP_Pos                    24U                                            /*!< MPU 
 573:Generated_Source\PSoC6\pdl\cmsis/include/core_cm0plus.h **** #define MPU_RASR_AP_Msk                    (0x7UL << MPU_RASR_AP_Pos)                     /*!< MPU 
 574:Generated_Source\PSoC6\pdl\cmsis/include/core_cm0plus.h **** 
 575:Generated_Source\PSoC6\pdl\cmsis/include/core_cm0plus.h **** #define MPU_RASR_TEX_Pos                   19U                                            /*!< MPU 
 576:Generated_Source\PSoC6\pdl\cmsis/include/core_cm0plus.h **** #define MPU_RASR_TEX_Msk                   (0x7UL << MPU_RASR_TEX_Pos)                    /*!< MPU 
ARM GAS  C:\Users\gjl\AppData\Local\Temp\cclKMu0d.s 			page 24


 577:Generated_Source\PSoC6\pdl\cmsis/include/core_cm0plus.h **** 
 578:Generated_Source\PSoC6\pdl\cmsis/include/core_cm0plus.h **** #define MPU_RASR_S_Pos                     18U                                            /*!< MPU 
 579:Generated_Source\PSoC6\pdl\cmsis/include/core_cm0plus.h **** #define MPU_RASR_S_Msk                     (1UL << MPU_RASR_S_Pos)                        /*!< MPU 
 580:Generated_Source\PSoC6\pdl\cmsis/include/core_cm0plus.h **** 
 581:Generated_Source\PSoC6\pdl\cmsis/include/core_cm0plus.h **** #define MPU_RASR_C_Pos                     17U                                            /*!< MPU 
 582:Generated_Source\PSoC6\pdl\cmsis/include/core_cm0plus.h **** #define MPU_RASR_C_Msk                     (1UL << MPU_RASR_C_Pos)                        /*!< MPU 
 583:Generated_Source\PSoC6\pdl\cmsis/include/core_cm0plus.h **** 
 584:Generated_Source\PSoC6\pdl\cmsis/include/core_cm0plus.h **** #define MPU_RASR_B_Pos                     16U                                            /*!< MPU 
 585:Generated_Source\PSoC6\pdl\cmsis/include/core_cm0plus.h **** #define MPU_RASR_B_Msk                     (1UL << MPU_RASR_B_Pos)                        /*!< MPU 
 586:Generated_Source\PSoC6\pdl\cmsis/include/core_cm0plus.h **** 
 587:Generated_Source\PSoC6\pdl\cmsis/include/core_cm0plus.h **** #define MPU_RASR_SRD_Pos                    8U                                            /*!< MPU 
 588:Generated_Source\PSoC6\pdl\cmsis/include/core_cm0plus.h **** #define MPU_RASR_SRD_Msk                   (0xFFUL << MPU_RASR_SRD_Pos)                   /*!< MPU 
 589:Generated_Source\PSoC6\pdl\cmsis/include/core_cm0plus.h **** 
 590:Generated_Source\PSoC6\pdl\cmsis/include/core_cm0plus.h **** #define MPU_RASR_SIZE_Pos                   1U                                            /*!< MPU 
 591:Generated_Source\PSoC6\pdl\cmsis/include/core_cm0plus.h **** #define MPU_RASR_SIZE_Msk                  (0x1FUL << MPU_RASR_SIZE_Pos)                  /*!< MPU 
 592:Generated_Source\PSoC6\pdl\cmsis/include/core_cm0plus.h **** 
 593:Generated_Source\PSoC6\pdl\cmsis/include/core_cm0plus.h **** #define MPU_RASR_ENABLE_Pos                 0U                                            /*!< MPU 
 594:Generated_Source\PSoC6\pdl\cmsis/include/core_cm0plus.h **** #define MPU_RASR_ENABLE_Msk                (1UL /*<< MPU_RASR_ENABLE_Pos*/)               /*!< MPU 
 595:Generated_Source\PSoC6\pdl\cmsis/include/core_cm0plus.h **** 
 596:Generated_Source\PSoC6\pdl\cmsis/include/core_cm0plus.h **** /*@} end of group CMSIS_MPU */
 597:Generated_Source\PSoC6\pdl\cmsis/include/core_cm0plus.h **** #endif
 598:Generated_Source\PSoC6\pdl\cmsis/include/core_cm0plus.h **** 
 599:Generated_Source\PSoC6\pdl\cmsis/include/core_cm0plus.h **** 
 600:Generated_Source\PSoC6\pdl\cmsis/include/core_cm0plus.h **** /**
 601:Generated_Source\PSoC6\pdl\cmsis/include/core_cm0plus.h ****   \ingroup  CMSIS_core_register
 602:Generated_Source\PSoC6\pdl\cmsis/include/core_cm0plus.h ****   \defgroup CMSIS_CoreDebug       Core Debug Registers (CoreDebug)
 603:Generated_Source\PSoC6\pdl\cmsis/include/core_cm0plus.h ****   \brief    Cortex-M0+ Core Debug Registers (DCB registers, SHCSR, and DFSR) are only accessible ov
 604:Generated_Source\PSoC6\pdl\cmsis/include/core_cm0plus.h ****             Therefore they are not covered by the Cortex-M0+ header file.
 605:Generated_Source\PSoC6\pdl\cmsis/include/core_cm0plus.h ****   @{
 606:Generated_Source\PSoC6\pdl\cmsis/include/core_cm0plus.h ****  */
 607:Generated_Source\PSoC6\pdl\cmsis/include/core_cm0plus.h **** /*@} end of group CMSIS_CoreDebug */
 608:Generated_Source\PSoC6\pdl\cmsis/include/core_cm0plus.h **** 
 609:Generated_Source\PSoC6\pdl\cmsis/include/core_cm0plus.h **** 
 610:Generated_Source\PSoC6\pdl\cmsis/include/core_cm0plus.h **** /**
 611:Generated_Source\PSoC6\pdl\cmsis/include/core_cm0plus.h ****   \ingroup    CMSIS_core_register
 612:Generated_Source\PSoC6\pdl\cmsis/include/core_cm0plus.h ****   \defgroup   CMSIS_core_bitfield     Core register bit field macros
 613:Generated_Source\PSoC6\pdl\cmsis/include/core_cm0plus.h ****   \brief      Macros for use with bit field definitions (xxx_Pos, xxx_Msk).
 614:Generated_Source\PSoC6\pdl\cmsis/include/core_cm0plus.h ****   @{
 615:Generated_Source\PSoC6\pdl\cmsis/include/core_cm0plus.h ****  */
 616:Generated_Source\PSoC6\pdl\cmsis/include/core_cm0plus.h **** 
 617:Generated_Source\PSoC6\pdl\cmsis/include/core_cm0plus.h **** /**
 618:Generated_Source\PSoC6\pdl\cmsis/include/core_cm0plus.h ****   \brief   Mask and shift a bit field value for use in a register bit range.
 619:Generated_Source\PSoC6\pdl\cmsis/include/core_cm0plus.h ****   \param[in] field  Name of the register bit field.
 620:Generated_Source\PSoC6\pdl\cmsis/include/core_cm0plus.h ****   \param[in] value  Value of the bit field. This parameter is interpreted as an uint32_t type.
 621:Generated_Source\PSoC6\pdl\cmsis/include/core_cm0plus.h ****   \return           Masked and shifted value.
 622:Generated_Source\PSoC6\pdl\cmsis/include/core_cm0plus.h **** */
 623:Generated_Source\PSoC6\pdl\cmsis/include/core_cm0plus.h **** #define _VAL2FLD(field, value)    (((uint32_t)(value) << field ## _Pos) & field ## _Msk)
 624:Generated_Source\PSoC6\pdl\cmsis/include/core_cm0plus.h **** 
 625:Generated_Source\PSoC6\pdl\cmsis/include/core_cm0plus.h **** /**
 626:Generated_Source\PSoC6\pdl\cmsis/include/core_cm0plus.h ****   \brief     Mask and shift a register value to extract a bit filed value.
 627:Generated_Source\PSoC6\pdl\cmsis/include/core_cm0plus.h ****   \param[in] field  Name of the register bit field.
 628:Generated_Source\PSoC6\pdl\cmsis/include/core_cm0plus.h ****   \param[in] value  Value of register. This parameter is interpreted as an uint32_t type.
 629:Generated_Source\PSoC6\pdl\cmsis/include/core_cm0plus.h ****   \return           Masked and shifted bit field value.
 630:Generated_Source\PSoC6\pdl\cmsis/include/core_cm0plus.h **** */
 631:Generated_Source\PSoC6\pdl\cmsis/include/core_cm0plus.h **** #define _FLD2VAL(field, value)    (((uint32_t)(value) & field ## _Msk) >> field ## _Pos)
 632:Generated_Source\PSoC6\pdl\cmsis/include/core_cm0plus.h **** 
 633:Generated_Source\PSoC6\pdl\cmsis/include/core_cm0plus.h **** /*@} end of group CMSIS_core_bitfield */
ARM GAS  C:\Users\gjl\AppData\Local\Temp\cclKMu0d.s 			page 25


 634:Generated_Source\PSoC6\pdl\cmsis/include/core_cm0plus.h **** 
 635:Generated_Source\PSoC6\pdl\cmsis/include/core_cm0plus.h **** 
 636:Generated_Source\PSoC6\pdl\cmsis/include/core_cm0plus.h **** /**
 637:Generated_Source\PSoC6\pdl\cmsis/include/core_cm0plus.h ****   \ingroup    CMSIS_core_register
 638:Generated_Source\PSoC6\pdl\cmsis/include/core_cm0plus.h ****   \defgroup   CMSIS_core_base     Core Definitions
 639:Generated_Source\PSoC6\pdl\cmsis/include/core_cm0plus.h ****   \brief      Definitions for base addresses, unions, and structures.
 640:Generated_Source\PSoC6\pdl\cmsis/include/core_cm0plus.h ****   @{
 641:Generated_Source\PSoC6\pdl\cmsis/include/core_cm0plus.h ****  */
 642:Generated_Source\PSoC6\pdl\cmsis/include/core_cm0plus.h **** 
 643:Generated_Source\PSoC6\pdl\cmsis/include/core_cm0plus.h **** /* Memory mapping of Core Hardware */
 644:Generated_Source\PSoC6\pdl\cmsis/include/core_cm0plus.h **** #define SCS_BASE            (0xE000E000UL)                            /*!< System Control Space Bas
 645:Generated_Source\PSoC6\pdl\cmsis/include/core_cm0plus.h **** #define SysTick_BASE        (SCS_BASE +  0x0010UL)                    /*!< SysTick Base Address */
 646:Generated_Source\PSoC6\pdl\cmsis/include/core_cm0plus.h **** #define NVIC_BASE           (SCS_BASE +  0x0100UL)                    /*!< NVIC Base Address */
 647:Generated_Source\PSoC6\pdl\cmsis/include/core_cm0plus.h **** #define SCB_BASE            (SCS_BASE +  0x0D00UL)                    /*!< System Control Block Bas
 648:Generated_Source\PSoC6\pdl\cmsis/include/core_cm0plus.h **** 
 649:Generated_Source\PSoC6\pdl\cmsis/include/core_cm0plus.h **** #define SCB                 ((SCB_Type       *)     SCB_BASE      )   /*!< SCB configuration struct
 650:Generated_Source\PSoC6\pdl\cmsis/include/core_cm0plus.h **** #define SysTick             ((SysTick_Type   *)     SysTick_BASE  )   /*!< SysTick configuration st
 651:Generated_Source\PSoC6\pdl\cmsis/include/core_cm0plus.h **** #define NVIC                ((NVIC_Type      *)     NVIC_BASE     )   /*!< NVIC configuration struc
 652:Generated_Source\PSoC6\pdl\cmsis/include/core_cm0plus.h **** 
 653:Generated_Source\PSoC6\pdl\cmsis/include/core_cm0plus.h **** #if defined (__MPU_PRESENT) && (__MPU_PRESENT == 1U)
 654:Generated_Source\PSoC6\pdl\cmsis/include/core_cm0plus.h ****   #define MPU_BASE          (SCS_BASE +  0x0D90UL)                    /*!< Memory Protection Unit *
 655:Generated_Source\PSoC6\pdl\cmsis/include/core_cm0plus.h ****   #define MPU               ((MPU_Type       *)     MPU_BASE      )   /*!< Memory Protection Unit *
 656:Generated_Source\PSoC6\pdl\cmsis/include/core_cm0plus.h **** #endif
 657:Generated_Source\PSoC6\pdl\cmsis/include/core_cm0plus.h **** 
 658:Generated_Source\PSoC6\pdl\cmsis/include/core_cm0plus.h **** /*@} */
 659:Generated_Source\PSoC6\pdl\cmsis/include/core_cm0plus.h **** 
 660:Generated_Source\PSoC6\pdl\cmsis/include/core_cm0plus.h **** 
 661:Generated_Source\PSoC6\pdl\cmsis/include/core_cm0plus.h **** 
 662:Generated_Source\PSoC6\pdl\cmsis/include/core_cm0plus.h **** /*******************************************************************************
 663:Generated_Source\PSoC6\pdl\cmsis/include/core_cm0plus.h ****  *                Hardware Abstraction Layer
 664:Generated_Source\PSoC6\pdl\cmsis/include/core_cm0plus.h ****   Core Function Interface contains:
 665:Generated_Source\PSoC6\pdl\cmsis/include/core_cm0plus.h ****   - Core NVIC Functions
 666:Generated_Source\PSoC6\pdl\cmsis/include/core_cm0plus.h ****   - Core SysTick Functions
 667:Generated_Source\PSoC6\pdl\cmsis/include/core_cm0plus.h ****   - Core Register Access Functions
 668:Generated_Source\PSoC6\pdl\cmsis/include/core_cm0plus.h ****  ******************************************************************************/
 669:Generated_Source\PSoC6\pdl\cmsis/include/core_cm0plus.h **** /**
 670:Generated_Source\PSoC6\pdl\cmsis/include/core_cm0plus.h ****   \defgroup CMSIS_Core_FunctionInterface Functions and Instructions Reference
 671:Generated_Source\PSoC6\pdl\cmsis/include/core_cm0plus.h **** */
 672:Generated_Source\PSoC6\pdl\cmsis/include/core_cm0plus.h **** 
 673:Generated_Source\PSoC6\pdl\cmsis/include/core_cm0plus.h **** 
 674:Generated_Source\PSoC6\pdl\cmsis/include/core_cm0plus.h **** 
 675:Generated_Source\PSoC6\pdl\cmsis/include/core_cm0plus.h **** /* ##########################   NVIC functions  #################################### */
 676:Generated_Source\PSoC6\pdl\cmsis/include/core_cm0plus.h **** /**
 677:Generated_Source\PSoC6\pdl\cmsis/include/core_cm0plus.h ****   \ingroup  CMSIS_Core_FunctionInterface
 678:Generated_Source\PSoC6\pdl\cmsis/include/core_cm0plus.h ****   \defgroup CMSIS_Core_NVICFunctions NVIC Functions
 679:Generated_Source\PSoC6\pdl\cmsis/include/core_cm0plus.h ****   \brief    Functions that manage interrupts and exceptions via the NVIC.
 680:Generated_Source\PSoC6\pdl\cmsis/include/core_cm0plus.h ****   @{
 681:Generated_Source\PSoC6\pdl\cmsis/include/core_cm0plus.h ****  */
 682:Generated_Source\PSoC6\pdl\cmsis/include/core_cm0plus.h **** 
 683:Generated_Source\PSoC6\pdl\cmsis/include/core_cm0plus.h **** #ifndef CMSIS_NVIC_VIRTUAL
 684:Generated_Source\PSoC6\pdl\cmsis/include/core_cm0plus.h **** /*#define NVIC_SetPriorityGrouping    __NVIC_SetPriorityGrouping   not available for Cortex-M0+ */
 685:Generated_Source\PSoC6\pdl\cmsis/include/core_cm0plus.h **** /*#define NVIC_GetPriorityGrouping    __NVIC_GetPriorityGrouping   not available for Cortex-M0+ */
 686:Generated_Source\PSoC6\pdl\cmsis/include/core_cm0plus.h ****   #define NVIC_EnableIRQ              __NVIC_EnableIRQ
 687:Generated_Source\PSoC6\pdl\cmsis/include/core_cm0plus.h ****   #define NVIC_GetEnableIRQ           __NVIC_GetEnableIRQ
 688:Generated_Source\PSoC6\pdl\cmsis/include/core_cm0plus.h ****   #define NVIC_DisableIRQ             __NVIC_DisableIRQ
 689:Generated_Source\PSoC6\pdl\cmsis/include/core_cm0plus.h ****   #define NVIC_GetPendingIRQ          __NVIC_GetPendingIRQ
 690:Generated_Source\PSoC6\pdl\cmsis/include/core_cm0plus.h ****   #define NVIC_SetPendingIRQ          __NVIC_SetPendingIRQ
ARM GAS  C:\Users\gjl\AppData\Local\Temp\cclKMu0d.s 			page 26


 691:Generated_Source\PSoC6\pdl\cmsis/include/core_cm0plus.h ****   #define NVIC_ClearPendingIRQ        __NVIC_ClearPendingIRQ
 692:Generated_Source\PSoC6\pdl\cmsis/include/core_cm0plus.h **** /*#define NVIC_GetActive              __NVIC_GetActive             not available for Cortex-M0+ */
 693:Generated_Source\PSoC6\pdl\cmsis/include/core_cm0plus.h ****   #define NVIC_SetPriority            __NVIC_SetPriority
 694:Generated_Source\PSoC6\pdl\cmsis/include/core_cm0plus.h ****   #define NVIC_GetPriority            __NVIC_GetPriority
 695:Generated_Source\PSoC6\pdl\cmsis/include/core_cm0plus.h **** #endif /* CMSIS_NVIC_VIRTUAL */
 696:Generated_Source\PSoC6\pdl\cmsis/include/core_cm0plus.h **** 
 697:Generated_Source\PSoC6\pdl\cmsis/include/core_cm0plus.h **** #ifndef CMSIS_VECTAB_VIRTUAL
 698:Generated_Source\PSoC6\pdl\cmsis/include/core_cm0plus.h ****   #define NVIC_SetVector              __NVIC_SetVector
 699:Generated_Source\PSoC6\pdl\cmsis/include/core_cm0plus.h ****   #define NVIC_GetVector              __NVIC_GetVector
 700:Generated_Source\PSoC6\pdl\cmsis/include/core_cm0plus.h **** #endif  /* (CMSIS_VECTAB_VIRTUAL) */
 701:Generated_Source\PSoC6\pdl\cmsis/include/core_cm0plus.h **** 
 702:Generated_Source\PSoC6\pdl\cmsis/include/core_cm0plus.h **** #define NVIC_USER_IRQ_OFFSET          16
 703:Generated_Source\PSoC6\pdl\cmsis/include/core_cm0plus.h **** 
 704:Generated_Source\PSoC6\pdl\cmsis/include/core_cm0plus.h **** 
 705:Generated_Source\PSoC6\pdl\cmsis/include/core_cm0plus.h **** /* Interrupt Priorities are WORD accessible only under ARMv6M                   */
 706:Generated_Source\PSoC6\pdl\cmsis/include/core_cm0plus.h **** /* The following MACROS handle generation of the register offset and byte masks */
 707:Generated_Source\PSoC6\pdl\cmsis/include/core_cm0plus.h **** #define _BIT_SHIFT(IRQn)         (  ((((uint32_t)(int32_t)(IRQn))         )      &  0x03UL) * 8UL)
 708:Generated_Source\PSoC6\pdl\cmsis/include/core_cm0plus.h **** #define _SHP_IDX(IRQn)           ( (((((uint32_t)(int32_t)(IRQn)) & 0x0FUL)-8UL) >>    2UL)      )
 709:Generated_Source\PSoC6\pdl\cmsis/include/core_cm0plus.h **** #define _IP_IDX(IRQn)            (   (((uint32_t)(int32_t)(IRQn))                >>    2UL)      )
 710:Generated_Source\PSoC6\pdl\cmsis/include/core_cm0plus.h **** 
 711:Generated_Source\PSoC6\pdl\cmsis/include/core_cm0plus.h **** 
 712:Generated_Source\PSoC6\pdl\cmsis/include/core_cm0plus.h **** /**
 713:Generated_Source\PSoC6\pdl\cmsis/include/core_cm0plus.h ****   \brief   Enable Interrupt
 714:Generated_Source\PSoC6\pdl\cmsis/include/core_cm0plus.h ****   \details Enables a device specific interrupt in the NVIC interrupt controller.
 715:Generated_Source\PSoC6\pdl\cmsis/include/core_cm0plus.h ****   \param [in]      IRQn  Device specific interrupt number.
 716:Generated_Source\PSoC6\pdl\cmsis/include/core_cm0plus.h ****   \note    IRQn must not be negative.
 717:Generated_Source\PSoC6\pdl\cmsis/include/core_cm0plus.h ****  */
 718:Generated_Source\PSoC6\pdl\cmsis/include/core_cm0plus.h **** __STATIC_INLINE void __NVIC_EnableIRQ(IRQn_Type IRQn)
 719:Generated_Source\PSoC6\pdl\cmsis/include/core_cm0plus.h **** {
 720:Generated_Source\PSoC6\pdl\cmsis/include/core_cm0plus.h ****   if ((int32_t)(IRQn) >= 0)
 721:Generated_Source\PSoC6\pdl\cmsis/include/core_cm0plus.h ****   {
 722:Generated_Source\PSoC6\pdl\cmsis/include/core_cm0plus.h ****     NVIC->ISER[0U] = (uint32_t)(1UL << (((uint32_t)(int32_t)IRQn) & 0x1FUL));
 723:Generated_Source\PSoC6\pdl\cmsis/include/core_cm0plus.h ****   }
 724:Generated_Source\PSoC6\pdl\cmsis/include/core_cm0plus.h **** }
 725:Generated_Source\PSoC6\pdl\cmsis/include/core_cm0plus.h **** 
 726:Generated_Source\PSoC6\pdl\cmsis/include/core_cm0plus.h **** 
 727:Generated_Source\PSoC6\pdl\cmsis/include/core_cm0plus.h **** /**
 728:Generated_Source\PSoC6\pdl\cmsis/include/core_cm0plus.h ****   \brief   Get Interrupt Enable status
 729:Generated_Source\PSoC6\pdl\cmsis/include/core_cm0plus.h ****   \details Returns a device specific interrupt enable status from the NVIC interrupt controller.
 730:Generated_Source\PSoC6\pdl\cmsis/include/core_cm0plus.h ****   \param [in]      IRQn  Device specific interrupt number.
 731:Generated_Source\PSoC6\pdl\cmsis/include/core_cm0plus.h ****   \return             0  Interrupt is not enabled.
 732:Generated_Source\PSoC6\pdl\cmsis/include/core_cm0plus.h ****   \return             1  Interrupt is enabled.
 733:Generated_Source\PSoC6\pdl\cmsis/include/core_cm0plus.h ****   \note    IRQn must not be negative.
 734:Generated_Source\PSoC6\pdl\cmsis/include/core_cm0plus.h ****  */
 735:Generated_Source\PSoC6\pdl\cmsis/include/core_cm0plus.h **** __STATIC_INLINE uint32_t __NVIC_GetEnableIRQ(IRQn_Type IRQn)
 736:Generated_Source\PSoC6\pdl\cmsis/include/core_cm0plus.h **** {
 737:Generated_Source\PSoC6\pdl\cmsis/include/core_cm0plus.h ****   if ((int32_t)(IRQn) >= 0)
 738:Generated_Source\PSoC6\pdl\cmsis/include/core_cm0plus.h ****   {
 739:Generated_Source\PSoC6\pdl\cmsis/include/core_cm0plus.h ****     return((uint32_t)(((NVIC->ISER[0U] & (1UL << (((uint32_t)(int32_t)IRQn) & 0x1FUL))) != 0UL) ? 1
 740:Generated_Source\PSoC6\pdl\cmsis/include/core_cm0plus.h ****   }
 741:Generated_Source\PSoC6\pdl\cmsis/include/core_cm0plus.h ****   else
 742:Generated_Source\PSoC6\pdl\cmsis/include/core_cm0plus.h ****   {
 743:Generated_Source\PSoC6\pdl\cmsis/include/core_cm0plus.h ****     return(0U);
 744:Generated_Source\PSoC6\pdl\cmsis/include/core_cm0plus.h ****   }
 745:Generated_Source\PSoC6\pdl\cmsis/include/core_cm0plus.h **** }
 746:Generated_Source\PSoC6\pdl\cmsis/include/core_cm0plus.h **** 
 747:Generated_Source\PSoC6\pdl\cmsis/include/core_cm0plus.h **** 
ARM GAS  C:\Users\gjl\AppData\Local\Temp\cclKMu0d.s 			page 27


 748:Generated_Source\PSoC6\pdl\cmsis/include/core_cm0plus.h **** /**
 749:Generated_Source\PSoC6\pdl\cmsis/include/core_cm0plus.h ****   \brief   Disable Interrupt
 750:Generated_Source\PSoC6\pdl\cmsis/include/core_cm0plus.h ****   \details Disables a device specific interrupt in the NVIC interrupt controller.
 751:Generated_Source\PSoC6\pdl\cmsis/include/core_cm0plus.h ****   \param [in]      IRQn  Device specific interrupt number.
 752:Generated_Source\PSoC6\pdl\cmsis/include/core_cm0plus.h ****   \note    IRQn must not be negative.
 753:Generated_Source\PSoC6\pdl\cmsis/include/core_cm0plus.h ****  */
 754:Generated_Source\PSoC6\pdl\cmsis/include/core_cm0plus.h **** __STATIC_INLINE void __NVIC_DisableIRQ(IRQn_Type IRQn)
 755:Generated_Source\PSoC6\pdl\cmsis/include/core_cm0plus.h **** {
 756:Generated_Source\PSoC6\pdl\cmsis/include/core_cm0plus.h ****   if ((int32_t)(IRQn) >= 0)
 757:Generated_Source\PSoC6\pdl\cmsis/include/core_cm0plus.h ****   {
 758:Generated_Source\PSoC6\pdl\cmsis/include/core_cm0plus.h ****     NVIC->ICER[0U] = (uint32_t)(1UL << (((uint32_t)(int32_t)IRQn) & 0x1FUL));
 759:Generated_Source\PSoC6\pdl\cmsis/include/core_cm0plus.h ****     __DSB();
 760:Generated_Source\PSoC6\pdl\cmsis/include/core_cm0plus.h ****     __ISB();
 761:Generated_Source\PSoC6\pdl\cmsis/include/core_cm0plus.h ****   }
 762:Generated_Source\PSoC6\pdl\cmsis/include/core_cm0plus.h **** }
 763:Generated_Source\PSoC6\pdl\cmsis/include/core_cm0plus.h **** 
 764:Generated_Source\PSoC6\pdl\cmsis/include/core_cm0plus.h **** 
 765:Generated_Source\PSoC6\pdl\cmsis/include/core_cm0plus.h **** /**
 766:Generated_Source\PSoC6\pdl\cmsis/include/core_cm0plus.h ****   \brief   Get Pending Interrupt
 767:Generated_Source\PSoC6\pdl\cmsis/include/core_cm0plus.h ****   \details Reads the NVIC pending register and returns the pending bit for the specified device spe
 768:Generated_Source\PSoC6\pdl\cmsis/include/core_cm0plus.h ****   \param [in]      IRQn  Device specific interrupt number.
 769:Generated_Source\PSoC6\pdl\cmsis/include/core_cm0plus.h ****   \return             0  Interrupt status is not pending.
 770:Generated_Source\PSoC6\pdl\cmsis/include/core_cm0plus.h ****   \return             1  Interrupt status is pending.
 771:Generated_Source\PSoC6\pdl\cmsis/include/core_cm0plus.h ****   \note    IRQn must not be negative.
 772:Generated_Source\PSoC6\pdl\cmsis/include/core_cm0plus.h ****  */
 773:Generated_Source\PSoC6\pdl\cmsis/include/core_cm0plus.h **** __STATIC_INLINE uint32_t __NVIC_GetPendingIRQ(IRQn_Type IRQn)
 774:Generated_Source\PSoC6\pdl\cmsis/include/core_cm0plus.h **** {
 775:Generated_Source\PSoC6\pdl\cmsis/include/core_cm0plus.h ****   if ((int32_t)(IRQn) >= 0)
 776:Generated_Source\PSoC6\pdl\cmsis/include/core_cm0plus.h ****   {
 777:Generated_Source\PSoC6\pdl\cmsis/include/core_cm0plus.h ****     return((uint32_t)(((NVIC->ISPR[0U] & (1UL << (((uint32_t)(int32_t)IRQn) & 0x1FUL))) != 0UL) ? 1
 778:Generated_Source\PSoC6\pdl\cmsis/include/core_cm0plus.h ****   }
 779:Generated_Source\PSoC6\pdl\cmsis/include/core_cm0plus.h ****   else
 780:Generated_Source\PSoC6\pdl\cmsis/include/core_cm0plus.h ****   {
 781:Generated_Source\PSoC6\pdl\cmsis/include/core_cm0plus.h ****     return(0U);
 782:Generated_Source\PSoC6\pdl\cmsis/include/core_cm0plus.h ****   }
 783:Generated_Source\PSoC6\pdl\cmsis/include/core_cm0plus.h **** }
 784:Generated_Source\PSoC6\pdl\cmsis/include/core_cm0plus.h **** 
 785:Generated_Source\PSoC6\pdl\cmsis/include/core_cm0plus.h **** 
 786:Generated_Source\PSoC6\pdl\cmsis/include/core_cm0plus.h **** /**
 787:Generated_Source\PSoC6\pdl\cmsis/include/core_cm0plus.h ****   \brief   Set Pending Interrupt
 788:Generated_Source\PSoC6\pdl\cmsis/include/core_cm0plus.h ****   \details Sets the pending bit of a device specific interrupt in the NVIC pending register.
 789:Generated_Source\PSoC6\pdl\cmsis/include/core_cm0plus.h ****   \param [in]      IRQn  Device specific interrupt number.
 790:Generated_Source\PSoC6\pdl\cmsis/include/core_cm0plus.h ****   \note    IRQn must not be negative.
 791:Generated_Source\PSoC6\pdl\cmsis/include/core_cm0plus.h ****  */
 792:Generated_Source\PSoC6\pdl\cmsis/include/core_cm0plus.h **** __STATIC_INLINE void __NVIC_SetPendingIRQ(IRQn_Type IRQn)
 793:Generated_Source\PSoC6\pdl\cmsis/include/core_cm0plus.h **** {
 794:Generated_Source\PSoC6\pdl\cmsis/include/core_cm0plus.h ****   if ((int32_t)(IRQn) >= 0)
 795:Generated_Source\PSoC6\pdl\cmsis/include/core_cm0plus.h ****   {
 796:Generated_Source\PSoC6\pdl\cmsis/include/core_cm0plus.h ****     NVIC->ISPR[0U] = (uint32_t)(1UL << (((uint32_t)(int32_t)IRQn) & 0x1FUL));
 797:Generated_Source\PSoC6\pdl\cmsis/include/core_cm0plus.h ****   }
 798:Generated_Source\PSoC6\pdl\cmsis/include/core_cm0plus.h **** }
 799:Generated_Source\PSoC6\pdl\cmsis/include/core_cm0plus.h **** 
 800:Generated_Source\PSoC6\pdl\cmsis/include/core_cm0plus.h **** 
 801:Generated_Source\PSoC6\pdl\cmsis/include/core_cm0plus.h **** /**
 802:Generated_Source\PSoC6\pdl\cmsis/include/core_cm0plus.h ****   \brief   Clear Pending Interrupt
 803:Generated_Source\PSoC6\pdl\cmsis/include/core_cm0plus.h ****   \details Clears the pending bit of a device specific interrupt in the NVIC pending register.
 804:Generated_Source\PSoC6\pdl\cmsis/include/core_cm0plus.h ****   \param [in]      IRQn  Device specific interrupt number.
ARM GAS  C:\Users\gjl\AppData\Local\Temp\cclKMu0d.s 			page 28


 805:Generated_Source\PSoC6\pdl\cmsis/include/core_cm0plus.h ****   \note    IRQn must not be negative.
 806:Generated_Source\PSoC6\pdl\cmsis/include/core_cm0plus.h ****  */
 807:Generated_Source\PSoC6\pdl\cmsis/include/core_cm0plus.h **** __STATIC_INLINE void __NVIC_ClearPendingIRQ(IRQn_Type IRQn)
 808:Generated_Source\PSoC6\pdl\cmsis/include/core_cm0plus.h **** {
 809:Generated_Source\PSoC6\pdl\cmsis/include/core_cm0plus.h ****   if ((int32_t)(IRQn) >= 0)
 810:Generated_Source\PSoC6\pdl\cmsis/include/core_cm0plus.h ****   {
 811:Generated_Source\PSoC6\pdl\cmsis/include/core_cm0plus.h ****     NVIC->ICPR[0U] = (uint32_t)(1UL << (((uint32_t)(int32_t)IRQn) & 0x1FUL));
 812:Generated_Source\PSoC6\pdl\cmsis/include/core_cm0plus.h ****   }
 813:Generated_Source\PSoC6\pdl\cmsis/include/core_cm0plus.h **** }
 814:Generated_Source\PSoC6\pdl\cmsis/include/core_cm0plus.h **** 
 815:Generated_Source\PSoC6\pdl\cmsis/include/core_cm0plus.h **** 
 816:Generated_Source\PSoC6\pdl\cmsis/include/core_cm0plus.h **** /**
 817:Generated_Source\PSoC6\pdl\cmsis/include/core_cm0plus.h ****   \brief   Set Interrupt Priority
 818:Generated_Source\PSoC6\pdl\cmsis/include/core_cm0plus.h ****   \details Sets the priority of a device specific interrupt or a processor exception.
 819:Generated_Source\PSoC6\pdl\cmsis/include/core_cm0plus.h ****            The interrupt number can be positive to specify a device specific interrupt,
 820:Generated_Source\PSoC6\pdl\cmsis/include/core_cm0plus.h ****            or negative to specify a processor exception.
 821:Generated_Source\PSoC6\pdl\cmsis/include/core_cm0plus.h ****   \param [in]      IRQn  Interrupt number.
 822:Generated_Source\PSoC6\pdl\cmsis/include/core_cm0plus.h ****   \param [in]  priority  Priority to set.
 823:Generated_Source\PSoC6\pdl\cmsis/include/core_cm0plus.h ****   \note    The priority cannot be set for every processor exception.
 824:Generated_Source\PSoC6\pdl\cmsis/include/core_cm0plus.h ****  */
 825:Generated_Source\PSoC6\pdl\cmsis/include/core_cm0plus.h **** __STATIC_INLINE void __NVIC_SetPriority(IRQn_Type IRQn, uint32_t priority)
 826:Generated_Source\PSoC6\pdl\cmsis/include/core_cm0plus.h **** {
 827:Generated_Source\PSoC6\pdl\cmsis/include/core_cm0plus.h ****   if ((int32_t)(IRQn) >= 0)
 465              		.loc 2 827 0
 466 002c 002A     		cmp	r2, #0
 467 002e 12DB     		blt	.L38
 828:Generated_Source\PSoC6\pdl\cmsis/include/core_cm0plus.h ****   {
 829:Generated_Source\PSoC6\pdl\cmsis/include/core_cm0plus.h ****     NVIC->IP[_IP_IDX(IRQn)]  = ((uint32_t)(NVIC->IP[_IP_IDX(IRQn)]  & ~(0xFFUL << _BIT_SHIFT(IRQn))
 468              		.loc 2 829 0
 469 0030 9008     		lsrs	r0, r2, #2
 470 0032 224E     		ldr	r6, .L43+4
 471 0034 C030     		adds	r0, r0, #192
 472 0036 8000     		lsls	r0, r0, #2
 473 0038 8759     		ldr	r7, [r0, r6]
 474 003a 0321     		movs	r1, #3
 475 003c 0A40     		ands	r2, r1
 476              	.LVL72:
 477 003e D200     		lsls	r2, r2, #3
 478 0040 FF25     		movs	r5, #255
 479 0042 2900     		movs	r1, r5
 480 0044 9140     		lsls	r1, r1, r2
 481 0046 8F43     		bics	r7, r1
 830:Generated_Source\PSoC6\pdl\cmsis/include/core_cm0plus.h ****        (((priority << (8U - __NVIC_PRIO_BITS)) & (uint32_t)0xFFUL) << _BIT_SHIFT(IRQn)));
 482              		.loc 2 830 0
 483 0048 9901     		lsls	r1, r3, #6
 484 004a 2B00     		movs	r3, r5
 485              	.LVL73:
 486 004c 0B40     		ands	r3, r1
 487 004e 9340     		lsls	r3, r3, r2
 829:Generated_Source\PSoC6\pdl\cmsis/include/core_cm0plus.h ****        (((priority << (8U - __NVIC_PRIO_BITS)) & (uint32_t)0xFFUL) << _BIT_SHIFT(IRQn)));
 488              		.loc 2 829 0
 489 0050 3B43     		orrs	r3, r7
 490 0052 8351     		str	r3, [r0, r6]
 491              	.LVL74:
 492 0054 17E0     		b	.L39
 493              	.LVL75:
 494              	.L38:
ARM GAS  C:\Users\gjl\AppData\Local\Temp\cclKMu0d.s 			page 29


 831:Generated_Source\PSoC6\pdl\cmsis/include/core_cm0plus.h ****   }
 832:Generated_Source\PSoC6\pdl\cmsis/include/core_cm0plus.h ****   else
 833:Generated_Source\PSoC6\pdl\cmsis/include/core_cm0plus.h ****   {
 834:Generated_Source\PSoC6\pdl\cmsis/include/core_cm0plus.h ****     SCB->SHP[_SHP_IDX(IRQn)] = ((uint32_t)(SCB->SHP[_SHP_IDX(IRQn)] & ~(0xFFUL << _BIT_SHIFT(IRQn))
 495              		.loc 2 834 0
 496 0056 92B2     		uxth	r2, r2
 497 0058 0F21     		movs	r1, #15
 498 005a 1140     		ands	r1, r2
 499 005c 0839     		subs	r1, r1, #8
 500 005e 8908     		lsrs	r1, r1, #2
 501 0060 0631     		adds	r1, r1, #6
 502 0062 8900     		lsls	r1, r1, #2
 503 0064 1648     		ldr	r0, .L43+8
 504 0066 8446     		mov	ip, r0
 505 0068 6144     		add	r1, r1, ip
 506 006a 4E68     		ldr	r6, [r1, #4]
 507 006c 0320     		movs	r0, #3
 508 006e 0240     		ands	r2, r0
 509              	.LVL76:
 510 0070 D200     		lsls	r2, r2, #3
 511 0072 FF27     		movs	r7, #255
 512 0074 3800     		movs	r0, r7
 513 0076 9040     		lsls	r0, r0, r2
 514 0078 8643     		bics	r6, r0
 835:Generated_Source\PSoC6\pdl\cmsis/include/core_cm0plus.h ****        (((priority << (8U - __NVIC_PRIO_BITS)) & (uint32_t)0xFFUL) << _BIT_SHIFT(IRQn)));
 515              		.loc 2 835 0
 516 007a 9801     		lsls	r0, r3, #6
 517 007c 3B00     		movs	r3, r7
 518              	.LVL77:
 519 007e 0340     		ands	r3, r0
 520 0080 9340     		lsls	r3, r3, r2
 834:Generated_Source\PSoC6\pdl\cmsis/include/core_cm0plus.h ****        (((priority << (8U - __NVIC_PRIO_BITS)) & (uint32_t)0xFFUL) << _BIT_SHIFT(IRQn)));
 521              		.loc 2 834 0
 522 0082 3343     		orrs	r3, r6
 523 0084 4B60     		str	r3, [r1, #4]
 524              	.LVL78:
 525              	.L39:
 526              	.LBE5:
 527              	.LBE4:
  67:Generated_Source\PSoC6\pdl\drivers\peripheral\sysint/cy_sysint.c ****         {
 528              		.loc 1 67 0
 529 0086 0E4B     		ldr	r3, .L43+8
 530 0088 9A68     		ldr	r2, [r3, #8]
 531 008a 0E4B     		ldr	r3, .L43+12
 532 008c 9A42     		cmp	r2, r3
 533 008e 0FD1     		bne	.L42
  69:Generated_Source\PSoC6\pdl\drivers\peripheral\sysint/cy_sysint.c **** 
 534              		.loc 1 69 0
 535 0090 019B     		ldr	r3, [sp, #4]
 536 0092 002B     		cmp	r3, #0
 537 0094 03D1     		bne	.L40
  69:Generated_Source\PSoC6\pdl\drivers\peripheral\sysint/cy_sysint.c **** 
 538              		.loc 1 69 0 is_stmt 0 discriminator 1
 539 0096 4521     		movs	r1, #69
 540 0098 0748     		ldr	r0, .L43
 541 009a FFF7FEFF 		bl	Cy_SysLib_AssertFailed
 542              	.LVL79:
ARM GAS  C:\Users\gjl\AppData\Local\Temp\cclKMu0d.s 			page 30


 543              	.L40:
  71:Generated_Source\PSoC6\pdl\drivers\peripheral\sysint/cy_sysint.c ****         }
 544              		.loc 1 71 0 is_stmt 1
 545 009e 0023     		movs	r3, #0
 546 00a0 E05E     		ldrsh	r0, [r4, r3]
 547 00a2 0199     		ldr	r1, [sp, #4]
 548 00a4 FFF7FEFF 		bl	Cy_SysInt_SetVector
 549              	.LVL80:
  50:Generated_Source\PSoC6\pdl\drivers\peripheral\sysint/cy_sysint.c **** 
 550              		.loc 1 50 0
 551 00a8 0020     		movs	r0, #0
 552 00aa 02E0     		b	.L35
 553              	.LVL81:
 554              	.L41:
  76:Generated_Source\PSoC6\pdl\drivers\peripheral\sysint/cy_sysint.c ****     }
 555              		.loc 1 76 0
 556 00ac 0648     		ldr	r0, .L43+16
 557              	.LVL82:
 558 00ae 00E0     		b	.L35
 559              	.LVL83:
 560              	.L42:
  50:Generated_Source\PSoC6\pdl\drivers\peripheral\sysint/cy_sysint.c **** 
 561              		.loc 1 50 0
 562 00b0 0020     		movs	r0, #0
 563              	.L35:
 564              	.LVL84:
  80:Generated_Source\PSoC6\pdl\drivers\peripheral\sysint/cy_sysint.c **** 
 565              		.loc 1 80 0
 566 00b2 03B0     		add	sp, sp, #12
 567              		@ sp needed
 568              	.LVL85:
 569 00b4 F0BD     		pop	{r4, r5, r6, r7, pc}
 570              	.L44:
 571 00b6 C046     		.align	2
 572              	.L43:
 573 00b8 00000000 		.word	.LC3
 574 00bc 00E100E0 		.word	-536813312
 575 00c0 00ED00E0 		.word	-536810240
 576 00c4 00000000 		.word	__ramVectors
 577 00c8 01005600 		.word	5636097
 578              		.cfi_endproc
 579              	.LFE38:
 580              		.size	Cy_SysInt_Init, .-Cy_SysInt_Init
 581              		.section	.text.Cy_SysInt_GetVector,"ax",%progbits
 582              		.align	2
 583              		.global	Cy_SysInt_GetVector
 584              		.code	16
 585              		.thumb_func
 586              		.type	Cy_SysInt_GetVector, %function
 587              	Cy_SysInt_GetVector:
 588              	.LFB42:
 264:Generated_Source\PSoC6\pdl\drivers\peripheral\sysint/cy_sysint.c **** 
 265:Generated_Source\PSoC6\pdl\drivers\peripheral\sysint/cy_sysint.c **** 
 266:Generated_Source\PSoC6\pdl\drivers\peripheral\sysint/cy_sysint.c **** /*******************************************************************************
 267:Generated_Source\PSoC6\pdl\drivers\peripheral\sysint/cy_sysint.c **** * Function Name: Cy_SysInt_GetVector
 268:Generated_Source\PSoC6\pdl\drivers\peripheral\sysint/cy_sysint.c **** ****************************************************************************//**
 269:Generated_Source\PSoC6\pdl\drivers\peripheral\sysint/cy_sysint.c **** *
ARM GAS  C:\Users\gjl\AppData\Local\Temp\cclKMu0d.s 			page 31


 270:Generated_Source\PSoC6\pdl\drivers\peripheral\sysint/cy_sysint.c **** * \brief Gets the address of the current ISR vector for the Interrupt.
 271:Generated_Source\PSoC6\pdl\drivers\peripheral\sysint/cy_sysint.c **** *
 272:Generated_Source\PSoC6\pdl\drivers\peripheral\sysint/cy_sysint.c **** * Note that for CM0+, this function returns the interrupt vector for the 
 273:Generated_Source\PSoC6\pdl\drivers\peripheral\sysint/cy_sysint.c **** * interrupt mux output feeding into the NVIC.
 274:Generated_Source\PSoC6\pdl\drivers\peripheral\sysint/cy_sysint.c **** *
 275:Generated_Source\PSoC6\pdl\drivers\peripheral\sysint/cy_sysint.c **** * Note that this function relies on the assumption that the vector table is
 276:Generated_Source\PSoC6\pdl\drivers\peripheral\sysint/cy_sysint.c **** * relocated to __ramVectors[RAM_VECTORS_SIZE] in SRAM.
 277:Generated_Source\PSoC6\pdl\drivers\peripheral\sysint/cy_sysint.c **** *
 278:Generated_Source\PSoC6\pdl\drivers\peripheral\sysint/cy_sysint.c **** * \param intrSrc
 279:Generated_Source\PSoC6\pdl\drivers\peripheral\sysint/cy_sysint.c **** * Interrupt source
 280:Generated_Source\PSoC6\pdl\drivers\peripheral\sysint/cy_sysint.c **** *
 281:Generated_Source\PSoC6\pdl\drivers\peripheral\sysint/cy_sysint.c **** * \return
 282:Generated_Source\PSoC6\pdl\drivers\peripheral\sysint/cy_sysint.c **** * Address of the ISR in the interrupt vector table
 283:Generated_Source\PSoC6\pdl\drivers\peripheral\sysint/cy_sysint.c **** *
 284:Generated_Source\PSoC6\pdl\drivers\peripheral\sysint/cy_sysint.c **** * \funcusage
 285:Generated_Source\PSoC6\pdl\drivers\peripheral\sysint/cy_sysint.c **** * \snippet sysint/sysint_v1_10_sut_01.cydsn/main_cm4.c snippet_Cy_SysInt_SetVector
 286:Generated_Source\PSoC6\pdl\drivers\peripheral\sysint/cy_sysint.c **** *
 287:Generated_Source\PSoC6\pdl\drivers\peripheral\sysint/cy_sysint.c **** *******************************************************************************/
 288:Generated_Source\PSoC6\pdl\drivers\peripheral\sysint/cy_sysint.c **** cy_israddress Cy_SysInt_GetVector(IRQn_Type intrSrc)
 289:Generated_Source\PSoC6\pdl\drivers\peripheral\sysint/cy_sysint.c **** {
 589              		.loc 1 289 0
 590              		.cfi_startproc
 591              		@ args = 0, pretend = 0, frame = 0
 592              		@ frame_needed = 0, uses_anonymous_args = 0
 593              		@ link register save eliminated.
 594              	.LVL86:
 290:Generated_Source\PSoC6\pdl\drivers\peripheral\sysint/cy_sysint.c ****     cy_israddress currIsr;
 291:Generated_Source\PSoC6\pdl\drivers\peripheral\sysint/cy_sysint.c ****     
 292:Generated_Source\PSoC6\pdl\drivers\peripheral\sysint/cy_sysint.c ****     /* Only return the SRAM ISR address if it was moved to __ramVectors */
 293:Generated_Source\PSoC6\pdl\drivers\peripheral\sysint/cy_sysint.c ****     if (SCB->VTOR == (uint32_t)&__ramVectors)
 595              		.loc 1 293 0
 596 0000 064B     		ldr	r3, .L48
 597 0002 9A68     		ldr	r2, [r3, #8]
 598 0004 064B     		ldr	r3, .L48+4
 599 0006 9A42     		cmp	r2, r3
 600 0008 03D1     		bne	.L46
 294:Generated_Source\PSoC6\pdl\drivers\peripheral\sysint/cy_sysint.c ****     {
 295:Generated_Source\PSoC6\pdl\drivers\peripheral\sysint/cy_sysint.c ****         currIsr = __ramVectors[CY_INT_IRQ_BASE + intrSrc];
 601              		.loc 1 295 0
 602 000a 1030     		adds	r0, r0, #16
 603              	.LVL87:
 604 000c 8000     		lsls	r0, r0, #2
 605 000e C058     		ldr	r0, [r0, r3]
 606              	.LVL88:
 607 0010 03E0     		b	.L47
 608              	.LVL89:
 609              	.L46:
 296:Generated_Source\PSoC6\pdl\drivers\peripheral\sysint/cy_sysint.c ****     }
 297:Generated_Source\PSoC6\pdl\drivers\peripheral\sysint/cy_sysint.c ****     else
 298:Generated_Source\PSoC6\pdl\drivers\peripheral\sysint/cy_sysint.c ****     {
 299:Generated_Source\PSoC6\pdl\drivers\peripheral\sysint/cy_sysint.c ****         currIsr = __Vectors[CY_INT_IRQ_BASE + intrSrc];
 610              		.loc 1 299 0
 611 0012 1030     		adds	r0, r0, #16
 612              	.LVL90:
 613 0014 8000     		lsls	r0, r0, #2
 614 0016 034B     		ldr	r3, .L48+8
 615 0018 C058     		ldr	r0, [r0, r3]
ARM GAS  C:\Users\gjl\AppData\Local\Temp\cclKMu0d.s 			page 32


 616              	.LVL91:
 617              	.L47:
 300:Generated_Source\PSoC6\pdl\drivers\peripheral\sysint/cy_sysint.c ****     }
 301:Generated_Source\PSoC6\pdl\drivers\peripheral\sysint/cy_sysint.c ****     
 302:Generated_Source\PSoC6\pdl\drivers\peripheral\sysint/cy_sysint.c ****     return currIsr;
 303:Generated_Source\PSoC6\pdl\drivers\peripheral\sysint/cy_sysint.c **** }
 618              		.loc 1 303 0
 619              		@ sp needed
 620 001a 7047     		bx	lr
 621              	.L49:
 622              		.align	2
 623              	.L48:
 624 001c 00ED00E0 		.word	-536810240
 625 0020 00000000 		.word	__ramVectors
 626 0024 00000000 		.word	__Vectors
 627              		.cfi_endproc
 628              	.LFE42:
 629              		.size	Cy_SysInt_GetVector, .-Cy_SysInt_GetVector
 630              		.section	.rodata.str1.4,"aMS",%progbits,1
 631              		.align	2
 632              	.LC3:
 633 0000 47656E65 		.ascii	"Generated_Source\\PSoC6\\pdl\\drivers\\peripheral\\"
 633      72617465 
 633      645F536F 
 633      75726365 
 633      5C50536F 
 634 002e 73797369 		.ascii	"sysint\\cy_sysint.c\000"
 634      6E745C63 
 634      795F7379 
 634      73696E74 
 634      2E6300
 635              		.text
 636              	.Letext0:
 637              		.file 3 "c:\\program files (x86)\\cypress\\psoc creator\\4.2\\psoc creator\\import\\gnu\\arm\\5.4.
 638              		.file 4 "c:\\program files (x86)\\cypress\\psoc creator\\4.2\\psoc creator\\import\\gnu\\arm\\5.4.
 639              		.file 5 "Generated_Source\\PSoC6\\pdl\\devices/psoc6/psoc63/include/cy8c6347bzi_bld53.h"
 640              		.file 6 "Generated_Source\\PSoC6\\pdl\\devices/psoc6/ip/cyip_cpuss.h"
 641              		.file 7 "Generated_Source\\PSoC6\\pdl\\drivers/peripheral/syslib/cy_syslib.h"
 642              		.file 8 "Generated_Source\\PSoC6\\pdl\\drivers\\peripheral\\sysint\\cy_sysint.h"