ARM GAS  C:\Users\gjl\AppData\Local\Temp\ccMETlfj.s 			page 1


   1              		.syntax unified
   2              		.cpu cortex-m4
   3              		.eabi_attribute 27, 1
   4              		.fpu fpv4-sp-d16
   5              		.eabi_attribute 20, 1
   6              		.eabi_attribute 21, 1
   7              		.eabi_attribute 23, 3
   8              		.eabi_attribute 24, 1
   9              		.eabi_attribute 25, 1
  10              		.eabi_attribute 26, 1
  11              		.eabi_attribute 30, 1
  12              		.eabi_attribute 34, 1
  13              		.eabi_attribute 18, 4
  14              		.thumb
  15              		.syntax unified
  16              		.file	"cy_sysint.c"
  17              		.text
  18              	.Ltext0:
  19              		.cfi_sections	.debug_frame
  20              		.section	.text.Cy_SysInt_SetVector,"ax",%progbits
  21              		.align	2
  22              		.global	Cy_SysInt_SetVector
  23              		.thumb
  24              		.thumb_func
  25              		.type	Cy_SysInt_SetVector, %function
  26              	Cy_SysInt_SetVector:
  27              	.LFB129:
  28              		.file 1 "Generated_Source\\PSoC6\\pdl\\drivers\\peripheral\\sysint\\cy_sysint.c"
   1:Generated_Source\PSoC6\pdl\drivers\peripheral\sysint/cy_sysint.c **** /***************************************************************************//**
   2:Generated_Source\PSoC6\pdl\drivers\peripheral\sysint/cy_sysint.c **** * \file  cy_sysint.c
   3:Generated_Source\PSoC6\pdl\drivers\peripheral\sysint/cy_sysint.c **** * \version 1.10
   4:Generated_Source\PSoC6\pdl\drivers\peripheral\sysint/cy_sysint.c **** *
   5:Generated_Source\PSoC6\pdl\drivers\peripheral\sysint/cy_sysint.c **** * \brief
   6:Generated_Source\PSoC6\pdl\drivers\peripheral\sysint/cy_sysint.c **** * Provides an API implementation of the SysInt driver.
   7:Generated_Source\PSoC6\pdl\drivers\peripheral\sysint/cy_sysint.c **** *
   8:Generated_Source\PSoC6\pdl\drivers\peripheral\sysint/cy_sysint.c **** ********************************************************************************
   9:Generated_Source\PSoC6\pdl\drivers\peripheral\sysint/cy_sysint.c **** * \copyright
  10:Generated_Source\PSoC6\pdl\drivers\peripheral\sysint/cy_sysint.c **** * Copyright 2016-2018, Cypress Semiconductor Corporation. All rights reserved.
  11:Generated_Source\PSoC6\pdl\drivers\peripheral\sysint/cy_sysint.c **** * You may use this file only in accordance with the license, terms, conditions,
  12:Generated_Source\PSoC6\pdl\drivers\peripheral\sysint/cy_sysint.c **** * disclaimers, and limitations in the end user license agreement accompanying
  13:Generated_Source\PSoC6\pdl\drivers\peripheral\sysint/cy_sysint.c **** * the software package with which this file was provided.
  14:Generated_Source\PSoC6\pdl\drivers\peripheral\sysint/cy_sysint.c **** *******************************************************************************/
  15:Generated_Source\PSoC6\pdl\drivers\peripheral\sysint/cy_sysint.c **** 
  16:Generated_Source\PSoC6\pdl\drivers\peripheral\sysint/cy_sysint.c **** #include "cy_sysint.h"
  17:Generated_Source\PSoC6\pdl\drivers\peripheral\sysint/cy_sysint.c **** 
  18:Generated_Source\PSoC6\pdl\drivers\peripheral\sysint/cy_sysint.c **** #if defined(__cplusplus)
  19:Generated_Source\PSoC6\pdl\drivers\peripheral\sysint/cy_sysint.c **** extern "C" {
  20:Generated_Source\PSoC6\pdl\drivers\peripheral\sysint/cy_sysint.c **** #endif
  21:Generated_Source\PSoC6\pdl\drivers\peripheral\sysint/cy_sysint.c **** 
  22:Generated_Source\PSoC6\pdl\drivers\peripheral\sysint/cy_sysint.c **** 
  23:Generated_Source\PSoC6\pdl\drivers\peripheral\sysint/cy_sysint.c **** /*******************************************************************************
  24:Generated_Source\PSoC6\pdl\drivers\peripheral\sysint/cy_sysint.c **** * Function Name: Cy_SysInt_Init
  25:Generated_Source\PSoC6\pdl\drivers\peripheral\sysint/cy_sysint.c **** ****************************************************************************//**
  26:Generated_Source\PSoC6\pdl\drivers\peripheral\sysint/cy_sysint.c **** *
  27:Generated_Source\PSoC6\pdl\drivers\peripheral\sysint/cy_sysint.c **** * \brief Initializes the referenced interrupt by setting the priority and the
  28:Generated_Source\PSoC6\pdl\drivers\peripheral\sysint/cy_sysint.c **** * interrupt vector. 
  29:Generated_Source\PSoC6\pdl\drivers\peripheral\sysint/cy_sysint.c **** *
ARM GAS  C:\Users\gjl\AppData\Local\Temp\ccMETlfj.s 			page 2


  30:Generated_Source\PSoC6\pdl\drivers\peripheral\sysint/cy_sysint.c **** * Note that the interrupt vector will only be relocated if the vector table was
  31:Generated_Source\PSoC6\pdl\drivers\peripheral\sysint/cy_sysint.c **** * moved to __ramVectors in SRAM. Otherwise it is ignored.
  32:Generated_Source\PSoC6\pdl\drivers\peripheral\sysint/cy_sysint.c **** *
  33:Generated_Source\PSoC6\pdl\drivers\peripheral\sysint/cy_sysint.c **** * Use the CMSIS core function NVIC_EnableIRQ(config.intrSrc) to enable the interrupt.
  34:Generated_Source\PSoC6\pdl\drivers\peripheral\sysint/cy_sysint.c **** *
  35:Generated_Source\PSoC6\pdl\drivers\peripheral\sysint/cy_sysint.c **** * \param config
  36:Generated_Source\PSoC6\pdl\drivers\peripheral\sysint/cy_sysint.c **** * Interrupt configuration structure
  37:Generated_Source\PSoC6\pdl\drivers\peripheral\sysint/cy_sysint.c **** *
  38:Generated_Source\PSoC6\pdl\drivers\peripheral\sysint/cy_sysint.c **** * \param userIsr
  39:Generated_Source\PSoC6\pdl\drivers\peripheral\sysint/cy_sysint.c **** * Address of the ISR
  40:Generated_Source\PSoC6\pdl\drivers\peripheral\sysint/cy_sysint.c **** *
  41:Generated_Source\PSoC6\pdl\drivers\peripheral\sysint/cy_sysint.c **** * \return 
  42:Generated_Source\PSoC6\pdl\drivers\peripheral\sysint/cy_sysint.c **** * Initialization status  
  43:Generated_Source\PSoC6\pdl\drivers\peripheral\sysint/cy_sysint.c **** *
  44:Generated_Source\PSoC6\pdl\drivers\peripheral\sysint/cy_sysint.c **** * \funcusage
  45:Generated_Source\PSoC6\pdl\drivers\peripheral\sysint/cy_sysint.c **** * \snippet sysint/sysint_v1_10_sut_01.cydsn/main_cm4.c snippet_Cy_SysInt_Init
  46:Generated_Source\PSoC6\pdl\drivers\peripheral\sysint/cy_sysint.c **** *
  47:Generated_Source\PSoC6\pdl\drivers\peripheral\sysint/cy_sysint.c **** *******************************************************************************/
  48:Generated_Source\PSoC6\pdl\drivers\peripheral\sysint/cy_sysint.c **** cy_en_sysint_status_t Cy_SysInt_Init(const cy_stc_sysint_t* config, cy_israddress userIsr)
  49:Generated_Source\PSoC6\pdl\drivers\peripheral\sysint/cy_sysint.c **** {
  50:Generated_Source\PSoC6\pdl\drivers\peripheral\sysint/cy_sysint.c ****     cy_en_sysint_status_t status = CY_SYSINT_SUCCESS;
  51:Generated_Source\PSoC6\pdl\drivers\peripheral\sysint/cy_sysint.c **** 
  52:Generated_Source\PSoC6\pdl\drivers\peripheral\sysint/cy_sysint.c ****     if(NULL != config)
  53:Generated_Source\PSoC6\pdl\drivers\peripheral\sysint/cy_sysint.c ****     {
  54:Generated_Source\PSoC6\pdl\drivers\peripheral\sysint/cy_sysint.c ****         CY_ASSERT_L3(CY_SYSINT_IS_PRIORITY_VALID(config->intrPriority));
  55:Generated_Source\PSoC6\pdl\drivers\peripheral\sysint/cy_sysint.c ****         
  56:Generated_Source\PSoC6\pdl\drivers\peripheral\sysint/cy_sysint.c ****         #if (CY_CPU_CORTEX_M0P)
  57:Generated_Source\PSoC6\pdl\drivers\peripheral\sysint/cy_sysint.c ****             if (config->intrSrc > SysTick_IRQn)
  58:Generated_Source\PSoC6\pdl\drivers\peripheral\sysint/cy_sysint.c ****             {
  59:Generated_Source\PSoC6\pdl\drivers\peripheral\sysint/cy_sysint.c ****                 /* Configure the interrupt mux */
  60:Generated_Source\PSoC6\pdl\drivers\peripheral\sysint/cy_sysint.c ****                 Cy_SysInt_SetIntSource(config->intrSrc, config->cm0pSrc);
  61:Generated_Source\PSoC6\pdl\drivers\peripheral\sysint/cy_sysint.c ****             }
  62:Generated_Source\PSoC6\pdl\drivers\peripheral\sysint/cy_sysint.c ****         #endif
  63:Generated_Source\PSoC6\pdl\drivers\peripheral\sysint/cy_sysint.c ****         
  64:Generated_Source\PSoC6\pdl\drivers\peripheral\sysint/cy_sysint.c ****         NVIC_SetPriority(config->intrSrc, config->intrPriority);
  65:Generated_Source\PSoC6\pdl\drivers\peripheral\sysint/cy_sysint.c ****         
  66:Generated_Source\PSoC6\pdl\drivers\peripheral\sysint/cy_sysint.c ****         /* Only set the new vector if it was moved to __ramVectors */
  67:Generated_Source\PSoC6\pdl\drivers\peripheral\sysint/cy_sysint.c ****         if (SCB->VTOR == (uint32_t)&__ramVectors)
  68:Generated_Source\PSoC6\pdl\drivers\peripheral\sysint/cy_sysint.c ****         {
  69:Generated_Source\PSoC6\pdl\drivers\peripheral\sysint/cy_sysint.c ****             CY_ASSERT_L1(CY_SYSINT_IS_VECTOR_VALID(userIsr));
  70:Generated_Source\PSoC6\pdl\drivers\peripheral\sysint/cy_sysint.c **** 
  71:Generated_Source\PSoC6\pdl\drivers\peripheral\sysint/cy_sysint.c ****             (void)Cy_SysInt_SetVector(config->intrSrc, userIsr);
  72:Generated_Source\PSoC6\pdl\drivers\peripheral\sysint/cy_sysint.c ****         }
  73:Generated_Source\PSoC6\pdl\drivers\peripheral\sysint/cy_sysint.c ****     }
  74:Generated_Source\PSoC6\pdl\drivers\peripheral\sysint/cy_sysint.c ****     else
  75:Generated_Source\PSoC6\pdl\drivers\peripheral\sysint/cy_sysint.c ****     {
  76:Generated_Source\PSoC6\pdl\drivers\peripheral\sysint/cy_sysint.c ****         status = CY_SYSINT_BAD_PARAM;
  77:Generated_Source\PSoC6\pdl\drivers\peripheral\sysint/cy_sysint.c ****     }
  78:Generated_Source\PSoC6\pdl\drivers\peripheral\sysint/cy_sysint.c ****     
  79:Generated_Source\PSoC6\pdl\drivers\peripheral\sysint/cy_sysint.c ****     return(status);
  80:Generated_Source\PSoC6\pdl\drivers\peripheral\sysint/cy_sysint.c **** }
  81:Generated_Source\PSoC6\pdl\drivers\peripheral\sysint/cy_sysint.c **** 
  82:Generated_Source\PSoC6\pdl\drivers\peripheral\sysint/cy_sysint.c **** 
  83:Generated_Source\PSoC6\pdl\drivers\peripheral\sysint/cy_sysint.c **** #if (CY_CPU_CORTEX_M0P) || defined (CY_DOXYGEN)
  84:Generated_Source\PSoC6\pdl\drivers\peripheral\sysint/cy_sysint.c **** 
  85:Generated_Source\PSoC6\pdl\drivers\peripheral\sysint/cy_sysint.c **** /*******************************************************************************
  86:Generated_Source\PSoC6\pdl\drivers\peripheral\sysint/cy_sysint.c **** * Function Name: Cy_SysInt_SetIntSource
ARM GAS  C:\Users\gjl\AppData\Local\Temp\ccMETlfj.s 			page 3


  87:Generated_Source\PSoC6\pdl\drivers\peripheral\sysint/cy_sysint.c **** ****************************************************************************//**
  88:Generated_Source\PSoC6\pdl\drivers\peripheral\sysint/cy_sysint.c **** *
  89:Generated_Source\PSoC6\pdl\drivers\peripheral\sysint/cy_sysint.c **** * \brief Configures the interrupt mux for the specified CM0+ NVIC channel.
  90:Generated_Source\PSoC6\pdl\drivers\peripheral\sysint/cy_sysint.c **** *
  91:Generated_Source\PSoC6\pdl\drivers\peripheral\sysint/cy_sysint.c **** * Setting this value to "disconnected_IRQn" (240) disconnects the interrupt 
  92:Generated_Source\PSoC6\pdl\drivers\peripheral\sysint/cy_sysint.c **** * source and will effectively deactivate the interrupt.
  93:Generated_Source\PSoC6\pdl\drivers\peripheral\sysint/cy_sysint.c **** *
  94:Generated_Source\PSoC6\pdl\drivers\peripheral\sysint/cy_sysint.c **** * \param intrSrc
  95:Generated_Source\PSoC6\pdl\drivers\peripheral\sysint/cy_sysint.c **** * NVIC mux number connected to the NVIC channel of the CM0+ core
  96:Generated_Source\PSoC6\pdl\drivers\peripheral\sysint/cy_sysint.c **** *
  97:Generated_Source\PSoC6\pdl\drivers\peripheral\sysint/cy_sysint.c **** * \param cm0pSrc
  98:Generated_Source\PSoC6\pdl\drivers\peripheral\sysint/cy_sysint.c **** * Device interrupt to be routed to the NVIC mux
  99:Generated_Source\PSoC6\pdl\drivers\peripheral\sysint/cy_sysint.c **** *
 100:Generated_Source\PSoC6\pdl\drivers\peripheral\sysint/cy_sysint.c **** * \funcusage
 101:Generated_Source\PSoC6\pdl\drivers\peripheral\sysint/cy_sysint.c **** * \snippet sysint/sysint_v1_10_sut_01.cydsn/main_cm4.c snippet_Cy_SysInt_SetIntSource
 102:Generated_Source\PSoC6\pdl\drivers\peripheral\sysint/cy_sysint.c **** *
 103:Generated_Source\PSoC6\pdl\drivers\peripheral\sysint/cy_sysint.c **** *******************************************************************************/
 104:Generated_Source\PSoC6\pdl\drivers\peripheral\sysint/cy_sysint.c **** void Cy_SysInt_SetIntSource(IRQn_Type intrSrc, cy_en_intr_t cm0pSrc)
 105:Generated_Source\PSoC6\pdl\drivers\peripheral\sysint/cy_sysint.c **** {
 106:Generated_Source\PSoC6\pdl\drivers\peripheral\sysint/cy_sysint.c ****     /* Calculation of variables and masks */
 107:Generated_Source\PSoC6\pdl\drivers\peripheral\sysint/cy_sysint.c ****     uint32_t regPos     = (uint32_t)intrSrc >> CY_SYSINT_CM0P_MUX_SHIFT;
 108:Generated_Source\PSoC6\pdl\drivers\peripheral\sysint/cy_sysint.c ****     uint32_t bitPos     = ((uint32_t)intrSrc - (uint32_t)(regPos << CY_SYSINT_CM0P_MUX_SHIFT)) << C
 109:Generated_Source\PSoC6\pdl\drivers\peripheral\sysint/cy_sysint.c ****     uint32_t bitMask    = (uint32_t)(CY_SYSINT_CM0P_MUX_MASK << bitPos);
 110:Generated_Source\PSoC6\pdl\drivers\peripheral\sysint/cy_sysint.c ****     uint32_t bitMaskClr = (uint32_t)(~bitMask);
 111:Generated_Source\PSoC6\pdl\drivers\peripheral\sysint/cy_sysint.c ****     uint32_t bitMaskSet = (((uint32_t)cm0pSrc << bitPos) & bitMask);
 112:Generated_Source\PSoC6\pdl\drivers\peripheral\sysint/cy_sysint.c **** 
 113:Generated_Source\PSoC6\pdl\drivers\peripheral\sysint/cy_sysint.c ****     uint32_t tempReg;
 114:Generated_Source\PSoC6\pdl\drivers\peripheral\sysint/cy_sysint.c **** 
 115:Generated_Source\PSoC6\pdl\drivers\peripheral\sysint/cy_sysint.c ****     switch(regPos)
 116:Generated_Source\PSoC6\pdl\drivers\peripheral\sysint/cy_sysint.c ****     {
 117:Generated_Source\PSoC6\pdl\drivers\peripheral\sysint/cy_sysint.c ****         case CY_SYSINT_CM0P_MUX0:
 118:Generated_Source\PSoC6\pdl\drivers\peripheral\sysint/cy_sysint.c ****             tempReg = CPUSS->CM0_INT_CTL0 & bitMaskClr;
 119:Generated_Source\PSoC6\pdl\drivers\peripheral\sysint/cy_sysint.c ****             CPUSS->CM0_INT_CTL0 = tempReg | bitMaskSet;
 120:Generated_Source\PSoC6\pdl\drivers\peripheral\sysint/cy_sysint.c ****         break;
 121:Generated_Source\PSoC6\pdl\drivers\peripheral\sysint/cy_sysint.c ****         case CY_SYSINT_CM0P_MUX1:
 122:Generated_Source\PSoC6\pdl\drivers\peripheral\sysint/cy_sysint.c ****             tempReg = CPUSS->CM0_INT_CTL1 & bitMaskClr;
 123:Generated_Source\PSoC6\pdl\drivers\peripheral\sysint/cy_sysint.c ****             CPUSS->CM0_INT_CTL1 = tempReg | bitMaskSet;
 124:Generated_Source\PSoC6\pdl\drivers\peripheral\sysint/cy_sysint.c ****         break;
 125:Generated_Source\PSoC6\pdl\drivers\peripheral\sysint/cy_sysint.c ****         case CY_SYSINT_CM0P_MUX2:
 126:Generated_Source\PSoC6\pdl\drivers\peripheral\sysint/cy_sysint.c ****             tempReg = CPUSS->CM0_INT_CTL2 & bitMaskClr;
 127:Generated_Source\PSoC6\pdl\drivers\peripheral\sysint/cy_sysint.c ****             CPUSS->CM0_INT_CTL2 = tempReg | bitMaskSet;
 128:Generated_Source\PSoC6\pdl\drivers\peripheral\sysint/cy_sysint.c ****         break;
 129:Generated_Source\PSoC6\pdl\drivers\peripheral\sysint/cy_sysint.c ****         case CY_SYSINT_CM0P_MUX3:
 130:Generated_Source\PSoC6\pdl\drivers\peripheral\sysint/cy_sysint.c ****             tempReg = CPUSS->CM0_INT_CTL3 & bitMaskClr;
 131:Generated_Source\PSoC6\pdl\drivers\peripheral\sysint/cy_sysint.c ****             CPUSS->CM0_INT_CTL3 = tempReg | bitMaskSet;
 132:Generated_Source\PSoC6\pdl\drivers\peripheral\sysint/cy_sysint.c ****         break;
 133:Generated_Source\PSoC6\pdl\drivers\peripheral\sysint/cy_sysint.c ****         case CY_SYSINT_CM0P_MUX4:
 134:Generated_Source\PSoC6\pdl\drivers\peripheral\sysint/cy_sysint.c ****             tempReg = CPUSS->CM0_INT_CTL4 & bitMaskClr;
 135:Generated_Source\PSoC6\pdl\drivers\peripheral\sysint/cy_sysint.c ****             CPUSS->CM0_INT_CTL4 = tempReg | bitMaskSet;
 136:Generated_Source\PSoC6\pdl\drivers\peripheral\sysint/cy_sysint.c ****         break;
 137:Generated_Source\PSoC6\pdl\drivers\peripheral\sysint/cy_sysint.c ****         case CY_SYSINT_CM0P_MUX5:
 138:Generated_Source\PSoC6\pdl\drivers\peripheral\sysint/cy_sysint.c ****             tempReg = CPUSS->CM0_INT_CTL5 & bitMaskClr;
 139:Generated_Source\PSoC6\pdl\drivers\peripheral\sysint/cy_sysint.c ****             CPUSS->CM0_INT_CTL5 = tempReg | bitMaskSet;
 140:Generated_Source\PSoC6\pdl\drivers\peripheral\sysint/cy_sysint.c ****         break;
 141:Generated_Source\PSoC6\pdl\drivers\peripheral\sysint/cy_sysint.c ****         case CY_SYSINT_CM0P_MUX6:
 142:Generated_Source\PSoC6\pdl\drivers\peripheral\sysint/cy_sysint.c ****             tempReg = CPUSS->CM0_INT_CTL6 & bitMaskClr;
 143:Generated_Source\PSoC6\pdl\drivers\peripheral\sysint/cy_sysint.c ****             CPUSS->CM0_INT_CTL6 = tempReg | bitMaskSet;
ARM GAS  C:\Users\gjl\AppData\Local\Temp\ccMETlfj.s 			page 4


 144:Generated_Source\PSoC6\pdl\drivers\peripheral\sysint/cy_sysint.c ****         break;
 145:Generated_Source\PSoC6\pdl\drivers\peripheral\sysint/cy_sysint.c ****         case CY_SYSINT_CM0P_MUX7:
 146:Generated_Source\PSoC6\pdl\drivers\peripheral\sysint/cy_sysint.c ****             tempReg = CPUSS->CM0_INT_CTL7 & bitMaskClr;
 147:Generated_Source\PSoC6\pdl\drivers\peripheral\sysint/cy_sysint.c ****             CPUSS->CM0_INT_CTL7 = tempReg | bitMaskSet;
 148:Generated_Source\PSoC6\pdl\drivers\peripheral\sysint/cy_sysint.c ****         break;
 149:Generated_Source\PSoC6\pdl\drivers\peripheral\sysint/cy_sysint.c ****         default:
 150:Generated_Source\PSoC6\pdl\drivers\peripheral\sysint/cy_sysint.c ****         break;
 151:Generated_Source\PSoC6\pdl\drivers\peripheral\sysint/cy_sysint.c ****     }
 152:Generated_Source\PSoC6\pdl\drivers\peripheral\sysint/cy_sysint.c **** }
 153:Generated_Source\PSoC6\pdl\drivers\peripheral\sysint/cy_sysint.c **** 
 154:Generated_Source\PSoC6\pdl\drivers\peripheral\sysint/cy_sysint.c **** 
 155:Generated_Source\PSoC6\pdl\drivers\peripheral\sysint/cy_sysint.c **** /*******************************************************************************
 156:Generated_Source\PSoC6\pdl\drivers\peripheral\sysint/cy_sysint.c **** * Function Name: Cy_SysInt_GetIntSource
 157:Generated_Source\PSoC6\pdl\drivers\peripheral\sysint/cy_sysint.c **** ****************************************************************************//**
 158:Generated_Source\PSoC6\pdl\drivers\peripheral\sysint/cy_sysint.c **** *
 159:Generated_Source\PSoC6\pdl\drivers\peripheral\sysint/cy_sysint.c **** * \brief Gets the interrupt source of CM0+ NVIC channel.
 160:Generated_Source\PSoC6\pdl\drivers\peripheral\sysint/cy_sysint.c **** *
 161:Generated_Source\PSoC6\pdl\drivers\peripheral\sysint/cy_sysint.c **** * \param intrSrc
 162:Generated_Source\PSoC6\pdl\drivers\peripheral\sysint/cy_sysint.c **** * NVIC mux number connected to the NVIC channel of the CM0+ core
 163:Generated_Source\PSoC6\pdl\drivers\peripheral\sysint/cy_sysint.c **** *
 164:Generated_Source\PSoC6\pdl\drivers\peripheral\sysint/cy_sysint.c **** * \return 
 165:Generated_Source\PSoC6\pdl\drivers\peripheral\sysint/cy_sysint.c **** * Device interrupt source connected to the NVIC mux. A returned value of 
 166:Generated_Source\PSoC6\pdl\drivers\peripheral\sysint/cy_sysint.c **** * "disconnected_IRQn" (240) indicates that the interrupt source is disconnected.  
 167:Generated_Source\PSoC6\pdl\drivers\peripheral\sysint/cy_sysint.c **** *
 168:Generated_Source\PSoC6\pdl\drivers\peripheral\sysint/cy_sysint.c **** * \funcusage
 169:Generated_Source\PSoC6\pdl\drivers\peripheral\sysint/cy_sysint.c **** * \snippet sysint/sysint_v1_10_sut_01.cydsn/main_cm4.c snippet_Cy_SysInt_SetIntSource
 170:Generated_Source\PSoC6\pdl\drivers\peripheral\sysint/cy_sysint.c **** *
 171:Generated_Source\PSoC6\pdl\drivers\peripheral\sysint/cy_sysint.c **** *******************************************************************************/
 172:Generated_Source\PSoC6\pdl\drivers\peripheral\sysint/cy_sysint.c **** cy_en_intr_t Cy_SysInt_GetIntSource(IRQn_Type intrSrc)
 173:Generated_Source\PSoC6\pdl\drivers\peripheral\sysint/cy_sysint.c **** {
 174:Generated_Source\PSoC6\pdl\drivers\peripheral\sysint/cy_sysint.c ****     /* Calculation of variables */
 175:Generated_Source\PSoC6\pdl\drivers\peripheral\sysint/cy_sysint.c ****     uint32_t regPos  = (uint32_t)intrSrc >>  CY_SYSINT_CM0P_MUX_SHIFT;
 176:Generated_Source\PSoC6\pdl\drivers\peripheral\sysint/cy_sysint.c ****     uint32_t bitPos  = ((uint32_t)intrSrc - (regPos <<  CY_SYSINT_CM0P_MUX_SHIFT)) <<  CY_SYSINT_CM
 177:Generated_Source\PSoC6\pdl\drivers\peripheral\sysint/cy_sysint.c ****     uint32_t bitMask = (uint32_t)(CY_SYSINT_CM0P_MUX_MASK << bitPos);
 178:Generated_Source\PSoC6\pdl\drivers\peripheral\sysint/cy_sysint.c **** 
 179:Generated_Source\PSoC6\pdl\drivers\peripheral\sysint/cy_sysint.c ****     cy_en_intr_t srcVal = disconnected_IRQn;
 180:Generated_Source\PSoC6\pdl\drivers\peripheral\sysint/cy_sysint.c ****     uint32_t tempReg = 0UL;
 181:Generated_Source\PSoC6\pdl\drivers\peripheral\sysint/cy_sysint.c ****     
 182:Generated_Source\PSoC6\pdl\drivers\peripheral\sysint/cy_sysint.c ****     switch(regPos)
 183:Generated_Source\PSoC6\pdl\drivers\peripheral\sysint/cy_sysint.c ****     {
 184:Generated_Source\PSoC6\pdl\drivers\peripheral\sysint/cy_sysint.c ****         case CY_SYSINT_CM0P_MUX0:
 185:Generated_Source\PSoC6\pdl\drivers\peripheral\sysint/cy_sysint.c ****             tempReg = (CPUSS->CM0_INT_CTL0 & bitMask) >> bitPos;
 186:Generated_Source\PSoC6\pdl\drivers\peripheral\sysint/cy_sysint.c ****         break;
 187:Generated_Source\PSoC6\pdl\drivers\peripheral\sysint/cy_sysint.c ****         case CY_SYSINT_CM0P_MUX1:
 188:Generated_Source\PSoC6\pdl\drivers\peripheral\sysint/cy_sysint.c ****             tempReg = (CPUSS->CM0_INT_CTL1 & bitMask) >> bitPos;
 189:Generated_Source\PSoC6\pdl\drivers\peripheral\sysint/cy_sysint.c ****         break;
 190:Generated_Source\PSoC6\pdl\drivers\peripheral\sysint/cy_sysint.c ****         case CY_SYSINT_CM0P_MUX2:
 191:Generated_Source\PSoC6\pdl\drivers\peripheral\sysint/cy_sysint.c ****             tempReg = (CPUSS->CM0_INT_CTL2 & bitMask) >> bitPos;
 192:Generated_Source\PSoC6\pdl\drivers\peripheral\sysint/cy_sysint.c ****         break;
 193:Generated_Source\PSoC6\pdl\drivers\peripheral\sysint/cy_sysint.c ****         case CY_SYSINT_CM0P_MUX3:
 194:Generated_Source\PSoC6\pdl\drivers\peripheral\sysint/cy_sysint.c ****             tempReg = (CPUSS->CM0_INT_CTL3 & bitMask) >> bitPos;
 195:Generated_Source\PSoC6\pdl\drivers\peripheral\sysint/cy_sysint.c ****         break;
 196:Generated_Source\PSoC6\pdl\drivers\peripheral\sysint/cy_sysint.c ****         case CY_SYSINT_CM0P_MUX4:
 197:Generated_Source\PSoC6\pdl\drivers\peripheral\sysint/cy_sysint.c ****             tempReg = (CPUSS->CM0_INT_CTL4 & bitMask) >> bitPos;
 198:Generated_Source\PSoC6\pdl\drivers\peripheral\sysint/cy_sysint.c ****         break;
 199:Generated_Source\PSoC6\pdl\drivers\peripheral\sysint/cy_sysint.c ****         case CY_SYSINT_CM0P_MUX5:
 200:Generated_Source\PSoC6\pdl\drivers\peripheral\sysint/cy_sysint.c ****             tempReg = (CPUSS->CM0_INT_CTL5 & bitMask) >> bitPos;
ARM GAS  C:\Users\gjl\AppData\Local\Temp\ccMETlfj.s 			page 5


 201:Generated_Source\PSoC6\pdl\drivers\peripheral\sysint/cy_sysint.c ****         break;
 202:Generated_Source\PSoC6\pdl\drivers\peripheral\sysint/cy_sysint.c ****         case CY_SYSINT_CM0P_MUX6:
 203:Generated_Source\PSoC6\pdl\drivers\peripheral\sysint/cy_sysint.c ****             tempReg = (CPUSS->CM0_INT_CTL6 & bitMask) >> bitPos;
 204:Generated_Source\PSoC6\pdl\drivers\peripheral\sysint/cy_sysint.c ****         break;
 205:Generated_Source\PSoC6\pdl\drivers\peripheral\sysint/cy_sysint.c ****         case CY_SYSINT_CM0P_MUX7:
 206:Generated_Source\PSoC6\pdl\drivers\peripheral\sysint/cy_sysint.c ****             tempReg = (CPUSS->CM0_INT_CTL7 & bitMask) >> bitPos;
 207:Generated_Source\PSoC6\pdl\drivers\peripheral\sysint/cy_sysint.c ****         break;
 208:Generated_Source\PSoC6\pdl\drivers\peripheral\sysint/cy_sysint.c ****         default:
 209:Generated_Source\PSoC6\pdl\drivers\peripheral\sysint/cy_sysint.c ****         break;
 210:Generated_Source\PSoC6\pdl\drivers\peripheral\sysint/cy_sysint.c ****     }
 211:Generated_Source\PSoC6\pdl\drivers\peripheral\sysint/cy_sysint.c ****     
 212:Generated_Source\PSoC6\pdl\drivers\peripheral\sysint/cy_sysint.c ****     srcVal = (cy_en_intr_t)tempReg;
 213:Generated_Source\PSoC6\pdl\drivers\peripheral\sysint/cy_sysint.c ****     return (srcVal);
 214:Generated_Source\PSoC6\pdl\drivers\peripheral\sysint/cy_sysint.c **** }
 215:Generated_Source\PSoC6\pdl\drivers\peripheral\sysint/cy_sysint.c **** #endif
 216:Generated_Source\PSoC6\pdl\drivers\peripheral\sysint/cy_sysint.c **** 
 217:Generated_Source\PSoC6\pdl\drivers\peripheral\sysint/cy_sysint.c **** 
 218:Generated_Source\PSoC6\pdl\drivers\peripheral\sysint/cy_sysint.c **** /*******************************************************************************
 219:Generated_Source\PSoC6\pdl\drivers\peripheral\sysint/cy_sysint.c **** * Function Name: Cy_SysInt_SetVector
 220:Generated_Source\PSoC6\pdl\drivers\peripheral\sysint/cy_sysint.c **** ****************************************************************************//**
 221:Generated_Source\PSoC6\pdl\drivers\peripheral\sysint/cy_sysint.c **** *
 222:Generated_Source\PSoC6\pdl\drivers\peripheral\sysint/cy_sysint.c **** * \brief Changes the ISR vector for the Interrupt.
 223:Generated_Source\PSoC6\pdl\drivers\peripheral\sysint/cy_sysint.c **** *
 224:Generated_Source\PSoC6\pdl\drivers\peripheral\sysint/cy_sysint.c **** * Note that for CM0+, this function sets the interrupt vector for the interrupt
 225:Generated_Source\PSoC6\pdl\drivers\peripheral\sysint/cy_sysint.c **** * mux output feeding into the NVIC.
 226:Generated_Source\PSoC6\pdl\drivers\peripheral\sysint/cy_sysint.c **** *
 227:Generated_Source\PSoC6\pdl\drivers\peripheral\sysint/cy_sysint.c **** * Note that this function relies on the assumption that the vector table is
 228:Generated_Source\PSoC6\pdl\drivers\peripheral\sysint/cy_sysint.c **** * relocated to __ramVectors[RAM_VECTORS_SIZE] in SRAM. Otherwise it will
 229:Generated_Source\PSoC6\pdl\drivers\peripheral\sysint/cy_sysint.c **** * return the address of the default ISR location in Flash vector table.
 230:Generated_Source\PSoC6\pdl\drivers\peripheral\sysint/cy_sysint.c **** *
 231:Generated_Source\PSoC6\pdl\drivers\peripheral\sysint/cy_sysint.c **** * \param intrSrc
 232:Generated_Source\PSoC6\pdl\drivers\peripheral\sysint/cy_sysint.c **** * Interrrupt source
 233:Generated_Source\PSoC6\pdl\drivers\peripheral\sysint/cy_sysint.c **** *
 234:Generated_Source\PSoC6\pdl\drivers\peripheral\sysint/cy_sysint.c **** * \param userIsr
 235:Generated_Source\PSoC6\pdl\drivers\peripheral\sysint/cy_sysint.c **** * Address of the ISR to set in the interrupt vector table
 236:Generated_Source\PSoC6\pdl\drivers\peripheral\sysint/cy_sysint.c **** *
 237:Generated_Source\PSoC6\pdl\drivers\peripheral\sysint/cy_sysint.c **** * \return
 238:Generated_Source\PSoC6\pdl\drivers\peripheral\sysint/cy_sysint.c **** * Previous address of the ISR in the interrupt vector table, before the
 239:Generated_Source\PSoC6\pdl\drivers\peripheral\sysint/cy_sysint.c **** * function call
 240:Generated_Source\PSoC6\pdl\drivers\peripheral\sysint/cy_sysint.c **** *
 241:Generated_Source\PSoC6\pdl\drivers\peripheral\sysint/cy_sysint.c **** * \funcusage
 242:Generated_Source\PSoC6\pdl\drivers\peripheral\sysint/cy_sysint.c **** * \snippet sysint/sysint_v1_10_sut_01.cydsn/main_cm4.c snippet_Cy_SysInt_SetVector
 243:Generated_Source\PSoC6\pdl\drivers\peripheral\sysint/cy_sysint.c **** *
 244:Generated_Source\PSoC6\pdl\drivers\peripheral\sysint/cy_sysint.c **** *******************************************************************************/
 245:Generated_Source\PSoC6\pdl\drivers\peripheral\sysint/cy_sysint.c **** cy_israddress Cy_SysInt_SetVector(IRQn_Type intrSrc, cy_israddress userIsr)
 246:Generated_Source\PSoC6\pdl\drivers\peripheral\sysint/cy_sysint.c **** {
  29              		.loc 1 246 0
  30              		.cfi_startproc
  31              		@ args = 0, pretend = 0, frame = 0
  32              		@ frame_needed = 0, uses_anonymous_args = 0
  33              	.LVL0:
  34 0000 38B5     		push	{r3, r4, r5, lr}
  35              		.cfi_def_cfa_offset 16
  36              		.cfi_offset 3, -16
  37              		.cfi_offset 4, -12
  38              		.cfi_offset 5, -8
  39              		.cfi_offset 14, -4
ARM GAS  C:\Users\gjl\AppData\Local\Temp\ccMETlfj.s 			page 6


 247:Generated_Source\PSoC6\pdl\drivers\peripheral\sysint/cy_sysint.c ****     cy_israddress prevIsr;
 248:Generated_Source\PSoC6\pdl\drivers\peripheral\sysint/cy_sysint.c ****     
 249:Generated_Source\PSoC6\pdl\drivers\peripheral\sysint/cy_sysint.c ****     /* Only set the new vector if it was moved to __ramVectors */
 250:Generated_Source\PSoC6\pdl\drivers\peripheral\sysint/cy_sysint.c ****     if (SCB->VTOR == (uint32_t)&__ramVectors)
  40              		.loc 1 250 0
  41 0002 0C4B     		ldr	r3, .L6
  42 0004 9A68     		ldr	r2, [r3, #8]
  43 0006 0C4B     		ldr	r3, .L6+4
  44 0008 9A42     		cmp	r2, r3
  45 000a 0ED1     		bne	.L2
  46 000c 0D46     		mov	r5, r1
  47 000e 0446     		mov	r4, r0
 251:Generated_Source\PSoC6\pdl\drivers\peripheral\sysint/cy_sysint.c ****     {
 252:Generated_Source\PSoC6\pdl\drivers\peripheral\sysint/cy_sysint.c ****         CY_ASSERT_L1(CY_SYSINT_IS_VECTOR_VALID(userIsr));
  48              		.loc 1 252 0
  49 0010 19B9     		cbnz	r1, .L3
  50              		.loc 1 252 0 is_stmt 0 discriminator 1
  51 0012 FC21     		movs	r1, #252
  52              	.LVL1:
  53 0014 0948     		ldr	r0, .L6+8
  54              	.LVL2:
  55 0016 FFF7FEFF 		bl	Cy_SysLib_AssertFailed
  56              	.LVL3:
  57              	.L3:
 253:Generated_Source\PSoC6\pdl\drivers\peripheral\sysint/cy_sysint.c **** 
 254:Generated_Source\PSoC6\pdl\drivers\peripheral\sysint/cy_sysint.c ****         prevIsr = __ramVectors[CY_INT_IRQ_BASE + intrSrc];
  58              		.loc 1 254 0 is_stmt 1
  59 001a 04F11003 		add	r3, r4, #16
  60 001e 064A     		ldr	r2, .L6+4
  61 0020 52F82300 		ldr	r0, [r2, r3, lsl #2]
  62              	.LVL4:
 255:Generated_Source\PSoC6\pdl\drivers\peripheral\sysint/cy_sysint.c ****         __ramVectors[CY_INT_IRQ_BASE + intrSrc] = userIsr;
  63              		.loc 1 255 0
  64 0024 42F82350 		str	r5, [r2, r3, lsl #2]
  65 0028 38BD     		pop	{r3, r4, r5, pc}
  66              	.LVL5:
  67              	.L2:
 256:Generated_Source\PSoC6\pdl\drivers\peripheral\sysint/cy_sysint.c ****     }
 257:Generated_Source\PSoC6\pdl\drivers\peripheral\sysint/cy_sysint.c ****     else
 258:Generated_Source\PSoC6\pdl\drivers\peripheral\sysint/cy_sysint.c ****     {
 259:Generated_Source\PSoC6\pdl\drivers\peripheral\sysint/cy_sysint.c ****         prevIsr = __Vectors[CY_INT_IRQ_BASE + intrSrc];
  68              		.loc 1 259 0
  69 002a 1030     		adds	r0, r0, #16
  70              	.LVL6:
  71 002c 044B     		ldr	r3, .L6+12
  72 002e 53F82000 		ldr	r0, [r3, r0, lsl #2]
  73              	.LVL7:
 260:Generated_Source\PSoC6\pdl\drivers\peripheral\sysint/cy_sysint.c ****     }
 261:Generated_Source\PSoC6\pdl\drivers\peripheral\sysint/cy_sysint.c **** 
 262:Generated_Source\PSoC6\pdl\drivers\peripheral\sysint/cy_sysint.c ****     return prevIsr;
 263:Generated_Source\PSoC6\pdl\drivers\peripheral\sysint/cy_sysint.c **** }
  74              		.loc 1 263 0
  75 0032 38BD     		pop	{r3, r4, r5, pc}
  76              	.L7:
  77              		.align	2
  78              	.L6:
  79 0034 00ED00E0 		.word	-536810240
ARM GAS  C:\Users\gjl\AppData\Local\Temp\ccMETlfj.s 			page 7


  80 0038 00000000 		.word	__ramVectors
  81 003c 00000000 		.word	.LC0
  82 0040 00000000 		.word	__Vectors
  83              		.cfi_endproc
  84              	.LFE129:
  85              		.size	Cy_SysInt_SetVector, .-Cy_SysInt_SetVector
  86              		.section	.text.Cy_SysInt_Init,"ax",%progbits
  87              		.align	2
  88              		.global	Cy_SysInt_Init
  89              		.thumb
  90              		.thumb_func
  91              		.type	Cy_SysInt_Init, %function
  92              	Cy_SysInt_Init:
  93              	.LFB128:
  49:Generated_Source\PSoC6\pdl\drivers\peripheral\sysint/cy_sysint.c ****     cy_en_sysint_status_t status = CY_SYSINT_SUCCESS;
  94              		.loc 1 49 0
  95              		.cfi_startproc
  96              		@ args = 0, pretend = 0, frame = 0
  97              		@ frame_needed = 0, uses_anonymous_args = 0
  98              	.LVL8:
  52:Generated_Source\PSoC6\pdl\drivers\peripheral\sysint/cy_sysint.c ****     {
  99              		.loc 1 52 0
 100 0000 70B3     		cbz	r0, .L14
  49:Generated_Source\PSoC6\pdl\drivers\peripheral\sysint/cy_sysint.c ****     cy_en_sysint_status_t status = CY_SYSINT_SUCCESS;
 101              		.loc 1 49 0
 102 0002 38B5     		push	{r3, r4, r5, lr}
 103              		.cfi_def_cfa_offset 16
 104              		.cfi_offset 3, -16
 105              		.cfi_offset 4, -12
 106              		.cfi_offset 5, -8
 107              		.cfi_offset 14, -4
 108 0004 0446     		mov	r4, r0
 109 0006 0D46     		mov	r5, r1
  54:Generated_Source\PSoC6\pdl\drivers\peripheral\sysint/cy_sysint.c ****         
 110              		.loc 1 54 0
 111 0008 4368     		ldr	r3, [r0, #4]
 112 000a 072B     		cmp	r3, #7
 113 000c 03D9     		bls	.L10
  54:Generated_Source\PSoC6\pdl\drivers\peripheral\sysint/cy_sysint.c ****         
 114              		.loc 1 54 0 is_stmt 0 discriminator 1
 115 000e 3621     		movs	r1, #54
 116              	.LVL9:
 117 0010 1548     		ldr	r0, .L17
 118              	.LVL10:
 119 0012 FFF7FEFF 		bl	Cy_SysLib_AssertFailed
 120              	.LVL11:
 121              	.L10:
  64:Generated_Source\PSoC6\pdl\drivers\peripheral\sysint/cy_sysint.c ****         
 122              		.loc 1 64 0 is_stmt 1
 123 0016 B4F90030 		ldrsh	r3, [r4]
 124 001a 6268     		ldr	r2, [r4, #4]
 125              	.LVL12:
 126              	.LBB4:
 127              	.LBB5:
 128              		.file 2 "Generated_Source\\PSoC6\\pdl\\cmsis/include/core_cm4.h"
   1:Generated_Source\PSoC6\pdl\cmsis/include/core_cm4.h **** /**************************************************************************//**
   2:Generated_Source\PSoC6\pdl\cmsis/include/core_cm4.h ****  * @file     core_cm4.h
ARM GAS  C:\Users\gjl\AppData\Local\Temp\ccMETlfj.s 			page 8


   3:Generated_Source\PSoC6\pdl\cmsis/include/core_cm4.h ****  * @brief    CMSIS Cortex-M4 Core Peripheral Access Layer Header File
   4:Generated_Source\PSoC6\pdl\cmsis/include/core_cm4.h ****  * @version  V5.0.1
   5:Generated_Source\PSoC6\pdl\cmsis/include/core_cm4.h ****  * @date     30. January 2017
   6:Generated_Source\PSoC6\pdl\cmsis/include/core_cm4.h ****  ******************************************************************************/
   7:Generated_Source\PSoC6\pdl\cmsis/include/core_cm4.h **** /*
   8:Generated_Source\PSoC6\pdl\cmsis/include/core_cm4.h ****  * Copyright (c) 2009-2016 ARM Limited. All rights reserved.
   9:Generated_Source\PSoC6\pdl\cmsis/include/core_cm4.h ****  *
  10:Generated_Source\PSoC6\pdl\cmsis/include/core_cm4.h ****  * SPDX-License-Identifier: Apache-2.0
  11:Generated_Source\PSoC6\pdl\cmsis/include/core_cm4.h ****  *
  12:Generated_Source\PSoC6\pdl\cmsis/include/core_cm4.h ****  * Licensed under the Apache License, Version 2.0 (the License); you may
  13:Generated_Source\PSoC6\pdl\cmsis/include/core_cm4.h ****  * not use this file except in compliance with the License.
  14:Generated_Source\PSoC6\pdl\cmsis/include/core_cm4.h ****  * You may obtain a copy of the License at
  15:Generated_Source\PSoC6\pdl\cmsis/include/core_cm4.h ****  *
  16:Generated_Source\PSoC6\pdl\cmsis/include/core_cm4.h ****  * www.apache.org/licenses/LICENSE-2.0
  17:Generated_Source\PSoC6\pdl\cmsis/include/core_cm4.h ****  *
  18:Generated_Source\PSoC6\pdl\cmsis/include/core_cm4.h ****  * Unless required by applicable law or agreed to in writing, software
  19:Generated_Source\PSoC6\pdl\cmsis/include/core_cm4.h ****  * distributed under the License is distributed on an AS IS BASIS, WITHOUT
  20:Generated_Source\PSoC6\pdl\cmsis/include/core_cm4.h ****  * WARRANTIES OR CONDITIONS OF ANY KIND, either express or implied.
  21:Generated_Source\PSoC6\pdl\cmsis/include/core_cm4.h ****  * See the License for the specific language governing permissions and
  22:Generated_Source\PSoC6\pdl\cmsis/include/core_cm4.h ****  * limitations under the License.
  23:Generated_Source\PSoC6\pdl\cmsis/include/core_cm4.h ****  */
  24:Generated_Source\PSoC6\pdl\cmsis/include/core_cm4.h **** 
  25:Generated_Source\PSoC6\pdl\cmsis/include/core_cm4.h **** #if   defined ( __ICCARM__ )
  26:Generated_Source\PSoC6\pdl\cmsis/include/core_cm4.h ****  #pragma system_include         /* treat file as system include file for MISRA check */
  27:Generated_Source\PSoC6\pdl\cmsis/include/core_cm4.h **** #elif defined (__ARMCC_VERSION) && (__ARMCC_VERSION >= 6010050)
  28:Generated_Source\PSoC6\pdl\cmsis/include/core_cm4.h ****   #pragma clang system_header   /* treat file as system include file */
  29:Generated_Source\PSoC6\pdl\cmsis/include/core_cm4.h **** #endif
  30:Generated_Source\PSoC6\pdl\cmsis/include/core_cm4.h **** 
  31:Generated_Source\PSoC6\pdl\cmsis/include/core_cm4.h **** #ifndef __CORE_CM4_H_GENERIC
  32:Generated_Source\PSoC6\pdl\cmsis/include/core_cm4.h **** #define __CORE_CM4_H_GENERIC
  33:Generated_Source\PSoC6\pdl\cmsis/include/core_cm4.h **** 
  34:Generated_Source\PSoC6\pdl\cmsis/include/core_cm4.h **** #include <stdint.h>
  35:Generated_Source\PSoC6\pdl\cmsis/include/core_cm4.h **** 
  36:Generated_Source\PSoC6\pdl\cmsis/include/core_cm4.h **** #ifdef __cplusplus
  37:Generated_Source\PSoC6\pdl\cmsis/include/core_cm4.h ****  extern "C" {
  38:Generated_Source\PSoC6\pdl\cmsis/include/core_cm4.h **** #endif
  39:Generated_Source\PSoC6\pdl\cmsis/include/core_cm4.h **** 
  40:Generated_Source\PSoC6\pdl\cmsis/include/core_cm4.h **** /**
  41:Generated_Source\PSoC6\pdl\cmsis/include/core_cm4.h ****   \page CMSIS_MISRA_Exceptions  MISRA-C:2004 Compliance Exceptions
  42:Generated_Source\PSoC6\pdl\cmsis/include/core_cm4.h ****   CMSIS violates the following MISRA-C:2004 rules:
  43:Generated_Source\PSoC6\pdl\cmsis/include/core_cm4.h **** 
  44:Generated_Source\PSoC6\pdl\cmsis/include/core_cm4.h ****    \li Required Rule 8.5, object/function definition in header file.<br>
  45:Generated_Source\PSoC6\pdl\cmsis/include/core_cm4.h ****      Function definitions in header files are used to allow 'inlining'.
  46:Generated_Source\PSoC6\pdl\cmsis/include/core_cm4.h **** 
  47:Generated_Source\PSoC6\pdl\cmsis/include/core_cm4.h ****    \li Required Rule 18.4, declaration of union type or object of union type: '{...}'.<br>
  48:Generated_Source\PSoC6\pdl\cmsis/include/core_cm4.h ****      Unions are used for effective representation of core registers.
  49:Generated_Source\PSoC6\pdl\cmsis/include/core_cm4.h **** 
  50:Generated_Source\PSoC6\pdl\cmsis/include/core_cm4.h ****    \li Advisory Rule 19.7, Function-like macro defined.<br>
  51:Generated_Source\PSoC6\pdl\cmsis/include/core_cm4.h ****      Function-like macros are used to allow more efficient code.
  52:Generated_Source\PSoC6\pdl\cmsis/include/core_cm4.h ****  */
  53:Generated_Source\PSoC6\pdl\cmsis/include/core_cm4.h **** 
  54:Generated_Source\PSoC6\pdl\cmsis/include/core_cm4.h **** 
  55:Generated_Source\PSoC6\pdl\cmsis/include/core_cm4.h **** /*******************************************************************************
  56:Generated_Source\PSoC6\pdl\cmsis/include/core_cm4.h ****  *                 CMSIS definitions
  57:Generated_Source\PSoC6\pdl\cmsis/include/core_cm4.h ****  ******************************************************************************/
  58:Generated_Source\PSoC6\pdl\cmsis/include/core_cm4.h **** /**
  59:Generated_Source\PSoC6\pdl\cmsis/include/core_cm4.h ****   \ingroup Cortex_M4
ARM GAS  C:\Users\gjl\AppData\Local\Temp\ccMETlfj.s 			page 9


  60:Generated_Source\PSoC6\pdl\cmsis/include/core_cm4.h ****   @{
  61:Generated_Source\PSoC6\pdl\cmsis/include/core_cm4.h ****  */
  62:Generated_Source\PSoC6\pdl\cmsis/include/core_cm4.h **** 
  63:Generated_Source\PSoC6\pdl\cmsis/include/core_cm4.h **** /*  CMSIS CM4 definitions */
  64:Generated_Source\PSoC6\pdl\cmsis/include/core_cm4.h **** #define __CM4_CMSIS_VERSION_MAIN  ( 5U)                                  /*!< [31:16] CMSIS HAL mai
  65:Generated_Source\PSoC6\pdl\cmsis/include/core_cm4.h **** #define __CM4_CMSIS_VERSION_SUB   ( 0U)                                  /*!< [15:0]  CMSIS HAL sub
  66:Generated_Source\PSoC6\pdl\cmsis/include/core_cm4.h **** #define __CM4_CMSIS_VERSION       ((__CM4_CMSIS_VERSION_MAIN << 16U) | \
  67:Generated_Source\PSoC6\pdl\cmsis/include/core_cm4.h ****                                     __CM4_CMSIS_VERSION_SUB           )  /*!< CMSIS HAL version num
  68:Generated_Source\PSoC6\pdl\cmsis/include/core_cm4.h **** 
  69:Generated_Source\PSoC6\pdl\cmsis/include/core_cm4.h **** #define __CORTEX_M                (4U)                                   /*!< Cortex-M Core */
  70:Generated_Source\PSoC6\pdl\cmsis/include/core_cm4.h **** 
  71:Generated_Source\PSoC6\pdl\cmsis/include/core_cm4.h **** /** __FPU_USED indicates whether an FPU is used or not.
  72:Generated_Source\PSoC6\pdl\cmsis/include/core_cm4.h ****     For this, __FPU_PRESENT has to be checked prior to making use of FPU specific registers and fun
  73:Generated_Source\PSoC6\pdl\cmsis/include/core_cm4.h **** */
  74:Generated_Source\PSoC6\pdl\cmsis/include/core_cm4.h **** #if defined ( __CC_ARM )
  75:Generated_Source\PSoC6\pdl\cmsis/include/core_cm4.h ****   #if defined __TARGET_FPU_VFP
  76:Generated_Source\PSoC6\pdl\cmsis/include/core_cm4.h ****     #if defined (__FPU_PRESENT) && (__FPU_PRESENT == 1U)
  77:Generated_Source\PSoC6\pdl\cmsis/include/core_cm4.h ****       #define __FPU_USED       1U
  78:Generated_Source\PSoC6\pdl\cmsis/include/core_cm4.h ****     #else
  79:Generated_Source\PSoC6\pdl\cmsis/include/core_cm4.h ****       #error "Compiler generates FPU instructions for a device without an FPU (check __FPU_PRESENT)
  80:Generated_Source\PSoC6\pdl\cmsis/include/core_cm4.h ****       #define __FPU_USED       0U
  81:Generated_Source\PSoC6\pdl\cmsis/include/core_cm4.h ****     #endif
  82:Generated_Source\PSoC6\pdl\cmsis/include/core_cm4.h ****   #else
  83:Generated_Source\PSoC6\pdl\cmsis/include/core_cm4.h ****     #define __FPU_USED         0U
  84:Generated_Source\PSoC6\pdl\cmsis/include/core_cm4.h ****   #endif
  85:Generated_Source\PSoC6\pdl\cmsis/include/core_cm4.h **** 
  86:Generated_Source\PSoC6\pdl\cmsis/include/core_cm4.h **** #elif defined (__ARMCC_VERSION) && (__ARMCC_VERSION >= 6010050)
  87:Generated_Source\PSoC6\pdl\cmsis/include/core_cm4.h ****   #if defined __ARM_PCS_VFP
  88:Generated_Source\PSoC6\pdl\cmsis/include/core_cm4.h ****     #if defined (__FPU_PRESENT) && (__FPU_PRESENT == 1U)
  89:Generated_Source\PSoC6\pdl\cmsis/include/core_cm4.h ****       #define __FPU_USED       1U
  90:Generated_Source\PSoC6\pdl\cmsis/include/core_cm4.h ****     #else
  91:Generated_Source\PSoC6\pdl\cmsis/include/core_cm4.h ****       #warning "Compiler generates FPU instructions for a device without an FPU (check __FPU_PRESEN
  92:Generated_Source\PSoC6\pdl\cmsis/include/core_cm4.h ****       #define __FPU_USED       0U
  93:Generated_Source\PSoC6\pdl\cmsis/include/core_cm4.h ****     #endif
  94:Generated_Source\PSoC6\pdl\cmsis/include/core_cm4.h ****   #else
  95:Generated_Source\PSoC6\pdl\cmsis/include/core_cm4.h ****     #define __FPU_USED         0U
  96:Generated_Source\PSoC6\pdl\cmsis/include/core_cm4.h ****   #endif
  97:Generated_Source\PSoC6\pdl\cmsis/include/core_cm4.h **** 
  98:Generated_Source\PSoC6\pdl\cmsis/include/core_cm4.h **** #elif defined ( __GNUC__ )
  99:Generated_Source\PSoC6\pdl\cmsis/include/core_cm4.h ****   #if defined (__VFP_FP__) && !defined(__SOFTFP__)
 100:Generated_Source\PSoC6\pdl\cmsis/include/core_cm4.h ****     #if defined (__FPU_PRESENT) && (__FPU_PRESENT == 1U)
 101:Generated_Source\PSoC6\pdl\cmsis/include/core_cm4.h ****       #define __FPU_USED       1U
 102:Generated_Source\PSoC6\pdl\cmsis/include/core_cm4.h ****     #else
 103:Generated_Source\PSoC6\pdl\cmsis/include/core_cm4.h ****       #error "Compiler generates FPU instructions for a device without an FPU (check __FPU_PRESENT)
 104:Generated_Source\PSoC6\pdl\cmsis/include/core_cm4.h ****       #define __FPU_USED       0U
 105:Generated_Source\PSoC6\pdl\cmsis/include/core_cm4.h ****     #endif
 106:Generated_Source\PSoC6\pdl\cmsis/include/core_cm4.h ****   #else
 107:Generated_Source\PSoC6\pdl\cmsis/include/core_cm4.h ****     #define __FPU_USED         0U
 108:Generated_Source\PSoC6\pdl\cmsis/include/core_cm4.h ****   #endif
 109:Generated_Source\PSoC6\pdl\cmsis/include/core_cm4.h **** 
 110:Generated_Source\PSoC6\pdl\cmsis/include/core_cm4.h **** #elif defined ( __ICCARM__ )
 111:Generated_Source\PSoC6\pdl\cmsis/include/core_cm4.h ****   #if defined __ARMVFP__
 112:Generated_Source\PSoC6\pdl\cmsis/include/core_cm4.h ****     #if defined (__FPU_PRESENT) && (__FPU_PRESENT == 1U)
 113:Generated_Source\PSoC6\pdl\cmsis/include/core_cm4.h ****       #define __FPU_USED       1U
 114:Generated_Source\PSoC6\pdl\cmsis/include/core_cm4.h ****     #else
 115:Generated_Source\PSoC6\pdl\cmsis/include/core_cm4.h ****       #error "Compiler generates FPU instructions for a device without an FPU (check __FPU_PRESENT)
 116:Generated_Source\PSoC6\pdl\cmsis/include/core_cm4.h ****       #define __FPU_USED       0U
ARM GAS  C:\Users\gjl\AppData\Local\Temp\ccMETlfj.s 			page 10


 117:Generated_Source\PSoC6\pdl\cmsis/include/core_cm4.h ****     #endif
 118:Generated_Source\PSoC6\pdl\cmsis/include/core_cm4.h ****   #else
 119:Generated_Source\PSoC6\pdl\cmsis/include/core_cm4.h ****     #define __FPU_USED         0U
 120:Generated_Source\PSoC6\pdl\cmsis/include/core_cm4.h ****   #endif
 121:Generated_Source\PSoC6\pdl\cmsis/include/core_cm4.h **** 
 122:Generated_Source\PSoC6\pdl\cmsis/include/core_cm4.h **** #elif defined ( __TI_ARM__ )
 123:Generated_Source\PSoC6\pdl\cmsis/include/core_cm4.h ****   #if defined __TI_VFP_SUPPORT__
 124:Generated_Source\PSoC6\pdl\cmsis/include/core_cm4.h ****     #if defined (__FPU_PRESENT) && (__FPU_PRESENT == 1U)
 125:Generated_Source\PSoC6\pdl\cmsis/include/core_cm4.h ****       #define __FPU_USED       1U
 126:Generated_Source\PSoC6\pdl\cmsis/include/core_cm4.h ****     #else
 127:Generated_Source\PSoC6\pdl\cmsis/include/core_cm4.h ****       #error "Compiler generates FPU instructions for a device without an FPU (check __FPU_PRESENT)
 128:Generated_Source\PSoC6\pdl\cmsis/include/core_cm4.h ****       #define __FPU_USED       0U
 129:Generated_Source\PSoC6\pdl\cmsis/include/core_cm4.h ****     #endif
 130:Generated_Source\PSoC6\pdl\cmsis/include/core_cm4.h ****   #else
 131:Generated_Source\PSoC6\pdl\cmsis/include/core_cm4.h ****     #define __FPU_USED         0U
 132:Generated_Source\PSoC6\pdl\cmsis/include/core_cm4.h ****   #endif
 133:Generated_Source\PSoC6\pdl\cmsis/include/core_cm4.h **** 
 134:Generated_Source\PSoC6\pdl\cmsis/include/core_cm4.h **** #elif defined ( __TASKING__ )
 135:Generated_Source\PSoC6\pdl\cmsis/include/core_cm4.h ****   #if defined __FPU_VFP__
 136:Generated_Source\PSoC6\pdl\cmsis/include/core_cm4.h ****     #if defined (__FPU_PRESENT) && (__FPU_PRESENT == 1U)
 137:Generated_Source\PSoC6\pdl\cmsis/include/core_cm4.h ****       #define __FPU_USED       1U
 138:Generated_Source\PSoC6\pdl\cmsis/include/core_cm4.h ****     #else
 139:Generated_Source\PSoC6\pdl\cmsis/include/core_cm4.h ****       #error "Compiler generates FPU instructions for a device without an FPU (check __FPU_PRESENT)
 140:Generated_Source\PSoC6\pdl\cmsis/include/core_cm4.h ****       #define __FPU_USED       0U
 141:Generated_Source\PSoC6\pdl\cmsis/include/core_cm4.h ****     #endif
 142:Generated_Source\PSoC6\pdl\cmsis/include/core_cm4.h ****   #else
 143:Generated_Source\PSoC6\pdl\cmsis/include/core_cm4.h ****     #define __FPU_USED         0U
 144:Generated_Source\PSoC6\pdl\cmsis/include/core_cm4.h ****   #endif
 145:Generated_Source\PSoC6\pdl\cmsis/include/core_cm4.h **** 
 146:Generated_Source\PSoC6\pdl\cmsis/include/core_cm4.h **** #elif defined ( __CSMC__ )
 147:Generated_Source\PSoC6\pdl\cmsis/include/core_cm4.h ****   #if ( __CSMC__ & 0x400U)
 148:Generated_Source\PSoC6\pdl\cmsis/include/core_cm4.h ****     #if defined (__FPU_PRESENT) && (__FPU_PRESENT == 1U)
 149:Generated_Source\PSoC6\pdl\cmsis/include/core_cm4.h ****       #define __FPU_USED       1U
 150:Generated_Source\PSoC6\pdl\cmsis/include/core_cm4.h ****     #else
 151:Generated_Source\PSoC6\pdl\cmsis/include/core_cm4.h ****       #error "Compiler generates FPU instructions for a device without an FPU (check __FPU_PRESENT)
 152:Generated_Source\PSoC6\pdl\cmsis/include/core_cm4.h ****       #define __FPU_USED       0U
 153:Generated_Source\PSoC6\pdl\cmsis/include/core_cm4.h ****     #endif
 154:Generated_Source\PSoC6\pdl\cmsis/include/core_cm4.h ****   #else
 155:Generated_Source\PSoC6\pdl\cmsis/include/core_cm4.h ****     #define __FPU_USED         0U
 156:Generated_Source\PSoC6\pdl\cmsis/include/core_cm4.h ****   #endif
 157:Generated_Source\PSoC6\pdl\cmsis/include/core_cm4.h **** 
 158:Generated_Source\PSoC6\pdl\cmsis/include/core_cm4.h **** #endif
 159:Generated_Source\PSoC6\pdl\cmsis/include/core_cm4.h **** 
 160:Generated_Source\PSoC6\pdl\cmsis/include/core_cm4.h **** #include "cmsis_compiler.h"               /* CMSIS compiler specific defines */
 161:Generated_Source\PSoC6\pdl\cmsis/include/core_cm4.h **** 
 162:Generated_Source\PSoC6\pdl\cmsis/include/core_cm4.h **** 
 163:Generated_Source\PSoC6\pdl\cmsis/include/core_cm4.h **** #ifdef __cplusplus
 164:Generated_Source\PSoC6\pdl\cmsis/include/core_cm4.h **** }
 165:Generated_Source\PSoC6\pdl\cmsis/include/core_cm4.h **** #endif
 166:Generated_Source\PSoC6\pdl\cmsis/include/core_cm4.h **** 
 167:Generated_Source\PSoC6\pdl\cmsis/include/core_cm4.h **** #endif /* __CORE_CM4_H_GENERIC */
 168:Generated_Source\PSoC6\pdl\cmsis/include/core_cm4.h **** 
 169:Generated_Source\PSoC6\pdl\cmsis/include/core_cm4.h **** #ifndef __CMSIS_GENERIC
 170:Generated_Source\PSoC6\pdl\cmsis/include/core_cm4.h **** 
 171:Generated_Source\PSoC6\pdl\cmsis/include/core_cm4.h **** #ifndef __CORE_CM4_H_DEPENDANT
 172:Generated_Source\PSoC6\pdl\cmsis/include/core_cm4.h **** #define __CORE_CM4_H_DEPENDANT
 173:Generated_Source\PSoC6\pdl\cmsis/include/core_cm4.h **** 
ARM GAS  C:\Users\gjl\AppData\Local\Temp\ccMETlfj.s 			page 11


 174:Generated_Source\PSoC6\pdl\cmsis/include/core_cm4.h **** #ifdef __cplusplus
 175:Generated_Source\PSoC6\pdl\cmsis/include/core_cm4.h ****  extern "C" {
 176:Generated_Source\PSoC6\pdl\cmsis/include/core_cm4.h **** #endif
 177:Generated_Source\PSoC6\pdl\cmsis/include/core_cm4.h **** 
 178:Generated_Source\PSoC6\pdl\cmsis/include/core_cm4.h **** /* check device defines and use defaults */
 179:Generated_Source\PSoC6\pdl\cmsis/include/core_cm4.h **** #if defined __CHECK_DEVICE_DEFINES
 180:Generated_Source\PSoC6\pdl\cmsis/include/core_cm4.h ****   #ifndef __CM4_REV
 181:Generated_Source\PSoC6\pdl\cmsis/include/core_cm4.h ****     #define __CM4_REV               0x0000U
 182:Generated_Source\PSoC6\pdl\cmsis/include/core_cm4.h ****     #warning "__CM4_REV not defined in device header file; using default!"
 183:Generated_Source\PSoC6\pdl\cmsis/include/core_cm4.h ****   #endif
 184:Generated_Source\PSoC6\pdl\cmsis/include/core_cm4.h **** 
 185:Generated_Source\PSoC6\pdl\cmsis/include/core_cm4.h ****   #ifndef __FPU_PRESENT
 186:Generated_Source\PSoC6\pdl\cmsis/include/core_cm4.h ****     #define __FPU_PRESENT             0U
 187:Generated_Source\PSoC6\pdl\cmsis/include/core_cm4.h ****     #warning "__FPU_PRESENT not defined in device header file; using default!"
 188:Generated_Source\PSoC6\pdl\cmsis/include/core_cm4.h ****   #endif
 189:Generated_Source\PSoC6\pdl\cmsis/include/core_cm4.h **** 
 190:Generated_Source\PSoC6\pdl\cmsis/include/core_cm4.h ****   #ifndef __MPU_PRESENT
 191:Generated_Source\PSoC6\pdl\cmsis/include/core_cm4.h ****     #define __MPU_PRESENT             0U
 192:Generated_Source\PSoC6\pdl\cmsis/include/core_cm4.h ****     #warning "__MPU_PRESENT not defined in device header file; using default!"
 193:Generated_Source\PSoC6\pdl\cmsis/include/core_cm4.h ****   #endif
 194:Generated_Source\PSoC6\pdl\cmsis/include/core_cm4.h **** 
 195:Generated_Source\PSoC6\pdl\cmsis/include/core_cm4.h ****   #ifndef __NVIC_PRIO_BITS
 196:Generated_Source\PSoC6\pdl\cmsis/include/core_cm4.h ****     #define __NVIC_PRIO_BITS          3U
 197:Generated_Source\PSoC6\pdl\cmsis/include/core_cm4.h ****     #warning "__NVIC_PRIO_BITS not defined in device header file; using default!"
 198:Generated_Source\PSoC6\pdl\cmsis/include/core_cm4.h ****   #endif
 199:Generated_Source\PSoC6\pdl\cmsis/include/core_cm4.h **** 
 200:Generated_Source\PSoC6\pdl\cmsis/include/core_cm4.h ****   #ifndef __Vendor_SysTickConfig
 201:Generated_Source\PSoC6\pdl\cmsis/include/core_cm4.h ****     #define __Vendor_SysTickConfig    0U
 202:Generated_Source\PSoC6\pdl\cmsis/include/core_cm4.h ****     #warning "__Vendor_SysTickConfig not defined in device header file; using default!"
 203:Generated_Source\PSoC6\pdl\cmsis/include/core_cm4.h ****   #endif
 204:Generated_Source\PSoC6\pdl\cmsis/include/core_cm4.h **** #endif
 205:Generated_Source\PSoC6\pdl\cmsis/include/core_cm4.h **** 
 206:Generated_Source\PSoC6\pdl\cmsis/include/core_cm4.h **** /* IO definitions (access restrictions to peripheral registers) */
 207:Generated_Source\PSoC6\pdl\cmsis/include/core_cm4.h **** /**
 208:Generated_Source\PSoC6\pdl\cmsis/include/core_cm4.h ****     \defgroup CMSIS_glob_defs CMSIS Global Defines
 209:Generated_Source\PSoC6\pdl\cmsis/include/core_cm4.h **** 
 210:Generated_Source\PSoC6\pdl\cmsis/include/core_cm4.h ****     <strong>IO Type Qualifiers</strong> are used
 211:Generated_Source\PSoC6\pdl\cmsis/include/core_cm4.h ****     \li to specify the access to peripheral variables.
 212:Generated_Source\PSoC6\pdl\cmsis/include/core_cm4.h ****     \li for automatic generation of peripheral register debug information.
 213:Generated_Source\PSoC6\pdl\cmsis/include/core_cm4.h **** */
 214:Generated_Source\PSoC6\pdl\cmsis/include/core_cm4.h **** #ifdef __cplusplus
 215:Generated_Source\PSoC6\pdl\cmsis/include/core_cm4.h ****   #define   __I     volatile             /*!< Defines 'read only' permissions */
 216:Generated_Source\PSoC6\pdl\cmsis/include/core_cm4.h **** #else
 217:Generated_Source\PSoC6\pdl\cmsis/include/core_cm4.h ****   #define   __I     volatile const       /*!< Defines 'read only' permissions */
 218:Generated_Source\PSoC6\pdl\cmsis/include/core_cm4.h **** #endif
 219:Generated_Source\PSoC6\pdl\cmsis/include/core_cm4.h **** #define     __O     volatile             /*!< Defines 'write only' permissions */
 220:Generated_Source\PSoC6\pdl\cmsis/include/core_cm4.h **** #define     __IO    volatile             /*!< Defines 'read / write' permissions */
 221:Generated_Source\PSoC6\pdl\cmsis/include/core_cm4.h **** 
 222:Generated_Source\PSoC6\pdl\cmsis/include/core_cm4.h **** /* following defines should be used for structure members */
 223:Generated_Source\PSoC6\pdl\cmsis/include/core_cm4.h **** #define     __IM     volatile const      /*! Defines 'read only' structure member permissions */
 224:Generated_Source\PSoC6\pdl\cmsis/include/core_cm4.h **** #define     __OM     volatile            /*! Defines 'write only' structure member permissions */
 225:Generated_Source\PSoC6\pdl\cmsis/include/core_cm4.h **** #define     __IOM    volatile            /*! Defines 'read / write' structure member permissions */
 226:Generated_Source\PSoC6\pdl\cmsis/include/core_cm4.h **** 
 227:Generated_Source\PSoC6\pdl\cmsis/include/core_cm4.h **** /*@} end of group Cortex_M4 */
 228:Generated_Source\PSoC6\pdl\cmsis/include/core_cm4.h **** 
 229:Generated_Source\PSoC6\pdl\cmsis/include/core_cm4.h **** 
 230:Generated_Source\PSoC6\pdl\cmsis/include/core_cm4.h **** 
ARM GAS  C:\Users\gjl\AppData\Local\Temp\ccMETlfj.s 			page 12


 231:Generated_Source\PSoC6\pdl\cmsis/include/core_cm4.h **** /*******************************************************************************
 232:Generated_Source\PSoC6\pdl\cmsis/include/core_cm4.h ****  *                 Register Abstraction
 233:Generated_Source\PSoC6\pdl\cmsis/include/core_cm4.h ****   Core Register contain:
 234:Generated_Source\PSoC6\pdl\cmsis/include/core_cm4.h ****   - Core Register
 235:Generated_Source\PSoC6\pdl\cmsis/include/core_cm4.h ****   - Core NVIC Register
 236:Generated_Source\PSoC6\pdl\cmsis/include/core_cm4.h ****   - Core SCB Register
 237:Generated_Source\PSoC6\pdl\cmsis/include/core_cm4.h ****   - Core SysTick Register
 238:Generated_Source\PSoC6\pdl\cmsis/include/core_cm4.h ****   - Core Debug Register
 239:Generated_Source\PSoC6\pdl\cmsis/include/core_cm4.h ****   - Core MPU Register
 240:Generated_Source\PSoC6\pdl\cmsis/include/core_cm4.h ****   - Core FPU Register
 241:Generated_Source\PSoC6\pdl\cmsis/include/core_cm4.h ****  ******************************************************************************/
 242:Generated_Source\PSoC6\pdl\cmsis/include/core_cm4.h **** /**
 243:Generated_Source\PSoC6\pdl\cmsis/include/core_cm4.h ****   \defgroup CMSIS_core_register Defines and Type Definitions
 244:Generated_Source\PSoC6\pdl\cmsis/include/core_cm4.h ****   \brief Type definitions and defines for Cortex-M processor based devices.
 245:Generated_Source\PSoC6\pdl\cmsis/include/core_cm4.h **** */
 246:Generated_Source\PSoC6\pdl\cmsis/include/core_cm4.h **** 
 247:Generated_Source\PSoC6\pdl\cmsis/include/core_cm4.h **** /**
 248:Generated_Source\PSoC6\pdl\cmsis/include/core_cm4.h ****   \ingroup    CMSIS_core_register
 249:Generated_Source\PSoC6\pdl\cmsis/include/core_cm4.h ****   \defgroup   CMSIS_CORE  Status and Control Registers
 250:Generated_Source\PSoC6\pdl\cmsis/include/core_cm4.h ****   \brief      Core Register type definitions.
 251:Generated_Source\PSoC6\pdl\cmsis/include/core_cm4.h ****   @{
 252:Generated_Source\PSoC6\pdl\cmsis/include/core_cm4.h ****  */
 253:Generated_Source\PSoC6\pdl\cmsis/include/core_cm4.h **** 
 254:Generated_Source\PSoC6\pdl\cmsis/include/core_cm4.h **** /**
 255:Generated_Source\PSoC6\pdl\cmsis/include/core_cm4.h ****   \brief  Union type to access the Application Program Status Register (APSR).
 256:Generated_Source\PSoC6\pdl\cmsis/include/core_cm4.h ****  */
 257:Generated_Source\PSoC6\pdl\cmsis/include/core_cm4.h **** typedef union
 258:Generated_Source\PSoC6\pdl\cmsis/include/core_cm4.h **** {
 259:Generated_Source\PSoC6\pdl\cmsis/include/core_cm4.h ****   struct
 260:Generated_Source\PSoC6\pdl\cmsis/include/core_cm4.h ****   {
 261:Generated_Source\PSoC6\pdl\cmsis/include/core_cm4.h ****     uint32_t _reserved0:16;              /*!< bit:  0..15  Reserved */
 262:Generated_Source\PSoC6\pdl\cmsis/include/core_cm4.h ****     uint32_t GE:4;                       /*!< bit: 16..19  Greater than or Equal flags */
 263:Generated_Source\PSoC6\pdl\cmsis/include/core_cm4.h ****     uint32_t _reserved1:7;               /*!< bit: 20..26  Reserved */
 264:Generated_Source\PSoC6\pdl\cmsis/include/core_cm4.h ****     uint32_t Q:1;                        /*!< bit:     27  Saturation condition flag */
 265:Generated_Source\PSoC6\pdl\cmsis/include/core_cm4.h ****     uint32_t V:1;                        /*!< bit:     28  Overflow condition code flag */
 266:Generated_Source\PSoC6\pdl\cmsis/include/core_cm4.h ****     uint32_t C:1;                        /*!< bit:     29  Carry condition code flag */
 267:Generated_Source\PSoC6\pdl\cmsis/include/core_cm4.h ****     uint32_t Z:1;                        /*!< bit:     30  Zero condition code flag */
 268:Generated_Source\PSoC6\pdl\cmsis/include/core_cm4.h ****     uint32_t N:1;                        /*!< bit:     31  Negative condition code flag */
 269:Generated_Source\PSoC6\pdl\cmsis/include/core_cm4.h ****   } b;                                   /*!< Structure used for bit  access */
 270:Generated_Source\PSoC6\pdl\cmsis/include/core_cm4.h ****   uint32_t w;                            /*!< Type      used for word access */
 271:Generated_Source\PSoC6\pdl\cmsis/include/core_cm4.h **** } APSR_Type;
 272:Generated_Source\PSoC6\pdl\cmsis/include/core_cm4.h **** 
 273:Generated_Source\PSoC6\pdl\cmsis/include/core_cm4.h **** /* APSR Register Definitions */
 274:Generated_Source\PSoC6\pdl\cmsis/include/core_cm4.h **** #define APSR_N_Pos                         31U                                            /*!< APSR
 275:Generated_Source\PSoC6\pdl\cmsis/include/core_cm4.h **** #define APSR_N_Msk                         (1UL << APSR_N_Pos)                            /*!< APSR
 276:Generated_Source\PSoC6\pdl\cmsis/include/core_cm4.h **** 
 277:Generated_Source\PSoC6\pdl\cmsis/include/core_cm4.h **** #define APSR_Z_Pos                         30U                                            /*!< APSR
 278:Generated_Source\PSoC6\pdl\cmsis/include/core_cm4.h **** #define APSR_Z_Msk                         (1UL << APSR_Z_Pos)                            /*!< APSR
 279:Generated_Source\PSoC6\pdl\cmsis/include/core_cm4.h **** 
 280:Generated_Source\PSoC6\pdl\cmsis/include/core_cm4.h **** #define APSR_C_Pos                         29U                                            /*!< APSR
 281:Generated_Source\PSoC6\pdl\cmsis/include/core_cm4.h **** #define APSR_C_Msk                         (1UL << APSR_C_Pos)                            /*!< APSR
 282:Generated_Source\PSoC6\pdl\cmsis/include/core_cm4.h **** 
 283:Generated_Source\PSoC6\pdl\cmsis/include/core_cm4.h **** #define APSR_V_Pos                         28U                                            /*!< APSR
 284:Generated_Source\PSoC6\pdl\cmsis/include/core_cm4.h **** #define APSR_V_Msk                         (1UL << APSR_V_Pos)                            /*!< APSR
 285:Generated_Source\PSoC6\pdl\cmsis/include/core_cm4.h **** 
 286:Generated_Source\PSoC6\pdl\cmsis/include/core_cm4.h **** #define APSR_Q_Pos                         27U                                            /*!< APSR
 287:Generated_Source\PSoC6\pdl\cmsis/include/core_cm4.h **** #define APSR_Q_Msk                         (1UL << APSR_Q_Pos)                            /*!< APSR
ARM GAS  C:\Users\gjl\AppData\Local\Temp\ccMETlfj.s 			page 13


 288:Generated_Source\PSoC6\pdl\cmsis/include/core_cm4.h **** 
 289:Generated_Source\PSoC6\pdl\cmsis/include/core_cm4.h **** #define APSR_GE_Pos                        16U                                            /*!< APSR
 290:Generated_Source\PSoC6\pdl\cmsis/include/core_cm4.h **** #define APSR_GE_Msk                        (0xFUL << APSR_GE_Pos)                         /*!< APSR
 291:Generated_Source\PSoC6\pdl\cmsis/include/core_cm4.h **** 
 292:Generated_Source\PSoC6\pdl\cmsis/include/core_cm4.h **** 
 293:Generated_Source\PSoC6\pdl\cmsis/include/core_cm4.h **** /**
 294:Generated_Source\PSoC6\pdl\cmsis/include/core_cm4.h ****   \brief  Union type to access the Interrupt Program Status Register (IPSR).
 295:Generated_Source\PSoC6\pdl\cmsis/include/core_cm4.h ****  */
 296:Generated_Source\PSoC6\pdl\cmsis/include/core_cm4.h **** typedef union
 297:Generated_Source\PSoC6\pdl\cmsis/include/core_cm4.h **** {
 298:Generated_Source\PSoC6\pdl\cmsis/include/core_cm4.h ****   struct
 299:Generated_Source\PSoC6\pdl\cmsis/include/core_cm4.h ****   {
 300:Generated_Source\PSoC6\pdl\cmsis/include/core_cm4.h ****     uint32_t ISR:9;                      /*!< bit:  0.. 8  Exception number */
 301:Generated_Source\PSoC6\pdl\cmsis/include/core_cm4.h ****     uint32_t _reserved0:23;              /*!< bit:  9..31  Reserved */
 302:Generated_Source\PSoC6\pdl\cmsis/include/core_cm4.h ****   } b;                                   /*!< Structure used for bit  access */
 303:Generated_Source\PSoC6\pdl\cmsis/include/core_cm4.h ****   uint32_t w;                            /*!< Type      used for word access */
 304:Generated_Source\PSoC6\pdl\cmsis/include/core_cm4.h **** } IPSR_Type;
 305:Generated_Source\PSoC6\pdl\cmsis/include/core_cm4.h **** 
 306:Generated_Source\PSoC6\pdl\cmsis/include/core_cm4.h **** /* IPSR Register Definitions */
 307:Generated_Source\PSoC6\pdl\cmsis/include/core_cm4.h **** #define IPSR_ISR_Pos                        0U                                            /*!< IPSR
 308:Generated_Source\PSoC6\pdl\cmsis/include/core_cm4.h **** #define IPSR_ISR_Msk                       (0x1FFUL /*<< IPSR_ISR_Pos*/)                  /*!< IPSR
 309:Generated_Source\PSoC6\pdl\cmsis/include/core_cm4.h **** 
 310:Generated_Source\PSoC6\pdl\cmsis/include/core_cm4.h **** 
 311:Generated_Source\PSoC6\pdl\cmsis/include/core_cm4.h **** /**
 312:Generated_Source\PSoC6\pdl\cmsis/include/core_cm4.h ****   \brief  Union type to access the Special-Purpose Program Status Registers (xPSR).
 313:Generated_Source\PSoC6\pdl\cmsis/include/core_cm4.h ****  */
 314:Generated_Source\PSoC6\pdl\cmsis/include/core_cm4.h **** typedef union
 315:Generated_Source\PSoC6\pdl\cmsis/include/core_cm4.h **** {
 316:Generated_Source\PSoC6\pdl\cmsis/include/core_cm4.h ****   struct
 317:Generated_Source\PSoC6\pdl\cmsis/include/core_cm4.h ****   {
 318:Generated_Source\PSoC6\pdl\cmsis/include/core_cm4.h ****     uint32_t ISR:9;                      /*!< bit:  0.. 8  Exception number */
 319:Generated_Source\PSoC6\pdl\cmsis/include/core_cm4.h ****     uint32_t _reserved0:1;               /*!< bit:      9  Reserved */
 320:Generated_Source\PSoC6\pdl\cmsis/include/core_cm4.h ****     uint32_t ICI_IT_1:6;                 /*!< bit: 10..15  ICI/IT part 1 */
 321:Generated_Source\PSoC6\pdl\cmsis/include/core_cm4.h ****     uint32_t GE:4;                       /*!< bit: 16..19  Greater than or Equal flags */
 322:Generated_Source\PSoC6\pdl\cmsis/include/core_cm4.h ****     uint32_t _reserved1:4;               /*!< bit: 20..23  Reserved */
 323:Generated_Source\PSoC6\pdl\cmsis/include/core_cm4.h ****     uint32_t T:1;                        /*!< bit:     24  Thumb bit */
 324:Generated_Source\PSoC6\pdl\cmsis/include/core_cm4.h ****     uint32_t ICI_IT_2:2;                 /*!< bit: 25..26  ICI/IT part 2 */
 325:Generated_Source\PSoC6\pdl\cmsis/include/core_cm4.h ****     uint32_t Q:1;                        /*!< bit:     27  Saturation condition flag */
 326:Generated_Source\PSoC6\pdl\cmsis/include/core_cm4.h ****     uint32_t V:1;                        /*!< bit:     28  Overflow condition code flag */
 327:Generated_Source\PSoC6\pdl\cmsis/include/core_cm4.h ****     uint32_t C:1;                        /*!< bit:     29  Carry condition code flag */
 328:Generated_Source\PSoC6\pdl\cmsis/include/core_cm4.h ****     uint32_t Z:1;                        /*!< bit:     30  Zero condition code flag */
 329:Generated_Source\PSoC6\pdl\cmsis/include/core_cm4.h ****     uint32_t N:1;                        /*!< bit:     31  Negative condition code flag */
 330:Generated_Source\PSoC6\pdl\cmsis/include/core_cm4.h ****   } b;                                   /*!< Structure used for bit  access */
 331:Generated_Source\PSoC6\pdl\cmsis/include/core_cm4.h ****   uint32_t w;                            /*!< Type      used for word access */
 332:Generated_Source\PSoC6\pdl\cmsis/include/core_cm4.h **** } xPSR_Type;
 333:Generated_Source\PSoC6\pdl\cmsis/include/core_cm4.h **** 
 334:Generated_Source\PSoC6\pdl\cmsis/include/core_cm4.h **** /* xPSR Register Definitions */
 335:Generated_Source\PSoC6\pdl\cmsis/include/core_cm4.h **** #define xPSR_N_Pos                         31U                                            /*!< xPSR
 336:Generated_Source\PSoC6\pdl\cmsis/include/core_cm4.h **** #define xPSR_N_Msk                         (1UL << xPSR_N_Pos)                            /*!< xPSR
 337:Generated_Source\PSoC6\pdl\cmsis/include/core_cm4.h **** 
 338:Generated_Source\PSoC6\pdl\cmsis/include/core_cm4.h **** #define xPSR_Z_Pos                         30U                                            /*!< xPSR
 339:Generated_Source\PSoC6\pdl\cmsis/include/core_cm4.h **** #define xPSR_Z_Msk                         (1UL << xPSR_Z_Pos)                            /*!< xPSR
 340:Generated_Source\PSoC6\pdl\cmsis/include/core_cm4.h **** 
 341:Generated_Source\PSoC6\pdl\cmsis/include/core_cm4.h **** #define xPSR_C_Pos                         29U                                            /*!< xPSR
 342:Generated_Source\PSoC6\pdl\cmsis/include/core_cm4.h **** #define xPSR_C_Msk                         (1UL << xPSR_C_Pos)                            /*!< xPSR
 343:Generated_Source\PSoC6\pdl\cmsis/include/core_cm4.h **** 
 344:Generated_Source\PSoC6\pdl\cmsis/include/core_cm4.h **** #define xPSR_V_Pos                         28U                                            /*!< xPSR
ARM GAS  C:\Users\gjl\AppData\Local\Temp\ccMETlfj.s 			page 14


 345:Generated_Source\PSoC6\pdl\cmsis/include/core_cm4.h **** #define xPSR_V_Msk                         (1UL << xPSR_V_Pos)                            /*!< xPSR
 346:Generated_Source\PSoC6\pdl\cmsis/include/core_cm4.h **** 
 347:Generated_Source\PSoC6\pdl\cmsis/include/core_cm4.h **** #define xPSR_Q_Pos                         27U                                            /*!< xPSR
 348:Generated_Source\PSoC6\pdl\cmsis/include/core_cm4.h **** #define xPSR_Q_Msk                         (1UL << xPSR_Q_Pos)                            /*!< xPSR
 349:Generated_Source\PSoC6\pdl\cmsis/include/core_cm4.h **** 
 350:Generated_Source\PSoC6\pdl\cmsis/include/core_cm4.h **** #define xPSR_ICI_IT_2_Pos                  25U                                            /*!< xPSR
 351:Generated_Source\PSoC6\pdl\cmsis/include/core_cm4.h **** #define xPSR_ICI_IT_2_Msk                  (3UL << xPSR_ICI_IT_2_Pos)                     /*!< xPSR
 352:Generated_Source\PSoC6\pdl\cmsis/include/core_cm4.h **** 
 353:Generated_Source\PSoC6\pdl\cmsis/include/core_cm4.h **** #define xPSR_T_Pos                         24U                                            /*!< xPSR
 354:Generated_Source\PSoC6\pdl\cmsis/include/core_cm4.h **** #define xPSR_T_Msk                         (1UL << xPSR_T_Pos)                            /*!< xPSR
 355:Generated_Source\PSoC6\pdl\cmsis/include/core_cm4.h **** 
 356:Generated_Source\PSoC6\pdl\cmsis/include/core_cm4.h **** #define xPSR_GE_Pos                        16U                                            /*!< xPSR
 357:Generated_Source\PSoC6\pdl\cmsis/include/core_cm4.h **** #define xPSR_GE_Msk                        (0xFUL << xPSR_GE_Pos)                         /*!< xPSR
 358:Generated_Source\PSoC6\pdl\cmsis/include/core_cm4.h **** 
 359:Generated_Source\PSoC6\pdl\cmsis/include/core_cm4.h **** #define xPSR_ICI_IT_1_Pos                  10U                                            /*!< xPSR
 360:Generated_Source\PSoC6\pdl\cmsis/include/core_cm4.h **** #define xPSR_ICI_IT_1_Msk                  (0x3FUL << xPSR_ICI_IT_1_Pos)                  /*!< xPSR
 361:Generated_Source\PSoC6\pdl\cmsis/include/core_cm4.h **** 
 362:Generated_Source\PSoC6\pdl\cmsis/include/core_cm4.h **** #define xPSR_ISR_Pos                        0U                                            /*!< xPSR
 363:Generated_Source\PSoC6\pdl\cmsis/include/core_cm4.h **** #define xPSR_ISR_Msk                       (0x1FFUL /*<< xPSR_ISR_Pos*/)                  /*!< xPSR
 364:Generated_Source\PSoC6\pdl\cmsis/include/core_cm4.h **** 
 365:Generated_Source\PSoC6\pdl\cmsis/include/core_cm4.h **** 
 366:Generated_Source\PSoC6\pdl\cmsis/include/core_cm4.h **** /**
 367:Generated_Source\PSoC6\pdl\cmsis/include/core_cm4.h ****   \brief  Union type to access the Control Registers (CONTROL).
 368:Generated_Source\PSoC6\pdl\cmsis/include/core_cm4.h ****  */
 369:Generated_Source\PSoC6\pdl\cmsis/include/core_cm4.h **** typedef union
 370:Generated_Source\PSoC6\pdl\cmsis/include/core_cm4.h **** {
 371:Generated_Source\PSoC6\pdl\cmsis/include/core_cm4.h ****   struct
 372:Generated_Source\PSoC6\pdl\cmsis/include/core_cm4.h ****   {
 373:Generated_Source\PSoC6\pdl\cmsis/include/core_cm4.h ****     uint32_t nPRIV:1;                    /*!< bit:      0  Execution privilege in Thread mode */
 374:Generated_Source\PSoC6\pdl\cmsis/include/core_cm4.h ****     uint32_t SPSEL:1;                    /*!< bit:      1  Stack to be used */
 375:Generated_Source\PSoC6\pdl\cmsis/include/core_cm4.h ****     uint32_t FPCA:1;                     /*!< bit:      2  FP extension active flag */
 376:Generated_Source\PSoC6\pdl\cmsis/include/core_cm4.h ****     uint32_t _reserved0:29;              /*!< bit:  3..31  Reserved */
 377:Generated_Source\PSoC6\pdl\cmsis/include/core_cm4.h ****   } b;                                   /*!< Structure used for bit  access */
 378:Generated_Source\PSoC6\pdl\cmsis/include/core_cm4.h ****   uint32_t w;                            /*!< Type      used for word access */
 379:Generated_Source\PSoC6\pdl\cmsis/include/core_cm4.h **** } CONTROL_Type;
 380:Generated_Source\PSoC6\pdl\cmsis/include/core_cm4.h **** 
 381:Generated_Source\PSoC6\pdl\cmsis/include/core_cm4.h **** /* CONTROL Register Definitions */
 382:Generated_Source\PSoC6\pdl\cmsis/include/core_cm4.h **** #define CONTROL_FPCA_Pos                    2U                                            /*!< CONT
 383:Generated_Source\PSoC6\pdl\cmsis/include/core_cm4.h **** #define CONTROL_FPCA_Msk                   (1UL << CONTROL_FPCA_Pos)                      /*!< CONT
 384:Generated_Source\PSoC6\pdl\cmsis/include/core_cm4.h **** 
 385:Generated_Source\PSoC6\pdl\cmsis/include/core_cm4.h **** #define CONTROL_SPSEL_Pos                   1U                                            /*!< CONT
 386:Generated_Source\PSoC6\pdl\cmsis/include/core_cm4.h **** #define CONTROL_SPSEL_Msk                  (1UL << CONTROL_SPSEL_Pos)                     /*!< CONT
 387:Generated_Source\PSoC6\pdl\cmsis/include/core_cm4.h **** 
 388:Generated_Source\PSoC6\pdl\cmsis/include/core_cm4.h **** #define CONTROL_nPRIV_Pos                   0U                                            /*!< CONT
 389:Generated_Source\PSoC6\pdl\cmsis/include/core_cm4.h **** #define CONTROL_nPRIV_Msk                  (1UL /*<< CONTROL_nPRIV_Pos*/)                 /*!< CONT
 390:Generated_Source\PSoC6\pdl\cmsis/include/core_cm4.h **** 
 391:Generated_Source\PSoC6\pdl\cmsis/include/core_cm4.h **** /*@} end of group CMSIS_CORE */
 392:Generated_Source\PSoC6\pdl\cmsis/include/core_cm4.h **** 
 393:Generated_Source\PSoC6\pdl\cmsis/include/core_cm4.h **** 
 394:Generated_Source\PSoC6\pdl\cmsis/include/core_cm4.h **** /**
 395:Generated_Source\PSoC6\pdl\cmsis/include/core_cm4.h ****   \ingroup    CMSIS_core_register
 396:Generated_Source\PSoC6\pdl\cmsis/include/core_cm4.h ****   \defgroup   CMSIS_NVIC  Nested Vectored Interrupt Controller (NVIC)
 397:Generated_Source\PSoC6\pdl\cmsis/include/core_cm4.h ****   \brief      Type definitions for the NVIC Registers
 398:Generated_Source\PSoC6\pdl\cmsis/include/core_cm4.h ****   @{
 399:Generated_Source\PSoC6\pdl\cmsis/include/core_cm4.h ****  */
 400:Generated_Source\PSoC6\pdl\cmsis/include/core_cm4.h **** 
 401:Generated_Source\PSoC6\pdl\cmsis/include/core_cm4.h **** /**
ARM GAS  C:\Users\gjl\AppData\Local\Temp\ccMETlfj.s 			page 15


 402:Generated_Source\PSoC6\pdl\cmsis/include/core_cm4.h ****   \brief  Structure type to access the Nested Vectored Interrupt Controller (NVIC).
 403:Generated_Source\PSoC6\pdl\cmsis/include/core_cm4.h ****  */
 404:Generated_Source\PSoC6\pdl\cmsis/include/core_cm4.h **** typedef struct
 405:Generated_Source\PSoC6\pdl\cmsis/include/core_cm4.h **** {
 406:Generated_Source\PSoC6\pdl\cmsis/include/core_cm4.h ****   __IOM uint32_t ISER[8U];               /*!< Offset: 0x000 (R/W)  Interrupt Set Enable Register */
 407:Generated_Source\PSoC6\pdl\cmsis/include/core_cm4.h ****         uint32_t RESERVED0[24U];
 408:Generated_Source\PSoC6\pdl\cmsis/include/core_cm4.h ****   __IOM uint32_t ICER[8U];               /*!< Offset: 0x080 (R/W)  Interrupt Clear Enable Register 
 409:Generated_Source\PSoC6\pdl\cmsis/include/core_cm4.h ****         uint32_t RSERVED1[24U];
 410:Generated_Source\PSoC6\pdl\cmsis/include/core_cm4.h ****   __IOM uint32_t ISPR[8U];               /*!< Offset: 0x100 (R/W)  Interrupt Set Pending Register *
 411:Generated_Source\PSoC6\pdl\cmsis/include/core_cm4.h ****         uint32_t RESERVED2[24U];
 412:Generated_Source\PSoC6\pdl\cmsis/include/core_cm4.h ****   __IOM uint32_t ICPR[8U];               /*!< Offset: 0x180 (R/W)  Interrupt Clear Pending Register
 413:Generated_Source\PSoC6\pdl\cmsis/include/core_cm4.h ****         uint32_t RESERVED3[24U];
 414:Generated_Source\PSoC6\pdl\cmsis/include/core_cm4.h ****   __IOM uint32_t IABR[8U];               /*!< Offset: 0x200 (R/W)  Interrupt Active bit Register */
 415:Generated_Source\PSoC6\pdl\cmsis/include/core_cm4.h ****         uint32_t RESERVED4[56U];
 416:Generated_Source\PSoC6\pdl\cmsis/include/core_cm4.h ****   __IOM uint8_t  IP[240U];               /*!< Offset: 0x300 (R/W)  Interrupt Priority Register (8Bi
 417:Generated_Source\PSoC6\pdl\cmsis/include/core_cm4.h ****         uint32_t RESERVED5[644U];
 418:Generated_Source\PSoC6\pdl\cmsis/include/core_cm4.h ****   __OM  uint32_t STIR;                   /*!< Offset: 0xE00 ( /W)  Software Trigger Interrupt Regis
 419:Generated_Source\PSoC6\pdl\cmsis/include/core_cm4.h **** }  NVIC_Type;
 420:Generated_Source\PSoC6\pdl\cmsis/include/core_cm4.h **** 
 421:Generated_Source\PSoC6\pdl\cmsis/include/core_cm4.h **** /* Software Triggered Interrupt Register Definitions */
 422:Generated_Source\PSoC6\pdl\cmsis/include/core_cm4.h **** #define NVIC_STIR_INTID_Pos                 0U                                         /*!< STIR: I
 423:Generated_Source\PSoC6\pdl\cmsis/include/core_cm4.h **** #define NVIC_STIR_INTID_Msk                (0x1FFUL /*<< NVIC_STIR_INTID_Pos*/)        /*!< STIR: I
 424:Generated_Source\PSoC6\pdl\cmsis/include/core_cm4.h **** 
 425:Generated_Source\PSoC6\pdl\cmsis/include/core_cm4.h **** /*@} end of group CMSIS_NVIC */
 426:Generated_Source\PSoC6\pdl\cmsis/include/core_cm4.h **** 
 427:Generated_Source\PSoC6\pdl\cmsis/include/core_cm4.h **** 
 428:Generated_Source\PSoC6\pdl\cmsis/include/core_cm4.h **** /**
 429:Generated_Source\PSoC6\pdl\cmsis/include/core_cm4.h ****   \ingroup  CMSIS_core_register
 430:Generated_Source\PSoC6\pdl\cmsis/include/core_cm4.h ****   \defgroup CMSIS_SCB     System Control Block (SCB)
 431:Generated_Source\PSoC6\pdl\cmsis/include/core_cm4.h ****   \brief    Type definitions for the System Control Block Registers
 432:Generated_Source\PSoC6\pdl\cmsis/include/core_cm4.h ****   @{
 433:Generated_Source\PSoC6\pdl\cmsis/include/core_cm4.h ****  */
 434:Generated_Source\PSoC6\pdl\cmsis/include/core_cm4.h **** 
 435:Generated_Source\PSoC6\pdl\cmsis/include/core_cm4.h **** /**
 436:Generated_Source\PSoC6\pdl\cmsis/include/core_cm4.h ****   \brief  Structure type to access the System Control Block (SCB).
 437:Generated_Source\PSoC6\pdl\cmsis/include/core_cm4.h ****  */
 438:Generated_Source\PSoC6\pdl\cmsis/include/core_cm4.h **** typedef struct
 439:Generated_Source\PSoC6\pdl\cmsis/include/core_cm4.h **** {
 440:Generated_Source\PSoC6\pdl\cmsis/include/core_cm4.h ****   __IM  uint32_t CPUID;                  /*!< Offset: 0x000 (R/ )  CPUID Base Register */
 441:Generated_Source\PSoC6\pdl\cmsis/include/core_cm4.h ****   __IOM uint32_t ICSR;                   /*!< Offset: 0x004 (R/W)  Interrupt Control and State Regi
 442:Generated_Source\PSoC6\pdl\cmsis/include/core_cm4.h ****   __IOM uint32_t VTOR;                   /*!< Offset: 0x008 (R/W)  Vector Table Offset Register */
 443:Generated_Source\PSoC6\pdl\cmsis/include/core_cm4.h ****   __IOM uint32_t AIRCR;                  /*!< Offset: 0x00C (R/W)  Application Interrupt and Reset 
 444:Generated_Source\PSoC6\pdl\cmsis/include/core_cm4.h ****   __IOM uint32_t SCR;                    /*!< Offset: 0x010 (R/W)  System Control Register */
 445:Generated_Source\PSoC6\pdl\cmsis/include/core_cm4.h ****   __IOM uint32_t CCR;                    /*!< Offset: 0x014 (R/W)  Configuration Control Register *
 446:Generated_Source\PSoC6\pdl\cmsis/include/core_cm4.h ****   __IOM uint8_t  SHP[12U];               /*!< Offset: 0x018 (R/W)  System Handlers Priority Registe
 447:Generated_Source\PSoC6\pdl\cmsis/include/core_cm4.h ****   __IOM uint32_t SHCSR;                  /*!< Offset: 0x024 (R/W)  System Handler Control and State
 448:Generated_Source\PSoC6\pdl\cmsis/include/core_cm4.h ****   __IOM uint32_t CFSR;                   /*!< Offset: 0x028 (R/W)  Configurable Fault Status Regist
 449:Generated_Source\PSoC6\pdl\cmsis/include/core_cm4.h ****   __IOM uint32_t HFSR;                   /*!< Offset: 0x02C (R/W)  HardFault Status Register */
 450:Generated_Source\PSoC6\pdl\cmsis/include/core_cm4.h ****   __IOM uint32_t DFSR;                   /*!< Offset: 0x030 (R/W)  Debug Fault Status Register */
 451:Generated_Source\PSoC6\pdl\cmsis/include/core_cm4.h ****   __IOM uint32_t MMFAR;                  /*!< Offset: 0x034 (R/W)  MemManage Fault Address Register
 452:Generated_Source\PSoC6\pdl\cmsis/include/core_cm4.h ****   __IOM uint32_t BFAR;                   /*!< Offset: 0x038 (R/W)  BusFault Address Register */
 453:Generated_Source\PSoC6\pdl\cmsis/include/core_cm4.h ****   __IOM uint32_t AFSR;                   /*!< Offset: 0x03C (R/W)  Auxiliary Fault Status Register 
 454:Generated_Source\PSoC6\pdl\cmsis/include/core_cm4.h ****   __IM  uint32_t PFR[2U];                /*!< Offset: 0x040 (R/ )  Processor Feature Register */
 455:Generated_Source\PSoC6\pdl\cmsis/include/core_cm4.h ****   __IM  uint32_t DFR;                    /*!< Offset: 0x048 (R/ )  Debug Feature Register */
 456:Generated_Source\PSoC6\pdl\cmsis/include/core_cm4.h ****   __IM  uint32_t ADR;                    /*!< Offset: 0x04C (R/ )  Auxiliary Feature Register */
 457:Generated_Source\PSoC6\pdl\cmsis/include/core_cm4.h ****   __IM  uint32_t MMFR[4U];               /*!< Offset: 0x050 (R/ )  Memory Model Feature Register */
 458:Generated_Source\PSoC6\pdl\cmsis/include/core_cm4.h ****   __IM  uint32_t ISAR[5U];               /*!< Offset: 0x060 (R/ )  Instruction Set Attributes Regis
ARM GAS  C:\Users\gjl\AppData\Local\Temp\ccMETlfj.s 			page 16


 459:Generated_Source\PSoC6\pdl\cmsis/include/core_cm4.h ****         uint32_t RESERVED0[5U];
 460:Generated_Source\PSoC6\pdl\cmsis/include/core_cm4.h ****   __IOM uint32_t CPACR;                  /*!< Offset: 0x088 (R/W)  Coprocessor Access Control Regis
 461:Generated_Source\PSoC6\pdl\cmsis/include/core_cm4.h **** } SCB_Type;
 462:Generated_Source\PSoC6\pdl\cmsis/include/core_cm4.h **** 
 463:Generated_Source\PSoC6\pdl\cmsis/include/core_cm4.h **** /* SCB CPUID Register Definitions */
 464:Generated_Source\PSoC6\pdl\cmsis/include/core_cm4.h **** #define SCB_CPUID_IMPLEMENTER_Pos          24U                                            /*!< SCB 
 465:Generated_Source\PSoC6\pdl\cmsis/include/core_cm4.h **** #define SCB_CPUID_IMPLEMENTER_Msk          (0xFFUL << SCB_CPUID_IMPLEMENTER_Pos)          /*!< SCB 
 466:Generated_Source\PSoC6\pdl\cmsis/include/core_cm4.h **** 
 467:Generated_Source\PSoC6\pdl\cmsis/include/core_cm4.h **** #define SCB_CPUID_VARIANT_Pos              20U                                            /*!< SCB 
 468:Generated_Source\PSoC6\pdl\cmsis/include/core_cm4.h **** #define SCB_CPUID_VARIANT_Msk              (0xFUL << SCB_CPUID_VARIANT_Pos)               /*!< SCB 
 469:Generated_Source\PSoC6\pdl\cmsis/include/core_cm4.h **** 
 470:Generated_Source\PSoC6\pdl\cmsis/include/core_cm4.h **** #define SCB_CPUID_ARCHITECTURE_Pos         16U                                            /*!< SCB 
 471:Generated_Source\PSoC6\pdl\cmsis/include/core_cm4.h **** #define SCB_CPUID_ARCHITECTURE_Msk         (0xFUL << SCB_CPUID_ARCHITECTURE_Pos)          /*!< SCB 
 472:Generated_Source\PSoC6\pdl\cmsis/include/core_cm4.h **** 
 473:Generated_Source\PSoC6\pdl\cmsis/include/core_cm4.h **** #define SCB_CPUID_PARTNO_Pos                4U                                            /*!< SCB 
 474:Generated_Source\PSoC6\pdl\cmsis/include/core_cm4.h **** #define SCB_CPUID_PARTNO_Msk               (0xFFFUL << SCB_CPUID_PARTNO_Pos)              /*!< SCB 
 475:Generated_Source\PSoC6\pdl\cmsis/include/core_cm4.h **** 
 476:Generated_Source\PSoC6\pdl\cmsis/include/core_cm4.h **** #define SCB_CPUID_REVISION_Pos              0U                                            /*!< SCB 
 477:Generated_Source\PSoC6\pdl\cmsis/include/core_cm4.h **** #define SCB_CPUID_REVISION_Msk             (0xFUL /*<< SCB_CPUID_REVISION_Pos*/)          /*!< SCB 
 478:Generated_Source\PSoC6\pdl\cmsis/include/core_cm4.h **** 
 479:Generated_Source\PSoC6\pdl\cmsis/include/core_cm4.h **** /* SCB Interrupt Control State Register Definitions */
 480:Generated_Source\PSoC6\pdl\cmsis/include/core_cm4.h **** #define SCB_ICSR_NMIPENDSET_Pos            31U                                            /*!< SCB 
 481:Generated_Source\PSoC6\pdl\cmsis/include/core_cm4.h **** #define SCB_ICSR_NMIPENDSET_Msk            (1UL << SCB_ICSR_NMIPENDSET_Pos)               /*!< SCB 
 482:Generated_Source\PSoC6\pdl\cmsis/include/core_cm4.h **** 
 483:Generated_Source\PSoC6\pdl\cmsis/include/core_cm4.h **** #define SCB_ICSR_PENDSVSET_Pos             28U                                            /*!< SCB 
 484:Generated_Source\PSoC6\pdl\cmsis/include/core_cm4.h **** #define SCB_ICSR_PENDSVSET_Msk             (1UL << SCB_ICSR_PENDSVSET_Pos)                /*!< SCB 
 485:Generated_Source\PSoC6\pdl\cmsis/include/core_cm4.h **** 
 486:Generated_Source\PSoC6\pdl\cmsis/include/core_cm4.h **** #define SCB_ICSR_PENDSVCLR_Pos             27U                                            /*!< SCB 
 487:Generated_Source\PSoC6\pdl\cmsis/include/core_cm4.h **** #define SCB_ICSR_PENDSVCLR_Msk             (1UL << SCB_ICSR_PENDSVCLR_Pos)                /*!< SCB 
 488:Generated_Source\PSoC6\pdl\cmsis/include/core_cm4.h **** 
 489:Generated_Source\PSoC6\pdl\cmsis/include/core_cm4.h **** #define SCB_ICSR_PENDSTSET_Pos             26U                                            /*!< SCB 
 490:Generated_Source\PSoC6\pdl\cmsis/include/core_cm4.h **** #define SCB_ICSR_PENDSTSET_Msk             (1UL << SCB_ICSR_PENDSTSET_Pos)                /*!< SCB 
 491:Generated_Source\PSoC6\pdl\cmsis/include/core_cm4.h **** 
 492:Generated_Source\PSoC6\pdl\cmsis/include/core_cm4.h **** #define SCB_ICSR_PENDSTCLR_Pos             25U                                            /*!< SCB 
 493:Generated_Source\PSoC6\pdl\cmsis/include/core_cm4.h **** #define SCB_ICSR_PENDSTCLR_Msk             (1UL << SCB_ICSR_PENDSTCLR_Pos)                /*!< SCB 
 494:Generated_Source\PSoC6\pdl\cmsis/include/core_cm4.h **** 
 495:Generated_Source\PSoC6\pdl\cmsis/include/core_cm4.h **** #define SCB_ICSR_ISRPREEMPT_Pos            23U                                            /*!< SCB 
 496:Generated_Source\PSoC6\pdl\cmsis/include/core_cm4.h **** #define SCB_ICSR_ISRPREEMPT_Msk            (1UL << SCB_ICSR_ISRPREEMPT_Pos)               /*!< SCB 
 497:Generated_Source\PSoC6\pdl\cmsis/include/core_cm4.h **** 
 498:Generated_Source\PSoC6\pdl\cmsis/include/core_cm4.h **** #define SCB_ICSR_ISRPENDING_Pos            22U                                            /*!< SCB 
 499:Generated_Source\PSoC6\pdl\cmsis/include/core_cm4.h **** #define SCB_ICSR_ISRPENDING_Msk            (1UL << SCB_ICSR_ISRPENDING_Pos)               /*!< SCB 
 500:Generated_Source\PSoC6\pdl\cmsis/include/core_cm4.h **** 
 501:Generated_Source\PSoC6\pdl\cmsis/include/core_cm4.h **** #define SCB_ICSR_VECTPENDING_Pos           12U                                            /*!< SCB 
 502:Generated_Source\PSoC6\pdl\cmsis/include/core_cm4.h **** #define SCB_ICSR_VECTPENDING_Msk           (0x1FFUL << SCB_ICSR_VECTPENDING_Pos)          /*!< SCB 
 503:Generated_Source\PSoC6\pdl\cmsis/include/core_cm4.h **** 
 504:Generated_Source\PSoC6\pdl\cmsis/include/core_cm4.h **** #define SCB_ICSR_RETTOBASE_Pos             11U                                            /*!< SCB 
 505:Generated_Source\PSoC6\pdl\cmsis/include/core_cm4.h **** #define SCB_ICSR_RETTOBASE_Msk             (1UL << SCB_ICSR_RETTOBASE_Pos)                /*!< SCB 
 506:Generated_Source\PSoC6\pdl\cmsis/include/core_cm4.h **** 
 507:Generated_Source\PSoC6\pdl\cmsis/include/core_cm4.h **** #define SCB_ICSR_VECTACTIVE_Pos             0U                                            /*!< SCB 
 508:Generated_Source\PSoC6\pdl\cmsis/include/core_cm4.h **** #define SCB_ICSR_VECTACTIVE_Msk            (0x1FFUL /*<< SCB_ICSR_VECTACTIVE_Pos*/)       /*!< SCB 
 509:Generated_Source\PSoC6\pdl\cmsis/include/core_cm4.h **** 
 510:Generated_Source\PSoC6\pdl\cmsis/include/core_cm4.h **** /* SCB Vector Table Offset Register Definitions */
 511:Generated_Source\PSoC6\pdl\cmsis/include/core_cm4.h **** #define SCB_VTOR_TBLOFF_Pos                 7U                                            /*!< SCB 
 512:Generated_Source\PSoC6\pdl\cmsis/include/core_cm4.h **** #define SCB_VTOR_TBLOFF_Msk                (0x1FFFFFFUL << SCB_VTOR_TBLOFF_Pos)           /*!< SCB 
 513:Generated_Source\PSoC6\pdl\cmsis/include/core_cm4.h **** 
 514:Generated_Source\PSoC6\pdl\cmsis/include/core_cm4.h **** /* SCB Application Interrupt and Reset Control Register Definitions */
 515:Generated_Source\PSoC6\pdl\cmsis/include/core_cm4.h **** #define SCB_AIRCR_VECTKEY_Pos              16U                                            /*!< SCB 
ARM GAS  C:\Users\gjl\AppData\Local\Temp\ccMETlfj.s 			page 17


 516:Generated_Source\PSoC6\pdl\cmsis/include/core_cm4.h **** #define SCB_AIRCR_VECTKEY_Msk              (0xFFFFUL << SCB_AIRCR_VECTKEY_Pos)            /*!< SCB 
 517:Generated_Source\PSoC6\pdl\cmsis/include/core_cm4.h **** 
 518:Generated_Source\PSoC6\pdl\cmsis/include/core_cm4.h **** #define SCB_AIRCR_VECTKEYSTAT_Pos          16U                                            /*!< SCB 
 519:Generated_Source\PSoC6\pdl\cmsis/include/core_cm4.h **** #define SCB_AIRCR_VECTKEYSTAT_Msk          (0xFFFFUL << SCB_AIRCR_VECTKEYSTAT_Pos)        /*!< SCB 
 520:Generated_Source\PSoC6\pdl\cmsis/include/core_cm4.h **** 
 521:Generated_Source\PSoC6\pdl\cmsis/include/core_cm4.h **** #define SCB_AIRCR_ENDIANESS_Pos            15U                                            /*!< SCB 
 522:Generated_Source\PSoC6\pdl\cmsis/include/core_cm4.h **** #define SCB_AIRCR_ENDIANESS_Msk            (1UL << SCB_AIRCR_ENDIANESS_Pos)               /*!< SCB 
 523:Generated_Source\PSoC6\pdl\cmsis/include/core_cm4.h **** 
 524:Generated_Source\PSoC6\pdl\cmsis/include/core_cm4.h **** #define SCB_AIRCR_PRIGROUP_Pos              8U                                            /*!< SCB 
 525:Generated_Source\PSoC6\pdl\cmsis/include/core_cm4.h **** #define SCB_AIRCR_PRIGROUP_Msk             (7UL << SCB_AIRCR_PRIGROUP_Pos)                /*!< SCB 
 526:Generated_Source\PSoC6\pdl\cmsis/include/core_cm4.h **** 
 527:Generated_Source\PSoC6\pdl\cmsis/include/core_cm4.h **** #define SCB_AIRCR_SYSRESETREQ_Pos           2U                                            /*!< SCB 
 528:Generated_Source\PSoC6\pdl\cmsis/include/core_cm4.h **** #define SCB_AIRCR_SYSRESETREQ_Msk          (1UL << SCB_AIRCR_SYSRESETREQ_Pos)             /*!< SCB 
 529:Generated_Source\PSoC6\pdl\cmsis/include/core_cm4.h **** 
 530:Generated_Source\PSoC6\pdl\cmsis/include/core_cm4.h **** #define SCB_AIRCR_VECTCLRACTIVE_Pos         1U                                            /*!< SCB 
 531:Generated_Source\PSoC6\pdl\cmsis/include/core_cm4.h **** #define SCB_AIRCR_VECTCLRACTIVE_Msk        (1UL << SCB_AIRCR_VECTCLRACTIVE_Pos)           /*!< SCB 
 532:Generated_Source\PSoC6\pdl\cmsis/include/core_cm4.h **** 
 533:Generated_Source\PSoC6\pdl\cmsis/include/core_cm4.h **** #define SCB_AIRCR_VECTRESET_Pos             0U                                            /*!< SCB 
 534:Generated_Source\PSoC6\pdl\cmsis/include/core_cm4.h **** #define SCB_AIRCR_VECTRESET_Msk            (1UL /*<< SCB_AIRCR_VECTRESET_Pos*/)           /*!< SCB 
 535:Generated_Source\PSoC6\pdl\cmsis/include/core_cm4.h **** 
 536:Generated_Source\PSoC6\pdl\cmsis/include/core_cm4.h **** /* SCB System Control Register Definitions */
 537:Generated_Source\PSoC6\pdl\cmsis/include/core_cm4.h **** #define SCB_SCR_SEVONPEND_Pos               4U                                            /*!< SCB 
 538:Generated_Source\PSoC6\pdl\cmsis/include/core_cm4.h **** #define SCB_SCR_SEVONPEND_Msk              (1UL << SCB_SCR_SEVONPEND_Pos)                 /*!< SCB 
 539:Generated_Source\PSoC6\pdl\cmsis/include/core_cm4.h **** 
 540:Generated_Source\PSoC6\pdl\cmsis/include/core_cm4.h **** #define SCB_SCR_SLEEPDEEP_Pos               2U                                            /*!< SCB 
 541:Generated_Source\PSoC6\pdl\cmsis/include/core_cm4.h **** #define SCB_SCR_SLEEPDEEP_Msk              (1UL << SCB_SCR_SLEEPDEEP_Pos)                 /*!< SCB 
 542:Generated_Source\PSoC6\pdl\cmsis/include/core_cm4.h **** 
 543:Generated_Source\PSoC6\pdl\cmsis/include/core_cm4.h **** #define SCB_SCR_SLEEPONEXIT_Pos             1U                                            /*!< SCB 
 544:Generated_Source\PSoC6\pdl\cmsis/include/core_cm4.h **** #define SCB_SCR_SLEEPONEXIT_Msk            (1UL << SCB_SCR_SLEEPONEXIT_Pos)               /*!< SCB 
 545:Generated_Source\PSoC6\pdl\cmsis/include/core_cm4.h **** 
 546:Generated_Source\PSoC6\pdl\cmsis/include/core_cm4.h **** /* SCB Configuration Control Register Definitions */
 547:Generated_Source\PSoC6\pdl\cmsis/include/core_cm4.h **** #define SCB_CCR_STKALIGN_Pos                9U                                            /*!< SCB 
 548:Generated_Source\PSoC6\pdl\cmsis/include/core_cm4.h **** #define SCB_CCR_STKALIGN_Msk               (1UL << SCB_CCR_STKALIGN_Pos)                  /*!< SCB 
 549:Generated_Source\PSoC6\pdl\cmsis/include/core_cm4.h **** 
 550:Generated_Source\PSoC6\pdl\cmsis/include/core_cm4.h **** #define SCB_CCR_BFHFNMIGN_Pos               8U                                            /*!< SCB 
 551:Generated_Source\PSoC6\pdl\cmsis/include/core_cm4.h **** #define SCB_CCR_BFHFNMIGN_Msk              (1UL << SCB_CCR_BFHFNMIGN_Pos)                 /*!< SCB 
 552:Generated_Source\PSoC6\pdl\cmsis/include/core_cm4.h **** 
 553:Generated_Source\PSoC6\pdl\cmsis/include/core_cm4.h **** #define SCB_CCR_DIV_0_TRP_Pos               4U                                            /*!< SCB 
 554:Generated_Source\PSoC6\pdl\cmsis/include/core_cm4.h **** #define SCB_CCR_DIV_0_TRP_Msk              (1UL << SCB_CCR_DIV_0_TRP_Pos)                 /*!< SCB 
 555:Generated_Source\PSoC6\pdl\cmsis/include/core_cm4.h **** 
 556:Generated_Source\PSoC6\pdl\cmsis/include/core_cm4.h **** #define SCB_CCR_UNALIGN_TRP_Pos             3U                                            /*!< SCB 
 557:Generated_Source\PSoC6\pdl\cmsis/include/core_cm4.h **** #define SCB_CCR_UNALIGN_TRP_Msk            (1UL << SCB_CCR_UNALIGN_TRP_Pos)               /*!< SCB 
 558:Generated_Source\PSoC6\pdl\cmsis/include/core_cm4.h **** 
 559:Generated_Source\PSoC6\pdl\cmsis/include/core_cm4.h **** #define SCB_CCR_USERSETMPEND_Pos            1U                                            /*!< SCB 
 560:Generated_Source\PSoC6\pdl\cmsis/include/core_cm4.h **** #define SCB_CCR_USERSETMPEND_Msk           (1UL << SCB_CCR_USERSETMPEND_Pos)              /*!< SCB 
 561:Generated_Source\PSoC6\pdl\cmsis/include/core_cm4.h **** 
 562:Generated_Source\PSoC6\pdl\cmsis/include/core_cm4.h **** #define SCB_CCR_NONBASETHRDENA_Pos          0U                                            /*!< SCB 
 563:Generated_Source\PSoC6\pdl\cmsis/include/core_cm4.h **** #define SCB_CCR_NONBASETHRDENA_Msk         (1UL /*<< SCB_CCR_NONBASETHRDENA_Pos*/)        /*!< SCB 
 564:Generated_Source\PSoC6\pdl\cmsis/include/core_cm4.h **** 
 565:Generated_Source\PSoC6\pdl\cmsis/include/core_cm4.h **** /* SCB System Handler Control and State Register Definitions */
 566:Generated_Source\PSoC6\pdl\cmsis/include/core_cm4.h **** #define SCB_SHCSR_USGFAULTENA_Pos          18U                                            /*!< SCB 
 567:Generated_Source\PSoC6\pdl\cmsis/include/core_cm4.h **** #define SCB_SHCSR_USGFAULTENA_Msk          (1UL << SCB_SHCSR_USGFAULTENA_Pos)             /*!< SCB 
 568:Generated_Source\PSoC6\pdl\cmsis/include/core_cm4.h **** 
 569:Generated_Source\PSoC6\pdl\cmsis/include/core_cm4.h **** #define SCB_SHCSR_BUSFAULTENA_Pos          17U                                            /*!< SCB 
 570:Generated_Source\PSoC6\pdl\cmsis/include/core_cm4.h **** #define SCB_SHCSR_BUSFAULTENA_Msk          (1UL << SCB_SHCSR_BUSFAULTENA_Pos)             /*!< SCB 
 571:Generated_Source\PSoC6\pdl\cmsis/include/core_cm4.h **** 
 572:Generated_Source\PSoC6\pdl\cmsis/include/core_cm4.h **** #define SCB_SHCSR_MEMFAULTENA_Pos          16U                                            /*!< SCB 
ARM GAS  C:\Users\gjl\AppData\Local\Temp\ccMETlfj.s 			page 18


 573:Generated_Source\PSoC6\pdl\cmsis/include/core_cm4.h **** #define SCB_SHCSR_MEMFAULTENA_Msk          (1UL << SCB_SHCSR_MEMFAULTENA_Pos)             /*!< SCB 
 574:Generated_Source\PSoC6\pdl\cmsis/include/core_cm4.h **** 
 575:Generated_Source\PSoC6\pdl\cmsis/include/core_cm4.h **** #define SCB_SHCSR_SVCALLPENDED_Pos         15U                                            /*!< SCB 
 576:Generated_Source\PSoC6\pdl\cmsis/include/core_cm4.h **** #define SCB_SHCSR_SVCALLPENDED_Msk         (1UL << SCB_SHCSR_SVCALLPENDED_Pos)            /*!< SCB 
 577:Generated_Source\PSoC6\pdl\cmsis/include/core_cm4.h **** 
 578:Generated_Source\PSoC6\pdl\cmsis/include/core_cm4.h **** #define SCB_SHCSR_BUSFAULTPENDED_Pos       14U                                            /*!< SCB 
 579:Generated_Source\PSoC6\pdl\cmsis/include/core_cm4.h **** #define SCB_SHCSR_BUSFAULTPENDED_Msk       (1UL << SCB_SHCSR_BUSFAULTPENDED_Pos)          /*!< SCB 
 580:Generated_Source\PSoC6\pdl\cmsis/include/core_cm4.h **** 
 581:Generated_Source\PSoC6\pdl\cmsis/include/core_cm4.h **** #define SCB_SHCSR_MEMFAULTPENDED_Pos       13U                                            /*!< SCB 
 582:Generated_Source\PSoC6\pdl\cmsis/include/core_cm4.h **** #define SCB_SHCSR_MEMFAULTPENDED_Msk       (1UL << SCB_SHCSR_MEMFAULTPENDED_Pos)          /*!< SCB 
 583:Generated_Source\PSoC6\pdl\cmsis/include/core_cm4.h **** 
 584:Generated_Source\PSoC6\pdl\cmsis/include/core_cm4.h **** #define SCB_SHCSR_USGFAULTPENDED_Pos       12U                                            /*!< SCB 
 585:Generated_Source\PSoC6\pdl\cmsis/include/core_cm4.h **** #define SCB_SHCSR_USGFAULTPENDED_Msk       (1UL << SCB_SHCSR_USGFAULTPENDED_Pos)          /*!< SCB 
 586:Generated_Source\PSoC6\pdl\cmsis/include/core_cm4.h **** 
 587:Generated_Source\PSoC6\pdl\cmsis/include/core_cm4.h **** #define SCB_SHCSR_SYSTICKACT_Pos           11U                                            /*!< SCB 
 588:Generated_Source\PSoC6\pdl\cmsis/include/core_cm4.h **** #define SCB_SHCSR_SYSTICKACT_Msk           (1UL << SCB_SHCSR_SYSTICKACT_Pos)              /*!< SCB 
 589:Generated_Source\PSoC6\pdl\cmsis/include/core_cm4.h **** 
 590:Generated_Source\PSoC6\pdl\cmsis/include/core_cm4.h **** #define SCB_SHCSR_PENDSVACT_Pos            10U                                            /*!< SCB 
 591:Generated_Source\PSoC6\pdl\cmsis/include/core_cm4.h **** #define SCB_SHCSR_PENDSVACT_Msk            (1UL << SCB_SHCSR_PENDSVACT_Pos)               /*!< SCB 
 592:Generated_Source\PSoC6\pdl\cmsis/include/core_cm4.h **** 
 593:Generated_Source\PSoC6\pdl\cmsis/include/core_cm4.h **** #define SCB_SHCSR_MONITORACT_Pos            8U                                            /*!< SCB 
 594:Generated_Source\PSoC6\pdl\cmsis/include/core_cm4.h **** #define SCB_SHCSR_MONITORACT_Msk           (1UL << SCB_SHCSR_MONITORACT_Pos)              /*!< SCB 
 595:Generated_Source\PSoC6\pdl\cmsis/include/core_cm4.h **** 
 596:Generated_Source\PSoC6\pdl\cmsis/include/core_cm4.h **** #define SCB_SHCSR_SVCALLACT_Pos             7U                                            /*!< SCB 
 597:Generated_Source\PSoC6\pdl\cmsis/include/core_cm4.h **** #define SCB_SHCSR_SVCALLACT_Msk            (1UL << SCB_SHCSR_SVCALLACT_Pos)               /*!< SCB 
 598:Generated_Source\PSoC6\pdl\cmsis/include/core_cm4.h **** 
 599:Generated_Source\PSoC6\pdl\cmsis/include/core_cm4.h **** #define SCB_SHCSR_USGFAULTACT_Pos           3U                                            /*!< SCB 
 600:Generated_Source\PSoC6\pdl\cmsis/include/core_cm4.h **** #define SCB_SHCSR_USGFAULTACT_Msk          (1UL << SCB_SHCSR_USGFAULTACT_Pos)             /*!< SCB 
 601:Generated_Source\PSoC6\pdl\cmsis/include/core_cm4.h **** 
 602:Generated_Source\PSoC6\pdl\cmsis/include/core_cm4.h **** #define SCB_SHCSR_BUSFAULTACT_Pos           1U                                            /*!< SCB 
 603:Generated_Source\PSoC6\pdl\cmsis/include/core_cm4.h **** #define SCB_SHCSR_BUSFAULTACT_Msk          (1UL << SCB_SHCSR_BUSFAULTACT_Pos)             /*!< SCB 
 604:Generated_Source\PSoC6\pdl\cmsis/include/core_cm4.h **** 
 605:Generated_Source\PSoC6\pdl\cmsis/include/core_cm4.h **** #define SCB_SHCSR_MEMFAULTACT_Pos           0U                                            /*!< SCB 
 606:Generated_Source\PSoC6\pdl\cmsis/include/core_cm4.h **** #define SCB_SHCSR_MEMFAULTACT_Msk          (1UL /*<< SCB_SHCSR_MEMFAULTACT_Pos*/)         /*!< SCB 
 607:Generated_Source\PSoC6\pdl\cmsis/include/core_cm4.h **** 
 608:Generated_Source\PSoC6\pdl\cmsis/include/core_cm4.h **** /* SCB Configurable Fault Status Register Definitions */
 609:Generated_Source\PSoC6\pdl\cmsis/include/core_cm4.h **** #define SCB_CFSR_USGFAULTSR_Pos            16U                                            /*!< SCB 
 610:Generated_Source\PSoC6\pdl\cmsis/include/core_cm4.h **** #define SCB_CFSR_USGFAULTSR_Msk            (0xFFFFUL << SCB_CFSR_USGFAULTSR_Pos)          /*!< SCB 
 611:Generated_Source\PSoC6\pdl\cmsis/include/core_cm4.h **** 
 612:Generated_Source\PSoC6\pdl\cmsis/include/core_cm4.h **** #define SCB_CFSR_BUSFAULTSR_Pos             8U                                            /*!< SCB 
 613:Generated_Source\PSoC6\pdl\cmsis/include/core_cm4.h **** #define SCB_CFSR_BUSFAULTSR_Msk            (0xFFUL << SCB_CFSR_BUSFAULTSR_Pos)            /*!< SCB 
 614:Generated_Source\PSoC6\pdl\cmsis/include/core_cm4.h **** 
 615:Generated_Source\PSoC6\pdl\cmsis/include/core_cm4.h **** #define SCB_CFSR_MEMFAULTSR_Pos             0U                                            /*!< SCB 
 616:Generated_Source\PSoC6\pdl\cmsis/include/core_cm4.h **** #define SCB_CFSR_MEMFAULTSR_Msk            (0xFFUL /*<< SCB_CFSR_MEMFAULTSR_Pos*/)        /*!< SCB 
 617:Generated_Source\PSoC6\pdl\cmsis/include/core_cm4.h **** 
 618:Generated_Source\PSoC6\pdl\cmsis/include/core_cm4.h **** /* MemManage Fault Status Register (part of SCB Configurable Fault Status Register) */
 619:Generated_Source\PSoC6\pdl\cmsis/include/core_cm4.h **** #define SCB_CFSR_MMARVALID_Pos             (SCB_SHCSR_MEMFAULTACT_Pos + 7U)               /*!< SCB 
 620:Generated_Source\PSoC6\pdl\cmsis/include/core_cm4.h **** #define SCB_CFSR_MMARVALID_Msk             (1UL << SCB_CFSR_MMARVALID_Pos)                /*!< SCB 
 621:Generated_Source\PSoC6\pdl\cmsis/include/core_cm4.h **** 
 622:Generated_Source\PSoC6\pdl\cmsis/include/core_cm4.h **** #define SCB_CFSR_MLSPERR_Pos               (SCB_SHCSR_MEMFAULTACT_Pos + 5U)               /*!< SCB 
 623:Generated_Source\PSoC6\pdl\cmsis/include/core_cm4.h **** #define SCB_CFSR_MLSPERR_Msk               (1UL << SCB_CFSR_MLSPERR_Pos)                  /*!< SCB 
 624:Generated_Source\PSoC6\pdl\cmsis/include/core_cm4.h **** 
 625:Generated_Source\PSoC6\pdl\cmsis/include/core_cm4.h **** #define SCB_CFSR_MSTKERR_Pos               (SCB_SHCSR_MEMFAULTACT_Pos + 4U)               /*!< SCB 
 626:Generated_Source\PSoC6\pdl\cmsis/include/core_cm4.h **** #define SCB_CFSR_MSTKERR_Msk               (1UL << SCB_CFSR_MSTKERR_Pos)                  /*!< SCB 
 627:Generated_Source\PSoC6\pdl\cmsis/include/core_cm4.h **** 
 628:Generated_Source\PSoC6\pdl\cmsis/include/core_cm4.h **** #define SCB_CFSR_MUNSTKERR_Pos             (SCB_SHCSR_MEMFAULTACT_Pos + 3U)               /*!< SCB 
 629:Generated_Source\PSoC6\pdl\cmsis/include/core_cm4.h **** #define SCB_CFSR_MUNSTKERR_Msk             (1UL << SCB_CFSR_MUNSTKERR_Pos)                /*!< SCB 
ARM GAS  C:\Users\gjl\AppData\Local\Temp\ccMETlfj.s 			page 19


 630:Generated_Source\PSoC6\pdl\cmsis/include/core_cm4.h **** 
 631:Generated_Source\PSoC6\pdl\cmsis/include/core_cm4.h **** #define SCB_CFSR_DACCVIOL_Pos              (SCB_SHCSR_MEMFAULTACT_Pos + 1U)               /*!< SCB 
 632:Generated_Source\PSoC6\pdl\cmsis/include/core_cm4.h **** #define SCB_CFSR_DACCVIOL_Msk              (1UL << SCB_CFSR_DACCVIOL_Pos)                 /*!< SCB 
 633:Generated_Source\PSoC6\pdl\cmsis/include/core_cm4.h **** 
 634:Generated_Source\PSoC6\pdl\cmsis/include/core_cm4.h **** #define SCB_CFSR_IACCVIOL_Pos              (SCB_SHCSR_MEMFAULTACT_Pos + 0U)               /*!< SCB 
 635:Generated_Source\PSoC6\pdl\cmsis/include/core_cm4.h **** #define SCB_CFSR_IACCVIOL_Msk              (1UL /*<< SCB_CFSR_IACCVIOL_Pos*/)             /*!< SCB 
 636:Generated_Source\PSoC6\pdl\cmsis/include/core_cm4.h **** 
 637:Generated_Source\PSoC6\pdl\cmsis/include/core_cm4.h **** /* BusFault Status Register (part of SCB Configurable Fault Status Register) */
 638:Generated_Source\PSoC6\pdl\cmsis/include/core_cm4.h **** #define SCB_CFSR_BFARVALID_Pos            (SCB_CFSR_BUSFAULTSR_Pos + 7U)                  /*!< SCB 
 639:Generated_Source\PSoC6\pdl\cmsis/include/core_cm4.h **** #define SCB_CFSR_BFARVALID_Msk            (1UL << SCB_CFSR_BFARVALID_Pos)                 /*!< SCB 
 640:Generated_Source\PSoC6\pdl\cmsis/include/core_cm4.h **** 
 641:Generated_Source\PSoC6\pdl\cmsis/include/core_cm4.h **** #define SCB_CFSR_LSPERR_Pos               (SCB_CFSR_BUSFAULTSR_Pos + 5U)                  /*!< SCB 
 642:Generated_Source\PSoC6\pdl\cmsis/include/core_cm4.h **** #define SCB_CFSR_LSPERR_Msk               (1UL << SCB_CFSR_LSPERR_Pos)                    /*!< SCB 
 643:Generated_Source\PSoC6\pdl\cmsis/include/core_cm4.h **** 
 644:Generated_Source\PSoC6\pdl\cmsis/include/core_cm4.h **** #define SCB_CFSR_STKERR_Pos               (SCB_CFSR_BUSFAULTSR_Pos + 4U)                  /*!< SCB 
 645:Generated_Source\PSoC6\pdl\cmsis/include/core_cm4.h **** #define SCB_CFSR_STKERR_Msk               (1UL << SCB_CFSR_STKERR_Pos)                    /*!< SCB 
 646:Generated_Source\PSoC6\pdl\cmsis/include/core_cm4.h **** 
 647:Generated_Source\PSoC6\pdl\cmsis/include/core_cm4.h **** #define SCB_CFSR_UNSTKERR_Pos             (SCB_CFSR_BUSFAULTSR_Pos + 3U)                  /*!< SCB 
 648:Generated_Source\PSoC6\pdl\cmsis/include/core_cm4.h **** #define SCB_CFSR_UNSTKERR_Msk             (1UL << SCB_CFSR_UNSTKERR_Pos)                  /*!< SCB 
 649:Generated_Source\PSoC6\pdl\cmsis/include/core_cm4.h **** 
 650:Generated_Source\PSoC6\pdl\cmsis/include/core_cm4.h **** #define SCB_CFSR_IMPRECISERR_Pos          (SCB_CFSR_BUSFAULTSR_Pos + 2U)                  /*!< SCB 
 651:Generated_Source\PSoC6\pdl\cmsis/include/core_cm4.h **** #define SCB_CFSR_IMPRECISERR_Msk          (1UL << SCB_CFSR_IMPRECISERR_Pos)               /*!< SCB 
 652:Generated_Source\PSoC6\pdl\cmsis/include/core_cm4.h **** 
 653:Generated_Source\PSoC6\pdl\cmsis/include/core_cm4.h **** #define SCB_CFSR_PRECISERR_Pos            (SCB_CFSR_BUSFAULTSR_Pos + 1U)                  /*!< SCB 
 654:Generated_Source\PSoC6\pdl\cmsis/include/core_cm4.h **** #define SCB_CFSR_PRECISERR_Msk            (1UL << SCB_CFSR_PRECISERR_Pos)                 /*!< SCB 
 655:Generated_Source\PSoC6\pdl\cmsis/include/core_cm4.h **** 
 656:Generated_Source\PSoC6\pdl\cmsis/include/core_cm4.h **** #define SCB_CFSR_IBUSERR_Pos              (SCB_CFSR_BUSFAULTSR_Pos + 0U)                  /*!< SCB 
 657:Generated_Source\PSoC6\pdl\cmsis/include/core_cm4.h **** #define SCB_CFSR_IBUSERR_Msk              (1UL << SCB_CFSR_IBUSERR_Pos)                   /*!< SCB 
 658:Generated_Source\PSoC6\pdl\cmsis/include/core_cm4.h **** 
 659:Generated_Source\PSoC6\pdl\cmsis/include/core_cm4.h **** /* UsageFault Status Register (part of SCB Configurable Fault Status Register) */
 660:Generated_Source\PSoC6\pdl\cmsis/include/core_cm4.h **** #define SCB_CFSR_DIVBYZERO_Pos            (SCB_CFSR_USGFAULTSR_Pos + 9U)                  /*!< SCB 
 661:Generated_Source\PSoC6\pdl\cmsis/include/core_cm4.h **** #define SCB_CFSR_DIVBYZERO_Msk            (1UL << SCB_CFSR_DIVBYZERO_Pos)                 /*!< SCB 
 662:Generated_Source\PSoC6\pdl\cmsis/include/core_cm4.h **** 
 663:Generated_Source\PSoC6\pdl\cmsis/include/core_cm4.h **** #define SCB_CFSR_UNALIGNED_Pos            (SCB_CFSR_USGFAULTSR_Pos + 8U)                  /*!< SCB 
 664:Generated_Source\PSoC6\pdl\cmsis/include/core_cm4.h **** #define SCB_CFSR_UNALIGNED_Msk            (1UL << SCB_CFSR_UNALIGNED_Pos)                 /*!< SCB 
 665:Generated_Source\PSoC6\pdl\cmsis/include/core_cm4.h **** 
 666:Generated_Source\PSoC6\pdl\cmsis/include/core_cm4.h **** #define SCB_CFSR_NOCP_Pos                 (SCB_CFSR_USGFAULTSR_Pos + 3U)                  /*!< SCB 
 667:Generated_Source\PSoC6\pdl\cmsis/include/core_cm4.h **** #define SCB_CFSR_NOCP_Msk                 (1UL << SCB_CFSR_NOCP_Pos)                      /*!< SCB 
 668:Generated_Source\PSoC6\pdl\cmsis/include/core_cm4.h **** 
 669:Generated_Source\PSoC6\pdl\cmsis/include/core_cm4.h **** #define SCB_CFSR_INVPC_Pos                (SCB_CFSR_USGFAULTSR_Pos + 2U)                  /*!< SCB 
 670:Generated_Source\PSoC6\pdl\cmsis/include/core_cm4.h **** #define SCB_CFSR_INVPC_Msk                (1UL << SCB_CFSR_INVPC_Pos)                     /*!< SCB 
 671:Generated_Source\PSoC6\pdl\cmsis/include/core_cm4.h **** 
 672:Generated_Source\PSoC6\pdl\cmsis/include/core_cm4.h **** #define SCB_CFSR_INVSTATE_Pos             (SCB_CFSR_USGFAULTSR_Pos + 1U)                  /*!< SCB 
 673:Generated_Source\PSoC6\pdl\cmsis/include/core_cm4.h **** #define SCB_CFSR_INVSTATE_Msk             (1UL << SCB_CFSR_INVSTATE_Pos)                  /*!< SCB 
 674:Generated_Source\PSoC6\pdl\cmsis/include/core_cm4.h **** 
 675:Generated_Source\PSoC6\pdl\cmsis/include/core_cm4.h **** #define SCB_CFSR_UNDEFINSTR_Pos           (SCB_CFSR_USGFAULTSR_Pos + 0U)                  /*!< SCB 
 676:Generated_Source\PSoC6\pdl\cmsis/include/core_cm4.h **** #define SCB_CFSR_UNDEFINSTR_Msk           (1UL << SCB_CFSR_UNDEFINSTR_Pos)                /*!< SCB 
 677:Generated_Source\PSoC6\pdl\cmsis/include/core_cm4.h **** 
 678:Generated_Source\PSoC6\pdl\cmsis/include/core_cm4.h **** /* SCB Hard Fault Status Register Definitions */
 679:Generated_Source\PSoC6\pdl\cmsis/include/core_cm4.h **** #define SCB_HFSR_DEBUGEVT_Pos              31U                                            /*!< SCB 
 680:Generated_Source\PSoC6\pdl\cmsis/include/core_cm4.h **** #define SCB_HFSR_DEBUGEVT_Msk              (1UL << SCB_HFSR_DEBUGEVT_Pos)                 /*!< SCB 
 681:Generated_Source\PSoC6\pdl\cmsis/include/core_cm4.h **** 
 682:Generated_Source\PSoC6\pdl\cmsis/include/core_cm4.h **** #define SCB_HFSR_FORCED_Pos                30U                                            /*!< SCB 
 683:Generated_Source\PSoC6\pdl\cmsis/include/core_cm4.h **** #define SCB_HFSR_FORCED_Msk                (1UL << SCB_HFSR_FORCED_Pos)                   /*!< SCB 
 684:Generated_Source\PSoC6\pdl\cmsis/include/core_cm4.h **** 
 685:Generated_Source\PSoC6\pdl\cmsis/include/core_cm4.h **** #define SCB_HFSR_VECTTBL_Pos                1U                                            /*!< SCB 
 686:Generated_Source\PSoC6\pdl\cmsis/include/core_cm4.h **** #define SCB_HFSR_VECTTBL_Msk               (1UL << SCB_HFSR_VECTTBL_Pos)                  /*!< SCB 
ARM GAS  C:\Users\gjl\AppData\Local\Temp\ccMETlfj.s 			page 20


 687:Generated_Source\PSoC6\pdl\cmsis/include/core_cm4.h **** 
 688:Generated_Source\PSoC6\pdl\cmsis/include/core_cm4.h **** /* SCB Debug Fault Status Register Definitions */
 689:Generated_Source\PSoC6\pdl\cmsis/include/core_cm4.h **** #define SCB_DFSR_EXTERNAL_Pos               4U                                            /*!< SCB 
 690:Generated_Source\PSoC6\pdl\cmsis/include/core_cm4.h **** #define SCB_DFSR_EXTERNAL_Msk              (1UL << SCB_DFSR_EXTERNAL_Pos)                 /*!< SCB 
 691:Generated_Source\PSoC6\pdl\cmsis/include/core_cm4.h **** 
 692:Generated_Source\PSoC6\pdl\cmsis/include/core_cm4.h **** #define SCB_DFSR_VCATCH_Pos                 3U                                            /*!< SCB 
 693:Generated_Source\PSoC6\pdl\cmsis/include/core_cm4.h **** #define SCB_DFSR_VCATCH_Msk                (1UL << SCB_DFSR_VCATCH_Pos)                   /*!< SCB 
 694:Generated_Source\PSoC6\pdl\cmsis/include/core_cm4.h **** 
 695:Generated_Source\PSoC6\pdl\cmsis/include/core_cm4.h **** #define SCB_DFSR_DWTTRAP_Pos                2U                                            /*!< SCB 
 696:Generated_Source\PSoC6\pdl\cmsis/include/core_cm4.h **** #define SCB_DFSR_DWTTRAP_Msk               (1UL << SCB_DFSR_DWTTRAP_Pos)                  /*!< SCB 
 697:Generated_Source\PSoC6\pdl\cmsis/include/core_cm4.h **** 
 698:Generated_Source\PSoC6\pdl\cmsis/include/core_cm4.h **** #define SCB_DFSR_BKPT_Pos                   1U                                            /*!< SCB 
 699:Generated_Source\PSoC6\pdl\cmsis/include/core_cm4.h **** #define SCB_DFSR_BKPT_Msk                  (1UL << SCB_DFSR_BKPT_Pos)                     /*!< SCB 
 700:Generated_Source\PSoC6\pdl\cmsis/include/core_cm4.h **** 
 701:Generated_Source\PSoC6\pdl\cmsis/include/core_cm4.h **** #define SCB_DFSR_HALTED_Pos                 0U                                            /*!< SCB 
 702:Generated_Source\PSoC6\pdl\cmsis/include/core_cm4.h **** #define SCB_DFSR_HALTED_Msk                (1UL /*<< SCB_DFSR_HALTED_Pos*/)               /*!< SCB 
 703:Generated_Source\PSoC6\pdl\cmsis/include/core_cm4.h **** 
 704:Generated_Source\PSoC6\pdl\cmsis/include/core_cm4.h **** /*@} end of group CMSIS_SCB */
 705:Generated_Source\PSoC6\pdl\cmsis/include/core_cm4.h **** 
 706:Generated_Source\PSoC6\pdl\cmsis/include/core_cm4.h **** 
 707:Generated_Source\PSoC6\pdl\cmsis/include/core_cm4.h **** /**
 708:Generated_Source\PSoC6\pdl\cmsis/include/core_cm4.h ****   \ingroup  CMSIS_core_register
 709:Generated_Source\PSoC6\pdl\cmsis/include/core_cm4.h ****   \defgroup CMSIS_SCnSCB System Controls not in SCB (SCnSCB)
 710:Generated_Source\PSoC6\pdl\cmsis/include/core_cm4.h ****   \brief    Type definitions for the System Control and ID Register not in the SCB
 711:Generated_Source\PSoC6\pdl\cmsis/include/core_cm4.h ****   @{
 712:Generated_Source\PSoC6\pdl\cmsis/include/core_cm4.h ****  */
 713:Generated_Source\PSoC6\pdl\cmsis/include/core_cm4.h **** 
 714:Generated_Source\PSoC6\pdl\cmsis/include/core_cm4.h **** /**
 715:Generated_Source\PSoC6\pdl\cmsis/include/core_cm4.h ****   \brief  Structure type to access the System Control and ID Register not in the SCB.
 716:Generated_Source\PSoC6\pdl\cmsis/include/core_cm4.h ****  */
 717:Generated_Source\PSoC6\pdl\cmsis/include/core_cm4.h **** typedef struct
 718:Generated_Source\PSoC6\pdl\cmsis/include/core_cm4.h **** {
 719:Generated_Source\PSoC6\pdl\cmsis/include/core_cm4.h ****         uint32_t RESERVED0[1U];
 720:Generated_Source\PSoC6\pdl\cmsis/include/core_cm4.h ****   __IM  uint32_t ICTR;                   /*!< Offset: 0x004 (R/ )  Interrupt Controller Type Regist
 721:Generated_Source\PSoC6\pdl\cmsis/include/core_cm4.h ****   __IOM uint32_t ACTLR;                  /*!< Offset: 0x008 (R/W)  Auxiliary Control Register */
 722:Generated_Source\PSoC6\pdl\cmsis/include/core_cm4.h **** } SCnSCB_Type;
 723:Generated_Source\PSoC6\pdl\cmsis/include/core_cm4.h **** 
 724:Generated_Source\PSoC6\pdl\cmsis/include/core_cm4.h **** /* Interrupt Controller Type Register Definitions */
 725:Generated_Source\PSoC6\pdl\cmsis/include/core_cm4.h **** #define SCnSCB_ICTR_INTLINESNUM_Pos         0U                                         /*!< ICTR: I
 726:Generated_Source\PSoC6\pdl\cmsis/include/core_cm4.h **** #define SCnSCB_ICTR_INTLINESNUM_Msk        (0xFUL /*<< SCnSCB_ICTR_INTLINESNUM_Pos*/)  /*!< ICTR: I
 727:Generated_Source\PSoC6\pdl\cmsis/include/core_cm4.h **** 
 728:Generated_Source\PSoC6\pdl\cmsis/include/core_cm4.h **** /* Auxiliary Control Register Definitions */
 729:Generated_Source\PSoC6\pdl\cmsis/include/core_cm4.h **** #define SCnSCB_ACTLR_DISOOFP_Pos            9U                                         /*!< ACTLR: 
 730:Generated_Source\PSoC6\pdl\cmsis/include/core_cm4.h **** #define SCnSCB_ACTLR_DISOOFP_Msk           (1UL << SCnSCB_ACTLR_DISOOFP_Pos)           /*!< ACTLR: 
 731:Generated_Source\PSoC6\pdl\cmsis/include/core_cm4.h **** 
 732:Generated_Source\PSoC6\pdl\cmsis/include/core_cm4.h **** #define SCnSCB_ACTLR_DISFPCA_Pos            8U                                         /*!< ACTLR: 
 733:Generated_Source\PSoC6\pdl\cmsis/include/core_cm4.h **** #define SCnSCB_ACTLR_DISFPCA_Msk           (1UL << SCnSCB_ACTLR_DISFPCA_Pos)           /*!< ACTLR: 
 734:Generated_Source\PSoC6\pdl\cmsis/include/core_cm4.h **** 
 735:Generated_Source\PSoC6\pdl\cmsis/include/core_cm4.h **** #define SCnSCB_ACTLR_DISFOLD_Pos            2U                                         /*!< ACTLR: 
 736:Generated_Source\PSoC6\pdl\cmsis/include/core_cm4.h **** #define SCnSCB_ACTLR_DISFOLD_Msk           (1UL << SCnSCB_ACTLR_DISFOLD_Pos)           /*!< ACTLR: 
 737:Generated_Source\PSoC6\pdl\cmsis/include/core_cm4.h **** 
 738:Generated_Source\PSoC6\pdl\cmsis/include/core_cm4.h **** #define SCnSCB_ACTLR_DISDEFWBUF_Pos         1U                                         /*!< ACTLR: 
 739:Generated_Source\PSoC6\pdl\cmsis/include/core_cm4.h **** #define SCnSCB_ACTLR_DISDEFWBUF_Msk        (1UL << SCnSCB_ACTLR_DISDEFWBUF_Pos)        /*!< ACTLR: 
 740:Generated_Source\PSoC6\pdl\cmsis/include/core_cm4.h **** 
 741:Generated_Source\PSoC6\pdl\cmsis/include/core_cm4.h **** #define SCnSCB_ACTLR_DISMCYCINT_Pos         0U                                         /*!< ACTLR: 
 742:Generated_Source\PSoC6\pdl\cmsis/include/core_cm4.h **** #define SCnSCB_ACTLR_DISMCYCINT_Msk        (1UL /*<< SCnSCB_ACTLR_DISMCYCINT_Pos*/)    /*!< ACTLR: 
 743:Generated_Source\PSoC6\pdl\cmsis/include/core_cm4.h **** 
ARM GAS  C:\Users\gjl\AppData\Local\Temp\ccMETlfj.s 			page 21


 744:Generated_Source\PSoC6\pdl\cmsis/include/core_cm4.h **** /*@} end of group CMSIS_SCnotSCB */
 745:Generated_Source\PSoC6\pdl\cmsis/include/core_cm4.h **** 
 746:Generated_Source\PSoC6\pdl\cmsis/include/core_cm4.h **** 
 747:Generated_Source\PSoC6\pdl\cmsis/include/core_cm4.h **** /**
 748:Generated_Source\PSoC6\pdl\cmsis/include/core_cm4.h ****   \ingroup  CMSIS_core_register
 749:Generated_Source\PSoC6\pdl\cmsis/include/core_cm4.h ****   \defgroup CMSIS_SysTick     System Tick Timer (SysTick)
 750:Generated_Source\PSoC6\pdl\cmsis/include/core_cm4.h ****   \brief    Type definitions for the System Timer Registers.
 751:Generated_Source\PSoC6\pdl\cmsis/include/core_cm4.h ****   @{
 752:Generated_Source\PSoC6\pdl\cmsis/include/core_cm4.h ****  */
 753:Generated_Source\PSoC6\pdl\cmsis/include/core_cm4.h **** 
 754:Generated_Source\PSoC6\pdl\cmsis/include/core_cm4.h **** /**
 755:Generated_Source\PSoC6\pdl\cmsis/include/core_cm4.h ****   \brief  Structure type to access the System Timer (SysTick).
 756:Generated_Source\PSoC6\pdl\cmsis/include/core_cm4.h ****  */
 757:Generated_Source\PSoC6\pdl\cmsis/include/core_cm4.h **** typedef struct
 758:Generated_Source\PSoC6\pdl\cmsis/include/core_cm4.h **** {
 759:Generated_Source\PSoC6\pdl\cmsis/include/core_cm4.h ****   __IOM uint32_t CTRL;                   /*!< Offset: 0x000 (R/W)  SysTick Control and Status Regis
 760:Generated_Source\PSoC6\pdl\cmsis/include/core_cm4.h ****   __IOM uint32_t LOAD;                   /*!< Offset: 0x004 (R/W)  SysTick Reload Value Register */
 761:Generated_Source\PSoC6\pdl\cmsis/include/core_cm4.h ****   __IOM uint32_t VAL;                    /*!< Offset: 0x008 (R/W)  SysTick Current Value Register *
 762:Generated_Source\PSoC6\pdl\cmsis/include/core_cm4.h ****   __IM  uint32_t CALIB;                  /*!< Offset: 0x00C (R/ )  SysTick Calibration Register */
 763:Generated_Source\PSoC6\pdl\cmsis/include/core_cm4.h **** } SysTick_Type;
 764:Generated_Source\PSoC6\pdl\cmsis/include/core_cm4.h **** 
 765:Generated_Source\PSoC6\pdl\cmsis/include/core_cm4.h **** /* SysTick Control / Status Register Definitions */
 766:Generated_Source\PSoC6\pdl\cmsis/include/core_cm4.h **** #define SysTick_CTRL_COUNTFLAG_Pos         16U                                            /*!< SysT
 767:Generated_Source\PSoC6\pdl\cmsis/include/core_cm4.h **** #define SysTick_CTRL_COUNTFLAG_Msk         (1UL << SysTick_CTRL_COUNTFLAG_Pos)            /*!< SysT
 768:Generated_Source\PSoC6\pdl\cmsis/include/core_cm4.h **** 
 769:Generated_Source\PSoC6\pdl\cmsis/include/core_cm4.h **** #define SysTick_CTRL_CLKSOURCE_Pos          2U                                            /*!< SysT
 770:Generated_Source\PSoC6\pdl\cmsis/include/core_cm4.h **** #define SysTick_CTRL_CLKSOURCE_Msk         (1UL << SysTick_CTRL_CLKSOURCE_Pos)            /*!< SysT
 771:Generated_Source\PSoC6\pdl\cmsis/include/core_cm4.h **** 
 772:Generated_Source\PSoC6\pdl\cmsis/include/core_cm4.h **** #define SysTick_CTRL_TICKINT_Pos            1U                                            /*!< SysT
 773:Generated_Source\PSoC6\pdl\cmsis/include/core_cm4.h **** #define SysTick_CTRL_TICKINT_Msk           (1UL << SysTick_CTRL_TICKINT_Pos)              /*!< SysT
 774:Generated_Source\PSoC6\pdl\cmsis/include/core_cm4.h **** 
 775:Generated_Source\PSoC6\pdl\cmsis/include/core_cm4.h **** #define SysTick_CTRL_ENABLE_Pos             0U                                            /*!< SysT
 776:Generated_Source\PSoC6\pdl\cmsis/include/core_cm4.h **** #define SysTick_CTRL_ENABLE_Msk            (1UL /*<< SysTick_CTRL_ENABLE_Pos*/)           /*!< SysT
 777:Generated_Source\PSoC6\pdl\cmsis/include/core_cm4.h **** 
 778:Generated_Source\PSoC6\pdl\cmsis/include/core_cm4.h **** /* SysTick Reload Register Definitions */
 779:Generated_Source\PSoC6\pdl\cmsis/include/core_cm4.h **** #define SysTick_LOAD_RELOAD_Pos             0U                                            /*!< SysT
 780:Generated_Source\PSoC6\pdl\cmsis/include/core_cm4.h **** #define SysTick_LOAD_RELOAD_Msk            (0xFFFFFFUL /*<< SysTick_LOAD_RELOAD_Pos*/)    /*!< SysT
 781:Generated_Source\PSoC6\pdl\cmsis/include/core_cm4.h **** 
 782:Generated_Source\PSoC6\pdl\cmsis/include/core_cm4.h **** /* SysTick Current Register Definitions */
 783:Generated_Source\PSoC6\pdl\cmsis/include/core_cm4.h **** #define SysTick_VAL_CURRENT_Pos             0U                                            /*!< SysT
 784:Generated_Source\PSoC6\pdl\cmsis/include/core_cm4.h **** #define SysTick_VAL_CURRENT_Msk            (0xFFFFFFUL /*<< SysTick_VAL_CURRENT_Pos*/)    /*!< SysT
 785:Generated_Source\PSoC6\pdl\cmsis/include/core_cm4.h **** 
 786:Generated_Source\PSoC6\pdl\cmsis/include/core_cm4.h **** /* SysTick Calibration Register Definitions */
 787:Generated_Source\PSoC6\pdl\cmsis/include/core_cm4.h **** #define SysTick_CALIB_NOREF_Pos            31U                                            /*!< SysT
 788:Generated_Source\PSoC6\pdl\cmsis/include/core_cm4.h **** #define SysTick_CALIB_NOREF_Msk            (1UL << SysTick_CALIB_NOREF_Pos)               /*!< SysT
 789:Generated_Source\PSoC6\pdl\cmsis/include/core_cm4.h **** 
 790:Generated_Source\PSoC6\pdl\cmsis/include/core_cm4.h **** #define SysTick_CALIB_SKEW_Pos             30U                                            /*!< SysT
 791:Generated_Source\PSoC6\pdl\cmsis/include/core_cm4.h **** #define SysTick_CALIB_SKEW_Msk             (1UL << SysTick_CALIB_SKEW_Pos)                /*!< SysT
 792:Generated_Source\PSoC6\pdl\cmsis/include/core_cm4.h **** 
 793:Generated_Source\PSoC6\pdl\cmsis/include/core_cm4.h **** #define SysTick_CALIB_TENMS_Pos             0U                                            /*!< SysT
 794:Generated_Source\PSoC6\pdl\cmsis/include/core_cm4.h **** #define SysTick_CALIB_TENMS_Msk            (0xFFFFFFUL /*<< SysTick_CALIB_TENMS_Pos*/)    /*!< SysT
 795:Generated_Source\PSoC6\pdl\cmsis/include/core_cm4.h **** 
 796:Generated_Source\PSoC6\pdl\cmsis/include/core_cm4.h **** /*@} end of group CMSIS_SysTick */
 797:Generated_Source\PSoC6\pdl\cmsis/include/core_cm4.h **** 
 798:Generated_Source\PSoC6\pdl\cmsis/include/core_cm4.h **** 
 799:Generated_Source\PSoC6\pdl\cmsis/include/core_cm4.h **** /**
 800:Generated_Source\PSoC6\pdl\cmsis/include/core_cm4.h ****   \ingroup  CMSIS_core_register
ARM GAS  C:\Users\gjl\AppData\Local\Temp\ccMETlfj.s 			page 22


 801:Generated_Source\PSoC6\pdl\cmsis/include/core_cm4.h ****   \defgroup CMSIS_ITM     Instrumentation Trace Macrocell (ITM)
 802:Generated_Source\PSoC6\pdl\cmsis/include/core_cm4.h ****   \brief    Type definitions for the Instrumentation Trace Macrocell (ITM)
 803:Generated_Source\PSoC6\pdl\cmsis/include/core_cm4.h ****   @{
 804:Generated_Source\PSoC6\pdl\cmsis/include/core_cm4.h ****  */
 805:Generated_Source\PSoC6\pdl\cmsis/include/core_cm4.h **** 
 806:Generated_Source\PSoC6\pdl\cmsis/include/core_cm4.h **** /**
 807:Generated_Source\PSoC6\pdl\cmsis/include/core_cm4.h ****   \brief  Structure type to access the Instrumentation Trace Macrocell Register (ITM).
 808:Generated_Source\PSoC6\pdl\cmsis/include/core_cm4.h ****  */
 809:Generated_Source\PSoC6\pdl\cmsis/include/core_cm4.h **** typedef struct
 810:Generated_Source\PSoC6\pdl\cmsis/include/core_cm4.h **** {
 811:Generated_Source\PSoC6\pdl\cmsis/include/core_cm4.h ****   __OM  union
 812:Generated_Source\PSoC6\pdl\cmsis/include/core_cm4.h ****   {
 813:Generated_Source\PSoC6\pdl\cmsis/include/core_cm4.h ****     __OM  uint8_t    u8;                 /*!< Offset: 0x000 ( /W)  ITM Stimulus Port 8-bit */
 814:Generated_Source\PSoC6\pdl\cmsis/include/core_cm4.h ****     __OM  uint16_t   u16;                /*!< Offset: 0x000 ( /W)  ITM Stimulus Port 16-bit */
 815:Generated_Source\PSoC6\pdl\cmsis/include/core_cm4.h ****     __OM  uint32_t   u32;                /*!< Offset: 0x000 ( /W)  ITM Stimulus Port 32-bit */
 816:Generated_Source\PSoC6\pdl\cmsis/include/core_cm4.h ****   }  PORT [32U];                         /*!< Offset: 0x000 ( /W)  ITM Stimulus Port Registers */
 817:Generated_Source\PSoC6\pdl\cmsis/include/core_cm4.h ****         uint32_t RESERVED0[864U];
 818:Generated_Source\PSoC6\pdl\cmsis/include/core_cm4.h ****   __IOM uint32_t TER;                    /*!< Offset: 0xE00 (R/W)  ITM Trace Enable Register */
 819:Generated_Source\PSoC6\pdl\cmsis/include/core_cm4.h ****         uint32_t RESERVED1[15U];
 820:Generated_Source\PSoC6\pdl\cmsis/include/core_cm4.h ****   __IOM uint32_t TPR;                    /*!< Offset: 0xE40 (R/W)  ITM Trace Privilege Register */
 821:Generated_Source\PSoC6\pdl\cmsis/include/core_cm4.h ****         uint32_t RESERVED2[15U];
 822:Generated_Source\PSoC6\pdl\cmsis/include/core_cm4.h ****   __IOM uint32_t TCR;                    /*!< Offset: 0xE80 (R/W)  ITM Trace Control Register */
 823:Generated_Source\PSoC6\pdl\cmsis/include/core_cm4.h ****         uint32_t RESERVED3[29U];
 824:Generated_Source\PSoC6\pdl\cmsis/include/core_cm4.h ****   __OM  uint32_t IWR;                    /*!< Offset: 0xEF8 ( /W)  ITM Integration Write Register *
 825:Generated_Source\PSoC6\pdl\cmsis/include/core_cm4.h ****   __IM  uint32_t IRR;                    /*!< Offset: 0xEFC (R/ )  ITM Integration Read Register */
 826:Generated_Source\PSoC6\pdl\cmsis/include/core_cm4.h ****   __IOM uint32_t IMCR;                   /*!< Offset: 0xF00 (R/W)  ITM Integration Mode Control Reg
 827:Generated_Source\PSoC6\pdl\cmsis/include/core_cm4.h ****         uint32_t RESERVED4[43U];
 828:Generated_Source\PSoC6\pdl\cmsis/include/core_cm4.h ****   __OM  uint32_t LAR;                    /*!< Offset: 0xFB0 ( /W)  ITM Lock Access Register */
 829:Generated_Source\PSoC6\pdl\cmsis/include/core_cm4.h ****   __IM  uint32_t LSR;                    /*!< Offset: 0xFB4 (R/ )  ITM Lock Status Register */
 830:Generated_Source\PSoC6\pdl\cmsis/include/core_cm4.h ****         uint32_t RESERVED5[6U];
 831:Generated_Source\PSoC6\pdl\cmsis/include/core_cm4.h ****   __IM  uint32_t PID4;                   /*!< Offset: 0xFD0 (R/ )  ITM Peripheral Identification Re
 832:Generated_Source\PSoC6\pdl\cmsis/include/core_cm4.h ****   __IM  uint32_t PID5;                   /*!< Offset: 0xFD4 (R/ )  ITM Peripheral Identification Re
 833:Generated_Source\PSoC6\pdl\cmsis/include/core_cm4.h ****   __IM  uint32_t PID6;                   /*!< Offset: 0xFD8 (R/ )  ITM Peripheral Identification Re
 834:Generated_Source\PSoC6\pdl\cmsis/include/core_cm4.h ****   __IM  uint32_t PID7;                   /*!< Offset: 0xFDC (R/ )  ITM Peripheral Identification Re
 835:Generated_Source\PSoC6\pdl\cmsis/include/core_cm4.h ****   __IM  uint32_t PID0;                   /*!< Offset: 0xFE0 (R/ )  ITM Peripheral Identification Re
 836:Generated_Source\PSoC6\pdl\cmsis/include/core_cm4.h ****   __IM  uint32_t PID1;                   /*!< Offset: 0xFE4 (R/ )  ITM Peripheral Identification Re
 837:Generated_Source\PSoC6\pdl\cmsis/include/core_cm4.h ****   __IM  uint32_t PID2;                   /*!< Offset: 0xFE8 (R/ )  ITM Peripheral Identification Re
 838:Generated_Source\PSoC6\pdl\cmsis/include/core_cm4.h ****   __IM  uint32_t PID3;                   /*!< Offset: 0xFEC (R/ )  ITM Peripheral Identification Re
 839:Generated_Source\PSoC6\pdl\cmsis/include/core_cm4.h ****   __IM  uint32_t CID0;                   /*!< Offset: 0xFF0 (R/ )  ITM Component  Identification Re
 840:Generated_Source\PSoC6\pdl\cmsis/include/core_cm4.h ****   __IM  uint32_t CID1;                   /*!< Offset: 0xFF4 (R/ )  ITM Component  Identification Re
 841:Generated_Source\PSoC6\pdl\cmsis/include/core_cm4.h ****   __IM  uint32_t CID2;                   /*!< Offset: 0xFF8 (R/ )  ITM Component  Identification Re
 842:Generated_Source\PSoC6\pdl\cmsis/include/core_cm4.h ****   __IM  uint32_t CID3;                   /*!< Offset: 0xFFC (R/ )  ITM Component  Identification Re
 843:Generated_Source\PSoC6\pdl\cmsis/include/core_cm4.h **** } ITM_Type;
 844:Generated_Source\PSoC6\pdl\cmsis/include/core_cm4.h **** 
 845:Generated_Source\PSoC6\pdl\cmsis/include/core_cm4.h **** /* ITM Trace Privilege Register Definitions */
 846:Generated_Source\PSoC6\pdl\cmsis/include/core_cm4.h **** #define ITM_TPR_PRIVMASK_Pos                0U                                            /*!< ITM 
 847:Generated_Source\PSoC6\pdl\cmsis/include/core_cm4.h **** #define ITM_TPR_PRIVMASK_Msk               (0xFUL /*<< ITM_TPR_PRIVMASK_Pos*/)            /*!< ITM 
 848:Generated_Source\PSoC6\pdl\cmsis/include/core_cm4.h **** 
 849:Generated_Source\PSoC6\pdl\cmsis/include/core_cm4.h **** /* ITM Trace Control Register Definitions */
 850:Generated_Source\PSoC6\pdl\cmsis/include/core_cm4.h **** #define ITM_TCR_BUSY_Pos                   23U                                            /*!< ITM 
 851:Generated_Source\PSoC6\pdl\cmsis/include/core_cm4.h **** #define ITM_TCR_BUSY_Msk                   (1UL << ITM_TCR_BUSY_Pos)                      /*!< ITM 
 852:Generated_Source\PSoC6\pdl\cmsis/include/core_cm4.h **** 
 853:Generated_Source\PSoC6\pdl\cmsis/include/core_cm4.h **** #define ITM_TCR_TraceBusID_Pos             16U                                            /*!< ITM 
 854:Generated_Source\PSoC6\pdl\cmsis/include/core_cm4.h **** #define ITM_TCR_TraceBusID_Msk             (0x7FUL << ITM_TCR_TraceBusID_Pos)             /*!< ITM 
 855:Generated_Source\PSoC6\pdl\cmsis/include/core_cm4.h **** 
 856:Generated_Source\PSoC6\pdl\cmsis/include/core_cm4.h **** #define ITM_TCR_GTSFREQ_Pos                10U                                            /*!< ITM 
 857:Generated_Source\PSoC6\pdl\cmsis/include/core_cm4.h **** #define ITM_TCR_GTSFREQ_Msk                (3UL << ITM_TCR_GTSFREQ_Pos)                   /*!< ITM 
ARM GAS  C:\Users\gjl\AppData\Local\Temp\ccMETlfj.s 			page 23


 858:Generated_Source\PSoC6\pdl\cmsis/include/core_cm4.h **** 
 859:Generated_Source\PSoC6\pdl\cmsis/include/core_cm4.h **** #define ITM_TCR_TSPrescale_Pos              8U                                            /*!< ITM 
 860:Generated_Source\PSoC6\pdl\cmsis/include/core_cm4.h **** #define ITM_TCR_TSPrescale_Msk             (3UL << ITM_TCR_TSPrescale_Pos)                /*!< ITM 
 861:Generated_Source\PSoC6\pdl\cmsis/include/core_cm4.h **** 
 862:Generated_Source\PSoC6\pdl\cmsis/include/core_cm4.h **** #define ITM_TCR_SWOENA_Pos                  4U                                            /*!< ITM 
 863:Generated_Source\PSoC6\pdl\cmsis/include/core_cm4.h **** #define ITM_TCR_SWOENA_Msk                 (1UL << ITM_TCR_SWOENA_Pos)                    /*!< ITM 
 864:Generated_Source\PSoC6\pdl\cmsis/include/core_cm4.h **** 
 865:Generated_Source\PSoC6\pdl\cmsis/include/core_cm4.h **** #define ITM_TCR_DWTENA_Pos                  3U                                            /*!< ITM 
 866:Generated_Source\PSoC6\pdl\cmsis/include/core_cm4.h **** #define ITM_TCR_DWTENA_Msk                 (1UL << ITM_TCR_DWTENA_Pos)                    /*!< ITM 
 867:Generated_Source\PSoC6\pdl\cmsis/include/core_cm4.h **** 
 868:Generated_Source\PSoC6\pdl\cmsis/include/core_cm4.h **** #define ITM_TCR_SYNCENA_Pos                 2U                                            /*!< ITM 
 869:Generated_Source\PSoC6\pdl\cmsis/include/core_cm4.h **** #define ITM_TCR_SYNCENA_Msk                (1UL << ITM_TCR_SYNCENA_Pos)                   /*!< ITM 
 870:Generated_Source\PSoC6\pdl\cmsis/include/core_cm4.h **** 
 871:Generated_Source\PSoC6\pdl\cmsis/include/core_cm4.h **** #define ITM_TCR_TSENA_Pos                   1U                                            /*!< ITM 
 872:Generated_Source\PSoC6\pdl\cmsis/include/core_cm4.h **** #define ITM_TCR_TSENA_Msk                  (1UL << ITM_TCR_TSENA_Pos)                     /*!< ITM 
 873:Generated_Source\PSoC6\pdl\cmsis/include/core_cm4.h **** 
 874:Generated_Source\PSoC6\pdl\cmsis/include/core_cm4.h **** #define ITM_TCR_ITMENA_Pos                  0U                                            /*!< ITM 
 875:Generated_Source\PSoC6\pdl\cmsis/include/core_cm4.h **** #define ITM_TCR_ITMENA_Msk                 (1UL /*<< ITM_TCR_ITMENA_Pos*/)                /*!< ITM 
 876:Generated_Source\PSoC6\pdl\cmsis/include/core_cm4.h **** 
 877:Generated_Source\PSoC6\pdl\cmsis/include/core_cm4.h **** /* ITM Integration Write Register Definitions */
 878:Generated_Source\PSoC6\pdl\cmsis/include/core_cm4.h **** #define ITM_IWR_ATVALIDM_Pos                0U                                            /*!< ITM 
 879:Generated_Source\PSoC6\pdl\cmsis/include/core_cm4.h **** #define ITM_IWR_ATVALIDM_Msk               (1UL /*<< ITM_IWR_ATVALIDM_Pos*/)              /*!< ITM 
 880:Generated_Source\PSoC6\pdl\cmsis/include/core_cm4.h **** 
 881:Generated_Source\PSoC6\pdl\cmsis/include/core_cm4.h **** /* ITM Integration Read Register Definitions */
 882:Generated_Source\PSoC6\pdl\cmsis/include/core_cm4.h **** #define ITM_IRR_ATREADYM_Pos                0U                                            /*!< ITM 
 883:Generated_Source\PSoC6\pdl\cmsis/include/core_cm4.h **** #define ITM_IRR_ATREADYM_Msk               (1UL /*<< ITM_IRR_ATREADYM_Pos*/)              /*!< ITM 
 884:Generated_Source\PSoC6\pdl\cmsis/include/core_cm4.h **** 
 885:Generated_Source\PSoC6\pdl\cmsis/include/core_cm4.h **** /* ITM Integration Mode Control Register Definitions */
 886:Generated_Source\PSoC6\pdl\cmsis/include/core_cm4.h **** #define ITM_IMCR_INTEGRATION_Pos            0U                                            /*!< ITM 
 887:Generated_Source\PSoC6\pdl\cmsis/include/core_cm4.h **** #define ITM_IMCR_INTEGRATION_Msk           (1UL /*<< ITM_IMCR_INTEGRATION_Pos*/)          /*!< ITM 
 888:Generated_Source\PSoC6\pdl\cmsis/include/core_cm4.h **** 
 889:Generated_Source\PSoC6\pdl\cmsis/include/core_cm4.h **** /* ITM Lock Status Register Definitions */
 890:Generated_Source\PSoC6\pdl\cmsis/include/core_cm4.h **** #define ITM_LSR_ByteAcc_Pos                 2U                                            /*!< ITM 
 891:Generated_Source\PSoC6\pdl\cmsis/include/core_cm4.h **** #define ITM_LSR_ByteAcc_Msk                (1UL << ITM_LSR_ByteAcc_Pos)                   /*!< ITM 
 892:Generated_Source\PSoC6\pdl\cmsis/include/core_cm4.h **** 
 893:Generated_Source\PSoC6\pdl\cmsis/include/core_cm4.h **** #define ITM_LSR_Access_Pos                  1U                                            /*!< ITM 
 894:Generated_Source\PSoC6\pdl\cmsis/include/core_cm4.h **** #define ITM_LSR_Access_Msk                 (1UL << ITM_LSR_Access_Pos)                    /*!< ITM 
 895:Generated_Source\PSoC6\pdl\cmsis/include/core_cm4.h **** 
 896:Generated_Source\PSoC6\pdl\cmsis/include/core_cm4.h **** #define ITM_LSR_Present_Pos                 0U                                            /*!< ITM 
 897:Generated_Source\PSoC6\pdl\cmsis/include/core_cm4.h **** #define ITM_LSR_Present_Msk                (1UL /*<< ITM_LSR_Present_Pos*/)               /*!< ITM 
 898:Generated_Source\PSoC6\pdl\cmsis/include/core_cm4.h **** 
 899:Generated_Source\PSoC6\pdl\cmsis/include/core_cm4.h **** /*@}*/ /* end of group CMSIS_ITM */
 900:Generated_Source\PSoC6\pdl\cmsis/include/core_cm4.h **** 
 901:Generated_Source\PSoC6\pdl\cmsis/include/core_cm4.h **** 
 902:Generated_Source\PSoC6\pdl\cmsis/include/core_cm4.h **** /**
 903:Generated_Source\PSoC6\pdl\cmsis/include/core_cm4.h ****   \ingroup  CMSIS_core_register
 904:Generated_Source\PSoC6\pdl\cmsis/include/core_cm4.h ****   \defgroup CMSIS_DWT     Data Watchpoint and Trace (DWT)
 905:Generated_Source\PSoC6\pdl\cmsis/include/core_cm4.h ****   \brief    Type definitions for the Data Watchpoint and Trace (DWT)
 906:Generated_Source\PSoC6\pdl\cmsis/include/core_cm4.h ****   @{
 907:Generated_Source\PSoC6\pdl\cmsis/include/core_cm4.h ****  */
 908:Generated_Source\PSoC6\pdl\cmsis/include/core_cm4.h **** 
 909:Generated_Source\PSoC6\pdl\cmsis/include/core_cm4.h **** /**
 910:Generated_Source\PSoC6\pdl\cmsis/include/core_cm4.h ****   \brief  Structure type to access the Data Watchpoint and Trace Register (DWT).
 911:Generated_Source\PSoC6\pdl\cmsis/include/core_cm4.h ****  */
 912:Generated_Source\PSoC6\pdl\cmsis/include/core_cm4.h **** typedef struct
 913:Generated_Source\PSoC6\pdl\cmsis/include/core_cm4.h **** {
 914:Generated_Source\PSoC6\pdl\cmsis/include/core_cm4.h ****   __IOM uint32_t CTRL;                   /*!< Offset: 0x000 (R/W)  Control Register */
ARM GAS  C:\Users\gjl\AppData\Local\Temp\ccMETlfj.s 			page 24


 915:Generated_Source\PSoC6\pdl\cmsis/include/core_cm4.h ****   __IOM uint32_t CYCCNT;                 /*!< Offset: 0x004 (R/W)  Cycle Count Register */
 916:Generated_Source\PSoC6\pdl\cmsis/include/core_cm4.h ****   __IOM uint32_t CPICNT;                 /*!< Offset: 0x008 (R/W)  CPI Count Register */
 917:Generated_Source\PSoC6\pdl\cmsis/include/core_cm4.h ****   __IOM uint32_t EXCCNT;                 /*!< Offset: 0x00C (R/W)  Exception Overhead Count Registe
 918:Generated_Source\PSoC6\pdl\cmsis/include/core_cm4.h ****   __IOM uint32_t SLEEPCNT;               /*!< Offset: 0x010 (R/W)  Sleep Count Register */
 919:Generated_Source\PSoC6\pdl\cmsis/include/core_cm4.h ****   __IOM uint32_t LSUCNT;                 /*!< Offset: 0x014 (R/W)  LSU Count Register */
 920:Generated_Source\PSoC6\pdl\cmsis/include/core_cm4.h ****   __IOM uint32_t FOLDCNT;                /*!< Offset: 0x018 (R/W)  Folded-instruction Count Registe
 921:Generated_Source\PSoC6\pdl\cmsis/include/core_cm4.h ****   __IM  uint32_t PCSR;                   /*!< Offset: 0x01C (R/ )  Program Counter Sample Register 
 922:Generated_Source\PSoC6\pdl\cmsis/include/core_cm4.h ****   __IOM uint32_t COMP0;                  /*!< Offset: 0x020 (R/W)  Comparator Register 0 */
 923:Generated_Source\PSoC6\pdl\cmsis/include/core_cm4.h ****   __IOM uint32_t MASK0;                  /*!< Offset: 0x024 (R/W)  Mask Register 0 */
 924:Generated_Source\PSoC6\pdl\cmsis/include/core_cm4.h ****   __IOM uint32_t FUNCTION0;              /*!< Offset: 0x028 (R/W)  Function Register 0 */
 925:Generated_Source\PSoC6\pdl\cmsis/include/core_cm4.h ****         uint32_t RESERVED0[1U];
 926:Generated_Source\PSoC6\pdl\cmsis/include/core_cm4.h ****   __IOM uint32_t COMP1;                  /*!< Offset: 0x030 (R/W)  Comparator Register 1 */
 927:Generated_Source\PSoC6\pdl\cmsis/include/core_cm4.h ****   __IOM uint32_t MASK1;                  /*!< Offset: 0x034 (R/W)  Mask Register 1 */
 928:Generated_Source\PSoC6\pdl\cmsis/include/core_cm4.h ****   __IOM uint32_t FUNCTION1;              /*!< Offset: 0x038 (R/W)  Function Register 1 */
 929:Generated_Source\PSoC6\pdl\cmsis/include/core_cm4.h ****         uint32_t RESERVED1[1U];
 930:Generated_Source\PSoC6\pdl\cmsis/include/core_cm4.h ****   __IOM uint32_t COMP2;                  /*!< Offset: 0x040 (R/W)  Comparator Register 2 */
 931:Generated_Source\PSoC6\pdl\cmsis/include/core_cm4.h ****   __IOM uint32_t MASK2;                  /*!< Offset: 0x044 (R/W)  Mask Register 2 */
 932:Generated_Source\PSoC6\pdl\cmsis/include/core_cm4.h ****   __IOM uint32_t FUNCTION2;              /*!< Offset: 0x048 (R/W)  Function Register 2 */
 933:Generated_Source\PSoC6\pdl\cmsis/include/core_cm4.h ****         uint32_t RESERVED2[1U];
 934:Generated_Source\PSoC6\pdl\cmsis/include/core_cm4.h ****   __IOM uint32_t COMP3;                  /*!< Offset: 0x050 (R/W)  Comparator Register 3 */
 935:Generated_Source\PSoC6\pdl\cmsis/include/core_cm4.h ****   __IOM uint32_t MASK3;                  /*!< Offset: 0x054 (R/W)  Mask Register 3 */
 936:Generated_Source\PSoC6\pdl\cmsis/include/core_cm4.h ****   __IOM uint32_t FUNCTION3;              /*!< Offset: 0x058 (R/W)  Function Register 3 */
 937:Generated_Source\PSoC6\pdl\cmsis/include/core_cm4.h **** } DWT_Type;
 938:Generated_Source\PSoC6\pdl\cmsis/include/core_cm4.h **** 
 939:Generated_Source\PSoC6\pdl\cmsis/include/core_cm4.h **** /* DWT Control Register Definitions */
 940:Generated_Source\PSoC6\pdl\cmsis/include/core_cm4.h **** #define DWT_CTRL_NUMCOMP_Pos               28U                                         /*!< DWT CTR
 941:Generated_Source\PSoC6\pdl\cmsis/include/core_cm4.h **** #define DWT_CTRL_NUMCOMP_Msk               (0xFUL << DWT_CTRL_NUMCOMP_Pos)             /*!< DWT CTR
 942:Generated_Source\PSoC6\pdl\cmsis/include/core_cm4.h **** 
 943:Generated_Source\PSoC6\pdl\cmsis/include/core_cm4.h **** #define DWT_CTRL_NOTRCPKT_Pos              27U                                         /*!< DWT CTR
 944:Generated_Source\PSoC6\pdl\cmsis/include/core_cm4.h **** #define DWT_CTRL_NOTRCPKT_Msk              (0x1UL << DWT_CTRL_NOTRCPKT_Pos)            /*!< DWT CTR
 945:Generated_Source\PSoC6\pdl\cmsis/include/core_cm4.h **** 
 946:Generated_Source\PSoC6\pdl\cmsis/include/core_cm4.h **** #define DWT_CTRL_NOEXTTRIG_Pos             26U                                         /*!< DWT CTR
 947:Generated_Source\PSoC6\pdl\cmsis/include/core_cm4.h **** #define DWT_CTRL_NOEXTTRIG_Msk             (0x1UL << DWT_CTRL_NOEXTTRIG_Pos)           /*!< DWT CTR
 948:Generated_Source\PSoC6\pdl\cmsis/include/core_cm4.h **** 
 949:Generated_Source\PSoC6\pdl\cmsis/include/core_cm4.h **** #define DWT_CTRL_NOCYCCNT_Pos              25U                                         /*!< DWT CTR
 950:Generated_Source\PSoC6\pdl\cmsis/include/core_cm4.h **** #define DWT_CTRL_NOCYCCNT_Msk              (0x1UL << DWT_CTRL_NOCYCCNT_Pos)            /*!< DWT CTR
 951:Generated_Source\PSoC6\pdl\cmsis/include/core_cm4.h **** 
 952:Generated_Source\PSoC6\pdl\cmsis/include/core_cm4.h **** #define DWT_CTRL_NOPRFCNT_Pos              24U                                         /*!< DWT CTR
 953:Generated_Source\PSoC6\pdl\cmsis/include/core_cm4.h **** #define DWT_CTRL_NOPRFCNT_Msk              (0x1UL << DWT_CTRL_NOPRFCNT_Pos)            /*!< DWT CTR
 954:Generated_Source\PSoC6\pdl\cmsis/include/core_cm4.h **** 
 955:Generated_Source\PSoC6\pdl\cmsis/include/core_cm4.h **** #define DWT_CTRL_CYCEVTENA_Pos             22U                                         /*!< DWT CTR
 956:Generated_Source\PSoC6\pdl\cmsis/include/core_cm4.h **** #define DWT_CTRL_CYCEVTENA_Msk             (0x1UL << DWT_CTRL_CYCEVTENA_Pos)           /*!< DWT CTR
 957:Generated_Source\PSoC6\pdl\cmsis/include/core_cm4.h **** 
 958:Generated_Source\PSoC6\pdl\cmsis/include/core_cm4.h **** #define DWT_CTRL_FOLDEVTENA_Pos            21U                                         /*!< DWT CTR
 959:Generated_Source\PSoC6\pdl\cmsis/include/core_cm4.h **** #define DWT_CTRL_FOLDEVTENA_Msk            (0x1UL << DWT_CTRL_FOLDEVTENA_Pos)          /*!< DWT CTR
 960:Generated_Source\PSoC6\pdl\cmsis/include/core_cm4.h **** 
 961:Generated_Source\PSoC6\pdl\cmsis/include/core_cm4.h **** #define DWT_CTRL_LSUEVTENA_Pos             20U                                         /*!< DWT CTR
 962:Generated_Source\PSoC6\pdl\cmsis/include/core_cm4.h **** #define DWT_CTRL_LSUEVTENA_Msk             (0x1UL << DWT_CTRL_LSUEVTENA_Pos)           /*!< DWT CTR
 963:Generated_Source\PSoC6\pdl\cmsis/include/core_cm4.h **** 
 964:Generated_Source\PSoC6\pdl\cmsis/include/core_cm4.h **** #define DWT_CTRL_SLEEPEVTENA_Pos           19U                                         /*!< DWT CTR
 965:Generated_Source\PSoC6\pdl\cmsis/include/core_cm4.h **** #define DWT_CTRL_SLEEPEVTENA_Msk           (0x1UL << DWT_CTRL_SLEEPEVTENA_Pos)         /*!< DWT CTR
 966:Generated_Source\PSoC6\pdl\cmsis/include/core_cm4.h **** 
 967:Generated_Source\PSoC6\pdl\cmsis/include/core_cm4.h **** #define DWT_CTRL_EXCEVTENA_Pos             18U                                         /*!< DWT CTR
 968:Generated_Source\PSoC6\pdl\cmsis/include/core_cm4.h **** #define DWT_CTRL_EXCEVTENA_Msk             (0x1UL << DWT_CTRL_EXCEVTENA_Pos)           /*!< DWT CTR
 969:Generated_Source\PSoC6\pdl\cmsis/include/core_cm4.h **** 
 970:Generated_Source\PSoC6\pdl\cmsis/include/core_cm4.h **** #define DWT_CTRL_CPIEVTENA_Pos             17U                                         /*!< DWT CTR
 971:Generated_Source\PSoC6\pdl\cmsis/include/core_cm4.h **** #define DWT_CTRL_CPIEVTENA_Msk             (0x1UL << DWT_CTRL_CPIEVTENA_Pos)           /*!< DWT CTR
ARM GAS  C:\Users\gjl\AppData\Local\Temp\ccMETlfj.s 			page 25


 972:Generated_Source\PSoC6\pdl\cmsis/include/core_cm4.h **** 
 973:Generated_Source\PSoC6\pdl\cmsis/include/core_cm4.h **** #define DWT_CTRL_EXCTRCENA_Pos             16U                                         /*!< DWT CTR
 974:Generated_Source\PSoC6\pdl\cmsis/include/core_cm4.h **** #define DWT_CTRL_EXCTRCENA_Msk             (0x1UL << DWT_CTRL_EXCTRCENA_Pos)           /*!< DWT CTR
 975:Generated_Source\PSoC6\pdl\cmsis/include/core_cm4.h **** 
 976:Generated_Source\PSoC6\pdl\cmsis/include/core_cm4.h **** #define DWT_CTRL_PCSAMPLENA_Pos            12U                                         /*!< DWT CTR
 977:Generated_Source\PSoC6\pdl\cmsis/include/core_cm4.h **** #define DWT_CTRL_PCSAMPLENA_Msk            (0x1UL << DWT_CTRL_PCSAMPLENA_Pos)          /*!< DWT CTR
 978:Generated_Source\PSoC6\pdl\cmsis/include/core_cm4.h **** 
 979:Generated_Source\PSoC6\pdl\cmsis/include/core_cm4.h **** #define DWT_CTRL_SYNCTAP_Pos               10U                                         /*!< DWT CTR
 980:Generated_Source\PSoC6\pdl\cmsis/include/core_cm4.h **** #define DWT_CTRL_SYNCTAP_Msk               (0x3UL << DWT_CTRL_SYNCTAP_Pos)             /*!< DWT CTR
 981:Generated_Source\PSoC6\pdl\cmsis/include/core_cm4.h **** 
 982:Generated_Source\PSoC6\pdl\cmsis/include/core_cm4.h **** #define DWT_CTRL_CYCTAP_Pos                 9U                                         /*!< DWT CTR
 983:Generated_Source\PSoC6\pdl\cmsis/include/core_cm4.h **** #define DWT_CTRL_CYCTAP_Msk                (0x1UL << DWT_CTRL_CYCTAP_Pos)              /*!< DWT CTR
 984:Generated_Source\PSoC6\pdl\cmsis/include/core_cm4.h **** 
 985:Generated_Source\PSoC6\pdl\cmsis/include/core_cm4.h **** #define DWT_CTRL_POSTINIT_Pos               5U                                         /*!< DWT CTR
 986:Generated_Source\PSoC6\pdl\cmsis/include/core_cm4.h **** #define DWT_CTRL_POSTINIT_Msk              (0xFUL << DWT_CTRL_POSTINIT_Pos)            /*!< DWT CTR
 987:Generated_Source\PSoC6\pdl\cmsis/include/core_cm4.h **** 
 988:Generated_Source\PSoC6\pdl\cmsis/include/core_cm4.h **** #define DWT_CTRL_POSTPRESET_Pos             1U                                         /*!< DWT CTR
 989:Generated_Source\PSoC6\pdl\cmsis/include/core_cm4.h **** #define DWT_CTRL_POSTPRESET_Msk            (0xFUL << DWT_CTRL_POSTPRESET_Pos)          /*!< DWT CTR
 990:Generated_Source\PSoC6\pdl\cmsis/include/core_cm4.h **** 
 991:Generated_Source\PSoC6\pdl\cmsis/include/core_cm4.h **** #define DWT_CTRL_CYCCNTENA_Pos              0U                                         /*!< DWT CTR
 992:Generated_Source\PSoC6\pdl\cmsis/include/core_cm4.h **** #define DWT_CTRL_CYCCNTENA_Msk             (0x1UL /*<< DWT_CTRL_CYCCNTENA_Pos*/)       /*!< DWT CTR
 993:Generated_Source\PSoC6\pdl\cmsis/include/core_cm4.h **** 
 994:Generated_Source\PSoC6\pdl\cmsis/include/core_cm4.h **** /* DWT CPI Count Register Definitions */
 995:Generated_Source\PSoC6\pdl\cmsis/include/core_cm4.h **** #define DWT_CPICNT_CPICNT_Pos               0U                                         /*!< DWT CPI
 996:Generated_Source\PSoC6\pdl\cmsis/include/core_cm4.h **** #define DWT_CPICNT_CPICNT_Msk              (0xFFUL /*<< DWT_CPICNT_CPICNT_Pos*/)       /*!< DWT CPI
 997:Generated_Source\PSoC6\pdl\cmsis/include/core_cm4.h **** 
 998:Generated_Source\PSoC6\pdl\cmsis/include/core_cm4.h **** /* DWT Exception Overhead Count Register Definitions */
 999:Generated_Source\PSoC6\pdl\cmsis/include/core_cm4.h **** #define DWT_EXCCNT_EXCCNT_Pos               0U                                         /*!< DWT EXC
1000:Generated_Source\PSoC6\pdl\cmsis/include/core_cm4.h **** #define DWT_EXCCNT_EXCCNT_Msk              (0xFFUL /*<< DWT_EXCCNT_EXCCNT_Pos*/)       /*!< DWT EXC
1001:Generated_Source\PSoC6\pdl\cmsis/include/core_cm4.h **** 
1002:Generated_Source\PSoC6\pdl\cmsis/include/core_cm4.h **** /* DWT Sleep Count Register Definitions */
1003:Generated_Source\PSoC6\pdl\cmsis/include/core_cm4.h **** #define DWT_SLEEPCNT_SLEEPCNT_Pos           0U                                         /*!< DWT SLE
1004:Generated_Source\PSoC6\pdl\cmsis/include/core_cm4.h **** #define DWT_SLEEPCNT_SLEEPCNT_Msk          (0xFFUL /*<< DWT_SLEEPCNT_SLEEPCNT_Pos*/)   /*!< DWT SLE
1005:Generated_Source\PSoC6\pdl\cmsis/include/core_cm4.h **** 
1006:Generated_Source\PSoC6\pdl\cmsis/include/core_cm4.h **** /* DWT LSU Count Register Definitions */
1007:Generated_Source\PSoC6\pdl\cmsis/include/core_cm4.h **** #define DWT_LSUCNT_LSUCNT_Pos               0U                                         /*!< DWT LSU
1008:Generated_Source\PSoC6\pdl\cmsis/include/core_cm4.h **** #define DWT_LSUCNT_LSUCNT_Msk              (0xFFUL /*<< DWT_LSUCNT_LSUCNT_Pos*/)       /*!< DWT LSU
1009:Generated_Source\PSoC6\pdl\cmsis/include/core_cm4.h **** 
1010:Generated_Source\PSoC6\pdl\cmsis/include/core_cm4.h **** /* DWT Folded-instruction Count Register Definitions */
1011:Generated_Source\PSoC6\pdl\cmsis/include/core_cm4.h **** #define DWT_FOLDCNT_FOLDCNT_Pos             0U                                         /*!< DWT FOL
1012:Generated_Source\PSoC6\pdl\cmsis/include/core_cm4.h **** #define DWT_FOLDCNT_FOLDCNT_Msk            (0xFFUL /*<< DWT_FOLDCNT_FOLDCNT_Pos*/)     /*!< DWT FOL
1013:Generated_Source\PSoC6\pdl\cmsis/include/core_cm4.h **** 
1014:Generated_Source\PSoC6\pdl\cmsis/include/core_cm4.h **** /* DWT Comparator Mask Register Definitions */
1015:Generated_Source\PSoC6\pdl\cmsis/include/core_cm4.h **** #define DWT_MASK_MASK_Pos                   0U                                         /*!< DWT MAS
1016:Generated_Source\PSoC6\pdl\cmsis/include/core_cm4.h **** #define DWT_MASK_MASK_Msk                  (0x1FUL /*<< DWT_MASK_MASK_Pos*/)           /*!< DWT MAS
1017:Generated_Source\PSoC6\pdl\cmsis/include/core_cm4.h **** 
1018:Generated_Source\PSoC6\pdl\cmsis/include/core_cm4.h **** /* DWT Comparator Function Register Definitions */
1019:Generated_Source\PSoC6\pdl\cmsis/include/core_cm4.h **** #define DWT_FUNCTION_MATCHED_Pos           24U                                         /*!< DWT FUN
1020:Generated_Source\PSoC6\pdl\cmsis/include/core_cm4.h **** #define DWT_FUNCTION_MATCHED_Msk           (0x1UL << DWT_FUNCTION_MATCHED_Pos)         /*!< DWT FUN
1021:Generated_Source\PSoC6\pdl\cmsis/include/core_cm4.h **** 
1022:Generated_Source\PSoC6\pdl\cmsis/include/core_cm4.h **** #define DWT_FUNCTION_DATAVADDR1_Pos        16U                                         /*!< DWT FUN
1023:Generated_Source\PSoC6\pdl\cmsis/include/core_cm4.h **** #define DWT_FUNCTION_DATAVADDR1_Msk        (0xFUL << DWT_FUNCTION_DATAVADDR1_Pos)      /*!< DWT FUN
1024:Generated_Source\PSoC6\pdl\cmsis/include/core_cm4.h **** 
1025:Generated_Source\PSoC6\pdl\cmsis/include/core_cm4.h **** #define DWT_FUNCTION_DATAVADDR0_Pos        12U                                         /*!< DWT FUN
1026:Generated_Source\PSoC6\pdl\cmsis/include/core_cm4.h **** #define DWT_FUNCTION_DATAVADDR0_Msk        (0xFUL << DWT_FUNCTION_DATAVADDR0_Pos)      /*!< DWT FUN
1027:Generated_Source\PSoC6\pdl\cmsis/include/core_cm4.h **** 
1028:Generated_Source\PSoC6\pdl\cmsis/include/core_cm4.h **** #define DWT_FUNCTION_DATAVSIZE_Pos         10U                                         /*!< DWT FUN
ARM GAS  C:\Users\gjl\AppData\Local\Temp\ccMETlfj.s 			page 26


1029:Generated_Source\PSoC6\pdl\cmsis/include/core_cm4.h **** #define DWT_FUNCTION_DATAVSIZE_Msk         (0x3UL << DWT_FUNCTION_DATAVSIZE_Pos)       /*!< DWT FUN
1030:Generated_Source\PSoC6\pdl\cmsis/include/core_cm4.h **** 
1031:Generated_Source\PSoC6\pdl\cmsis/include/core_cm4.h **** #define DWT_FUNCTION_LNK1ENA_Pos            9U                                         /*!< DWT FUN
1032:Generated_Source\PSoC6\pdl\cmsis/include/core_cm4.h **** #define DWT_FUNCTION_LNK1ENA_Msk           (0x1UL << DWT_FUNCTION_LNK1ENA_Pos)         /*!< DWT FUN
1033:Generated_Source\PSoC6\pdl\cmsis/include/core_cm4.h **** 
1034:Generated_Source\PSoC6\pdl\cmsis/include/core_cm4.h **** #define DWT_FUNCTION_DATAVMATCH_Pos         8U                                         /*!< DWT FUN
1035:Generated_Source\PSoC6\pdl\cmsis/include/core_cm4.h **** #define DWT_FUNCTION_DATAVMATCH_Msk        (0x1UL << DWT_FUNCTION_DATAVMATCH_Pos)      /*!< DWT FUN
1036:Generated_Source\PSoC6\pdl\cmsis/include/core_cm4.h **** 
1037:Generated_Source\PSoC6\pdl\cmsis/include/core_cm4.h **** #define DWT_FUNCTION_CYCMATCH_Pos           7U                                         /*!< DWT FUN
1038:Generated_Source\PSoC6\pdl\cmsis/include/core_cm4.h **** #define DWT_FUNCTION_CYCMATCH_Msk          (0x1UL << DWT_FUNCTION_CYCMATCH_Pos)        /*!< DWT FUN
1039:Generated_Source\PSoC6\pdl\cmsis/include/core_cm4.h **** 
1040:Generated_Source\PSoC6\pdl\cmsis/include/core_cm4.h **** #define DWT_FUNCTION_EMITRANGE_Pos          5U                                         /*!< DWT FUN
1041:Generated_Source\PSoC6\pdl\cmsis/include/core_cm4.h **** #define DWT_FUNCTION_EMITRANGE_Msk         (0x1UL << DWT_FUNCTION_EMITRANGE_Pos)       /*!< DWT FUN
1042:Generated_Source\PSoC6\pdl\cmsis/include/core_cm4.h **** 
1043:Generated_Source\PSoC6\pdl\cmsis/include/core_cm4.h **** #define DWT_FUNCTION_FUNCTION_Pos           0U                                         /*!< DWT FUN
1044:Generated_Source\PSoC6\pdl\cmsis/include/core_cm4.h **** #define DWT_FUNCTION_FUNCTION_Msk          (0xFUL /*<< DWT_FUNCTION_FUNCTION_Pos*/)    /*!< DWT FUN
1045:Generated_Source\PSoC6\pdl\cmsis/include/core_cm4.h **** 
1046:Generated_Source\PSoC6\pdl\cmsis/include/core_cm4.h **** /*@}*/ /* end of group CMSIS_DWT */
1047:Generated_Source\PSoC6\pdl\cmsis/include/core_cm4.h **** 
1048:Generated_Source\PSoC6\pdl\cmsis/include/core_cm4.h **** 
1049:Generated_Source\PSoC6\pdl\cmsis/include/core_cm4.h **** /**
1050:Generated_Source\PSoC6\pdl\cmsis/include/core_cm4.h ****   \ingroup  CMSIS_core_register
1051:Generated_Source\PSoC6\pdl\cmsis/include/core_cm4.h ****   \defgroup CMSIS_TPI     Trace Port Interface (TPI)
1052:Generated_Source\PSoC6\pdl\cmsis/include/core_cm4.h ****   \brief    Type definitions for the Trace Port Interface (TPI)
1053:Generated_Source\PSoC6\pdl\cmsis/include/core_cm4.h ****   @{
1054:Generated_Source\PSoC6\pdl\cmsis/include/core_cm4.h ****  */
1055:Generated_Source\PSoC6\pdl\cmsis/include/core_cm4.h **** 
1056:Generated_Source\PSoC6\pdl\cmsis/include/core_cm4.h **** /**
1057:Generated_Source\PSoC6\pdl\cmsis/include/core_cm4.h ****   \brief  Structure type to access the Trace Port Interface Register (TPI).
1058:Generated_Source\PSoC6\pdl\cmsis/include/core_cm4.h ****  */
1059:Generated_Source\PSoC6\pdl\cmsis/include/core_cm4.h **** typedef struct
1060:Generated_Source\PSoC6\pdl\cmsis/include/core_cm4.h **** {
1061:Generated_Source\PSoC6\pdl\cmsis/include/core_cm4.h ****   __IOM uint32_t SSPSR;                  /*!< Offset: 0x000 (R/ )  Supported Parallel Port Size Reg
1062:Generated_Source\PSoC6\pdl\cmsis/include/core_cm4.h ****   __IOM uint32_t CSPSR;                  /*!< Offset: 0x004 (R/W)  Current Parallel Port Size Regis
1063:Generated_Source\PSoC6\pdl\cmsis/include/core_cm4.h ****         uint32_t RESERVED0[2U];
1064:Generated_Source\PSoC6\pdl\cmsis/include/core_cm4.h ****   __IOM uint32_t ACPR;                   /*!< Offset: 0x010 (R/W)  Asynchronous Clock Prescaler Reg
1065:Generated_Source\PSoC6\pdl\cmsis/include/core_cm4.h ****         uint32_t RESERVED1[55U];
1066:Generated_Source\PSoC6\pdl\cmsis/include/core_cm4.h ****   __IOM uint32_t SPPR;                   /*!< Offset: 0x0F0 (R/W)  Selected Pin Protocol Register *
1067:Generated_Source\PSoC6\pdl\cmsis/include/core_cm4.h ****         uint32_t RESERVED2[131U];
1068:Generated_Source\PSoC6\pdl\cmsis/include/core_cm4.h ****   __IM  uint32_t FFSR;                   /*!< Offset: 0x300 (R/ )  Formatter and Flush Status Regis
1069:Generated_Source\PSoC6\pdl\cmsis/include/core_cm4.h ****   __IOM uint32_t FFCR;                   /*!< Offset: 0x304 (R/W)  Formatter and Flush Control Regi
1070:Generated_Source\PSoC6\pdl\cmsis/include/core_cm4.h ****   __IM  uint32_t FSCR;                   /*!< Offset: 0x308 (R/ )  Formatter Synchronization Counte
1071:Generated_Source\PSoC6\pdl\cmsis/include/core_cm4.h ****         uint32_t RESERVED3[759U];
1072:Generated_Source\PSoC6\pdl\cmsis/include/core_cm4.h ****   __IM  uint32_t TRIGGER;                /*!< Offset: 0xEE8 (R/ )  TRIGGER */
1073:Generated_Source\PSoC6\pdl\cmsis/include/core_cm4.h ****   __IM  uint32_t FIFO0;                  /*!< Offset: 0xEEC (R/ )  Integration ETM Data */
1074:Generated_Source\PSoC6\pdl\cmsis/include/core_cm4.h ****   __IM  uint32_t ITATBCTR2;              /*!< Offset: 0xEF0 (R/ )  ITATBCTR2 */
1075:Generated_Source\PSoC6\pdl\cmsis/include/core_cm4.h ****         uint32_t RESERVED4[1U];
1076:Generated_Source\PSoC6\pdl\cmsis/include/core_cm4.h ****   __IM  uint32_t ITATBCTR0;              /*!< Offset: 0xEF8 (R/ )  ITATBCTR0 */
1077:Generated_Source\PSoC6\pdl\cmsis/include/core_cm4.h ****   __IM  uint32_t FIFO1;                  /*!< Offset: 0xEFC (R/ )  Integration ITM Data */
1078:Generated_Source\PSoC6\pdl\cmsis/include/core_cm4.h ****   __IOM uint32_t ITCTRL;                 /*!< Offset: 0xF00 (R/W)  Integration Mode Control */
1079:Generated_Source\PSoC6\pdl\cmsis/include/core_cm4.h ****         uint32_t RESERVED5[39U];
1080:Generated_Source\PSoC6\pdl\cmsis/include/core_cm4.h ****   __IOM uint32_t CLAIMSET;               /*!< Offset: 0xFA0 (R/W)  Claim tag set */
1081:Generated_Source\PSoC6\pdl\cmsis/include/core_cm4.h ****   __IOM uint32_t CLAIMCLR;               /*!< Offset: 0xFA4 (R/W)  Claim tag clear */
1082:Generated_Source\PSoC6\pdl\cmsis/include/core_cm4.h ****         uint32_t RESERVED7[8U];
1083:Generated_Source\PSoC6\pdl\cmsis/include/core_cm4.h ****   __IM  uint32_t DEVID;                  /*!< Offset: 0xFC8 (R/ )  TPIU_DEVID */
1084:Generated_Source\PSoC6\pdl\cmsis/include/core_cm4.h ****   __IM  uint32_t DEVTYPE;                /*!< Offset: 0xFCC (R/ )  TPIU_DEVTYPE */
1085:Generated_Source\PSoC6\pdl\cmsis/include/core_cm4.h **** } TPI_Type;
ARM GAS  C:\Users\gjl\AppData\Local\Temp\ccMETlfj.s 			page 27


1086:Generated_Source\PSoC6\pdl\cmsis/include/core_cm4.h **** 
1087:Generated_Source\PSoC6\pdl\cmsis/include/core_cm4.h **** /* TPI Asynchronous Clock Prescaler Register Definitions */
1088:Generated_Source\PSoC6\pdl\cmsis/include/core_cm4.h **** #define TPI_ACPR_PRESCALER_Pos              0U                                         /*!< TPI ACP
1089:Generated_Source\PSoC6\pdl\cmsis/include/core_cm4.h **** #define TPI_ACPR_PRESCALER_Msk             (0x1FFFUL /*<< TPI_ACPR_PRESCALER_Pos*/)    /*!< TPI ACP
1090:Generated_Source\PSoC6\pdl\cmsis/include/core_cm4.h **** 
1091:Generated_Source\PSoC6\pdl\cmsis/include/core_cm4.h **** /* TPI Selected Pin Protocol Register Definitions */
1092:Generated_Source\PSoC6\pdl\cmsis/include/core_cm4.h **** #define TPI_SPPR_TXMODE_Pos                 0U                                         /*!< TPI SPP
1093:Generated_Source\PSoC6\pdl\cmsis/include/core_cm4.h **** #define TPI_SPPR_TXMODE_Msk                (0x3UL /*<< TPI_SPPR_TXMODE_Pos*/)          /*!< TPI SPP
1094:Generated_Source\PSoC6\pdl\cmsis/include/core_cm4.h **** 
1095:Generated_Source\PSoC6\pdl\cmsis/include/core_cm4.h **** /* TPI Formatter and Flush Status Register Definitions */
1096:Generated_Source\PSoC6\pdl\cmsis/include/core_cm4.h **** #define TPI_FFSR_FtNonStop_Pos              3U                                         /*!< TPI FFS
1097:Generated_Source\PSoC6\pdl\cmsis/include/core_cm4.h **** #define TPI_FFSR_FtNonStop_Msk             (0x1UL << TPI_FFSR_FtNonStop_Pos)           /*!< TPI FFS
1098:Generated_Source\PSoC6\pdl\cmsis/include/core_cm4.h **** 
1099:Generated_Source\PSoC6\pdl\cmsis/include/core_cm4.h **** #define TPI_FFSR_TCPresent_Pos              2U                                         /*!< TPI FFS
1100:Generated_Source\PSoC6\pdl\cmsis/include/core_cm4.h **** #define TPI_FFSR_TCPresent_Msk             (0x1UL << TPI_FFSR_TCPresent_Pos)           /*!< TPI FFS
1101:Generated_Source\PSoC6\pdl\cmsis/include/core_cm4.h **** 
1102:Generated_Source\PSoC6\pdl\cmsis/include/core_cm4.h **** #define TPI_FFSR_FtStopped_Pos              1U                                         /*!< TPI FFS
1103:Generated_Source\PSoC6\pdl\cmsis/include/core_cm4.h **** #define TPI_FFSR_FtStopped_Msk             (0x1UL << TPI_FFSR_FtStopped_Pos)           /*!< TPI FFS
1104:Generated_Source\PSoC6\pdl\cmsis/include/core_cm4.h **** 
1105:Generated_Source\PSoC6\pdl\cmsis/include/core_cm4.h **** #define TPI_FFSR_FlInProg_Pos               0U                                         /*!< TPI FFS
1106:Generated_Source\PSoC6\pdl\cmsis/include/core_cm4.h **** #define TPI_FFSR_FlInProg_Msk              (0x1UL /*<< TPI_FFSR_FlInProg_Pos*/)        /*!< TPI FFS
1107:Generated_Source\PSoC6\pdl\cmsis/include/core_cm4.h **** 
1108:Generated_Source\PSoC6\pdl\cmsis/include/core_cm4.h **** /* TPI Formatter and Flush Control Register Definitions */
1109:Generated_Source\PSoC6\pdl\cmsis/include/core_cm4.h **** #define TPI_FFCR_TrigIn_Pos                 8U                                         /*!< TPI FFC
1110:Generated_Source\PSoC6\pdl\cmsis/include/core_cm4.h **** #define TPI_FFCR_TrigIn_Msk                (0x1UL << TPI_FFCR_TrigIn_Pos)              /*!< TPI FFC
1111:Generated_Source\PSoC6\pdl\cmsis/include/core_cm4.h **** 
1112:Generated_Source\PSoC6\pdl\cmsis/include/core_cm4.h **** #define TPI_FFCR_EnFCont_Pos                1U                                         /*!< TPI FFC
1113:Generated_Source\PSoC6\pdl\cmsis/include/core_cm4.h **** #define TPI_FFCR_EnFCont_Msk               (0x1UL << TPI_FFCR_EnFCont_Pos)             /*!< TPI FFC
1114:Generated_Source\PSoC6\pdl\cmsis/include/core_cm4.h **** 
1115:Generated_Source\PSoC6\pdl\cmsis/include/core_cm4.h **** /* TPI TRIGGER Register Definitions */
1116:Generated_Source\PSoC6\pdl\cmsis/include/core_cm4.h **** #define TPI_TRIGGER_TRIGGER_Pos             0U                                         /*!< TPI TRI
1117:Generated_Source\PSoC6\pdl\cmsis/include/core_cm4.h **** #define TPI_TRIGGER_TRIGGER_Msk            (0x1UL /*<< TPI_TRIGGER_TRIGGER_Pos*/)      /*!< TPI TRI
1118:Generated_Source\PSoC6\pdl\cmsis/include/core_cm4.h **** 
1119:Generated_Source\PSoC6\pdl\cmsis/include/core_cm4.h **** /* TPI Integration ETM Data Register Definitions (FIFO0) */
1120:Generated_Source\PSoC6\pdl\cmsis/include/core_cm4.h **** #define TPI_FIFO0_ITM_ATVALID_Pos          29U                                         /*!< TPI FIF
1121:Generated_Source\PSoC6\pdl\cmsis/include/core_cm4.h **** #define TPI_FIFO0_ITM_ATVALID_Msk          (0x3UL << TPI_FIFO0_ITM_ATVALID_Pos)        /*!< TPI FIF
1122:Generated_Source\PSoC6\pdl\cmsis/include/core_cm4.h **** 
1123:Generated_Source\PSoC6\pdl\cmsis/include/core_cm4.h **** #define TPI_FIFO0_ITM_bytecount_Pos        27U                                         /*!< TPI FIF
1124:Generated_Source\PSoC6\pdl\cmsis/include/core_cm4.h **** #define TPI_FIFO0_ITM_bytecount_Msk        (0x3UL << TPI_FIFO0_ITM_bytecount_Pos)      /*!< TPI FIF
1125:Generated_Source\PSoC6\pdl\cmsis/include/core_cm4.h **** 
1126:Generated_Source\PSoC6\pdl\cmsis/include/core_cm4.h **** #define TPI_FIFO0_ETM_ATVALID_Pos          26U                                         /*!< TPI FIF
1127:Generated_Source\PSoC6\pdl\cmsis/include/core_cm4.h **** #define TPI_FIFO0_ETM_ATVALID_Msk          (0x3UL << TPI_FIFO0_ETM_ATVALID_Pos)        /*!< TPI FIF
1128:Generated_Source\PSoC6\pdl\cmsis/include/core_cm4.h **** 
1129:Generated_Source\PSoC6\pdl\cmsis/include/core_cm4.h **** #define TPI_FIFO0_ETM_bytecount_Pos        24U                                         /*!< TPI FIF
1130:Generated_Source\PSoC6\pdl\cmsis/include/core_cm4.h **** #define TPI_FIFO0_ETM_bytecount_Msk        (0x3UL << TPI_FIFO0_ETM_bytecount_Pos)      /*!< TPI FIF
1131:Generated_Source\PSoC6\pdl\cmsis/include/core_cm4.h **** 
1132:Generated_Source\PSoC6\pdl\cmsis/include/core_cm4.h **** #define TPI_FIFO0_ETM2_Pos                 16U                                         /*!< TPI FIF
1133:Generated_Source\PSoC6\pdl\cmsis/include/core_cm4.h **** #define TPI_FIFO0_ETM2_Msk                 (0xFFUL << TPI_FIFO0_ETM2_Pos)              /*!< TPI FIF
1134:Generated_Source\PSoC6\pdl\cmsis/include/core_cm4.h **** 
1135:Generated_Source\PSoC6\pdl\cmsis/include/core_cm4.h **** #define TPI_FIFO0_ETM1_Pos                  8U                                         /*!< TPI FIF
1136:Generated_Source\PSoC6\pdl\cmsis/include/core_cm4.h **** #define TPI_FIFO0_ETM1_Msk                 (0xFFUL << TPI_FIFO0_ETM1_Pos)              /*!< TPI FIF
1137:Generated_Source\PSoC6\pdl\cmsis/include/core_cm4.h **** 
1138:Generated_Source\PSoC6\pdl\cmsis/include/core_cm4.h **** #define TPI_FIFO0_ETM0_Pos                  0U                                         /*!< TPI FIF
1139:Generated_Source\PSoC6\pdl\cmsis/include/core_cm4.h **** #define TPI_FIFO0_ETM0_Msk                 (0xFFUL /*<< TPI_FIFO0_ETM0_Pos*/)          /*!< TPI FIF
1140:Generated_Source\PSoC6\pdl\cmsis/include/core_cm4.h **** 
1141:Generated_Source\PSoC6\pdl\cmsis/include/core_cm4.h **** /* TPI ITATBCTR2 Register Definitions */
1142:Generated_Source\PSoC6\pdl\cmsis/include/core_cm4.h **** #define TPI_ITATBCTR2_ATREADY_Pos           0U                                         /*!< TPI ITA
ARM GAS  C:\Users\gjl\AppData\Local\Temp\ccMETlfj.s 			page 28


1143:Generated_Source\PSoC6\pdl\cmsis/include/core_cm4.h **** #define TPI_ITATBCTR2_ATREADY_Msk          (0x1UL /*<< TPI_ITATBCTR2_ATREADY_Pos*/)    /*!< TPI ITA
1144:Generated_Source\PSoC6\pdl\cmsis/include/core_cm4.h **** 
1145:Generated_Source\PSoC6\pdl\cmsis/include/core_cm4.h **** /* TPI Integration ITM Data Register Definitions (FIFO1) */
1146:Generated_Source\PSoC6\pdl\cmsis/include/core_cm4.h **** #define TPI_FIFO1_ITM_ATVALID_Pos          29U                                         /*!< TPI FIF
1147:Generated_Source\PSoC6\pdl\cmsis/include/core_cm4.h **** #define TPI_FIFO1_ITM_ATVALID_Msk          (0x3UL << TPI_FIFO1_ITM_ATVALID_Pos)        /*!< TPI FIF
1148:Generated_Source\PSoC6\pdl\cmsis/include/core_cm4.h **** 
1149:Generated_Source\PSoC6\pdl\cmsis/include/core_cm4.h **** #define TPI_FIFO1_ITM_bytecount_Pos        27U                                         /*!< TPI FIF
1150:Generated_Source\PSoC6\pdl\cmsis/include/core_cm4.h **** #define TPI_FIFO1_ITM_bytecount_Msk        (0x3UL << TPI_FIFO1_ITM_bytecount_Pos)      /*!< TPI FIF
1151:Generated_Source\PSoC6\pdl\cmsis/include/core_cm4.h **** 
1152:Generated_Source\PSoC6\pdl\cmsis/include/core_cm4.h **** #define TPI_FIFO1_ETM_ATVALID_Pos          26U                                         /*!< TPI FIF
1153:Generated_Source\PSoC6\pdl\cmsis/include/core_cm4.h **** #define TPI_FIFO1_ETM_ATVALID_Msk          (0x3UL << TPI_FIFO1_ETM_ATVALID_Pos)        /*!< TPI FIF
1154:Generated_Source\PSoC6\pdl\cmsis/include/core_cm4.h **** 
1155:Generated_Source\PSoC6\pdl\cmsis/include/core_cm4.h **** #define TPI_FIFO1_ETM_bytecount_Pos        24U                                         /*!< TPI FIF
1156:Generated_Source\PSoC6\pdl\cmsis/include/core_cm4.h **** #define TPI_FIFO1_ETM_bytecount_Msk        (0x3UL << TPI_FIFO1_ETM_bytecount_Pos)      /*!< TPI FIF
1157:Generated_Source\PSoC6\pdl\cmsis/include/core_cm4.h **** 
1158:Generated_Source\PSoC6\pdl\cmsis/include/core_cm4.h **** #define TPI_FIFO1_ITM2_Pos                 16U                                         /*!< TPI FIF
1159:Generated_Source\PSoC6\pdl\cmsis/include/core_cm4.h **** #define TPI_FIFO1_ITM2_Msk                 (0xFFUL << TPI_FIFO1_ITM2_Pos)              /*!< TPI FIF
1160:Generated_Source\PSoC6\pdl\cmsis/include/core_cm4.h **** 
1161:Generated_Source\PSoC6\pdl\cmsis/include/core_cm4.h **** #define TPI_FIFO1_ITM1_Pos                  8U                                         /*!< TPI FIF
1162:Generated_Source\PSoC6\pdl\cmsis/include/core_cm4.h **** #define TPI_FIFO1_ITM1_Msk                 (0xFFUL << TPI_FIFO1_ITM1_Pos)              /*!< TPI FIF
1163:Generated_Source\PSoC6\pdl\cmsis/include/core_cm4.h **** 
1164:Generated_Source\PSoC6\pdl\cmsis/include/core_cm4.h **** #define TPI_FIFO1_ITM0_Pos                  0U                                         /*!< TPI FIF
1165:Generated_Source\PSoC6\pdl\cmsis/include/core_cm4.h **** #define TPI_FIFO1_ITM0_Msk                 (0xFFUL /*<< TPI_FIFO1_ITM0_Pos*/)          /*!< TPI FIF
1166:Generated_Source\PSoC6\pdl\cmsis/include/core_cm4.h **** 
1167:Generated_Source\PSoC6\pdl\cmsis/include/core_cm4.h **** /* TPI ITATBCTR0 Register Definitions */
1168:Generated_Source\PSoC6\pdl\cmsis/include/core_cm4.h **** #define TPI_ITATBCTR0_ATREADY_Pos           0U                                         /*!< TPI ITA
1169:Generated_Source\PSoC6\pdl\cmsis/include/core_cm4.h **** #define TPI_ITATBCTR0_ATREADY_Msk          (0x1UL /*<< TPI_ITATBCTR0_ATREADY_Pos*/)    /*!< TPI ITA
1170:Generated_Source\PSoC6\pdl\cmsis/include/core_cm4.h **** 
1171:Generated_Source\PSoC6\pdl\cmsis/include/core_cm4.h **** /* TPI Integration Mode Control Register Definitions */
1172:Generated_Source\PSoC6\pdl\cmsis/include/core_cm4.h **** #define TPI_ITCTRL_Mode_Pos                 0U                                         /*!< TPI ITC
1173:Generated_Source\PSoC6\pdl\cmsis/include/core_cm4.h **** #define TPI_ITCTRL_Mode_Msk                (0x1UL /*<< TPI_ITCTRL_Mode_Pos*/)          /*!< TPI ITC
1174:Generated_Source\PSoC6\pdl\cmsis/include/core_cm4.h **** 
1175:Generated_Source\PSoC6\pdl\cmsis/include/core_cm4.h **** /* TPI DEVID Register Definitions */
1176:Generated_Source\PSoC6\pdl\cmsis/include/core_cm4.h **** #define TPI_DEVID_NRZVALID_Pos             11U                                         /*!< TPI DEV
1177:Generated_Source\PSoC6\pdl\cmsis/include/core_cm4.h **** #define TPI_DEVID_NRZVALID_Msk             (0x1UL << TPI_DEVID_NRZVALID_Pos)           /*!< TPI DEV
1178:Generated_Source\PSoC6\pdl\cmsis/include/core_cm4.h **** 
1179:Generated_Source\PSoC6\pdl\cmsis/include/core_cm4.h **** #define TPI_DEVID_MANCVALID_Pos            10U                                         /*!< TPI DEV
1180:Generated_Source\PSoC6\pdl\cmsis/include/core_cm4.h **** #define TPI_DEVID_MANCVALID_Msk            (0x1UL << TPI_DEVID_MANCVALID_Pos)          /*!< TPI DEV
1181:Generated_Source\PSoC6\pdl\cmsis/include/core_cm4.h **** 
1182:Generated_Source\PSoC6\pdl\cmsis/include/core_cm4.h **** #define TPI_DEVID_PTINVALID_Pos             9U                                         /*!< TPI DEV
1183:Generated_Source\PSoC6\pdl\cmsis/include/core_cm4.h **** #define TPI_DEVID_PTINVALID_Msk            (0x1UL << TPI_DEVID_PTINVALID_Pos)          /*!< TPI DEV
1184:Generated_Source\PSoC6\pdl\cmsis/include/core_cm4.h **** 
1185:Generated_Source\PSoC6\pdl\cmsis/include/core_cm4.h **** #define TPI_DEVID_MinBufSz_Pos              6U                                         /*!< TPI DEV
1186:Generated_Source\PSoC6\pdl\cmsis/include/core_cm4.h **** #define TPI_DEVID_MinBufSz_Msk             (0x7UL << TPI_DEVID_MinBufSz_Pos)           /*!< TPI DEV
1187:Generated_Source\PSoC6\pdl\cmsis/include/core_cm4.h **** 
1188:Generated_Source\PSoC6\pdl\cmsis/include/core_cm4.h **** #define TPI_DEVID_AsynClkIn_Pos             5U                                         /*!< TPI DEV
1189:Generated_Source\PSoC6\pdl\cmsis/include/core_cm4.h **** #define TPI_DEVID_AsynClkIn_Msk            (0x1UL << TPI_DEVID_AsynClkIn_Pos)          /*!< TPI DEV
1190:Generated_Source\PSoC6\pdl\cmsis/include/core_cm4.h **** 
1191:Generated_Source\PSoC6\pdl\cmsis/include/core_cm4.h **** #define TPI_DEVID_NrTraceInput_Pos          0U                                         /*!< TPI DEV
1192:Generated_Source\PSoC6\pdl\cmsis/include/core_cm4.h **** #define TPI_DEVID_NrTraceInput_Msk         (0x1FUL /*<< TPI_DEVID_NrTraceInput_Pos*/)  /*!< TPI DEV
1193:Generated_Source\PSoC6\pdl\cmsis/include/core_cm4.h **** 
1194:Generated_Source\PSoC6\pdl\cmsis/include/core_cm4.h **** /* TPI DEVTYPE Register Definitions */
1195:Generated_Source\PSoC6\pdl\cmsis/include/core_cm4.h **** #define TPI_DEVTYPE_MajorType_Pos           4U                                         /*!< TPI DEV
1196:Generated_Source\PSoC6\pdl\cmsis/include/core_cm4.h **** #define TPI_DEVTYPE_MajorType_Msk          (0xFUL << TPI_DEVTYPE_MajorType_Pos)        /*!< TPI DEV
1197:Generated_Source\PSoC6\pdl\cmsis/include/core_cm4.h **** 
1198:Generated_Source\PSoC6\pdl\cmsis/include/core_cm4.h **** #define TPI_DEVTYPE_SubType_Pos             0U                                         /*!< TPI DEV
1199:Generated_Source\PSoC6\pdl\cmsis/include/core_cm4.h **** #define TPI_DEVTYPE_SubType_Msk            (0xFUL /*<< TPI_DEVTYPE_SubType_Pos*/)      /*!< TPI DEV
ARM GAS  C:\Users\gjl\AppData\Local\Temp\ccMETlfj.s 			page 29


1200:Generated_Source\PSoC6\pdl\cmsis/include/core_cm4.h **** 
1201:Generated_Source\PSoC6\pdl\cmsis/include/core_cm4.h **** /*@}*/ /* end of group CMSIS_TPI */
1202:Generated_Source\PSoC6\pdl\cmsis/include/core_cm4.h **** 
1203:Generated_Source\PSoC6\pdl\cmsis/include/core_cm4.h **** 
1204:Generated_Source\PSoC6\pdl\cmsis/include/core_cm4.h **** #if defined (__MPU_PRESENT) && (__MPU_PRESENT == 1U)
1205:Generated_Source\PSoC6\pdl\cmsis/include/core_cm4.h **** /**
1206:Generated_Source\PSoC6\pdl\cmsis/include/core_cm4.h ****   \ingroup  CMSIS_core_register
1207:Generated_Source\PSoC6\pdl\cmsis/include/core_cm4.h ****   \defgroup CMSIS_MPU     Memory Protection Unit (MPU)
1208:Generated_Source\PSoC6\pdl\cmsis/include/core_cm4.h ****   \brief    Type definitions for the Memory Protection Unit (MPU)
1209:Generated_Source\PSoC6\pdl\cmsis/include/core_cm4.h ****   @{
1210:Generated_Source\PSoC6\pdl\cmsis/include/core_cm4.h ****  */
1211:Generated_Source\PSoC6\pdl\cmsis/include/core_cm4.h **** 
1212:Generated_Source\PSoC6\pdl\cmsis/include/core_cm4.h **** /**
1213:Generated_Source\PSoC6\pdl\cmsis/include/core_cm4.h ****   \brief  Structure type to access the Memory Protection Unit (MPU).
1214:Generated_Source\PSoC6\pdl\cmsis/include/core_cm4.h ****  */
1215:Generated_Source\PSoC6\pdl\cmsis/include/core_cm4.h **** typedef struct
1216:Generated_Source\PSoC6\pdl\cmsis/include/core_cm4.h **** {
1217:Generated_Source\PSoC6\pdl\cmsis/include/core_cm4.h ****   __IM  uint32_t TYPE;                   /*!< Offset: 0x000 (R/ )  MPU Type Register */
1218:Generated_Source\PSoC6\pdl\cmsis/include/core_cm4.h ****   __IOM uint32_t CTRL;                   /*!< Offset: 0x004 (R/W)  MPU Control Register */
1219:Generated_Source\PSoC6\pdl\cmsis/include/core_cm4.h ****   __IOM uint32_t RNR;                    /*!< Offset: 0x008 (R/W)  MPU Region RNRber Register */
1220:Generated_Source\PSoC6\pdl\cmsis/include/core_cm4.h ****   __IOM uint32_t RBAR;                   /*!< Offset: 0x00C (R/W)  MPU Region Base Address Register
1221:Generated_Source\PSoC6\pdl\cmsis/include/core_cm4.h ****   __IOM uint32_t RASR;                   /*!< Offset: 0x010 (R/W)  MPU Region Attribute and Size Re
1222:Generated_Source\PSoC6\pdl\cmsis/include/core_cm4.h ****   __IOM uint32_t RBAR_A1;                /*!< Offset: 0x014 (R/W)  MPU Alias 1 Region Base Address 
1223:Generated_Source\PSoC6\pdl\cmsis/include/core_cm4.h ****   __IOM uint32_t RASR_A1;                /*!< Offset: 0x018 (R/W)  MPU Alias 1 Region Attribute and
1224:Generated_Source\PSoC6\pdl\cmsis/include/core_cm4.h ****   __IOM uint32_t RBAR_A2;                /*!< Offset: 0x01C (R/W)  MPU Alias 2 Region Base Address 
1225:Generated_Source\PSoC6\pdl\cmsis/include/core_cm4.h ****   __IOM uint32_t RASR_A2;                /*!< Offset: 0x020 (R/W)  MPU Alias 2 Region Attribute and
1226:Generated_Source\PSoC6\pdl\cmsis/include/core_cm4.h ****   __IOM uint32_t RBAR_A3;                /*!< Offset: 0x024 (R/W)  MPU Alias 3 Region Base Address 
1227:Generated_Source\PSoC6\pdl\cmsis/include/core_cm4.h ****   __IOM uint32_t RASR_A3;                /*!< Offset: 0x028 (R/W)  MPU Alias 3 Region Attribute and
1228:Generated_Source\PSoC6\pdl\cmsis/include/core_cm4.h **** } MPU_Type;
1229:Generated_Source\PSoC6\pdl\cmsis/include/core_cm4.h **** 
1230:Generated_Source\PSoC6\pdl\cmsis/include/core_cm4.h **** /* MPU Type Register Definitions */
1231:Generated_Source\PSoC6\pdl\cmsis/include/core_cm4.h **** #define MPU_TYPE_IREGION_Pos               16U                                            /*!< MPU 
1232:Generated_Source\PSoC6\pdl\cmsis/include/core_cm4.h **** #define MPU_TYPE_IREGION_Msk               (0xFFUL << MPU_TYPE_IREGION_Pos)               /*!< MPU 
1233:Generated_Source\PSoC6\pdl\cmsis/include/core_cm4.h **** 
1234:Generated_Source\PSoC6\pdl\cmsis/include/core_cm4.h **** #define MPU_TYPE_DREGION_Pos                8U                                            /*!< MPU 
1235:Generated_Source\PSoC6\pdl\cmsis/include/core_cm4.h **** #define MPU_TYPE_DREGION_Msk               (0xFFUL << MPU_TYPE_DREGION_Pos)               /*!< MPU 
1236:Generated_Source\PSoC6\pdl\cmsis/include/core_cm4.h **** 
1237:Generated_Source\PSoC6\pdl\cmsis/include/core_cm4.h **** #define MPU_TYPE_SEPARATE_Pos               0U                                            /*!< MPU 
1238:Generated_Source\PSoC6\pdl\cmsis/include/core_cm4.h **** #define MPU_TYPE_SEPARATE_Msk              (1UL /*<< MPU_TYPE_SEPARATE_Pos*/)             /*!< MPU 
1239:Generated_Source\PSoC6\pdl\cmsis/include/core_cm4.h **** 
1240:Generated_Source\PSoC6\pdl\cmsis/include/core_cm4.h **** /* MPU Control Register Definitions */
1241:Generated_Source\PSoC6\pdl\cmsis/include/core_cm4.h **** #define MPU_CTRL_PRIVDEFENA_Pos             2U                                            /*!< MPU 
1242:Generated_Source\PSoC6\pdl\cmsis/include/core_cm4.h **** #define MPU_CTRL_PRIVDEFENA_Msk            (1UL << MPU_CTRL_PRIVDEFENA_Pos)               /*!< MPU 
1243:Generated_Source\PSoC6\pdl\cmsis/include/core_cm4.h **** 
1244:Generated_Source\PSoC6\pdl\cmsis/include/core_cm4.h **** #define MPU_CTRL_HFNMIENA_Pos               1U                                            /*!< MPU 
1245:Generated_Source\PSoC6\pdl\cmsis/include/core_cm4.h **** #define MPU_CTRL_HFNMIENA_Msk              (1UL << MPU_CTRL_HFNMIENA_Pos)                 /*!< MPU 
1246:Generated_Source\PSoC6\pdl\cmsis/include/core_cm4.h **** 
1247:Generated_Source\PSoC6\pdl\cmsis/include/core_cm4.h **** #define MPU_CTRL_ENABLE_Pos                 0U                                            /*!< MPU 
1248:Generated_Source\PSoC6\pdl\cmsis/include/core_cm4.h **** #define MPU_CTRL_ENABLE_Msk                (1UL /*<< MPU_CTRL_ENABLE_Pos*/)               /*!< MPU 
1249:Generated_Source\PSoC6\pdl\cmsis/include/core_cm4.h **** 
1250:Generated_Source\PSoC6\pdl\cmsis/include/core_cm4.h **** /* MPU Region Number Register Definitions */
1251:Generated_Source\PSoC6\pdl\cmsis/include/core_cm4.h **** #define MPU_RNR_REGION_Pos                  0U                                            /*!< MPU 
1252:Generated_Source\PSoC6\pdl\cmsis/include/core_cm4.h **** #define MPU_RNR_REGION_Msk                 (0xFFUL /*<< MPU_RNR_REGION_Pos*/)             /*!< MPU 
1253:Generated_Source\PSoC6\pdl\cmsis/include/core_cm4.h **** 
1254:Generated_Source\PSoC6\pdl\cmsis/include/core_cm4.h **** /* MPU Region Base Address Register Definitions */
1255:Generated_Source\PSoC6\pdl\cmsis/include/core_cm4.h **** #define MPU_RBAR_ADDR_Pos                   5U                                            /*!< MPU 
1256:Generated_Source\PSoC6\pdl\cmsis/include/core_cm4.h **** #define MPU_RBAR_ADDR_Msk                  (0x7FFFFFFUL << MPU_RBAR_ADDR_Pos)             /*!< MPU 
ARM GAS  C:\Users\gjl\AppData\Local\Temp\ccMETlfj.s 			page 30


1257:Generated_Source\PSoC6\pdl\cmsis/include/core_cm4.h **** 
1258:Generated_Source\PSoC6\pdl\cmsis/include/core_cm4.h **** #define MPU_RBAR_VALID_Pos                  4U                                            /*!< MPU 
1259:Generated_Source\PSoC6\pdl\cmsis/include/core_cm4.h **** #define MPU_RBAR_VALID_Msk                 (1UL << MPU_RBAR_VALID_Pos)                    /*!< MPU 
1260:Generated_Source\PSoC6\pdl\cmsis/include/core_cm4.h **** 
1261:Generated_Source\PSoC6\pdl\cmsis/include/core_cm4.h **** #define MPU_RBAR_REGION_Pos                 0U                                            /*!< MPU 
1262:Generated_Source\PSoC6\pdl\cmsis/include/core_cm4.h **** #define MPU_RBAR_REGION_Msk                (0xFUL /*<< MPU_RBAR_REGION_Pos*/)             /*!< MPU 
1263:Generated_Source\PSoC6\pdl\cmsis/include/core_cm4.h **** 
1264:Generated_Source\PSoC6\pdl\cmsis/include/core_cm4.h **** /* MPU Region Attribute and Size Register Definitions */
1265:Generated_Source\PSoC6\pdl\cmsis/include/core_cm4.h **** #define MPU_RASR_ATTRS_Pos                 16U                                            /*!< MPU 
1266:Generated_Source\PSoC6\pdl\cmsis/include/core_cm4.h **** #define MPU_RASR_ATTRS_Msk                 (0xFFFFUL << MPU_RASR_ATTRS_Pos)               /*!< MPU 
1267:Generated_Source\PSoC6\pdl\cmsis/include/core_cm4.h **** 
1268:Generated_Source\PSoC6\pdl\cmsis/include/core_cm4.h **** #define MPU_RASR_XN_Pos                    28U                                            /*!< MPU 
1269:Generated_Source\PSoC6\pdl\cmsis/include/core_cm4.h **** #define MPU_RASR_XN_Msk                    (1UL << MPU_RASR_XN_Pos)                       /*!< MPU 
1270:Generated_Source\PSoC6\pdl\cmsis/include/core_cm4.h **** 
1271:Generated_Source\PSoC6\pdl\cmsis/include/core_cm4.h **** #define MPU_RASR_AP_Pos                    24U                                            /*!< MPU 
1272:Generated_Source\PSoC6\pdl\cmsis/include/core_cm4.h **** #define MPU_RASR_AP_Msk                    (0x7UL << MPU_RASR_AP_Pos)                     /*!< MPU 
1273:Generated_Source\PSoC6\pdl\cmsis/include/core_cm4.h **** 
1274:Generated_Source\PSoC6\pdl\cmsis/include/core_cm4.h **** #define MPU_RASR_TEX_Pos                   19U                                            /*!< MPU 
1275:Generated_Source\PSoC6\pdl\cmsis/include/core_cm4.h **** #define MPU_RASR_TEX_Msk                   (0x7UL << MPU_RASR_TEX_Pos)                    /*!< MPU 
1276:Generated_Source\PSoC6\pdl\cmsis/include/core_cm4.h **** 
1277:Generated_Source\PSoC6\pdl\cmsis/include/core_cm4.h **** #define MPU_RASR_S_Pos                     18U                                            /*!< MPU 
1278:Generated_Source\PSoC6\pdl\cmsis/include/core_cm4.h **** #define MPU_RASR_S_Msk                     (1UL << MPU_RASR_S_Pos)                        /*!< MPU 
1279:Generated_Source\PSoC6\pdl\cmsis/include/core_cm4.h **** 
1280:Generated_Source\PSoC6\pdl\cmsis/include/core_cm4.h **** #define MPU_RASR_C_Pos                     17U                                            /*!< MPU 
1281:Generated_Source\PSoC6\pdl\cmsis/include/core_cm4.h **** #define MPU_RASR_C_Msk                     (1UL << MPU_RASR_C_Pos)                        /*!< MPU 
1282:Generated_Source\PSoC6\pdl\cmsis/include/core_cm4.h **** 
1283:Generated_Source\PSoC6\pdl\cmsis/include/core_cm4.h **** #define MPU_RASR_B_Pos                     16U                                            /*!< MPU 
1284:Generated_Source\PSoC6\pdl\cmsis/include/core_cm4.h **** #define MPU_RASR_B_Msk                     (1UL << MPU_RASR_B_Pos)                        /*!< MPU 
1285:Generated_Source\PSoC6\pdl\cmsis/include/core_cm4.h **** 
1286:Generated_Source\PSoC6\pdl\cmsis/include/core_cm4.h **** #define MPU_RASR_SRD_Pos                    8U                                            /*!< MPU 
1287:Generated_Source\PSoC6\pdl\cmsis/include/core_cm4.h **** #define MPU_RASR_SRD_Msk                   (0xFFUL << MPU_RASR_SRD_Pos)                   /*!< MPU 
1288:Generated_Source\PSoC6\pdl\cmsis/include/core_cm4.h **** 
1289:Generated_Source\PSoC6\pdl\cmsis/include/core_cm4.h **** #define MPU_RASR_SIZE_Pos                   1U                                            /*!< MPU 
1290:Generated_Source\PSoC6\pdl\cmsis/include/core_cm4.h **** #define MPU_RASR_SIZE_Msk                  (0x1FUL << MPU_RASR_SIZE_Pos)                  /*!< MPU 
1291:Generated_Source\PSoC6\pdl\cmsis/include/core_cm4.h **** 
1292:Generated_Source\PSoC6\pdl\cmsis/include/core_cm4.h **** #define MPU_RASR_ENABLE_Pos                 0U                                            /*!< MPU 
1293:Generated_Source\PSoC6\pdl\cmsis/include/core_cm4.h **** #define MPU_RASR_ENABLE_Msk                (1UL /*<< MPU_RASR_ENABLE_Pos*/)               /*!< MPU 
1294:Generated_Source\PSoC6\pdl\cmsis/include/core_cm4.h **** 
1295:Generated_Source\PSoC6\pdl\cmsis/include/core_cm4.h **** /*@} end of group CMSIS_MPU */
1296:Generated_Source\PSoC6\pdl\cmsis/include/core_cm4.h **** #endif /* defined (__MPU_PRESENT) && (__MPU_PRESENT == 1U) */
1297:Generated_Source\PSoC6\pdl\cmsis/include/core_cm4.h **** 
1298:Generated_Source\PSoC6\pdl\cmsis/include/core_cm4.h **** 
1299:Generated_Source\PSoC6\pdl\cmsis/include/core_cm4.h **** /**
1300:Generated_Source\PSoC6\pdl\cmsis/include/core_cm4.h ****   \ingroup  CMSIS_core_register
1301:Generated_Source\PSoC6\pdl\cmsis/include/core_cm4.h ****   \defgroup CMSIS_FPU     Floating Point Unit (FPU)
1302:Generated_Source\PSoC6\pdl\cmsis/include/core_cm4.h ****   \brief    Type definitions for the Floating Point Unit (FPU)
1303:Generated_Source\PSoC6\pdl\cmsis/include/core_cm4.h ****   @{
1304:Generated_Source\PSoC6\pdl\cmsis/include/core_cm4.h ****  */
1305:Generated_Source\PSoC6\pdl\cmsis/include/core_cm4.h **** 
1306:Generated_Source\PSoC6\pdl\cmsis/include/core_cm4.h **** /**
1307:Generated_Source\PSoC6\pdl\cmsis/include/core_cm4.h ****   \brief  Structure type to access the Floating Point Unit (FPU).
1308:Generated_Source\PSoC6\pdl\cmsis/include/core_cm4.h ****  */
1309:Generated_Source\PSoC6\pdl\cmsis/include/core_cm4.h **** typedef struct
1310:Generated_Source\PSoC6\pdl\cmsis/include/core_cm4.h **** {
1311:Generated_Source\PSoC6\pdl\cmsis/include/core_cm4.h ****         uint32_t RESERVED0[1U];
1312:Generated_Source\PSoC6\pdl\cmsis/include/core_cm4.h ****   __IOM uint32_t FPCCR;                  /*!< Offset: 0x004 (R/W)  Floating-Point Context Control R
1313:Generated_Source\PSoC6\pdl\cmsis/include/core_cm4.h ****   __IOM uint32_t FPCAR;                  /*!< Offset: 0x008 (R/W)  Floating-Point Context Address R
ARM GAS  C:\Users\gjl\AppData\Local\Temp\ccMETlfj.s 			page 31


1314:Generated_Source\PSoC6\pdl\cmsis/include/core_cm4.h ****   __IOM uint32_t FPDSCR;                 /*!< Offset: 0x00C (R/W)  Floating-Point Default Status Co
1315:Generated_Source\PSoC6\pdl\cmsis/include/core_cm4.h ****   __IM  uint32_t MVFR0;                  /*!< Offset: 0x010 (R/ )  Media and FP Feature Register 0 
1316:Generated_Source\PSoC6\pdl\cmsis/include/core_cm4.h ****   __IM  uint32_t MVFR1;                  /*!< Offset: 0x014 (R/ )  Media and FP Feature Register 1 
1317:Generated_Source\PSoC6\pdl\cmsis/include/core_cm4.h **** } FPU_Type;
1318:Generated_Source\PSoC6\pdl\cmsis/include/core_cm4.h **** 
1319:Generated_Source\PSoC6\pdl\cmsis/include/core_cm4.h **** /* Floating-Point Context Control Register Definitions */
1320:Generated_Source\PSoC6\pdl\cmsis/include/core_cm4.h **** #define FPU_FPCCR_ASPEN_Pos                31U                                            /*!< FPCC
1321:Generated_Source\PSoC6\pdl\cmsis/include/core_cm4.h **** #define FPU_FPCCR_ASPEN_Msk                (1UL << FPU_FPCCR_ASPEN_Pos)                   /*!< FPCC
1322:Generated_Source\PSoC6\pdl\cmsis/include/core_cm4.h **** 
1323:Generated_Source\PSoC6\pdl\cmsis/include/core_cm4.h **** #define FPU_FPCCR_LSPEN_Pos                30U                                            /*!< FPCC
1324:Generated_Source\PSoC6\pdl\cmsis/include/core_cm4.h **** #define FPU_FPCCR_LSPEN_Msk                (1UL << FPU_FPCCR_LSPEN_Pos)                   /*!< FPCC
1325:Generated_Source\PSoC6\pdl\cmsis/include/core_cm4.h **** 
1326:Generated_Source\PSoC6\pdl\cmsis/include/core_cm4.h **** #define FPU_FPCCR_MONRDY_Pos                8U                                            /*!< FPCC
1327:Generated_Source\PSoC6\pdl\cmsis/include/core_cm4.h **** #define FPU_FPCCR_MONRDY_Msk               (1UL << FPU_FPCCR_MONRDY_Pos)                  /*!< FPCC
1328:Generated_Source\PSoC6\pdl\cmsis/include/core_cm4.h **** 
1329:Generated_Source\PSoC6\pdl\cmsis/include/core_cm4.h **** #define FPU_FPCCR_BFRDY_Pos                 6U                                            /*!< FPCC
1330:Generated_Source\PSoC6\pdl\cmsis/include/core_cm4.h **** #define FPU_FPCCR_BFRDY_Msk                (1UL << FPU_FPCCR_BFRDY_Pos)                   /*!< FPCC
1331:Generated_Source\PSoC6\pdl\cmsis/include/core_cm4.h **** 
1332:Generated_Source\PSoC6\pdl\cmsis/include/core_cm4.h **** #define FPU_FPCCR_MMRDY_Pos                 5U                                            /*!< FPCC
1333:Generated_Source\PSoC6\pdl\cmsis/include/core_cm4.h **** #define FPU_FPCCR_MMRDY_Msk                (1UL << FPU_FPCCR_MMRDY_Pos)                   /*!< FPCC
1334:Generated_Source\PSoC6\pdl\cmsis/include/core_cm4.h **** 
1335:Generated_Source\PSoC6\pdl\cmsis/include/core_cm4.h **** #define FPU_FPCCR_HFRDY_Pos                 4U                                            /*!< FPCC
1336:Generated_Source\PSoC6\pdl\cmsis/include/core_cm4.h **** #define FPU_FPCCR_HFRDY_Msk                (1UL << FPU_FPCCR_HFRDY_Pos)                   /*!< FPCC
1337:Generated_Source\PSoC6\pdl\cmsis/include/core_cm4.h **** 
1338:Generated_Source\PSoC6\pdl\cmsis/include/core_cm4.h **** #define FPU_FPCCR_THREAD_Pos                3U                                            /*!< FPCC
1339:Generated_Source\PSoC6\pdl\cmsis/include/core_cm4.h **** #define FPU_FPCCR_THREAD_Msk               (1UL << FPU_FPCCR_THREAD_Pos)                  /*!< FPCC
1340:Generated_Source\PSoC6\pdl\cmsis/include/core_cm4.h **** 
1341:Generated_Source\PSoC6\pdl\cmsis/include/core_cm4.h **** #define FPU_FPCCR_USER_Pos                  1U                                            /*!< FPCC
1342:Generated_Source\PSoC6\pdl\cmsis/include/core_cm4.h **** #define FPU_FPCCR_USER_Msk                 (1UL << FPU_FPCCR_USER_Pos)                    /*!< FPCC
1343:Generated_Source\PSoC6\pdl\cmsis/include/core_cm4.h **** 
1344:Generated_Source\PSoC6\pdl\cmsis/include/core_cm4.h **** #define FPU_FPCCR_LSPACT_Pos                0U                                            /*!< FPCC
1345:Generated_Source\PSoC6\pdl\cmsis/include/core_cm4.h **** #define FPU_FPCCR_LSPACT_Msk               (1UL /*<< FPU_FPCCR_LSPACT_Pos*/)              /*!< FPCC
1346:Generated_Source\PSoC6\pdl\cmsis/include/core_cm4.h **** 
1347:Generated_Source\PSoC6\pdl\cmsis/include/core_cm4.h **** /* Floating-Point Context Address Register Definitions */
1348:Generated_Source\PSoC6\pdl\cmsis/include/core_cm4.h **** #define FPU_FPCAR_ADDRESS_Pos               3U                                            /*!< FPCA
1349:Generated_Source\PSoC6\pdl\cmsis/include/core_cm4.h **** #define FPU_FPCAR_ADDRESS_Msk              (0x1FFFFFFFUL << FPU_FPCAR_ADDRESS_Pos)        /*!< FPCA
1350:Generated_Source\PSoC6\pdl\cmsis/include/core_cm4.h **** 
1351:Generated_Source\PSoC6\pdl\cmsis/include/core_cm4.h **** /* Floating-Point Default Status Control Register Definitions */
1352:Generated_Source\PSoC6\pdl\cmsis/include/core_cm4.h **** #define FPU_FPDSCR_AHP_Pos                 26U                                            /*!< FPDS
1353:Generated_Source\PSoC6\pdl\cmsis/include/core_cm4.h **** #define FPU_FPDSCR_AHP_Msk                 (1UL << FPU_FPDSCR_AHP_Pos)                    /*!< FPDS
1354:Generated_Source\PSoC6\pdl\cmsis/include/core_cm4.h **** 
1355:Generated_Source\PSoC6\pdl\cmsis/include/core_cm4.h **** #define FPU_FPDSCR_DN_Pos                  25U                                            /*!< FPDS
1356:Generated_Source\PSoC6\pdl\cmsis/include/core_cm4.h **** #define FPU_FPDSCR_DN_Msk                  (1UL << FPU_FPDSCR_DN_Pos)                     /*!< FPDS
1357:Generated_Source\PSoC6\pdl\cmsis/include/core_cm4.h **** 
1358:Generated_Source\PSoC6\pdl\cmsis/include/core_cm4.h **** #define FPU_FPDSCR_FZ_Pos                  24U                                            /*!< FPDS
1359:Generated_Source\PSoC6\pdl\cmsis/include/core_cm4.h **** #define FPU_FPDSCR_FZ_Msk                  (1UL << FPU_FPDSCR_FZ_Pos)                     /*!< FPDS
1360:Generated_Source\PSoC6\pdl\cmsis/include/core_cm4.h **** 
1361:Generated_Source\PSoC6\pdl\cmsis/include/core_cm4.h **** #define FPU_FPDSCR_RMode_Pos               22U                                            /*!< FPDS
1362:Generated_Source\PSoC6\pdl\cmsis/include/core_cm4.h **** #define FPU_FPDSCR_RMode_Msk               (3UL << FPU_FPDSCR_RMode_Pos)                  /*!< FPDS
1363:Generated_Source\PSoC6\pdl\cmsis/include/core_cm4.h **** 
1364:Generated_Source\PSoC6\pdl\cmsis/include/core_cm4.h **** /* Media and FP Feature Register 0 Definitions */
1365:Generated_Source\PSoC6\pdl\cmsis/include/core_cm4.h **** #define FPU_MVFR0_FP_rounding_modes_Pos    28U                                            /*!< MVFR
1366:Generated_Source\PSoC6\pdl\cmsis/include/core_cm4.h **** #define FPU_MVFR0_FP_rounding_modes_Msk    (0xFUL << FPU_MVFR0_FP_rounding_modes_Pos)     /*!< MVFR
1367:Generated_Source\PSoC6\pdl\cmsis/include/core_cm4.h **** 
1368:Generated_Source\PSoC6\pdl\cmsis/include/core_cm4.h **** #define FPU_MVFR0_Short_vectors_Pos        24U                                            /*!< MVFR
1369:Generated_Source\PSoC6\pdl\cmsis/include/core_cm4.h **** #define FPU_MVFR0_Short_vectors_Msk        (0xFUL << FPU_MVFR0_Short_vectors_Pos)         /*!< MVFR
1370:Generated_Source\PSoC6\pdl\cmsis/include/core_cm4.h **** 
ARM GAS  C:\Users\gjl\AppData\Local\Temp\ccMETlfj.s 			page 32


1371:Generated_Source\PSoC6\pdl\cmsis/include/core_cm4.h **** #define FPU_MVFR0_Square_root_Pos          20U                                            /*!< MVFR
1372:Generated_Source\PSoC6\pdl\cmsis/include/core_cm4.h **** #define FPU_MVFR0_Square_root_Msk          (0xFUL << FPU_MVFR0_Square_root_Pos)           /*!< MVFR
1373:Generated_Source\PSoC6\pdl\cmsis/include/core_cm4.h **** 
1374:Generated_Source\PSoC6\pdl\cmsis/include/core_cm4.h **** #define FPU_MVFR0_Divide_Pos               16U                                            /*!< MVFR
1375:Generated_Source\PSoC6\pdl\cmsis/include/core_cm4.h **** #define FPU_MVFR0_Divide_Msk               (0xFUL << FPU_MVFR0_Divide_Pos)                /*!< MVFR
1376:Generated_Source\PSoC6\pdl\cmsis/include/core_cm4.h **** 
1377:Generated_Source\PSoC6\pdl\cmsis/include/core_cm4.h **** #define FPU_MVFR0_FP_excep_trapping_Pos    12U                                            /*!< MVFR
1378:Generated_Source\PSoC6\pdl\cmsis/include/core_cm4.h **** #define FPU_MVFR0_FP_excep_trapping_Msk    (0xFUL << FPU_MVFR0_FP_excep_trapping_Pos)     /*!< MVFR
1379:Generated_Source\PSoC6\pdl\cmsis/include/core_cm4.h **** 
1380:Generated_Source\PSoC6\pdl\cmsis/include/core_cm4.h **** #define FPU_MVFR0_Double_precision_Pos      8U                                            /*!< MVFR
1381:Generated_Source\PSoC6\pdl\cmsis/include/core_cm4.h **** #define FPU_MVFR0_Double_precision_Msk     (0xFUL << FPU_MVFR0_Double_precision_Pos)      /*!< MVFR
1382:Generated_Source\PSoC6\pdl\cmsis/include/core_cm4.h **** 
1383:Generated_Source\PSoC6\pdl\cmsis/include/core_cm4.h **** #define FPU_MVFR0_Single_precision_Pos      4U                                            /*!< MVFR
1384:Generated_Source\PSoC6\pdl\cmsis/include/core_cm4.h **** #define FPU_MVFR0_Single_precision_Msk     (0xFUL << FPU_MVFR0_Single_precision_Pos)      /*!< MVFR
1385:Generated_Source\PSoC6\pdl\cmsis/include/core_cm4.h **** 
1386:Generated_Source\PSoC6\pdl\cmsis/include/core_cm4.h **** #define FPU_MVFR0_A_SIMD_registers_Pos      0U                                            /*!< MVFR
1387:Generated_Source\PSoC6\pdl\cmsis/include/core_cm4.h **** #define FPU_MVFR0_A_SIMD_registers_Msk     (0xFUL /*<< FPU_MVFR0_A_SIMD_registers_Pos*/)  /*!< MVFR
1388:Generated_Source\PSoC6\pdl\cmsis/include/core_cm4.h **** 
1389:Generated_Source\PSoC6\pdl\cmsis/include/core_cm4.h **** /* Media and FP Feature Register 1 Definitions */
1390:Generated_Source\PSoC6\pdl\cmsis/include/core_cm4.h **** #define FPU_MVFR1_FP_fused_MAC_Pos         28U                                            /*!< MVFR
1391:Generated_Source\PSoC6\pdl\cmsis/include/core_cm4.h **** #define FPU_MVFR1_FP_fused_MAC_Msk         (0xFUL << FPU_MVFR1_FP_fused_MAC_Pos)          /*!< MVFR
1392:Generated_Source\PSoC6\pdl\cmsis/include/core_cm4.h **** 
1393:Generated_Source\PSoC6\pdl\cmsis/include/core_cm4.h **** #define FPU_MVFR1_FP_HPFP_Pos              24U                                            /*!< MVFR
1394:Generated_Source\PSoC6\pdl\cmsis/include/core_cm4.h **** #define FPU_MVFR1_FP_HPFP_Msk              (0xFUL << FPU_MVFR1_FP_HPFP_Pos)               /*!< MVFR
1395:Generated_Source\PSoC6\pdl\cmsis/include/core_cm4.h **** 
1396:Generated_Source\PSoC6\pdl\cmsis/include/core_cm4.h **** #define FPU_MVFR1_D_NaN_mode_Pos            4U                                            /*!< MVFR
1397:Generated_Source\PSoC6\pdl\cmsis/include/core_cm4.h **** #define FPU_MVFR1_D_NaN_mode_Msk           (0xFUL << FPU_MVFR1_D_NaN_mode_Pos)            /*!< MVFR
1398:Generated_Source\PSoC6\pdl\cmsis/include/core_cm4.h **** 
1399:Generated_Source\PSoC6\pdl\cmsis/include/core_cm4.h **** #define FPU_MVFR1_FtZ_mode_Pos              0U                                            /*!< MVFR
1400:Generated_Source\PSoC6\pdl\cmsis/include/core_cm4.h **** #define FPU_MVFR1_FtZ_mode_Msk             (0xFUL /*<< FPU_MVFR1_FtZ_mode_Pos*/)          /*!< MVFR
1401:Generated_Source\PSoC6\pdl\cmsis/include/core_cm4.h **** 
1402:Generated_Source\PSoC6\pdl\cmsis/include/core_cm4.h **** /*@} end of group CMSIS_FPU */
1403:Generated_Source\PSoC6\pdl\cmsis/include/core_cm4.h **** 
1404:Generated_Source\PSoC6\pdl\cmsis/include/core_cm4.h **** 
1405:Generated_Source\PSoC6\pdl\cmsis/include/core_cm4.h **** /**
1406:Generated_Source\PSoC6\pdl\cmsis/include/core_cm4.h ****   \ingroup  CMSIS_core_register
1407:Generated_Source\PSoC6\pdl\cmsis/include/core_cm4.h ****   \defgroup CMSIS_CoreDebug       Core Debug Registers (CoreDebug)
1408:Generated_Source\PSoC6\pdl\cmsis/include/core_cm4.h ****   \brief    Type definitions for the Core Debug Registers
1409:Generated_Source\PSoC6\pdl\cmsis/include/core_cm4.h ****   @{
1410:Generated_Source\PSoC6\pdl\cmsis/include/core_cm4.h ****  */
1411:Generated_Source\PSoC6\pdl\cmsis/include/core_cm4.h **** 
1412:Generated_Source\PSoC6\pdl\cmsis/include/core_cm4.h **** /**
1413:Generated_Source\PSoC6\pdl\cmsis/include/core_cm4.h ****   \brief  Structure type to access the Core Debug Register (CoreDebug).
1414:Generated_Source\PSoC6\pdl\cmsis/include/core_cm4.h ****  */
1415:Generated_Source\PSoC6\pdl\cmsis/include/core_cm4.h **** typedef struct
1416:Generated_Source\PSoC6\pdl\cmsis/include/core_cm4.h **** {
1417:Generated_Source\PSoC6\pdl\cmsis/include/core_cm4.h ****   __IOM uint32_t DHCSR;                  /*!< Offset: 0x000 (R/W)  Debug Halting Control and Status
1418:Generated_Source\PSoC6\pdl\cmsis/include/core_cm4.h ****   __OM  uint32_t DCRSR;                  /*!< Offset: 0x004 ( /W)  Debug Core Register Selector Reg
1419:Generated_Source\PSoC6\pdl\cmsis/include/core_cm4.h ****   __IOM uint32_t DCRDR;                  /*!< Offset: 0x008 (R/W)  Debug Core Register Data Registe
1420:Generated_Source\PSoC6\pdl\cmsis/include/core_cm4.h ****   __IOM uint32_t DEMCR;                  /*!< Offset: 0x00C (R/W)  Debug Exception and Monitor Cont
1421:Generated_Source\PSoC6\pdl\cmsis/include/core_cm4.h **** } CoreDebug_Type;
1422:Generated_Source\PSoC6\pdl\cmsis/include/core_cm4.h **** 
1423:Generated_Source\PSoC6\pdl\cmsis/include/core_cm4.h **** /* Debug Halting Control and Status Register Definitions */
1424:Generated_Source\PSoC6\pdl\cmsis/include/core_cm4.h **** #define CoreDebug_DHCSR_DBGKEY_Pos         16U                                            /*!< Core
1425:Generated_Source\PSoC6\pdl\cmsis/include/core_cm4.h **** #define CoreDebug_DHCSR_DBGKEY_Msk         (0xFFFFUL << CoreDebug_DHCSR_DBGKEY_Pos)       /*!< Core
1426:Generated_Source\PSoC6\pdl\cmsis/include/core_cm4.h **** 
1427:Generated_Source\PSoC6\pdl\cmsis/include/core_cm4.h **** #define CoreDebug_DHCSR_S_RESET_ST_Pos     25U                                            /*!< Core
ARM GAS  C:\Users\gjl\AppData\Local\Temp\ccMETlfj.s 			page 33


1428:Generated_Source\PSoC6\pdl\cmsis/include/core_cm4.h **** #define CoreDebug_DHCSR_S_RESET_ST_Msk     (1UL << CoreDebug_DHCSR_S_RESET_ST_Pos)        /*!< Core
1429:Generated_Source\PSoC6\pdl\cmsis/include/core_cm4.h **** 
1430:Generated_Source\PSoC6\pdl\cmsis/include/core_cm4.h **** #define CoreDebug_DHCSR_S_RETIRE_ST_Pos    24U                                            /*!< Core
1431:Generated_Source\PSoC6\pdl\cmsis/include/core_cm4.h **** #define CoreDebug_DHCSR_S_RETIRE_ST_Msk    (1UL << CoreDebug_DHCSR_S_RETIRE_ST_Pos)       /*!< Core
1432:Generated_Source\PSoC6\pdl\cmsis/include/core_cm4.h **** 
1433:Generated_Source\PSoC6\pdl\cmsis/include/core_cm4.h **** #define CoreDebug_DHCSR_S_LOCKUP_Pos       19U                                            /*!< Core
1434:Generated_Source\PSoC6\pdl\cmsis/include/core_cm4.h **** #define CoreDebug_DHCSR_S_LOCKUP_Msk       (1UL << CoreDebug_DHCSR_S_LOCKUP_Pos)          /*!< Core
1435:Generated_Source\PSoC6\pdl\cmsis/include/core_cm4.h **** 
1436:Generated_Source\PSoC6\pdl\cmsis/include/core_cm4.h **** #define CoreDebug_DHCSR_S_SLEEP_Pos        18U                                            /*!< Core
1437:Generated_Source\PSoC6\pdl\cmsis/include/core_cm4.h **** #define CoreDebug_DHCSR_S_SLEEP_Msk        (1UL << CoreDebug_DHCSR_S_SLEEP_Pos)           /*!< Core
1438:Generated_Source\PSoC6\pdl\cmsis/include/core_cm4.h **** 
1439:Generated_Source\PSoC6\pdl\cmsis/include/core_cm4.h **** #define CoreDebug_DHCSR_S_HALT_Pos         17U                                            /*!< Core
1440:Generated_Source\PSoC6\pdl\cmsis/include/core_cm4.h **** #define CoreDebug_DHCSR_S_HALT_Msk         (1UL << CoreDebug_DHCSR_S_HALT_Pos)            /*!< Core
1441:Generated_Source\PSoC6\pdl\cmsis/include/core_cm4.h **** 
1442:Generated_Source\PSoC6\pdl\cmsis/include/core_cm4.h **** #define CoreDebug_DHCSR_S_REGRDY_Pos       16U                                            /*!< Core
1443:Generated_Source\PSoC6\pdl\cmsis/include/core_cm4.h **** #define CoreDebug_DHCSR_S_REGRDY_Msk       (1UL << CoreDebug_DHCSR_S_REGRDY_Pos)          /*!< Core
1444:Generated_Source\PSoC6\pdl\cmsis/include/core_cm4.h **** 
1445:Generated_Source\PSoC6\pdl\cmsis/include/core_cm4.h **** #define CoreDebug_DHCSR_C_SNAPSTALL_Pos     5U                                            /*!< Core
1446:Generated_Source\PSoC6\pdl\cmsis/include/core_cm4.h **** #define CoreDebug_DHCSR_C_SNAPSTALL_Msk    (1UL << CoreDebug_DHCSR_C_SNAPSTALL_Pos)       /*!< Core
1447:Generated_Source\PSoC6\pdl\cmsis/include/core_cm4.h **** 
1448:Generated_Source\PSoC6\pdl\cmsis/include/core_cm4.h **** #define CoreDebug_DHCSR_C_MASKINTS_Pos      3U                                            /*!< Core
1449:Generated_Source\PSoC6\pdl\cmsis/include/core_cm4.h **** #define CoreDebug_DHCSR_C_MASKINTS_Msk     (1UL << CoreDebug_DHCSR_C_MASKINTS_Pos)        /*!< Core
1450:Generated_Source\PSoC6\pdl\cmsis/include/core_cm4.h **** 
1451:Generated_Source\PSoC6\pdl\cmsis/include/core_cm4.h **** #define CoreDebug_DHCSR_C_STEP_Pos          2U                                            /*!< Core
1452:Generated_Source\PSoC6\pdl\cmsis/include/core_cm4.h **** #define CoreDebug_DHCSR_C_STEP_Msk         (1UL << CoreDebug_DHCSR_C_STEP_Pos)            /*!< Core
1453:Generated_Source\PSoC6\pdl\cmsis/include/core_cm4.h **** 
1454:Generated_Source\PSoC6\pdl\cmsis/include/core_cm4.h **** #define CoreDebug_DHCSR_C_HALT_Pos          1U                                            /*!< Core
1455:Generated_Source\PSoC6\pdl\cmsis/include/core_cm4.h **** #define CoreDebug_DHCSR_C_HALT_Msk         (1UL << CoreDebug_DHCSR_C_HALT_Pos)            /*!< Core
1456:Generated_Source\PSoC6\pdl\cmsis/include/core_cm4.h **** 
1457:Generated_Source\PSoC6\pdl\cmsis/include/core_cm4.h **** #define CoreDebug_DHCSR_C_DEBUGEN_Pos       0U                                            /*!< Core
1458:Generated_Source\PSoC6\pdl\cmsis/include/core_cm4.h **** #define CoreDebug_DHCSR_C_DEBUGEN_Msk      (1UL /*<< CoreDebug_DHCSR_C_DEBUGEN_Pos*/)     /*!< Core
1459:Generated_Source\PSoC6\pdl\cmsis/include/core_cm4.h **** 
1460:Generated_Source\PSoC6\pdl\cmsis/include/core_cm4.h **** /* Debug Core Register Selector Register Definitions */
1461:Generated_Source\PSoC6\pdl\cmsis/include/core_cm4.h **** #define CoreDebug_DCRSR_REGWnR_Pos         16U                                            /*!< Core
1462:Generated_Source\PSoC6\pdl\cmsis/include/core_cm4.h **** #define CoreDebug_DCRSR_REGWnR_Msk         (1UL << CoreDebug_DCRSR_REGWnR_Pos)            /*!< Core
1463:Generated_Source\PSoC6\pdl\cmsis/include/core_cm4.h **** 
1464:Generated_Source\PSoC6\pdl\cmsis/include/core_cm4.h **** #define CoreDebug_DCRSR_REGSEL_Pos          0U                                            /*!< Core
1465:Generated_Source\PSoC6\pdl\cmsis/include/core_cm4.h **** #define CoreDebug_DCRSR_REGSEL_Msk         (0x1FUL /*<< CoreDebug_DCRSR_REGSEL_Pos*/)     /*!< Core
1466:Generated_Source\PSoC6\pdl\cmsis/include/core_cm4.h **** 
1467:Generated_Source\PSoC6\pdl\cmsis/include/core_cm4.h **** /* Debug Exception and Monitor Control Register Definitions */
1468:Generated_Source\PSoC6\pdl\cmsis/include/core_cm4.h **** #define CoreDebug_DEMCR_TRCENA_Pos         24U                                            /*!< Core
1469:Generated_Source\PSoC6\pdl\cmsis/include/core_cm4.h **** #define CoreDebug_DEMCR_TRCENA_Msk         (1UL << CoreDebug_DEMCR_TRCENA_Pos)            /*!< Core
1470:Generated_Source\PSoC6\pdl\cmsis/include/core_cm4.h **** 
1471:Generated_Source\PSoC6\pdl\cmsis/include/core_cm4.h **** #define CoreDebug_DEMCR_MON_REQ_Pos        19U                                            /*!< Core
1472:Generated_Source\PSoC6\pdl\cmsis/include/core_cm4.h **** #define CoreDebug_DEMCR_MON_REQ_Msk        (1UL << CoreDebug_DEMCR_MON_REQ_Pos)           /*!< Core
1473:Generated_Source\PSoC6\pdl\cmsis/include/core_cm4.h **** 
1474:Generated_Source\PSoC6\pdl\cmsis/include/core_cm4.h **** #define CoreDebug_DEMCR_MON_STEP_Pos       18U                                            /*!< Core
1475:Generated_Source\PSoC6\pdl\cmsis/include/core_cm4.h **** #define CoreDebug_DEMCR_MON_STEP_Msk       (1UL << CoreDebug_DEMCR_MON_STEP_Pos)          /*!< Core
1476:Generated_Source\PSoC6\pdl\cmsis/include/core_cm4.h **** 
1477:Generated_Source\PSoC6\pdl\cmsis/include/core_cm4.h **** #define CoreDebug_DEMCR_MON_PEND_Pos       17U                                            /*!< Core
1478:Generated_Source\PSoC6\pdl\cmsis/include/core_cm4.h **** #define CoreDebug_DEMCR_MON_PEND_Msk       (1UL << CoreDebug_DEMCR_MON_PEND_Pos)          /*!< Core
1479:Generated_Source\PSoC6\pdl\cmsis/include/core_cm4.h **** 
1480:Generated_Source\PSoC6\pdl\cmsis/include/core_cm4.h **** #define CoreDebug_DEMCR_MON_EN_Pos         16U                                            /*!< Core
1481:Generated_Source\PSoC6\pdl\cmsis/include/core_cm4.h **** #define CoreDebug_DEMCR_MON_EN_Msk         (1UL << CoreDebug_DEMCR_MON_EN_Pos)            /*!< Core
1482:Generated_Source\PSoC6\pdl\cmsis/include/core_cm4.h **** 
1483:Generated_Source\PSoC6\pdl\cmsis/include/core_cm4.h **** #define CoreDebug_DEMCR_VC_HARDERR_Pos     10U                                            /*!< Core
1484:Generated_Source\PSoC6\pdl\cmsis/include/core_cm4.h **** #define CoreDebug_DEMCR_VC_HARDERR_Msk     (1UL << CoreDebug_DEMCR_VC_HARDERR_Pos)        /*!< Core
ARM GAS  C:\Users\gjl\AppData\Local\Temp\ccMETlfj.s 			page 34


1485:Generated_Source\PSoC6\pdl\cmsis/include/core_cm4.h **** 
1486:Generated_Source\PSoC6\pdl\cmsis/include/core_cm4.h **** #define CoreDebug_DEMCR_VC_INTERR_Pos       9U                                            /*!< Core
1487:Generated_Source\PSoC6\pdl\cmsis/include/core_cm4.h **** #define CoreDebug_DEMCR_VC_INTERR_Msk      (1UL << CoreDebug_DEMCR_VC_INTERR_Pos)         /*!< Core
1488:Generated_Source\PSoC6\pdl\cmsis/include/core_cm4.h **** 
1489:Generated_Source\PSoC6\pdl\cmsis/include/core_cm4.h **** #define CoreDebug_DEMCR_VC_BUSERR_Pos       8U                                            /*!< Core
1490:Generated_Source\PSoC6\pdl\cmsis/include/core_cm4.h **** #define CoreDebug_DEMCR_VC_BUSERR_Msk      (1UL << CoreDebug_DEMCR_VC_BUSERR_Pos)         /*!< Core
1491:Generated_Source\PSoC6\pdl\cmsis/include/core_cm4.h **** 
1492:Generated_Source\PSoC6\pdl\cmsis/include/core_cm4.h **** #define CoreDebug_DEMCR_VC_STATERR_Pos      7U                                            /*!< Core
1493:Generated_Source\PSoC6\pdl\cmsis/include/core_cm4.h **** #define CoreDebug_DEMCR_VC_STATERR_Msk     (1UL << CoreDebug_DEMCR_VC_STATERR_Pos)        /*!< Core
1494:Generated_Source\PSoC6\pdl\cmsis/include/core_cm4.h **** 
1495:Generated_Source\PSoC6\pdl\cmsis/include/core_cm4.h **** #define CoreDebug_DEMCR_VC_CHKERR_Pos       6U                                            /*!< Core
1496:Generated_Source\PSoC6\pdl\cmsis/include/core_cm4.h **** #define CoreDebug_DEMCR_VC_CHKERR_Msk      (1UL << CoreDebug_DEMCR_VC_CHKERR_Pos)         /*!< Core
1497:Generated_Source\PSoC6\pdl\cmsis/include/core_cm4.h **** 
1498:Generated_Source\PSoC6\pdl\cmsis/include/core_cm4.h **** #define CoreDebug_DEMCR_VC_NOCPERR_Pos      5U                                            /*!< Core
1499:Generated_Source\PSoC6\pdl\cmsis/include/core_cm4.h **** #define CoreDebug_DEMCR_VC_NOCPERR_Msk     (1UL << CoreDebug_DEMCR_VC_NOCPERR_Pos)        /*!< Core
1500:Generated_Source\PSoC6\pdl\cmsis/include/core_cm4.h **** 
1501:Generated_Source\PSoC6\pdl\cmsis/include/core_cm4.h **** #define CoreDebug_DEMCR_VC_MMERR_Pos        4U                                            /*!< Core
1502:Generated_Source\PSoC6\pdl\cmsis/include/core_cm4.h **** #define CoreDebug_DEMCR_VC_MMERR_Msk       (1UL << CoreDebug_DEMCR_VC_MMERR_Pos)          /*!< Core
1503:Generated_Source\PSoC6\pdl\cmsis/include/core_cm4.h **** 
1504:Generated_Source\PSoC6\pdl\cmsis/include/core_cm4.h **** #define CoreDebug_DEMCR_VC_CORERESET_Pos    0U                                            /*!< Core
1505:Generated_Source\PSoC6\pdl\cmsis/include/core_cm4.h **** #define CoreDebug_DEMCR_VC_CORERESET_Msk   (1UL /*<< CoreDebug_DEMCR_VC_CORERESET_Pos*/)  /*!< Core
1506:Generated_Source\PSoC6\pdl\cmsis/include/core_cm4.h **** 
1507:Generated_Source\PSoC6\pdl\cmsis/include/core_cm4.h **** /*@} end of group CMSIS_CoreDebug */
1508:Generated_Source\PSoC6\pdl\cmsis/include/core_cm4.h **** 
1509:Generated_Source\PSoC6\pdl\cmsis/include/core_cm4.h **** 
1510:Generated_Source\PSoC6\pdl\cmsis/include/core_cm4.h **** /**
1511:Generated_Source\PSoC6\pdl\cmsis/include/core_cm4.h ****   \ingroup    CMSIS_core_register
1512:Generated_Source\PSoC6\pdl\cmsis/include/core_cm4.h ****   \defgroup   CMSIS_core_bitfield     Core register bit field macros
1513:Generated_Source\PSoC6\pdl\cmsis/include/core_cm4.h ****   \brief      Macros for use with bit field definitions (xxx_Pos, xxx_Msk).
1514:Generated_Source\PSoC6\pdl\cmsis/include/core_cm4.h ****   @{
1515:Generated_Source\PSoC6\pdl\cmsis/include/core_cm4.h ****  */
1516:Generated_Source\PSoC6\pdl\cmsis/include/core_cm4.h **** 
1517:Generated_Source\PSoC6\pdl\cmsis/include/core_cm4.h **** /**
1518:Generated_Source\PSoC6\pdl\cmsis/include/core_cm4.h ****   \brief   Mask and shift a bit field value for use in a register bit range.
1519:Generated_Source\PSoC6\pdl\cmsis/include/core_cm4.h ****   \param[in] field  Name of the register bit field.
1520:Generated_Source\PSoC6\pdl\cmsis/include/core_cm4.h ****   \param[in] value  Value of the bit field. This parameter is interpreted as an uint32_t type.
1521:Generated_Source\PSoC6\pdl\cmsis/include/core_cm4.h ****   \return           Masked and shifted value.
1522:Generated_Source\PSoC6\pdl\cmsis/include/core_cm4.h **** */
1523:Generated_Source\PSoC6\pdl\cmsis/include/core_cm4.h **** #define _VAL2FLD(field, value)    (((uint32_t)(value) << field ## _Pos) & field ## _Msk)
1524:Generated_Source\PSoC6\pdl\cmsis/include/core_cm4.h **** 
1525:Generated_Source\PSoC6\pdl\cmsis/include/core_cm4.h **** /**
1526:Generated_Source\PSoC6\pdl\cmsis/include/core_cm4.h ****   \brief     Mask and shift a register value to extract a bit filed value.
1527:Generated_Source\PSoC6\pdl\cmsis/include/core_cm4.h ****   \param[in] field  Name of the register bit field.
1528:Generated_Source\PSoC6\pdl\cmsis/include/core_cm4.h ****   \param[in] value  Value of register. This parameter is interpreted as an uint32_t type.
1529:Generated_Source\PSoC6\pdl\cmsis/include/core_cm4.h ****   \return           Masked and shifted bit field value.
1530:Generated_Source\PSoC6\pdl\cmsis/include/core_cm4.h **** */
1531:Generated_Source\PSoC6\pdl\cmsis/include/core_cm4.h **** #define _FLD2VAL(field, value)    (((uint32_t)(value) & field ## _Msk) >> field ## _Pos)
1532:Generated_Source\PSoC6\pdl\cmsis/include/core_cm4.h **** 
1533:Generated_Source\PSoC6\pdl\cmsis/include/core_cm4.h **** /*@} end of group CMSIS_core_bitfield */
1534:Generated_Source\PSoC6\pdl\cmsis/include/core_cm4.h **** 
1535:Generated_Source\PSoC6\pdl\cmsis/include/core_cm4.h **** 
1536:Generated_Source\PSoC6\pdl\cmsis/include/core_cm4.h **** /**
1537:Generated_Source\PSoC6\pdl\cmsis/include/core_cm4.h ****   \ingroup    CMSIS_core_register
1538:Generated_Source\PSoC6\pdl\cmsis/include/core_cm4.h ****   \defgroup   CMSIS_core_base     Core Definitions
1539:Generated_Source\PSoC6\pdl\cmsis/include/core_cm4.h ****   \brief      Definitions for base addresses, unions, and structures.
1540:Generated_Source\PSoC6\pdl\cmsis/include/core_cm4.h ****   @{
1541:Generated_Source\PSoC6\pdl\cmsis/include/core_cm4.h ****  */
ARM GAS  C:\Users\gjl\AppData\Local\Temp\ccMETlfj.s 			page 35


1542:Generated_Source\PSoC6\pdl\cmsis/include/core_cm4.h **** 
1543:Generated_Source\PSoC6\pdl\cmsis/include/core_cm4.h **** /* Memory mapping of Core Hardware */
1544:Generated_Source\PSoC6\pdl\cmsis/include/core_cm4.h **** #define SCS_BASE            (0xE000E000UL)                            /*!< System Control Space Bas
1545:Generated_Source\PSoC6\pdl\cmsis/include/core_cm4.h **** #define ITM_BASE            (0xE0000000UL)                            /*!< ITM Base Address */
1546:Generated_Source\PSoC6\pdl\cmsis/include/core_cm4.h **** #define DWT_BASE            (0xE0001000UL)                            /*!< DWT Base Address */
1547:Generated_Source\PSoC6\pdl\cmsis/include/core_cm4.h **** #define TPI_BASE            (0xE0040000UL)                            /*!< TPI Base Address */
1548:Generated_Source\PSoC6\pdl\cmsis/include/core_cm4.h **** #define CoreDebug_BASE      (0xE000EDF0UL)                            /*!< Core Debug Base Address 
1549:Generated_Source\PSoC6\pdl\cmsis/include/core_cm4.h **** #define SysTick_BASE        (SCS_BASE +  0x0010UL)                    /*!< SysTick Base Address */
1550:Generated_Source\PSoC6\pdl\cmsis/include/core_cm4.h **** #define NVIC_BASE           (SCS_BASE +  0x0100UL)                    /*!< NVIC Base Address */
1551:Generated_Source\PSoC6\pdl\cmsis/include/core_cm4.h **** #define SCB_BASE            (SCS_BASE +  0x0D00UL)                    /*!< System Control Block Bas
1552:Generated_Source\PSoC6\pdl\cmsis/include/core_cm4.h **** 
1553:Generated_Source\PSoC6\pdl\cmsis/include/core_cm4.h **** #define SCnSCB              ((SCnSCB_Type    *)     SCS_BASE      )   /*!< System control Register 
1554:Generated_Source\PSoC6\pdl\cmsis/include/core_cm4.h **** #define SCB                 ((SCB_Type       *)     SCB_BASE      )   /*!< SCB configuration struct
1555:Generated_Source\PSoC6\pdl\cmsis/include/core_cm4.h **** #define SysTick             ((SysTick_Type   *)     SysTick_BASE  )   /*!< SysTick configuration st
1556:Generated_Source\PSoC6\pdl\cmsis/include/core_cm4.h **** #define NVIC                ((NVIC_Type      *)     NVIC_BASE     )   /*!< NVIC configuration struc
1557:Generated_Source\PSoC6\pdl\cmsis/include/core_cm4.h **** #define ITM                 ((ITM_Type       *)     ITM_BASE      )   /*!< ITM configuration struct
1558:Generated_Source\PSoC6\pdl\cmsis/include/core_cm4.h **** #define DWT                 ((DWT_Type       *)     DWT_BASE      )   /*!< DWT configuration struct
1559:Generated_Source\PSoC6\pdl\cmsis/include/core_cm4.h **** #define TPI                 ((TPI_Type       *)     TPI_BASE      )   /*!< TPI configuration struct
1560:Generated_Source\PSoC6\pdl\cmsis/include/core_cm4.h **** #define CoreDebug           ((CoreDebug_Type *)     CoreDebug_BASE)   /*!< Core Debug configuration
1561:Generated_Source\PSoC6\pdl\cmsis/include/core_cm4.h **** 
1562:Generated_Source\PSoC6\pdl\cmsis/include/core_cm4.h **** #if defined (__MPU_PRESENT) && (__MPU_PRESENT == 1U)
1563:Generated_Source\PSoC6\pdl\cmsis/include/core_cm4.h ****   #define MPU_BASE          (SCS_BASE +  0x0D90UL)                    /*!< Memory Protection Unit *
1564:Generated_Source\PSoC6\pdl\cmsis/include/core_cm4.h ****   #define MPU               ((MPU_Type       *)     MPU_BASE      )   /*!< Memory Protection Unit *
1565:Generated_Source\PSoC6\pdl\cmsis/include/core_cm4.h **** #endif
1566:Generated_Source\PSoC6\pdl\cmsis/include/core_cm4.h **** 
1567:Generated_Source\PSoC6\pdl\cmsis/include/core_cm4.h **** #define FPU_BASE            (SCS_BASE +  0x0F30UL)                    /*!< Floating Point Unit */
1568:Generated_Source\PSoC6\pdl\cmsis/include/core_cm4.h **** #define FPU                 ((FPU_Type       *)     FPU_BASE      )   /*!< Floating Point Unit */
1569:Generated_Source\PSoC6\pdl\cmsis/include/core_cm4.h **** 
1570:Generated_Source\PSoC6\pdl\cmsis/include/core_cm4.h **** /*@} */
1571:Generated_Source\PSoC6\pdl\cmsis/include/core_cm4.h **** 
1572:Generated_Source\PSoC6\pdl\cmsis/include/core_cm4.h **** 
1573:Generated_Source\PSoC6\pdl\cmsis/include/core_cm4.h **** 
1574:Generated_Source\PSoC6\pdl\cmsis/include/core_cm4.h **** /*******************************************************************************
1575:Generated_Source\PSoC6\pdl\cmsis/include/core_cm4.h ****  *                Hardware Abstraction Layer
1576:Generated_Source\PSoC6\pdl\cmsis/include/core_cm4.h ****   Core Function Interface contains:
1577:Generated_Source\PSoC6\pdl\cmsis/include/core_cm4.h ****   - Core NVIC Functions
1578:Generated_Source\PSoC6\pdl\cmsis/include/core_cm4.h ****   - Core SysTick Functions
1579:Generated_Source\PSoC6\pdl\cmsis/include/core_cm4.h ****   - Core Debug Functions
1580:Generated_Source\PSoC6\pdl\cmsis/include/core_cm4.h ****   - Core Register Access Functions
1581:Generated_Source\PSoC6\pdl\cmsis/include/core_cm4.h ****  ******************************************************************************/
1582:Generated_Source\PSoC6\pdl\cmsis/include/core_cm4.h **** /**
1583:Generated_Source\PSoC6\pdl\cmsis/include/core_cm4.h ****   \defgroup CMSIS_Core_FunctionInterface Functions and Instructions Reference
1584:Generated_Source\PSoC6\pdl\cmsis/include/core_cm4.h **** */
1585:Generated_Source\PSoC6\pdl\cmsis/include/core_cm4.h **** 
1586:Generated_Source\PSoC6\pdl\cmsis/include/core_cm4.h **** 
1587:Generated_Source\PSoC6\pdl\cmsis/include/core_cm4.h **** 
1588:Generated_Source\PSoC6\pdl\cmsis/include/core_cm4.h **** /* ##########################   NVIC functions  #################################### */
1589:Generated_Source\PSoC6\pdl\cmsis/include/core_cm4.h **** /**
1590:Generated_Source\PSoC6\pdl\cmsis/include/core_cm4.h ****   \ingroup  CMSIS_Core_FunctionInterface
1591:Generated_Source\PSoC6\pdl\cmsis/include/core_cm4.h ****   \defgroup CMSIS_Core_NVICFunctions NVIC Functions
1592:Generated_Source\PSoC6\pdl\cmsis/include/core_cm4.h ****   \brief    Functions that manage interrupts and exceptions via the NVIC.
1593:Generated_Source\PSoC6\pdl\cmsis/include/core_cm4.h ****   @{
1594:Generated_Source\PSoC6\pdl\cmsis/include/core_cm4.h ****  */
1595:Generated_Source\PSoC6\pdl\cmsis/include/core_cm4.h **** 
1596:Generated_Source\PSoC6\pdl\cmsis/include/core_cm4.h **** #ifdef CMSIS_NVIC_VIRTUAL
1597:Generated_Source\PSoC6\pdl\cmsis/include/core_cm4.h ****   #ifndef CMSIS_NVIC_VIRTUAL_HEADER_FILE
1598:Generated_Source\PSoC6\pdl\cmsis/include/core_cm4.h ****     #define CMSIS_NVIC_VIRTUAL_HEADER_FILE "cmsis_nvic_virtual.h"
ARM GAS  C:\Users\gjl\AppData\Local\Temp\ccMETlfj.s 			page 36


1599:Generated_Source\PSoC6\pdl\cmsis/include/core_cm4.h ****   #endif
1600:Generated_Source\PSoC6\pdl\cmsis/include/core_cm4.h ****   #include CMSIS_NVIC_VIRTUAL_HEADER_FILE
1601:Generated_Source\PSoC6\pdl\cmsis/include/core_cm4.h **** #else
1602:Generated_Source\PSoC6\pdl\cmsis/include/core_cm4.h ****   #define NVIC_SetPriorityGrouping    __NVIC_SetPriorityGrouping
1603:Generated_Source\PSoC6\pdl\cmsis/include/core_cm4.h ****   #define NVIC_GetPriorityGrouping    __NVIC_GetPriorityGrouping
1604:Generated_Source\PSoC6\pdl\cmsis/include/core_cm4.h ****   #define NVIC_EnableIRQ              __NVIC_EnableIRQ
1605:Generated_Source\PSoC6\pdl\cmsis/include/core_cm4.h ****   #define NVIC_GetEnableIRQ           __NVIC_GetEnableIRQ
1606:Generated_Source\PSoC6\pdl\cmsis/include/core_cm4.h ****   #define NVIC_DisableIRQ             __NVIC_DisableIRQ
1607:Generated_Source\PSoC6\pdl\cmsis/include/core_cm4.h ****   #define NVIC_GetPendingIRQ          __NVIC_GetPendingIRQ
1608:Generated_Source\PSoC6\pdl\cmsis/include/core_cm4.h ****   #define NVIC_SetPendingIRQ          __NVIC_SetPendingIRQ
1609:Generated_Source\PSoC6\pdl\cmsis/include/core_cm4.h ****   #define NVIC_ClearPendingIRQ        __NVIC_ClearPendingIRQ
1610:Generated_Source\PSoC6\pdl\cmsis/include/core_cm4.h ****   #define NVIC_GetActive              __NVIC_GetActive
1611:Generated_Source\PSoC6\pdl\cmsis/include/core_cm4.h ****   #define NVIC_SetPriority            __NVIC_SetPriority
1612:Generated_Source\PSoC6\pdl\cmsis/include/core_cm4.h ****   #define NVIC_GetPriority            __NVIC_GetPriority
1613:Generated_Source\PSoC6\pdl\cmsis/include/core_cm4.h ****   #define NVIC_SystemReset            __NVIC_SystemReset
1614:Generated_Source\PSoC6\pdl\cmsis/include/core_cm4.h **** #endif /* CMSIS_NVIC_VIRTUAL */
1615:Generated_Source\PSoC6\pdl\cmsis/include/core_cm4.h **** 
1616:Generated_Source\PSoC6\pdl\cmsis/include/core_cm4.h **** #ifdef CMSIS_VECTAB_VIRTUAL
1617:Generated_Source\PSoC6\pdl\cmsis/include/core_cm4.h ****   #ifndef CMSIS_VECTAB_VIRTUAL_HEADER_FILE
1618:Generated_Source\PSoC6\pdl\cmsis/include/core_cm4.h ****    #define CMSIS_VECTAB_VIRTUAL_HEADER_FILE "cmsis_vectab_virtual.h"
1619:Generated_Source\PSoC6\pdl\cmsis/include/core_cm4.h ****   #endif
1620:Generated_Source\PSoC6\pdl\cmsis/include/core_cm4.h ****   #include CMSIS_VECTAB_VIRTUAL_HEADER_FILE
1621:Generated_Source\PSoC6\pdl\cmsis/include/core_cm4.h **** #else
1622:Generated_Source\PSoC6\pdl\cmsis/include/core_cm4.h ****   #define NVIC_SetVector              __NVIC_SetVector
1623:Generated_Source\PSoC6\pdl\cmsis/include/core_cm4.h ****   #define NVIC_GetVector              __NVIC_GetVector
1624:Generated_Source\PSoC6\pdl\cmsis/include/core_cm4.h **** #endif  /* (CMSIS_VECTAB_VIRTUAL) */
1625:Generated_Source\PSoC6\pdl\cmsis/include/core_cm4.h **** 
1626:Generated_Source\PSoC6\pdl\cmsis/include/core_cm4.h **** #define NVIC_USER_IRQ_OFFSET          16
1627:Generated_Source\PSoC6\pdl\cmsis/include/core_cm4.h **** 
1628:Generated_Source\PSoC6\pdl\cmsis/include/core_cm4.h **** 
1629:Generated_Source\PSoC6\pdl\cmsis/include/core_cm4.h **** 
1630:Generated_Source\PSoC6\pdl\cmsis/include/core_cm4.h **** /**
1631:Generated_Source\PSoC6\pdl\cmsis/include/core_cm4.h ****   \brief   Set Priority Grouping
1632:Generated_Source\PSoC6\pdl\cmsis/include/core_cm4.h ****   \details Sets the priority grouping field using the required unlock sequence.
1633:Generated_Source\PSoC6\pdl\cmsis/include/core_cm4.h ****            The parameter PriorityGroup is assigned to the field SCB->AIRCR [10:8] PRIGROUP field.
1634:Generated_Source\PSoC6\pdl\cmsis/include/core_cm4.h ****            Only values from 0..7 are used.
1635:Generated_Source\PSoC6\pdl\cmsis/include/core_cm4.h ****            In case of a conflict between priority grouping and available
1636:Generated_Source\PSoC6\pdl\cmsis/include/core_cm4.h ****            priority bits (__NVIC_PRIO_BITS), the smallest possible priority group is set.
1637:Generated_Source\PSoC6\pdl\cmsis/include/core_cm4.h ****   \param [in]      PriorityGroup  Priority grouping field.
1638:Generated_Source\PSoC6\pdl\cmsis/include/core_cm4.h ****  */
1639:Generated_Source\PSoC6\pdl\cmsis/include/core_cm4.h **** __STATIC_INLINE void __NVIC_SetPriorityGrouping(uint32_t PriorityGroup)
1640:Generated_Source\PSoC6\pdl\cmsis/include/core_cm4.h **** {
1641:Generated_Source\PSoC6\pdl\cmsis/include/core_cm4.h ****   uint32_t reg_value;
1642:Generated_Source\PSoC6\pdl\cmsis/include/core_cm4.h ****   uint32_t PriorityGroupTmp = (PriorityGroup & (uint32_t)0x07UL);             /* only values 0..7 a
1643:Generated_Source\PSoC6\pdl\cmsis/include/core_cm4.h **** 
1644:Generated_Source\PSoC6\pdl\cmsis/include/core_cm4.h ****   reg_value  =  SCB->AIRCR;                                                   /* read old register 
1645:Generated_Source\PSoC6\pdl\cmsis/include/core_cm4.h ****   reg_value &= ~((uint32_t)(SCB_AIRCR_VECTKEY_Msk | SCB_AIRCR_PRIGROUP_Msk)); /* clear bits to chan
1646:Generated_Source\PSoC6\pdl\cmsis/include/core_cm4.h ****   reg_value  =  (reg_value                                   |
1647:Generated_Source\PSoC6\pdl\cmsis/include/core_cm4.h ****                 ((uint32_t)0x5FAUL << SCB_AIRCR_VECTKEY_Pos) |
1648:Generated_Source\PSoC6\pdl\cmsis/include/core_cm4.h ****                 (PriorityGroupTmp << 8U)                      );              /* Insert write key a
1649:Generated_Source\PSoC6\pdl\cmsis/include/core_cm4.h ****   SCB->AIRCR =  reg_value;
1650:Generated_Source\PSoC6\pdl\cmsis/include/core_cm4.h **** }
1651:Generated_Source\PSoC6\pdl\cmsis/include/core_cm4.h **** 
1652:Generated_Source\PSoC6\pdl\cmsis/include/core_cm4.h **** 
1653:Generated_Source\PSoC6\pdl\cmsis/include/core_cm4.h **** /**
1654:Generated_Source\PSoC6\pdl\cmsis/include/core_cm4.h ****   \brief   Get Priority Grouping
1655:Generated_Source\PSoC6\pdl\cmsis/include/core_cm4.h ****   \details Reads the priority grouping field from the NVIC Interrupt Controller.
ARM GAS  C:\Users\gjl\AppData\Local\Temp\ccMETlfj.s 			page 37


1656:Generated_Source\PSoC6\pdl\cmsis/include/core_cm4.h ****   \return                Priority grouping field (SCB->AIRCR [10:8] PRIGROUP field).
1657:Generated_Source\PSoC6\pdl\cmsis/include/core_cm4.h ****  */
1658:Generated_Source\PSoC6\pdl\cmsis/include/core_cm4.h **** __STATIC_INLINE uint32_t __NVIC_GetPriorityGrouping(void)
1659:Generated_Source\PSoC6\pdl\cmsis/include/core_cm4.h **** {
1660:Generated_Source\PSoC6\pdl\cmsis/include/core_cm4.h ****   return ((uint32_t)((SCB->AIRCR & SCB_AIRCR_PRIGROUP_Msk) >> SCB_AIRCR_PRIGROUP_Pos));
1661:Generated_Source\PSoC6\pdl\cmsis/include/core_cm4.h **** }
1662:Generated_Source\PSoC6\pdl\cmsis/include/core_cm4.h **** 
1663:Generated_Source\PSoC6\pdl\cmsis/include/core_cm4.h **** 
1664:Generated_Source\PSoC6\pdl\cmsis/include/core_cm4.h **** /**
1665:Generated_Source\PSoC6\pdl\cmsis/include/core_cm4.h ****   \brief   Enable Interrupt
1666:Generated_Source\PSoC6\pdl\cmsis/include/core_cm4.h ****   \details Enables a device specific interrupt in the NVIC interrupt controller.
1667:Generated_Source\PSoC6\pdl\cmsis/include/core_cm4.h ****   \param [in]      IRQn  Device specific interrupt number.
1668:Generated_Source\PSoC6\pdl\cmsis/include/core_cm4.h ****   \note    IRQn must not be negative.
1669:Generated_Source\PSoC6\pdl\cmsis/include/core_cm4.h ****  */
1670:Generated_Source\PSoC6\pdl\cmsis/include/core_cm4.h **** __STATIC_INLINE void __NVIC_EnableIRQ(IRQn_Type IRQn)
1671:Generated_Source\PSoC6\pdl\cmsis/include/core_cm4.h **** {
1672:Generated_Source\PSoC6\pdl\cmsis/include/core_cm4.h ****   if ((int32_t)(IRQn) >= 0)
1673:Generated_Source\PSoC6\pdl\cmsis/include/core_cm4.h ****   {
1674:Generated_Source\PSoC6\pdl\cmsis/include/core_cm4.h ****     NVIC->ISER[(((uint32_t)(int32_t)IRQn) >> 5UL)] = (uint32_t)(1UL << (((uint32_t)(int32_t)IRQn) &
1675:Generated_Source\PSoC6\pdl\cmsis/include/core_cm4.h ****   }
1676:Generated_Source\PSoC6\pdl\cmsis/include/core_cm4.h **** }
1677:Generated_Source\PSoC6\pdl\cmsis/include/core_cm4.h **** 
1678:Generated_Source\PSoC6\pdl\cmsis/include/core_cm4.h **** 
1679:Generated_Source\PSoC6\pdl\cmsis/include/core_cm4.h **** /**
1680:Generated_Source\PSoC6\pdl\cmsis/include/core_cm4.h ****   \brief   Get Interrupt Enable status
1681:Generated_Source\PSoC6\pdl\cmsis/include/core_cm4.h ****   \details Returns a device specific interrupt enable status from the NVIC interrupt controller.
1682:Generated_Source\PSoC6\pdl\cmsis/include/core_cm4.h ****   \param [in]      IRQn  Device specific interrupt number.
1683:Generated_Source\PSoC6\pdl\cmsis/include/core_cm4.h ****   \return             0  Interrupt is not enabled.
1684:Generated_Source\PSoC6\pdl\cmsis/include/core_cm4.h ****   \return             1  Interrupt is enabled.
1685:Generated_Source\PSoC6\pdl\cmsis/include/core_cm4.h ****   \note    IRQn must not be negative.
1686:Generated_Source\PSoC6\pdl\cmsis/include/core_cm4.h ****  */
1687:Generated_Source\PSoC6\pdl\cmsis/include/core_cm4.h **** __STATIC_INLINE uint32_t __NVIC_GetEnableIRQ(IRQn_Type IRQn)
1688:Generated_Source\PSoC6\pdl\cmsis/include/core_cm4.h **** {
1689:Generated_Source\PSoC6\pdl\cmsis/include/core_cm4.h ****   if ((int32_t)(IRQn) >= 0)
1690:Generated_Source\PSoC6\pdl\cmsis/include/core_cm4.h ****   {
1691:Generated_Source\PSoC6\pdl\cmsis/include/core_cm4.h ****     return((uint32_t)(((NVIC->ISER[(((uint32_t)(int32_t)IRQn) >> 5UL)] & (1UL << (((uint32_t)(int32
1692:Generated_Source\PSoC6\pdl\cmsis/include/core_cm4.h ****   }
1693:Generated_Source\PSoC6\pdl\cmsis/include/core_cm4.h ****   else
1694:Generated_Source\PSoC6\pdl\cmsis/include/core_cm4.h ****   {
1695:Generated_Source\PSoC6\pdl\cmsis/include/core_cm4.h ****     return(0U);
1696:Generated_Source\PSoC6\pdl\cmsis/include/core_cm4.h ****   }
1697:Generated_Source\PSoC6\pdl\cmsis/include/core_cm4.h **** }
1698:Generated_Source\PSoC6\pdl\cmsis/include/core_cm4.h **** 
1699:Generated_Source\PSoC6\pdl\cmsis/include/core_cm4.h **** 
1700:Generated_Source\PSoC6\pdl\cmsis/include/core_cm4.h **** /**
1701:Generated_Source\PSoC6\pdl\cmsis/include/core_cm4.h ****   \brief   Disable Interrupt
1702:Generated_Source\PSoC6\pdl\cmsis/include/core_cm4.h ****   \details Disables a device specific interrupt in the NVIC interrupt controller.
1703:Generated_Source\PSoC6\pdl\cmsis/include/core_cm4.h ****   \param [in]      IRQn  Device specific interrupt number.
1704:Generated_Source\PSoC6\pdl\cmsis/include/core_cm4.h ****   \note    IRQn must not be negative.
1705:Generated_Source\PSoC6\pdl\cmsis/include/core_cm4.h ****  */
1706:Generated_Source\PSoC6\pdl\cmsis/include/core_cm4.h **** __STATIC_INLINE void __NVIC_DisableIRQ(IRQn_Type IRQn)
1707:Generated_Source\PSoC6\pdl\cmsis/include/core_cm4.h **** {
1708:Generated_Source\PSoC6\pdl\cmsis/include/core_cm4.h ****   if ((int32_t)(IRQn) >= 0)
1709:Generated_Source\PSoC6\pdl\cmsis/include/core_cm4.h ****   {
1710:Generated_Source\PSoC6\pdl\cmsis/include/core_cm4.h ****     NVIC->ICER[(((uint32_t)(int32_t)IRQn) >> 5UL)] = (uint32_t)(1UL << (((uint32_t)(int32_t)IRQn) &
1711:Generated_Source\PSoC6\pdl\cmsis/include/core_cm4.h ****     __DSB();
1712:Generated_Source\PSoC6\pdl\cmsis/include/core_cm4.h ****     __ISB();
ARM GAS  C:\Users\gjl\AppData\Local\Temp\ccMETlfj.s 			page 38


1713:Generated_Source\PSoC6\pdl\cmsis/include/core_cm4.h ****   }
1714:Generated_Source\PSoC6\pdl\cmsis/include/core_cm4.h **** }
1715:Generated_Source\PSoC6\pdl\cmsis/include/core_cm4.h **** 
1716:Generated_Source\PSoC6\pdl\cmsis/include/core_cm4.h **** 
1717:Generated_Source\PSoC6\pdl\cmsis/include/core_cm4.h **** /**
1718:Generated_Source\PSoC6\pdl\cmsis/include/core_cm4.h ****   \brief   Get Pending Interrupt
1719:Generated_Source\PSoC6\pdl\cmsis/include/core_cm4.h ****   \details Reads the NVIC pending register and returns the pending bit for the specified device spe
1720:Generated_Source\PSoC6\pdl\cmsis/include/core_cm4.h ****   \param [in]      IRQn  Device specific interrupt number.
1721:Generated_Source\PSoC6\pdl\cmsis/include/core_cm4.h ****   \return             0  Interrupt status is not pending.
1722:Generated_Source\PSoC6\pdl\cmsis/include/core_cm4.h ****   \return             1  Interrupt status is pending.
1723:Generated_Source\PSoC6\pdl\cmsis/include/core_cm4.h ****   \note    IRQn must not be negative.
1724:Generated_Source\PSoC6\pdl\cmsis/include/core_cm4.h ****  */
1725:Generated_Source\PSoC6\pdl\cmsis/include/core_cm4.h **** __STATIC_INLINE uint32_t __NVIC_GetPendingIRQ(IRQn_Type IRQn)
1726:Generated_Source\PSoC6\pdl\cmsis/include/core_cm4.h **** {
1727:Generated_Source\PSoC6\pdl\cmsis/include/core_cm4.h ****   if ((int32_t)(IRQn) >= 0)
1728:Generated_Source\PSoC6\pdl\cmsis/include/core_cm4.h ****   {
1729:Generated_Source\PSoC6\pdl\cmsis/include/core_cm4.h ****     return((uint32_t)(((NVIC->ISPR[(((uint32_t)(int32_t)IRQn) >> 5UL)] & (1UL << (((uint32_t)(int32
1730:Generated_Source\PSoC6\pdl\cmsis/include/core_cm4.h ****   }
1731:Generated_Source\PSoC6\pdl\cmsis/include/core_cm4.h ****   else
1732:Generated_Source\PSoC6\pdl\cmsis/include/core_cm4.h ****   {
1733:Generated_Source\PSoC6\pdl\cmsis/include/core_cm4.h ****     return(0U);
1734:Generated_Source\PSoC6\pdl\cmsis/include/core_cm4.h ****   }
1735:Generated_Source\PSoC6\pdl\cmsis/include/core_cm4.h **** }
1736:Generated_Source\PSoC6\pdl\cmsis/include/core_cm4.h **** 
1737:Generated_Source\PSoC6\pdl\cmsis/include/core_cm4.h **** 
1738:Generated_Source\PSoC6\pdl\cmsis/include/core_cm4.h **** /**
1739:Generated_Source\PSoC6\pdl\cmsis/include/core_cm4.h ****   \brief   Set Pending Interrupt
1740:Generated_Source\PSoC6\pdl\cmsis/include/core_cm4.h ****   \details Sets the pending bit of a device specific interrupt in the NVIC pending register.
1741:Generated_Source\PSoC6\pdl\cmsis/include/core_cm4.h ****   \param [in]      IRQn  Device specific interrupt number.
1742:Generated_Source\PSoC6\pdl\cmsis/include/core_cm4.h ****   \note    IRQn must not be negative.
1743:Generated_Source\PSoC6\pdl\cmsis/include/core_cm4.h ****  */
1744:Generated_Source\PSoC6\pdl\cmsis/include/core_cm4.h **** __STATIC_INLINE void __NVIC_SetPendingIRQ(IRQn_Type IRQn)
1745:Generated_Source\PSoC6\pdl\cmsis/include/core_cm4.h **** {
1746:Generated_Source\PSoC6\pdl\cmsis/include/core_cm4.h ****   if ((int32_t)(IRQn) >= 0)
1747:Generated_Source\PSoC6\pdl\cmsis/include/core_cm4.h ****   {
1748:Generated_Source\PSoC6\pdl\cmsis/include/core_cm4.h ****     NVIC->ISPR[(((uint32_t)(int32_t)IRQn) >> 5UL)] = (uint32_t)(1UL << (((uint32_t)(int32_t)IRQn) &
1749:Generated_Source\PSoC6\pdl\cmsis/include/core_cm4.h ****   }
1750:Generated_Source\PSoC6\pdl\cmsis/include/core_cm4.h **** }
1751:Generated_Source\PSoC6\pdl\cmsis/include/core_cm4.h **** 
1752:Generated_Source\PSoC6\pdl\cmsis/include/core_cm4.h **** 
1753:Generated_Source\PSoC6\pdl\cmsis/include/core_cm4.h **** /**
1754:Generated_Source\PSoC6\pdl\cmsis/include/core_cm4.h ****   \brief   Clear Pending Interrupt
1755:Generated_Source\PSoC6\pdl\cmsis/include/core_cm4.h ****   \details Clears the pending bit of a device specific interrupt in the NVIC pending register.
1756:Generated_Source\PSoC6\pdl\cmsis/include/core_cm4.h ****   \param [in]      IRQn  Device specific interrupt number.
1757:Generated_Source\PSoC6\pdl\cmsis/include/core_cm4.h ****   \note    IRQn must not be negative.
1758:Generated_Source\PSoC6\pdl\cmsis/include/core_cm4.h ****  */
1759:Generated_Source\PSoC6\pdl\cmsis/include/core_cm4.h **** __STATIC_INLINE void __NVIC_ClearPendingIRQ(IRQn_Type IRQn)
1760:Generated_Source\PSoC6\pdl\cmsis/include/core_cm4.h **** {
1761:Generated_Source\PSoC6\pdl\cmsis/include/core_cm4.h ****   if ((int32_t)(IRQn) >= 0)
1762:Generated_Source\PSoC6\pdl\cmsis/include/core_cm4.h ****   {
1763:Generated_Source\PSoC6\pdl\cmsis/include/core_cm4.h ****     NVIC->ICPR[(((uint32_t)(int32_t)IRQn) >> 5UL)] = (uint32_t)(1UL << (((uint32_t)(int32_t)IRQn) &
1764:Generated_Source\PSoC6\pdl\cmsis/include/core_cm4.h ****   }
1765:Generated_Source\PSoC6\pdl\cmsis/include/core_cm4.h **** }
1766:Generated_Source\PSoC6\pdl\cmsis/include/core_cm4.h **** 
1767:Generated_Source\PSoC6\pdl\cmsis/include/core_cm4.h **** 
1768:Generated_Source\PSoC6\pdl\cmsis/include/core_cm4.h **** /**
1769:Generated_Source\PSoC6\pdl\cmsis/include/core_cm4.h ****   \brief   Get Active Interrupt
ARM GAS  C:\Users\gjl\AppData\Local\Temp\ccMETlfj.s 			page 39


1770:Generated_Source\PSoC6\pdl\cmsis/include/core_cm4.h ****   \details Reads the active register in the NVIC and returns the active bit for the device specific
1771:Generated_Source\PSoC6\pdl\cmsis/include/core_cm4.h ****   \param [in]      IRQn  Device specific interrupt number.
1772:Generated_Source\PSoC6\pdl\cmsis/include/core_cm4.h ****   \return             0  Interrupt status is not active.
1773:Generated_Source\PSoC6\pdl\cmsis/include/core_cm4.h ****   \return             1  Interrupt status is active.
1774:Generated_Source\PSoC6\pdl\cmsis/include/core_cm4.h ****   \note    IRQn must not be negative.
1775:Generated_Source\PSoC6\pdl\cmsis/include/core_cm4.h ****  */
1776:Generated_Source\PSoC6\pdl\cmsis/include/core_cm4.h **** __STATIC_INLINE uint32_t __NVIC_GetActive(IRQn_Type IRQn)
1777:Generated_Source\PSoC6\pdl\cmsis/include/core_cm4.h **** {
1778:Generated_Source\PSoC6\pdl\cmsis/include/core_cm4.h ****   if ((int32_t)(IRQn) >= 0)
1779:Generated_Source\PSoC6\pdl\cmsis/include/core_cm4.h ****   {
1780:Generated_Source\PSoC6\pdl\cmsis/include/core_cm4.h ****     return((uint32_t)(((NVIC->IABR[(((uint32_t)(int32_t)IRQn) >> 5UL)] & (1UL << (((uint32_t)(int32
1781:Generated_Source\PSoC6\pdl\cmsis/include/core_cm4.h ****   }
1782:Generated_Source\PSoC6\pdl\cmsis/include/core_cm4.h ****   else
1783:Generated_Source\PSoC6\pdl\cmsis/include/core_cm4.h ****   {
1784:Generated_Source\PSoC6\pdl\cmsis/include/core_cm4.h ****     return(0U);
1785:Generated_Source\PSoC6\pdl\cmsis/include/core_cm4.h ****   }
1786:Generated_Source\PSoC6\pdl\cmsis/include/core_cm4.h **** }
1787:Generated_Source\PSoC6\pdl\cmsis/include/core_cm4.h **** 
1788:Generated_Source\PSoC6\pdl\cmsis/include/core_cm4.h **** 
1789:Generated_Source\PSoC6\pdl\cmsis/include/core_cm4.h **** /**
1790:Generated_Source\PSoC6\pdl\cmsis/include/core_cm4.h ****   \brief   Set Interrupt Priority
1791:Generated_Source\PSoC6\pdl\cmsis/include/core_cm4.h ****   \details Sets the priority of a device specific interrupt or a processor exception.
1792:Generated_Source\PSoC6\pdl\cmsis/include/core_cm4.h ****            The interrupt number can be positive to specify a device specific interrupt,
1793:Generated_Source\PSoC6\pdl\cmsis/include/core_cm4.h ****            or negative to specify a processor exception.
1794:Generated_Source\PSoC6\pdl\cmsis/include/core_cm4.h ****   \param [in]      IRQn  Interrupt number.
1795:Generated_Source\PSoC6\pdl\cmsis/include/core_cm4.h ****   \param [in]  priority  Priority to set.
1796:Generated_Source\PSoC6\pdl\cmsis/include/core_cm4.h ****   \note    The priority cannot be set for every processor exception.
1797:Generated_Source\PSoC6\pdl\cmsis/include/core_cm4.h ****  */
1798:Generated_Source\PSoC6\pdl\cmsis/include/core_cm4.h **** __STATIC_INLINE void __NVIC_SetPriority(IRQn_Type IRQn, uint32_t priority)
1799:Generated_Source\PSoC6\pdl\cmsis/include/core_cm4.h **** {
1800:Generated_Source\PSoC6\pdl\cmsis/include/core_cm4.h ****   if ((int32_t)(IRQn) >= 0)
 129              		.loc 2 1800 0
 130 001c 002B     		cmp	r3, #0
 131 001e 08DB     		blt	.L11
1801:Generated_Source\PSoC6\pdl\cmsis/include/core_cm4.h ****   {
1802:Generated_Source\PSoC6\pdl\cmsis/include/core_cm4.h ****     NVIC->IP[((uint32_t)(int32_t)IRQn)]               = (uint8_t)((priority << (8U - __NVIC_PRIO_BI
 132              		.loc 2 1802 0
 133 0020 5201     		lsls	r2, r2, #5
 134              	.LVL13:
 135 0022 D2B2     		uxtb	r2, r2
 136 0024 03F16043 		add	r3, r3, #-536870912
 137              	.LVL14:
 138 0028 03F56143 		add	r3, r3, #57600
 139              	.LVL15:
 140 002c 83F80023 		strb	r2, [r3, #768]
 141              	.LVL16:
 142 0030 05E0     		b	.L12
 143              	.LVL17:
 144              	.L11:
1803:Generated_Source\PSoC6\pdl\cmsis/include/core_cm4.h ****   }
1804:Generated_Source\PSoC6\pdl\cmsis/include/core_cm4.h ****   else
1805:Generated_Source\PSoC6\pdl\cmsis/include/core_cm4.h ****   {
1806:Generated_Source\PSoC6\pdl\cmsis/include/core_cm4.h ****     SCB->SHP[(((uint32_t)(int32_t)IRQn) & 0xFUL)-4UL] = (uint8_t)((priority << (8U - __NVIC_PRIO_BI
 145              		.loc 2 1806 0
 146 0032 03F00F03 		and	r3, r3, #15
 147              	.LVL18:
 148 0036 5201     		lsls	r2, r2, #5
ARM GAS  C:\Users\gjl\AppData\Local\Temp\ccMETlfj.s 			page 40


 149              	.LVL19:
 150 0038 D2B2     		uxtb	r2, r2
 151 003a 0C49     		ldr	r1, .L17+4
 152 003c CA54     		strb	r2, [r1, r3]
 153              	.LVL20:
 154              	.L12:
 155              	.LBE5:
 156              	.LBE4:
  67:Generated_Source\PSoC6\pdl\drivers\peripheral\sysint/cy_sysint.c ****         {
 157              		.loc 1 67 0
 158 003e 0C4B     		ldr	r3, .L17+8
 159 0040 9A68     		ldr	r2, [r3, #8]
 160 0042 0C4B     		ldr	r3, .L17+12
 161 0044 9A42     		cmp	r2, r3
 162 0046 0DD1     		bne	.L15
  69:Generated_Source\PSoC6\pdl\drivers\peripheral\sysint/cy_sysint.c **** 
 163              		.loc 1 69 0
 164 0048 1DB9     		cbnz	r5, .L13
  69:Generated_Source\PSoC6\pdl\drivers\peripheral\sysint/cy_sysint.c **** 
 165              		.loc 1 69 0 is_stmt 0 discriminator 1
 166 004a 4521     		movs	r1, #69
 167 004c 0648     		ldr	r0, .L17
 168 004e FFF7FEFF 		bl	Cy_SysLib_AssertFailed
 169              	.LVL21:
 170              	.L13:
  71:Generated_Source\PSoC6\pdl\drivers\peripheral\sysint/cy_sysint.c ****         }
 171              		.loc 1 71 0 is_stmt 1
 172 0052 2946     		mov	r1, r5
 173 0054 B4F90000 		ldrsh	r0, [r4]
 174 0058 FFF7FEFF 		bl	Cy_SysInt_SetVector
 175              	.LVL22:
  50:Generated_Source\PSoC6\pdl\drivers\peripheral\sysint/cy_sysint.c **** 
 176              		.loc 1 50 0
 177 005c 0020     		movs	r0, #0
 178 005e 38BD     		pop	{r3, r4, r5, pc}
 179              	.LVL23:
 180              	.L14:
 181              		.cfi_def_cfa_offset 0
 182              		.cfi_restore 3
 183              		.cfi_restore 4
 184              		.cfi_restore 5
 185              		.cfi_restore 14
  76:Generated_Source\PSoC6\pdl\drivers\peripheral\sysint/cy_sysint.c ****     }
 186              		.loc 1 76 0
 187 0060 0548     		ldr	r0, .L17+16
 188              	.LVL24:
  80:Generated_Source\PSoC6\pdl\drivers\peripheral\sysint/cy_sysint.c **** 
 189              		.loc 1 80 0
 190 0062 7047     		bx	lr
 191              	.LVL25:
 192              	.L15:
 193              		.cfi_def_cfa_offset 16
 194              		.cfi_offset 3, -16
 195              		.cfi_offset 4, -12
 196              		.cfi_offset 5, -8
 197              		.cfi_offset 14, -4
  50:Generated_Source\PSoC6\pdl\drivers\peripheral\sysint/cy_sysint.c **** 
ARM GAS  C:\Users\gjl\AppData\Local\Temp\ccMETlfj.s 			page 41


 198              		.loc 1 50 0
 199 0064 0020     		movs	r0, #0
 200              	.LVL26:
  80:Generated_Source\PSoC6\pdl\drivers\peripheral\sysint/cy_sysint.c **** 
 201              		.loc 1 80 0
 202 0066 38BD     		pop	{r3, r4, r5, pc}
 203              	.LVL27:
 204              	.L18:
 205              		.align	2
 206              	.L17:
 207 0068 00000000 		.word	.LC0
 208 006c 14ED00E0 		.word	-536810220
 209 0070 00ED00E0 		.word	-536810240
 210 0074 00000000 		.word	__ramVectors
 211 0078 01005600 		.word	5636097
 212              		.cfi_endproc
 213              	.LFE128:
 214              		.size	Cy_SysInt_Init, .-Cy_SysInt_Init
 215              		.section	.text.Cy_SysInt_GetVector,"ax",%progbits
 216              		.align	2
 217              		.global	Cy_SysInt_GetVector
 218              		.thumb
 219              		.thumb_func
 220              		.type	Cy_SysInt_GetVector, %function
 221              	Cy_SysInt_GetVector:
 222              	.LFB130:
 264:Generated_Source\PSoC6\pdl\drivers\peripheral\sysint/cy_sysint.c **** 
 265:Generated_Source\PSoC6\pdl\drivers\peripheral\sysint/cy_sysint.c **** 
 266:Generated_Source\PSoC6\pdl\drivers\peripheral\sysint/cy_sysint.c **** /*******************************************************************************
 267:Generated_Source\PSoC6\pdl\drivers\peripheral\sysint/cy_sysint.c **** * Function Name: Cy_SysInt_GetVector
 268:Generated_Source\PSoC6\pdl\drivers\peripheral\sysint/cy_sysint.c **** ****************************************************************************//**
 269:Generated_Source\PSoC6\pdl\drivers\peripheral\sysint/cy_sysint.c **** *
 270:Generated_Source\PSoC6\pdl\drivers\peripheral\sysint/cy_sysint.c **** * \brief Gets the address of the current ISR vector for the Interrupt.
 271:Generated_Source\PSoC6\pdl\drivers\peripheral\sysint/cy_sysint.c **** *
 272:Generated_Source\PSoC6\pdl\drivers\peripheral\sysint/cy_sysint.c **** * Note that for CM0+, this function returns the interrupt vector for the 
 273:Generated_Source\PSoC6\pdl\drivers\peripheral\sysint/cy_sysint.c **** * interrupt mux output feeding into the NVIC.
 274:Generated_Source\PSoC6\pdl\drivers\peripheral\sysint/cy_sysint.c **** *
 275:Generated_Source\PSoC6\pdl\drivers\peripheral\sysint/cy_sysint.c **** * Note that this function relies on the assumption that the vector table is
 276:Generated_Source\PSoC6\pdl\drivers\peripheral\sysint/cy_sysint.c **** * relocated to __ramVectors[RAM_VECTORS_SIZE] in SRAM.
 277:Generated_Source\PSoC6\pdl\drivers\peripheral\sysint/cy_sysint.c **** *
 278:Generated_Source\PSoC6\pdl\drivers\peripheral\sysint/cy_sysint.c **** * \param intrSrc
 279:Generated_Source\PSoC6\pdl\drivers\peripheral\sysint/cy_sysint.c **** * Interrupt source
 280:Generated_Source\PSoC6\pdl\drivers\peripheral\sysint/cy_sysint.c **** *
 281:Generated_Source\PSoC6\pdl\drivers\peripheral\sysint/cy_sysint.c **** * \return
 282:Generated_Source\PSoC6\pdl\drivers\peripheral\sysint/cy_sysint.c **** * Address of the ISR in the interrupt vector table
 283:Generated_Source\PSoC6\pdl\drivers\peripheral\sysint/cy_sysint.c **** *
 284:Generated_Source\PSoC6\pdl\drivers\peripheral\sysint/cy_sysint.c **** * \funcusage
 285:Generated_Source\PSoC6\pdl\drivers\peripheral\sysint/cy_sysint.c **** * \snippet sysint/sysint_v1_10_sut_01.cydsn/main_cm4.c snippet_Cy_SysInt_SetVector
 286:Generated_Source\PSoC6\pdl\drivers\peripheral\sysint/cy_sysint.c **** *
 287:Generated_Source\PSoC6\pdl\drivers\peripheral\sysint/cy_sysint.c **** *******************************************************************************/
