ARM GAS  C:\Users\gjl\AppData\Local\Temp\ccww7iBt.s 			page 1


   1              		.syntax unified
   2              		.cpu cortex-m4
   3              		.eabi_attribute 27, 1
   4              		.fpu fpv4-sp-d16
   5              		.eabi_attribute 20, 1
   6              		.eabi_attribute 21, 1
   7              		.eabi_attribute 23, 3
   8              		.eabi_attribute 24, 1
   9              		.eabi_attribute 25, 1
  10              		.eabi_attribute 26, 1
  11              		.eabi_attribute 30, 1
  12              		.eabi_attribute 34, 1
  13              		.eabi_attribute 18, 4
  14              		.thumb
  15              		.syntax unified
  16              		.file	"main_cm4.c"
  17              		.text
  18              	.Ltext0:
  19              		.cfi_sections	.debug_frame
  20              		.section	.text.bmi160Init,"ax",%progbits
  21              		.align	2
  22              		.thumb
  23              		.thumb_func
  24              		.type	bmi160Init, %function
  25              	bmi160Init:
  26              	.LFB502:
  27              		.file 1 "main_cm4.c"
   1:main_cm4.c    **** /* ========================================
   2:main_cm4.c    ****  *
   3:main_cm4.c    ****  * Copyright YOUR COMPANY, THE YEAR
   4:main_cm4.c    ****  * All Rights Reserved
   5:main_cm4.c    ****  * UNPUBLISHED, LICENSED SOFTWARE.
   6:main_cm4.c    ****  *
   7:main_cm4.c    ****  * CONFIDENTIAL AND PROPRIETARY INFORMATION
   8:main_cm4.c    ****  * WHICH IS THE PROPERTY OF your company.
   9:main_cm4.c    ****  *
  10:main_cm4.c    ****  * ========================================
  11:main_cm4.c    **** */
  12:main_cm4.c    **** #include "project.h"
  13:main_cm4.c    **** #include "FreeRTOS.h"
  14:main_cm4.c    **** #include "task.h"
  15:main_cm4.c    **** #include <stdio.h>
  16:main_cm4.c    **** #include "bmi160.h"
  17:main_cm4.c    **** 
  18:main_cm4.c    **** static struct bmi160_dev bmi160Dev;
  19:main_cm4.c    **** 
  20:main_cm4.c    **** static int8_t BMI160BurstWrite(uint8_t dev_addr, uint8_t reg_addr,uint8_t *data, uint16_t len)
  21:main_cm4.c    **** {  
  22:main_cm4.c    ****     Cy_SCB_I2C_MasterSendStart(I2C_1_HW,dev_addr,CY_SCB_I2C_WRITE_XFER,0,&I2C_1_context);
  23:main_cm4.c    ****     Cy_SCB_I2C_MasterWriteByte(I2C_1_HW,reg_addr,0,&I2C_1_context);
  24:main_cm4.c    ****     for(int i = 0;i<len; i++)
  25:main_cm4.c    ****     { 
  26:main_cm4.c    ****         Cy_SCB_I2C_MasterWriteByte(I2C_1_HW,data[i],0,&I2C_1_context);
  27:main_cm4.c    ****     }
  28:main_cm4.c    ****     
  29:main_cm4.c    ****     Cy_SCB_I2C_MasterSendStop(I2C_1_HW,0,&I2C_1_context);
  30:main_cm4.c    ****     
ARM GAS  C:\Users\gjl\AppData\Local\Temp\ccww7iBt.s 			page 2


  31:main_cm4.c    ****     return 0;
  32:main_cm4.c    **** }
  33:main_cm4.c    **** 
  34:main_cm4.c    **** // This function supports the BMP180 library and read I2C Registers
  35:main_cm4.c    **** static int8_t BMI160BurstRead(uint8_t dev_addr, uint8_t reg_addr,uint8_t *data, uint16_t len)
  36:main_cm4.c    **** {   
  37:main_cm4.c    ****     Cy_SCB_I2C_MasterSendStart(I2C_1_HW,dev_addr,CY_SCB_I2C_WRITE_XFER,0,&I2C_1_context);
  38:main_cm4.c    ****     Cy_SCB_I2C_MasterWriteByte(I2C_1_HW,reg_addr,0,&I2C_1_context);
  39:main_cm4.c    ****     Cy_SCB_I2C_MasterSendReStart(I2C_1_HW,dev_addr,CY_SCB_I2C_READ_XFER,0,&I2C_1_context);
  40:main_cm4.c    ****     for(int i = 0;i<len-1; i++)
  41:main_cm4.c    ****     {
  42:main_cm4.c    ****         Cy_SCB_I2C_MasterReadByte(I2C_1_HW,CY_SCB_I2C_ACK,&data[i],0,&I2C_1_context);
  43:main_cm4.c    ****     }
  44:main_cm4.c    ****     Cy_SCB_I2C_MasterReadByte(I2C_1_HW,CY_SCB_I2C_NAK,&data[len-1],0,&I2C_1_context);
  45:main_cm4.c    ****     
  46:main_cm4.c    ****     Cy_SCB_I2C_MasterSendStop(I2C_1_HW,0,&I2C_1_context);
  47:main_cm4.c    **** 
  48:main_cm4.c    ****     return 0;
  49:main_cm4.c    **** }
  50:main_cm4.c    **** 
  51:main_cm4.c    **** static void bmi160Init(void)
  52:main_cm4.c    **** {
  28              		.loc 1 52 0
  29              		.cfi_startproc
  30              		@ args = 0, pretend = 0, frame = 0
  31              		@ frame_needed = 0, uses_anonymous_args = 0
  32 0000 10B5     		push	{r4, lr}
  33              		.cfi_def_cfa_offset 8
  34              		.cfi_offset 4, -8
  35              		.cfi_offset 14, -4
  53:main_cm4.c    **** 
  54:main_cm4.c    ****     vTaskDelay(100);
  36              		.loc 1 54 0
  37 0002 6420     		movs	r0, #100
  38 0004 FFF7FEFF 		bl	vTaskDelay
  39              	.LVL0:
  55:main_cm4.c    **** 
  56:main_cm4.c    ****   /* BMI160 */
  57:main_cm4.c    ****     bmi160Dev.read = (bmi160_com_fptr_t)BMI160BurstRead;
  40              		.loc 1 57 0
  41 0008 104C     		ldr	r4, .L3
  42 000a 114B     		ldr	r3, .L3+4
  43 000c E361     		str	r3, [r4, #28]
  58:main_cm4.c    ****     bmi160Dev.write = (bmi160_com_fptr_t)BMI160BurstWrite;
  44              		.loc 1 58 0
  45 000e 114B     		ldr	r3, .L3+8
  46 0010 2362     		str	r3, [r4, #32]
  59:main_cm4.c    ****     bmi160Dev.delay_ms = (bmi160_delay_fptr_t)vTaskDelay;
  47              		.loc 1 59 0
  48 0012 114B     		ldr	r3, .L3+12
  49 0014 6362     		str	r3, [r4, #36]
  60:main_cm4.c    ****     bmi160Dev.id = BMI160_I2C_ADDR;  // I2C device address
  50              		.loc 1 60 0
  51 0016 6823     		movs	r3, #104
  52 0018 6370     		strb	r3, [r4, #1]
  61:main_cm4.c    **** 
  62:main_cm4.c    ****     bmi160_init(&bmi160Dev); // initialize the device
ARM GAS  C:\Users\gjl\AppData\Local\Temp\ccww7iBt.s 			page 3


  53              		.loc 1 62 0
  54 001a 2046     		mov	r0, r4
  55 001c FFF7FEFF 		bl	bmi160_init
  56              	.LVL1:
  63:main_cm4.c    ****   
  64:main_cm4.c    ****     bmi160Dev.gyro_cfg.odr = BMI160_GYRO_ODR_800HZ;
  57              		.loc 1 64 0
  58 0020 0B23     		movs	r3, #11
  59 0022 6373     		strb	r3, [r4, #13]
  65:main_cm4.c    ****     bmi160Dev.gyro_cfg.range = BMI160_GYRO_RANGE_125_DPS;
  60              		.loc 1 65 0
  61 0024 0423     		movs	r3, #4
  62 0026 A373     		strb	r3, [r4, #14]
  66:main_cm4.c    ****     bmi160Dev.gyro_cfg.bw = BMI160_GYRO_BW_OSR4_MODE;
  63              		.loc 1 66 0
  64 0028 0023     		movs	r3, #0
  65 002a E373     		strb	r3, [r4, #15]
  67:main_cm4.c    **** 
  68:main_cm4.c    ****       /* Select the power mode of Gyroscope sensor */
  69:main_cm4.c    ****     bmi160Dev.gyro_cfg.power = BMI160_GYRO_NORMAL_MODE;
  66              		.loc 1 69 0
  67 002c 1522     		movs	r2, #21
  68 002e 2273     		strb	r2, [r4, #12]
  70:main_cm4.c    **** 
  71:main_cm4.c    ****     bmi160Dev.accel_cfg.odr = BMI160_ACCEL_ODR_1600HZ;
  69              		.loc 1 71 0
  70 0030 0C22     		movs	r2, #12
  71 0032 6271     		strb	r2, [r4, #5]
  72:main_cm4.c    ****     bmi160Dev.accel_cfg.range = BMI160_ACCEL_RANGE_2G;
  72              		.loc 1 72 0
  73 0034 0322     		movs	r2, #3
  74 0036 A271     		strb	r2, [r4, #6]
  73:main_cm4.c    ****     bmi160Dev.accel_cfg.bw = BMI160_ACCEL_BW_OSR4_AVG1;
  75              		.loc 1 73 0
  76 0038 E371     		strb	r3, [r4, #7]
  74:main_cm4.c    ****     bmi160Dev.accel_cfg.power = BMI160_ACCEL_NORMAL_MODE;
  77              		.loc 1 74 0
  78 003a 1123     		movs	r3, #17
  79 003c 2371     		strb	r3, [r4, #4]
  75:main_cm4.c    **** 
  76:main_cm4.c    ****       /* Set the sensor configuration */
  77:main_cm4.c    ****     bmi160_set_sens_conf(&bmi160Dev);
  80              		.loc 1 77 0
  81 003e 2046     		mov	r0, r4
  82 0040 FFF7FEFF 		bl	bmi160_set_sens_conf
  83              	.LVL2:
  78:main_cm4.c    ****     bmi160Dev.delay_ms(50);
  84              		.loc 1 78 0
  85 0044 636A     		ldr	r3, [r4, #36]
  86 0046 3220     		movs	r0, #50
  87 0048 9847     		blx	r3
  88              	.LVL3:
  89 004a 10BD     		pop	{r4, pc}
  90              	.L4:
  91              		.align	2
  92              	.L3:
  93 004c 00000000 		.word	.LANCHOR0
ARM GAS  C:\Users\gjl\AppData\Local\Temp\ccww7iBt.s 			page 4


  94 0050 00000000 		.word	BMI160BurstRead
  95 0054 00000000 		.word	BMI160BurstWrite
  96 0058 00000000 		.word	vTaskDelay
  97              		.cfi_endproc
  98              	.LFE502:
  99              		.size	bmi160Init, .-bmi160Init
 100              		.global	__aeabi_f2d
 101              		.section	.text.motionTask,"ax",%progbits
 102              		.align	2
 103              		.global	motionTask
 104              		.thumb
 105              		.thumb_func
 106              		.type	motionTask, %function
 107              	motionTask:
 108              	.LFB503:
  79:main_cm4.c    **** }
  80:main_cm4.c    **** 
  81:main_cm4.c    **** // 32768 = 2g
  82:main_cm4.c    **** #define MAXACCEL (32768/2)
  83:main_cm4.c    **** 
  84:main_cm4.c    **** void motionTask(void *arg)
  85:main_cm4.c    **** {
 109              		.loc 1 85 0
 110              		.cfi_startproc
 111              		@ args = 0, pretend = 0, frame = 16
 112              		@ frame_needed = 0, uses_anonymous_args = 0
 113              	.LVL4:
 114 0000 30B5     		push	{r4, r5, lr}
 115              		.cfi_def_cfa_offset 12
 116              		.cfi_offset 4, -12
 117              		.cfi_offset 5, -8
 118              		.cfi_offset 14, -4
 119 0002 2DED028B 		vpush.64	{d8}
 120              		.cfi_def_cfa_offset 20
 121              		.cfi_offset 80, -20
 122              		.cfi_offset 81, -16
 123 0006 89B0     		sub	sp, sp, #36
 124              		.cfi_def_cfa_offset 56
  86:main_cm4.c    ****     (void)arg;
  87:main_cm4.c    ****     I2C_1_Start();
 125              		.loc 1 87 0
 126 0008 FFF7FEFF 		bl	I2C_1_Start
 127              	.LVL5:
  88:main_cm4.c    ****     bmi160Init();
 128              		.loc 1 88 0
 129 000c FFF7FEFF 		bl	bmi160Init
 130              	.LVL6:
 131              	.L6:
  89:main_cm4.c    ****     struct bmi160_sensor_data acc;
  90:main_cm4.c    ****     
  91:main_cm4.c    ****     float gx,gy,gz;
  92:main_cm4.c    ****     
  93:main_cm4.c    ****     while(1)
  94:main_cm4.c    ****     {
  95:main_cm4.c    ****         bmi160_get_sensor_data(BMI160_ACCEL_ONLY, &acc, NULL, &bmi160Dev);
 132              		.loc 1 95 0 discriminator 1
 133 0010 1D4B     		ldr	r3, .L8
ARM GAS  C:\Users\gjl\AppData\Local\Temp\ccww7iBt.s 			page 5


 134 0012 0022     		movs	r2, #0
 135 0014 05A9     		add	r1, sp, #20
 136 0016 0120     		movs	r0, #1
 137 0018 FFF7FEFF 		bl	bmi160_get_sensor_data
 138              	.LVL7:
  96:main_cm4.c    ****     
  97:main_cm4.c    ****         gx = (float)acc.x/MAXACCEL;
 139              		.loc 1 97 0 discriminator 1
 140 001c BDF91430 		ldrsh	r3, [sp, #20]
 141 0020 07EE103A 		vmov	s14, r3	@ int
 142 0024 B8EEC77A 		vcvt.f32.s32	s14, s14
 143 0028 DFED187A 		vldr.32	s15, .L8+4
 144              	.LVL8:
  98:main_cm4.c    ****         gy = (float)acc.y/MAXACCEL;
 145              		.loc 1 98 0 discriminator 1
 146 002c BDF91630 		ldrsh	r3, [sp, #22]
 147 0030 08EE103A 		vmov	s16, r3	@ int
 148 0034 B8EEC88A 		vcvt.f32.s32	s16, s16
 149 0038 28EE278A 		vmul.f32	s16, s16, s15
 150              	.LVL9:
  99:main_cm4.c    ****         gz = (float)acc.z/MAXACCEL;
 151              		.loc 1 99 0 discriminator 1
 152 003c BDF91830 		ldrsh	r3, [sp, #24]
 153 0040 08EE903A 		vmov	s17, r3	@ int
 154 0044 F8EEE88A 		vcvt.f32.s32	s17, s17
 155 0048 68EEA78A 		vmul.f32	s17, s17, s15
 156              	.LVL10:
 100:main_cm4.c    ****         
 101:main_cm4.c    ****         printf("x=%1.2f y=%1.2f z=%1.2f\r\n",gx,gy,gz);
 157              		.loc 1 101 0 discriminator 1
 158 004c 67EE277A 		vmul.f32	s15, s14, s15
 159              	.LVL11:
 160 0050 17EE900A 		vmov	r0, s15
 161 0054 FFF7FEFF 		bl	__aeabi_f2d
 162              	.LVL12:
 163 0058 0446     		mov	r4, r0
 164 005a 0D46     		mov	r5, r1
 165 005c 18EE900A 		vmov	r0, s17
 166 0060 FFF7FEFF 		bl	__aeabi_f2d
 167              	.LVL13:
 168 0064 CDE90201 		strd	r0, [sp, #8]
 169 0068 18EE100A 		vmov	r0, s16
 170 006c FFF7FEFF 		bl	__aeabi_f2d
 171              	.LVL14:
 172 0070 CDE90001 		strd	r0, [sp]
 173 0074 2246     		mov	r2, r4
 174 0076 2B46     		mov	r3, r5
 175 0078 0548     		ldr	r0, .L8+8
 176 007a FFF7FEFF 		bl	printf
 177              	.LVL15:
 102:main_cm4.c    ****         
 103:main_cm4.c    ****         vTaskDelay(200);
 178              		.loc 1 103 0 discriminator 1
 179 007e C820     		movs	r0, #200
 180 0080 FFF7FEFF 		bl	vTaskDelay
 181              	.LVL16:
 182 0084 C4E7     		b	.L6
ARM GAS  C:\Users\gjl\AppData\Local\Temp\ccww7iBt.s 			page 6


 183              	.L9:
 184 0086 00BF     		.align	2
 185              	.L8:
 186 0088 00000000 		.word	.LANCHOR0
 187 008c 00008038 		.word	947912704
 188 0090 00000000 		.word	.LC0
 189              		.cfi_endproc
 190              	.LFE503:
 191              		.size	motionTask, .-motionTask
 192              		.section	.text.BMI160BurstWrite,"ax",%progbits
 193              		.align	2
 194              		.thumb
 195              		.thumb_func
 196              		.type	BMI160BurstWrite, %function
 197              	BMI160BurstWrite:
 198              	.LFB500:
  21:main_cm4.c    ****     Cy_SCB_I2C_MasterSendStart(I2C_1_HW,dev_addr,CY_SCB_I2C_WRITE_XFER,0,&I2C_1_context);
 199              		.loc 1 21 0
 200              		.cfi_startproc
 201              		@ args = 0, pretend = 0, frame = 0
 202              		@ frame_needed = 0, uses_anonymous_args = 0
 203              	.LVL17:
 204 0000 2DE9F041 		push	{r4, r5, r6, r7, r8, lr}
 205              		.cfi_def_cfa_offset 24
 206              		.cfi_offset 4, -24
 207              		.cfi_offset 5, -20
 208              		.cfi_offset 6, -16
 209              		.cfi_offset 7, -12
 210              		.cfi_offset 8, -8
 211              		.cfi_offset 14, -4
 212 0004 82B0     		sub	sp, sp, #8
 213              		.cfi_def_cfa_offset 32
 214 0006 8846     		mov	r8, r1
 215 0008 1646     		mov	r6, r2
 216 000a 1D46     		mov	r5, r3
  22:main_cm4.c    ****     Cy_SCB_I2C_MasterWriteByte(I2C_1_HW,reg_addr,0,&I2C_1_context);
 217              		.loc 1 22 0
 218 000c 114C     		ldr	r4, .L14
 219 000e 124F     		ldr	r7, .L14+4
 220 0010 0097     		str	r7, [sp]
 221 0012 0023     		movs	r3, #0
 222              	.LVL18:
 223 0014 1A46     		mov	r2, r3
 224              	.LVL19:
 225 0016 0146     		mov	r1, r0
 226              	.LVL20:
 227 0018 2046     		mov	r0, r4
 228              	.LVL21:
 229 001a FFF7FEFF 		bl	Cy_SCB_I2C_MasterSendStart
 230              	.LVL22:
  23:main_cm4.c    ****     for(int i = 0;i<len; i++)
 231              		.loc 1 23 0
 232 001e 3B46     		mov	r3, r7
 233 0020 0022     		movs	r2, #0
 234 0022 4146     		mov	r1, r8
 235 0024 2046     		mov	r0, r4
 236 0026 FFF7FEFF 		bl	Cy_SCB_I2C_MasterWriteByte
ARM GAS  C:\Users\gjl\AppData\Local\Temp\ccww7iBt.s 			page 7


 237              	.LVL23:
 238              	.LBB4:
  24:main_cm4.c    ****     { 
 239              		.loc 1 24 0
 240 002a 0024     		movs	r4, #0
 241 002c 06E0     		b	.L11
 242              	.LVL24:
 243              	.L12:
  26:main_cm4.c    ****     }
 244              		.loc 1 26 0 discriminator 3
 245 002e 0A4B     		ldr	r3, .L14+4
 246 0030 0022     		movs	r2, #0
 247 0032 315D     		ldrb	r1, [r6, r4]	@ zero_extendqisi2
 248 0034 0748     		ldr	r0, .L14
 249 0036 FFF7FEFF 		bl	Cy_SCB_I2C_MasterWriteByte
 250              	.LVL25:
  24:main_cm4.c    ****     { 
 251              		.loc 1 24 0 discriminator 3
 252 003a 0134     		adds	r4, r4, #1
 253              	.LVL26:
 254              	.L11:
  24:main_cm4.c    ****     { 
 255              		.loc 1 24 0 is_stmt 0 discriminator 1
 256 003c AC42     		cmp	r4, r5
 257 003e F6DB     		blt	.L12
 258              	.LBE4:
  29:main_cm4.c    ****     
 259              		.loc 1 29 0 is_stmt 1
 260 0040 054A     		ldr	r2, .L14+4
 261 0042 0021     		movs	r1, #0
 262 0044 0348     		ldr	r0, .L14
 263 0046 FFF7FEFF 		bl	Cy_SCB_I2C_MasterSendStop
 264              	.LVL27:
  32:main_cm4.c    **** 
 265              		.loc 1 32 0
 266 004a 0020     		movs	r0, #0
 267 004c 02B0     		add	sp, sp, #8
 268              		.cfi_def_cfa_offset 24
 269              		@ sp needed
 270 004e BDE8F081 		pop	{r4, r5, r6, r7, r8, pc}
 271              	.LVL28:
 272              	.L15:
 273 0052 00BF     		.align	2
 274              	.L14:
 275 0054 00006440 		.word	1080295424
 276 0058 00000000 		.word	I2C_1_context
 277              		.cfi_endproc
 278              	.LFE500:
 279              		.size	BMI160BurstWrite, .-BMI160BurstWrite
 280              		.section	.text.BMI160BurstRead,"ax",%progbits
 281              		.align	2
 282              		.thumb
 283              		.thumb_func
 284              		.type	BMI160BurstRead, %function
 285              	BMI160BurstRead:
 286              	.LFB501:
  36:main_cm4.c    ****     Cy_SCB_I2C_MasterSendStart(I2C_1_HW,dev_addr,CY_SCB_I2C_WRITE_XFER,0,&I2C_1_context);
ARM GAS  C:\Users\gjl\AppData\Local\Temp\ccww7iBt.s 			page 8


 287              		.loc 1 36 0
 288              		.cfi_startproc
 289              		@ args = 0, pretend = 0, frame = 0
 290              		@ frame_needed = 0, uses_anonymous_args = 0
 291              	.LVL29:
 292 0000 2DE9F043 		push	{r4, r5, r6, r7, r8, r9, lr}
 293              		.cfi_def_cfa_offset 28
 294              		.cfi_offset 4, -28
 295              		.cfi_offset 5, -24
 296              		.cfi_offset 6, -20
 297              		.cfi_offset 7, -16
 298              		.cfi_offset 8, -12
 299              		.cfi_offset 9, -8
 300              		.cfi_offset 14, -4
 301 0004 83B0     		sub	sp, sp, #12
 302              		.cfi_def_cfa_offset 40
 303 0006 8046     		mov	r8, r0
 304 0008 8946     		mov	r9, r1
 305 000a 1646     		mov	r6, r2
 306 000c 1D46     		mov	r5, r3
  37:main_cm4.c    ****     Cy_SCB_I2C_MasterWriteByte(I2C_1_HW,reg_addr,0,&I2C_1_context);
 307              		.loc 1 37 0
 308 000e 1B4C     		ldr	r4, .L20
 309 0010 1B4F     		ldr	r7, .L20+4
 310 0012 0097     		str	r7, [sp]
 311 0014 0023     		movs	r3, #0
 312              	.LVL30:
 313 0016 1A46     		mov	r2, r3
 314              	.LVL31:
 315 0018 0146     		mov	r1, r0
 316              	.LVL32:
 317 001a 2046     		mov	r0, r4
 318              	.LVL33:
 319 001c FFF7FEFF 		bl	Cy_SCB_I2C_MasterSendStart
 320              	.LVL34:
  38:main_cm4.c    ****     Cy_SCB_I2C_MasterSendReStart(I2C_1_HW,dev_addr,CY_SCB_I2C_READ_XFER,0,&I2C_1_context);
 321              		.loc 1 38 0
 322 0020 3B46     		mov	r3, r7
 323 0022 0022     		movs	r2, #0
 324 0024 4946     		mov	r1, r9
 325 0026 2046     		mov	r0, r4
 326 0028 FFF7FEFF 		bl	Cy_SCB_I2C_MasterWriteByte
 327              	.LVL35:
  39:main_cm4.c    ****     for(int i = 0;i<len-1; i++)
 328              		.loc 1 39 0
 329 002c 0097     		str	r7, [sp]
 330 002e 0023     		movs	r3, #0
 331 0030 0122     		movs	r2, #1
 332 0032 4146     		mov	r1, r8
 333 0034 2046     		mov	r0, r4
 334 0036 FFF7FEFF 		bl	Cy_SCB_I2C_MasterSendReStart
 335              	.LVL36:
 336              	.LBB5:
  40:main_cm4.c    ****     {
 337              		.loc 1 40 0
 338 003a 0024     		movs	r4, #0
 339 003c 08E0     		b	.L17
ARM GAS  C:\Users\gjl\AppData\Local\Temp\ccww7iBt.s 			page 9


 340              	.LVL37:
 341              	.L18:
  42:main_cm4.c    ****     }
 342              		.loc 1 42 0 discriminator 3
 343 003e 104B     		ldr	r3, .L20+4
 344 0040 0093     		str	r3, [sp]
 345 0042 0023     		movs	r3, #0
 346 0044 3219     		adds	r2, r6, r4
 347 0046 1946     		mov	r1, r3
 348 0048 0C48     		ldr	r0, .L20
 349 004a FFF7FEFF 		bl	Cy_SCB_I2C_MasterReadByte
 350              	.LVL38:
  40:main_cm4.c    ****     {
 351              		.loc 1 40 0 discriminator 3
 352 004e 0134     		adds	r4, r4, #1
 353              	.LVL39:
 354              	.L17:
  40:main_cm4.c    ****     {
 355              		.loc 1 40 0 is_stmt 0 discriminator 1
 356 0050 6B1E     		subs	r3, r5, #1
 357 0052 9C42     		cmp	r4, r3
 358 0054 F3DB     		blt	.L18
 359              	.LBE5:
  44:main_cm4.c    ****     
 360              		.loc 1 44 0 is_stmt 1
 361 0056 1A46     		mov	r2, r3
 362 0058 084C     		ldr	r4, .L20
 363              	.LVL40:
 364 005a 094D     		ldr	r5, .L20+4
 365 005c 0095     		str	r5, [sp]
 366 005e 0023     		movs	r3, #0
 367 0060 3244     		add	r2, r2, r6
 368 0062 0121     		movs	r1, #1
 369 0064 2046     		mov	r0, r4
 370 0066 FFF7FEFF 		bl	Cy_SCB_I2C_MasterReadByte
 371              	.LVL41:
  46:main_cm4.c    **** 
 372              		.loc 1 46 0
 373 006a 2A46     		mov	r2, r5
 374 006c 0021     		movs	r1, #0
 375 006e 2046     		mov	r0, r4
 376 0070 FFF7FEFF 		bl	Cy_SCB_I2C_MasterSendStop
 377              	.LVL42:
  49:main_cm4.c    **** 
 378              		.loc 1 49 0
 379 0074 0020     		movs	r0, #0
 380 0076 03B0     		add	sp, sp, #12
 381              		.cfi_def_cfa_offset 28
 382              		@ sp needed
 383 0078 BDE8F083 		pop	{r4, r5, r6, r7, r8, r9, pc}
 384              	.LVL43:
 385              	.L21:
 386              		.align	2
 387              	.L20:
 388 007c 00006440 		.word	1080295424
 389 0080 00000000 		.word	I2C_1_context
 390              		.cfi_endproc
ARM GAS  C:\Users\gjl\AppData\Local\Temp\ccww7iBt.s 			page 10


 391              	.LFE501:
 392              		.size	BMI160BurstRead, .-BMI160BurstRead
 393              		.section	.text.main,"ax",%progbits
 394              		.align	2
 395              		.global	main
 396              		.thumb
 397              		.thumb_func
 398              		.type	main, %function
 399              	main:
 400              	.LFB504:
 104:main_cm4.c    ****     }
 105:main_cm4.c    **** }
 106:main_cm4.c    **** 
 107:main_cm4.c    **** int main(void)
 108:main_cm4.c    **** {
 401              		.loc 1 108 0
 402              		.cfi_startproc
 403              		@ Volatile: function does not return.
 404              		@ args = 0, pretend = 0, frame = 0
 405              		@ frame_needed = 0, uses_anonymous_args = 0
 406 0000 00B5     		push	{lr}
 407              		.cfi_def_cfa_offset 4
 408              		.cfi_offset 14, -4
 409 0002 83B0     		sub	sp, sp, #12
 410              		.cfi_def_cfa_offset 16
 411              	.LBB6:
 412              	.LBB7:
 413              		.file 2 "Generated_Source\\PSoC6\\pdl\\cmsis/include/cmsis_gcc.h"
   1:Generated_Source\PSoC6\pdl\cmsis/include/cmsis_gcc.h **** /**************************************************************************//**
   2:Generated_Source\PSoC6\pdl\cmsis/include/cmsis_gcc.h ****  * @file     cmsis_gcc.h
   3:Generated_Source\PSoC6\pdl\cmsis/include/cmsis_gcc.h ****  * @brief    CMSIS compiler GCC header file
   4:Generated_Source\PSoC6\pdl\cmsis/include/cmsis_gcc.h ****  * @version  V5.0.1
   5:Generated_Source\PSoC6\pdl\cmsis/include/cmsis_gcc.h ****  * @date     02. February 2017
   6:Generated_Source\PSoC6\pdl\cmsis/include/cmsis_gcc.h ****  ******************************************************************************/
   7:Generated_Source\PSoC6\pdl\cmsis/include/cmsis_gcc.h **** /*
   8:Generated_Source\PSoC6\pdl\cmsis/include/cmsis_gcc.h ****  * Copyright (c) 2009-2017 ARM Limited. All rights reserved.
   9:Generated_Source\PSoC6\pdl\cmsis/include/cmsis_gcc.h ****  *
  10:Generated_Source\PSoC6\pdl\cmsis/include/cmsis_gcc.h ****  * SPDX-License-Identifier: Apache-2.0
  11:Generated_Source\PSoC6\pdl\cmsis/include/cmsis_gcc.h ****  *
  12:Generated_Source\PSoC6\pdl\cmsis/include/cmsis_gcc.h ****  * Licensed under the Apache License, Version 2.0 (the License); you may
  13:Generated_Source\PSoC6\pdl\cmsis/include/cmsis_gcc.h ****  * not use this file except in compliance with the License.
  14:Generated_Source\PSoC6\pdl\cmsis/include/cmsis_gcc.h ****  * You may obtain a copy of the License at
  15:Generated_Source\PSoC6\pdl\cmsis/include/cmsis_gcc.h ****  *
  16:Generated_Source\PSoC6\pdl\cmsis/include/cmsis_gcc.h ****  * www.apache.org/licenses/LICENSE-2.0
  17:Generated_Source\PSoC6\pdl\cmsis/include/cmsis_gcc.h ****  *
  18:Generated_Source\PSoC6\pdl\cmsis/include/cmsis_gcc.h ****  * Unless required by applicable law or agreed to in writing, software
  19:Generated_Source\PSoC6\pdl\cmsis/include/cmsis_gcc.h ****  * distributed under the License is distributed on an AS IS BASIS, WITHOUT
  20:Generated_Source\PSoC6\pdl\cmsis/include/cmsis_gcc.h ****  * WARRANTIES OR CONDITIONS OF ANY KIND, either express or implied.
  21:Generated_Source\PSoC6\pdl\cmsis/include/cmsis_gcc.h ****  * See the License for the specific language governing permissions and
  22:Generated_Source\PSoC6\pdl\cmsis/include/cmsis_gcc.h ****  * limitations under the License.
  23:Generated_Source\PSoC6\pdl\cmsis/include/cmsis_gcc.h ****  */
  24:Generated_Source\PSoC6\pdl\cmsis/include/cmsis_gcc.h **** 
  25:Generated_Source\PSoC6\pdl\cmsis/include/cmsis_gcc.h **** #ifndef __CMSIS_GCC_H
  26:Generated_Source\PSoC6\pdl\cmsis/include/cmsis_gcc.h **** #define __CMSIS_GCC_H
  27:Generated_Source\PSoC6\pdl\cmsis/include/cmsis_gcc.h **** 
  28:Generated_Source\PSoC6\pdl\cmsis/include/cmsis_gcc.h **** /* ignore some GCC warnings */
  29:Generated_Source\PSoC6\pdl\cmsis/include/cmsis_gcc.h **** #pragma GCC diagnostic push
ARM GAS  C:\Users\gjl\AppData\Local\Temp\ccww7iBt.s 			page 11


  30:Generated_Source\PSoC6\pdl\cmsis/include/cmsis_gcc.h **** #pragma GCC diagnostic ignored "-Wsign-conversion"
  31:Generated_Source\PSoC6\pdl\cmsis/include/cmsis_gcc.h **** #pragma GCC diagnostic ignored "-Wconversion"
  32:Generated_Source\PSoC6\pdl\cmsis/include/cmsis_gcc.h **** #pragma GCC diagnostic ignored "-Wunused-parameter"
  33:Generated_Source\PSoC6\pdl\cmsis/include/cmsis_gcc.h **** 
  34:Generated_Source\PSoC6\pdl\cmsis/include/cmsis_gcc.h **** /* CMSIS compiler specific defines */
  35:Generated_Source\PSoC6\pdl\cmsis/include/cmsis_gcc.h **** #ifndef   __ASM
  36:Generated_Source\PSoC6\pdl\cmsis/include/cmsis_gcc.h ****   #define __ASM                     __asm
  37:Generated_Source\PSoC6\pdl\cmsis/include/cmsis_gcc.h **** #endif
  38:Generated_Source\PSoC6\pdl\cmsis/include/cmsis_gcc.h **** #ifndef   __INLINE
  39:Generated_Source\PSoC6\pdl\cmsis/include/cmsis_gcc.h ****   #define __INLINE                  inline
  40:Generated_Source\PSoC6\pdl\cmsis/include/cmsis_gcc.h **** #endif
  41:Generated_Source\PSoC6\pdl\cmsis/include/cmsis_gcc.h **** #ifndef   __STATIC_INLINE
  42:Generated_Source\PSoC6\pdl\cmsis/include/cmsis_gcc.h ****   #define __STATIC_INLINE           static inline
  43:Generated_Source\PSoC6\pdl\cmsis/include/cmsis_gcc.h **** #endif
  44:Generated_Source\PSoC6\pdl\cmsis/include/cmsis_gcc.h **** #ifndef   __NO_RETURN
  45:Generated_Source\PSoC6\pdl\cmsis/include/cmsis_gcc.h ****   #define __NO_RETURN               __attribute__((noreturn))
  46:Generated_Source\PSoC6\pdl\cmsis/include/cmsis_gcc.h **** #endif
  47:Generated_Source\PSoC6\pdl\cmsis/include/cmsis_gcc.h **** #ifndef   __USED
  48:Generated_Source\PSoC6\pdl\cmsis/include/cmsis_gcc.h ****   #define __USED                    __attribute__((used))
  49:Generated_Source\PSoC6\pdl\cmsis/include/cmsis_gcc.h **** #endif
  50:Generated_Source\PSoC6\pdl\cmsis/include/cmsis_gcc.h **** #ifndef   __WEAK
  51:Generated_Source\PSoC6\pdl\cmsis/include/cmsis_gcc.h ****   #define __WEAK                    __attribute__((weak))
  52:Generated_Source\PSoC6\pdl\cmsis/include/cmsis_gcc.h **** #endif
  53:Generated_Source\PSoC6\pdl\cmsis/include/cmsis_gcc.h **** #ifndef   __UNALIGNED_UINT32
  54:Generated_Source\PSoC6\pdl\cmsis/include/cmsis_gcc.h **** #pragma GCC diagnostic push
  55:Generated_Source\PSoC6\pdl\cmsis/include/cmsis_gcc.h **** #pragma GCC diagnostic ignored "-Wpacked"
  56:Generated_Source\PSoC6\pdl\cmsis/include/cmsis_gcc.h **** #pragma GCC diagnostic ignored "-Wattributes"
  57:Generated_Source\PSoC6\pdl\cmsis/include/cmsis_gcc.h ****   struct __attribute__((packed)) T_UINT32 { uint32_t v; };
  58:Generated_Source\PSoC6\pdl\cmsis/include/cmsis_gcc.h **** #pragma GCC diagnostic pop
  59:Generated_Source\PSoC6\pdl\cmsis/include/cmsis_gcc.h ****   #define __UNALIGNED_UINT32(x)     (((struct T_UINT32 *)(x))->v)
  60:Generated_Source\PSoC6\pdl\cmsis/include/cmsis_gcc.h **** #endif
  61:Generated_Source\PSoC6\pdl\cmsis/include/cmsis_gcc.h **** #ifndef   __ALIGNED
  62:Generated_Source\PSoC6\pdl\cmsis/include/cmsis_gcc.h ****   #define __ALIGNED(x)              __attribute__((aligned(x)))
  63:Generated_Source\PSoC6\pdl\cmsis/include/cmsis_gcc.h **** #endif
  64:Generated_Source\PSoC6\pdl\cmsis/include/cmsis_gcc.h **** #ifndef   __PACKED
  65:Generated_Source\PSoC6\pdl\cmsis/include/cmsis_gcc.h ****   #define __PACKED                  __attribute__((packed, aligned(1)))
  66:Generated_Source\PSoC6\pdl\cmsis/include/cmsis_gcc.h **** #endif
  67:Generated_Source\PSoC6\pdl\cmsis/include/cmsis_gcc.h **** #ifndef   __PACKED_STRUCT
  68:Generated_Source\PSoC6\pdl\cmsis/include/cmsis_gcc.h ****   #define __PACKED_STRUCT           struct __attribute__((packed, aligned(1)))
  69:Generated_Source\PSoC6\pdl\cmsis/include/cmsis_gcc.h **** #endif
  70:Generated_Source\PSoC6\pdl\cmsis/include/cmsis_gcc.h **** 
  71:Generated_Source\PSoC6\pdl\cmsis/include/cmsis_gcc.h **** 
  72:Generated_Source\PSoC6\pdl\cmsis/include/cmsis_gcc.h **** /* ###########################  Core Function Access  ########################### */
  73:Generated_Source\PSoC6\pdl\cmsis/include/cmsis_gcc.h **** /** \ingroup  CMSIS_Core_FunctionInterface
  74:Generated_Source\PSoC6\pdl\cmsis/include/cmsis_gcc.h ****     \defgroup CMSIS_Core_RegAccFunctions CMSIS Core Register Access Functions
  75:Generated_Source\PSoC6\pdl\cmsis/include/cmsis_gcc.h ****   @{
  76:Generated_Source\PSoC6\pdl\cmsis/include/cmsis_gcc.h ****  */
  77:Generated_Source\PSoC6\pdl\cmsis/include/cmsis_gcc.h **** 
  78:Generated_Source\PSoC6\pdl\cmsis/include/cmsis_gcc.h **** /**
  79:Generated_Source\PSoC6\pdl\cmsis/include/cmsis_gcc.h ****   \brief   Enable IRQ Interrupts
  80:Generated_Source\PSoC6\pdl\cmsis/include/cmsis_gcc.h ****   \details Enables IRQ interrupts by clearing the I-bit in the CPSR.
  81:Generated_Source\PSoC6\pdl\cmsis/include/cmsis_gcc.h ****            Can only be executed in Privileged modes.
  82:Generated_Source\PSoC6\pdl\cmsis/include/cmsis_gcc.h ****  */
  83:Generated_Source\PSoC6\pdl\cmsis/include/cmsis_gcc.h **** __attribute__((always_inline)) __STATIC_INLINE void __enable_irq(void)
  84:Generated_Source\PSoC6\pdl\cmsis/include/cmsis_gcc.h **** {
  85:Generated_Source\PSoC6\pdl\cmsis/include/cmsis_gcc.h ****   __ASM volatile ("cpsie i" : : : "memory");
 414              		.loc 2 85 0
ARM GAS  C:\Users\gjl\AppData\Local\Temp\ccww7iBt.s 			page 12


 415              		.syntax unified
 416              	@ 85 "Generated_Source\PSoC6\pdl\cmsis/include/cmsis_gcc.h" 1
 417 0004 62B6     		cpsie i
 418              	@ 0 "" 2
 419              		.thumb
 420              		.syntax unified
 421              	.LBE7:
 422              	.LBE6:
 109:main_cm4.c    ****     __enable_irq(); /* Enable global interrupts. */
 110:main_cm4.c    **** 
 111:main_cm4.c    ****     UART_1_Start();
 423              		.loc 1 111 0
 424 0006 FFF7FEFF 		bl	UART_1_Start
 425              	.LVL44:
 112:main_cm4.c    **** 
 113:main_cm4.c    ****     xTaskCreate( motionTask, "Motion Task",400,0,1,0);
 426              		.loc 1 113 0
 427 000a 0023     		movs	r3, #0
 428 000c 0193     		str	r3, [sp, #4]
 429 000e 0122     		movs	r2, #1
 430 0010 0092     		str	r2, [sp]
 431 0012 4FF4C872 		mov	r2, #400
 432 0016 0349     		ldr	r1, .L25
 433 0018 0348     		ldr	r0, .L25+4
 434 001a FFF7FEFF 		bl	xTaskCreate
 435              	.LVL45:
 114:main_cm4.c    ****     vTaskStartScheduler();
 436              		.loc 1 114 0
 437 001e FFF7FEFF 		bl	vTaskStartScheduler
 438              	.LVL46:
 439              	.L23:
 440 0022 FEE7     		b	.L23
 441              	.L26:
 442              		.align	2
 443              	.L25:
 444 0024 1C000000 		.word	.LC1
 445 0028 00000000 		.word	motionTask
 446              		.cfi_endproc
 447              	.LFE504:
 448              		.size	main, .-main
 449              		.section	.rodata.str1.4,"aMS",%progbits,1
 450              		.align	2
 451              	.LC0:
 452 0000 783D2531 		.ascii	"x=%1.2f y=%1.2f z=%1.2f\015\012\000"
 452      2E326620 
 452      793D2531 
 452      2E326620 
 452      7A3D2531 
 453 001a 0000     		.space	2
 454              	.LC1:
 455 001c 4D6F7469 		.ascii	"Motion Task\000"
 455      6F6E2054 
 455      61736B00 
 456              		.bss
 457              		.align	2
 458              		.set	.LANCHOR0,. + 0
 459              		.type	bmi160Dev, %object
ARM GAS  C:\Users\gjl\AppData\Local\Temp\ccww7iBt.s 			page 13


 460              		.size	bmi160Dev, 40
 461              	bmi160Dev:
 462 0000 00000000 		.space	40
 462      00000000 
 462      00000000 
 462      00000000 
 462      00000000 
 463              		.text
 464              	.Letext0:
 465              		.file 3 "c:\\program files (x86)\\cypress\\psoc creator\\4.2\\psoc creator\\import\\gnu\\arm\\5.4.
 466              		.file 4 "c:\\program files (x86)\\cypress\\psoc creator\\4.2\\psoc creator\\import\\gnu\\arm\\5.4.
 467              		.file 5 "Generated_Source\\PSoC6\\pdl\\devices/psoc6/ip/cyip_scb.h"
 468              		.file 6 "Generated_Source\\PSoC6\\pdl\\drivers/peripheral/scb/cy_scb_i2c.h"
 469              		.file 7 "Generated_Source\\PSoC6\\pdl\\drivers/peripheral/scb/cy_scb_uart.h"
 470              		.file 8 "..\\BMI160_driver/bmi160_defs.h"
 471              		.file 9 "Generated_Source\\PSoC6\\pdl\\cmsis/include/core_cm4.h"
 472              		.file 10 "Generated_Source\\PSoC6/I2C_1.h"
 473              		.file 11 "Generated_Source\\PSoC6/UART_1.h"
 474              		.file 12 "Generated_Source\\PSoC6\\pdl\\rtos/FreeRTOS/9.0.0/Source/include/task.h"
 475              		.file 13 "..\\BMI160_driver/bmi160.h"
 476              		.file 14 "c:\\program files (x86)\\cypress\\psoc creator\\4.2\\psoc creator\\import\\gnu\\arm\\5.4