ARM GAS  C:\Users\gjl\AppData\Local\Temp\ccCHEUhc.s 			page 1


   1              		.syntax unified
   2              		.cpu cortex-m4
   3              		.eabi_attribute 27, 1
   4              		.fpu fpv4-sp-d16
   5              		.eabi_attribute 20, 1
   6              		.eabi_attribute 21, 1
   7              		.eabi_attribute 23, 3
   8              		.eabi_attribute 24, 1
   9              		.eabi_attribute 25, 1
  10              		.eabi_attribute 26, 1
  11              		.eabi_attribute 30, 1
  12              		.eabi_attribute 34, 1
  13              		.eabi_attribute 18, 4
  14              		.thumb
  15              		.syntax unified
  16              		.file	"cy_ipc_pipe.c"
  17              		.text
  18              	.Ltext0:
  19              		.cfi_sections	.debug_frame
  20              		.section	.text.Cy_IPC_Pipe_Config,"ax",%progbits
  21              		.align	2
  22              		.global	Cy_IPC_Pipe_Config
  23              		.thumb
  24              		.thumb_func
  25              		.type	Cy_IPC_Pipe_Config, %function
  26              	Cy_IPC_Pipe_Config:
  27              	.LFB147:
  28              		.file 1 "Generated_Source\\PSoC6\\pdl\\drivers\\peripheral\\ipc\\cy_ipc_pipe.c"
   1:Generated_Source\PSoC6\pdl\drivers\peripheral\ipc/cy_ipc_pipe.c **** /***************************************************************************//**
   2:Generated_Source\PSoC6\pdl\drivers\peripheral\ipc/cy_ipc_pipe.c **** * \file cy_ipc_pipe.c
   3:Generated_Source\PSoC6\pdl\drivers\peripheral\ipc/cy_ipc_pipe.c **** * \version 1.10.1
   4:Generated_Source\PSoC6\pdl\drivers\peripheral\ipc/cy_ipc_pipe.c **** *
   5:Generated_Source\PSoC6\pdl\drivers\peripheral\ipc/cy_ipc_pipe.c **** *  Description:
   6:Generated_Source\PSoC6\pdl\drivers\peripheral\ipc/cy_ipc_pipe.c **** *   IPC Pipe Driver - This source file includes code for the Pipe layer on top
   7:Generated_Source\PSoC6\pdl\drivers\peripheral\ipc/cy_ipc_pipe.c **** *   of the IPC driver.
   8:Generated_Source\PSoC6\pdl\drivers\peripheral\ipc/cy_ipc_pipe.c **** *
   9:Generated_Source\PSoC6\pdl\drivers\peripheral\ipc/cy_ipc_pipe.c **** ********************************************************************************
  10:Generated_Source\PSoC6\pdl\drivers\peripheral\ipc/cy_ipc_pipe.c **** * Copyright 2016-2018, Cypress Semiconductor Corporation.  All rights reserved.
  11:Generated_Source\PSoC6\pdl\drivers\peripheral\ipc/cy_ipc_pipe.c **** * You may use this file only in accordance with the license, terms, conditions,
  12:Generated_Source\PSoC6\pdl\drivers\peripheral\ipc/cy_ipc_pipe.c **** * disclaimers, and limitations in the end user license agreement accompanying
  13:Generated_Source\PSoC6\pdl\drivers\peripheral\ipc/cy_ipc_pipe.c **** * the software package with which this file was provided.
  14:Generated_Source\PSoC6\pdl\drivers\peripheral\ipc/cy_ipc_pipe.c **** *******************************************************************************/
  15:Generated_Source\PSoC6\pdl\drivers\peripheral\ipc/cy_ipc_pipe.c **** 
  16:Generated_Source\PSoC6\pdl\drivers\peripheral\ipc/cy_ipc_pipe.c **** #include "cy_ipc_pipe.h"
  17:Generated_Source\PSoC6\pdl\drivers\peripheral\ipc/cy_ipc_pipe.c **** 
  18:Generated_Source\PSoC6\pdl\drivers\peripheral\ipc/cy_ipc_pipe.c **** /* Define a pointer to array of endPoints. */
  19:Generated_Source\PSoC6\pdl\drivers\peripheral\ipc/cy_ipc_pipe.c **** static cy_stc_ipc_pipe_ep_t * cy_ipc_pipe_epArray = NULL;
  20:Generated_Source\PSoC6\pdl\drivers\peripheral\ipc/cy_ipc_pipe.c **** 
  21:Generated_Source\PSoC6\pdl\drivers\peripheral\ipc/cy_ipc_pipe.c **** /*******************************************************************************
  22:Generated_Source\PSoC6\pdl\drivers\peripheral\ipc/cy_ipc_pipe.c **** * Function Name: Cy_IPC_Pipe_Config
  23:Generated_Source\PSoC6\pdl\drivers\peripheral\ipc/cy_ipc_pipe.c **** ****************************************************************************//**
  24:Generated_Source\PSoC6\pdl\drivers\peripheral\ipc/cy_ipc_pipe.c **** *
  25:Generated_Source\PSoC6\pdl\drivers\peripheral\ipc/cy_ipc_pipe.c **** * This function stores a copy of a pointer to the array of endpoints.  All
  26:Generated_Source\PSoC6\pdl\drivers\peripheral\ipc/cy_ipc_pipe.c **** * access to endpoints will be via the index of the endpoint in this array.
  27:Generated_Source\PSoC6\pdl\drivers\peripheral\ipc/cy_ipc_pipe.c **** *
  28:Generated_Source\PSoC6\pdl\drivers\peripheral\ipc/cy_ipc_pipe.c **** * \note In general case, this function is called in the default startup code,
  29:Generated_Source\PSoC6\pdl\drivers\peripheral\ipc/cy_ipc_pipe.c **** * so user doesn't need to call it anywhere.
ARM GAS  C:\Users\gjl\AppData\Local\Temp\ccCHEUhc.s 			page 2


  30:Generated_Source\PSoC6\pdl\drivers\peripheral\ipc/cy_ipc_pipe.c **** * However, it may be useful in case of some pipe customizations.
  31:Generated_Source\PSoC6\pdl\drivers\peripheral\ipc/cy_ipc_pipe.c **** *
  32:Generated_Source\PSoC6\pdl\drivers\peripheral\ipc/cy_ipc_pipe.c **** * \param theEpArray
  33:Generated_Source\PSoC6\pdl\drivers\peripheral\ipc/cy_ipc_pipe.c **** * This is the pointer to an array of endpoint structures that the designer
  34:Generated_Source\PSoC6\pdl\drivers\peripheral\ipc/cy_ipc_pipe.c **** * created and will be used to reference all endpoints.
  35:Generated_Source\PSoC6\pdl\drivers\peripheral\ipc/cy_ipc_pipe.c **** *
  36:Generated_Source\PSoC6\pdl\drivers\peripheral\ipc/cy_ipc_pipe.c **** * \funcusage
  37:Generated_Source\PSoC6\pdl\drivers\peripheral\ipc/cy_ipc_pipe.c **** * \snippet IPC_sut_01.cydsn/main_cm4.c snippet_myIpcPipeEpArray
  38:Generated_Source\PSoC6\pdl\drivers\peripheral\ipc/cy_ipc_pipe.c **** * \snippet IPC_sut_01.cydsn/main_cm4.c snippet_Cy_IPC_Pipe_Config
  39:Generated_Source\PSoC6\pdl\drivers\peripheral\ipc/cy_ipc_pipe.c **** *
  40:Generated_Source\PSoC6\pdl\drivers\peripheral\ipc/cy_ipc_pipe.c **** *******************************************************************************/
  41:Generated_Source\PSoC6\pdl\drivers\peripheral\ipc/cy_ipc_pipe.c **** void Cy_IPC_Pipe_Config(cy_stc_ipc_pipe_ep_t * theEpArray)
  42:Generated_Source\PSoC6\pdl\drivers\peripheral\ipc/cy_ipc_pipe.c **** {
  29              		.loc 1 42 0
  30              		.cfi_startproc
  31              		@ args = 0, pretend = 0, frame = 0
  32              		@ frame_needed = 0, uses_anonymous_args = 0
  33              		@ link register save eliminated.
  34              	.LVL0:
  43:Generated_Source\PSoC6\pdl\drivers\peripheral\ipc/cy_ipc_pipe.c ****     /* Keep copy of this endpoint */
  44:Generated_Source\PSoC6\pdl\drivers\peripheral\ipc/cy_ipc_pipe.c ****     if (cy_ipc_pipe_epArray == NULL)
  35              		.loc 1 44 0
  36 0000 024B     		ldr	r3, .L3
  37 0002 1B68     		ldr	r3, [r3]
  38 0004 0BB9     		cbnz	r3, .L1
  45:Generated_Source\PSoC6\pdl\drivers\peripheral\ipc/cy_ipc_pipe.c ****     {
  46:Generated_Source\PSoC6\pdl\drivers\peripheral\ipc/cy_ipc_pipe.c ****         cy_ipc_pipe_epArray = theEpArray;
  39              		.loc 1 46 0
  40 0006 014B     		ldr	r3, .L3
  41 0008 1860     		str	r0, [r3]
  42              	.L1:
  43 000a 7047     		bx	lr
  44              	.L4:
  45              		.align	2
  46              	.L3:
  47 000c 00000000 		.word	.LANCHOR0
  48              		.cfi_endproc
  49              	.LFE147:
  50              		.size	Cy_IPC_Pipe_Config, .-Cy_IPC_Pipe_Config
  51              		.section	.text.Cy_IPC_Pipe_EndpointInit,"ax",%progbits
  52              		.align	2
  53              		.global	Cy_IPC_Pipe_EndpointInit
  54              		.thumb
  55              		.thumb_func
  56              		.type	Cy_IPC_Pipe_EndpointInit, %function
  57              	Cy_IPC_Pipe_EndpointInit:
  58              	.LFB149:
  47:Generated_Source\PSoC6\pdl\drivers\peripheral\ipc/cy_ipc_pipe.c ****     }
  48:Generated_Source\PSoC6\pdl\drivers\peripheral\ipc/cy_ipc_pipe.c **** }
  49:Generated_Source\PSoC6\pdl\drivers\peripheral\ipc/cy_ipc_pipe.c **** 
  50:Generated_Source\PSoC6\pdl\drivers\peripheral\ipc/cy_ipc_pipe.c **** /*******************************************************************************
  51:Generated_Source\PSoC6\pdl\drivers\peripheral\ipc/cy_ipc_pipe.c **** * Function Name: Cy_IPC_Pipe_Init
  52:Generated_Source\PSoC6\pdl\drivers\peripheral\ipc/cy_ipc_pipe.c **** ****************************************************************************//**
  53:Generated_Source\PSoC6\pdl\drivers\peripheral\ipc/cy_ipc_pipe.c **** *
  54:Generated_Source\PSoC6\pdl\drivers\peripheral\ipc/cy_ipc_pipe.c **** * Initializes the system pipes. The system pipes are used by BLE.
  55:Generated_Source\PSoC6\pdl\drivers\peripheral\ipc/cy_ipc_pipe.c **** * \note The function should be called on all CPUs.
  56:Generated_Source\PSoC6\pdl\drivers\peripheral\ipc/cy_ipc_pipe.c **** *
ARM GAS  C:\Users\gjl\AppData\Local\Temp\ccCHEUhc.s 			page 3


  57:Generated_Source\PSoC6\pdl\drivers\peripheral\ipc/cy_ipc_pipe.c **** * \note In general case, this function is called in the default startup code,
  58:Generated_Source\PSoC6\pdl\drivers\peripheral\ipc/cy_ipc_pipe.c **** * so user doesn't need to call it anywhere.
  59:Generated_Source\PSoC6\pdl\drivers\peripheral\ipc/cy_ipc_pipe.c **** * However, it may be useful in case of some pipe customizations.
  60:Generated_Source\PSoC6\pdl\drivers\peripheral\ipc/cy_ipc_pipe.c **** *
  61:Generated_Source\PSoC6\pdl\drivers\peripheral\ipc/cy_ipc_pipe.c **** * \param config
  62:Generated_Source\PSoC6\pdl\drivers\peripheral\ipc/cy_ipc_pipe.c **** * This is the pointer to the pipe configuration structure
  63:Generated_Source\PSoC6\pdl\drivers\peripheral\ipc/cy_ipc_pipe.c **** *
  64:Generated_Source\PSoC6\pdl\drivers\peripheral\ipc/cy_ipc_pipe.c **** * \funcusage
  65:Generated_Source\PSoC6\pdl\drivers\peripheral\ipc/cy_ipc_pipe.c **** * \snippet IPC_sut_01.cydsn/main_cm4.c snippet_myIpcPipeCbArray
  66:Generated_Source\PSoC6\pdl\drivers\peripheral\ipc/cy_ipc_pipe.c **** * \snippet IPC_sut_01.cydsn/main_cm4.c snippet_myIpcPipeEpConfig
  67:Generated_Source\PSoC6\pdl\drivers\peripheral\ipc/cy_ipc_pipe.c **** * \snippet IPC_sut_01.cydsn/main_cm4.c snippet_Cy_IPC_Pipe_Init
  68:Generated_Source\PSoC6\pdl\drivers\peripheral\ipc/cy_ipc_pipe.c **** *
  69:Generated_Source\PSoC6\pdl\drivers\peripheral\ipc/cy_ipc_pipe.c **** *******************************************************************************/
  70:Generated_Source\PSoC6\pdl\drivers\peripheral\ipc/cy_ipc_pipe.c **** void Cy_IPC_Pipe_Init(cy_stc_ipc_pipe_config_t const *config)
  71:Generated_Source\PSoC6\pdl\drivers\peripheral\ipc/cy_ipc_pipe.c **** {
  72:Generated_Source\PSoC6\pdl\drivers\peripheral\ipc/cy_ipc_pipe.c ****     /* Create the interrupt structures and arrays needed */
  73:Generated_Source\PSoC6\pdl\drivers\peripheral\ipc/cy_ipc_pipe.c **** 
  74:Generated_Source\PSoC6\pdl\drivers\peripheral\ipc/cy_ipc_pipe.c ****     cy_stc_sysint_t                 ipc_intr_cypipeConfig;
  75:Generated_Source\PSoC6\pdl\drivers\peripheral\ipc/cy_ipc_pipe.c **** 
  76:Generated_Source\PSoC6\pdl\drivers\peripheral\ipc/cy_ipc_pipe.c ****     cy_stc_ipc_pipe_ep_config_t        epConfigDataA;
  77:Generated_Source\PSoC6\pdl\drivers\peripheral\ipc/cy_ipc_pipe.c ****     cy_stc_ipc_pipe_ep_config_t        epConfigDataB;
  78:Generated_Source\PSoC6\pdl\drivers\peripheral\ipc/cy_ipc_pipe.c **** 
  79:Generated_Source\PSoC6\pdl\drivers\peripheral\ipc/cy_ipc_pipe.c ****     /* Parameters checking begin */
  80:Generated_Source\PSoC6\pdl\drivers\peripheral\ipc/cy_ipc_pipe.c ****     CY_ASSERT_L1(NULL != config);
  81:Generated_Source\PSoC6\pdl\drivers\peripheral\ipc/cy_ipc_pipe.c ****     #if (CY_CPU_CORTEX_M0P)
  82:Generated_Source\PSoC6\pdl\drivers\peripheral\ipc/cy_ipc_pipe.c ****     CY_ASSERT_L2((uint32_t)(1UL << __NVIC_PRIO_BITS) > config->ep0ConfigData.ipcNotifierPriority);
  83:Generated_Source\PSoC6\pdl\drivers\peripheral\ipc/cy_ipc_pipe.c ****     #else
  84:Generated_Source\PSoC6\pdl\drivers\peripheral\ipc/cy_ipc_pipe.c ****     CY_ASSERT_L2((uint32_t)(1UL << __NVIC_PRIO_BITS) > config->ep1ConfigData.ipcNotifierPriority);
  85:Generated_Source\PSoC6\pdl\drivers\peripheral\ipc/cy_ipc_pipe.c ****     #endif
  86:Generated_Source\PSoC6\pdl\drivers\peripheral\ipc/cy_ipc_pipe.c ****     CY_ASSERT_L1(NULL != config->endpointsCallbacksArray);
  87:Generated_Source\PSoC6\pdl\drivers\peripheral\ipc/cy_ipc_pipe.c ****     CY_ASSERT_L2(CY_IPC_MAX_ENDPOINTS > config->ep0ConfigData.epAddress);
  88:Generated_Source\PSoC6\pdl\drivers\peripheral\ipc/cy_ipc_pipe.c ****     CY_ASSERT_L2(CY_IPC_MAX_ENDPOINTS > config->ep1ConfigData.epAddress);
  89:Generated_Source\PSoC6\pdl\drivers\peripheral\ipc/cy_ipc_pipe.c ****     CY_ASSERT_L1(NULL != config->userPipeIsrHandler);
  90:Generated_Source\PSoC6\pdl\drivers\peripheral\ipc/cy_ipc_pipe.c ****     /* Parameters checking end */
  91:Generated_Source\PSoC6\pdl\drivers\peripheral\ipc/cy_ipc_pipe.c **** 
  92:Generated_Source\PSoC6\pdl\drivers\peripheral\ipc/cy_ipc_pipe.c **** #if (CY_CPU_CORTEX_M0P)
  93:Generated_Source\PSoC6\pdl\drivers\peripheral\ipc/cy_ipc_pipe.c **** 
  94:Generated_Source\PSoC6\pdl\drivers\peripheral\ipc/cy_ipc_pipe.c ****     /* Receiver endpoint = EP0, Sender endpoint = EP1 */
  95:Generated_Source\PSoC6\pdl\drivers\peripheral\ipc/cy_ipc_pipe.c ****     epConfigDataA = config->ep0ConfigData;
  96:Generated_Source\PSoC6\pdl\drivers\peripheral\ipc/cy_ipc_pipe.c ****     epConfigDataB = config->ep1ConfigData;
  97:Generated_Source\PSoC6\pdl\drivers\peripheral\ipc/cy_ipc_pipe.c **** 
  98:Generated_Source\PSoC6\pdl\drivers\peripheral\ipc/cy_ipc_pipe.c ****     /* Configure CM0 interrupts */
  99:Generated_Source\PSoC6\pdl\drivers\peripheral\ipc/cy_ipc_pipe.c ****     ipc_intr_cypipeConfig.intrSrc          = (IRQn_Type)epConfigDataA.ipcNotifierMuxNumber;
 100:Generated_Source\PSoC6\pdl\drivers\peripheral\ipc/cy_ipc_pipe.c ****     ipc_intr_cypipeConfig.cm0pSrc          = (cy_en_intr_t)((int32_t)cpuss_interrupts_ipc_0_IRQn + 
 101:Generated_Source\PSoC6\pdl\drivers\peripheral\ipc/cy_ipc_pipe.c ****     ipc_intr_cypipeConfig.intrPriority     = epConfigDataA.ipcNotifierPriority;
 102:Generated_Source\PSoC6\pdl\drivers\peripheral\ipc/cy_ipc_pipe.c **** 
 103:Generated_Source\PSoC6\pdl\drivers\peripheral\ipc/cy_ipc_pipe.c **** #else
 104:Generated_Source\PSoC6\pdl\drivers\peripheral\ipc/cy_ipc_pipe.c **** 
 105:Generated_Source\PSoC6\pdl\drivers\peripheral\ipc/cy_ipc_pipe.c ****     /* Receiver endpoint = EP1, Sender endpoint = EP0 */
 106:Generated_Source\PSoC6\pdl\drivers\peripheral\ipc/cy_ipc_pipe.c ****     epConfigDataA = config->ep1ConfigData;
 107:Generated_Source\PSoC6\pdl\drivers\peripheral\ipc/cy_ipc_pipe.c ****     epConfigDataB = config->ep0ConfigData;
 108:Generated_Source\PSoC6\pdl\drivers\peripheral\ipc/cy_ipc_pipe.c **** 
 109:Generated_Source\PSoC6\pdl\drivers\peripheral\ipc/cy_ipc_pipe.c ****     /* Configure interrupts */
 110:Generated_Source\PSoC6\pdl\drivers\peripheral\ipc/cy_ipc_pipe.c ****     ipc_intr_cypipeConfig.intrSrc          = (IRQn_Type)(cpuss_interrupts_ipc_0_IRQn + epConfigData
 111:Generated_Source\PSoC6\pdl\drivers\peripheral\ipc/cy_ipc_pipe.c ****     ipc_intr_cypipeConfig.intrPriority     = epConfigDataA.ipcNotifierPriority;
 112:Generated_Source\PSoC6\pdl\drivers\peripheral\ipc/cy_ipc_pipe.c **** 
 113:Generated_Source\PSoC6\pdl\drivers\peripheral\ipc/cy_ipc_pipe.c **** #endif
ARM GAS  C:\Users\gjl\AppData\Local\Temp\ccCHEUhc.s 			page 4


 114:Generated_Source\PSoC6\pdl\drivers\peripheral\ipc/cy_ipc_pipe.c **** 
 115:Generated_Source\PSoC6\pdl\drivers\peripheral\ipc/cy_ipc_pipe.c ****     /* Initialize the pipe endpoints */
 116:Generated_Source\PSoC6\pdl\drivers\peripheral\ipc/cy_ipc_pipe.c ****     Cy_IPC_Pipe_EndpointInit(epConfigDataA.epAddress,
 117:Generated_Source\PSoC6\pdl\drivers\peripheral\ipc/cy_ipc_pipe.c ****                              config->endpointsCallbacksArray,
 118:Generated_Source\PSoC6\pdl\drivers\peripheral\ipc/cy_ipc_pipe.c ****                              config->endpointClientsCount,
 119:Generated_Source\PSoC6\pdl\drivers\peripheral\ipc/cy_ipc_pipe.c ****                              epConfigDataA.epConfig,
 120:Generated_Source\PSoC6\pdl\drivers\peripheral\ipc/cy_ipc_pipe.c ****                              &ipc_intr_cypipeConfig);
 121:Generated_Source\PSoC6\pdl\drivers\peripheral\ipc/cy_ipc_pipe.c **** 
 122:Generated_Source\PSoC6\pdl\drivers\peripheral\ipc/cy_ipc_pipe.c ****     /* Create the endpoints for the CM4 just for reference */
 123:Generated_Source\PSoC6\pdl\drivers\peripheral\ipc/cy_ipc_pipe.c ****     Cy_IPC_Pipe_EndpointInit(epConfigDataB.epAddress, NULL, 0ul, epConfigDataB.epConfig, NULL);
 124:Generated_Source\PSoC6\pdl\drivers\peripheral\ipc/cy_ipc_pipe.c **** 
 125:Generated_Source\PSoC6\pdl\drivers\peripheral\ipc/cy_ipc_pipe.c ****     (void)Cy_SysInt_Init(&ipc_intr_cypipeConfig, config->userPipeIsrHandler);
 126:Generated_Source\PSoC6\pdl\drivers\peripheral\ipc/cy_ipc_pipe.c **** 
 127:Generated_Source\PSoC6\pdl\drivers\peripheral\ipc/cy_ipc_pipe.c ****     /* Enable the interrupts */
 128:Generated_Source\PSoC6\pdl\drivers\peripheral\ipc/cy_ipc_pipe.c ****     NVIC_EnableIRQ(ipc_intr_cypipeConfig.intrSrc);
 129:Generated_Source\PSoC6\pdl\drivers\peripheral\ipc/cy_ipc_pipe.c **** }
 130:Generated_Source\PSoC6\pdl\drivers\peripheral\ipc/cy_ipc_pipe.c **** 
 131:Generated_Source\PSoC6\pdl\drivers\peripheral\ipc/cy_ipc_pipe.c **** /*******************************************************************************
 132:Generated_Source\PSoC6\pdl\drivers\peripheral\ipc/cy_ipc_pipe.c **** * Function Name: Cy_IPC_Pipe_EndpointInit
 133:Generated_Source\PSoC6\pdl\drivers\peripheral\ipc/cy_ipc_pipe.c **** ****************************************************************************//**
 134:Generated_Source\PSoC6\pdl\drivers\peripheral\ipc/cy_ipc_pipe.c **** *
 135:Generated_Source\PSoC6\pdl\drivers\peripheral\ipc/cy_ipc_pipe.c **** * This function initializes the endpoint of a pipe for the current CPU.  The
 136:Generated_Source\PSoC6\pdl\drivers\peripheral\ipc/cy_ipc_pipe.c **** * current CPU is the CPU that is executing the code. An endpoint of a pipe
 137:Generated_Source\PSoC6\pdl\drivers\peripheral\ipc/cy_ipc_pipe.c **** * is for the IPC channel that receives a message for the current CPU.
 138:Generated_Source\PSoC6\pdl\drivers\peripheral\ipc/cy_ipc_pipe.c **** *
 139:Generated_Source\PSoC6\pdl\drivers\peripheral\ipc/cy_ipc_pipe.c **** * After this function is called, the callbackArray needs to be populated
 140:Generated_Source\PSoC6\pdl\drivers\peripheral\ipc/cy_ipc_pipe.c **** * with the callback functions for that endpoint using the
 141:Generated_Source\PSoC6\pdl\drivers\peripheral\ipc/cy_ipc_pipe.c **** * Cy_IPC_Pipe_RegisterCallback() function.
 142:Generated_Source\PSoC6\pdl\drivers\peripheral\ipc/cy_ipc_pipe.c **** *
 143:Generated_Source\PSoC6\pdl\drivers\peripheral\ipc/cy_ipc_pipe.c **** * \note In general case, this function is called within \ref Cy_IPC_Pipe_Init,
 144:Generated_Source\PSoC6\pdl\drivers\peripheral\ipc/cy_ipc_pipe.c **** * so user doesn't need to call it anywhere.
 145:Generated_Source\PSoC6\pdl\drivers\peripheral\ipc/cy_ipc_pipe.c **** * However, it may be useful in case of some pipe/endpoint customizations.
 146:Generated_Source\PSoC6\pdl\drivers\peripheral\ipc/cy_ipc_pipe.c **** *
 147:Generated_Source\PSoC6\pdl\drivers\peripheral\ipc/cy_ipc_pipe.c **** * \param epAddr
 148:Generated_Source\PSoC6\pdl\drivers\peripheral\ipc/cy_ipc_pipe.c **** * This parameter is the address (or index in the array of endpoint structures)
 149:Generated_Source\PSoC6\pdl\drivers\peripheral\ipc/cy_ipc_pipe.c **** * that designates the endpoint you want to initialize.
 150:Generated_Source\PSoC6\pdl\drivers\peripheral\ipc/cy_ipc_pipe.c **** *
 151:Generated_Source\PSoC6\pdl\drivers\peripheral\ipc/cy_ipc_pipe.c **** * \param cbArray
 152:Generated_Source\PSoC6\pdl\drivers\peripheral\ipc/cy_ipc_pipe.c **** * This is a pointer to the callback function array.  Based on the client ID, one
 153:Generated_Source\PSoC6\pdl\drivers\peripheral\ipc/cy_ipc_pipe.c **** * of the functions in this array is called to process the message.
 154:Generated_Source\PSoC6\pdl\drivers\peripheral\ipc/cy_ipc_pipe.c **** *
 155:Generated_Source\PSoC6\pdl\drivers\peripheral\ipc/cy_ipc_pipe.c **** * \param cbCnt
 156:Generated_Source\PSoC6\pdl\drivers\peripheral\ipc/cy_ipc_pipe.c **** * This is the size of the callback array, or the number of defined clients.
 157:Generated_Source\PSoC6\pdl\drivers\peripheral\ipc/cy_ipc_pipe.c **** *
 158:Generated_Source\PSoC6\pdl\drivers\peripheral\ipc/cy_ipc_pipe.c **** * \param epConfig
 159:Generated_Source\PSoC6\pdl\drivers\peripheral\ipc/cy_ipc_pipe.c **** * This value defines the IPC channel, IPC interrupt number, and the interrupt
 160:Generated_Source\PSoC6\pdl\drivers\peripheral\ipc/cy_ipc_pipe.c **** * mask for the entire pipe.
 161:Generated_Source\PSoC6\pdl\drivers\peripheral\ipc/cy_ipc_pipe.c **** * The format of the endpoint configuration
 162:Generated_Source\PSoC6\pdl\drivers\peripheral\ipc/cy_ipc_pipe.c **** *    Bits[31:16] Interrupt Mask
 163:Generated_Source\PSoC6\pdl\drivers\peripheral\ipc/cy_ipc_pipe.c **** *    Bits[15:8 ] IPC interrupt
 164:Generated_Source\PSoC6\pdl\drivers\peripheral\ipc/cy_ipc_pipe.c **** *    Bits[ 7:0 ] IPC channel
 165:Generated_Source\PSoC6\pdl\drivers\peripheral\ipc/cy_ipc_pipe.c **** *
 166:Generated_Source\PSoC6\pdl\drivers\peripheral\ipc/cy_ipc_pipe.c **** * \param epInterrupt
 167:Generated_Source\PSoC6\pdl\drivers\peripheral\ipc/cy_ipc_pipe.c **** * This is a pointer to the endpoint interrupt description structure.
 168:Generated_Source\PSoC6\pdl\drivers\peripheral\ipc/cy_ipc_pipe.c **** *
 169:Generated_Source\PSoC6\pdl\drivers\peripheral\ipc/cy_ipc_pipe.c **** * \funcusage
 170:Generated_Source\PSoC6\pdl\drivers\peripheral\ipc/cy_ipc_pipe.c **** * \snippet IPC_sut_01.cydsn/main_cm4.c snippet_myIpcPipeCbArray
ARM GAS  C:\Users\gjl\AppData\Local\Temp\ccCHEUhc.s 			page 5


 171:Generated_Source\PSoC6\pdl\drivers\peripheral\ipc/cy_ipc_pipe.c **** * \snippet IPC_sut_01.cydsn/main_cm4.c snippet_myIpcPipeEpConfig
 172:Generated_Source\PSoC6\pdl\drivers\peripheral\ipc/cy_ipc_pipe.c **** * \snippet IPC_sut_01.cydsn/main_cm4.c snippet_Cy_IPC_Pipe_EndpointInit
 173:Generated_Source\PSoC6\pdl\drivers\peripheral\ipc/cy_ipc_pipe.c **** *
 174:Generated_Source\PSoC6\pdl\drivers\peripheral\ipc/cy_ipc_pipe.c **** *******************************************************************************/
 175:Generated_Source\PSoC6\pdl\drivers\peripheral\ipc/cy_ipc_pipe.c **** void Cy_IPC_Pipe_EndpointInit(uint32_t epAddr, cy_ipc_pipe_callback_array_ptr_t cbArray,
 176:Generated_Source\PSoC6\pdl\drivers\peripheral\ipc/cy_ipc_pipe.c ****                               uint32_t cbCnt, uint32_t epConfig, cy_stc_sysint_t const *epInterrupt
 177:Generated_Source\PSoC6\pdl\drivers\peripheral\ipc/cy_ipc_pipe.c **** {
  59              		.loc 1 177 0
  60              		.cfi_startproc
  61              		@ args = 4, pretend = 0, frame = 0
  62              		@ frame_needed = 0, uses_anonymous_args = 0
  63              	.LVL1:
  64 0000 2DE9F843 		push	{r3, r4, r5, r6, r7, r8, r9, lr}
  65              		.cfi_def_cfa_offset 32
  66              		.cfi_offset 3, -32
  67              		.cfi_offset 4, -28
  68              		.cfi_offset 5, -24
  69              		.cfi_offset 6, -20
  70              		.cfi_offset 7, -16
  71              		.cfi_offset 8, -12
  72              		.cfi_offset 9, -8
  73              		.cfi_offset 14, -4
  74 0004 0446     		mov	r4, r0
  75 0006 8846     		mov	r8, r1
  76 0008 9146     		mov	r9, r2
  77 000a 1E46     		mov	r6, r3
  78 000c 089F     		ldr	r7, [sp, #32]
 178:Generated_Source\PSoC6\pdl\drivers\peripheral\ipc/cy_ipc_pipe.c ****     cy_stc_ipc_pipe_ep_t * endpoint;
 179:Generated_Source\PSoC6\pdl\drivers\peripheral\ipc/cy_ipc_pipe.c **** 
 180:Generated_Source\PSoC6\pdl\drivers\peripheral\ipc/cy_ipc_pipe.c ****     CY_ASSERT_L2(CY_IPC_MAX_ENDPOINTS > epAddr);
  79              		.loc 1 180 0
  80 000e 0728     		cmp	r0, #7
  81 0010 03D9     		bls	.L6
  82              		.loc 1 180 0 is_stmt 0 discriminator 1
  83 0012 B421     		movs	r1, #180
  84              	.LVL2:
  85 0014 2448     		ldr	r0, .L13
  86              	.LVL3:
  87 0016 FFF7FEFF 		bl	Cy_SysLib_AssertFailed
  88              	.LVL4:
  89              	.L6:
 181:Generated_Source\PSoC6\pdl\drivers\peripheral\ipc/cy_ipc_pipe.c **** 
 182:Generated_Source\PSoC6\pdl\drivers\peripheral\ipc/cy_ipc_pipe.c ****     endpoint = &cy_ipc_pipe_epArray[epAddr];
  90              		.loc 1 182 0 is_stmt 1
  91 001a 244B     		ldr	r3, .L13+4
  92 001c 1B68     		ldr	r3, [r3]
  93 001e 2C20     		movs	r0, #44
  94 0020 00FB04F0 		mul	r0, r0, r4
  95 0024 1C18     		adds	r4, r3, r0
  96              	.LVL5:
 183:Generated_Source\PSoC6\pdl\drivers\peripheral\ipc/cy_ipc_pipe.c **** 
 184:Generated_Source\PSoC6\pdl\drivers\peripheral\ipc/cy_ipc_pipe.c ****     /* Extract the channel, interrupt and interrupt mask */
 185:Generated_Source\PSoC6\pdl\drivers\peripheral\ipc/cy_ipc_pipe.c ****     endpoint->ipcChan         = _FLD2VAL(CY_IPC_PIPE_CFG_CHAN,  epConfig);
  97              		.loc 1 185 0
  98 0026 F5B2     		uxtb	r5, r6
  99 0028 1D50     		str	r5, [r3, r0]
 186:Generated_Source\PSoC6\pdl\drivers\peripheral\ipc/cy_ipc_pipe.c ****     endpoint->intrChan        = _FLD2VAL(CY_IPC_PIPE_CFG_INTR,  epConfig);
ARM GAS  C:\Users\gjl\AppData\Local\Temp\ccCHEUhc.s 			page 6


 100              		.loc 1 186 0
 101 002a C6F30723 		ubfx	r3, r6, #8, #8
 102 002e 6360     		str	r3, [r4, #4]
 187:Generated_Source\PSoC6\pdl\drivers\peripheral\ipc/cy_ipc_pipe.c ****     endpoint->pipeIntMask     = _FLD2VAL(CY_IPC_PIPE_CFG_IMASK, epConfig);
 103              		.loc 1 187 0
 104 0030 360C     		lsrs	r6, r6, #16
 105              	.LVL6:
 106 0032 A660     		str	r6, [r4, #8]
 107              	.LVL7:
 108              	.LBB48:
 109              	.LBB49:
 110              		.file 2 "Generated_Source\\PSoC6\\pdl\\drivers/peripheral/ipc/cy_ipc_drv.h"
   1:Generated_Source\PSoC6\pdl\drivers\peripheral\ipc/cy_ipc_drv.h **** /***************************************************************************//**
   2:Generated_Source\PSoC6\pdl\drivers\peripheral\ipc/cy_ipc_drv.h **** * \file cy_ipc_drv.h
   3:Generated_Source\PSoC6\pdl\drivers\peripheral\ipc/cy_ipc_drv.h **** * \version 1.10.1
   4:Generated_Source\PSoC6\pdl\drivers\peripheral\ipc/cy_ipc_drv.h **** *
   5:Generated_Source\PSoC6\pdl\drivers\peripheral\ipc/cy_ipc_drv.h **** * Provides an API declaration of the IPC driver.
   6:Generated_Source\PSoC6\pdl\drivers\peripheral\ipc/cy_ipc_drv.h **** *
   7:Generated_Source\PSoC6\pdl\drivers\peripheral\ipc/cy_ipc_drv.h **** ********************************************************************************
   8:Generated_Source\PSoC6\pdl\drivers\peripheral\ipc/cy_ipc_drv.h **** * \copyright
   9:Generated_Source\PSoC6\pdl\drivers\peripheral\ipc/cy_ipc_drv.h **** * Copyright 2016-2018, Cypress Semiconductor Corporation. All rights reserved.
  10:Generated_Source\PSoC6\pdl\drivers\peripheral\ipc/cy_ipc_drv.h **** * You may use this file only in accordance with the license, terms, conditions,
  11:Generated_Source\PSoC6\pdl\drivers\peripheral\ipc/cy_ipc_drv.h **** * disclaimers, and limitations in the end user license agreement accompanying
  12:Generated_Source\PSoC6\pdl\drivers\peripheral\ipc/cy_ipc_drv.h **** * the software package with which this file was provided.
  13:Generated_Source\PSoC6\pdl\drivers\peripheral\ipc/cy_ipc_drv.h **** *******************************************************************************/
  14:Generated_Source\PSoC6\pdl\drivers\peripheral\ipc/cy_ipc_drv.h **** 
  15:Generated_Source\PSoC6\pdl\drivers\peripheral\ipc/cy_ipc_drv.h **** #ifndef CY_IPC_DRV_H
  16:Generated_Source\PSoC6\pdl\drivers\peripheral\ipc/cy_ipc_drv.h **** #define CY_IPC_DRV_H
  17:Generated_Source\PSoC6\pdl\drivers\peripheral\ipc/cy_ipc_drv.h **** 
  18:Generated_Source\PSoC6\pdl\drivers\peripheral\ipc/cy_ipc_drv.h **** 
  19:Generated_Source\PSoC6\pdl\drivers\peripheral\ipc/cy_ipc_drv.h **** /**
  20:Generated_Source\PSoC6\pdl\drivers\peripheral\ipc/cy_ipc_drv.h **** * \defgroup group_ipc Inter Process Communication (IPC)
  21:Generated_Source\PSoC6\pdl\drivers\peripheral\ipc/cy_ipc_drv.h **** * \{
  22:Generated_Source\PSoC6\pdl\drivers\peripheral\ipc/cy_ipc_drv.h **** * The inter-processor communication (IPC) driver provides a safe and reliable
  23:Generated_Source\PSoC6\pdl\drivers\peripheral\ipc/cy_ipc_drv.h **** * method to transfer data between CPUs. Hardware locking ensures that only one
  24:Generated_Source\PSoC6\pdl\drivers\peripheral\ipc/cy_ipc_drv.h **** * device can acquire and transfer data at a time so no data is lost or
  25:Generated_Source\PSoC6\pdl\drivers\peripheral\ipc/cy_ipc_drv.h **** * overwritten by asynchronous processes or CPUs.
  26:Generated_Source\PSoC6\pdl\drivers\peripheral\ipc/cy_ipc_drv.h **** *
  27:Generated_Source\PSoC6\pdl\drivers\peripheral\ipc/cy_ipc_drv.h **** * There are three parts to the API:
  28:Generated_Source\PSoC6\pdl\drivers\peripheral\ipc/cy_ipc_drv.h **** *     - Driver-level (DRV) API - used internally by Semaphore and Pipe levels
  29:Generated_Source\PSoC6\pdl\drivers\peripheral\ipc/cy_ipc_drv.h **** *     - Pipe-level (PIPE) API - establishes a communication channel between
  30:Generated_Source\PSoC6\pdl\drivers\peripheral\ipc/cy_ipc_drv.h **** *       processors
  31:Generated_Source\PSoC6\pdl\drivers\peripheral\ipc/cy_ipc_drv.h **** *     - Semaphore-level (SEMA) API - enables users to set and clear flags to
  32:Generated_Source\PSoC6\pdl\drivers\peripheral\ipc/cy_ipc_drv.h **** *       synchronize operations.
  33:Generated_Source\PSoC6\pdl\drivers\peripheral\ipc/cy_ipc_drv.h **** *
  34:Generated_Source\PSoC6\pdl\drivers\peripheral\ipc/cy_ipc_drv.h **** * Firmware does not need to use the DRV API. It can implement IPC functionality
  35:Generated_Source\PSoC6\pdl\drivers\peripheral\ipc/cy_ipc_drv.h **** * entirely with the PIPE and SEMA APIs.
  36:Generated_Source\PSoC6\pdl\drivers\peripheral\ipc/cy_ipc_drv.h **** *
  37:Generated_Source\PSoC6\pdl\drivers\peripheral\ipc/cy_ipc_drv.h **** * \section group_ipc_background Background
  38:Generated_Source\PSoC6\pdl\drivers\peripheral\ipc/cy_ipc_drv.h **** *
  39:Generated_Source\PSoC6\pdl\drivers\peripheral\ipc/cy_ipc_drv.h **** * IPC is implemented in hardware as a collection of individual communication
  40:Generated_Source\PSoC6\pdl\drivers\peripheral\ipc/cy_ipc_drv.h **** * channels, each with a set of 32-bit registers. The IPC design implements a set
  41:Generated_Source\PSoC6\pdl\drivers\peripheral\ipc/cy_ipc_drv.h **** * of interrupts that enable each processor to notify the other that data is
  42:Generated_Source\PSoC6\pdl\drivers\peripheral\ipc/cy_ipc_drv.h **** * available, or has been processed. There is also a locking mechanism that
  43:Generated_Source\PSoC6\pdl\drivers\peripheral\ipc/cy_ipc_drv.h **** * allows only one CPU to gain access at a time.
  44:Generated_Source\PSoC6\pdl\drivers\peripheral\ipc/cy_ipc_drv.h **** *
  45:Generated_Source\PSoC6\pdl\drivers\peripheral\ipc/cy_ipc_drv.h **** * The Driver-level API manages each channel's registers to implement IPC
ARM GAS  C:\Users\gjl\AppData\Local\Temp\ccCHEUhc.s 			page 7


  46:Generated_Source\PSoC6\pdl\drivers\peripheral\ipc/cy_ipc_drv.h **** * functionality. For information on the IPC registers, see the IPC chapter of
  47:Generated_Source\PSoC6\pdl\drivers\peripheral\ipc/cy_ipc_drv.h **** * the Technical Reference Manual (TRM).
  48:Generated_Source\PSoC6\pdl\drivers\peripheral\ipc/cy_ipc_drv.h **** *
  49:Generated_Source\PSoC6\pdl\drivers\peripheral\ipc/cy_ipc_drv.h **** * At the hardware level, communication is a five-step process.
  50:Generated_Source\PSoC6\pdl\drivers\peripheral\ipc/cy_ipc_drv.h **** *     -#  The sending processor acquires a channel
  51:Generated_Source\PSoC6\pdl\drivers\peripheral\ipc/cy_ipc_drv.h **** *     -#  It puts data into the channel
  52:Generated_Source\PSoC6\pdl\drivers\peripheral\ipc/cy_ipc_drv.h **** *     -#  The sender generates a notify event (interrupt)
  53:Generated_Source\PSoC6\pdl\drivers\peripheral\ipc/cy_ipc_drv.h **** *     -#  The receiving processor identifies the sender and retrieves the data
  54:Generated_Source\PSoC6\pdl\drivers\peripheral\ipc/cy_ipc_drv.h **** *     -#  The receiving processor generates a release event (interrupt)
  55:Generated_Source\PSoC6\pdl\drivers\peripheral\ipc/cy_ipc_drv.h **** *
  56:Generated_Source\PSoC6\pdl\drivers\peripheral\ipc/cy_ipc_drv.h **** * \image html ipc_driver.png
  57:Generated_Source\PSoC6\pdl\drivers\peripheral\ipc/cy_ipc_drv.h **** *
  58:Generated_Source\PSoC6\pdl\drivers\peripheral\ipc/cy_ipc_drv.h **** * These transactions are handled transparently by the DRV-level API. Use the
  59:Generated_Source\PSoC6\pdl\drivers\peripheral\ipc/cy_ipc_drv.h **** * PIPE and SEMA layers of the API to implement communication in your application.
  60:Generated_Source\PSoC6\pdl\drivers\peripheral\ipc/cy_ipc_drv.h **** * The data transferred is limited to a single 32-bit value. As implemented by
  61:Generated_Source\PSoC6\pdl\drivers\peripheral\ipc/cy_ipc_drv.h **** * the PIPE API, that value is a pointer to a data structure of arbitrary size
  62:Generated_Source\PSoC6\pdl\drivers\peripheral\ipc/cy_ipc_drv.h **** * and complexity.
  63:Generated_Source\PSoC6\pdl\drivers\peripheral\ipc/cy_ipc_drv.h **** *
  64:Generated_Source\PSoC6\pdl\drivers\peripheral\ipc/cy_ipc_drv.h **** * \section group_ipc_overview Overview
  65:Generated_Source\PSoC6\pdl\drivers\peripheral\ipc/cy_ipc_drv.h **** *
  66:Generated_Source\PSoC6\pdl\drivers\peripheral\ipc/cy_ipc_drv.h **** * The Pipe is the key element in the PDL design. A pipe is typically a
  67:Generated_Source\PSoC6\pdl\drivers\peripheral\ipc/cy_ipc_drv.h **** * full-duplex communication channel between CPU cores. A pipe allows a single
  68:Generated_Source\PSoC6\pdl\drivers\peripheral\ipc/cy_ipc_drv.h **** * conduit to transfer messages or data to and from multiple processes or CPUs.
  69:Generated_Source\PSoC6\pdl\drivers\peripheral\ipc/cy_ipc_drv.h **** *
  70:Generated_Source\PSoC6\pdl\drivers\peripheral\ipc/cy_ipc_drv.h **** * A pipe has two endpoints, one on each core. Each endpoint contains a dedicated
  71:Generated_Source\PSoC6\pdl\drivers\peripheral\ipc/cy_ipc_drv.h **** * IPC channel and an interrupt. IPC channels 0-7 and IPC interrupts 0-7 are
  72:Generated_Source\PSoC6\pdl\drivers\peripheral\ipc/cy_ipc_drv.h **** * reserved for system use.
  73:Generated_Source\PSoC6\pdl\drivers\peripheral\ipc/cy_ipc_drv.h **** *
  74:Generated_Source\PSoC6\pdl\drivers\peripheral\ipc/cy_ipc_drv.h **** * The pipe also contains the number of clients it supports, and for each client
  75:Generated_Source\PSoC6\pdl\drivers\peripheral\ipc/cy_ipc_drv.h **** * a callback function. So the pipe can service a number of clients, each with a
  76:Generated_Source\PSoC6\pdl\drivers\peripheral\ipc/cy_ipc_drv.h **** * separate callback function, on either endpoint. The number of clients a pipe
  77:Generated_Source\PSoC6\pdl\drivers\peripheral\ipc/cy_ipc_drv.h **** * supports is the sum of each endpoint's clients.
  78:Generated_Source\PSoC6\pdl\drivers\peripheral\ipc/cy_ipc_drv.h **** *
  79:Generated_Source\PSoC6\pdl\drivers\peripheral\ipc/cy_ipc_drv.h **** * This design enables any number of processes on the sending core to put
  80:Generated_Source\PSoC6\pdl\drivers\peripheral\ipc/cy_ipc_drv.h **** * arbitrary data into a single pipe. The first element of that data is the
  81:Generated_Source\PSoC6\pdl\drivers\peripheral\ipc/cy_ipc_drv.h **** * client ID of the client that should handle the data.
  82:Generated_Source\PSoC6\pdl\drivers\peripheral\ipc/cy_ipc_drv.h **** *
  83:Generated_Source\PSoC6\pdl\drivers\peripheral\ipc/cy_ipc_drv.h **** * An interrupt notifies the receiving core that data is available. The receiving
  84:Generated_Source\PSoC6\pdl\drivers\peripheral\ipc/cy_ipc_drv.h **** * core parses the data to identify the client, and then dispatches the event to
  85:Generated_Source\PSoC6\pdl\drivers\peripheral\ipc/cy_ipc_drv.h **** * the appropriate client via the client callback function. An interrupt notifies
  86:Generated_Source\PSoC6\pdl\drivers\peripheral\ipc/cy_ipc_drv.h **** * the sending core that the receiver is finished. In this way a single pipe can
  87:Generated_Source\PSoC6\pdl\drivers\peripheral\ipc/cy_ipc_drv.h **** * manage arbitrary data transfers between cores with data flowing in either
  88:Generated_Source\PSoC6\pdl\drivers\peripheral\ipc/cy_ipc_drv.h **** * direction.
  89:Generated_Source\PSoC6\pdl\drivers\peripheral\ipc/cy_ipc_drv.h **** *
  90:Generated_Source\PSoC6\pdl\drivers\peripheral\ipc/cy_ipc_drv.h **** * \image html ipc_ints.png
  91:Generated_Source\PSoC6\pdl\drivers\peripheral\ipc/cy_ipc_drv.h **** *
  92:Generated_Source\PSoC6\pdl\drivers\peripheral\ipc/cy_ipc_drv.h **** * The application can use semaphores to control access to shared resources, as
  93:Generated_Source\PSoC6\pdl\drivers\peripheral\ipc/cy_ipc_drv.h **** * required by the application's logic.
  94:Generated_Source\PSoC6\pdl\drivers\peripheral\ipc/cy_ipc_drv.h **** *
  95:Generated_Source\PSoC6\pdl\drivers\peripheral\ipc/cy_ipc_drv.h **** * The PDL provides two specific files that set up default IPC functionality.
  96:Generated_Source\PSoC6\pdl\drivers\peripheral\ipc/cy_ipc_drv.h **** * They are cy_ipc_config.h and cy_ipc_config.c. You can modify these files based
  97:Generated_Source\PSoC6\pdl\drivers\peripheral\ipc/cy_ipc_drv.h **** * on the requirements of your design. If you use PSoC Creator as a development
  98:Generated_Source\PSoC6\pdl\drivers\peripheral\ipc/cy_ipc_drv.h **** * environment, it will not overwrite your changes when you generate the
  99:Generated_Source\PSoC6\pdl\drivers\peripheral\ipc/cy_ipc_drv.h **** * application or build your code.
 100:Generated_Source\PSoC6\pdl\drivers\peripheral\ipc/cy_ipc_drv.h **** *
 101:Generated_Source\PSoC6\pdl\drivers\peripheral\ipc/cy_ipc_drv.h **** * \section group_ipc_pipe_layer PIPE layer
 102:Generated_Source\PSoC6\pdl\drivers\peripheral\ipc/cy_ipc_drv.h **** *
ARM GAS  C:\Users\gjl\AppData\Local\Temp\ccCHEUhc.s 			page 8


 103:Generated_Source\PSoC6\pdl\drivers\peripheral\ipc/cy_ipc_drv.h **** * A pipe is a communication channel between two endpoints. PSoC 6 devices support
 104:Generated_Source\PSoC6\pdl\drivers\peripheral\ipc/cy_ipc_drv.h **** * 16 IPC channels, and 16 IPC interrupts, each numbered 0-15. IPC Channels 0-7
 105:Generated_Source\PSoC6\pdl\drivers\peripheral\ipc/cy_ipc_drv.h **** * and IPC interrupts 0-7 are reserved for system use. Channels 8-15 and
 106:Generated_Source\PSoC6\pdl\drivers\peripheral\ipc/cy_ipc_drv.h **** * interrupts 8-15 are available for application use.
 107:Generated_Source\PSoC6\pdl\drivers\peripheral\ipc/cy_ipc_drv.h **** *
 108:Generated_Source\PSoC6\pdl\drivers\peripheral\ipc/cy_ipc_drv.h **** * A full duplex pipe uses two IPC channels, one per endpoint. Each endpoint
 109:Generated_Source\PSoC6\pdl\drivers\peripheral\ipc/cy_ipc_drv.h **** * specifies all the information required to process a message (either sent or
 110:Generated_Source\PSoC6\pdl\drivers\peripheral\ipc/cy_ipc_drv.h **** * received). Each endpoint is configured to use an IPC channel, and an IPC
 111:Generated_Source\PSoC6\pdl\drivers\peripheral\ipc/cy_ipc_drv.h **** * interrupt. Common practice is to use the interrupt with the same number as
 112:Generated_Source\PSoC6\pdl\drivers\peripheral\ipc/cy_ipc_drv.h **** * the IPC channel. However, IPC Interrupts are not directly associated with the
 113:Generated_Source\PSoC6\pdl\drivers\peripheral\ipc/cy_ipc_drv.h **** * IPC channels, so any channel can use any interrupt.  Any IPC channel can
 114:Generated_Source\PSoC6\pdl\drivers\peripheral\ipc/cy_ipc_drv.h **** * trigger 0, 1 or all the IPC interrupts at once, depending on the Notify or
 115:Generated_Source\PSoC6\pdl\drivers\peripheral\ipc/cy_ipc_drv.h **** * Release masks used.
 116:Generated_Source\PSoC6\pdl\drivers\peripheral\ipc/cy_ipc_drv.h **** *
 117:Generated_Source\PSoC6\pdl\drivers\peripheral\ipc/cy_ipc_drv.h **** * It is also possible to set up a one-directional pipe, using a single IPC
 118:Generated_Source\PSoC6\pdl\drivers\peripheral\ipc/cy_ipc_drv.h **** * channel. In this design one processor is always the sender, and the other is
 119:Generated_Source\PSoC6\pdl\drivers\peripheral\ipc/cy_ipc_drv.h **** * always the receiver. However, there are still two endpoints.
 120:Generated_Source\PSoC6\pdl\drivers\peripheral\ipc/cy_ipc_drv.h **** *
 121:Generated_Source\PSoC6\pdl\drivers\peripheral\ipc/cy_ipc_drv.h **** * A pipe supports an arbitrary number of clients with an array of callback
 122:Generated_Source\PSoC6\pdl\drivers\peripheral\ipc/cy_ipc_drv.h **** * functions, one per client. The client ID is the index number into the array
 123:Generated_Source\PSoC6\pdl\drivers\peripheral\ipc/cy_ipc_drv.h **** * for the client. After a pipe is configured and initialized, the application
 124:Generated_Source\PSoC6\pdl\drivers\peripheral\ipc/cy_ipc_drv.h **** * calls Cy_IPC_Pipe_RegisterCallback() once per client to register each client's
 125:Generated_Source\PSoC6\pdl\drivers\peripheral\ipc/cy_ipc_drv.h **** * callback function. Multiple clients can use the same callback function. The
 126:Generated_Source\PSoC6\pdl\drivers\peripheral\ipc/cy_ipc_drv.h **** * endpoints in a pipe share the callback array.
 127:Generated_Source\PSoC6\pdl\drivers\peripheral\ipc/cy_ipc_drv.h **** *
 128:Generated_Source\PSoC6\pdl\drivers\peripheral\ipc/cy_ipc_drv.h **** * Use Cy_IPC_Pipe_SendMessage() to send data. You specify both the "to" and
 129:Generated_Source\PSoC6\pdl\drivers\peripheral\ipc/cy_ipc_drv.h **** * "from" endpoints, and a callback function to be used when the data transfer is
 130:Generated_Source\PSoC6\pdl\drivers\peripheral\ipc/cy_ipc_drv.h **** * complete. The data is a 32-bit void pointer. The data pointed to is arbitrary,
 131:Generated_Source\PSoC6\pdl\drivers\peripheral\ipc/cy_ipc_drv.h **** * and can be an array, a structure, or a location in memory. The only limitation
 132:Generated_Source\PSoC6\pdl\drivers\peripheral\ipc/cy_ipc_drv.h **** * is that the first element of the data must be a 32-bit unsigned word containing
 133:Generated_Source\PSoC6\pdl\drivers\peripheral\ipc/cy_ipc_drv.h **** * a client ID number. The ID number is the index into the callback array.
 134:Generated_Source\PSoC6\pdl\drivers\peripheral\ipc/cy_ipc_drv.h **** *
 135:Generated_Source\PSoC6\pdl\drivers\peripheral\ipc/cy_ipc_drv.h **** * When a message is sent, the receiving endpoint's interrupt handler is called.
 136:Generated_Source\PSoC6\pdl\drivers\peripheral\ipc/cy_ipc_drv.h **** * The ISR can perform any task required by the design. However, as part of its
 137:Generated_Source\PSoC6\pdl\drivers\peripheral\ipc/cy_ipc_drv.h **** * function it calls \ref Cy_IPC_Pipe_ExecCallback. This function retrieves the
 138:Generated_Source\PSoC6\pdl\drivers\peripheral\ipc/cy_ipc_drv.h **** * client ID from the data and calls the associated callback function.
 139:Generated_Source\PSoC6\pdl\drivers\peripheral\ipc/cy_ipc_drv.h **** * The user-supplied callback function handles the data in whatever way is
 140:Generated_Source\PSoC6\pdl\drivers\peripheral\ipc/cy_ipc_drv.h **** * appropriate based on the application logic.
 141:Generated_Source\PSoC6\pdl\drivers\peripheral\ipc/cy_ipc_drv.h **** *
 142:Generated_Source\PSoC6\pdl\drivers\peripheral\ipc/cy_ipc_drv.h **** * After the callback function is returned by the receiver, it invokes the release
 143:Generated_Source\PSoC6\pdl\drivers\peripheral\ipc/cy_ipc_drv.h **** * callback function defined by the sender of the message.
 144:Generated_Source\PSoC6\pdl\drivers\peripheral\ipc/cy_ipc_drv.h **** *
 145:Generated_Source\PSoC6\pdl\drivers\peripheral\ipc/cy_ipc_drv.h **** * \section group_ipc_sema_layer SEMA Layer
 146:Generated_Source\PSoC6\pdl\drivers\peripheral\ipc/cy_ipc_drv.h **** *
 147:Generated_Source\PSoC6\pdl\drivers\peripheral\ipc/cy_ipc_drv.h **** * A semaphore is a flag the application uses to control access to a shared
 148:Generated_Source\PSoC6\pdl\drivers\peripheral\ipc/cy_ipc_drv.h **** * resource. The SEMA-level API uses an IPC channel to implement
 149:Generated_Source\PSoC6\pdl\drivers\peripheral\ipc/cy_ipc_drv.h **** * semaphores. Startup code sets up a default semaphore system. The
 150:Generated_Source\PSoC6\pdl\drivers\peripheral\ipc/cy_ipc_drv.h **** * default system creates an array of 128 semaphores (four 32-bit values).
 151:Generated_Source\PSoC6\pdl\drivers\peripheral\ipc/cy_ipc_drv.h **** * Semaphores 0-15 are reserved for system use. See
 152:Generated_Source\PSoC6\pdl\drivers\peripheral\ipc/cy_ipc_drv.h **** * Configuration Considerations - SEMA.
 153:Generated_Source\PSoC6\pdl\drivers\peripheral\ipc/cy_ipc_drv.h **** *
 154:Generated_Source\PSoC6\pdl\drivers\peripheral\ipc/cy_ipc_drv.h **** * Functions are available to initialize the semaphore system, to set or
 155:Generated_Source\PSoC6\pdl\drivers\peripheral\ipc/cy_ipc_drv.h **** * clear a semaphore, or to get the semaphore's current status. Application
 156:Generated_Source\PSoC6\pdl\drivers\peripheral\ipc/cy_ipc_drv.h **** * logic uses SEMA functions to relate a particular semaphore to a particular
 157:Generated_Source\PSoC6\pdl\drivers\peripheral\ipc/cy_ipc_drv.h **** * shared resource, and set, clear, or check the flag when accessing the
 158:Generated_Source\PSoC6\pdl\drivers\peripheral\ipc/cy_ipc_drv.h **** * shared resource.
 159:Generated_Source\PSoC6\pdl\drivers\peripheral\ipc/cy_ipc_drv.h **** *
ARM GAS  C:\Users\gjl\AppData\Local\Temp\ccCHEUhc.s 			page 9


 160:Generated_Source\PSoC6\pdl\drivers\peripheral\ipc/cy_ipc_drv.h **** * \section group_ipc_configuration_cypipe Configuration Considerations - CYPIPE
 161:Generated_Source\PSoC6\pdl\drivers\peripheral\ipc/cy_ipc_drv.h **** *
 162:Generated_Source\PSoC6\pdl\drivers\peripheral\ipc/cy_ipc_drv.h **** * There are none. The cy_ipc_config files set up the required CYPIPE for system
 163:Generated_Source\PSoC6\pdl\drivers\peripheral\ipc/cy_ipc_drv.h **** * use. Do not modify the CYPIPE. It uses IPC channels 5 and 6 to implement full
 164:Generated_Source\PSoC6\pdl\drivers\peripheral\ipc/cy_ipc_drv.h **** * duplex communication between cores. On the CM0+ the notify interrupt is
 165:Generated_Source\PSoC6\pdl\drivers\peripheral\ipc/cy_ipc_drv.h **** * assigned to NVIC IRQn 27. See System Interrupt (SysInt) for background.
 166:Generated_Source\PSoC6\pdl\drivers\peripheral\ipc/cy_ipc_drv.h **** *
 167:Generated_Source\PSoC6\pdl\drivers\peripheral\ipc/cy_ipc_drv.h **** * To create your own pipe you should make 3 steps:
 168:Generated_Source\PSoC6\pdl\drivers\peripheral\ipc/cy_ipc_drv.h **** *   -# Define pipe callbacks processing interrupt handler
 169:Generated_Source\PSoC6\pdl\drivers\peripheral\ipc/cy_ipc_drv.h **** *   -# Define your pipe configuration by cy_stc_ipc_pipe_config_t type structure
 170:Generated_Source\PSoC6\pdl\drivers\peripheral\ipc/cy_ipc_drv.h **** *   -# Call Cy_IPC_Pipe_Init() to initialize your pipe on both cores
 171:Generated_Source\PSoC6\pdl\drivers\peripheral\ipc/cy_ipc_drv.h **** *
 172:Generated_Source\PSoC6\pdl\drivers\peripheral\ipc/cy_ipc_drv.h **** * \section group_ipc_configuration_sema Configuration Considerations - SEMA
 173:Generated_Source\PSoC6\pdl\drivers\peripheral\ipc/cy_ipc_drv.h **** *
 174:Generated_Source\PSoC6\pdl\drivers\peripheral\ipc/cy_ipc_drv.h **** * Startup code calls Cy_IPC_SystemSemaInit() (in cy_ipc_config.c) to set up
 175:Generated_Source\PSoC6\pdl\drivers\peripheral\ipc/cy_ipc_drv.h **** * semaphore functionality. This function calls the PDL init function
 176:Generated_Source\PSoC6\pdl\drivers\peripheral\ipc/cy_ipc_drv.h **** * Cy_IPC_Sema_Init() with default values. By default the semaphore system
 177:Generated_Source\PSoC6\pdl\drivers\peripheral\ipc/cy_ipc_drv.h **** * uses IPC channel 4, and creates 128 semaphores. Do <b>not</b> change the IPC
 178:Generated_Source\PSoC6\pdl\drivers\peripheral\ipc/cy_ipc_drv.h **** * channel. You can change the number of semaphores.
 179:Generated_Source\PSoC6\pdl\drivers\peripheral\ipc/cy_ipc_drv.h **** *
 180:Generated_Source\PSoC6\pdl\drivers\peripheral\ipc/cy_ipc_drv.h **** * To change the number of semaphores, modify this line of code in cy_ipc_config.h.
 181:Generated_Source\PSoC6\pdl\drivers\peripheral\ipc/cy_ipc_drv.h **** *
 182:Generated_Source\PSoC6\pdl\drivers\peripheral\ipc/cy_ipc_drv.h **** * \code
 183:Generated_Source\PSoC6\pdl\drivers\peripheral\ipc/cy_ipc_drv.h **** * #define CY_IPC_SEMA_COUNT               (uint32_t)(128u)
 184:Generated_Source\PSoC6\pdl\drivers\peripheral\ipc/cy_ipc_drv.h **** * \endcode
 185:Generated_Source\PSoC6\pdl\drivers\peripheral\ipc/cy_ipc_drv.h **** *
 186:Generated_Source\PSoC6\pdl\drivers\peripheral\ipc/cy_ipc_drv.h **** * The file cy_ipc_config.c declares array ipcSemaArray to hold the semaphore
 187:Generated_Source\PSoC6\pdl\drivers\peripheral\ipc/cy_ipc_drv.h **** * flags based on the size defined for this symbol. Use increments of 32. You
 188:Generated_Source\PSoC6\pdl\drivers\peripheral\ipc/cy_ipc_drv.h **** * must have at least 32 semaphores. Semaphores 0-15 are reserved for
 189:Generated_Source\PSoC6\pdl\drivers\peripheral\ipc/cy_ipc_drv.h **** * system use. Your application can use semaphores greater than 15.
 190:Generated_Source\PSoC6\pdl\drivers\peripheral\ipc/cy_ipc_drv.h **** *
 191:Generated_Source\PSoC6\pdl\drivers\peripheral\ipc/cy_ipc_drv.h **** * \section group_ipc_more_information More Information
 192:Generated_Source\PSoC6\pdl\drivers\peripheral\ipc/cy_ipc_drv.h **** *
 193:Generated_Source\PSoC6\pdl\drivers\peripheral\ipc/cy_ipc_drv.h **** * Cy_IPC_SystemSemaInit() and Cy_IPC_SystemPipeInit() functions are called in the
 194:Generated_Source\PSoC6\pdl\drivers\peripheral\ipc/cy_ipc_drv.h **** * SystemInit function. If the default startup file is not used, or SystemInit is
 195:Generated_Source\PSoC6\pdl\drivers\peripheral\ipc/cy_ipc_drv.h **** * not called in your project, call the following three functions prior to
 196:Generated_Source\PSoC6\pdl\drivers\peripheral\ipc/cy_ipc_drv.h **** * executing any flash or EmEEPROM write or erase operation. For example:
 197:Generated_Source\PSoC6\pdl\drivers\peripheral\ipc/cy_ipc_drv.h **** *  -# Cy_IPC_SystemSemaInit()
 198:Generated_Source\PSoC6\pdl\drivers\peripheral\ipc/cy_ipc_drv.h **** *  -# Cy_IPC_SystemPipeInit()
 199:Generated_Source\PSoC6\pdl\drivers\peripheral\ipc/cy_ipc_drv.h **** *  -# Cy_Flash_Init()
 200:Generated_Source\PSoC6\pdl\drivers\peripheral\ipc/cy_ipc_drv.h **** *
 201:Generated_Source\PSoC6\pdl\drivers\peripheral\ipc/cy_ipc_drv.h **** * Also Cy_IPC_SystemPipeInit function is called to support BLE host/controller
 202:Generated_Source\PSoC6\pdl\drivers\peripheral\ipc/cy_ipc_drv.h **** * communication.
 203:Generated_Source\PSoC6\pdl\drivers\peripheral\ipc/cy_ipc_drv.h **** *
 204:Generated_Source\PSoC6\pdl\drivers\peripheral\ipc/cy_ipc_drv.h **** * See the technical reference manual(TRM) for more information on the IPC.
 205:Generated_Source\PSoC6\pdl\drivers\peripheral\ipc/cy_ipc_drv.h **** *
 206:Generated_Source\PSoC6\pdl\drivers\peripheral\ipc/cy_ipc_drv.h **** * \section group_ipc_MISRA MISRA-C Compliance
 207:Generated_Source\PSoC6\pdl\drivers\peripheral\ipc/cy_ipc_drv.h **** *
 208:Generated_Source\PSoC6\pdl\drivers\peripheral\ipc/cy_ipc_drv.h **** * <table class="doxtable">
 209:Generated_Source\PSoC6\pdl\drivers\peripheral\ipc/cy_ipc_drv.h **** *   <tr>
 210:Generated_Source\PSoC6\pdl\drivers\peripheral\ipc/cy_ipc_drv.h **** *     <th>MISRA Rule</th>
 211:Generated_Source\PSoC6\pdl\drivers\peripheral\ipc/cy_ipc_drv.h **** *     <th>Rule Class (Required/Advisory)</th>
 212:Generated_Source\PSoC6\pdl\drivers\peripheral\ipc/cy_ipc_drv.h **** *     <th>Rule Description</th>
 213:Generated_Source\PSoC6\pdl\drivers\peripheral\ipc/cy_ipc_drv.h **** *     <th style="width: 50%;">Description of Deviation(s)</th>
 214:Generated_Source\PSoC6\pdl\drivers\peripheral\ipc/cy_ipc_drv.h **** *   </tr>
 215:Generated_Source\PSoC6\pdl\drivers\peripheral\ipc/cy_ipc_drv.h **** *   <tr>
 216:Generated_Source\PSoC6\pdl\drivers\peripheral\ipc/cy_ipc_drv.h **** *     <td>10.3</td>
ARM GAS  C:\Users\gjl\AppData\Local\Temp\ccCHEUhc.s 			page 10


 217:Generated_Source\PSoC6\pdl\drivers\peripheral\ipc/cy_ipc_drv.h **** *     <td>R</td>
 218:Generated_Source\PSoC6\pdl\drivers\peripheral\ipc/cy_ipc_drv.h **** *     <td>The value of a complex expression of integer type shall be cast
 219:Generated_Source\PSoC6\pdl\drivers\peripheral\ipc/cy_ipc_drv.h **** *         only to a type of the same signedness that is no wider than the underlying
 220:Generated_Source\PSoC6\pdl\drivers\peripheral\ipc/cy_ipc_drv.h **** *         type of the expression.</td>
 221:Generated_Source\PSoC6\pdl\drivers\peripheral\ipc/cy_ipc_drv.h **** *     <td>The cast from integer to enumeration value is used to calculate
 222:Generated_Source\PSoC6\pdl\drivers\peripheral\ipc/cy_ipc_drv.h **** *         the interrupt vector source from the integer number of the IPC interrupt
 223:Generated_Source\PSoC6\pdl\drivers\peripheral\ipc/cy_ipc_drv.h **** *         structure, so there is no way to avoid this cast.</td>
 224:Generated_Source\PSoC6\pdl\drivers\peripheral\ipc/cy_ipc_drv.h **** *   </tr>
 225:Generated_Source\PSoC6\pdl\drivers\peripheral\ipc/cy_ipc_drv.h **** *   <tr>
 226:Generated_Source\PSoC6\pdl\drivers\peripheral\ipc/cy_ipc_drv.h **** *     <td>11.4</td>
 227:Generated_Source\PSoC6\pdl\drivers\peripheral\ipc/cy_ipc_drv.h **** *     <td>A</td>
 228:Generated_Source\PSoC6\pdl\drivers\peripheral\ipc/cy_ipc_drv.h **** *     <td>A cast should not be performed between a pointer to the void to a
 229:Generated_Source\PSoC6\pdl\drivers\peripheral\ipc/cy_ipc_drv.h **** *         pointer to the object type.</td>
 230:Generated_Source\PSoC6\pdl\drivers\peripheral\ipc/cy_ipc_drv.h **** *     <td>The cast from the void to pointer and vice versa is used to transmit
 231:Generated_Source\PSoC6\pdl\drivers\peripheral\ipc/cy_ipc_drv.h **** *         data via the \ref group_ipc channel by exchanging the pointer. We
 232:Generated_Source\PSoC6\pdl\drivers\peripheral\ipc/cy_ipc_drv.h **** *         exchange only one pointer, so there is no way to avoid this cast.</td>
 233:Generated_Source\PSoC6\pdl\drivers\peripheral\ipc/cy_ipc_drv.h **** *   </tr>
 234:Generated_Source\PSoC6\pdl\drivers\peripheral\ipc/cy_ipc_drv.h **** * </table>
 235:Generated_Source\PSoC6\pdl\drivers\peripheral\ipc/cy_ipc_drv.h **** *
 236:Generated_Source\PSoC6\pdl\drivers\peripheral\ipc/cy_ipc_drv.h **** * \section group_ipc_changelog Changelog
 237:Generated_Source\PSoC6\pdl\drivers\peripheral\ipc/cy_ipc_drv.h **** *
 238:Generated_Source\PSoC6\pdl\drivers\peripheral\ipc/cy_ipc_drv.h **** * <table class="doxtable">
 239:Generated_Source\PSoC6\pdl\drivers\peripheral\ipc/cy_ipc_drv.h **** *   <tr><th>Version</th><th>Changes</th><th>Reason for Change</th></tr>
 240:Generated_Source\PSoC6\pdl\drivers\peripheral\ipc/cy_ipc_drv.h **** *   <tr>
 241:Generated_Source\PSoC6\pdl\drivers\peripheral\ipc/cy_ipc_drv.h **** *     <td>1.10.1</td>
 242:Generated_Source\PSoC6\pdl\drivers\peripheral\ipc/cy_ipc_drv.h **** *     <td>Updated description of the \ref Cy_IPC_Pipe_Init,  
 243:Generated_Source\PSoC6\pdl\drivers\peripheral\ipc/cy_ipc_drv.h **** *         \ref Cy_IPC_Pipe_EndpointInit, \ref Cy_IPC_Sema_Set functions.
 244:Generated_Source\PSoC6\pdl\drivers\peripheral\ipc/cy_ipc_drv.h **** *         Added / updated code snippets.
 245:Generated_Source\PSoC6\pdl\drivers\peripheral\ipc/cy_ipc_drv.h **** *     </td>
 246:Generated_Source\PSoC6\pdl\drivers\peripheral\ipc/cy_ipc_drv.h **** *     <td>Documentation update and clarification</td>
 247:Generated_Source\PSoC6\pdl\drivers\peripheral\ipc/cy_ipc_drv.h **** *   </tr>
 248:Generated_Source\PSoC6\pdl\drivers\peripheral\ipc/cy_ipc_drv.h **** *   <tr>
 249:Generated_Source\PSoC6\pdl\drivers\peripheral\ipc/cy_ipc_drv.h **** *     <td>1.10</td>
 250:Generated_Source\PSoC6\pdl\drivers\peripheral\ipc/cy_ipc_drv.h **** *     <td>Added support for more IPC structures</td>
 251:Generated_Source\PSoC6\pdl\drivers\peripheral\ipc/cy_ipc_drv.h **** *     <td>New device support</td>
 252:Generated_Source\PSoC6\pdl\drivers\peripheral\ipc/cy_ipc_drv.h **** *   </tr>
 253:Generated_Source\PSoC6\pdl\drivers\peripheral\ipc/cy_ipc_drv.h **** *   <tr>
 254:Generated_Source\PSoC6\pdl\drivers\peripheral\ipc/cy_ipc_drv.h **** *     <td>1.0</td>
 255:Generated_Source\PSoC6\pdl\drivers\peripheral\ipc/cy_ipc_drv.h **** *     <td>Initial version</td>
 256:Generated_Source\PSoC6\pdl\drivers\peripheral\ipc/cy_ipc_drv.h **** *     <td></td>
 257:Generated_Source\PSoC6\pdl\drivers\peripheral\ipc/cy_ipc_drv.h **** *   </tr>
 258:Generated_Source\PSoC6\pdl\drivers\peripheral\ipc/cy_ipc_drv.h **** * </table>
 259:Generated_Source\PSoC6\pdl\drivers\peripheral\ipc/cy_ipc_drv.h **** *
 260:Generated_Source\PSoC6\pdl\drivers\peripheral\ipc/cy_ipc_drv.h **** * \defgroup group_ipc_drv IPC driver layer (IPC_DRV)
 261:Generated_Source\PSoC6\pdl\drivers\peripheral\ipc/cy_ipc_drv.h **** * \{
 262:Generated_Source\PSoC6\pdl\drivers\peripheral\ipc/cy_ipc_drv.h **** *   The functions of this layer are used in the higher IPC levels
 263:Generated_Source\PSoC6\pdl\drivers\peripheral\ipc/cy_ipc_drv.h **** *   (Semaphores and Pipes).
 264:Generated_Source\PSoC6\pdl\drivers\peripheral\ipc/cy_ipc_drv.h **** *   Users should not call any of these IPC functions directly.
 265:Generated_Source\PSoC6\pdl\drivers\peripheral\ipc/cy_ipc_drv.h **** *
 266:Generated_Source\PSoC6\pdl\drivers\peripheral\ipc/cy_ipc_drv.h **** *   \defgroup group_ipc_macros Macros
 267:Generated_Source\PSoC6\pdl\drivers\peripheral\ipc/cy_ipc_drv.h **** *       Macro definitions are used in the driver
 268:Generated_Source\PSoC6\pdl\drivers\peripheral\ipc/cy_ipc_drv.h **** *
 269:Generated_Source\PSoC6\pdl\drivers\peripheral\ipc/cy_ipc_drv.h **** *   \defgroup group_ipc_functions Functions
 270:Generated_Source\PSoC6\pdl\drivers\peripheral\ipc/cy_ipc_drv.h **** *       Functions are used in the driver
 271:Generated_Source\PSoC6\pdl\drivers\peripheral\ipc/cy_ipc_drv.h **** *
 272:Generated_Source\PSoC6\pdl\drivers\peripheral\ipc/cy_ipc_drv.h **** *   \defgroup group_ipc_data_structures Data Structures
 273:Generated_Source\PSoC6\pdl\drivers\peripheral\ipc/cy_ipc_drv.h **** *       Data structures are used in the driver
ARM GAS  C:\Users\gjl\AppData\Local\Temp\ccCHEUhc.s 			page 11


 274:Generated_Source\PSoC6\pdl\drivers\peripheral\ipc/cy_ipc_drv.h **** *
 275:Generated_Source\PSoC6\pdl\drivers\peripheral\ipc/cy_ipc_drv.h **** *   \defgroup group_ipc_enums Enumerated Types
 276:Generated_Source\PSoC6\pdl\drivers\peripheral\ipc/cy_ipc_drv.h **** *       Enumerations are used in the driver
 277:Generated_Source\PSoC6\pdl\drivers\peripheral\ipc/cy_ipc_drv.h **** * \}
 278:Generated_Source\PSoC6\pdl\drivers\peripheral\ipc/cy_ipc_drv.h **** *
 279:Generated_Source\PSoC6\pdl\drivers\peripheral\ipc/cy_ipc_drv.h **** * \defgroup group_ipc_sema IPC semaphores layer (IPC_SEMA)
 280:Generated_Source\PSoC6\pdl\drivers\peripheral\ipc/cy_ipc_drv.h **** * \defgroup group_ipc_pipe IPC pipes layer (IPC_PIPE)
 281:Generated_Source\PSoC6\pdl\drivers\peripheral\ipc/cy_ipc_drv.h **** *
 282:Generated_Source\PSoC6\pdl\drivers\peripheral\ipc/cy_ipc_drv.h **** */
 283:Generated_Source\PSoC6\pdl\drivers\peripheral\ipc/cy_ipc_drv.h **** 
 284:Generated_Source\PSoC6\pdl\drivers\peripheral\ipc/cy_ipc_drv.h **** /******************************************************************************/
 285:Generated_Source\PSoC6\pdl\drivers\peripheral\ipc/cy_ipc_drv.h **** /* Include files                                                              */
 286:Generated_Source\PSoC6\pdl\drivers\peripheral\ipc/cy_ipc_drv.h **** /******************************************************************************/
 287:Generated_Source\PSoC6\pdl\drivers\peripheral\ipc/cy_ipc_drv.h **** #include "syslib/cy_syslib.h"
 288:Generated_Source\PSoC6\pdl\drivers\peripheral\ipc/cy_ipc_drv.h **** #include "cy_device_headers.h"
 289:Generated_Source\PSoC6\pdl\drivers\peripheral\ipc/cy_ipc_drv.h **** #include "cy_ipc_config.h"
 290:Generated_Source\PSoC6\pdl\drivers\peripheral\ipc/cy_ipc_drv.h **** #include <stddef.h>
 291:Generated_Source\PSoC6\pdl\drivers\peripheral\ipc/cy_ipc_drv.h **** 
 292:Generated_Source\PSoC6\pdl\drivers\peripheral\ipc/cy_ipc_drv.h **** /**
 293:Generated_Source\PSoC6\pdl\drivers\peripheral\ipc/cy_ipc_drv.h **** * \addtogroup group_ipc_macros
 294:Generated_Source\PSoC6\pdl\drivers\peripheral\ipc/cy_ipc_drv.h **** * \{
 295:Generated_Source\PSoC6\pdl\drivers\peripheral\ipc/cy_ipc_drv.h **** */
 296:Generated_Source\PSoC6\pdl\drivers\peripheral\ipc/cy_ipc_drv.h **** 
 297:Generated_Source\PSoC6\pdl\drivers\peripheral\ipc/cy_ipc_drv.h **** /** Driver major version */
 298:Generated_Source\PSoC6\pdl\drivers\peripheral\ipc/cy_ipc_drv.h **** #define CY_IPC_DRV_VERSION_MAJOR       1
 299:Generated_Source\PSoC6\pdl\drivers\peripheral\ipc/cy_ipc_drv.h **** 
 300:Generated_Source\PSoC6\pdl\drivers\peripheral\ipc/cy_ipc_drv.h **** /** Driver minor version */
 301:Generated_Source\PSoC6\pdl\drivers\peripheral\ipc/cy_ipc_drv.h **** #define CY_IPC_DRV_VERSION_MINOR       10
 302:Generated_Source\PSoC6\pdl\drivers\peripheral\ipc/cy_ipc_drv.h **** 
 303:Generated_Source\PSoC6\pdl\drivers\peripheral\ipc/cy_ipc_drv.h **** /** Defines a value to indicate that no notification events are needed */
 304:Generated_Source\PSoC6\pdl\drivers\peripheral\ipc/cy_ipc_drv.h **** #define CY_IPC_NO_NOTIFICATION         (uint32_t)(0x00000000ul)
 305:Generated_Source\PSoC6\pdl\drivers\peripheral\ipc/cy_ipc_drv.h **** 
 306:Generated_Source\PSoC6\pdl\drivers\peripheral\ipc/cy_ipc_drv.h **** /* Error Code constants */
 307:Generated_Source\PSoC6\pdl\drivers\peripheral\ipc/cy_ipc_drv.h **** #define CY_IPC_ID CY_PDL_DRV_ID(0x22u)  /**< Software PDL driver ID for IPC */
 308:Generated_Source\PSoC6\pdl\drivers\peripheral\ipc/cy_ipc_drv.h **** 
 309:Generated_Source\PSoC6\pdl\drivers\peripheral\ipc/cy_ipc_drv.h **** /** Return prefix for IPC driver function status codes */
 310:Generated_Source\PSoC6\pdl\drivers\peripheral\ipc/cy_ipc_drv.h **** #define CY_IPC_ID_INFO    (uint32_t)( CY_IPC_ID | CY_PDL_STATUS_INFO )
 311:Generated_Source\PSoC6\pdl\drivers\peripheral\ipc/cy_ipc_drv.h **** /** Return prefix for IPC driver function warning return values */
 312:Generated_Source\PSoC6\pdl\drivers\peripheral\ipc/cy_ipc_drv.h **** #define CY_IPC_ID_WARNING (uint32_t)( CY_IPC_ID | CY_PDL_STATUS_WARNING)
 313:Generated_Source\PSoC6\pdl\drivers\peripheral\ipc/cy_ipc_drv.h **** /** Return prefix for IPC driver function error return values */
 314:Generated_Source\PSoC6\pdl\drivers\peripheral\ipc/cy_ipc_drv.h **** #define CY_IPC_ID_ERROR   (uint32_t)( CY_IPC_ID | CY_PDL_STATUS_ERROR)
 315:Generated_Source\PSoC6\pdl\drivers\peripheral\ipc/cy_ipc_drv.h **** 
 316:Generated_Source\PSoC6\pdl\drivers\peripheral\ipc/cy_ipc_drv.h **** /** Converts the IPC interrupt channel number to interrupt vector */
 317:Generated_Source\PSoC6\pdl\drivers\peripheral\ipc/cy_ipc_drv.h **** #define CY_IPC_INTR_NUM_TO_VECT(x)         ((int32_t)cpuss_interrupts_ipc_0_IRQn + (x))
 318:Generated_Source\PSoC6\pdl\drivers\peripheral\ipc/cy_ipc_drv.h **** 
 319:Generated_Source\PSoC6\pdl\drivers\peripheral\ipc/cy_ipc_drv.h **** /** \} group_ipc_macros */
 320:Generated_Source\PSoC6\pdl\drivers\peripheral\ipc/cy_ipc_drv.h **** 
 321:Generated_Source\PSoC6\pdl\drivers\peripheral\ipc/cy_ipc_drv.h **** /* end of definition in device.h */
 322:Generated_Source\PSoC6\pdl\drivers\peripheral\ipc/cy_ipc_drv.h **** 
 323:Generated_Source\PSoC6\pdl\drivers\peripheral\ipc/cy_ipc_drv.h **** 
 324:Generated_Source\PSoC6\pdl\drivers\peripheral\ipc/cy_ipc_drv.h **** /**
 325:Generated_Source\PSoC6\pdl\drivers\peripheral\ipc/cy_ipc_drv.h **** * \addtogroup group_ipc_enums
 326:Generated_Source\PSoC6\pdl\drivers\peripheral\ipc/cy_ipc_drv.h **** * \{
 327:Generated_Source\PSoC6\pdl\drivers\peripheral\ipc/cy_ipc_drv.h **** */
 328:Generated_Source\PSoC6\pdl\drivers\peripheral\ipc/cy_ipc_drv.h **** 
 329:Generated_Source\PSoC6\pdl\drivers\peripheral\ipc/cy_ipc_drv.h **** /**
 330:Generated_Source\PSoC6\pdl\drivers\peripheral\ipc/cy_ipc_drv.h **** * This is a list of ENUMs used for function return status.
ARM GAS  C:\Users\gjl\AppData\Local\Temp\ccCHEUhc.s 			page 12


 331:Generated_Source\PSoC6\pdl\drivers\peripheral\ipc/cy_ipc_drv.h **** */
 332:Generated_Source\PSoC6\pdl\drivers\peripheral\ipc/cy_ipc_drv.h **** typedef enum
 333:Generated_Source\PSoC6\pdl\drivers\peripheral\ipc/cy_ipc_drv.h **** {
 334:Generated_Source\PSoC6\pdl\drivers\peripheral\ipc/cy_ipc_drv.h ****     /** Function was successfully executed */
 335:Generated_Source\PSoC6\pdl\drivers\peripheral\ipc/cy_ipc_drv.h ****     CY_IPC_DRV_SUCCESS      = (0x00u),
 336:Generated_Source\PSoC6\pdl\drivers\peripheral\ipc/cy_ipc_drv.h ****     /** Function was not executed due to an error.
 337:Generated_Source\PSoC6\pdl\drivers\peripheral\ipc/cy_ipc_drv.h ****         Typical conditions for the error explained
 338:Generated_Source\PSoC6\pdl\drivers\peripheral\ipc/cy_ipc_drv.h ****         in the function description */
 339:Generated_Source\PSoC6\pdl\drivers\peripheral\ipc/cy_ipc_drv.h ****     CY_IPC_DRV_ERROR        = ( CY_IPC_ID_ERROR + 1ul),
 340:Generated_Source\PSoC6\pdl\drivers\peripheral\ipc/cy_ipc_drv.h **** } cy_en_ipcdrv_status_t;
 341:Generated_Source\PSoC6\pdl\drivers\peripheral\ipc/cy_ipc_drv.h **** 
 342:Generated_Source\PSoC6\pdl\drivers\peripheral\ipc/cy_ipc_drv.h **** /** \} group_ipc_enums */
 343:Generated_Source\PSoC6\pdl\drivers\peripheral\ipc/cy_ipc_drv.h **** 
 344:Generated_Source\PSoC6\pdl\drivers\peripheral\ipc/cy_ipc_drv.h **** 
 345:Generated_Source\PSoC6\pdl\drivers\peripheral\ipc/cy_ipc_drv.h **** #ifdef __cplusplus
 346:Generated_Source\PSoC6\pdl\drivers\peripheral\ipc/cy_ipc_drv.h **** extern "C" {
 347:Generated_Source\PSoC6\pdl\drivers\peripheral\ipc/cy_ipc_drv.h **** #endif
 348:Generated_Source\PSoC6\pdl\drivers\peripheral\ipc/cy_ipc_drv.h **** 
 349:Generated_Source\PSoC6\pdl\drivers\peripheral\ipc/cy_ipc_drv.h **** /** \cond INTERNAL */
 350:Generated_Source\PSoC6\pdl\drivers\peripheral\ipc/cy_ipc_drv.h **** 
 351:Generated_Source\PSoC6\pdl\drivers\peripheral\ipc/cy_ipc_drv.h **** __STATIC_INLINE void     Cy_IPC_Drv_WriteDataValue (IPC_STRUCT_Type* base, uint32_t dataValue);
 352:Generated_Source\PSoC6\pdl\drivers\peripheral\ipc/cy_ipc_drv.h **** __STATIC_INLINE uint32_t Cy_IPC_Drv_ReadDataValue (IPC_STRUCT_Type const * base);
 353:Generated_Source\PSoC6\pdl\drivers\peripheral\ipc/cy_ipc_drv.h **** 
 354:Generated_Source\PSoC6\pdl\drivers\peripheral\ipc/cy_ipc_drv.h **** __STATIC_INLINE uint32_t Cy_IPC_Drv_ExtractAcquireMask (uint32_t intMask);
 355:Generated_Source\PSoC6\pdl\drivers\peripheral\ipc/cy_ipc_drv.h **** __STATIC_INLINE uint32_t Cy_IPC_Drv_ExtractReleaseMask (uint32_t intMask);
 356:Generated_Source\PSoC6\pdl\drivers\peripheral\ipc/cy_ipc_drv.h **** 
 357:Generated_Source\PSoC6\pdl\drivers\peripheral\ipc/cy_ipc_drv.h **** /** \endcond */
 358:Generated_Source\PSoC6\pdl\drivers\peripheral\ipc/cy_ipc_drv.h **** 
 359:Generated_Source\PSoC6\pdl\drivers\peripheral\ipc/cy_ipc_drv.h **** /**
 360:Generated_Source\PSoC6\pdl\drivers\peripheral\ipc/cy_ipc_drv.h **** * \addtogroup group_ipc_functions
 361:Generated_Source\PSoC6\pdl\drivers\peripheral\ipc/cy_ipc_drv.h **** * \{
 362:Generated_Source\PSoC6\pdl\drivers\peripheral\ipc/cy_ipc_drv.h **** */
 363:Generated_Source\PSoC6\pdl\drivers\peripheral\ipc/cy_ipc_drv.h **** 
 364:Generated_Source\PSoC6\pdl\drivers\peripheral\ipc/cy_ipc_drv.h **** __STATIC_INLINE IPC_STRUCT_Type*       Cy_IPC_Drv_GetIpcBaseAddress (uint32_t ipcIndex);
 365:Generated_Source\PSoC6\pdl\drivers\peripheral\ipc/cy_ipc_drv.h **** __STATIC_INLINE IPC_INTR_STRUCT_Type*  Cy_IPC_Drv_GetIntrBaseAddr (uint32_t ipcIntrIndex);
 366:Generated_Source\PSoC6\pdl\drivers\peripheral\ipc/cy_ipc_drv.h **** 
 367:Generated_Source\PSoC6\pdl\drivers\peripheral\ipc/cy_ipc_drv.h **** __STATIC_INLINE void     Cy_IPC_Drv_AcquireNotify (IPC_STRUCT_Type * base, uint32_t notifyEventIntr
 368:Generated_Source\PSoC6\pdl\drivers\peripheral\ipc/cy_ipc_drv.h **** __STATIC_INLINE void     Cy_IPC_Drv_ReleaseNotify (IPC_STRUCT_Type * base, uint32_t notifyEventIntr
 369:Generated_Source\PSoC6\pdl\drivers\peripheral\ipc/cy_ipc_drv.h **** 
 370:Generated_Source\PSoC6\pdl\drivers\peripheral\ipc/cy_ipc_drv.h **** __STATIC_INLINE  cy_en_ipcdrv_status_t Cy_IPC_Drv_LockAcquire (IPC_STRUCT_Type const * base);
 371:Generated_Source\PSoC6\pdl\drivers\peripheral\ipc/cy_ipc_drv.h **** cy_en_ipcdrv_status_t    Cy_IPC_Drv_LockRelease (IPC_STRUCT_Type * base, uint32_t releaseEventIntr)
 372:Generated_Source\PSoC6\pdl\drivers\peripheral\ipc/cy_ipc_drv.h **** __STATIC_INLINE bool     Cy_IPC_Drv_IsLockAcquired (IPC_STRUCT_Type const * base);
 373:Generated_Source\PSoC6\pdl\drivers\peripheral\ipc/cy_ipc_drv.h **** __STATIC_INLINE uint32_t Cy_IPC_Drv_GetLockStatus (IPC_STRUCT_Type const * base);
 374:Generated_Source\PSoC6\pdl\drivers\peripheral\ipc/cy_ipc_drv.h **** 
 375:Generated_Source\PSoC6\pdl\drivers\peripheral\ipc/cy_ipc_drv.h **** cy_en_ipcdrv_status_t    Cy_IPC_Drv_SendMsgWord (IPC_STRUCT_Type * base, uint32_t notifyEventIntr, 
 376:Generated_Source\PSoC6\pdl\drivers\peripheral\ipc/cy_ipc_drv.h **** cy_en_ipcdrv_status_t    Cy_IPC_Drv_ReadMsgWord (IPC_STRUCT_Type const * base, uint32_t * message);
 377:Generated_Source\PSoC6\pdl\drivers\peripheral\ipc/cy_ipc_drv.h **** __STATIC_INLINE cy_en_ipcdrv_status_t Cy_IPC_Drv_SendMsgPtr (IPC_STRUCT_Type* base, uint32_t notify
 378:Generated_Source\PSoC6\pdl\drivers\peripheral\ipc/cy_ipc_drv.h **** __STATIC_INLINE cy_en_ipcdrv_status_t Cy_IPC_Drv_ReadMsgPtr (IPC_STRUCT_Type const * base, void ** 
 379:Generated_Source\PSoC6\pdl\drivers\peripheral\ipc/cy_ipc_drv.h **** 
 380:Generated_Source\PSoC6\pdl\drivers\peripheral\ipc/cy_ipc_drv.h **** __STATIC_INLINE void     Cy_IPC_Drv_SetInterruptMask (IPC_INTR_STRUCT_Type * base,
 381:Generated_Source\PSoC6\pdl\drivers\peripheral\ipc/cy_ipc_drv.h ****                                                       uint32_t ipcReleaseMask, uint32_t ipcNotifyMa
 382:Generated_Source\PSoC6\pdl\drivers\peripheral\ipc/cy_ipc_drv.h **** __STATIC_INLINE uint32_t Cy_IPC_Drv_GetInterruptMask (IPC_INTR_STRUCT_Type const * base);
 383:Generated_Source\PSoC6\pdl\drivers\peripheral\ipc/cy_ipc_drv.h **** __STATIC_INLINE uint32_t Cy_IPC_Drv_GetInterruptStatusMasked (IPC_INTR_STRUCT_Type const * base);
 384:Generated_Source\PSoC6\pdl\drivers\peripheral\ipc/cy_ipc_drv.h **** __STATIC_INLINE uint32_t Cy_IPC_Drv_GetInterruptStatus (IPC_INTR_STRUCT_Type const * base);
 385:Generated_Source\PSoC6\pdl\drivers\peripheral\ipc/cy_ipc_drv.h **** __STATIC_INLINE void     Cy_IPC_Drv_SetInterrupt (IPC_INTR_STRUCT_Type * base,
 386:Generated_Source\PSoC6\pdl\drivers\peripheral\ipc/cy_ipc_drv.h ****                                                       uint32_t ipcReleaseMask, uint32_t ipcNotifyMa
 387:Generated_Source\PSoC6\pdl\drivers\peripheral\ipc/cy_ipc_drv.h **** __STATIC_INLINE void     Cy_IPC_Drv_ClearInterrupt (IPC_INTR_STRUCT_Type * base,
ARM GAS  C:\Users\gjl\AppData\Local\Temp\ccCHEUhc.s 			page 13


 388:Generated_Source\PSoC6\pdl\drivers\peripheral\ipc/cy_ipc_drv.h ****                                                       uint32_t ipcReleaseMask, uint32_t ipcNotifyMa
 389:Generated_Source\PSoC6\pdl\drivers\peripheral\ipc/cy_ipc_drv.h **** 
 390:Generated_Source\PSoC6\pdl\drivers\peripheral\ipc/cy_ipc_drv.h **** /*******************************************************************************
 391:Generated_Source\PSoC6\pdl\drivers\peripheral\ipc/cy_ipc_drv.h **** * Function Name: Cy_IPC_Drv_GetIpcBaseAddress
 392:Generated_Source\PSoC6\pdl\drivers\peripheral\ipc/cy_ipc_drv.h **** ****************************************************************************//**
 393:Generated_Source\PSoC6\pdl\drivers\peripheral\ipc/cy_ipc_drv.h **** *
 394:Generated_Source\PSoC6\pdl\drivers\peripheral\ipc/cy_ipc_drv.h **** * This function takes an IPC channel index as a parameter and returns the base
 395:Generated_Source\PSoC6\pdl\drivers\peripheral\ipc/cy_ipc_drv.h **** * address the IPC registers corresponding to the IPC channel.
 396:Generated_Source\PSoC6\pdl\drivers\peripheral\ipc/cy_ipc_drv.h **** *
 397:Generated_Source\PSoC6\pdl\drivers\peripheral\ipc/cy_ipc_drv.h **** * \note The user is responsible for ensuring that ipcIndex does not exceed the
 398:Generated_Source\PSoC6\pdl\drivers\peripheral\ipc/cy_ipc_drv.h **** * limits.
 399:Generated_Source\PSoC6\pdl\drivers\peripheral\ipc/cy_ipc_drv.h **** *
 400:Generated_Source\PSoC6\pdl\drivers\peripheral\ipc/cy_ipc_drv.h **** * \param ipcIndex
 401:Generated_Source\PSoC6\pdl\drivers\peripheral\ipc/cy_ipc_drv.h **** * Represents the number of IPC structure. This is converted to the base address of
 402:Generated_Source\PSoC6\pdl\drivers\peripheral\ipc/cy_ipc_drv.h **** * the IPC channel registers.
 403:Generated_Source\PSoC6\pdl\drivers\peripheral\ipc/cy_ipc_drv.h **** *
 404:Generated_Source\PSoC6\pdl\drivers\peripheral\ipc/cy_ipc_drv.h **** * \return
 405:Generated_Source\PSoC6\pdl\drivers\peripheral\ipc/cy_ipc_drv.h **** * Returns a pointer to the base of the IPC registers.
 406:Generated_Source\PSoC6\pdl\drivers\peripheral\ipc/cy_ipc_drv.h **** *
 407:Generated_Source\PSoC6\pdl\drivers\peripheral\ipc/cy_ipc_drv.h **** * \funcusage
 408:Generated_Source\PSoC6\pdl\drivers\peripheral\ipc/cy_ipc_drv.h **** * \snippet IPC_sut_01.cydsn/main_cm4.c snippet_Cy_IPC_Drv_SendMsgWord
 409:Generated_Source\PSoC6\pdl\drivers\peripheral\ipc/cy_ipc_drv.h **** *
 410:Generated_Source\PSoC6\pdl\drivers\peripheral\ipc/cy_ipc_drv.h **** *******************************************************************************/
 411:Generated_Source\PSoC6\pdl\drivers\peripheral\ipc/cy_ipc_drv.h **** __STATIC_INLINE IPC_STRUCT_Type* Cy_IPC_Drv_GetIpcBaseAddress (uint32_t ipcIndex)
 412:Generated_Source\PSoC6\pdl\drivers\peripheral\ipc/cy_ipc_drv.h **** {
 413:Generated_Source\PSoC6\pdl\drivers\peripheral\ipc/cy_ipc_drv.h ****     CY_ASSERT_L1((uint32_t)CY_IPC_CHANNELS > ipcIndex);
 111              		.loc 2 413 0
 112 0034 0F2D     		cmp	r5, #15
 113 0036 04D9     		bls	.L7
 114 0038 40F29D11 		movw	r1, #413
 115 003c 1C48     		ldr	r0, .L13+8
 116 003e FFF7FEFF 		bl	Cy_SysLib_AssertFailed
 117              	.LVL8:
 118              	.L7:
 414:Generated_Source\PSoC6\pdl\drivers\peripheral\ipc/cy_ipc_drv.h ****     return ( (IPC_STRUCT_Type*) ( &IPC->STRUCT[ipcIndex] ) );
 119              		.loc 2 414 0
 120 0042 6D01     		lsls	r5, r5, #5
 121              	.LVL9:
 122 0044 05F18045 		add	r5, r5, #1073741824
 123 0048 05F50C15 		add	r5, r5, #2293760
 124              	.LBE49:
 125              	.LBE48:
 188:Generated_Source\PSoC6\pdl\drivers\peripheral\ipc/cy_ipc_pipe.c **** 
 189:Generated_Source\PSoC6\pdl\drivers\peripheral\ipc/cy_ipc_pipe.c ****     /* Assign IPC channel to this endpoint */
 190:Generated_Source\PSoC6\pdl\drivers\peripheral\ipc/cy_ipc_pipe.c ****     endpoint->ipcPtr   = Cy_IPC_Drv_GetIpcBaseAddress (endpoint->ipcChan);
 126              		.loc 1 190 0
 127 004c 2561     		str	r5, [r4, #16]
 191:Generated_Source\PSoC6\pdl\drivers\peripheral\ipc/cy_ipc_pipe.c **** 
 192:Generated_Source\PSoC6\pdl\drivers\peripheral\ipc/cy_ipc_pipe.c ****     /* Assign interrupt structure to endpoint and Initialize the interrupt mask for this endpoint *
 193:Generated_Source\PSoC6\pdl\drivers\peripheral\ipc/cy_ipc_pipe.c ****     endpoint->ipcIntrPtr = Cy_IPC_Drv_GetIntrBaseAddr(endpoint->intrChan);
 128              		.loc 1 193 0
 129 004e 6568     		ldr	r5, [r4, #4]
 130              	.LVL10:
 131              	.LBB50:
 132              	.LBB51:
 415:Generated_Source\PSoC6\pdl\drivers\peripheral\ipc/cy_ipc_drv.h **** }
 416:Generated_Source\PSoC6\pdl\drivers\peripheral\ipc/cy_ipc_drv.h **** 
ARM GAS  C:\Users\gjl\AppData\Local\Temp\ccCHEUhc.s 			page 14


 417:Generated_Source\PSoC6\pdl\drivers\peripheral\ipc/cy_ipc_drv.h **** /*******************************************************************************
 418:Generated_Source\PSoC6\pdl\drivers\peripheral\ipc/cy_ipc_drv.h **** * Function Name: Cy_IPC_Drv_GetIntrBaseAddr
 419:Generated_Source\PSoC6\pdl\drivers\peripheral\ipc/cy_ipc_drv.h **** ****************************************************************************//**
 420:Generated_Source\PSoC6\pdl\drivers\peripheral\ipc/cy_ipc_drv.h **** *
 421:Generated_Source\PSoC6\pdl\drivers\peripheral\ipc/cy_ipc_drv.h **** * This function takes an IPC interrupt structure index and returns the base
 422:Generated_Source\PSoC6\pdl\drivers\peripheral\ipc/cy_ipc_drv.h **** * address of the IPC interrupt registers corresponding to the IPC Interrupt.
 423:Generated_Source\PSoC6\pdl\drivers\peripheral\ipc/cy_ipc_drv.h **** *
 424:Generated_Source\PSoC6\pdl\drivers\peripheral\ipc/cy_ipc_drv.h **** * \note The user is responsible for ensuring that ipcIntrIndex does not exceed the
 425:Generated_Source\PSoC6\pdl\drivers\peripheral\ipc/cy_ipc_drv.h **** * limits.
 426:Generated_Source\PSoC6\pdl\drivers\peripheral\ipc/cy_ipc_drv.h **** *
 427:Generated_Source\PSoC6\pdl\drivers\peripheral\ipc/cy_ipc_drv.h **** * \param ipcIntrIndex
 428:Generated_Source\PSoC6\pdl\drivers\peripheral\ipc/cy_ipc_drv.h **** * Represents the number of IPC interrupt structure. This is converted to the
 429:Generated_Source\PSoC6\pdl\drivers\peripheral\ipc/cy_ipc_drv.h **** * base address of the IPC interrupt registers.
 430:Generated_Source\PSoC6\pdl\drivers\peripheral\ipc/cy_ipc_drv.h **** *
 431:Generated_Source\PSoC6\pdl\drivers\peripheral\ipc/cy_ipc_drv.h **** * \return
 432:Generated_Source\PSoC6\pdl\drivers\peripheral\ipc/cy_ipc_drv.h **** * Returns a pointer to the base of the IPC interrupt registers.
 433:Generated_Source\PSoC6\pdl\drivers\peripheral\ipc/cy_ipc_drv.h **** *
 434:Generated_Source\PSoC6\pdl\drivers\peripheral\ipc/cy_ipc_drv.h **** * \funcusage
 435:Generated_Source\PSoC6\pdl\drivers\peripheral\ipc/cy_ipc_drv.h **** * \snippet IPC_sut_01.cydsn/main_cm4.c snippet_Cy_IPC_Drv_GetInterruptStatus
 436:Generated_Source\PSoC6\pdl\drivers\peripheral\ipc/cy_ipc_drv.h **** *
 437:Generated_Source\PSoC6\pdl\drivers\peripheral\ipc/cy_ipc_drv.h **** *******************************************************************************/
 438:Generated_Source\PSoC6\pdl\drivers\peripheral\ipc/cy_ipc_drv.h **** __STATIC_INLINE IPC_INTR_STRUCT_Type* Cy_IPC_Drv_GetIntrBaseAddr (uint32_t ipcIntrIndex)
 439:Generated_Source\PSoC6\pdl\drivers\peripheral\ipc/cy_ipc_drv.h **** {
 440:Generated_Source\PSoC6\pdl\drivers\peripheral\ipc/cy_ipc_drv.h ****     CY_ASSERT_L1((uint32_t)CY_IPC_INTERRUPTS > ipcIntrIndex);
 133              		.loc 2 440 0
 134 0050 0F2D     		cmp	r5, #15
 135 0052 04D9     		bls	.L8
 136 0054 4FF4DC71 		mov	r1, #440
 137 0058 1548     		ldr	r0, .L13+8
 138 005a FFF7FEFF 		bl	Cy_SysLib_AssertFailed
 139              	.LVL11:
 140              	.L8:
 441:Generated_Source\PSoC6\pdl\drivers\peripheral\ipc/cy_ipc_drv.h ****     return ( (IPC_INTR_STRUCT_Type*) ( &IPC->INTR_STRUCT[ipcIntrIndex] ) );
 141              		.loc 2 441 0
 142 005e 154B     		ldr	r3, .L13+12
 143 0060 03EB4515 		add	r5, r3, r5, lsl #5
 144              	.LVL12:
 145              	.LBE51:
 146              	.LBE50:
 147              		.loc 1 193 0
 148 0064 6561     		str	r5, [r4, #20]
 194:Generated_Source\PSoC6\pdl\drivers\peripheral\ipc/cy_ipc_pipe.c **** 
 195:Generated_Source\PSoC6\pdl\drivers\peripheral\ipc/cy_ipc_pipe.c ****     /* Only allow notify and release interrupts from endpoints in this pipe. */
 196:Generated_Source\PSoC6\pdl\drivers\peripheral\ipc/cy_ipc_pipe.c ****     Cy_IPC_Drv_SetInterruptMask(endpoint->ipcIntrPtr, endpoint->pipeIntMask, endpoint->pipeIntMask)
 149              		.loc 1 196 0
 150 0066 A668     		ldr	r6, [r4, #8]
 151              	.LVL13:
 152              	.LBB52:
 153              	.LBB53:
 442:Generated_Source\PSoC6\pdl\drivers\peripheral\ipc/cy_ipc_drv.h **** }
 443:Generated_Source\PSoC6\pdl\drivers\peripheral\ipc/cy_ipc_drv.h **** 
 444:Generated_Source\PSoC6\pdl\drivers\peripheral\ipc/cy_ipc_drv.h **** /*******************************************************************************
 445:Generated_Source\PSoC6\pdl\drivers\peripheral\ipc/cy_ipc_drv.h **** * Function Name: Cy_IPC_Drv_SetInterruptMask
 446:Generated_Source\PSoC6\pdl\drivers\peripheral\ipc/cy_ipc_drv.h **** ****************************************************************************//**
 447:Generated_Source\PSoC6\pdl\drivers\peripheral\ipc/cy_ipc_drv.h **** *
 448:Generated_Source\PSoC6\pdl\drivers\peripheral\ipc/cy_ipc_drv.h **** * This function is used to set the interrupt mask for an IPC Interrupt.
 449:Generated_Source\PSoC6\pdl\drivers\peripheral\ipc/cy_ipc_drv.h **** * The mask sets release or acquire notification events for all IPC channels.
ARM GAS  C:\Users\gjl\AppData\Local\Temp\ccCHEUhc.s 			page 15


 450:Generated_Source\PSoC6\pdl\drivers\peripheral\ipc/cy_ipc_drv.h **** *
 451:Generated_Source\PSoC6\pdl\drivers\peripheral\ipc/cy_ipc_drv.h **** * \param base
 452:Generated_Source\PSoC6\pdl\drivers\peripheral\ipc/cy_ipc_drv.h **** * This is a handle to the IPC interrupt. This handle can be calculated from the
 453:Generated_Source\PSoC6\pdl\drivers\peripheral\ipc/cy_ipc_drv.h **** * IPC interrupt number using \ref Cy_IPC_Drv_GetIntrBaseAddr.
 454:Generated_Source\PSoC6\pdl\drivers\peripheral\ipc/cy_ipc_drv.h **** *
 455:Generated_Source\PSoC6\pdl\drivers\peripheral\ipc/cy_ipc_drv.h **** * \param ipcReleaseMask
 456:Generated_Source\PSoC6\pdl\drivers\peripheral\ipc/cy_ipc_drv.h **** * An encoded list of all IPC channels that can trigger the interrupt on a
 457:Generated_Source\PSoC6\pdl\drivers\peripheral\ipc/cy_ipc_drv.h **** * release event.
 458:Generated_Source\PSoC6\pdl\drivers\peripheral\ipc/cy_ipc_drv.h **** *
 459:Generated_Source\PSoC6\pdl\drivers\peripheral\ipc/cy_ipc_drv.h **** * \param ipcNotifyMask
 460:Generated_Source\PSoC6\pdl\drivers\peripheral\ipc/cy_ipc_drv.h **** * An encoded list of all IPC channels that can trigger the interrupt on a
 461:Generated_Source\PSoC6\pdl\drivers\peripheral\ipc/cy_ipc_drv.h **** * notify event.
 462:Generated_Source\PSoC6\pdl\drivers\peripheral\ipc/cy_ipc_drv.h **** *
 463:Generated_Source\PSoC6\pdl\drivers\peripheral\ipc/cy_ipc_drv.h **** * \funcusage
 464:Generated_Source\PSoC6\pdl\drivers\peripheral\ipc/cy_ipc_drv.h **** * \snippet IPC_sut_01.cydsn/main_cm4.c snippet_Cy_IPC_Drv_GetInterruptStatusMasked
 465:Generated_Source\PSoC6\pdl\drivers\peripheral\ipc/cy_ipc_drv.h **** *
 466:Generated_Source\PSoC6\pdl\drivers\peripheral\ipc/cy_ipc_drv.h **** *******************************************************************************/
 467:Generated_Source\PSoC6\pdl\drivers\peripheral\ipc/cy_ipc_drv.h **** __STATIC_INLINE void  Cy_IPC_Drv_SetInterruptMask (IPC_INTR_STRUCT_Type* base,
 468:Generated_Source\PSoC6\pdl\drivers\peripheral\ipc/cy_ipc_drv.h ****                                               uint32_t ipcReleaseMask, uint32_t ipcNotifyMask)
 469:Generated_Source\PSoC6\pdl\drivers\peripheral\ipc/cy_ipc_drv.h **** {
 470:Generated_Source\PSoC6\pdl\drivers\peripheral\ipc/cy_ipc_drv.h ****     CY_ASSERT_L1(0ul == (ipcNotifyMask  & ~(uint32_t)(IPC_STRUCT_NOTIFY_INTR_NOTIFY_Msk)));
 154              		.loc 2 470 0
 155 0068 330C     		lsrs	r3, r6, #16
 156 006a 1B04     		lsls	r3, r3, #16
 157 006c 23B1     		cbz	r3, .L9
 158 006e 4FF4EB71 		mov	r1, #470
 159 0072 0F48     		ldr	r0, .L13+8
 160 0074 FFF7FEFF 		bl	Cy_SysLib_AssertFailed
 161              	.LVL14:
 162              	.L9:
 471:Generated_Source\PSoC6\pdl\drivers\peripheral\ipc/cy_ipc_drv.h ****     CY_ASSERT_L1(0ul == (ipcReleaseMask & ~(uint32_t)(IPC_STRUCT_RELEASE_INTR_RELEASE_Msk)));
 163              		.loc 2 471 0
 164 0078 330C     		lsrs	r3, r6, #16
 165 007a 1B04     		lsls	r3, r3, #16
 166 007c 23B1     		cbz	r3, .L10
 167 007e 40F2D711 		movw	r1, #471
 168 0082 0B48     		ldr	r0, .L13+8
 169 0084 FFF7FEFF 		bl	Cy_SysLib_AssertFailed
 170              	.LVL15:
 171              	.L10:
 472:Generated_Source\PSoC6\pdl\drivers\peripheral\ipc/cy_ipc_drv.h ****     base->INTR_MASK = _VAL2FLD( IPC_INTR_STRUCT_INTR_MASK_NOTIFY,  ipcNotifyMask) |
 473:Generated_Source\PSoC6\pdl\drivers\peripheral\ipc/cy_ipc_drv.h ****                       _VAL2FLD( IPC_INTR_STRUCT_INTR_MASK_RELEASE, ipcReleaseMask);
 172              		.loc 2 473 0
 173 0088 B3B2     		uxth	r3, r6
 472:Generated_Source\PSoC6\pdl\drivers\peripheral\ipc/cy_ipc_drv.h ****     base->INTR_MASK = _VAL2FLD( IPC_INTR_STRUCT_INTR_MASK_NOTIFY,  ipcNotifyMask) |
 174              		.loc 2 472 0
 175 008a 43EA0646 		orr	r6, r3, r6, lsl #16
 176              	.LVL16:
 177 008e AE60     		str	r6, [r5, #8]
 178              	.LVL17:
 179              	.LBE53:
 180              	.LBE52:
 197:Generated_Source\PSoC6\pdl\drivers\peripheral\ipc/cy_ipc_pipe.c **** 
 198:Generated_Source\PSoC6\pdl\drivers\peripheral\ipc/cy_ipc_pipe.c ****     /* Save the Client count and the callback array pointer */
 199:Generated_Source\PSoC6\pdl\drivers\peripheral\ipc/cy_ipc_pipe.c ****     endpoint->clientCount   = cbCnt;
 181              		.loc 1 199 0
 182 0090 C4F81C90 		str	r9, [r4, #28]
ARM GAS  C:\Users\gjl\AppData\Local\Temp\ccCHEUhc.s 			page 16


 200:Generated_Source\PSoC6\pdl\drivers\peripheral\ipc/cy_ipc_pipe.c ****     endpoint->callbackArray = cbArray;
 183              		.loc 1 200 0
 184 0094 C4F82080 		str	r8, [r4, #32]
 201:Generated_Source\PSoC6\pdl\drivers\peripheral\ipc/cy_ipc_pipe.c ****     endpoint->busy = CY_IPC_PIPE_ENDPOINT_NOTBUSY;
 185              		.loc 1 201 0
 186 0098 0023     		movs	r3, #0
 187 009a A361     		str	r3, [r4, #24]
 202:Generated_Source\PSoC6\pdl\drivers\peripheral\ipc/cy_ipc_pipe.c **** 
 203:Generated_Source\PSoC6\pdl\drivers\peripheral\ipc/cy_ipc_pipe.c ****     if (NULL != epInterrupt)
 188              		.loc 1 203 0
 189 009c 17B1     		cbz	r7, .L5
 204:Generated_Source\PSoC6\pdl\drivers\peripheral\ipc/cy_ipc_pipe.c ****     {
 205:Generated_Source\PSoC6\pdl\drivers\peripheral\ipc/cy_ipc_pipe.c ****         endpoint->pipeIntrSrc     = epInterrupt->intrSrc;
 190              		.loc 1 205 0
 191 009e B7F90030 		ldrsh	r3, [r7]
 192 00a2 A381     		strh	r3, [r4, #12]	@ movhi
 193              	.L5:
 194 00a4 BDE8F883 		pop	{r3, r4, r5, r6, r7, r8, r9, pc}
 195              	.LVL18:
 196              	.L14:
 197              		.align	2
 198              	.L13:
 199 00a8 00000000 		.word	.LC0
 200 00ac 00000000 		.word	.LANCHOR0
 201 00b0 40000000 		.word	.LC1
 202 00b4 00102340 		.word	1076039680
 203              		.cfi_endproc
 204              	.LFE149:
 205              		.size	Cy_IPC_Pipe_EndpointInit, .-Cy_IPC_Pipe_EndpointInit
 206              		.section	.text.Cy_IPC_Pipe_Init,"ax",%progbits
 207              		.align	2
 208              		.global	Cy_IPC_Pipe_Init
 209              		.thumb
 210              		.thumb_func
 211              		.type	Cy_IPC_Pipe_Init, %function
 212              	Cy_IPC_Pipe_Init:
 213              	.LFB148:
  71:Generated_Source\PSoC6\pdl\drivers\peripheral\ipc/cy_ipc_pipe.c ****     /* Create the interrupt structures and arrays needed */
 214              		.loc 1 71 0
 215              		.cfi_startproc
 216              		@ args = 0, pretend = 0, frame = 48
 217              		@ frame_needed = 0, uses_anonymous_args = 0
 218              	.LVL19:
 219 0000 F0B5     		push	{r4, r5, r6, r7, lr}
 220              		.cfi_def_cfa_offset 20
 221              		.cfi_offset 4, -20
 222              		.cfi_offset 5, -16
 223              		.cfi_offset 6, -12
 224              		.cfi_offset 7, -8
 225              		.cfi_offset 14, -4
 226 0002 8FB0     		sub	sp, sp, #60
 227              		.cfi_def_cfa_offset 80
  80:Generated_Source\PSoC6\pdl\drivers\peripheral\ipc/cy_ipc_pipe.c ****     #if (CY_CPU_CORTEX_M0P)
 228              		.loc 1 80 0
 229 0004 0446     		mov	r4, r0
 230 0006 18B9     		cbnz	r0, .L16
  80:Generated_Source\PSoC6\pdl\drivers\peripheral\ipc/cy_ipc_pipe.c ****     #if (CY_CPU_CORTEX_M0P)
ARM GAS  C:\Users\gjl\AppData\Local\Temp\ccCHEUhc.s 			page 17


 231              		.loc 1 80 0 is_stmt 0 discriminator 1
 232 0008 5021     		movs	r1, #80
 233 000a 2C48     		ldr	r0, .L24
 234              	.LVL20:
 235 000c FFF7FEFF 		bl	Cy_SysLib_AssertFailed
 236              	.LVL21:
 237              	.L16:
  84:Generated_Source\PSoC6\pdl\drivers\peripheral\ipc/cy_ipc_pipe.c ****     #endif
 238              		.loc 1 84 0 is_stmt 1
 239 0010 A369     		ldr	r3, [r4, #24]
 240 0012 072B     		cmp	r3, #7
 241 0014 03D9     		bls	.L17
  84:Generated_Source\PSoC6\pdl\drivers\peripheral\ipc/cy_ipc_pipe.c ****     #endif
 242              		.loc 1 84 0 is_stmt 0 discriminator 1
 243 0016 5421     		movs	r1, #84
 244 0018 2848     		ldr	r0, .L24
 245 001a FFF7FEFF 		bl	Cy_SysLib_AssertFailed
 246              	.LVL22:
 247              	.L17:
  86:Generated_Source\PSoC6\pdl\drivers\peripheral\ipc/cy_ipc_pipe.c ****     CY_ASSERT_L2(CY_IPC_MAX_ENDPOINTS > config->ep0ConfigData.epAddress);
 248              		.loc 1 86 0 is_stmt 1
 249 001e E36A     		ldr	r3, [r4, #44]
 250 0020 1BB9     		cbnz	r3, .L18
  86:Generated_Source\PSoC6\pdl\drivers\peripheral\ipc/cy_ipc_pipe.c ****     CY_ASSERT_L2(CY_IPC_MAX_ENDPOINTS > config->ep0ConfigData.epAddress);
 251              		.loc 1 86 0 is_stmt 0 discriminator 1
 252 0022 5621     		movs	r1, #86
 253 0024 2548     		ldr	r0, .L24
 254 0026 FFF7FEFF 		bl	Cy_SysLib_AssertFailed
 255              	.LVL23:
 256              	.L18:
  87:Generated_Source\PSoC6\pdl\drivers\peripheral\ipc/cy_ipc_pipe.c ****     CY_ASSERT_L2(CY_IPC_MAX_ENDPOINTS > config->ep1ConfigData.epAddress);
 257              		.loc 1 87 0 is_stmt 1
 258 002a E368     		ldr	r3, [r4, #12]
 259 002c 072B     		cmp	r3, #7
 260 002e 03D9     		bls	.L19
  87:Generated_Source\PSoC6\pdl\drivers\peripheral\ipc/cy_ipc_pipe.c ****     CY_ASSERT_L2(CY_IPC_MAX_ENDPOINTS > config->ep1ConfigData.epAddress);
 261              		.loc 1 87 0 is_stmt 0 discriminator 1
 262 0030 5721     		movs	r1, #87
 263 0032 2248     		ldr	r0, .L24
 264 0034 FFF7FEFF 		bl	Cy_SysLib_AssertFailed
 265              	.LVL24:
 266              	.L19:
  88:Generated_Source\PSoC6\pdl\drivers\peripheral\ipc/cy_ipc_pipe.c ****     CY_ASSERT_L1(NULL != config->userPipeIsrHandler);
 267              		.loc 1 88 0 is_stmt 1
 268 0038 236A     		ldr	r3, [r4, #32]
 269 003a 072B     		cmp	r3, #7
 270 003c 03D9     		bls	.L20
  88:Generated_Source\PSoC6\pdl\drivers\peripheral\ipc/cy_ipc_pipe.c ****     CY_ASSERT_L1(NULL != config->userPipeIsrHandler);
 271              		.loc 1 88 0 is_stmt 0 discriminator 1
 272 003e 5821     		movs	r1, #88
 273 0040 1E48     		ldr	r0, .L24
 274 0042 FFF7FEFF 		bl	Cy_SysLib_AssertFailed
 275              	.LVL25:
 276              	.L20:
  89:Generated_Source\PSoC6\pdl\drivers\peripheral\ipc/cy_ipc_pipe.c ****     /* Parameters checking end */
 277              		.loc 1 89 0 is_stmt 1
 278 0046 236B     		ldr	r3, [r4, #48]
ARM GAS  C:\Users\gjl\AppData\Local\Temp\ccCHEUhc.s 			page 18


 279 0048 1BB9     		cbnz	r3, .L21
  89:Generated_Source\PSoC6\pdl\drivers\peripheral\ipc/cy_ipc_pipe.c ****     /* Parameters checking end */
 280              		.loc 1 89 0 is_stmt 0 discriminator 1
 281 004a 5921     		movs	r1, #89
 282 004c 1B48     		ldr	r0, .L24
 283 004e FFF7FEFF 		bl	Cy_SysLib_AssertFailed
 284              	.LVL26:
 285              	.L21:
 106:Generated_Source\PSoC6\pdl\drivers\peripheral\ipc/cy_ipc_pipe.c ****     epConfigDataB = config->ep0ConfigData;
 286              		.loc 1 106 0 is_stmt 1
 287 0052 07AE     		add	r6, sp, #28
 288 0054 04F11405 		add	r5, r4, #20
 289 0058 0FCD     		ldmia	r5!, {r0, r1, r2, r3}
 290 005a 0FC6     		stmia	r6!, {r0, r1, r2, r3}
 291 005c 2F68     		ldr	r7, [r5]
 107:Generated_Source\PSoC6\pdl\drivers\peripheral\ipc/cy_ipc_pipe.c **** 
 292              		.loc 1 107 0
 293 005e 02AD     		add	r5, sp, #8
 294 0060 2646     		mov	r6, r4
 295 0062 0FCE     		ldmia	r6!, {r0, r1, r2, r3}
 296 0064 0FC5     		stmia	r5!, {r0, r1, r2, r3}
 297 0066 3368     		ldr	r3, [r6]
 298 0068 2B60     		str	r3, [r5]
 110:Generated_Source\PSoC6\pdl\drivers\peripheral\ipc/cy_ipc_pipe.c ****     ipc_intr_cypipeConfig.intrPriority     = epConfigDataA.ipcNotifierPriority;
 299              		.loc 1 110 0
 300 006a 079B     		ldr	r3, [sp, #28]
 301 006c 1933     		adds	r3, r3, #25
 302 006e ADF83030 		strh	r3, [sp, #48]	@ movhi
 111:Generated_Source\PSoC6\pdl\drivers\peripheral\ipc/cy_ipc_pipe.c **** 
 303              		.loc 1 111 0
 304 0072 089B     		ldr	r3, [sp, #32]
 305 0074 0D93     		str	r3, [sp, #52]
 116:Generated_Source\PSoC6\pdl\drivers\peripheral\ipc/cy_ipc_pipe.c ****                              config->endpointsCallbacksArray,
 306              		.loc 1 116 0
 307 0076 A26A     		ldr	r2, [r4, #40]
 308 0078 E16A     		ldr	r1, [r4, #44]
 309 007a 0CAD     		add	r5, sp, #48
 310 007c 0095     		str	r5, [sp]
 311 007e 3B46     		mov	r3, r7
 312 0080 0A98     		ldr	r0, [sp, #40]
 313 0082 FFF7FEFF 		bl	Cy_IPC_Pipe_EndpointInit
 314              	.LVL27:
 123:Generated_Source\PSoC6\pdl\drivers\peripheral\ipc/cy_ipc_pipe.c **** 
 315              		.loc 1 123 0
 316 0086 0021     		movs	r1, #0
 317 0088 0091     		str	r1, [sp]
 318 008a 069B     		ldr	r3, [sp, #24]
 319 008c 0A46     		mov	r2, r1
 320 008e 0598     		ldr	r0, [sp, #20]
 321 0090 FFF7FEFF 		bl	Cy_IPC_Pipe_EndpointInit
 322              	.LVL28:
 125:Generated_Source\PSoC6\pdl\drivers\peripheral\ipc/cy_ipc_pipe.c **** 
 323              		.loc 1 125 0
 324 0094 216B     		ldr	r1, [r4, #48]
 325 0096 2846     		mov	r0, r5
 326 0098 FFF7FEFF 		bl	Cy_SysInt_Init
 327              	.LVL29:
ARM GAS  C:\Users\gjl\AppData\Local\Temp\ccCHEUhc.s 			page 19


 128:Generated_Source\PSoC6\pdl\drivers\peripheral\ipc/cy_ipc_pipe.c **** }
 328              		.loc 1 128 0
 329 009c BDF93030 		ldrsh	r3, [sp, #48]
 330              	.LVL30:
 331              	.LBB54:
 332              	.LBB55:
 333              		.file 3 "Generated_Source\\PSoC6\\pdl\\cmsis/include/core_cm4.h"
   1:Generated_Source\PSoC6\pdl\cmsis/include/core_cm4.h **** /**************************************************************************//**
   2:Generated_Source\PSoC6\pdl\cmsis/include/core_cm4.h ****  * @file     core_cm4.h
   3:Generated_Source\PSoC6\pdl\cmsis/include/core_cm4.h ****  * @brief    CMSIS Cortex-M4 Core Peripheral Access Layer Header File
   4:Generated_Source\PSoC6\pdl\cmsis/include/core_cm4.h ****  * @version  V5.0.1
   5:Generated_Source\PSoC6\pdl\cmsis/include/core_cm4.h ****  * @date     30. January 2017
   6:Generated_Source\PSoC6\pdl\cmsis/include/core_cm4.h ****  ******************************************************************************/
   7:Generated_Source\PSoC6\pdl\cmsis/include/core_cm4.h **** /*
   8:Generated_Source\PSoC6\pdl\cmsis/include/core_cm4.h ****  * Copyright (c) 2009-2016 ARM Limited. All rights reserved.
   9:Generated_Source\PSoC6\pdl\cmsis/include/core_cm4.h ****  *
  10:Generated_Source\PSoC6\pdl\cmsis/include/core_cm4.h ****  * SPDX-License-Identifier: Apache-2.0
  11:Generated_Source\PSoC6\pdl\cmsis/include/core_cm4.h ****  *
  12:Generated_Source\PSoC6\pdl\cmsis/include/core_cm4.h ****  * Licensed under the Apache License, Version 2.0 (the License); you may
  13:Generated_Source\PSoC6\pdl\cmsis/include/core_cm4.h ****  * not use this file except in compliance with the License.
  14:Generated_Source\PSoC6\pdl\cmsis/include/core_cm4.h ****  * You may obtain a copy of the License at
  15:Generated_Source\PSoC6\pdl\cmsis/include/core_cm4.h ****  *
  16:Generated_Source\PSoC6\pdl\cmsis/include/core_cm4.h ****  * www.apache.org/licenses/LICENSE-2.0
  17:Generated_Source\PSoC6\pdl\cmsis/include/core_cm4.h ****  *
  18:Generated_Source\PSoC6\pdl\cmsis/include/core_cm4.h ****  * Unless required by applicable law or agreed to in writing, software
  19:Generated_Source\PSoC6\pdl\cmsis/include/core_cm4.h ****  * distributed under the License is distributed on an AS IS BASIS, WITHOUT
  20:Generated_Source\PSoC6\pdl\cmsis/include/core_cm4.h ****  * WARRANTIES OR CONDITIONS OF ANY KIND, either express or implied.
  21:Generated_Source\PSoC6\pdl\cmsis/include/core_cm4.h ****  * See the License for the specific language governing permissions and
  22:Generated_Source\PSoC6\pdl\cmsis/include/core_cm4.h ****  * limitations under the License.
  23:Generated_Source\PSoC6\pdl\cmsis/include/core_cm4.h ****  */
  24:Generated_Source\PSoC6\pdl\cmsis/include/core_cm4.h **** 
  25:Generated_Source\PSoC6\pdl\cmsis/include/core_cm4.h **** #if   defined ( __ICCARM__ )
  26:Generated_Source\PSoC6\pdl\cmsis/include/core_cm4.h ****  #pragma system_include         /* treat file as system include file for MISRA check */
  27:Generated_Source\PSoC6\pdl\cmsis/include/core_cm4.h **** #elif defined (__ARMCC_VERSION) && (__ARMCC_VERSION >= 6010050)
  28:Generated_Source\PSoC6\pdl\cmsis/include/core_cm4.h ****   #pragma clang system_header   /* treat file as system include file */
  29:Generated_Source\PSoC6\pdl\cmsis/include/core_cm4.h **** #endif
  30:Generated_Source\PSoC6\pdl\cmsis/include/core_cm4.h **** 
  31:Generated_Source\PSoC6\pdl\cmsis/include/core_cm4.h **** #ifndef __CORE_CM4_H_GENERIC
  32:Generated_Source\PSoC6\pdl\cmsis/include/core_cm4.h **** #define __CORE_CM4_H_GENERIC
  33:Generated_Source\PSoC6\pdl\cmsis/include/core_cm4.h **** 
  34:Generated_Source\PSoC6\pdl\cmsis/include/core_cm4.h **** #include <stdint.h>
  35:Generated_Source\PSoC6\pdl\cmsis/include/core_cm4.h **** 
  36:Generated_Source\PSoC6\pdl\cmsis/include/core_cm4.h **** #ifdef __cplusplus
  37:Generated_Source\PSoC6\pdl\cmsis/include/core_cm4.h ****  extern "C" {
  38:Generated_Source\PSoC6\pdl\cmsis/include/core_cm4.h **** #endif
  39:Generated_Source\PSoC6\pdl\cmsis/include/core_cm4.h **** 
  40:Generated_Source\PSoC6\pdl\cmsis/include/core_cm4.h **** /**
  41:Generated_Source\PSoC6\pdl\cmsis/include/core_cm4.h ****   \page CMSIS_MISRA_Exceptions  MISRA-C:2004 Compliance Exceptions
  42:Generated_Source\PSoC6\pdl\cmsis/include/core_cm4.h ****   CMSIS violates the following MISRA-C:2004 rules:
  43:Generated_Source\PSoC6\pdl\cmsis/include/core_cm4.h **** 
  44:Generated_Source\PSoC6\pdl\cmsis/include/core_cm4.h ****    \li Required Rule 8.5, object/function definition in header file.<br>
  45:Generated_Source\PSoC6\pdl\cmsis/include/core_cm4.h ****      Function definitions in header files are used to allow 'inlining'.
  46:Generated_Source\PSoC6\pdl\cmsis/include/core_cm4.h **** 
  47:Generated_Source\PSoC6\pdl\cmsis/include/core_cm4.h ****    \li Required Rule 18.4, declaration of union type or object of union type: '{...}'.<br>
  48:Generated_Source\PSoC6\pdl\cmsis/include/core_cm4.h ****      Unions are used for effective representation of core registers.
  49:Generated_Source\PSoC6\pdl\cmsis/include/core_cm4.h **** 
  50:Generated_Source\PSoC6\pdl\cmsis/include/core_cm4.h ****    \li Advisory Rule 19.7, Function-like macro defined.<br>
ARM GAS  C:\Users\gjl\AppData\Local\Temp\ccCHEUhc.s 			page 20


  51:Generated_Source\PSoC6\pdl\cmsis/include/core_cm4.h ****      Function-like macros are used to allow more efficient code.
  52:Generated_Source\PSoC6\pdl\cmsis/include/core_cm4.h ****  */
  53:Generated_Source\PSoC6\pdl\cmsis/include/core_cm4.h **** 
  54:Generated_Source\PSoC6\pdl\cmsis/include/core_cm4.h **** 
  55:Generated_Source\PSoC6\pdl\cmsis/include/core_cm4.h **** /*******************************************************************************
  56:Generated_Source\PSoC6\pdl\cmsis/include/core_cm4.h ****  *                 CMSIS definitions
  57:Generated_Source\PSoC6\pdl\cmsis/include/core_cm4.h ****  ******************************************************************************/
  58:Generated_Source\PSoC6\pdl\cmsis/include/core_cm4.h **** /**
  59:Generated_Source\PSoC6\pdl\cmsis/include/core_cm4.h ****   \ingroup Cortex_M4
  60:Generated_Source\PSoC6\pdl\cmsis/include/core_cm4.h ****   @{
  61:Generated_Source\PSoC6\pdl\cmsis/include/core_cm4.h ****  */
  62:Generated_Source\PSoC6\pdl\cmsis/include/core_cm4.h **** 
  63:Generated_Source\PSoC6\pdl\cmsis/include/core_cm4.h **** /*  CMSIS CM4 definitions */
  64:Generated_Source\PSoC6\pdl\cmsis/include/core_cm4.h **** #define __CM4_CMSIS_VERSION_MAIN  ( 5U)                                  /*!< [31:16] CMSIS HAL mai
  65:Generated_Source\PSoC6\pdl\cmsis/include/core_cm4.h **** #define __CM4_CMSIS_VERSION_SUB   ( 0U)                                  /*!< [15:0]  CMSIS HAL sub
  66:Generated_Source\PSoC6\pdl\cmsis/include/core_cm4.h **** #define __CM4_CMSIS_VERSION       ((__CM4_CMSIS_VERSION_MAIN << 16U) | \
  67:Generated_Source\PSoC6\pdl\cmsis/include/core_cm4.h ****                                     __CM4_CMSIS_VERSION_SUB           )  /*!< CMSIS HAL version num
  68:Generated_Source\PSoC6\pdl\cmsis/include/core_cm4.h **** 
  69:Generated_Source\PSoC6\pdl\cmsis/include/core_cm4.h **** #define __CORTEX_M                (4U)                                   /*!< Cortex-M Core */
  70:Generated_Source\PSoC6\pdl\cmsis/include/core_cm4.h **** 
  71:Generated_Source\PSoC6\pdl\cmsis/include/core_cm4.h **** /** __FPU_USED indicates whether an FPU is used or not.
  72:Generated_Source\PSoC6\pdl\cmsis/include/core_cm4.h ****     For this, __FPU_PRESENT has to be checked prior to making use of FPU specific registers and fun
  73:Generated_Source\PSoC6\pdl\cmsis/include/core_cm4.h **** */
  74:Generated_Source\PSoC6\pdl\cmsis/include/core_cm4.h **** #if defined ( __CC_ARM )
  75:Generated_Source\PSoC6\pdl\cmsis/include/core_cm4.h ****   #if defined __TARGET_FPU_VFP
  76:Generated_Source\PSoC6\pdl\cmsis/include/core_cm4.h ****     #if defined (__FPU_PRESENT) && (__FPU_PRESENT == 1U)
  77:Generated_Source\PSoC6\pdl\cmsis/include/core_cm4.h ****       #define __FPU_USED       1U
  78:Generated_Source\PSoC6\pdl\cmsis/include/core_cm4.h ****     #else
  79:Generated_Source\PSoC6\pdl\cmsis/include/core_cm4.h ****       #error "Compiler generates FPU instructions for a device without an FPU (check __FPU_PRESENT)
  80:Generated_Source\PSoC6\pdl\cmsis/include/core_cm4.h ****       #define __FPU_USED       0U
  81:Generated_Source\PSoC6\pdl\cmsis/include/core_cm4.h ****     #endif
  82:Generated_Source\PSoC6\pdl\cmsis/include/core_cm4.h ****   #else
  83:Generated_Source\PSoC6\pdl\cmsis/include/core_cm4.h ****     #define __FPU_USED         0U
  84:Generated_Source\PSoC6\pdl\cmsis/include/core_cm4.h ****   #endif
  85:Generated_Source\PSoC6\pdl\cmsis/include/core_cm4.h **** 
  86:Generated_Source\PSoC6\pdl\cmsis/include/core_cm4.h **** #elif defined (__ARMCC_VERSION) && (__ARMCC_VERSION >= 6010050)
  87:Generated_Source\PSoC6\pdl\cmsis/include/core_cm4.h ****   #if defined __ARM_PCS_VFP
  88:Generated_Source\PSoC6\pdl\cmsis/include/core_cm4.h ****     #if defined (__FPU_PRESENT) && (__FPU_PRESENT == 1U)
  89:Generated_Source\PSoC6\pdl\cmsis/include/core_cm4.h ****       #define __FPU_USED       1U
  90:Generated_Source\PSoC6\pdl\cmsis/include/core_cm4.h ****     #else
  91:Generated_Source\PSoC6\pdl\cmsis/include/core_cm4.h ****       #warning "Compiler generates FPU instructions for a device without an FPU (check __FPU_PRESEN
  92:Generated_Source\PSoC6\pdl\cmsis/include/core_cm4.h ****       #define __FPU_USED       0U
  93:Generated_Source\PSoC6\pdl\cmsis/include/core_cm4.h ****     #endif
  94:Generated_Source\PSoC6\pdl\cmsis/include/core_cm4.h ****   #else
  95:Generated_Source\PSoC6\pdl\cmsis/include/core_cm4.h ****     #define __FPU_USED         0U
  96:Generated_Source\PSoC6\pdl\cmsis/include/core_cm4.h ****   #endif
  97:Generated_Source\PSoC6\pdl\cmsis/include/core_cm4.h **** 
  98:Generated_Source\PSoC6\pdl\cmsis/include/core_cm4.h **** #elif defined ( __GNUC__ )
  99:Generated_Source\PSoC6\pdl\cmsis/include/core_cm4.h ****   #if defined (__VFP_FP__) && !defined(__SOFTFP__)
 100:Generated_Source\PSoC6\pdl\cmsis/include/core_cm4.h ****     #if defined (__FPU_PRESENT) && (__FPU_PRESENT == 1U)
 101:Generated_Source\PSoC6\pdl\cmsis/include/core_cm4.h ****       #define __FPU_USED       1U
 102:Generated_Source\PSoC6\pdl\cmsis/include/core_cm4.h ****     #else
 103:Generated_Source\PSoC6\pdl\cmsis/include/core_cm4.h ****       #error "Compiler generates FPU instructions for a device without an FPU (check __FPU_PRESENT)
 104:Generated_Source\PSoC6\pdl\cmsis/include/core_cm4.h ****       #define __FPU_USED       0U
 105:Generated_Source\PSoC6\pdl\cmsis/include/core_cm4.h ****     #endif
 106:Generated_Source\PSoC6\pdl\cmsis/include/core_cm4.h ****   #else
 107:Generated_Source\PSoC6\pdl\cmsis/include/core_cm4.h ****     #define __FPU_USED         0U
ARM GAS  C:\Users\gjl\AppData\Local\Temp\ccCHEUhc.s 			page 21


 108:Generated_Source\PSoC6\pdl\cmsis/include/core_cm4.h ****   #endif
 109:Generated_Source\PSoC6\pdl\cmsis/include/core_cm4.h **** 
 110:Generated_Source\PSoC6\pdl\cmsis/include/core_cm4.h **** #elif defined ( __ICCARM__ )
 111:Generated_Source\PSoC6\pdl\cmsis/include/core_cm4.h ****   #if defined __ARMVFP__
 112:Generated_Source\PSoC6\pdl\cmsis/include/core_cm4.h ****     #if defined (__FPU_PRESENT) && (__FPU_PRESENT == 1U)
 113:Generated_Source\PSoC6\pdl\cmsis/include/core_cm4.h ****       #define __FPU_USED       1U
 114:Generated_Source\PSoC6\pdl\cmsis/include/core_cm4.h ****     #else
 115:Generated_Source\PSoC6\pdl\cmsis/include/core_cm4.h ****       #error "Compiler generates FPU instructions for a device without an FPU (check __FPU_PRESENT)
 116:Generated_Source\PSoC6\pdl\cmsis/include/core_cm4.h ****       #define __FPU_USED       0U
 117:Generated_Source\PSoC6\pdl\cmsis/include/core_cm4.h ****     #endif
 118:Generated_Source\PSoC6\pdl\cmsis/include/core_cm4.h ****   #else
 119:Generated_Source\PSoC6\pdl\cmsis/include/core_cm4.h ****     #define __FPU_USED         0U
 120:Generated_Source\PSoC6\pdl\cmsis/include/core_cm4.h ****   #endif
 121:Generated_Source\PSoC6\pdl\cmsis/include/core_cm4.h **** 
 122:Generated_Source\PSoC6\pdl\cmsis/include/core_cm4.h **** #elif defined ( __TI_ARM__ )
 123:Generated_Source\PSoC6\pdl\cmsis/include/core_cm4.h ****   #if defined __TI_VFP_SUPPORT__
 124:Generated_Source\PSoC6\pdl\cmsis/include/core_cm4.h ****     #if defined (__FPU_PRESENT) && (__FPU_PRESENT == 1U)
 125:Generated_Source\PSoC6\pdl\cmsis/include/core_cm4.h ****       #define __FPU_USED       1U
 126:Generated_Source\PSoC6\pdl\cmsis/include/core_cm4.h ****     #else
 127:Generated_Source\PSoC6\pdl\cmsis/include/core_cm4.h ****       #error "Compiler generates FPU instructions for a device without an FPU (check __FPU_PRESENT)
 128:Generated_Source\PSoC6\pdl\cmsis/include/core_cm4.h ****       #define __FPU_USED       0U
 129:Generated_Source\PSoC6\pdl\cmsis/include/core_cm4.h ****     #endif
 130:Generated_Source\PSoC6\pdl\cmsis/include/core_cm4.h ****   #else
 131:Generated_Source\PSoC6\pdl\cmsis/include/core_cm4.h ****     #define __FPU_USED         0U
 132:Generated_Source\PSoC6\pdl\cmsis/include/core_cm4.h ****   #endif
 133:Generated_Source\PSoC6\pdl\cmsis/include/core_cm4.h **** 
 134:Generated_Source\PSoC6\pdl\cmsis/include/core_cm4.h **** #elif defined ( __TASKING__ )
 135:Generated_Source\PSoC6\pdl\cmsis/include/core_cm4.h ****   #if defined __FPU_VFP__
 136:Generated_Source\PSoC6\pdl\cmsis/include/core_cm4.h ****     #if defined (__FPU_PRESENT) && (__FPU_PRESENT == 1U)
 137:Generated_Source\PSoC6\pdl\cmsis/include/core_cm4.h ****       #define __FPU_USED       1U
 138:Generated_Source\PSoC6\pdl\cmsis/include/core_cm4.h ****     #else
 139:Generated_Source\PSoC6\pdl\cmsis/include/core_cm4.h ****       #error "Compiler generates FPU instructions for a device without an FPU (check __FPU_PRESENT)
 140:Generated_Source\PSoC6\pdl\cmsis/include/core_cm4.h ****       #define __FPU_USED       0U
 141:Generated_Source\PSoC6\pdl\cmsis/include/core_cm4.h ****     #endif
 142:Generated_Source\PSoC6\pdl\cmsis/include/core_cm4.h ****   #else
 143:Generated_Source\PSoC6\pdl\cmsis/include/core_cm4.h ****     #define __FPU_USED         0U
 144:Generated_Source\PSoC6\pdl\cmsis/include/core_cm4.h ****   #endif
 145:Generated_Source\PSoC6\pdl\cmsis/include/core_cm4.h **** 
 146:Generated_Source\PSoC6\pdl\cmsis/include/core_cm4.h **** #elif defined ( __CSMC__ )
 147:Generated_Source\PSoC6\pdl\cmsis/include/core_cm4.h ****   #if ( __CSMC__ & 0x400U)
 148:Generated_Source\PSoC6\pdl\cmsis/include/core_cm4.h ****     #if defined (__FPU_PRESENT) && (__FPU_PRESENT == 1U)
 149:Generated_Source\PSoC6\pdl\cmsis/include/core_cm4.h ****       #define __FPU_USED       1U
 150:Generated_Source\PSoC6\pdl\cmsis/include/core_cm4.h ****     #else
 151:Generated_Source\PSoC6\pdl\cmsis/include/core_cm4.h ****       #error "Compiler generates FPU instructions for a device without an FPU (check __FPU_PRESENT)
 152:Generated_Source\PSoC6\pdl\cmsis/include/core_cm4.h ****       #define __FPU_USED       0U
 153:Generated_Source\PSoC6\pdl\cmsis/include/core_cm4.h ****     #endif
 154:Generated_Source\PSoC6\pdl\cmsis/include/core_cm4.h ****   #else
 155:Generated_Source\PSoC6\pdl\cmsis/include/core_cm4.h ****     #define __FPU_USED         0U
 156:Generated_Source\PSoC6\pdl\cmsis/include/core_cm4.h ****   #endif
 157:Generated_Source\PSoC6\pdl\cmsis/include/core_cm4.h **** 
 158:Generated_Source\PSoC6\pdl\cmsis/include/core_cm4.h **** #endif
 159:Generated_Source\PSoC6\pdl\cmsis/include/core_cm4.h **** 
 160:Generated_Source\PSoC6\pdl\cmsis/include/core_cm4.h **** #include "cmsis_compiler.h"               /* CMSIS compiler specific defines */
 161:Generated_Source\PSoC6\pdl\cmsis/include/core_cm4.h **** 
 162:Generated_Source\PSoC6\pdl\cmsis/include/core_cm4.h **** 
 163:Generated_Source\PSoC6\pdl\cmsis/include/core_cm4.h **** #ifdef __cplusplus
 164:Generated_Source\PSoC6\pdl\cmsis/include/core_cm4.h **** }
ARM GAS  C:\Users\gjl\AppData\Local\Temp\ccCHEUhc.s 			page 22


 165:Generated_Source\PSoC6\pdl\cmsis/include/core_cm4.h **** #endif
 166:Generated_Source\PSoC6\pdl\cmsis/include/core_cm4.h **** 
 167:Generated_Source\PSoC6\pdl\cmsis/include/core_cm4.h **** #endif /* __CORE_CM4_H_GENERIC */
 168:Generated_Source\PSoC6\pdl\cmsis/include/core_cm4.h **** 
 169:Generated_Source\PSoC6\pdl\cmsis/include/core_cm4.h **** #ifndef __CMSIS_GENERIC
 170:Generated_Source\PSoC6\pdl\cmsis/include/core_cm4.h **** 
 171:Generated_Source\PSoC6\pdl\cmsis/include/core_cm4.h **** #ifndef __CORE_CM4_H_DEPENDANT
 172:Generated_Source\PSoC6\pdl\cmsis/include/core_cm4.h **** #define __CORE_CM4_H_DEPENDANT
 173:Generated_Source\PSoC6\pdl\cmsis/include/core_cm4.h **** 
 174:Generated_Source\PSoC6\pdl\cmsis/include/core_cm4.h **** #ifdef __cplusplus
 175:Generated_Source\PSoC6\pdl\cmsis/include/core_cm4.h ****  extern "C" {
 176:Generated_Source\PSoC6\pdl\cmsis/include/core_cm4.h **** #endif
 177:Generated_Source\PSoC6\pdl\cmsis/include/core_cm4.h **** 
 178:Generated_Source\PSoC6\pdl\cmsis/include/core_cm4.h **** /* check device defines and use defaults */
 179:Generated_Source\PSoC6\pdl\cmsis/include/core_cm4.h **** #if defined __CHECK_DEVICE_DEFINES
 180:Generated_Source\PSoC6\pdl\cmsis/include/core_cm4.h ****   #ifndef __CM4_REV
 181:Generated_Source\PSoC6\pdl\cmsis/include/core_cm4.h ****     #define __CM4_REV               0x0000U
 182:Generated_Source\PSoC6\pdl\cmsis/include/core_cm4.h ****     #warning "__CM4_REV not defined in device header file; using default!"
 183:Generated_Source\PSoC6\pdl\cmsis/include/core_cm4.h ****   #endif
 184:Generated_Source\PSoC6\pdl\cmsis/include/core_cm4.h **** 
 185:Generated_Source\PSoC6\pdl\cmsis/include/core_cm4.h ****   #ifndef __FPU_PRESENT
 186:Generated_Source\PSoC6\pdl\cmsis/include/core_cm4.h ****     #define __FPU_PRESENT             0U
 187:Generated_Source\PSoC6\pdl\cmsis/include/core_cm4.h ****     #warning "__FPU_PRESENT not defined in device header file; using default!"
 188:Generated_Source\PSoC6\pdl\cmsis/include/core_cm4.h ****   #endif
 189:Generated_Source\PSoC6\pdl\cmsis/include/core_cm4.h **** 
 190:Generated_Source\PSoC6\pdl\cmsis/include/core_cm4.h ****   #ifndef __MPU_PRESENT
 191:Generated_Source\PSoC6\pdl\cmsis/include/core_cm4.h ****     #define __MPU_PRESENT             0U
 192:Generated_Source\PSoC6\pdl\cmsis/include/core_cm4.h ****     #warning "__MPU_PRESENT not defined in device header file; using default!"
 193:Generated_Source\PSoC6\pdl\cmsis/include/core_cm4.h ****   #endif
 194:Generated_Source\PSoC6\pdl\cmsis/include/core_cm4.h **** 
 195:Generated_Source\PSoC6\pdl\cmsis/include/core_cm4.h ****   #ifndef __NVIC_PRIO_BITS
 196:Generated_Source\PSoC6\pdl\cmsis/include/core_cm4.h ****     #define __NVIC_PRIO_BITS          3U
 197:Generated_Source\PSoC6\pdl\cmsis/include/core_cm4.h ****     #warning "__NVIC_PRIO_BITS not defined in device header file; using default!"
 198:Generated_Source\PSoC6\pdl\cmsis/include/core_cm4.h ****   #endif
 199:Generated_Source\PSoC6\pdl\cmsis/include/core_cm4.h **** 
 200:Generated_Source\PSoC6\pdl\cmsis/include/core_cm4.h ****   #ifndef __Vendor_SysTickConfig
 201:Generated_Source\PSoC6\pdl\cmsis/include/core_cm4.h ****     #define __Vendor_SysTickConfig    0U
 202:Generated_Source\PSoC6\pdl\cmsis/include/core_cm4.h ****     #warning "__Vendor_SysTickConfig not defined in device header file; using default!"
 203:Generated_Source\PSoC6\pdl\cmsis/include/core_cm4.h ****   #endif
 204:Generated_Source\PSoC6\pdl\cmsis/include/core_cm4.h **** #endif
 205:Generated_Source\PSoC6\pdl\cmsis/include/core_cm4.h **** 
 206:Generated_Source\PSoC6\pdl\cmsis/include/core_cm4.h **** /* IO definitions (access restrictions to peripheral registers) */
 207:Generated_Source\PSoC6\pdl\cmsis/include/core_cm4.h **** /**
 208:Generated_Source\PSoC6\pdl\cmsis/include/core_cm4.h ****     \defgroup CMSIS_glob_defs CMSIS Global Defines
 209:Generated_Source\PSoC6\pdl\cmsis/include/core_cm4.h **** 
 210:Generated_Source\PSoC6\pdl\cmsis/include/core_cm4.h ****     <strong>IO Type Qualifiers</strong> are used
 211:Generated_Source\PSoC6\pdl\cmsis/include/core_cm4.h ****     \li to specify the access to peripheral variables.
 212:Generated_Source\PSoC6\pdl\cmsis/include/core_cm4.h ****     \li for automatic generation of peripheral register debug information.
 213:Generated_Source\PSoC6\pdl\cmsis/include/core_cm4.h **** */
 214:Generated_Source\PSoC6\pdl\cmsis/include/core_cm4.h **** #ifdef __cplusplus
 215:Generated_Source\PSoC6\pdl\cmsis/include/core_cm4.h ****   #define   __I     volatile             /*!< Defines 'read only' permissions */
 216:Generated_Source\PSoC6\pdl\cmsis/include/core_cm4.h **** #else
 217:Generated_Source\PSoC6\pdl\cmsis/include/core_cm4.h ****   #define   __I     volatile const       /*!< Defines 'read only' permissions */
 218:Generated_Source\PSoC6\pdl\cmsis/include/core_cm4.h **** #endif
 219:Generated_Source\PSoC6\pdl\cmsis/include/core_cm4.h **** #define     __O     volatile             /*!< Defines 'write only' permissions */
 220:Generated_Source\PSoC6\pdl\cmsis/include/core_cm4.h **** #define     __IO    volatile             /*!< Defines 'read / write' permissions */
 221:Generated_Source\PSoC6\pdl\cmsis/include/core_cm4.h **** 
ARM GAS  C:\Users\gjl\AppData\Local\Temp\ccCHEUhc.s 			page 23


 222:Generated_Source\PSoC6\pdl\cmsis/include/core_cm4.h **** /* following defines should be used for structure members */
 223:Generated_Source\PSoC6\pdl\cmsis/include/core_cm4.h **** #define     __IM     volatile const      /*! Defines 'read only' structure member permissions */
 224:Generated_Source\PSoC6\pdl\cmsis/include/core_cm4.h **** #define     __OM     volatile            /*! Defines 'write only' structure member permissions */
 225:Generated_Source\PSoC6\pdl\cmsis/include/core_cm4.h **** #define     __IOM    volatile            /*! Defines 'read / write' structure member permissions */
 226:Generated_Source\PSoC6\pdl\cmsis/include/core_cm4.h **** 
 227:Generated_Source\PSoC6\pdl\cmsis/include/core_cm4.h **** /*@} end of group Cortex_M4 */
 228:Generated_Source\PSoC6\pdl\cmsis/include/core_cm4.h **** 
 229:Generated_Source\PSoC6\pdl\cmsis/include/core_cm4.h **** 
 230:Generated_Source\PSoC6\pdl\cmsis/include/core_cm4.h **** 
 231:Generated_Source\PSoC6\pdl\cmsis/include/core_cm4.h **** /*******************************************************************************
 232:Generated_Source\PSoC6\pdl\cmsis/include/core_cm4.h ****  *                 Register Abstraction
 233:Generated_Source\PSoC6\pdl\cmsis/include/core_cm4.h ****   Core Register contain:
 234:Generated_Source\PSoC6\pdl\cmsis/include/core_cm4.h ****   - Core Register
 235:Generated_Source\PSoC6\pdl\cmsis/include/core_cm4.h ****   - Core NVIC Register
 236:Generated_Source\PSoC6\pdl\cmsis/include/core_cm4.h ****   - Core SCB Register
 237:Generated_Source\PSoC6\pdl\cmsis/include/core_cm4.h ****   - Core SysTick Register
 238:Generated_Source\PSoC6\pdl\cmsis/include/core_cm4.h ****   - Core Debug Register
 239:Generated_Source\PSoC6\pdl\cmsis/include/core_cm4.h ****   - Core MPU Register
 240:Generated_Source\PSoC6\pdl\cmsis/include/core_cm4.h ****   - Core FPU Register
 241:Generated_Source\PSoC6\pdl\cmsis/include/core_cm4.h ****  ******************************************************************************/
 242:Generated_Source\PSoC6\pdl\cmsis/include/core_cm4.h **** /**
 243:Generated_Source\PSoC6\pdl\cmsis/include/core_cm4.h ****   \defgroup CMSIS_core_register Defines and Type Definitions
 244:Generated_Source\PSoC6\pdl\cmsis/include/core_cm4.h ****   \brief Type definitions and defines for Cortex-M processor based devices.
 245:Generated_Source\PSoC6\pdl\cmsis/include/core_cm4.h **** */
 246:Generated_Source\PSoC6\pdl\cmsis/include/core_cm4.h **** 
 247:Generated_Source\PSoC6\pdl\cmsis/include/core_cm4.h **** /**
 248:Generated_Source\PSoC6\pdl\cmsis/include/core_cm4.h ****   \ingroup    CMSIS_core_register
 249:Generated_Source\PSoC6\pdl\cmsis/include/core_cm4.h ****   \defgroup   CMSIS_CORE  Status and Control Registers
 250:Generated_Source\PSoC6\pdl\cmsis/include/core_cm4.h ****   \brief      Core Register type definitions.
 251:Generated_Source\PSoC6\pdl\cmsis/include/core_cm4.h ****   @{
 252:Generated_Source\PSoC6\pdl\cmsis/include/core_cm4.h ****  */
 253:Generated_Source\PSoC6\pdl\cmsis/include/core_cm4.h **** 
 254:Generated_Source\PSoC6\pdl\cmsis/include/core_cm4.h **** /**
 255:Generated_Source\PSoC6\pdl\cmsis/include/core_cm4.h ****   \brief  Union type to access the Application Program Status Register (APSR).
 256:Generated_Source\PSoC6\pdl\cmsis/include/core_cm4.h ****  */
 257:Generated_Source\PSoC6\pdl\cmsis/include/core_cm4.h **** typedef union
 258:Generated_Source\PSoC6\pdl\cmsis/include/core_cm4.h **** {
 259:Generated_Source\PSoC6\pdl\cmsis/include/core_cm4.h ****   struct
 260:Generated_Source\PSoC6\pdl\cmsis/include/core_cm4.h ****   {
 261:Generated_Source\PSoC6\pdl\cmsis/include/core_cm4.h ****     uint32_t _reserved0:16;              /*!< bit:  0..15  Reserved */
 262:Generated_Source\PSoC6\pdl\cmsis/include/core_cm4.h ****     uint32_t GE:4;                       /*!< bit: 16..19  Greater than or Equal flags */
 263:Generated_Source\PSoC6\pdl\cmsis/include/core_cm4.h ****     uint32_t _reserved1:7;               /*!< bit: 20..26  Reserved */
 264:Generated_Source\PSoC6\pdl\cmsis/include/core_cm4.h ****     uint32_t Q:1;                        /*!< bit:     27  Saturation condition flag */
 265:Generated_Source\PSoC6\pdl\cmsis/include/core_cm4.h ****     uint32_t V:1;                        /*!< bit:     28  Overflow condition code flag */
 266:Generated_Source\PSoC6\pdl\cmsis/include/core_cm4.h ****     uint32_t C:1;                        /*!< bit:     29  Carry condition code flag */
 267:Generated_Source\PSoC6\pdl\cmsis/include/core_cm4.h ****     uint32_t Z:1;                        /*!< bit:     30  Zero condition code flag */
 268:Generated_Source\PSoC6\pdl\cmsis/include/core_cm4.h ****     uint32_t N:1;                        /*!< bit:     31  Negative condition code flag */
 269:Generated_Source\PSoC6\pdl\cmsis/include/core_cm4.h ****   } b;                                   /*!< Structure used for bit  access */
 270:Generated_Source\PSoC6\pdl\cmsis/include/core_cm4.h ****   uint32_t w;                            /*!< Type      used for word access */
 271:Generated_Source\PSoC6\pdl\cmsis/include/core_cm4.h **** } APSR_Type;
 272:Generated_Source\PSoC6\pdl\cmsis/include/core_cm4.h **** 
 273:Generated_Source\PSoC6\pdl\cmsis/include/core_cm4.h **** /* APSR Register Definitions */
 274:Generated_Source\PSoC6\pdl\cmsis/include/core_cm4.h **** #define APSR_N_Pos                         31U                                            /*!< APSR
 275:Generated_Source\PSoC6\pdl\cmsis/include/core_cm4.h **** #define APSR_N_Msk                         (1UL << APSR_N_Pos)                            /*!< APSR
 276:Generated_Source\PSoC6\pdl\cmsis/include/core_cm4.h **** 
 277:Generated_Source\PSoC6\pdl\cmsis/include/core_cm4.h **** #define APSR_Z_Pos                         30U                                            /*!< APSR
 278:Generated_Source\PSoC6\pdl\cmsis/include/core_cm4.h **** #define APSR_Z_Msk                         (1UL << APSR_Z_Pos)                            /*!< APSR
ARM GAS  C:\Users\gjl\AppData\Local\Temp\ccCHEUhc.s 			page 24


 279:Generated_Source\PSoC6\pdl\cmsis/include/core_cm4.h **** 
 280:Generated_Source\PSoC6\pdl\cmsis/include/core_cm4.h **** #define APSR_C_Pos                         29U                                            /*!< APSR
 281:Generated_Source\PSoC6\pdl\cmsis/include/core_cm4.h **** #define APSR_C_Msk                         (1UL << APSR_C_Pos)                            /*!< APSR
 282:Generated_Source\PSoC6\pdl\cmsis/include/core_cm4.h **** 
 283:Generated_Source\PSoC6\pdl\cmsis/include/core_cm4.h **** #define APSR_V_Pos                         28U                                            /*!< APSR
 284:Generated_Source\PSoC6\pdl\cmsis/include/core_cm4.h **** #define APSR_V_Msk                         (1UL << APSR_V_Pos)                            /*!< APSR
 285:Generated_Source\PSoC6\pdl\cmsis/include/core_cm4.h **** 
 286:Generated_Source\PSoC6\pdl\cmsis/include/core_cm4.h **** #define APSR_Q_Pos                         27U                                            /*!< APSR
 287:Generated_Source\PSoC6\pdl\cmsis/include/core_cm4.h **** #define APSR_Q_Msk                         (1UL << APSR_Q_Pos)                            /*!< APSR
 288:Generated_Source\PSoC6\pdl\cmsis/include/core_cm4.h **** 
 289:Generated_Source\PSoC6\pdl\cmsis/include/core_cm4.h **** #define APSR_GE_Pos                        16U                                            /*!< APSR
 290:Generated_Source\PSoC6\pdl\cmsis/include/core_cm4.h **** #define APSR_GE_Msk                        (0xFUL << APSR_GE_Pos)                         /*!< APSR
 291:Generated_Source\PSoC6\pdl\cmsis/include/core_cm4.h **** 
 292:Generated_Source\PSoC6\pdl\cmsis/include/core_cm4.h **** 
 293:Generated_Source\PSoC6\pdl\cmsis/include/core_cm4.h **** /**
 294:Generated_Source\PSoC6\pdl\cmsis/include/core_cm4.h ****   \brief  Union type to access the Interrupt Program Status Register (IPSR).
 295:Generated_Source\PSoC6\pdl\cmsis/include/core_cm4.h ****  */
 296:Generated_Source\PSoC6\pdl\cmsis/include/core_cm4.h **** typedef union
 297:Generated_Source\PSoC6\pdl\cmsis/include/core_cm4.h **** {
 298:Generated_Source\PSoC6\pdl\cmsis/include/core_cm4.h ****   struct
 299:Generated_Source\PSoC6\pdl\cmsis/include/core_cm4.h ****   {
 300:Generated_Source\PSoC6\pdl\cmsis/include/core_cm4.h ****     uint32_t ISR:9;                      /*!< bit:  0.. 8  Exception number */
 301:Generated_Source\PSoC6\pdl\cmsis/include/core_cm4.h ****     uint32_t _reserved0:23;              /*!< bit:  9..31  Reserved */
 302:Generated_Source\PSoC6\pdl\cmsis/include/core_cm4.h ****   } b;                                   /*!< Structure used for bit  access */
 303:Generated_Source\PSoC6\pdl\cmsis/include/core_cm4.h ****   uint32_t w;                            /*!< Type      used for word access */
 304:Generated_Source\PSoC6\pdl\cmsis/include/core_cm4.h **** } IPSR_Type;
 305:Generated_Source\PSoC6\pdl\cmsis/include/core_cm4.h **** 
 306:Generated_Source\PSoC6\pdl\cmsis/include/core_cm4.h **** /* IPSR Register Definitions */
 307:Generated_Source\PSoC6\pdl\cmsis/include/core_cm4.h **** #define IPSR_ISR_Pos                        0U                                            /*!< IPSR
 308:Generated_Source\PSoC6\pdl\cmsis/include/core_cm4.h **** #define IPSR_ISR_Msk                       (0x1FFUL /*<< IPSR_ISR_Pos*/)                  /*!< IPSR
 309:Generated_Source\PSoC6\pdl\cmsis/include/core_cm4.h **** 
 310:Generated_Source\PSoC6\pdl\cmsis/include/core_cm4.h **** 
 311:Generated_Source\PSoC6\pdl\cmsis/include/core_cm4.h **** /**
 312:Generated_Source\PSoC6\pdl\cmsis/include/core_cm4.h ****   \brief  Union type to access the Special-Purpose Program Status Registers (xPSR).
 313:Generated_Source\PSoC6\pdl\cmsis/include/core_cm4.h ****  */
 314:Generated_Source\PSoC6\pdl\cmsis/include/core_cm4.h **** typedef union
 315:Generated_Source\PSoC6\pdl\cmsis/include/core_cm4.h **** {
 316:Generated_Source\PSoC6\pdl\cmsis/include/core_cm4.h ****   struct
 317:Generated_Source\PSoC6\pdl\cmsis/include/core_cm4.h ****   {
 318:Generated_Source\PSoC6\pdl\cmsis/include/core_cm4.h ****     uint32_t ISR:9;                      /*!< bit:  0.. 8  Exception number */
 319:Generated_Source\PSoC6\pdl\cmsis/include/core_cm4.h ****     uint32_t _reserved0:1;               /*!< bit:      9  Reserved */
 320:Generated_Source\PSoC6\pdl\cmsis/include/core_cm4.h ****     uint32_t ICI_IT_1:6;                 /*!< bit: 10..15  ICI/IT part 1 */
 321:Generated_Source\PSoC6\pdl\cmsis/include/core_cm4.h ****     uint32_t GE:4;                       /*!< bit: 16..19  Greater than or Equal flags */
 322:Generated_Source\PSoC6\pdl\cmsis/include/core_cm4.h ****     uint32_t _reserved1:4;               /*!< bit: 20..23  Reserved */
 323:Generated_Source\PSoC6\pdl\cmsis/include/core_cm4.h ****     uint32_t T:1;                        /*!< bit:     24  Thumb bit */
 324:Generated_Source\PSoC6\pdl\cmsis/include/core_cm4.h ****     uint32_t ICI_IT_2:2;                 /*!< bit: 25..26  ICI/IT part 2 */
 325:Generated_Source\PSoC6\pdl\cmsis/include/core_cm4.h ****     uint32_t Q:1;                        /*!< bit:     27  Saturation condition flag */
 326:Generated_Source\PSoC6\pdl\cmsis/include/core_cm4.h ****     uint32_t V:1;                        /*!< bit:     28  Overflow condition code flag */
 327:Generated_Source\PSoC6\pdl\cmsis/include/core_cm4.h ****     uint32_t C:1;                        /*!< bit:     29  Carry condition code flag */
 328:Generated_Source\PSoC6\pdl\cmsis/include/core_cm4.h ****     uint32_t Z:1;                        /*!< bit:     30  Zero condition code flag */
 329:Generated_Source\PSoC6\pdl\cmsis/include/core_cm4.h ****     uint32_t N:1;                        /*!< bit:     31  Negative condition code flag */
 330:Generated_Source\PSoC6\pdl\cmsis/include/core_cm4.h ****   } b;                                   /*!< Structure used for bit  access */
 331:Generated_Source\PSoC6\pdl\cmsis/include/core_cm4.h ****   uint32_t w;                            /*!< Type      used for word access */
 332:Generated_Source\PSoC6\pdl\cmsis/include/core_cm4.h **** } xPSR_Type;
 333:Generated_Source\PSoC6\pdl\cmsis/include/core_cm4.h **** 
 334:Generated_Source\PSoC6\pdl\cmsis/include/core_cm4.h **** /* xPSR Register Definitions */
 335:Generated_Source\PSoC6\pdl\cmsis/include/core_cm4.h **** #define xPSR_N_Pos                         31U                                            /*!< xPSR
ARM GAS  C:\Users\gjl\AppData\Local\Temp\ccCHEUhc.s 			page 25


 336:Generated_Source\PSoC6\pdl\cmsis/include/core_cm4.h **** #define xPSR_N_Msk                         (1UL << xPSR_N_Pos)                            /*!< xPSR
 337:Generated_Source\PSoC6\pdl\cmsis/include/core_cm4.h **** 
 338:Generated_Source\PSoC6\pdl\cmsis/include/core_cm4.h **** #define xPSR_Z_Pos                         30U                                            /*!< xPSR
 339:Generated_Source\PSoC6\pdl\cmsis/include/core_cm4.h **** #define xPSR_Z_Msk                         (1UL << xPSR_Z_Pos)                            /*!< xPSR
 340:Generated_Source\PSoC6\pdl\cmsis/include/core_cm4.h **** 
 341:Generated_Source\PSoC6\pdl\cmsis/include/core_cm4.h **** #define xPSR_C_Pos                         29U                                            /*!< xPSR
 342:Generated_Source\PSoC6\pdl\cmsis/include/core_cm4.h **** #define xPSR_C_Msk                         (1UL << xPSR_C_Pos)                            /*!< xPSR
 343:Generated_Source\PSoC6\pdl\cmsis/include/core_cm4.h **** 
 344:Generated_Source\PSoC6\pdl\cmsis/include/core_cm4.h **** #define xPSR_V_Pos                         28U                                            /*!< xPSR
 345:Generated_Source\PSoC6\pdl\cmsis/include/core_cm4.h **** #define xPSR_V_Msk                         (1UL << xPSR_V_Pos)                            /*!< xPSR
 346:Generated_Source\PSoC6\pdl\cmsis/include/core_cm4.h **** 
 347:Generated_Source\PSoC6\pdl\cmsis/include/core_cm4.h **** #define xPSR_Q_Pos                         27U                                            /*!< xPSR
 348:Generated_Source\PSoC6\pdl\cmsis/include/core_cm4.h **** #define xPSR_Q_Msk                         (1UL << xPSR_Q_Pos)                            /*!< xPSR
 349:Generated_Source\PSoC6\pdl\cmsis/include/core_cm4.h **** 
 350:Generated_Source\PSoC6\pdl\cmsis/include/core_cm4.h **** #define xPSR_ICI_IT_2_Pos                  25U                                            /*!< xPSR
 351:Generated_Source\PSoC6\pdl\cmsis/include/core_cm4.h **** #define xPSR_ICI_IT_2_Msk                  (3UL << xPSR_ICI_IT_2_Pos)                     /*!< xPSR
 352:Generated_Source\PSoC6\pdl\cmsis/include/core_cm4.h **** 
 353:Generated_Source\PSoC6\pdl\cmsis/include/core_cm4.h **** #define xPSR_T_Pos                         24U                                            /*!< xPSR
 354:Generated_Source\PSoC6\pdl\cmsis/include/core_cm4.h **** #define xPSR_T_Msk                         (1UL << xPSR_T_Pos)                            /*!< xPSR
 355:Generated_Source\PSoC6\pdl\cmsis/include/core_cm4.h **** 
 356:Generated_Source\PSoC6\pdl\cmsis/include/core_cm4.h **** #define xPSR_GE_Pos                        16U                                            /*!< xPSR
 357:Generated_Source\PSoC6\pdl\cmsis/include/core_cm4.h **** #define xPSR_GE_Msk                        (0xFUL << xPSR_GE_Pos)                         /*!< xPSR
 358:Generated_Source\PSoC6\pdl\cmsis/include/core_cm4.h **** 
 359:Generated_Source\PSoC6\pdl\cmsis/include/core_cm4.h **** #define xPSR_ICI_IT_1_Pos                  10U                                            /*!< xPSR
 360:Generated_Source\PSoC6\pdl\cmsis/include/core_cm4.h **** #define xPSR_ICI_IT_1_Msk                  (0x3FUL << xPSR_ICI_IT_1_Pos)                  /*!< xPSR
 361:Generated_Source\PSoC6\pdl\cmsis/include/core_cm4.h **** 
 362:Generated_Source\PSoC6\pdl\cmsis/include/core_cm4.h **** #define xPSR_ISR_Pos                        0U                                            /*!< xPSR
 363:Generated_Source\PSoC6\pdl\cmsis/include/core_cm4.h **** #define xPSR_ISR_Msk                       (0x1FFUL /*<< xPSR_ISR_Pos*/)                  /*!< xPSR
 364:Generated_Source\PSoC6\pdl\cmsis/include/core_cm4.h **** 
 365:Generated_Source\PSoC6\pdl\cmsis/include/core_cm4.h **** 
 366:Generated_Source\PSoC6\pdl\cmsis/include/core_cm4.h **** /**
 367:Generated_Source\PSoC6\pdl\cmsis/include/core_cm4.h ****   \brief  Union type to access the Control Registers (CONTROL).
 368:Generated_Source\PSoC6\pdl\cmsis/include/core_cm4.h ****  */
 369:Generated_Source\PSoC6\pdl\cmsis/include/core_cm4.h **** typedef union
 370:Generated_Source\PSoC6\pdl\cmsis/include/core_cm4.h **** {
 371:Generated_Source\PSoC6\pdl\cmsis/include/core_cm4.h ****   struct
 372:Generated_Source\PSoC6\pdl\cmsis/include/core_cm4.h ****   {
 373:Generated_Source\PSoC6\pdl\cmsis/include/core_cm4.h ****     uint32_t nPRIV:1;                    /*!< bit:      0  Execution privilege in Thread mode */
 374:Generated_Source\PSoC6\pdl\cmsis/include/core_cm4.h ****     uint32_t SPSEL:1;                    /*!< bit:      1  Stack to be used */
 375:Generated_Source\PSoC6\pdl\cmsis/include/core_cm4.h ****     uint32_t FPCA:1;                     /*!< bit:      2  FP extension active flag */
 376:Generated_Source\PSoC6\pdl\cmsis/include/core_cm4.h ****     uint32_t _reserved0:29;              /*!< bit:  3..31  Reserved */
 377:Generated_Source\PSoC6\pdl\cmsis/include/core_cm4.h ****   } b;                                   /*!< Structure used for bit  access */
 378:Generated_Source\PSoC6\pdl\cmsis/include/core_cm4.h ****   uint32_t w;                            /*!< Type      used for word access */
 379:Generated_Source\PSoC6\pdl\cmsis/include/core_cm4.h **** } CONTROL_Type;
 380:Generated_Source\PSoC6\pdl\cmsis/include/core_cm4.h **** 
 381:Generated_Source\PSoC6\pdl\cmsis/include/core_cm4.h **** /* CONTROL Register Definitions */
 382:Generated_Source\PSoC6\pdl\cmsis/include/core_cm4.h **** #define CONTROL_FPCA_Pos                    2U                                            /*!< CONT
 383:Generated_Source\PSoC6\pdl\cmsis/include/core_cm4.h **** #define CONTROL_FPCA_Msk                   (1UL << CONTROL_FPCA_Pos)                      /*!< CONT
 384:Generated_Source\PSoC6\pdl\cmsis/include/core_cm4.h **** 
 385:Generated_Source\PSoC6\pdl\cmsis/include/core_cm4.h **** #define CONTROL_SPSEL_Pos                   1U                                            /*!< CONT
 386:Generated_Source\PSoC6\pdl\cmsis/include/core_cm4.h **** #define CONTROL_SPSEL_Msk                  (1UL << CONTROL_SPSEL_Pos)                     /*!< CONT
 387:Generated_Source\PSoC6\pdl\cmsis/include/core_cm4.h **** 
 388:Generated_Source\PSoC6\pdl\cmsis/include/core_cm4.h **** #define CONTROL_nPRIV_Pos                   0U                                            /*!< CONT
 389:Generated_Source\PSoC6\pdl\cmsis/include/core_cm4.h **** #define CONTROL_nPRIV_Msk                  (1UL /*<< CONTROL_nPRIV_Pos*/)                 /*!< CONT
 390:Generated_Source\PSoC6\pdl\cmsis/include/core_cm4.h **** 
 391:Generated_Source\PSoC6\pdl\cmsis/include/core_cm4.h **** /*@} end of group CMSIS_CORE */
 392:Generated_Source\PSoC6\pdl\cmsis/include/core_cm4.h **** 
ARM GAS  C:\Users\gjl\AppData\Local\Temp\ccCHEUhc.s 			page 26


 393:Generated_Source\PSoC6\pdl\cmsis/include/core_cm4.h **** 
 394:Generated_Source\PSoC6\pdl\cmsis/include/core_cm4.h **** /**
 395:Generated_Source\PSoC6\pdl\cmsis/include/core_cm4.h ****   \ingroup    CMSIS_core_register
 396:Generated_Source\PSoC6\pdl\cmsis/include/core_cm4.h ****   \defgroup   CMSIS_NVIC  Nested Vectored Interrupt Controller (NVIC)
 397:Generated_Source\PSoC6\pdl\cmsis/include/core_cm4.h ****   \brief      Type definitions for the NVIC Registers
 398:Generated_Source\PSoC6\pdl\cmsis/include/core_cm4.h ****   @{
 399:Generated_Source\PSoC6\pdl\cmsis/include/core_cm4.h ****  */
 400:Generated_Source\PSoC6\pdl\cmsis/include/core_cm4.h **** 
 401:Generated_Source\PSoC6\pdl\cmsis/include/core_cm4.h **** /**
 402:Generated_Source\PSoC6\pdl\cmsis/include/core_cm4.h ****   \brief  Structure type to access the Nested Vectored Interrupt Controller (NVIC).
 403:Generated_Source\PSoC6\pdl\cmsis/include/core_cm4.h ****  */
 404:Generated_Source\PSoC6\pdl\cmsis/include/core_cm4.h **** typedef struct
 405:Generated_Source\PSoC6\pdl\cmsis/include/core_cm4.h **** {
 406:Generated_Source\PSoC6\pdl\cmsis/include/core_cm4.h ****   __IOM uint32_t ISER[8U];               /*!< Offset: 0x000 (R/W)  Interrupt Set Enable Register */
 407:Generated_Source\PSoC6\pdl\cmsis/include/core_cm4.h ****         uint32_t RESERVED0[24U];
 408:Generated_Source\PSoC6\pdl\cmsis/include/core_cm4.h ****   __IOM uint32_t ICER[8U];               /*!< Offset: 0x080 (R/W)  Interrupt Clear Enable Register 
 409:Generated_Source\PSoC6\pdl\cmsis/include/core_cm4.h ****         uint32_t RSERVED1[24U];
 410:Generated_Source\PSoC6\pdl\cmsis/include/core_cm4.h ****   __IOM uint32_t ISPR[8U];               /*!< Offset: 0x100 (R/W)  Interrupt Set Pending Register *
 411:Generated_Source\PSoC6\pdl\cmsis/include/core_cm4.h ****         uint32_t RESERVED2[24U];
 412:Generated_Source\PSoC6\pdl\cmsis/include/core_cm4.h ****   __IOM uint32_t ICPR[8U];               /*!< Offset: 0x180 (R/W)  Interrupt Clear Pending Register
 413:Generated_Source\PSoC6\pdl\cmsis/include/core_cm4.h ****         uint32_t RESERVED3[24U];
 414:Generated_Source\PSoC6\pdl\cmsis/include/core_cm4.h ****   __IOM uint32_t IABR[8U];               /*!< Offset: 0x200 (R/W)  Interrupt Active bit Register */
 415:Generated_Source\PSoC6\pdl\cmsis/include/core_cm4.h ****         uint32_t RESERVED4[56U];
 416:Generated_Source\PSoC6\pdl\cmsis/include/core_cm4.h ****   __IOM uint8_t  IP[240U];               /*!< Offset: 0x300 (R/W)  Interrupt Priority Register (8Bi
 417:Generated_Source\PSoC6\pdl\cmsis/include/core_cm4.h ****         uint32_t RESERVED5[644U];
 418:Generated_Source\PSoC6\pdl\cmsis/include/core_cm4.h ****   __OM  uint32_t STIR;                   /*!< Offset: 0xE00 ( /W)  Software Trigger Interrupt Regis
 419:Generated_Source\PSoC6\pdl\cmsis/include/core_cm4.h **** }  NVIC_Type;
 420:Generated_Source\PSoC6\pdl\cmsis/include/core_cm4.h **** 
 421:Generated_Source\PSoC6\pdl\cmsis/include/core_cm4.h **** /* Software Triggered Interrupt Register Definitions */
 422:Generated_Source\PSoC6\pdl\cmsis/include/core_cm4.h **** #define NVIC_STIR_INTID_Pos                 0U                                         /*!< STIR: I
 423:Generated_Source\PSoC6\pdl\cmsis/include/core_cm4.h **** #define NVIC_STIR_INTID_Msk                (0x1FFUL /*<< NVIC_STIR_INTID_Pos*/)        /*!< STIR: I
 424:Generated_Source\PSoC6\pdl\cmsis/include/core_cm4.h **** 
 425:Generated_Source\PSoC6\pdl\cmsis/include/core_cm4.h **** /*@} end of group CMSIS_NVIC */
 426:Generated_Source\PSoC6\pdl\cmsis/include/core_cm4.h **** 
 427:Generated_Source\PSoC6\pdl\cmsis/include/core_cm4.h **** 
 428:Generated_Source\PSoC6\pdl\cmsis/include/core_cm4.h **** /**
 429:Generated_Source\PSoC6\pdl\cmsis/include/core_cm4.h ****   \ingroup  CMSIS_core_register
 430:Generated_Source\PSoC6\pdl\cmsis/include/core_cm4.h ****   \defgroup CMSIS_SCB     System Control Block (SCB)
 431:Generated_Source\PSoC6\pdl\cmsis/include/core_cm4.h ****   \brief    Type definitions for the System Control Block Registers
 432:Generated_Source\PSoC6\pdl\cmsis/include/core_cm4.h ****   @{
 433:Generated_Source\PSoC6\pdl\cmsis/include/core_cm4.h ****  */
 434:Generated_Source\PSoC6\pdl\cmsis/include/core_cm4.h **** 
 435:Generated_Source\PSoC6\pdl\cmsis/include/core_cm4.h **** /**
 436:Generated_Source\PSoC6\pdl\cmsis/include/core_cm4.h ****   \brief  Structure type to access the System Control Block (SCB).
 437:Generated_Source\PSoC6\pdl\cmsis/include/core_cm4.h ****  */
 438:Generated_Source\PSoC6\pdl\cmsis/include/core_cm4.h **** typedef struct
 439:Generated_Source\PSoC6\pdl\cmsis/include/core_cm4.h **** {
 440:Generated_Source\PSoC6\pdl\cmsis/include/core_cm4.h ****   __IM  uint32_t CPUID;                  /*!< Offset: 0x000 (R/ )  CPUID Base Register */
 441:Generated_Source\PSoC6\pdl\cmsis/include/core_cm4.h ****   __IOM uint32_t ICSR;                   /*!< Offset: 0x004 (R/W)  Interrupt Control and State Regi
 442:Generated_Source\PSoC6\pdl\cmsis/include/core_cm4.h ****   __IOM uint32_t VTOR;                   /*!< Offset: 0x008 (R/W)  Vector Table Offset Register */
 443:Generated_Source\PSoC6\pdl\cmsis/include/core_cm4.h ****   __IOM uint32_t AIRCR;                  /*!< Offset: 0x00C (R/W)  Application Interrupt and Reset 
 444:Generated_Source\PSoC6\pdl\cmsis/include/core_cm4.h ****   __IOM uint32_t SCR;                    /*!< Offset: 0x010 (R/W)  System Control Register */
 445:Generated_Source\PSoC6\pdl\cmsis/include/core_cm4.h ****   __IOM uint32_t CCR;                    /*!< Offset: 0x014 (R/W)  Configuration Control Register *
 446:Generated_Source\PSoC6\pdl\cmsis/include/core_cm4.h ****   __IOM uint8_t  SHP[12U];               /*!< Offset: 0x018 (R/W)  System Handlers Priority Registe
 447:Generated_Source\PSoC6\pdl\cmsis/include/core_cm4.h ****   __IOM uint32_t SHCSR;                  /*!< Offset: 0x024 (R/W)  System Handler Control and State
 448:Generated_Source\PSoC6\pdl\cmsis/include/core_cm4.h ****   __IOM uint32_t CFSR;                   /*!< Offset: 0x028 (R/W)  Configurable Fault Status Regist
 449:Generated_Source\PSoC6\pdl\cmsis/include/core_cm4.h ****   __IOM uint32_t HFSR;                   /*!< Offset: 0x02C (R/W)  HardFault Status Register */
ARM GAS  C:\Users\gjl\AppData\Local\Temp\ccCHEUhc.s 			page 27


 450:Generated_Source\PSoC6\pdl\cmsis/include/core_cm4.h ****   __IOM uint32_t DFSR;                   /*!< Offset: 0x030 (R/W)  Debug Fault Status Register */
 451:Generated_Source\PSoC6\pdl\cmsis/include/core_cm4.h ****   __IOM uint32_t MMFAR;                  /*!< Offset: 0x034 (R/W)  MemManage Fault Address Register
 452:Generated_Source\PSoC6\pdl\cmsis/include/core_cm4.h ****   __IOM uint32_t BFAR;                   /*!< Offset: 0x038 (R/W)  BusFault Address Register */
 453:Generated_Source\PSoC6\pdl\cmsis/include/core_cm4.h ****   __IOM uint32_t AFSR;                   /*!< Offset: 0x03C (R/W)  Auxiliary Fault Status Register 
 454:Generated_Source\PSoC6\pdl\cmsis/include/core_cm4.h ****   __IM  uint32_t PFR[2U];                /*!< Offset: 0x040 (R/ )  Processor Feature Register */
 455:Generated_Source\PSoC6\pdl\cmsis/include/core_cm4.h ****   __IM  uint32_t DFR;                    /*!< Offset: 0x048 (R/ )  Debug Feature Register */
 456:Generated_Source\PSoC6\pdl\cmsis/include/core_cm4.h ****   __IM  uint32_t ADR;                    /*!< Offset: 0x04C (R/ )  Auxiliary Feature Register */
 457:Generated_Source\PSoC6\pdl\cmsis/include/core_cm4.h ****   __IM  uint32_t MMFR[4U];               /*!< Offset: 0x050 (R/ )  Memory Model Feature Register */
 458:Generated_Source\PSoC6\pdl\cmsis/include/core_cm4.h ****   __IM  uint32_t ISAR[5U];               /*!< Offset: 0x060 (R/ )  Instruction Set Attributes Regis
 459:Generated_Source\PSoC6\pdl\cmsis/include/core_cm4.h ****         uint32_t RESERVED0[5U];
 460:Generated_Source\PSoC6\pdl\cmsis/include/core_cm4.h ****   __IOM uint32_t CPACR;                  /*!< Offset: 0x088 (R/W)  Coprocessor Access Control Regis
 461:Generated_Source\PSoC6\pdl\cmsis/include/core_cm4.h **** } SCB_Type;
 462:Generated_Source\PSoC6\pdl\cmsis/include/core_cm4.h **** 
 463:Generated_Source\PSoC6\pdl\cmsis/include/core_cm4.h **** /* SCB CPUID Register Definitions */
 464:Generated_Source\PSoC6\pdl\cmsis/include/core_cm4.h **** #define SCB_CPUID_IMPLEMENTER_Pos          24U                                            /*!< SCB 
 465:Generated_Source\PSoC6\pdl\cmsis/include/core_cm4.h **** #define SCB_CPUID_IMPLEMENTER_Msk          (0xFFUL << SCB_CPUID_IMPLEMENTER_Pos)          /*!< SCB 
 466:Generated_Source\PSoC6\pdl\cmsis/include/core_cm4.h **** 
 467:Generated_Source\PSoC6\pdl\cmsis/include/core_cm4.h **** #define SCB_CPUID_VARIANT_Pos              20U                                            /*!< SCB 
 468:Generated_Source\PSoC6\pdl\cmsis/include/core_cm4.h **** #define SCB_CPUID_VARIANT_Msk              (0xFUL << SCB_CPUID_VARIANT_Pos)               /*!< SCB 
 469:Generated_Source\PSoC6\pdl\cmsis/include/core_cm4.h **** 
 470:Generated_Source\PSoC6\pdl\cmsis/include/core_cm4.h **** #define SCB_CPUID_ARCHITECTURE_Pos         16U                                            /*!< SCB 
 471:Generated_Source\PSoC6\pdl\cmsis/include/core_cm4.h **** #define SCB_CPUID_ARCHITECTURE_Msk         (0xFUL << SCB_CPUID_ARCHITECTURE_Pos)          /*!< SCB 
 472:Generated_Source\PSoC6\pdl\cmsis/include/core_cm4.h **** 
 473:Generated_Source\PSoC6\pdl\cmsis/include/core_cm4.h **** #define SCB_CPUID_PARTNO_Pos                4U                                            /*!< SCB 
 474:Generated_Source\PSoC6\pdl\cmsis/include/core_cm4.h **** #define SCB_CPUID_PARTNO_Msk               (0xFFFUL << SCB_CPUID_PARTNO_Pos)              /*!< SCB 
 475:Generated_Source\PSoC6\pdl\cmsis/include/core_cm4.h **** 
 476:Generated_Source\PSoC6\pdl\cmsis/include/core_cm4.h **** #define SCB_CPUID_REVISION_Pos              0U                                            /*!< SCB 
 477:Generated_Source\PSoC6\pdl\cmsis/include/core_cm4.h **** #define SCB_CPUID_REVISION_Msk             (0xFUL /*<< SCB_CPUID_REVISION_Pos*/)          /*!< SCB 
 478:Generated_Source\PSoC6\pdl\cmsis/include/core_cm4.h **** 
 479:Generated_Source\PSoC6\pdl\cmsis/include/core_cm4.h **** /* SCB Interrupt Control State Register Definitions */
 480:Generated_Source\PSoC6\pdl\cmsis/include/core_cm4.h **** #define SCB_ICSR_NMIPENDSET_Pos            31U                                            /*!< SCB 
 481:Generated_Source\PSoC6\pdl\cmsis/include/core_cm4.h **** #define SCB_ICSR_NMIPENDSET_Msk            (1UL << SCB_ICSR_NMIPENDSET_Pos)               /*!< SCB 
 482:Generated_Source\PSoC6\pdl\cmsis/include/core_cm4.h **** 
 483:Generated_Source\PSoC6\pdl\cmsis/include/core_cm4.h **** #define SCB_ICSR_PENDSVSET_Pos             28U                                            /*!< SCB 
 484:Generated_Source\PSoC6\pdl\cmsis/include/core_cm4.h **** #define SCB_ICSR_PENDSVSET_Msk             (1UL << SCB_ICSR_PENDSVSET_Pos)                /*!< SCB 
 485:Generated_Source\PSoC6\pdl\cmsis/include/core_cm4.h **** 
 486:Generated_Source\PSoC6\pdl\cmsis/include/core_cm4.h **** #define SCB_ICSR_PENDSVCLR_Pos             27U                                            /*!< SCB 
 487:Generated_Source\PSoC6\pdl\cmsis/include/core_cm4.h **** #define SCB_ICSR_PENDSVCLR_Msk             (1UL << SCB_ICSR_PENDSVCLR_Pos)                /*!< SCB 
 488:Generated_Source\PSoC6\pdl\cmsis/include/core_cm4.h **** 
 489:Generated_Source\PSoC6\pdl\cmsis/include/core_cm4.h **** #define SCB_ICSR_PENDSTSET_Pos             26U                                            /*!< SCB 
 490:Generated_Source\PSoC6\pdl\cmsis/include/core_cm4.h **** #define SCB_ICSR_PENDSTSET_Msk             (1UL << SCB_ICSR_PENDSTSET_Pos)                /*!< SCB 
 491:Generated_Source\PSoC6\pdl\cmsis/include/core_cm4.h **** 
 492:Generated_Source\PSoC6\pdl\cmsis/include/core_cm4.h **** #define SCB_ICSR_PENDSTCLR_Pos             25U                                            /*!< SCB 
 493:Generated_Source\PSoC6\pdl\cmsis/include/core_cm4.h **** #define SCB_ICSR_PENDSTCLR_Msk             (1UL << SCB_ICSR_PENDSTCLR_Pos)                /*!< SCB 
 494:Generated_Source\PSoC6\pdl\cmsis/include/core_cm4.h **** 
 495:Generated_Source\PSoC6\pdl\cmsis/include/core_cm4.h **** #define SCB_ICSR_ISRPREEMPT_Pos            23U                                            /*!< SCB 
 496:Generated_Source\PSoC6\pdl\cmsis/include/core_cm4.h **** #define SCB_ICSR_ISRPREEMPT_Msk            (1UL << SCB_ICSR_ISRPREEMPT_Pos)               /*!< SCB 
 497:Generated_Source\PSoC6\pdl\cmsis/include/core_cm4.h **** 
 498:Generated_Source\PSoC6\pdl\cmsis/include/core_cm4.h **** #define SCB_ICSR_ISRPENDING_Pos            22U                                            /*!< SCB 
 499:Generated_Source\PSoC6\pdl\cmsis/include/core_cm4.h **** #define SCB_ICSR_ISRPENDING_Msk            (1UL << SCB_ICSR_ISRPENDING_Pos)               /*!< SCB 
 500:Generated_Source\PSoC6\pdl\cmsis/include/core_cm4.h **** 
 501:Generated_Source\PSoC6\pdl\cmsis/include/core_cm4.h **** #define SCB_ICSR_VECTPENDING_Pos           12U                                            /*!< SCB 
 502:Generated_Source\PSoC6\pdl\cmsis/include/core_cm4.h **** #define SCB_ICSR_VECTPENDING_Msk           (0x1FFUL << SCB_ICSR_VECTPENDING_Pos)          /*!< SCB 
 503:Generated_Source\PSoC6\pdl\cmsis/include/core_cm4.h **** 
 504:Generated_Source\PSoC6\pdl\cmsis/include/core_cm4.h **** #define SCB_ICSR_RETTOBASE_Pos             11U                                            /*!< SCB 
 505:Generated_Source\PSoC6\pdl\cmsis/include/core_cm4.h **** #define SCB_ICSR_RETTOBASE_Msk             (1UL << SCB_ICSR_RETTOBASE_Pos)                /*!< SCB 
 506:Generated_Source\PSoC6\pdl\cmsis/include/core_cm4.h **** 
ARM GAS  C:\Users\gjl\AppData\Local\Temp\ccCHEUhc.s 			page 28


 507:Generated_Source\PSoC6\pdl\cmsis/include/core_cm4.h **** #define SCB_ICSR_VECTACTIVE_Pos             0U                                            /*!< SCB 
 508:Generated_Source\PSoC6\pdl\cmsis/include/core_cm4.h **** #define SCB_ICSR_VECTACTIVE_Msk            (0x1FFUL /*<< SCB_ICSR_VECTACTIVE_Pos*/)       /*!< SCB 
 509:Generated_Source\PSoC6\pdl\cmsis/include/core_cm4.h **** 
 510:Generated_Source\PSoC6\pdl\cmsis/include/core_cm4.h **** /* SCB Vector Table Offset Register Definitions */
 511:Generated_Source\PSoC6\pdl\cmsis/include/core_cm4.h **** #define SCB_VTOR_TBLOFF_Pos                 7U                                            /*!< SCB 
 512:Generated_Source\PSoC6\pdl\cmsis/include/core_cm4.h **** #define SCB_VTOR_TBLOFF_Msk                (0x1FFFFFFUL << SCB_VTOR_TBLOFF_Pos)           /*!< SCB 
 513:Generated_Source\PSoC6\pdl\cmsis/include/core_cm4.h **** 
 514:Generated_Source\PSoC6\pdl\cmsis/include/core_cm4.h **** /* SCB Application Interrupt and Reset Control Register Definitions */
 515:Generated_Source\PSoC6\pdl\cmsis/include/core_cm4.h **** #define SCB_AIRCR_VECTKEY_Pos              16U                                            /*!< SCB 
 516:Generated_Source\PSoC6\pdl\cmsis/include/core_cm4.h **** #define SCB_AIRCR_VECTKEY_Msk              (0xFFFFUL << SCB_AIRCR_VECTKEY_Pos)            /*!< SCB 
 517:Generated_Source\PSoC6\pdl\cmsis/include/core_cm4.h **** 
 518:Generated_Source\PSoC6\pdl\cmsis/include/core_cm4.h **** #define SCB_AIRCR_VECTKEYSTAT_Pos          16U                                            /*!< SCB 
 519:Generated_Source\PSoC6\pdl\cmsis/include/core_cm4.h **** #define SCB_AIRCR_VECTKEYSTAT_Msk          (0xFFFFUL << SCB_AIRCR_VECTKEYSTAT_Pos)        /*!< SCB 
 520:Generated_Source\PSoC6\pdl\cmsis/include/core_cm4.h **** 
 521:Generated_Source\PSoC6\pdl\cmsis/include/core_cm4.h **** #define SCB_AIRCR_ENDIANESS_Pos            15U                                            /*!< SCB 
 522:Generated_Source\PSoC6\pdl\cmsis/include/core_cm4.h **** #define SCB_AIRCR_ENDIANESS_Msk            (1UL << SCB_AIRCR_ENDIANESS_Pos)               /*!< SCB 
 523:Generated_Source\PSoC6\pdl\cmsis/include/core_cm4.h **** 
 524:Generated_Source\PSoC6\pdl\cmsis/include/core_cm4.h **** #define SCB_AIRCR_PRIGROUP_Pos              8U                                            /*!< SCB 
 525:Generated_Source\PSoC6\pdl\cmsis/include/core_cm4.h **** #define SCB_AIRCR_PRIGROUP_Msk             (7UL << SCB_AIRCR_PRIGROUP_Pos)                /*!< SCB 
 526:Generated_Source\PSoC6\pdl\cmsis/include/core_cm4.h **** 
 527:Generated_Source\PSoC6\pdl\cmsis/include/core_cm4.h **** #define SCB_AIRCR_SYSRESETREQ_Pos           2U                                            /*!< SCB 
 528:Generated_Source\PSoC6\pdl\cmsis/include/core_cm4.h **** #define SCB_AIRCR_SYSRESETREQ_Msk          (1UL << SCB_AIRCR_SYSRESETREQ_Pos)             /*!< SCB 
 529:Generated_Source\PSoC6\pdl\cmsis/include/core_cm4.h **** 
 530:Generated_Source\PSoC6\pdl\cmsis/include/core_cm4.h **** #define SCB_AIRCR_VECTCLRACTIVE_Pos         1U                                            /*!< SCB 
 531:Generated_Source\PSoC6\pdl\cmsis/include/core_cm4.h **** #define SCB_AIRCR_VECTCLRACTIVE_Msk        (1UL << SCB_AIRCR_VECTCLRACTIVE_Pos)           /*!< SCB 
 532:Generated_Source\PSoC6\pdl\cmsis/include/core_cm4.h **** 
 533:Generated_Source\PSoC6\pdl\cmsis/include/core_cm4.h **** #define SCB_AIRCR_VECTRESET_Pos             0U                                            /*!< SCB 
 534:Generated_Source\PSoC6\pdl\cmsis/include/core_cm4.h **** #define SCB_AIRCR_VECTRESET_Msk            (1UL /*<< SCB_AIRCR_VECTRESET_Pos*/)           /*!< SCB 
 535:Generated_Source\PSoC6\pdl\cmsis/include/core_cm4.h **** 
 536:Generated_Source\PSoC6\pdl\cmsis/include/core_cm4.h **** /* SCB System Control Register Definitions */
 537:Generated_Source\PSoC6\pdl\cmsis/include/core_cm4.h **** #define SCB_SCR_SEVONPEND_Pos               4U                                            /*!< SCB 
 538:Generated_Source\PSoC6\pdl\cmsis/include/core_cm4.h **** #define SCB_SCR_SEVONPEND_Msk              (1UL << SCB_SCR_SEVONPEND_Pos)                 /*!< SCB 
 539:Generated_Source\PSoC6\pdl\cmsis/include/core_cm4.h **** 
 540:Generated_Source\PSoC6\pdl\cmsis/include/core_cm4.h **** #define SCB_SCR_SLEEPDEEP_Pos               2U                                            /*!< SCB 
 541:Generated_Source\PSoC6\pdl\cmsis/include/core_cm4.h **** #define SCB_SCR_SLEEPDEEP_Msk              (1UL << SCB_SCR_SLEEPDEEP_Pos)                 /*!< SCB 
 542:Generated_Source\PSoC6\pdl\cmsis/include/core_cm4.h **** 
 543:Generated_Source\PSoC6\pdl\cmsis/include/core_cm4.h **** #define SCB_SCR_SLEEPONEXIT_Pos             1U                                            /*!< SCB 
 544:Generated_Source\PSoC6\pdl\cmsis/include/core_cm4.h **** #define SCB_SCR_SLEEPONEXIT_Msk            (1UL << SCB_SCR_SLEEPONEXIT_Pos)               /*!< SCB 
 545:Generated_Source\PSoC6\pdl\cmsis/include/core_cm4.h **** 
 546:Generated_Source\PSoC6\pdl\cmsis/include/core_cm4.h **** /* SCB Configuration Control Register Definitions */
 547:Generated_Source\PSoC6\pdl\cmsis/include/core_cm4.h **** #define SCB_CCR_STKALIGN_Pos                9U                                            /*!< SCB 
 548:Generated_Source\PSoC6\pdl\cmsis/include/core_cm4.h **** #define SCB_CCR_STKALIGN_Msk               (1UL << SCB_CCR_STKALIGN_Pos)                  /*!< SCB 
 549:Generated_Source\PSoC6\pdl\cmsis/include/core_cm4.h **** 
 550:Generated_Source\PSoC6\pdl\cmsis/include/core_cm4.h **** #define SCB_CCR_BFHFNMIGN_Pos               8U                                            /*!< SCB 
 551:Generated_Source\PSoC6\pdl\cmsis/include/core_cm4.h **** #define SCB_CCR_BFHFNMIGN_Msk              (1UL << SCB_CCR_BFHFNMIGN_Pos)                 /*!< SCB 
 552:Generated_Source\PSoC6\pdl\cmsis/include/core_cm4.h **** 
 553:Generated_Source\PSoC6\pdl\cmsis/include/core_cm4.h **** #define SCB_CCR_DIV_0_TRP_Pos               4U                                            /*!< SCB 
 554:Generated_Source\PSoC6\pdl\cmsis/include/core_cm4.h **** #define SCB_CCR_DIV_0_TRP_Msk              (1UL << SCB_CCR_DIV_0_TRP_Pos)                 /*!< SCB 
 555:Generated_Source\PSoC6\pdl\cmsis/include/core_cm4.h **** 
 556:Generated_Source\PSoC6\pdl\cmsis/include/core_cm4.h **** #define SCB_CCR_UNALIGN_TRP_Pos             3U                                            /*!< SCB 
 557:Generated_Source\PSoC6\pdl\cmsis/include/core_cm4.h **** #define SCB_CCR_UNALIGN_TRP_Msk            (1UL << SCB_CCR_UNALIGN_TRP_Pos)               /*!< SCB 
 558:Generated_Source\PSoC6\pdl\cmsis/include/core_cm4.h **** 
 559:Generated_Source\PSoC6\pdl\cmsis/include/core_cm4.h **** #define SCB_CCR_USERSETMPEND_Pos            1U                                            /*!< SCB 
 560:Generated_Source\PSoC6\pdl\cmsis/include/core_cm4.h **** #define SCB_CCR_USERSETMPEND_Msk           (1UL << SCB_CCR_USERSETMPEND_Pos)              /*!< SCB 
 561:Generated_Source\PSoC6\pdl\cmsis/include/core_cm4.h **** 
 562:Generated_Source\PSoC6\pdl\cmsis/include/core_cm4.h **** #define SCB_CCR_NONBASETHRDENA_Pos          0U                                            /*!< SCB 
 563:Generated_Source\PSoC6\pdl\cmsis/include/core_cm4.h **** #define SCB_CCR_NONBASETHRDENA_Msk         (1UL /*<< SCB_CCR_NONBASETHRDENA_Pos*/)        /*!< SCB 
ARM GAS  C:\Users\gjl\AppData\Local\Temp\ccCHEUhc.s 			page 29


 564:Generated_Source\PSoC6\pdl\cmsis/include/core_cm4.h **** 
 565:Generated_Source\PSoC6\pdl\cmsis/include/core_cm4.h **** /* SCB System Handler Control and State Register Definitions */
 566:Generated_Source\PSoC6\pdl\cmsis/include/core_cm4.h **** #define SCB_SHCSR_USGFAULTENA_Pos          18U                                            /*!< SCB 
 567:Generated_Source\PSoC6\pdl\cmsis/include/core_cm4.h **** #define SCB_SHCSR_USGFAULTENA_Msk          (1UL << SCB_SHCSR_USGFAULTENA_Pos)             /*!< SCB 
 568:Generated_Source\PSoC6\pdl\cmsis/include/core_cm4.h **** 
 569:Generated_Source\PSoC6\pdl\cmsis/include/core_cm4.h **** #define SCB_SHCSR_BUSFAULTENA_Pos          17U                                            /*!< SCB 
 570:Generated_Source\PSoC6\pdl\cmsis/include/core_cm4.h **** #define SCB_SHCSR_BUSFAULTENA_Msk          (1UL << SCB_SHCSR_BUSFAULTENA_Pos)             /*!< SCB 
 571:Generated_Source\PSoC6\pdl\cmsis/include/core_cm4.h **** 
 572:Generated_Source\PSoC6\pdl\cmsis/include/core_cm4.h **** #define SCB_SHCSR_MEMFAULTENA_Pos          16U                                            /*!< SCB 
 573:Generated_Source\PSoC6\pdl\cmsis/include/core_cm4.h **** #define SCB_SHCSR_MEMFAULTENA_Msk          (1UL << SCB_SHCSR_MEMFAULTENA_Pos)             /*!< SCB 
 574:Generated_Source\PSoC6\pdl\cmsis/include/core_cm4.h **** 
 575:Generated_Source\PSoC6\pdl\cmsis/include/core_cm4.h **** #define SCB_SHCSR_SVCALLPENDED_Pos         15U                                            /*!< SCB 
 576:Generated_Source\PSoC6\pdl\cmsis/include/core_cm4.h **** #define SCB_SHCSR_SVCALLPENDED_Msk         (1UL << SCB_SHCSR_SVCALLPENDED_Pos)            /*!< SCB 
 577:Generated_Source\PSoC6\pdl\cmsis/include/core_cm4.h **** 
 578:Generated_Source\PSoC6\pdl\cmsis/include/core_cm4.h **** #define SCB_SHCSR_BUSFAULTPENDED_Pos       14U                                            /*!< SCB 
 579:Generated_Source\PSoC6\pdl\cmsis/include/core_cm4.h **** #define SCB_SHCSR_BUSFAULTPENDED_Msk       (1UL << SCB_SHCSR_BUSFAULTPENDED_Pos)          /*!< SCB 
 580:Generated_Source\PSoC6\pdl\cmsis/include/core_cm4.h **** 
 581:Generated_Source\PSoC6\pdl\cmsis/include/core_cm4.h **** #define SCB_SHCSR_MEMFAULTPENDED_Pos       13U                                            /*!< SCB 
 582:Generated_Source\PSoC6\pdl\cmsis/include/core_cm4.h **** #define SCB_SHCSR_MEMFAULTPENDED_Msk       (1UL << SCB_SHCSR_MEMFAULTPENDED_Pos)          /*!< SCB 
 583:Generated_Source\PSoC6\pdl\cmsis/include/core_cm4.h **** 
 584:Generated_Source\PSoC6\pdl\cmsis/include/core_cm4.h **** #define SCB_SHCSR_USGFAULTPENDED_Pos       12U                                            /*!< SCB 
 585:Generated_Source\PSoC6\pdl\cmsis/include/core_cm4.h **** #define SCB_SHCSR_USGFAULTPENDED_Msk       (1UL << SCB_SHCSR_USGFAULTPENDED_Pos)          /*!< SCB 
 586:Generated_Source\PSoC6\pdl\cmsis/include/core_cm4.h **** 
 587:Generated_Source\PSoC6\pdl\cmsis/include/core_cm4.h **** #define SCB_SHCSR_SYSTICKACT_Pos           11U                                            /*!< SCB 
 588:Generated_Source\PSoC6\pdl\cmsis/include/core_cm4.h **** #define SCB_SHCSR_SYSTICKACT_Msk           (1UL << SCB_SHCSR_SYSTICKACT_Pos)              /*!< SCB 
 589:Generated_Source\PSoC6\pdl\cmsis/include/core_cm4.h **** 
 590:Generated_Source\PSoC6\pdl\cmsis/include/core_cm4.h **** #define SCB_SHCSR_PENDSVACT_Pos            10U                                            /*!< SCB 
 591:Generated_Source\PSoC6\pdl\cmsis/include/core_cm4.h **** #define SCB_SHCSR_PENDSVACT_Msk            (1UL << SCB_SHCSR_PENDSVACT_Pos)               /*!< SCB 
 592:Generated_Source\PSoC6\pdl\cmsis/include/core_cm4.h **** 
 593:Generated_Source\PSoC6\pdl\cmsis/include/core_cm4.h **** #define SCB_SHCSR_MONITORACT_Pos            8U                                            /*!< SCB 
 594:Generated_Source\PSoC6\pdl\cmsis/include/core_cm4.h **** #define SCB_SHCSR_MONITORACT_Msk           (1UL << SCB_SHCSR_MONITORACT_Pos)              /*!< SCB 
 595:Generated_Source\PSoC6\pdl\cmsis/include/core_cm4.h **** 
 596:Generated_Source\PSoC6\pdl\cmsis/include/core_cm4.h **** #define SCB_SHCSR_SVCALLACT_Pos             7U                                            /*!< SCB 
 597:Generated_Source\PSoC6\pdl\cmsis/include/core_cm4.h **** #define SCB_SHCSR_SVCALLACT_Msk            (1UL << SCB_SHCSR_SVCALLACT_Pos)               /*!< SCB 
 598:Generated_Source\PSoC6\pdl\cmsis/include/core_cm4.h **** 
 599:Generated_Source\PSoC6\pdl\cmsis/include/core_cm4.h **** #define SCB_SHCSR_USGFAULTACT_Pos           3U                                            /*!< SCB 
 600:Generated_Source\PSoC6\pdl\cmsis/include/core_cm4.h **** #define SCB_SHCSR_USGFAULTACT_Msk          (1UL << SCB_SHCSR_USGFAULTACT_Pos)             /*!< SCB 
 601:Generated_Source\PSoC6\pdl\cmsis/include/core_cm4.h **** 
 602:Generated_Source\PSoC6\pdl\cmsis/include/core_cm4.h **** #define SCB_SHCSR_BUSFAULTACT_Pos           1U                                            /*!< SCB 
 603:Generated_Source\PSoC6\pdl\cmsis/include/core_cm4.h **** #define SCB_SHCSR_BUSFAULTACT_Msk          (1UL << SCB_SHCSR_BUSFAULTACT_Pos)             /*!< SCB 
 604:Generated_Source\PSoC6\pdl\cmsis/include/core_cm4.h **** 
 605:Generated_Source\PSoC6\pdl\cmsis/include/core_cm4.h **** #define SCB_SHCSR_MEMFAULTACT_Pos           0U                                            /*!< SCB 
 606:Generated_Source\PSoC6\pdl\cmsis/include/core_cm4.h **** #define SCB_SHCSR_MEMFAULTACT_Msk          (1UL /*<< SCB_SHCSR_MEMFAULTACT_Pos*/)         /*!< SCB 
 607:Generated_Source\PSoC6\pdl\cmsis/include/core_cm4.h **** 
 608:Generated_Source\PSoC6\pdl\cmsis/include/core_cm4.h **** /* SCB Configurable Fault Status Register Definitions */
 609:Generated_Source\PSoC6\pdl\cmsis/include/core_cm4.h **** #define SCB_CFSR_USGFAULTSR_Pos            16U                                            /*!< SCB 
 610:Generated_Source\PSoC6\pdl\cmsis/include/core_cm4.h **** #define SCB_CFSR_USGFAULTSR_Msk            (0xFFFFUL << SCB_CFSR_USGFAULTSR_Pos)          /*!< SCB 
 611:Generated_Source\PSoC6\pdl\cmsis/include/core_cm4.h **** 
 612:Generated_Source\PSoC6\pdl\cmsis/include/core_cm4.h **** #define SCB_CFSR_BUSFAULTSR_Pos             8U                                            /*!< SCB 
 613:Generated_Source\PSoC6\pdl\cmsis/include/core_cm4.h **** #define SCB_CFSR_BUSFAULTSR_Msk            (0xFFUL << SCB_CFSR_BUSFAULTSR_Pos)            /*!< SCB 
 614:Generated_Source\PSoC6\pdl\cmsis/include/core_cm4.h **** 
 615:Generated_Source\PSoC6\pdl\cmsis/include/core_cm4.h **** #define SCB_CFSR_MEMFAULTSR_Pos             0U                                            /*!< SCB 
 616:Generated_Source\PSoC6\pdl\cmsis/include/core_cm4.h **** #define SCB_CFSR_MEMFAULTSR_Msk            (0xFFUL /*<< SCB_CFSR_MEMFAULTSR_Pos*/)        /*!< SCB 
 617:Generated_Source\PSoC6\pdl\cmsis/include/core_cm4.h **** 
 618:Generated_Source\PSoC6\pdl\cmsis/include/core_cm4.h **** /* MemManage Fault Status Register (part of SCB Configurable Fault Status Register) */
 619:Generated_Source\PSoC6\pdl\cmsis/include/core_cm4.h **** #define SCB_CFSR_MMARVALID_Pos             (SCB_SHCSR_MEMFAULTACT_Pos + 7U)               /*!< SCB 
 620:Generated_Source\PSoC6\pdl\cmsis/include/core_cm4.h **** #define SCB_CFSR_MMARVALID_Msk             (1UL << SCB_CFSR_MMARVALID_Pos)                /*!< SCB 
ARM GAS  C:\Users\gjl\AppData\Local\Temp\ccCHEUhc.s 			page 30


 621:Generated_Source\PSoC6\pdl\cmsis/include/core_cm4.h **** 
 622:Generated_Source\PSoC6\pdl\cmsis/include/core_cm4.h **** #define SCB_CFSR_MLSPERR_Pos               (SCB_SHCSR_MEMFAULTACT_Pos + 5U)               /*!< SCB 
 623:Generated_Source\PSoC6\pdl\cmsis/include/core_cm4.h **** #define SCB_CFSR_MLSPERR_Msk               (1UL << SCB_CFSR_MLSPERR_Pos)                  /*!< SCB 
 624:Generated_Source\PSoC6\pdl\cmsis/include/core_cm4.h **** 
 625:Generated_Source\PSoC6\pdl\cmsis/include/core_cm4.h **** #define SCB_CFSR_MSTKERR_Pos               (SCB_SHCSR_MEMFAULTACT_Pos + 4U)               /*!< SCB 
 626:Generated_Source\PSoC6\pdl\cmsis/include/core_cm4.h **** #define SCB_CFSR_MSTKERR_Msk               (1UL << SCB_CFSR_MSTKERR_Pos)                  /*!< SCB 
 627:Generated_Source\PSoC6\pdl\cmsis/include/core_cm4.h **** 
 628:Generated_Source\PSoC6\pdl\cmsis/include/core_cm4.h **** #define SCB_CFSR_MUNSTKERR_Pos             (SCB_SHCSR_MEMFAULTACT_Pos + 3U)               /*!< SCB 
 629:Generated_Source\PSoC6\pdl\cmsis/include/core_cm4.h **** #define SCB_CFSR_MUNSTKERR_Msk             (1UL << SCB_CFSR_MUNSTKERR_Pos)                /*!< SCB 
 630:Generated_Source\PSoC6\pdl\cmsis/include/core_cm4.h **** 
 631:Generated_Source\PSoC6\pdl\cmsis/include/core_cm4.h **** #define SCB_CFSR_DACCVIOL_Pos              (SCB_SHCSR_MEMFAULTACT_Pos + 1U)               /*!< SCB 
 632:Generated_Source\PSoC6\pdl\cmsis/include/core_cm4.h **** #define SCB_CFSR_DACCVIOL_Msk              (1UL << SCB_CFSR_DACCVIOL_Pos)                 /*!< SCB 
 633:Generated_Source\PSoC6\pdl\cmsis/include/core_cm4.h **** 
 634:Generated_Source\PSoC6\pdl\cmsis/include/core_cm4.h **** #define SCB_CFSR_IACCVIOL_Pos              (SCB_SHCSR_MEMFAULTACT_Pos + 0U)               /*!< SCB 
 635:Generated_Source\PSoC6\pdl\cmsis/include/core_cm4.h **** #define SCB_CFSR_IACCVIOL_Msk              (1UL /*<< SCB_CFSR_IACCVIOL_Pos*/)             /*!< SCB 
 636:Generated_Source\PSoC6\pdl\cmsis/include/core_cm4.h **** 
 637:Generated_Source\PSoC6\pdl\cmsis/include/core_cm4.h **** /* BusFault Status Register (part of SCB Configurable Fault Status Register) */
 638:Generated_Source\PSoC6\pdl\cmsis/include/core_cm4.h **** #define SCB_CFSR_BFARVALID_Pos            (SCB_CFSR_BUSFAULTSR_Pos + 7U)                  /*!< SCB 
 639:Generated_Source\PSoC6\pdl\cmsis/include/core_cm4.h **** #define SCB_CFSR_BFARVALID_Msk            (1UL << SCB_CFSR_BFARVALID_Pos)                 /*!< SCB 
 640:Generated_Source\PSoC6\pdl\cmsis/include/core_cm4.h **** 
 641:Generated_Source\PSoC6\pdl\cmsis/include/core_cm4.h **** #define SCB_CFSR_LSPERR_Pos               (SCB_CFSR_BUSFAULTSR_Pos + 5U)                  /*!< SCB 
 642:Generated_Source\PSoC6\pdl\cmsis/include/core_cm4.h **** #define SCB_CFSR_LSPERR_Msk               (1UL << SCB_CFSR_LSPERR_Pos)                    /*!< SCB 
 643:Generated_Source\PSoC6\pdl\cmsis/include/core_cm4.h **** 
 644:Generated_Source\PSoC6\pdl\cmsis/include/core_cm4.h **** #define SCB_CFSR_STKERR_Pos               (SCB_CFSR_BUSFAULTSR_Pos + 4U)                  /*!< SCB 
 645:Generated_Source\PSoC6\pdl\cmsis/include/core_cm4.h **** #define SCB_CFSR_STKERR_Msk               (1UL << SCB_CFSR_STKERR_Pos)                    /*!< SCB 
 646:Generated_Source\PSoC6\pdl\cmsis/include/core_cm4.h **** 
 647:Generated_Source\PSoC6\pdl\cmsis/include/core_cm4.h **** #define SCB_CFSR_UNSTKERR_Pos             (SCB_CFSR_BUSFAULTSR_Pos + 3U)                  /*!< SCB 
 648:Generated_Source\PSoC6\pdl\cmsis/include/core_cm4.h **** #define SCB_CFSR_UNSTKERR_Msk             (1UL << SCB_CFSR_UNSTKERR_Pos)                  /*!< SCB 
 649:Generated_Source\PSoC6\pdl\cmsis/include/core_cm4.h **** 
 650:Generated_Source\PSoC6\pdl\cmsis/include/core_cm4.h **** #define SCB_CFSR_IMPRECISERR_Pos          (SCB_CFSR_BUSFAULTSR_Pos + 2U)                  /*!< SCB 
 651:Generated_Source\PSoC6\pdl\cmsis/include/core_cm4.h **** #define SCB_CFSR_IMPRECISERR_Msk          (1UL << SCB_CFSR_IMPRECISERR_Pos)               /*!< SCB 
 652:Generated_Source\PSoC6\pdl\cmsis/include/core_cm4.h **** 
 653:Generated_Source\PSoC6\pdl\cmsis/include/core_cm4.h **** #define SCB_CFSR_PRECISERR_Pos            (SCB_CFSR_BUSFAULTSR_Pos + 1U)                  /*!< SCB 
 654:Generated_Source\PSoC6\pdl\cmsis/include/core_cm4.h **** #define SCB_CFSR_PRECISERR_Msk            (1UL << SCB_CFSR_PRECISERR_Pos)                 /*!< SCB 
 655:Generated_Source\PSoC6\pdl\cmsis/include/core_cm4.h **** 
 656:Generated_Source\PSoC6\pdl\cmsis/include/core_cm4.h **** #define SCB_CFSR_IBUSERR_Pos              (SCB_CFSR_BUSFAULTSR_Pos + 0U)                  /*!< SCB 
 657:Generated_Source\PSoC6\pdl\cmsis/include/core_cm4.h **** #define SCB_CFSR_IBUSERR_Msk              (1UL << SCB_CFSR_IBUSERR_Pos)                   /*!< SCB 
 658:Generated_Source\PSoC6\pdl\cmsis/include/core_cm4.h **** 
 659:Generated_Source\PSoC6\pdl\cmsis/include/core_cm4.h **** /* UsageFault Status Register (part of SCB Configurable Fault Status Register) */
 660:Generated_Source\PSoC6\pdl\cmsis/include/core_cm4.h **** #define SCB_CFSR_DIVBYZERO_Pos            (SCB_CFSR_USGFAULTSR_Pos + 9U)                  /*!< SCB 
 661:Generated_Source\PSoC6\pdl\cmsis/include/core_cm4.h **** #define SCB_CFSR_DIVBYZERO_Msk            (1UL << SCB_CFSR_DIVBYZERO_Pos)                 /*!< SCB 
 662:Generated_Source\PSoC6\pdl\cmsis/include/core_cm4.h **** 
 663:Generated_Source\PSoC6\pdl\cmsis/include/core_cm4.h **** #define SCB_CFSR_UNALIGNED_Pos            (SCB_CFSR_USGFAULTSR_Pos + 8U)                  /*!< SCB 
 664:Generated_Source\PSoC6\pdl\cmsis/include/core_cm4.h **** #define SCB_CFSR_UNALIGNED_Msk            (1UL << SCB_CFSR_UNALIGNED_Pos)                 /*!< SCB 
 665:Generated_Source\PSoC6\pdl\cmsis/include/core_cm4.h **** 
 666:Generated_Source\PSoC6\pdl\cmsis/include/core_cm4.h **** #define SCB_CFSR_NOCP_Pos                 (SCB_CFSR_USGFAULTSR_Pos + 3U)                  /*!< SCB 
 667:Generated_Source\PSoC6\pdl\cmsis/include/core_cm4.h **** #define SCB_CFSR_NOCP_Msk                 (1UL << SCB_CFSR_NOCP_Pos)                      /*!< SCB 
 668:Generated_Source\PSoC6\pdl\cmsis/include/core_cm4.h **** 
 669:Generated_Source\PSoC6\pdl\cmsis/include/core_cm4.h **** #define SCB_CFSR_INVPC_Pos                (SCB_CFSR_USGFAULTSR_Pos + 2U)                  /*!< SCB 
 670:Generated_Source\PSoC6\pdl\cmsis/include/core_cm4.h **** #define SCB_CFSR_INVPC_Msk                (1UL << SCB_CFSR_INVPC_Pos)                     /*!< SCB 
 671:Generated_Source\PSoC6\pdl\cmsis/include/core_cm4.h **** 
 672:Generated_Source\PSoC6\pdl\cmsis/include/core_cm4.h **** #define SCB_CFSR_INVSTATE_Pos             (SCB_CFSR_USGFAULTSR_Pos + 1U)                  /*!< SCB 
 673:Generated_Source\PSoC6\pdl\cmsis/include/core_cm4.h **** #define SCB_CFSR_INVSTATE_Msk             (1UL << SCB_CFSR_INVSTATE_Pos)                  /*!< SCB 
 674:Generated_Source\PSoC6\pdl\cmsis/include/core_cm4.h **** 
 675:Generated_Source\PSoC6\pdl\cmsis/include/core_cm4.h **** #define SCB_CFSR_UNDEFINSTR_Pos           (SCB_CFSR_USGFAULTSR_Pos + 0U)                  /*!< SCB 
 676:Generated_Source\PSoC6\pdl\cmsis/include/core_cm4.h **** #define SCB_CFSR_UNDEFINSTR_Msk           (1UL << SCB_CFSR_UNDEFINSTR_Pos)                /*!< SCB 
 677:Generated_Source\PSoC6\pdl\cmsis/include/core_cm4.h **** 
ARM GAS  C:\Users\gjl\AppData\Local\Temp\ccCHEUhc.s 			page 31


 678:Generated_Source\PSoC6\pdl\cmsis/include/core_cm4.h **** /* SCB Hard Fault Status Register Definitions */
 679:Generated_Source\PSoC6\pdl\cmsis/include/core_cm4.h **** #define SCB_HFSR_DEBUGEVT_Pos              31U                                            /*!< SCB 
 680:Generated_Source\PSoC6\pdl\cmsis/include/core_cm4.h **** #define SCB_HFSR_DEBUGEVT_Msk              (1UL << SCB_HFSR_DEBUGEVT_Pos)                 /*!< SCB 
 681:Generated_Source\PSoC6\pdl\cmsis/include/core_cm4.h **** 
 682:Generated_Source\PSoC6\pdl\cmsis/include/core_cm4.h **** #define SCB_HFSR_FORCED_Pos                30U                                            /*!< SCB 
 683:Generated_Source\PSoC6\pdl\cmsis/include/core_cm4.h **** #define SCB_HFSR_FORCED_Msk                (1UL << SCB_HFSR_FORCED_Pos)                   /*!< SCB 
 684:Generated_Source\PSoC6\pdl\cmsis/include/core_cm4.h **** 
 685:Generated_Source\PSoC6\pdl\cmsis/include/core_cm4.h **** #define SCB_HFSR_VECTTBL_Pos                1U                                            /*!< SCB 
 686:Generated_Source\PSoC6\pdl\cmsis/include/core_cm4.h **** #define SCB_HFSR_VECTTBL_Msk               (1UL << SCB_HFSR_VECTTBL_Pos)                  /*!< SCB 
 687:Generated_Source\PSoC6\pdl\cmsis/include/core_cm4.h **** 
 688:Generated_Source\PSoC6\pdl\cmsis/include/core_cm4.h **** /* SCB Debug Fault Status Register Definitions */
 689:Generated_Source\PSoC6\pdl\cmsis/include/core_cm4.h **** #define SCB_DFSR_EXTERNAL_Pos               4U                                            /*!< SCB 
 690:Generated_Source\PSoC6\pdl\cmsis/include/core_cm4.h **** #define SCB_DFSR_EXTERNAL_Msk              (1UL << SCB_DFSR_EXTERNAL_Pos)                 /*!< SCB 
 691:Generated_Source\PSoC6\pdl\cmsis/include/core_cm4.h **** 
 692:Generated_Source\PSoC6\pdl\cmsis/include/core_cm4.h **** #define SCB_DFSR_VCATCH_Pos                 3U                                            /*!< SCB 
 693:Generated_Source\PSoC6\pdl\cmsis/include/core_cm4.h **** #define SCB_DFSR_VCATCH_Msk                (1UL << SCB_DFSR_VCATCH_Pos)                   /*!< SCB 
 694:Generated_Source\PSoC6\pdl\cmsis/include/core_cm4.h **** 
 695:Generated_Source\PSoC6\pdl\cmsis/include/core_cm4.h **** #define SCB_DFSR_DWTTRAP_Pos                2U                                            /*!< SCB 
 696:Generated_Source\PSoC6\pdl\cmsis/include/core_cm4.h **** #define SCB_DFSR_DWTTRAP_Msk               (1UL << SCB_DFSR_DWTTRAP_Pos)                  /*!< SCB 
 697:Generated_Source\PSoC6\pdl\cmsis/include/core_cm4.h **** 
 698:Generated_Source\PSoC6\pdl\cmsis/include/core_cm4.h **** #define SCB_DFSR_BKPT_Pos                   1U                                            /*!< SCB 
 699:Generated_Source\PSoC6\pdl\cmsis/include/core_cm4.h **** #define SCB_DFSR_BKPT_Msk                  (1UL << SCB_DFSR_BKPT_Pos)                     /*!< SCB 
 700:Generated_Source\PSoC6\pdl\cmsis/include/core_cm4.h **** 
 701:Generated_Source\PSoC6\pdl\cmsis/include/core_cm4.h **** #define SCB_DFSR_HALTED_Pos                 0U                                            /*!< SCB 
 702:Generated_Source\PSoC6\pdl\cmsis/include/core_cm4.h **** #define SCB_DFSR_HALTED_Msk                (1UL /*<< SCB_DFSR_HALTED_Pos*/)               /*!< SCB 
 703:Generated_Source\PSoC6\pdl\cmsis/include/core_cm4.h **** 
 704:Generated_Source\PSoC6\pdl\cmsis/include/core_cm4.h **** /*@} end of group CMSIS_SCB */
 705:Generated_Source\PSoC6\pdl\cmsis/include/core_cm4.h **** 
 706:Generated_Source\PSoC6\pdl\cmsis/include/core_cm4.h **** 
 707:Generated_Source\PSoC6\pdl\cmsis/include/core_cm4.h **** /**
 708:Generated_Source\PSoC6\pdl\cmsis/include/core_cm4.h ****   \ingroup  CMSIS_core_register
 709:Generated_Source\PSoC6\pdl\cmsis/include/core_cm4.h ****   \defgroup CMSIS_SCnSCB System Controls not in SCB (SCnSCB)
 710:Generated_Source\PSoC6\pdl\cmsis/include/core_cm4.h ****   \brief    Type definitions for the System Control and ID Register not in the SCB
 711:Generated_Source\PSoC6\pdl\cmsis/include/core_cm4.h ****   @{
 712:Generated_Source\PSoC6\pdl\cmsis/include/core_cm4.h ****  */
 713:Generated_Source\PSoC6\pdl\cmsis/include/core_cm4.h **** 
 714:Generated_Source\PSoC6\pdl\cmsis/include/core_cm4.h **** /**
 715:Generated_Source\PSoC6\pdl\cmsis/include/core_cm4.h ****   \brief  Structure type to access the System Control and ID Register not in the SCB.
 716:Generated_Source\PSoC6\pdl\cmsis/include/core_cm4.h ****  */
 717:Generated_Source\PSoC6\pdl\cmsis/include/core_cm4.h **** typedef struct
 718:Generated_Source\PSoC6\pdl\cmsis/include/core_cm4.h **** {
 719:Generated_Source\PSoC6\pdl\cmsis/include/core_cm4.h ****         uint32_t RESERVED0[1U];
 720:Generated_Source\PSoC6\pdl\cmsis/include/core_cm4.h ****   __IM  uint32_t ICTR;                   /*!< Offset: 0x004 (R/ )  Interrupt Controller Type Regist
 721:Generated_Source\PSoC6\pdl\cmsis/include/core_cm4.h ****   __IOM uint32_t ACTLR;                  /*!< Offset: 0x008 (R/W)  Auxiliary Control Register */
 722:Generated_Source\PSoC6\pdl\cmsis/include/core_cm4.h **** } SCnSCB_Type;
 723:Generated_Source\PSoC6\pdl\cmsis/include/core_cm4.h **** 
 724:Generated_Source\PSoC6\pdl\cmsis/include/core_cm4.h **** /* Interrupt Controller Type Register Definitions */
 725:Generated_Source\PSoC6\pdl\cmsis/include/core_cm4.h **** #define SCnSCB_ICTR_INTLINESNUM_Pos         0U                                         /*!< ICTR: I
 726:Generated_Source\PSoC6\pdl\cmsis/include/core_cm4.h **** #define SCnSCB_ICTR_INTLINESNUM_Msk        (0xFUL /*<< SCnSCB_ICTR_INTLINESNUM_Pos*/)  /*!< ICTR: I
 727:Generated_Source\PSoC6\pdl\cmsis/include/core_cm4.h **** 
 728:Generated_Source\PSoC6\pdl\cmsis/include/core_cm4.h **** /* Auxiliary Control Register Definitions */
 729:Generated_Source\PSoC6\pdl\cmsis/include/core_cm4.h **** #define SCnSCB_ACTLR_DISOOFP_Pos            9U                                         /*!< ACTLR: 
 730:Generated_Source\PSoC6\pdl\cmsis/include/core_cm4.h **** #define SCnSCB_ACTLR_DISOOFP_Msk           (1UL << SCnSCB_ACTLR_DISOOFP_Pos)           /*!< ACTLR: 
 731:Generated_Source\PSoC6\pdl\cmsis/include/core_cm4.h **** 
 732:Generated_Source\PSoC6\pdl\cmsis/include/core_cm4.h **** #define SCnSCB_ACTLR_DISFPCA_Pos            8U                                         /*!< ACTLR: 
 733:Generated_Source\PSoC6\pdl\cmsis/include/core_cm4.h **** #define SCnSCB_ACTLR_DISFPCA_Msk           (1UL << SCnSCB_ACTLR_DISFPCA_Pos)           /*!< ACTLR: 
 734:Generated_Source\PSoC6\pdl\cmsis/include/core_cm4.h **** 
ARM GAS  C:\Users\gjl\AppData\Local\Temp\ccCHEUhc.s 			page 32


 735:Generated_Source\PSoC6\pdl\cmsis/include/core_cm4.h **** #define SCnSCB_ACTLR_DISFOLD_Pos            2U                                         /*!< ACTLR: 
 736:Generated_Source\PSoC6\pdl\cmsis/include/core_cm4.h **** #define SCnSCB_ACTLR_DISFOLD_Msk           (1UL << SCnSCB_ACTLR_DISFOLD_Pos)           /*!< ACTLR: 
 737:Generated_Source\PSoC6\pdl\cmsis/include/core_cm4.h **** 
 738:Generated_Source\PSoC6\pdl\cmsis/include/core_cm4.h **** #define SCnSCB_ACTLR_DISDEFWBUF_Pos         1U                                         /*!< ACTLR: 
 739:Generated_Source\PSoC6\pdl\cmsis/include/core_cm4.h **** #define SCnSCB_ACTLR_DISDEFWBUF_Msk        (1UL << SCnSCB_ACTLR_DISDEFWBUF_Pos)        /*!< ACTLR: 
 740:Generated_Source\PSoC6\pdl\cmsis/include/core_cm4.h **** 
 741:Generated_Source\PSoC6\pdl\cmsis/include/core_cm4.h **** #define SCnSCB_ACTLR_DISMCYCINT_Pos         0U                                         /*!< ACTLR: 
 742:Generated_Source\PSoC6\pdl\cmsis/include/core_cm4.h **** #define SCnSCB_ACTLR_DISMCYCINT_Msk        (1UL /*<< SCnSCB_ACTLR_DISMCYCINT_Pos*/)    /*!< ACTLR: 
 743:Generated_Source\PSoC6\pdl\cmsis/include/core_cm4.h **** 
 744:Generated_Source\PSoC6\pdl\cmsis/include/core_cm4.h **** /*@} end of group CMSIS_SCnotSCB */
 745:Generated_Source\PSoC6\pdl\cmsis/include/core_cm4.h **** 
 746:Generated_Source\PSoC6\pdl\cmsis/include/core_cm4.h **** 
 747:Generated_Source\PSoC6\pdl\cmsis/include/core_cm4.h **** /**
 748:Generated_Source\PSoC6\pdl\cmsis/include/core_cm4.h ****   \ingroup  CMSIS_core_register
 749:Generated_Source\PSoC6\pdl\cmsis/include/core_cm4.h ****   \defgroup CMSIS_SysTick     System Tick Timer (SysTick)
 750:Generated_Source\PSoC6\pdl\cmsis/include/core_cm4.h ****   \brief    Type definitions for the System Timer Registers.
 751:Generated_Source\PSoC6\pdl\cmsis/include/core_cm4.h ****   @{
 752:Generated_Source\PSoC6\pdl\cmsis/include/core_cm4.h ****  */
 753:Generated_Source\PSoC6\pdl\cmsis/include/core_cm4.h **** 
 754:Generated_Source\PSoC6\pdl\cmsis/include/core_cm4.h **** /**
 755:Generated_Source\PSoC6\pdl\cmsis/include/core_cm4.h ****   \brief  Structure type to access the System Timer (SysTick).
 756:Generated_Source\PSoC6\pdl\cmsis/include/core_cm4.h ****  */
 757:Generated_Source\PSoC6\pdl\cmsis/include/core_cm4.h **** typedef struct
 758:Generated_Source\PSoC6\pdl\cmsis/include/core_cm4.h **** {
 759:Generated_Source\PSoC6\pdl\cmsis/include/core_cm4.h ****   __IOM uint32_t CTRL;                   /*!< Offset: 0x000 (R/W)  SysTick Control and Status Regis
 760:Generated_Source\PSoC6\pdl\cmsis/include/core_cm4.h ****   __IOM uint32_t LOAD;                   /*!< Offset: 0x004 (R/W)  SysTick Reload Value Register */
 761:Generated_Source\PSoC6\pdl\cmsis/include/core_cm4.h ****   __IOM uint32_t VAL;                    /*!< Offset: 0x008 (R/W)  SysTick Current Value Register *
 762:Generated_Source\PSoC6\pdl\cmsis/include/core_cm4.h ****   __IM  uint32_t CALIB;                  /*!< Offset: 0x00C (R/ )  SysTick Calibration Register */
 763:Generated_Source\PSoC6\pdl\cmsis/include/core_cm4.h **** } SysTick_Type;
 764:Generated_Source\PSoC6\pdl\cmsis/include/core_cm4.h **** 
 765:Generated_Source\PSoC6\pdl\cmsis/include/core_cm4.h **** /* SysTick Control / Status Register Definitions */
 766:Generated_Source\PSoC6\pdl\cmsis/include/core_cm4.h **** #define SysTick_CTRL_COUNTFLAG_Pos         16U                                            /*!< SysT
 767:Generated_Source\PSoC6\pdl\cmsis/include/core_cm4.h **** #define SysTick_CTRL_COUNTFLAG_Msk         (1UL << SysTick_CTRL_COUNTFLAG_Pos)            /*!< SysT
 768:Generated_Source\PSoC6\pdl\cmsis/include/core_cm4.h **** 
 769:Generated_Source\PSoC6\pdl\cmsis/include/core_cm4.h **** #define SysTick_CTRL_CLKSOURCE_Pos          2U                                            /*!< SysT
 770:Generated_Source\PSoC6\pdl\cmsis/include/core_cm4.h **** #define SysTick_CTRL_CLKSOURCE_Msk         (1UL << SysTick_CTRL_CLKSOURCE_Pos)            /*!< SysT
 771:Generated_Source\PSoC6\pdl\cmsis/include/core_cm4.h **** 
 772:Generated_Source\PSoC6\pdl\cmsis/include/core_cm4.h **** #define SysTick_CTRL_TICKINT_Pos            1U                                            /*!< SysT
 773:Generated_Source\PSoC6\pdl\cmsis/include/core_cm4.h **** #define SysTick_CTRL_TICKINT_Msk           (1UL << SysTick_CTRL_TICKINT_Pos)              /*!< SysT
 774:Generated_Source\PSoC6\pdl\cmsis/include/core_cm4.h **** 
 775:Generated_Source\PSoC6\pdl\cmsis/include/core_cm4.h **** #define SysTick_CTRL_ENABLE_Pos             0U                                            /*!< SysT
 776:Generated_Source\PSoC6\pdl\cmsis/include/core_cm4.h **** #define SysTick_CTRL_ENABLE_Msk            (1UL /*<< SysTick_CTRL_ENABLE_Pos*/)           /*!< SysT
 777:Generated_Source\PSoC6\pdl\cmsis/include/core_cm4.h **** 
 778:Generated_Source\PSoC6\pdl\cmsis/include/core_cm4.h **** /* SysTick Reload Register Definitions */
 779:Generated_Source\PSoC6\pdl\cmsis/include/core_cm4.h **** #define SysTick_LOAD_RELOAD_Pos             0U                                            /*!< SysT
 780:Generated_Source\PSoC6\pdl\cmsis/include/core_cm4.h **** #define SysTick_LOAD_RELOAD_Msk            (0xFFFFFFUL /*<< SysTick_LOAD_RELOAD_Pos*/)    /*!< SysT
 781:Generated_Source\PSoC6\pdl\cmsis/include/core_cm4.h **** 
 782:Generated_Source\PSoC6\pdl\cmsis/include/core_cm4.h **** /* SysTick Current Register Definitions */
 783:Generated_Source\PSoC6\pdl\cmsis/include/core_cm4.h **** #define SysTick_VAL_CURRENT_Pos             0U                                            /*!< SysT
 784:Generated_Source\PSoC6\pdl\cmsis/include/core_cm4.h **** #define SysTick_VAL_CURRENT_Msk            (0xFFFFFFUL /*<< SysTick_VAL_CURRENT_Pos*/)    /*!< SysT
 785:Generated_Source\PSoC6\pdl\cmsis/include/core_cm4.h **** 
 786:Generated_Source\PSoC6\pdl\cmsis/include/core_cm4.h **** /* SysTick Calibration Register Definitions */
 787:Generated_Source\PSoC6\pdl\cmsis/include/core_cm4.h **** #define SysTick_CALIB_NOREF_Pos            31U                                            /*!< SysT
 788:Generated_Source\PSoC6\pdl\cmsis/include/core_cm4.h **** #define SysTick_CALIB_NOREF_Msk            (1UL << SysTick_CALIB_NOREF_Pos)               /*!< SysT
 789:Generated_Source\PSoC6\pdl\cmsis/include/core_cm4.h **** 
 790:Generated_Source\PSoC6\pdl\cmsis/include/core_cm4.h **** #define SysTick_CALIB_SKEW_Pos             30U                                            /*!< SysT
 791:Generated_Source\PSoC6\pdl\cmsis/include/core_cm4.h **** #define SysTick_CALIB_SKEW_Msk             (1UL << SysTick_CALIB_SKEW_Pos)                /*!< SysT
ARM GAS  C:\Users\gjl\AppData\Local\Temp\ccCHEUhc.s 			page 33


 792:Generated_Source\PSoC6\pdl\cmsis/include/core_cm4.h **** 
 793:Generated_Source\PSoC6\pdl\cmsis/include/core_cm4.h **** #define SysTick_CALIB_TENMS_Pos             0U                                            /*!< SysT
 794:Generated_Source\PSoC6\pdl\cmsis/include/core_cm4.h **** #define SysTick_CALIB_TENMS_Msk            (0xFFFFFFUL /*<< SysTick_CALIB_TENMS_Pos*/)    /*!< SysT
 795:Generated_Source\PSoC6\pdl\cmsis/include/core_cm4.h **** 
 796:Generated_Source\PSoC6\pdl\cmsis/include/core_cm4.h **** /*@} end of group CMSIS_SysTick */
 797:Generated_Source\PSoC6\pdl\cmsis/include/core_cm4.h **** 
 798:Generated_Source\PSoC6\pdl\cmsis/include/core_cm4.h **** 
 799:Generated_Source\PSoC6\pdl\cmsis/include/core_cm4.h **** /**
 800:Generated_Source\PSoC6\pdl\cmsis/include/core_cm4.h ****   \ingroup  CMSIS_core_register
 801:Generated_Source\PSoC6\pdl\cmsis/include/core_cm4.h ****   \defgroup CMSIS_ITM     Instrumentation Trace Macrocell (ITM)
 802:Generated_Source\PSoC6\pdl\cmsis/include/core_cm4.h ****   \brief    Type definitions for the Instrumentation Trace Macrocell (ITM)
 803:Generated_Source\PSoC6\pdl\cmsis/include/core_cm4.h ****   @{
 804:Generated_Source\PSoC6\pdl\cmsis/include/core_cm4.h ****  */
 805:Generated_Source\PSoC6\pdl\cmsis/include/core_cm4.h **** 
 806:Generated_Source\PSoC6\pdl\cmsis/include/core_cm4.h **** /**
 807:Generated_Source\PSoC6\pdl\cmsis/include/core_cm4.h ****   \brief  Structure type to access the Instrumentation Trace Macrocell Register (ITM).
 808:Generated_Source\PSoC6\pdl\cmsis/include/core_cm4.h ****  */
 809:Generated_Source\PSoC6\pdl\cmsis/include/core_cm4.h **** typedef struct
 810:Generated_Source\PSoC6\pdl\cmsis/include/core_cm4.h **** {
 811:Generated_Source\PSoC6\pdl\cmsis/include/core_cm4.h ****   __OM  union
 812:Generated_Source\PSoC6\pdl\cmsis/include/core_cm4.h ****   {
 813:Generated_Source\PSoC6\pdl\cmsis/include/core_cm4.h ****     __OM  uint8_t    u8;                 /*!< Offset: 0x000 ( /W)  ITM Stimulus Port 8-bit */
 814:Generated_Source\PSoC6\pdl\cmsis/include/core_cm4.h ****     __OM  uint16_t   u16;                /*!< Offset: 0x000 ( /W)  ITM Stimulus Port 16-bit */
 815:Generated_Source\PSoC6\pdl\cmsis/include/core_cm4.h ****     __OM  uint32_t   u32;                /*!< Offset: 0x000 ( /W)  ITM Stimulus Port 32-bit */
 816:Generated_Source\PSoC6\pdl\cmsis/include/core_cm4.h ****   }  PORT [32U];                         /*!< Offset: 0x000 ( /W)  ITM Stimulus Port Registers */
 817:Generated_Source\PSoC6\pdl\cmsis/include/core_cm4.h ****         uint32_t RESERVED0[864U];
 818:Generated_Source\PSoC6\pdl\cmsis/include/core_cm4.h ****   __IOM uint32_t TER;                    /*!< Offset: 0xE00 (R/W)  ITM Trace Enable Register */
 819:Generated_Source\PSoC6\pdl\cmsis/include/core_cm4.h ****         uint32_t RESERVED1[15U];
 820:Generated_Source\PSoC6\pdl\cmsis/include/core_cm4.h ****   __IOM uint32_t TPR;                    /*!< Offset: 0xE40 (R/W)  ITM Trace Privilege Register */
 821:Generated_Source\PSoC6\pdl\cmsis/include/core_cm4.h ****         uint32_t RESERVED2[15U];
 822:Generated_Source\PSoC6\pdl\cmsis/include/core_cm4.h ****   __IOM uint32_t TCR;                    /*!< Offset: 0xE80 (R/W)  ITM Trace Control Register */
 823:Generated_Source\PSoC6\pdl\cmsis/include/core_cm4.h ****         uint32_t RESERVED3[29U];
 824:Generated_Source\PSoC6\pdl\cmsis/include/core_cm4.h ****   __OM  uint32_t IWR;                    /*!< Offset: 0xEF8 ( /W)  ITM Integration Write Register *
 825:Generated_Source\PSoC6\pdl\cmsis/include/core_cm4.h ****   __IM  uint32_t IRR;                    /*!< Offset: 0xEFC (R/ )  ITM Integration Read Register */
 826:Generated_Source\PSoC6\pdl\cmsis/include/core_cm4.h ****   __IOM uint32_t IMCR;                   /*!< Offset: 0xF00 (R/W)  ITM Integration Mode Control Reg
 827:Generated_Source\PSoC6\pdl\cmsis/include/core_cm4.h ****         uint32_t RESERVED4[43U];
 828:Generated_Source\PSoC6\pdl\cmsis/include/core_cm4.h ****   __OM  uint32_t LAR;                    /*!< Offset: 0xFB0 ( /W)  ITM Lock Access Register */
 829:Generated_Source\PSoC6\pdl\cmsis/include/core_cm4.h ****   __IM  uint32_t LSR;                    /*!< Offset: 0xFB4 (R/ )  ITM Lock Status Register */
 830:Generated_Source\PSoC6\pdl\cmsis/include/core_cm4.h ****         uint32_t RESERVED5[6U];
 831:Generated_Source\PSoC6\pdl\cmsis/include/core_cm4.h ****   __IM  uint32_t PID4;                   /*!< Offset: 0xFD0 (R/ )  ITM Peripheral Identification Re
 832:Generated_Source\PSoC6\pdl\cmsis/include/core_cm4.h ****   __IM  uint32_t PID5;                   /*!< Offset: 0xFD4 (R/ )  ITM Peripheral Identification Re
 833:Generated_Source\PSoC6\pdl\cmsis/include/core_cm4.h ****   __IM  uint32_t PID6;                   /*!< Offset: 0xFD8 (R/ )  ITM Peripheral Identification Re
 834:Generated_Source\PSoC6\pdl\cmsis/include/core_cm4.h ****   __IM  uint32_t PID7;                   /*!< Offset: 0xFDC (R/ )  ITM Peripheral Identification Re
 835:Generated_Source\PSoC6\pdl\cmsis/include/core_cm4.h ****   __IM  uint32_t PID0;                   /*!< Offset: 0xFE0 (R/ )  ITM Peripheral Identification Re
 836:Generated_Source\PSoC6\pdl\cmsis/include/core_cm4.h ****   __IM  uint32_t PID1;                   /*!< Offset: 0xFE4 (R/ )  ITM Peripheral Identification Re
 837:Generated_Source\PSoC6\pdl\cmsis/include/core_cm4.h ****   __IM  uint32_t PID2;                   /*!< Offset: 0xFE8 (R/ )  ITM Peripheral Identification Re
 838:Generated_Source\PSoC6\pdl\cmsis/include/core_cm4.h ****   __IM  uint32_t PID3;                   /*!< Offset: 0xFEC (R/ )  ITM Peripheral Identification Re
 839:Generated_Source\PSoC6\pdl\cmsis/include/core_cm4.h ****   __IM  uint32_t CID0;                   /*!< Offset: 0xFF0 (R/ )  ITM Component  Identification Re
 840:Generated_Source\PSoC6\pdl\cmsis/include/core_cm4.h ****   __IM  uint32_t CID1;                   /*!< Offset: 0xFF4 (R/ )  ITM Component  Identification Re
 841:Generated_Source\PSoC6\pdl\cmsis/include/core_cm4.h ****   __IM  uint32_t CID2;                   /*!< Offset: 0xFF8 (R/ )  ITM Component  Identification Re
 842:Generated_Source\PSoC6\pdl\cmsis/include/core_cm4.h ****   __IM  uint32_t CID3;                   /*!< Offset: 0xFFC (R/ )  ITM Component  Identification Re
 843:Generated_Source\PSoC6\pdl\cmsis/include/core_cm4.h **** } ITM_Type;
 844:Generated_Source\PSoC6\pdl\cmsis/include/core_cm4.h **** 
 845:Generated_Source\PSoC6\pdl\cmsis/include/core_cm4.h **** /* ITM Trace Privilege Register Definitions */
 846:Generated_Source\PSoC6\pdl\cmsis/include/core_cm4.h **** #define ITM_TPR_PRIVMASK_Pos                0U                                            /*!< ITM 
 847:Generated_Source\PSoC6\pdl\cmsis/include/core_cm4.h **** #define ITM_TPR_PRIVMASK_Msk               (0xFUL /*<< ITM_TPR_PRIVMASK_Pos*/)            /*!< ITM 
 848:Generated_Source\PSoC6\pdl\cmsis/include/core_cm4.h **** 
ARM GAS  C:\Users\gjl\AppData\Local\Temp\ccCHEUhc.s 			page 34


 849:Generated_Source\PSoC6\pdl\cmsis/include/core_cm4.h **** /* ITM Trace Control Register Definitions */
 850:Generated_Source\PSoC6\pdl\cmsis/include/core_cm4.h **** #define ITM_TCR_BUSY_Pos                   23U                                            /*!< ITM 
 851:Generated_Source\PSoC6\pdl\cmsis/include/core_cm4.h **** #define ITM_TCR_BUSY_Msk                   (1UL << ITM_TCR_BUSY_Pos)                      /*!< ITM 
 852:Generated_Source\PSoC6\pdl\cmsis/include/core_cm4.h **** 
 853:Generated_Source\PSoC6\pdl\cmsis/include/core_cm4.h **** #define ITM_TCR_TraceBusID_Pos             16U                                            /*!< ITM 
 854:Generated_Source\PSoC6\pdl\cmsis/include/core_cm4.h **** #define ITM_TCR_TraceBusID_Msk             (0x7FUL << ITM_TCR_TraceBusID_Pos)             /*!< ITM 
 855:Generated_Source\PSoC6\pdl\cmsis/include/core_cm4.h **** 
 856:Generated_Source\PSoC6\pdl\cmsis/include/core_cm4.h **** #define ITM_TCR_GTSFREQ_Pos                10U                                            /*!< ITM 
 857:Generated_Source\PSoC6\pdl\cmsis/include/core_cm4.h **** #define ITM_TCR_GTSFREQ_Msk                (3UL << ITM_TCR_GTSFREQ_Pos)                   /*!< ITM 
 858:Generated_Source\PSoC6\pdl\cmsis/include/core_cm4.h **** 
 859:Generated_Source\PSoC6\pdl\cmsis/include/core_cm4.h **** #define ITM_TCR_TSPrescale_Pos              8U                                            /*!< ITM 
 860:Generated_Source\PSoC6\pdl\cmsis/include/core_cm4.h **** #define ITM_TCR_TSPrescale_Msk             (3UL << ITM_TCR_TSPrescale_Pos)                /*!< ITM 
 861:Generated_Source\PSoC6\pdl\cmsis/include/core_cm4.h **** 
 862:Generated_Source\PSoC6\pdl\cmsis/include/core_cm4.h **** #define ITM_TCR_SWOENA_Pos                  4U                                            /*!< ITM 
 863:Generated_Source\PSoC6\pdl\cmsis/include/core_cm4.h **** #define ITM_TCR_SWOENA_Msk                 (1UL << ITM_TCR_SWOENA_Pos)                    /*!< ITM 
 864:Generated_Source\PSoC6\pdl\cmsis/include/core_cm4.h **** 
 865:Generated_Source\PSoC6\pdl\cmsis/include/core_cm4.h **** #define ITM_TCR_DWTENA_Pos                  3U                                            /*!< ITM 
 866:Generated_Source\PSoC6\pdl\cmsis/include/core_cm4.h **** #define ITM_TCR_DWTENA_Msk                 (1UL << ITM_TCR_DWTENA_Pos)                    /*!< ITM 
 867:Generated_Source\PSoC6\pdl\cmsis/include/core_cm4.h **** 
 868:Generated_Source\PSoC6\pdl\cmsis/include/core_cm4.h **** #define ITM_TCR_SYNCENA_Pos                 2U                                            /*!< ITM 
 869:Generated_Source\PSoC6\pdl\cmsis/include/core_cm4.h **** #define ITM_TCR_SYNCENA_Msk                (1UL << ITM_TCR_SYNCENA_Pos)                   /*!< ITM 
 870:Generated_Source\PSoC6\pdl\cmsis/include/core_cm4.h **** 
 871:Generated_Source\PSoC6\pdl\cmsis/include/core_cm4.h **** #define ITM_TCR_TSENA_Pos                   1U                                            /*!< ITM 
 872:Generated_Source\PSoC6\pdl\cmsis/include/core_cm4.h **** #define ITM_TCR_TSENA_Msk                  (1UL << ITM_TCR_TSENA_Pos)                     /*!< ITM 
 873:Generated_Source\PSoC6\pdl\cmsis/include/core_cm4.h **** 
 874:Generated_Source\PSoC6\pdl\cmsis/include/core_cm4.h **** #define ITM_TCR_ITMENA_Pos                  0U                                            /*!< ITM 
 875:Generated_Source\PSoC6\pdl\cmsis/include/core_cm4.h **** #define ITM_TCR_ITMENA_Msk                 (1UL /*<< ITM_TCR_ITMENA_Pos*/)                /*!< ITM 
 876:Generated_Source\PSoC6\pdl\cmsis/include/core_cm4.h **** 
 877:Generated_Source\PSoC6\pdl\cmsis/include/core_cm4.h **** /* ITM Integration Write Register Definitions */
 878:Generated_Source\PSoC6\pdl\cmsis/include/core_cm4.h **** #define ITM_IWR_ATVALIDM_Pos                0U                                            /*!< ITM 
 879:Generated_Source\PSoC6\pdl\cmsis/include/core_cm4.h **** #define ITM_IWR_ATVALIDM_Msk               (1UL /*<< ITM_IWR_ATVALIDM_Pos*/)              /*!< ITM 
 880:Generated_Source\PSoC6\pdl\cmsis/include/core_cm4.h **** 
 881:Generated_Source\PSoC6\pdl\cmsis/include/core_cm4.h **** /* ITM Integration Read Register Definitions */
 882:Generated_Source\PSoC6\pdl\cmsis/include/core_cm4.h **** #define ITM_IRR_ATREADYM_Pos                0U                                            /*!< ITM 
 883:Generated_Source\PSoC6\pdl\cmsis/include/core_cm4.h **** #define ITM_IRR_ATREADYM_Msk               (1UL /*<< ITM_IRR_ATREADYM_Pos*/)              /*!< ITM 
 884:Generated_Source\PSoC6\pdl\cmsis/include/core_cm4.h **** 
 885:Generated_Source\PSoC6\pdl\cmsis/include/core_cm4.h **** /* ITM Integration Mode Control Register Definitions */
 886:Generated_Source\PSoC6\pdl\cmsis/include/core_cm4.h **** #define ITM_IMCR_INTEGRATION_Pos            0U                                            /*!< ITM 
 887:Generated_Source\PSoC6\pdl\cmsis/include/core_cm4.h **** #define ITM_IMCR_INTEGRATION_Msk           (1UL /*<< ITM_IMCR_INTEGRATION_Pos*/)          /*!< ITM 
 888:Generated_Source\PSoC6\pdl\cmsis/include/core_cm4.h **** 
 889:Generated_Source\PSoC6\pdl\cmsis/include/core_cm4.h **** /* ITM Lock Status Register Definitions */
 890:Generated_Source\PSoC6\pdl\cmsis/include/core_cm4.h **** #define ITM_LSR_ByteAcc_Pos                 2U                                            /*!< ITM 
 891:Generated_Source\PSoC6\pdl\cmsis/include/core_cm4.h **** #define ITM_LSR_ByteAcc_Msk                (1UL << ITM_LSR_ByteAcc_Pos)                   /*!< ITM 
 892:Generated_Source\PSoC6\pdl\cmsis/include/core_cm4.h **** 
 893:Generated_Source\PSoC6\pdl\cmsis/include/core_cm4.h **** #define ITM_LSR_Access_Pos                  1U                                            /*!< ITM 
 894:Generated_Source\PSoC6\pdl\cmsis/include/core_cm4.h **** #define ITM_LSR_Access_Msk                 (1UL << ITM_LSR_Access_Pos)                    /*!< ITM 
 895:Generated_Source\PSoC6\pdl\cmsis/include/core_cm4.h **** 
 896:Generated_Source\PSoC6\pdl\cmsis/include/core_cm4.h **** #define ITM_LSR_Present_Pos                 0U                                            /*!< ITM 
 897:Generated_Source\PSoC6\pdl\cmsis/include/core_cm4.h **** #define ITM_LSR_Present_Msk                (1UL /*<< ITM_LSR_Present_Pos*/)               /*!< ITM 
 898:Generated_Source\PSoC6\pdl\cmsis/include/core_cm4.h **** 
 899:Generated_Source\PSoC6\pdl\cmsis/include/core_cm4.h **** /*@}*/ /* end of group CMSIS_ITM */
 900:Generated_Source\PSoC6\pdl\cmsis/include/core_cm4.h **** 
 901:Generated_Source\PSoC6\pdl\cmsis/include/core_cm4.h **** 
 902:Generated_Source\PSoC6\pdl\cmsis/include/core_cm4.h **** /**
 903:Generated_Source\PSoC6\pdl\cmsis/include/core_cm4.h ****   \ingroup  CMSIS_core_register
 904:Generated_Source\PSoC6\pdl\cmsis/include/core_cm4.h ****   \defgroup CMSIS_DWT     Data Watchpoint and Trace (DWT)
 905:Generated_Source\PSoC6\pdl\cmsis/include/core_cm4.h ****   \brief    Type definitions for the Data Watchpoint and Trace (DWT)
ARM GAS  C:\Users\gjl\AppData\Local\Temp\ccCHEUhc.s 			page 35


 906:Generated_Source\PSoC6\pdl\cmsis/include/core_cm4.h ****   @{
 907:Generated_Source\PSoC6\pdl\cmsis/include/core_cm4.h ****  */
 908:Generated_Source\PSoC6\pdl\cmsis/include/core_cm4.h **** 
 909:Generated_Source\PSoC6\pdl\cmsis/include/core_cm4.h **** /**
 910:Generated_Source\PSoC6\pdl\cmsis/include/core_cm4.h ****   \brief  Structure type to access the Data Watchpoint and Trace Register (DWT).
 911:Generated_Source\PSoC6\pdl\cmsis/include/core_cm4.h ****  */
 912:Generated_Source\PSoC6\pdl\cmsis/include/core_cm4.h **** typedef struct
 913:Generated_Source\PSoC6\pdl\cmsis/include/core_cm4.h **** {
 914:Generated_Source\PSoC6\pdl\cmsis/include/core_cm4.h ****   __IOM uint32_t CTRL;                   /*!< Offset: 0x000 (R/W)  Control Register */
 915:Generated_Source\PSoC6\pdl\cmsis/include/core_cm4.h ****   __IOM uint32_t CYCCNT;                 /*!< Offset: 0x004 (R/W)  Cycle Count Register */
 916:Generated_Source\PSoC6\pdl\cmsis/include/core_cm4.h ****   __IOM uint32_t CPICNT;                 /*!< Offset: 0x008 (R/W)  CPI Count Register */
 917:Generated_Source\PSoC6\pdl\cmsis/include/core_cm4.h ****   __IOM uint32_t EXCCNT;                 /*!< Offset: 0x00C (R/W)  Exception Overhead Count Registe
 918:Generated_Source\PSoC6\pdl\cmsis/include/core_cm4.h ****   __IOM uint32_t SLEEPCNT;               /*!< Offset: 0x010 (R/W)  Sleep Count Register */
 919:Generated_Source\PSoC6\pdl\cmsis/include/core_cm4.h ****   __IOM uint32_t LSUCNT;                 /*!< Offset: 0x014 (R/W)  LSU Count Register */
 920:Generated_Source\PSoC6\pdl\cmsis/include/core_cm4.h ****   __IOM uint32_t FOLDCNT;                /*!< Offset: 0x018 (R/W)  Folded-instruction Count Registe
 921:Generated_Source\PSoC6\pdl\cmsis/include/core_cm4.h ****   __IM  uint32_t PCSR;                   /*!< Offset: 0x01C (R/ )  Program Counter Sample Register 
 922:Generated_Source\PSoC6\pdl\cmsis/include/core_cm4.h ****   __IOM uint32_t COMP0;                  /*!< Offset: 0x020 (R/W)  Comparator Register 0 */
 923:Generated_Source\PSoC6\pdl\cmsis/include/core_cm4.h ****   __IOM uint32_t MASK0;                  /*!< Offset: 0x024 (R/W)  Mask Register 0 */
 924:Generated_Source\PSoC6\pdl\cmsis/include/core_cm4.h ****   __IOM uint32_t FUNCTION0;              /*!< Offset: 0x028 (R/W)  Function Register 0 */
 925:Generated_Source\PSoC6\pdl\cmsis/include/core_cm4.h ****         uint32_t RESERVED0[1U];
 926:Generated_Source\PSoC6\pdl\cmsis/include/core_cm4.h ****   __IOM uint32_t COMP1;                  /*!< Offset: 0x030 (R/W)  Comparator Register 1 */
 927:Generated_Source\PSoC6\pdl\cmsis/include/core_cm4.h ****   __IOM uint32_t MASK1;                  /*!< Offset: 0x034 (R/W)  Mask Register 1 */
 928:Generated_Source\PSoC6\pdl\cmsis/include/core_cm4.h ****   __IOM uint32_t FUNCTION1;              /*!< Offset: 0x038 (R/W)  Function Register 1 */
 929:Generated_Source\PSoC6\pdl\cmsis/include/core_cm4.h ****         uint32_t RESERVED1[1U];
 930:Generated_Source\PSoC6\pdl\cmsis/include/core_cm4.h ****   __IOM uint32_t COMP2;                  /*!< Offset: 0x040 (R/W)  Comparator Register 2 */
 931:Generated_Source\PSoC6\pdl\cmsis/include/core_cm4.h ****   __IOM uint32_t MASK2;                  /*!< Offset: 0x044 (R/W)  Mask Register 2 */
 932:Generated_Source\PSoC6\pdl\cmsis/include/core_cm4.h ****   __IOM uint32_t FUNCTION2;              /*!< Offset: 0x048 (R/W)  Function Register 2 */
 933:Generated_Source\PSoC6\pdl\cmsis/include/core_cm4.h ****         uint32_t RESERVED2[1U];
 934:Generated_Source\PSoC6\pdl\cmsis/include/core_cm4.h ****   __IOM uint32_t COMP3;                  /*!< Offset: 0x050 (R/W)  Comparator Register 3 */
 935:Generated_Source\PSoC6\pdl\cmsis/include/core_cm4.h ****   __IOM uint32_t MASK3;                  /*!< Offset: 0x054 (R/W)  Mask Register 3 */
 936:Generated_Source\PSoC6\pdl\cmsis/include/core_cm4.h ****   __IOM uint32_t FUNCTION3;              /*!< Offset: 0x058 (R/W)  Function Register 3 */
 937:Generated_Source\PSoC6\pdl\cmsis/include/core_cm4.h **** } DWT_Type;
 938:Generated_Source\PSoC6\pdl\cmsis/include/core_cm4.h **** 
 939:Generated_Source\PSoC6\pdl\cmsis/include/core_cm4.h **** /* DWT Control Register Definitions */
 940:Generated_Source\PSoC6\pdl\cmsis/include/core_cm4.h **** #define DWT_CTRL_NUMCOMP_Pos               28U                                         /*!< DWT CTR
 941:Generated_Source\PSoC6\pdl\cmsis/include/core_cm4.h **** #define DWT_CTRL_NUMCOMP_Msk               (0xFUL << DWT_CTRL_NUMCOMP_Pos)             /*!< DWT CTR
 942:Generated_Source\PSoC6\pdl\cmsis/include/core_cm4.h **** 
 943:Generated_Source\PSoC6\pdl\cmsis/include/core_cm4.h **** #define DWT_CTRL_NOTRCPKT_Pos              27U                                         /*!< DWT CTR
 944:Generated_Source\PSoC6\pdl\cmsis/include/core_cm4.h **** #define DWT_CTRL_NOTRCPKT_Msk              (0x1UL << DWT_CTRL_NOTRCPKT_Pos)            /*!< DWT CTR
 945:Generated_Source\PSoC6\pdl\cmsis/include/core_cm4.h **** 
 946:Generated_Source\PSoC6\pdl\cmsis/include/core_cm4.h **** #define DWT_CTRL_NOEXTTRIG_Pos             26U                                         /*!< DWT CTR
 947:Generated_Source\PSoC6\pdl\cmsis/include/core_cm4.h **** #define DWT_CTRL_NOEXTTRIG_Msk             (0x1UL << DWT_CTRL_NOEXTTRIG_Pos)           /*!< DWT CTR
 948:Generated_Source\PSoC6\pdl\cmsis/include/core_cm4.h **** 
 949:Generated_Source\PSoC6\pdl\cmsis/include/core_cm4.h **** #define DWT_CTRL_NOCYCCNT_Pos              25U                                         /*!< DWT CTR
 950:Generated_Source\PSoC6\pdl\cmsis/include/core_cm4.h **** #define DWT_CTRL_NOCYCCNT_Msk              (0x1UL << DWT_CTRL_NOCYCCNT_Pos)            /*!< DWT CTR
 951:Generated_Source\PSoC6\pdl\cmsis/include/core_cm4.h **** 
 952:Generated_Source\PSoC6\pdl\cmsis/include/core_cm4.h **** #define DWT_CTRL_NOPRFCNT_Pos              24U                                         /*!< DWT CTR
 953:Generated_Source\PSoC6\pdl\cmsis/include/core_cm4.h **** #define DWT_CTRL_NOPRFCNT_Msk              (0x1UL << DWT_CTRL_NOPRFCNT_Pos)            /*!< DWT CTR
 954:Generated_Source\PSoC6\pdl\cmsis/include/core_cm4.h **** 
 955:Generated_Source\PSoC6\pdl\cmsis/include/core_cm4.h **** #define DWT_CTRL_CYCEVTENA_Pos             22U                                         /*!< DWT CTR
 956:Generated_Source\PSoC6\pdl\cmsis/include/core_cm4.h **** #define DWT_CTRL_CYCEVTENA_Msk             (0x1UL << DWT_CTRL_CYCEVTENA_Pos)           /*!< DWT CTR
 957:Generated_Source\PSoC6\pdl\cmsis/include/core_cm4.h **** 
 958:Generated_Source\PSoC6\pdl\cmsis/include/core_cm4.h **** #define DWT_CTRL_FOLDEVTENA_Pos            21U                                         /*!< DWT CTR
 959:Generated_Source\PSoC6\pdl\cmsis/include/core_cm4.h **** #define DWT_CTRL_FOLDEVTENA_Msk            (0x1UL << DWT_CTRL_FOLDEVTENA_Pos)          /*!< DWT CTR
 960:Generated_Source\PSoC6\pdl\cmsis/include/core_cm4.h **** 
 961:Generated_Source\PSoC6\pdl\cmsis/include/core_cm4.h **** #define DWT_CTRL_LSUEVTENA_Pos             20U                                         /*!< DWT CTR
 962:Generated_Source\PSoC6\pdl\cmsis/include/core_cm4.h **** #define DWT_CTRL_LSUEVTENA_Msk             (0x1UL << DWT_CTRL_LSUEVTENA_Pos)           /*!< DWT CTR
ARM GAS  C:\Users\gjl\AppData\Local\Temp\ccCHEUhc.s 			page 36


 963:Generated_Source\PSoC6\pdl\cmsis/include/core_cm4.h **** 
 964:Generated_Source\PSoC6\pdl\cmsis/include/core_cm4.h **** #define DWT_CTRL_SLEEPEVTENA_Pos           19U                                         /*!< DWT CTR
 965:Generated_Source\PSoC6\pdl\cmsis/include/core_cm4.h **** #define DWT_CTRL_SLEEPEVTENA_Msk           (0x1UL << DWT_CTRL_SLEEPEVTENA_Pos)         /*!< DWT CTR
 966:Generated_Source\PSoC6\pdl\cmsis/include/core_cm4.h **** 
 967:Generated_Source\PSoC6\pdl\cmsis/include/core_cm4.h **** #define DWT_CTRL_EXCEVTENA_Pos             18U                                         /*!< DWT CTR
 968:Generated_Source\PSoC6\pdl\cmsis/include/core_cm4.h **** #define DWT_CTRL_EXCEVTENA_Msk             (0x1UL << DWT_CTRL_EXCEVTENA_Pos)           /*!< DWT CTR
 969:Generated_Source\PSoC6\pdl\cmsis/include/core_cm4.h **** 
 970:Generated_Source\PSoC6\pdl\cmsis/include/core_cm4.h **** #define DWT_CTRL_CPIEVTENA_Pos             17U                                         /*!< DWT CTR
 971:Generated_Source\PSoC6\pdl\cmsis/include/core_cm4.h **** #define DWT_CTRL_CPIEVTENA_Msk             (0x1UL << DWT_CTRL_CPIEVTENA_Pos)           /*!< DWT CTR
 972:Generated_Source\PSoC6\pdl\cmsis/include/core_cm4.h **** 
 973:Generated_Source\PSoC6\pdl\cmsis/include/core_cm4.h **** #define DWT_CTRL_EXCTRCENA_Pos             16U                                         /*!< DWT CTR
 974:Generated_Source\PSoC6\pdl\cmsis/include/core_cm4.h **** #define DWT_CTRL_EXCTRCENA_Msk             (0x1UL << DWT_CTRL_EXCTRCENA_Pos)           /*!< DWT CTR
 975:Generated_Source\PSoC6\pdl\cmsis/include/core_cm4.h **** 
 976:Generated_Source\PSoC6\pdl\cmsis/include/core_cm4.h **** #define DWT_CTRL_PCSAMPLENA_Pos            12U                                         /*!< DWT CTR
 977:Generated_Source\PSoC6\pdl\cmsis/include/core_cm4.h **** #define DWT_CTRL_PCSAMPLENA_Msk            (0x1UL << DWT_CTRL_PCSAMPLENA_Pos)          /*!< DWT CTR
 978:Generated_Source\PSoC6\pdl\cmsis/include/core_cm4.h **** 
 979:Generated_Source\PSoC6\pdl\cmsis/include/core_cm4.h **** #define DWT_CTRL_SYNCTAP_Pos               10U                                         /*!< DWT CTR
 980:Generated_Source\PSoC6\pdl\cmsis/include/core_cm4.h **** #define DWT_CTRL_SYNCTAP_Msk               (0x3UL << DWT_CTRL_SYNCTAP_Pos)             /*!< DWT CTR
 981:Generated_Source\PSoC6\pdl\cmsis/include/core_cm4.h **** 
 982:Generated_Source\PSoC6\pdl\cmsis/include/core_cm4.h **** #define DWT_CTRL_CYCTAP_Pos                 9U                                         /*!< DWT CTR
 983:Generated_Source\PSoC6\pdl\cmsis/include/core_cm4.h **** #define DWT_CTRL_CYCTAP_Msk                (0x1UL << DWT_CTRL_CYCTAP_Pos)              /*!< DWT CTR
 984:Generated_Source\PSoC6\pdl\cmsis/include/core_cm4.h **** 
 985:Generated_Source\PSoC6\pdl\cmsis/include/core_cm4.h **** #define DWT_CTRL_POSTINIT_Pos               5U                                         /*!< DWT CTR
 986:Generated_Source\PSoC6\pdl\cmsis/include/core_cm4.h **** #define DWT_CTRL_POSTINIT_Msk              (0xFUL << DWT_CTRL_POSTINIT_Pos)            /*!< DWT CTR
 987:Generated_Source\PSoC6\pdl\cmsis/include/core_cm4.h **** 
 988:Generated_Source\PSoC6\pdl\cmsis/include/core_cm4.h **** #define DWT_CTRL_POSTPRESET_Pos             1U                                         /*!< DWT CTR
 989:Generated_Source\PSoC6\pdl\cmsis/include/core_cm4.h **** #define DWT_CTRL_POSTPRESET_Msk            (0xFUL << DWT_CTRL_POSTPRESET_Pos)          /*!< DWT CTR
 990:Generated_Source\PSoC6\pdl\cmsis/include/core_cm4.h **** 
 991:Generated_Source\PSoC6\pdl\cmsis/include/core_cm4.h **** #define DWT_CTRL_CYCCNTENA_Pos              0U                                         /*!< DWT CTR
 992:Generated_Source\PSoC6\pdl\cmsis/include/core_cm4.h **** #define DWT_CTRL_CYCCNTENA_Msk             (0x1UL /*<< DWT_CTRL_CYCCNTENA_Pos*/)       /*!< DWT CTR
 993:Generated_Source\PSoC6\pdl\cmsis/include/core_cm4.h **** 
 994:Generated_Source\PSoC6\pdl\cmsis/include/core_cm4.h **** /* DWT CPI Count Register Definitions */
 995:Generated_Source\PSoC6\pdl\cmsis/include/core_cm4.h **** #define DWT_CPICNT_CPICNT_Pos               0U                                         /*!< DWT CPI
 996:Generated_Source\PSoC6\pdl\cmsis/include/core_cm4.h **** #define DWT_CPICNT_CPICNT_Msk              (0xFFUL /*<< DWT_CPICNT_CPICNT_Pos*/)       /*!< DWT CPI
 997:Generated_Source\PSoC6\pdl\cmsis/include/core_cm4.h **** 
 998:Generated_Source\PSoC6\pdl\cmsis/include/core_cm4.h **** /* DWT Exception Overhead Count Register Definitions */
 999:Generated_Source\PSoC6\pdl\cmsis/include/core_cm4.h **** #define DWT_EXCCNT_EXCCNT_Pos               0U                                         /*!< DWT EXC
1000:Generated_Source\PSoC6\pdl\cmsis/include/core_cm4.h **** #define DWT_EXCCNT_EXCCNT_Msk              (0xFFUL /*<< DWT_EXCCNT_EXCCNT_Pos*/)       /*!< DWT EXC
1001:Generated_Source\PSoC6\pdl\cmsis/include/core_cm4.h **** 
1002:Generated_Source\PSoC6\pdl\cmsis/include/core_cm4.h **** /* DWT Sleep Count Register Definitions */
1003:Generated_Source\PSoC6\pdl\cmsis/include/core_cm4.h **** #define DWT_SLEEPCNT_SLEEPCNT_Pos           0U                                         /*!< DWT SLE
1004:Generated_Source\PSoC6\pdl\cmsis/include/core_cm4.h **** #define DWT_SLEEPCNT_SLEEPCNT_Msk          (0xFFUL /*<< DWT_SLEEPCNT_SLEEPCNT_Pos*/)   /*!< DWT SLE
1005:Generated_Source\PSoC6\pdl\cmsis/include/core_cm4.h **** 
1006:Generated_Source\PSoC6\pdl\cmsis/include/core_cm4.h **** /* DWT LSU Count Register Definitions */
1007:Generated_Source\PSoC6\pdl\cmsis/include/core_cm4.h **** #define DWT_LSUCNT_LSUCNT_Pos               0U                                         /*!< DWT LSU
1008:Generated_Source\PSoC6\pdl\cmsis/include/core_cm4.h **** #define DWT_LSUCNT_LSUCNT_Msk              (0xFFUL /*<< DWT_LSUCNT_LSUCNT_Pos*/)       /*!< DWT LSU
1009:Generated_Source\PSoC6\pdl\cmsis/include/core_cm4.h **** 
1010:Generated_Source\PSoC6\pdl\cmsis/include/core_cm4.h **** /* DWT Folded-instruction Count Register Definitions */
1011:Generated_Source\PSoC6\pdl\cmsis/include/core_cm4.h **** #define DWT_FOLDCNT_FOLDCNT_Pos             0U                                         /*!< DWT FOL
1012:Generated_Source\PSoC6\pdl\cmsis/include/core_cm4.h **** #define DWT_FOLDCNT_FOLDCNT_Msk            (0xFFUL /*<< DWT_FOLDCNT_FOLDCNT_Pos*/)     /*!< DWT FOL
1013:Generated_Source\PSoC6\pdl\cmsis/include/core_cm4.h **** 
1014:Generated_Source\PSoC6\pdl\cmsis/include/core_cm4.h **** /* DWT Comparator Mask Register Definitions */
1015:Generated_Source\PSoC6\pdl\cmsis/include/core_cm4.h **** #define DWT_MASK_MASK_Pos                   0U                                         /*!< DWT MAS
1016:Generated_Source\PSoC6\pdl\cmsis/include/core_cm4.h **** #define DWT_MASK_MASK_Msk                  (0x1FUL /*<< DWT_MASK_MASK_Pos*/)           /*!< DWT MAS
1017:Generated_Source\PSoC6\pdl\cmsis/include/core_cm4.h **** 
1018:Generated_Source\PSoC6\pdl\cmsis/include/core_cm4.h **** /* DWT Comparator Function Register Definitions */
1019:Generated_Source\PSoC6\pdl\cmsis/include/core_cm4.h **** #define DWT_FUNCTION_MATCHED_Pos           24U                                         /*!< DWT FUN
ARM GAS  C:\Users\gjl\AppData\Local\Temp\ccCHEUhc.s 			page 37


1020:Generated_Source\PSoC6\pdl\cmsis/include/core_cm4.h **** #define DWT_FUNCTION_MATCHED_Msk           (0x1UL << DWT_FUNCTION_MATCHED_Pos)         /*!< DWT FUN
1021:Generated_Source\PSoC6\pdl\cmsis/include/core_cm4.h **** 
1022:Generated_Source\PSoC6\pdl\cmsis/include/core_cm4.h **** #define DWT_FUNCTION_DATAVADDR1_Pos        16U                                         /*!< DWT FUN
1023:Generated_Source\PSoC6\pdl\cmsis/include/core_cm4.h **** #define DWT_FUNCTION_DATAVADDR1_Msk        (0xFUL << DWT_FUNCTION_DATAVADDR1_Pos)      /*!< DWT FUN
1024:Generated_Source\PSoC6\pdl\cmsis/include/core_cm4.h **** 
1025:Generated_Source\PSoC6\pdl\cmsis/include/core_cm4.h **** #define DWT_FUNCTION_DATAVADDR0_Pos        12U                                         /*!< DWT FUN
1026:Generated_Source\PSoC6\pdl\cmsis/include/core_cm4.h **** #define DWT_FUNCTION_DATAVADDR0_Msk        (0xFUL << DWT_FUNCTION_DATAVADDR0_Pos)      /*!< DWT FUN
1027:Generated_Source\PSoC6\pdl\cmsis/include/core_cm4.h **** 
1028:Generated_Source\PSoC6\pdl\cmsis/include/core_cm4.h **** #define DWT_FUNCTION_DATAVSIZE_Pos         10U                                         /*!< DWT FUN
1029:Generated_Source\PSoC6\pdl\cmsis/include/core_cm4.h **** #define DWT_FUNCTION_DATAVSIZE_Msk         (0x3UL << DWT_FUNCTION_DATAVSIZE_Pos)       /*!< DWT FUN
1030:Generated_Source\PSoC6\pdl\cmsis/include/core_cm4.h **** 
1031:Generated_Source\PSoC6\pdl\cmsis/include/core_cm4.h **** #define DWT_FUNCTION_LNK1ENA_Pos            9U                                         /*!< DWT FUN
1032:Generated_Source\PSoC6\pdl\cmsis/include/core_cm4.h **** #define DWT_FUNCTION_LNK1ENA_Msk           (0x1UL << DWT_FUNCTION_LNK1ENA_Pos)         /*!< DWT FUN
1033:Generated_Source\PSoC6\pdl\cmsis/include/core_cm4.h **** 
1034:Generated_Source\PSoC6\pdl\cmsis/include/core_cm4.h **** #define DWT_FUNCTION_DATAVMATCH_Pos         8U                                         /*!< DWT FUN
1035:Generated_Source\PSoC6\pdl\cmsis/include/core_cm4.h **** #define DWT_FUNCTION_DATAVMATCH_Msk        (0x1UL << DWT_FUNCTION_DATAVMATCH_Pos)      /*!< DWT FUN
1036:Generated_Source\PSoC6\pdl\cmsis/include/core_cm4.h **** 
1037:Generated_Source\PSoC6\pdl\cmsis/include/core_cm4.h **** #define DWT_FUNCTION_CYCMATCH_Pos           7U                                         /*!< DWT FUN
1038:Generated_Source\PSoC6\pdl\cmsis/include/core_cm4.h **** #define DWT_FUNCTION_CYCMATCH_Msk          (0x1UL << DWT_FUNCTION_CYCMATCH_Pos)        /*!< DWT FUN
1039:Generated_Source\PSoC6\pdl\cmsis/include/core_cm4.h **** 
1040:Generated_Source\PSoC6\pdl\cmsis/include/core_cm4.h **** #define DWT_FUNCTION_EMITRANGE_Pos          5U                                         /*!< DWT FUN
1041:Generated_Source\PSoC6\pdl\cmsis/include/core_cm4.h **** #define DWT_FUNCTION_EMITRANGE_Msk         (0x1UL << DWT_FUNCTION_EMITRANGE_Pos)       /*!< DWT FUN
1042:Generated_Source\PSoC6\pdl\cmsis/include/core_cm4.h **** 
1043:Generated_Source\PSoC6\pdl\cmsis/include/core_cm4.h **** #define DWT_FUNCTION_FUNCTION_Pos           0U                                         /*!< DWT FUN
1044:Generated_Source\PSoC6\pdl\cmsis/include/core_cm4.h **** #define DWT_FUNCTION_FUNCTION_Msk          (0xFUL /*<< DWT_FUNCTION_FUNCTION_Pos*/)    /*!< DWT FUN
1045:Generated_Source\PSoC6\pdl\cmsis/include/core_cm4.h **** 
1046:Generated_Source\PSoC6\pdl\cmsis/include/core_cm4.h **** /*@}*/ /* end of group CMSIS_DWT */
1047:Generated_Source\PSoC6\pdl\cmsis/include/core_cm4.h **** 
1048:Generated_Source\PSoC6\pdl\cmsis/include/core_cm4.h **** 
1049:Generated_Source\PSoC6\pdl\cmsis/include/core_cm4.h **** /**
1050:Generated_Source\PSoC6\pdl\cmsis/include/core_cm4.h ****   \ingroup  CMSIS_core_register
1051:Generated_Source\PSoC6\pdl\cmsis/include/core_cm4.h ****   \defgroup CMSIS_TPI     Trace Port Interface (TPI)
1052:Generated_Source\PSoC6\pdl\cmsis/include/core_cm4.h ****   \brief    Type definitions for the Trace Port Interface (TPI)
1053:Generated_Source\PSoC6\pdl\cmsis/include/core_cm4.h ****   @{
1054:Generated_Source\PSoC6\pdl\cmsis/include/core_cm4.h ****  */
1055:Generated_Source\PSoC6\pdl\cmsis/include/core_cm4.h **** 
1056:Generated_Source\PSoC6\pdl\cmsis/include/core_cm4.h **** /**
1057:Generated_Source\PSoC6\pdl\cmsis/include/core_cm4.h ****   \brief  Structure type to access the Trace Port Interface Register (TPI).
1058:Generated_Source\PSoC6\pdl\cmsis/include/core_cm4.h ****  */
1059:Generated_Source\PSoC6\pdl\cmsis/include/core_cm4.h **** typedef struct
1060:Generated_Source\PSoC6\pdl\cmsis/include/core_cm4.h **** {
1061:Generated_Source\PSoC6\pdl\cmsis/include/core_cm4.h ****   __IOM uint32_t SSPSR;                  /*!< Offset: 0x000 (R/ )  Supported Parallel Port Size Reg
1062:Generated_Source\PSoC6\pdl\cmsis/include/core_cm4.h ****   __IOM uint32_t CSPSR;                  /*!< Offset: 0x004 (R/W)  Current Parallel Port Size Regis
1063:Generated_Source\PSoC6\pdl\cmsis/include/core_cm4.h ****         uint32_t RESERVED0[2U];
1064:Generated_Source\PSoC6\pdl\cmsis/include/core_cm4.h ****   __IOM uint32_t ACPR;                   /*!< Offset: 0x010 (R/W)  Asynchronous Clock Prescaler Reg
1065:Generated_Source\PSoC6\pdl\cmsis/include/core_cm4.h ****         uint32_t RESERVED1[55U];
1066:Generated_Source\PSoC6\pdl\cmsis/include/core_cm4.h ****   __IOM uint32_t SPPR;                   /*!< Offset: 0x0F0 (R/W)  Selected Pin Protocol Register *
1067:Generated_Source\PSoC6\pdl\cmsis/include/core_cm4.h ****         uint32_t RESERVED2[131U];
1068:Generated_Source\PSoC6\pdl\cmsis/include/core_cm4.h ****   __IM  uint32_t FFSR;                   /*!< Offset: 0x300 (R/ )  Formatter and Flush Status Regis
1069:Generated_Source\PSoC6\pdl\cmsis/include/core_cm4.h ****   __IOM uint32_t FFCR;                   /*!< Offset: 0x304 (R/W)  Formatter and Flush Control Regi
1070:Generated_Source\PSoC6\pdl\cmsis/include/core_cm4.h ****   __IM  uint32_t FSCR;                   /*!< Offset: 0x308 (R/ )  Formatter Synchronization Counte
1071:Generated_Source\PSoC6\pdl\cmsis/include/core_cm4.h ****         uint32_t RESERVED3[759U];
1072:Generated_Source\PSoC6\pdl\cmsis/include/core_cm4.h ****   __IM  uint32_t TRIGGER;                /*!< Offset: 0xEE8 (R/ )  TRIGGER */
1073:Generated_Source\PSoC6\pdl\cmsis/include/core_cm4.h ****   __IM  uint32_t FIFO0;                  /*!< Offset: 0xEEC (R/ )  Integration ETM Data */
1074:Generated_Source\PSoC6\pdl\cmsis/include/core_cm4.h ****   __IM  uint32_t ITATBCTR2;              /*!< Offset: 0xEF0 (R/ )  ITATBCTR2 */
1075:Generated_Source\PSoC6\pdl\cmsis/include/core_cm4.h ****         uint32_t RESERVED4[1U];
1076:Generated_Source\PSoC6\pdl\cmsis/include/core_cm4.h ****   __IM  uint32_t ITATBCTR0;              /*!< Offset: 0xEF8 (R/ )  ITATBCTR0 */
ARM GAS  C:\Users\gjl\AppData\Local\Temp\ccCHEUhc.s 			page 38


1077:Generated_Source\PSoC6\pdl\cmsis/include/core_cm4.h ****   __IM  uint32_t FIFO1;                  /*!< Offset: 0xEFC (R/ )  Integration ITM Data */
1078:Generated_Source\PSoC6\pdl\cmsis/include/core_cm4.h ****   __IOM uint32_t ITCTRL;                 /*!< Offset: 0xF00 (R/W)  Integration Mode Control */
1079:Generated_Source\PSoC6\pdl\cmsis/include/core_cm4.h ****         uint32_t RESERVED5[39U];
1080:Generated_Source\PSoC6\pdl\cmsis/include/core_cm4.h ****   __IOM uint32_t CLAIMSET;               /*!< Offset: 0xFA0 (R/W)  Claim tag set */
1081:Generated_Source\PSoC6\pdl\cmsis/include/core_cm4.h ****   __IOM uint32_t CLAIMCLR;               /*!< Offset: 0xFA4 (R/W)  Claim tag clear */
1082:Generated_Source\PSoC6\pdl\cmsis/include/core_cm4.h ****         uint32_t RESERVED7[8U];
1083:Generated_Source\PSoC6\pdl\cmsis/include/core_cm4.h ****   __IM  uint32_t DEVID;                  /*!< Offset: 0xFC8 (R/ )  TPIU_DEVID */
1084:Generated_Source\PSoC6\pdl\cmsis/include/core_cm4.h ****   __IM  uint32_t DEVTYPE;                /*!< Offset: 0xFCC (R/ )  TPIU_DEVTYPE */
1085:Generated_Source\PSoC6\pdl\cmsis/include/core_cm4.h **** } TPI_Type;
1086:Generated_Source\PSoC6\pdl\cmsis/include/core_cm4.h **** 
1087:Generated_Source\PSoC6\pdl\cmsis/include/core_cm4.h **** /* TPI Asynchronous Clock Prescaler Register Definitions */
1088:Generated_Source\PSoC6\pdl\cmsis/include/core_cm4.h **** #define TPI_ACPR_PRESCALER_Pos              0U                                         /*!< TPI ACP
1089:Generated_Source\PSoC6\pdl\cmsis/include/core_cm4.h **** #define TPI_ACPR_PRESCALER_Msk             (0x1FFFUL /*<< TPI_ACPR_PRESCALER_Pos*/)    /*!< TPI ACP
1090:Generated_Source\PSoC6\pdl\cmsis/include/core_cm4.h **** 
1091:Generated_Source\PSoC6\pdl\cmsis/include/core_cm4.h **** /* TPI Selected Pin Protocol Register Definitions */
1092:Generated_Source\PSoC6\pdl\cmsis/include/core_cm4.h **** #define TPI_SPPR_TXMODE_Pos                 0U                                         /*!< TPI SPP
1093:Generated_Source\PSoC6\pdl\cmsis/include/core_cm4.h **** #define TPI_SPPR_TXMODE_Msk                (0x3UL /*<< TPI_SPPR_TXMODE_Pos*/)          /*!< TPI SPP
1094:Generated_Source\PSoC6\pdl\cmsis/include/core_cm4.h **** 
1095:Generated_Source\PSoC6\pdl\cmsis/include/core_cm4.h **** /* TPI Formatter and Flush Status Register Definitions */
1096:Generated_Source\PSoC6\pdl\cmsis/include/core_cm4.h **** #define TPI_FFSR_FtNonStop_Pos              3U                                         /*!< TPI FFS
1097:Generated_Source\PSoC6\pdl\cmsis/include/core_cm4.h **** #define TPI_FFSR_FtNonStop_Msk             (0x1UL << TPI_FFSR_FtNonStop_Pos)           /*!< TPI FFS
1098:Generated_Source\PSoC6\pdl\cmsis/include/core_cm4.h **** 
1099:Generated_Source\PSoC6\pdl\cmsis/include/core_cm4.h **** #define TPI_FFSR_TCPresent_Pos              2U                                         /*!< TPI FFS
1100:Generated_Source\PSoC6\pdl\cmsis/include/core_cm4.h **** #define TPI_FFSR_TCPresent_Msk             (0x1UL << TPI_FFSR_TCPresent_Pos)           /*!< TPI FFS
1101:Generated_Source\PSoC6\pdl\cmsis/include/core_cm4.h **** 
1102:Generated_Source\PSoC6\pdl\cmsis/include/core_cm4.h **** #define TPI_FFSR_FtStopped_Pos              1U                                         /*!< TPI FFS
1103:Generated_Source\PSoC6\pdl\cmsis/include/core_cm4.h **** #define TPI_FFSR_FtStopped_Msk             (0x1UL << TPI_FFSR_FtStopped_Pos)           /*!< TPI FFS
1104:Generated_Source\PSoC6\pdl\cmsis/include/core_cm4.h **** 
1105:Generated_Source\PSoC6\pdl\cmsis/include/core_cm4.h **** #define TPI_FFSR_FlInProg_Pos               0U                                         /*!< TPI FFS
1106:Generated_Source\PSoC6\pdl\cmsis/include/core_cm4.h **** #define TPI_FFSR_FlInProg_Msk              (0x1UL /*<< TPI_FFSR_FlInProg_Pos*/)        /*!< TPI FFS
1107:Generated_Source\PSoC6\pdl\cmsis/include/core_cm4.h **** 
1108:Generated_Source\PSoC6\pdl\cmsis/include/core_cm4.h **** /* TPI Formatter and Flush Control Register Definitions */
1109:Generated_Source\PSoC6\pdl\cmsis/include/core_cm4.h **** #define TPI_FFCR_TrigIn_Pos                 8U                                         /*!< TPI FFC
1110:Generated_Source\PSoC6\pdl\cmsis/include/core_cm4.h **** #define TPI_FFCR_TrigIn_Msk                (0x1UL << TPI_FFCR_TrigIn_Pos)              /*!< TPI FFC
1111:Generated_Source\PSoC6\pdl\cmsis/include/core_cm4.h **** 
1112:Generated_Source\PSoC6\pdl\cmsis/include/core_cm4.h **** #define TPI_FFCR_EnFCont_Pos                1U                                         /*!< TPI FFC
1113:Generated_Source\PSoC6\pdl\cmsis/include/core_cm4.h **** #define TPI_FFCR_EnFCont_Msk               (0x1UL << TPI_FFCR_EnFCont_Pos)             /*!< TPI FFC
1114:Generated_Source\PSoC6\pdl\cmsis/include/core_cm4.h **** 
1115:Generated_Source\PSoC6\pdl\cmsis/include/core_cm4.h **** /* TPI TRIGGER Register Definitions */
1116:Generated_Source\PSoC6\pdl\cmsis/include/core_cm4.h **** #define TPI_TRIGGER_TRIGGER_Pos             0U                                         /*!< TPI TRI
1117:Generated_Source\PSoC6\pdl\cmsis/include/core_cm4.h **** #define TPI_TRIGGER_TRIGGER_Msk            (0x1UL /*<< TPI_TRIGGER_TRIGGER_Pos*/)      /*!< TPI TRI
1118:Generated_Source\PSoC6\pdl\cmsis/include/core_cm4.h **** 
1119:Generated_Source\PSoC6\pdl\cmsis/include/core_cm4.h **** /* TPI Integration ETM Data Register Definitions (FIFO0) */
1120:Generated_Source\PSoC6\pdl\cmsis/include/core_cm4.h **** #define TPI_FIFO0_ITM_ATVALID_Pos          29U                                         /*!< TPI FIF
1121:Generated_Source\PSoC6\pdl\cmsis/include/core_cm4.h **** #define TPI_FIFO0_ITM_ATVALID_Msk          (0x3UL << TPI_FIFO0_ITM_ATVALID_Pos)        /*!< TPI FIF
1122:Generated_Source\PSoC6\pdl\cmsis/include/core_cm4.h **** 
1123:Generated_Source\PSoC6\pdl\cmsis/include/core_cm4.h **** #define TPI_FIFO0_ITM_bytecount_Pos        27U                                         /*!< TPI FIF
1124:Generated_Source\PSoC6\pdl\cmsis/include/core_cm4.h **** #define TPI_FIFO0_ITM_bytecount_Msk        (0x3UL << TPI_FIFO0_ITM_bytecount_Pos)      /*!< TPI FIF
1125:Generated_Source\PSoC6\pdl\cmsis/include/core_cm4.h **** 
1126:Generated_Source\PSoC6\pdl\cmsis/include/core_cm4.h **** #define TPI_FIFO0_ETM_ATVALID_Pos          26U                                         /*!< TPI FIF
1127:Generated_Source\PSoC6\pdl\cmsis/include/core_cm4.h **** #define TPI_FIFO0_ETM_ATVALID_Msk          (0x3UL << TPI_FIFO0_ETM_ATVALID_Pos)        /*!< TPI FIF
1128:Generated_Source\PSoC6\pdl\cmsis/include/core_cm4.h **** 
1129:Generated_Source\PSoC6\pdl\cmsis/include/core_cm4.h **** #define TPI_FIFO0_ETM_bytecount_Pos        24U                                         /*!< TPI FIF
1130:Generated_Source\PSoC6\pdl\cmsis/include/core_cm4.h **** #define TPI_FIFO0_ETM_bytecount_Msk        (0x3UL << TPI_FIFO0_ETM_bytecount_Pos)      /*!< TPI FIF
1131:Generated_Source\PSoC6\pdl\cmsis/include/core_cm4.h **** 
1132:Generated_Source\PSoC6\pdl\cmsis/include/core_cm4.h **** #define TPI_FIFO0_ETM2_Pos                 16U                                         /*!< TPI FIF
1133:Generated_Source\PSoC6\pdl\cmsis/include/core_cm4.h **** #define TPI_FIFO0_ETM2_Msk                 (0xFFUL << TPI_FIFO0_ETM2_Pos)              /*!< TPI FIF
ARM GAS  C:\Users\gjl\AppData\Local\Temp\ccCHEUhc.s 			page 39


1134:Generated_Source\PSoC6\pdl\cmsis/include/core_cm4.h **** 
1135:Generated_Source\PSoC6\pdl\cmsis/include/core_cm4.h **** #define TPI_FIFO0_ETM1_Pos                  8U                                         /*!< TPI FIF
1136:Generated_Source\PSoC6\pdl\cmsis/include/core_cm4.h **** #define TPI_FIFO0_ETM1_Msk                 (0xFFUL << TPI_FIFO0_ETM1_Pos)              /*!< TPI FIF
1137:Generated_Source\PSoC6\pdl\cmsis/include/core_cm4.h **** 
1138:Generated_Source\PSoC6\pdl\cmsis/include/core_cm4.h **** #define TPI_FIFO0_ETM0_Pos                  0U                                         /*!< TPI FIF
1139:Generated_Source\PSoC6\pdl\cmsis/include/core_cm4.h **** #define TPI_FIFO0_ETM0_Msk                 (0xFFUL /*<< TPI_FIFO0_ETM0_Pos*/)          /*!< TPI FIF
1140:Generated_Source\PSoC6\pdl\cmsis/include/core_cm4.h **** 
1141:Generated_Source\PSoC6\pdl\cmsis/include/core_cm4.h **** /* TPI ITATBCTR2 Register Definitions */
1142:Generated_Source\PSoC6\pdl\cmsis/include/core_cm4.h **** #define TPI_ITATBCTR2_ATREADY_Pos           0U                                         /*!< TPI ITA
1143:Generated_Source\PSoC6\pdl\cmsis/include/core_cm4.h **** #define TPI_ITATBCTR2_ATREADY_Msk          (0x1UL /*<< TPI_ITATBCTR2_ATREADY_Pos*/)    /*!< TPI ITA
1144:Generated_Source\PSoC6\pdl\cmsis/include/core_cm4.h **** 
1145:Generated_Source\PSoC6\pdl\cmsis/include/core_cm4.h **** /* TPI Integration ITM Data Register Definitions (FIFO1) */
1146:Generated_Source\PSoC6\pdl\cmsis/include/core_cm4.h **** #define TPI_FIFO1_ITM_ATVALID_Pos          29U                                         /*!< TPI FIF
1147:Generated_Source\PSoC6\pdl\cmsis/include/core_cm4.h **** #define TPI_FIFO1_ITM_ATVALID_Msk          (0x3UL << TPI_FIFO1_ITM_ATVALID_Pos)        /*!< TPI FIF
1148:Generated_Source\PSoC6\pdl\cmsis/include/core_cm4.h **** 
1149:Generated_Source\PSoC6\pdl\cmsis/include/core_cm4.h **** #define TPI_FIFO1_ITM_bytecount_Pos        27U                                         /*!< TPI FIF
1150:Generated_Source\PSoC6\pdl\cmsis/include/core_cm4.h **** #define TPI_FIFO1_ITM_bytecount_Msk        (0x3UL << TPI_FIFO1_ITM_bytecount_Pos)      /*!< TPI FIF
1151:Generated_Source\PSoC6\pdl\cmsis/include/core_cm4.h **** 
1152:Generated_Source\PSoC6\pdl\cmsis/include/core_cm4.h **** #define TPI_FIFO1_ETM_ATVALID_Pos          26U                                         /*!< TPI FIF
1153:Generated_Source\PSoC6\pdl\cmsis/include/core_cm4.h **** #define TPI_FIFO1_ETM_ATVALID_Msk          (0x3UL << TPI_FIFO1_ETM_ATVALID_Pos)        /*!< TPI FIF
1154:Generated_Source\PSoC6\pdl\cmsis/include/core_cm4.h **** 
1155:Generated_Source\PSoC6\pdl\cmsis/include/core_cm4.h **** #define TPI_FIFO1_ETM_bytecount_Pos        24U                                         /*!< TPI FIF
1156:Generated_Source\PSoC6\pdl\cmsis/include/core_cm4.h **** #define TPI_FIFO1_ETM_bytecount_Msk        (0x3UL << TPI_FIFO1_ETM_bytecount_Pos)      /*!< TPI FIF
1157:Generated_Source\PSoC6\pdl\cmsis/include/core_cm4.h **** 
1158:Generated_Source\PSoC6\pdl\cmsis/include/core_cm4.h **** #define TPI_FIFO1_ITM2_Pos                 16U                                         /*!< TPI FIF
1159:Generated_Source\PSoC6\pdl\cmsis/include/core_cm4.h **** #define TPI_FIFO1_ITM2_Msk                 (0xFFUL << TPI_FIFO1_ITM2_Pos)              /*!< TPI FIF
1160:Generated_Source\PSoC6\pdl\cmsis/include/core_cm4.h **** 
1161:Generated_Source\PSoC6\pdl\cmsis/include/core_cm4.h **** #define TPI_FIFO1_ITM1_Pos                  8U                                         /*!< TPI FIF
1162:Generated_Source\PSoC6\pdl\cmsis/include/core_cm4.h **** #define TPI_FIFO1_ITM1_Msk                 (0xFFUL << TPI_FIFO1_ITM1_Pos)              /*!< TPI FIF
1163:Generated_Source\PSoC6\pdl\cmsis/include/core_cm4.h **** 
1164:Generated_Source\PSoC6\pdl\cmsis/include/core_cm4.h **** #define TPI_FIFO1_ITM0_Pos                  0U                                         /*!< TPI FIF
1165:Generated_Source\PSoC6\pdl\cmsis/include/core_cm4.h **** #define TPI_FIFO1_ITM0_Msk                 (0xFFUL /*<< TPI_FIFO1_ITM0_Pos*/)          /*!< TPI FIF
1166:Generated_Source\PSoC6\pdl\cmsis/include/core_cm4.h **** 
1167:Generated_Source\PSoC6\pdl\cmsis/include/core_cm4.h **** /* TPI ITATBCTR0 Register Definitions */
1168:Generated_Source\PSoC6\pdl\cmsis/include/core_cm4.h **** #define TPI_ITATBCTR0_ATREADY_Pos           0U                                         /*!< TPI ITA
1169:Generated_Source\PSoC6\pdl\cmsis/include/core_cm4.h **** #define TPI_ITATBCTR0_ATREADY_Msk          (0x1UL /*<< TPI_ITATBCTR0_ATREADY_Pos*/)    /*!< TPI ITA
1170:Generated_Source\PSoC6\pdl\cmsis/include/core_cm4.h **** 
1171:Generated_Source\PSoC6\pdl\cmsis/include/core_cm4.h **** /* TPI Integration Mode Control Register Definitions */
1172:Generated_Source\PSoC6\pdl\cmsis/include/core_cm4.h **** #define TPI_ITCTRL_Mode_Pos                 0U                                         /*!< TPI ITC
1173:Generated_Source\PSoC6\pdl\cmsis/include/core_cm4.h **** #define TPI_ITCTRL_Mode_Msk                (0x1UL /*<< TPI_ITCTRL_Mode_Pos*/)          /*!< TPI ITC
1174:Generated_Source\PSoC6\pdl\cmsis/include/core_cm4.h **** 
1175:Generated_Source\PSoC6\pdl\cmsis/include/core_cm4.h **** /* TPI DEVID Register Definitions */
1176:Generated_Source\PSoC6\pdl\cmsis/include/core_cm4.h **** #define TPI_DEVID_NRZVALID_Pos             11U                                         /*!< TPI DEV
1177:Generated_Source\PSoC6\pdl\cmsis/include/core_cm4.h **** #define TPI_DEVID_NRZVALID_Msk             (0x1UL << TPI_DEVID_NRZVALID_Pos)           /*!< TPI DEV
1178:Generated_Source\PSoC6\pdl\cmsis/include/core_cm4.h **** 
1179:Generated_Source\PSoC6\pdl\cmsis/include/core_cm4.h **** #define TPI_DEVID_MANCVALID_Pos            10U                                         /*!< TPI DEV
1180:Generated_Source\PSoC6\pdl\cmsis/include/core_cm4.h **** #define TPI_DEVID_MANCVALID_Msk            (0x1UL << TPI_DEVID_MANCVALID_Pos)          /*!< TPI DEV
1181:Generated_Source\PSoC6\pdl\cmsis/include/core_cm4.h **** 
1182:Generated_Source\PSoC6\pdl\cmsis/include/core_cm4.h **** #define TPI_DEVID_PTINVALID_Pos             9U                                         /*!< TPI DEV
1183:Generated_Source\PSoC6\pdl\cmsis/include/core_cm4.h **** #define TPI_DEVID_PTINVALID_Msk            (0x1UL << TPI_DEVID_PTINVALID_Pos)          /*!< TPI DEV
1184:Generated_Source\PSoC6\pdl\cmsis/include/core_cm4.h **** 
1185:Generated_Source\PSoC6\pdl\cmsis/include/core_cm4.h **** #define TPI_DEVID_MinBufSz_Pos              6U                                         /*!< TPI DEV
1186:Generated_Source\PSoC6\pdl\cmsis/include/core_cm4.h **** #define TPI_DEVID_MinBufSz_Msk             (0x7UL << TPI_DEVID_MinBufSz_Pos)           /*!< TPI DEV
1187:Generated_Source\PSoC6\pdl\cmsis/include/core_cm4.h **** 
1188:Generated_Source\PSoC6\pdl\cmsis/include/core_cm4.h **** #define TPI_DEVID_AsynClkIn_Pos             5U                                         /*!< TPI DEV
1189:Generated_Source\PSoC6\pdl\cmsis/include/core_cm4.h **** #define TPI_DEVID_AsynClkIn_Msk            (0x1UL << TPI_DEVID_AsynClkIn_Pos)          /*!< TPI DEV
1190:Generated_Source\PSoC6\pdl\cmsis/include/core_cm4.h **** 
ARM GAS  C:\Users\gjl\AppData\Local\Temp\ccCHEUhc.s 			page 40


1191:Generated_Source\PSoC6\pdl\cmsis/include/core_cm4.h **** #define TPI_DEVID_NrTraceInput_Pos          0U                                         /*!< TPI DEV
1192:Generated_Source\PSoC6\pdl\cmsis/include/core_cm4.h **** #define TPI_DEVID_NrTraceInput_Msk         (0x1FUL /*<< TPI_DEVID_NrTraceInput_Pos*/)  /*!< TPI DEV
1193:Generated_Source\PSoC6\pdl\cmsis/include/core_cm4.h **** 
1194:Generated_Source\PSoC6\pdl\cmsis/include/core_cm4.h **** /* TPI DEVTYPE Register Definitions */
1195:Generated_Source\PSoC6\pdl\cmsis/include/core_cm4.h **** #define TPI_DEVTYPE_MajorType_Pos           4U                                         /*!< TPI DEV
1196:Generated_Source\PSoC6\pdl\cmsis/include/core_cm4.h **** #define TPI_DEVTYPE_MajorType_Msk          (0xFUL << TPI_DEVTYPE_MajorType_Pos)        /*!< TPI DEV
1197:Generated_Source\PSoC6\pdl\cmsis/include/core_cm4.h **** 
1198:Generated_Source\PSoC6\pdl\cmsis/include/core_cm4.h **** #define TPI_DEVTYPE_SubType_Pos             0U                                         /*!< TPI DEV
1199:Generated_Source\PSoC6\pdl\cmsis/include/core_cm4.h **** #define TPI_DEVTYPE_SubType_Msk            (0xFUL /*<< TPI_DEVTYPE_SubType_Pos*/)      /*!< TPI DEV
1200:Generated_Source\PSoC6\pdl\cmsis/include/core_cm4.h **** 
1201:Generated_Source\PSoC6\pdl\cmsis/include/core_cm4.h **** /*@}*/ /* end of group CMSIS_TPI */
1202:Generated_Source\PSoC6\pdl\cmsis/include/core_cm4.h **** 
1203:Generated_Source\PSoC6\pdl\cmsis/include/core_cm4.h **** 
1204:Generated_Source\PSoC6\pdl\cmsis/include/core_cm4.h **** #if defined (__MPU_PRESENT) && (__MPU_PRESENT == 1U)
1205:Generated_Source\PSoC6\pdl\cmsis/include/core_cm4.h **** /**
1206:Generated_Source\PSoC6\pdl\cmsis/include/core_cm4.h ****   \ingroup  CMSIS_core_register
1207:Generated_Source\PSoC6\pdl\cmsis/include/core_cm4.h ****   \defgroup CMSIS_MPU     Memory Protection Unit (MPU)
1208:Generated_Source\PSoC6\pdl\cmsis/include/core_cm4.h ****   \brief    Type definitions for the Memory Protection Unit (MPU)
1209:Generated_Source\PSoC6\pdl\cmsis/include/core_cm4.h ****   @{
1210:Generated_Source\PSoC6\pdl\cmsis/include/core_cm4.h ****  */
1211:Generated_Source\PSoC6\pdl\cmsis/include/core_cm4.h **** 
1212:Generated_Source\PSoC6\pdl\cmsis/include/core_cm4.h **** /**
1213:Generated_Source\PSoC6\pdl\cmsis/include/core_cm4.h ****   \brief  Structure type to access the Memory Protection Unit (MPU).
1214:Generated_Source\PSoC6\pdl\cmsis/include/core_cm4.h ****  */
1215:Generated_Source\PSoC6\pdl\cmsis/include/core_cm4.h **** typedef struct
1216:Generated_Source\PSoC6\pdl\cmsis/include/core_cm4.h **** {
1217:Generated_Source\PSoC6\pdl\cmsis/include/core_cm4.h ****   __IM  uint32_t TYPE;                   /*!< Offset: 0x000 (R/ )  MPU Type Register */
1218:Generated_Source\PSoC6\pdl\cmsis/include/core_cm4.h ****   __IOM uint32_t CTRL;                   /*!< Offset: 0x004 (R/W)  MPU Control Register */
1219:Generated_Source\PSoC6\pdl\cmsis/include/core_cm4.h ****   __IOM uint32_t RNR;                    /*!< Offset: 0x008 (R/W)  MPU Region RNRber Register */
1220:Generated_Source\PSoC6\pdl\cmsis/include/core_cm4.h ****   __IOM uint32_t RBAR;                   /*!< Offset: 0x00C (R/W)  MPU Region Base Address Register
1221:Generated_Source\PSoC6\pdl\cmsis/include/core_cm4.h ****   __IOM uint32_t RASR;                   /*!< Offset: 0x010 (R/W)  MPU Region Attribute and Size Re
1222:Generated_Source\PSoC6\pdl\cmsis/include/core_cm4.h ****   __IOM uint32_t RBAR_A1;                /*!< Offset: 0x014 (R/W)  MPU Alias 1 Region Base Address 
1223:Generated_Source\PSoC6\pdl\cmsis/include/core_cm4.h ****   __IOM uint32_t RASR_A1;                /*!< Offset: 0x018 (R/W)  MPU Alias 1 Region Attribute and
1224:Generated_Source\PSoC6\pdl\cmsis/include/core_cm4.h ****   __IOM uint32_t RBAR_A2;                /*!< Offset: 0x01C (R/W)  MPU Alias 2 Region Base Address 
1225:Generated_Source\PSoC6\pdl\cmsis/include/core_cm4.h ****   __IOM uint32_t RASR_A2;                /*!< Offset: 0x020 (R/W)  MPU Alias 2 Region Attribute and
1226:Generated_Source\PSoC6\pdl\cmsis/include/core_cm4.h ****   __IOM uint32_t RBAR_A3;                /*!< Offset: 0x024 (R/W)  MPU Alias 3 Region Base Address 
1227:Generated_Source\PSoC6\pdl\cmsis/include/core_cm4.h ****   __IOM uint32_t RASR_A3;                /*!< Offset: 0x028 (R/W)  MPU Alias 3 Region Attribute and
1228:Generated_Source\PSoC6\pdl\cmsis/include/core_cm4.h **** } MPU_Type;
1229:Generated_Source\PSoC6\pdl\cmsis/include/core_cm4.h **** 
1230:Generated_Source\PSoC6\pdl\cmsis/include/core_cm4.h **** /* MPU Type Register Definitions */
1231:Generated_Source\PSoC6\pdl\cmsis/include/core_cm4.h **** #define MPU_TYPE_IREGION_Pos               16U                                            /*!< MPU 
1232:Generated_Source\PSoC6\pdl\cmsis/include/core_cm4.h **** #define MPU_TYPE_IREGION_Msk               (0xFFUL << MPU_TYPE_IREGION_Pos)               /*!< MPU 
1233:Generated_Source\PSoC6\pdl\cmsis/include/core_cm4.h **** 
1234:Generated_Source\PSoC6\pdl\cmsis/include/core_cm4.h **** #define MPU_TYPE_DREGION_Pos                8U                                            /*!< MPU 
1235:Generated_Source\PSoC6\pdl\cmsis/include/core_cm4.h **** #define MPU_TYPE_DREGION_Msk               (0xFFUL << MPU_TYPE_DREGION_Pos)               /*!< MPU 
1236:Generated_Source\PSoC6\pdl\cmsis/include/core_cm4.h **** 
1237:Generated_Source\PSoC6\pdl\cmsis/include/core_cm4.h **** #define MPU_TYPE_SEPARATE_Pos               0U                                            /*!< MPU 
1238:Generated_Source\PSoC6\pdl\cmsis/include/core_cm4.h **** #define MPU_TYPE_SEPARATE_Msk              (1UL /*<< MPU_TYPE_SEPARATE_Pos*/)             /*!< MPU 
1239:Generated_Source\PSoC6\pdl\cmsis/include/core_cm4.h **** 
1240:Generated_Source\PSoC6\pdl\cmsis/include/core_cm4.h **** /* MPU Control Register Definitions */
1241:Generated_Source\PSoC6\pdl\cmsis/include/core_cm4.h **** #define MPU_CTRL_PRIVDEFENA_Pos             2U                                            /*!< MPU 
1242:Generated_Source\PSoC6\pdl\cmsis/include/core_cm4.h **** #define MPU_CTRL_PRIVDEFENA_Msk            (1UL << MPU_CTRL_PRIVDEFENA_Pos)               /*!< MPU 
1243:Generated_Source\PSoC6\pdl\cmsis/include/core_cm4.h **** 
1244:Generated_Source\PSoC6\pdl\cmsis/include/core_cm4.h **** #define MPU_CTRL_HFNMIENA_Pos               1U                                            /*!< MPU 
1245:Generated_Source\PSoC6\pdl\cmsis/include/core_cm4.h **** #define MPU_CTRL_HFNMIENA_Msk              (1UL << MPU_CTRL_HFNMIENA_Pos)                 /*!< MPU 
1246:Generated_Source\PSoC6\pdl\cmsis/include/core_cm4.h **** 
1247:Generated_Source\PSoC6\pdl\cmsis/include/core_cm4.h **** #define MPU_CTRL_ENABLE_Pos                 0U                                            /*!< MPU 
ARM GAS  C:\Users\gjl\AppData\Local\Temp\ccCHEUhc.s 			page 41


1248:Generated_Source\PSoC6\pdl\cmsis/include/core_cm4.h **** #define MPU_CTRL_ENABLE_Msk                (1UL /*<< MPU_CTRL_ENABLE_Pos*/)               /*!< MPU 
1249:Generated_Source\PSoC6\pdl\cmsis/include/core_cm4.h **** 
1250:Generated_Source\PSoC6\pdl\cmsis/include/core_cm4.h **** /* MPU Region Number Register Definitions */
1251:Generated_Source\PSoC6\pdl\cmsis/include/core_cm4.h **** #define MPU_RNR_REGION_Pos                  0U                                            /*!< MPU 
1252:Generated_Source\PSoC6\pdl\cmsis/include/core_cm4.h **** #define MPU_RNR_REGION_Msk                 (0xFFUL /*<< MPU_RNR_REGION_Pos*/)             /*!< MPU 
1253:Generated_Source\PSoC6\pdl\cmsis/include/core_cm4.h **** 
1254:Generated_Source\PSoC6\pdl\cmsis/include/core_cm4.h **** /* MPU Region Base Address Register Definitions */
1255:Generated_Source\PSoC6\pdl\cmsis/include/core_cm4.h **** #define MPU_RBAR_ADDR_Pos                   5U                                            /*!< MPU 
1256:Generated_Source\PSoC6\pdl\cmsis/include/core_cm4.h **** #define MPU_RBAR_ADDR_Msk                  (0x7FFFFFFUL << MPU_RBAR_ADDR_Pos)             /*!< MPU 
1257:Generated_Source\PSoC6\pdl\cmsis/include/core_cm4.h **** 
1258:Generated_Source\PSoC6\pdl\cmsis/include/core_cm4.h **** #define MPU_RBAR_VALID_Pos                  4U                                            /*!< MPU 
1259:Generated_Source\PSoC6\pdl\cmsis/include/core_cm4.h **** #define MPU_RBAR_VALID_Msk                 (1UL << MPU_RBAR_VALID_Pos)                    /*!< MPU 
1260:Generated_Source\PSoC6\pdl\cmsis/include/core_cm4.h **** 
1261:Generated_Source\PSoC6\pdl\cmsis/include/core_cm4.h **** #define MPU_RBAR_REGION_Pos                 0U                                            /*!< MPU 
1262:Generated_Source\PSoC6\pdl\cmsis/include/core_cm4.h **** #define MPU_RBAR_REGION_Msk                (0xFUL /*<< MPU_RBAR_REGION_Pos*/)             /*!< MPU 
1263:Generated_Source\PSoC6\pdl\cmsis/include/core_cm4.h **** 
1264:Generated_Source\PSoC6\pdl\cmsis/include/core_cm4.h **** /* MPU Region Attribute and Size Register Definitions */
1265:Generated_Source\PSoC6\pdl\cmsis/include/core_cm4.h **** #define MPU_RASR_ATTRS_Pos                 16U                                            /*!< MPU 
1266:Generated_Source\PSoC6\pdl\cmsis/include/core_cm4.h **** #define MPU_RASR_ATTRS_Msk                 (0xFFFFUL << MPU_RASR_ATTRS_Pos)               /*!< MPU 
1267:Generated_Source\PSoC6\pdl\cmsis/include/core_cm4.h **** 
1268:Generated_Source\PSoC6\pdl\cmsis/include/core_cm4.h **** #define MPU_RASR_XN_Pos                    28U                                            /*!< MPU 
1269:Generated_Source\PSoC6\pdl\cmsis/include/core_cm4.h **** #define MPU_RASR_XN_Msk                    (1UL << MPU_RASR_XN_Pos)                       /*!< MPU 
1270:Generated_Source\PSoC6\pdl\cmsis/include/core_cm4.h **** 
1271:Generated_Source\PSoC6\pdl\cmsis/include/core_cm4.h **** #define MPU_RASR_AP_Pos                    24U                                            /*!< MPU 
1272:Generated_Source\PSoC6\pdl\cmsis/include/core_cm4.h **** #define MPU_RASR_AP_Msk                    (0x7UL << MPU_RASR_AP_Pos)                     /*!< MPU 
1273:Generated_Source\PSoC6\pdl\cmsis/include/core_cm4.h **** 
1274:Generated_Source\PSoC6\pdl\cmsis/include/core_cm4.h **** #define MPU_RASR_TEX_Pos                   19U                                            /*!< MPU 
1275:Generated_Source\PSoC6\pdl\cmsis/include/core_cm4.h **** #define MPU_RASR_TEX_Msk                   (0x7UL << MPU_RASR_TEX_Pos)                    /*!< MPU 
1276:Generated_Source\PSoC6\pdl\cmsis/include/core_cm4.h **** 
1277:Generated_Source\PSoC6\pdl\cmsis/include/core_cm4.h **** #define MPU_RASR_S_Pos                     18U                                            /*!< MPU 
1278:Generated_Source\PSoC6\pdl\cmsis/include/core_cm4.h **** #define MPU_RASR_S_Msk                     (1UL << MPU_RASR_S_Pos)                        /*!< MPU 
1279:Generated_Source\PSoC6\pdl\cmsis/include/core_cm4.h **** 
1280:Generated_Source\PSoC6\pdl\cmsis/include/core_cm4.h **** #define MPU_RASR_C_Pos                     17U                                            /*!< MPU 
1281:Generated_Source\PSoC6\pdl\cmsis/include/core_cm4.h **** #define MPU_RASR_C_Msk                     (1UL << MPU_RASR_C_Pos)                        /*!< MPU 
1282:Generated_Source\PSoC6\pdl\cmsis/include/core_cm4.h **** 
1283:Generated_Source\PSoC6\pdl\cmsis/include/core_cm4.h **** #define MPU_RASR_B_Pos                     16U                                            /*!< MPU 
1284:Generated_Source\PSoC6\pdl\cmsis/include/core_cm4.h **** #define MPU_RASR_B_Msk                     (1UL << MPU_RASR_B_Pos)                        /*!< MPU 
1285:Generated_Source\PSoC6\pdl\cmsis/include/core_cm4.h **** 
1286:Generated_Source\PSoC6\pdl\cmsis/include/core_cm4.h **** #define MPU_RASR_SRD_Pos                    8U                                            /*!< MPU 
1287:Generated_Source\PSoC6\pdl\cmsis/include/core_cm4.h **** #define MPU_RASR_SRD_Msk                   (0xFFUL << MPU_RASR_SRD_Pos)                   /*!< MPU 
1288:Generated_Source\PSoC6\pdl\cmsis/include/core_cm4.h **** 
1289:Generated_Source\PSoC6\pdl\cmsis/include/core_cm4.h **** #define MPU_RASR_SIZE_Pos                   1U                                            /*!< MPU 
1290:Generated_Source\PSoC6\pdl\cmsis/include/core_cm4.h **** #define MPU_RASR_SIZE_Msk                  (0x1FUL << MPU_RASR_SIZE_Pos)                  /*!< MPU 
1291:Generated_Source\PSoC6\pdl\cmsis/include/core_cm4.h **** 
1292:Generated_Source\PSoC6\pdl\cmsis/include/core_cm4.h **** #define MPU_RASR_ENABLE_Pos                 0U                                            /*!< MPU 
1293:Generated_Source\PSoC6\pdl\cmsis/include/core_cm4.h **** #define MPU_RASR_ENABLE_Msk                (1UL /*<< MPU_RASR_ENABLE_Pos*/)               /*!< MPU 
1294:Generated_Source\PSoC6\pdl\cmsis/include/core_cm4.h **** 
1295:Generated_Source\PSoC6\pdl\cmsis/include/core_cm4.h **** /*@} end of group CMSIS_MPU */
1296:Generated_Source\PSoC6\pdl\cmsis/include/core_cm4.h **** #endif /* defined (__MPU_PRESENT) && (__MPU_PRESENT == 1U) */
1297:Generated_Source\PSoC6\pdl\cmsis/include/core_cm4.h **** 
1298:Generated_Source\PSoC6\pdl\cmsis/include/core_cm4.h **** 
1299:Generated_Source\PSoC6\pdl\cmsis/include/core_cm4.h **** /**
1300:Generated_Source\PSoC6\pdl\cmsis/include/core_cm4.h ****   \ingroup  CMSIS_core_register
1301:Generated_Source\PSoC6\pdl\cmsis/include/core_cm4.h ****   \defgroup CMSIS_FPU     Floating Point Unit (FPU)
1302:Generated_Source\PSoC6\pdl\cmsis/include/core_cm4.h ****   \brief    Type definitions for the Floating Point Unit (FPU)
1303:Generated_Source\PSoC6\pdl\cmsis/include/core_cm4.h ****   @{
1304:Generated_Source\PSoC6\pdl\cmsis/include/core_cm4.h ****  */
ARM GAS  C:\Users\gjl\AppData\Local\Temp\ccCHEUhc.s 			page 42


1305:Generated_Source\PSoC6\pdl\cmsis/include/core_cm4.h **** 
1306:Generated_Source\PSoC6\pdl\cmsis/include/core_cm4.h **** /**
1307:Generated_Source\PSoC6\pdl\cmsis/include/core_cm4.h ****   \brief  Structure type to access the Floating Point Unit (FPU).
1308:Generated_Source\PSoC6\pdl\cmsis/include/core_cm4.h ****  */
1309:Generated_Source\PSoC6\pdl\cmsis/include/core_cm4.h **** typedef struct
1310:Generated_Source\PSoC6\pdl\cmsis/include/core_cm4.h **** {
1311:Generated_Source\PSoC6\pdl\cmsis/include/core_cm4.h ****         uint32_t RESERVED0[1U];
1312:Generated_Source\PSoC6\pdl\cmsis/include/core_cm4.h ****   __IOM uint32_t FPCCR;                  /*!< Offset: 0x004 (R/W)  Floating-Point Context Control R
1313:Generated_Source\PSoC6\pdl\cmsis/include/core_cm4.h ****   __IOM uint32_t FPCAR;                  /*!< Offset: 0x008 (R/W)  Floating-Point Context Address R
1314:Generated_Source\PSoC6\pdl\cmsis/include/core_cm4.h ****   __IOM uint32_t FPDSCR;                 /*!< Offset: 0x00C (R/W)  Floating-Point Default Status Co
1315:Generated_Source\PSoC6\pdl\cmsis/include/core_cm4.h ****   __IM  uint32_t MVFR0;                  /*!< Offset: 0x010 (R/ )  Media and FP Feature Register 0 
1316:Generated_Source\PSoC6\pdl\cmsis/include/core_cm4.h ****   __IM  uint32_t MVFR1;                  /*!< Offset: 0x014 (R/ )  Media and FP Feature Register 1 
1317:Generated_Source\PSoC6\pdl\cmsis/include/core_cm4.h **** } FPU_Type;
1318:Generated_Source\PSoC6\pdl\cmsis/include/core_cm4.h **** 
