ARM GAS  C:\Users\gjl\AppData\Local\Temp\ccYp04na.s 			page 1


   1              		.syntax unified
   2              		.cpu cortex-m0plus
   3              		.fpu softvfp
   4              		.eabi_attribute 20, 1
   5              		.eabi_attribute 21, 1
   6              		.eabi_attribute 23, 3
   7              		.eabi_attribute 24, 1
   8              		.eabi_attribute 25, 1
   9              		.eabi_attribute 26, 1
  10              		.eabi_attribute 30, 1
  11              		.eabi_attribute 34, 0
  12              		.eabi_attribute 18, 4
  13              		.thumb
  14              		.syntax unified
  15              		.file	"cy_tcpwm_quaddec.c"
  16              		.text
  17              	.Ltext0:
  18              		.cfi_sections	.debug_frame
  19              		.section	.text.Cy_TCPWM_QuadDec_Init,"ax",%progbits
  20              		.align	2
  21              		.global	Cy_TCPWM_QuadDec_Init
  22              		.code	16
  23              		.thumb_func
  24              		.type	Cy_TCPWM_QuadDec_Init, %function
  25              	Cy_TCPWM_QuadDec_Init:
  26              	.LFB55:
  27              		.file 1 "Generated_Source\\PSoC6\\pdl\\drivers\\peripheral\\tcpwm\\cy_tcpwm_quaddec.c"
   1:Generated_Source\PSoC6\pdl\drivers\peripheral\tcpwm/cy_tcpwm_quaddec.c **** /***************************************************************************//**
   2:Generated_Source\PSoC6\pdl\drivers\peripheral\tcpwm/cy_tcpwm_quaddec.c **** * \file cy_tcpwm_quaddec.c
   3:Generated_Source\PSoC6\pdl\drivers\peripheral\tcpwm/cy_tcpwm_quaddec.c **** * \version 1.0.1
   4:Generated_Source\PSoC6\pdl\drivers\peripheral\tcpwm/cy_tcpwm_quaddec.c **** *
   5:Generated_Source\PSoC6\pdl\drivers\peripheral\tcpwm/cy_tcpwm_quaddec.c **** * \brief
   6:Generated_Source\PSoC6\pdl\drivers\peripheral\tcpwm/cy_tcpwm_quaddec.c **** *  The source file of the tcpwm driver.
   7:Generated_Source\PSoC6\pdl\drivers\peripheral\tcpwm/cy_tcpwm_quaddec.c **** *
   8:Generated_Source\PSoC6\pdl\drivers\peripheral\tcpwm/cy_tcpwm_quaddec.c **** ********************************************************************************
   9:Generated_Source\PSoC6\pdl\drivers\peripheral\tcpwm/cy_tcpwm_quaddec.c **** * \copyright
  10:Generated_Source\PSoC6\pdl\drivers\peripheral\tcpwm/cy_tcpwm_quaddec.c **** * Copyright 2016-2018, Cypress Semiconductor Corporation.  All rights reserved.
  11:Generated_Source\PSoC6\pdl\drivers\peripheral\tcpwm/cy_tcpwm_quaddec.c **** * You may use this file only in accordance with the license, terms, conditions,
  12:Generated_Source\PSoC6\pdl\drivers\peripheral\tcpwm/cy_tcpwm_quaddec.c **** * disclaimers, and limitations in the end user license agreement accompanying
  13:Generated_Source\PSoC6\pdl\drivers\peripheral\tcpwm/cy_tcpwm_quaddec.c **** * the software package with which this file was provided.
  14:Generated_Source\PSoC6\pdl\drivers\peripheral\tcpwm/cy_tcpwm_quaddec.c **** *******************************************************************************/
  15:Generated_Source\PSoC6\pdl\drivers\peripheral\tcpwm/cy_tcpwm_quaddec.c **** 
  16:Generated_Source\PSoC6\pdl\drivers\peripheral\tcpwm/cy_tcpwm_quaddec.c **** #include "cy_tcpwm_quaddec.h"
  17:Generated_Source\PSoC6\pdl\drivers\peripheral\tcpwm/cy_tcpwm_quaddec.c **** 
  18:Generated_Source\PSoC6\pdl\drivers\peripheral\tcpwm/cy_tcpwm_quaddec.c **** #if defined(__cplusplus)
  19:Generated_Source\PSoC6\pdl\drivers\peripheral\tcpwm/cy_tcpwm_quaddec.c **** extern "C" {
  20:Generated_Source\PSoC6\pdl\drivers\peripheral\tcpwm/cy_tcpwm_quaddec.c **** #endif
  21:Generated_Source\PSoC6\pdl\drivers\peripheral\tcpwm/cy_tcpwm_quaddec.c **** 
  22:Generated_Source\PSoC6\pdl\drivers\peripheral\tcpwm/cy_tcpwm_quaddec.c **** 
  23:Generated_Source\PSoC6\pdl\drivers\peripheral\tcpwm/cy_tcpwm_quaddec.c **** /*******************************************************************************
  24:Generated_Source\PSoC6\pdl\drivers\peripheral\tcpwm/cy_tcpwm_quaddec.c **** * Function Name: Cy_TCPWM_QuadDec_Init
  25:Generated_Source\PSoC6\pdl\drivers\peripheral\tcpwm/cy_tcpwm_quaddec.c **** ****************************************************************************//**
  26:Generated_Source\PSoC6\pdl\drivers\peripheral\tcpwm/cy_tcpwm_quaddec.c **** *
  27:Generated_Source\PSoC6\pdl\drivers\peripheral\tcpwm/cy_tcpwm_quaddec.c **** * Initializes the counter in the TCPWM block for the QuadDec operation.
  28:Generated_Source\PSoC6\pdl\drivers\peripheral\tcpwm/cy_tcpwm_quaddec.c **** *
  29:Generated_Source\PSoC6\pdl\drivers\peripheral\tcpwm/cy_tcpwm_quaddec.c **** * \param base
  30:Generated_Source\PSoC6\pdl\drivers\peripheral\tcpwm/cy_tcpwm_quaddec.c **** * The pointer to a TCPWM instance.
ARM GAS  C:\Users\gjl\AppData\Local\Temp\ccYp04na.s 			page 2


  31:Generated_Source\PSoC6\pdl\drivers\peripheral\tcpwm/cy_tcpwm_quaddec.c **** *
  32:Generated_Source\PSoC6\pdl\drivers\peripheral\tcpwm/cy_tcpwm_quaddec.c **** * \param cntNum
  33:Generated_Source\PSoC6\pdl\drivers\peripheral\tcpwm/cy_tcpwm_quaddec.c **** * The Counter instance number in the selected TCPWM.
  34:Generated_Source\PSoC6\pdl\drivers\peripheral\tcpwm/cy_tcpwm_quaddec.c **** *
  35:Generated_Source\PSoC6\pdl\drivers\peripheral\tcpwm/cy_tcpwm_quaddec.c **** * \param config
  36:Generated_Source\PSoC6\pdl\drivers\peripheral\tcpwm/cy_tcpwm_quaddec.c **** * The pointer to a configuration structure. See \ref cy_stc_tcpwm_quaddec_config_t.
  37:Generated_Source\PSoC6\pdl\drivers\peripheral\tcpwm/cy_tcpwm_quaddec.c **** *
  38:Generated_Source\PSoC6\pdl\drivers\peripheral\tcpwm/cy_tcpwm_quaddec.c **** * \return error / status code. See \ref cy_en_tcpwm_status_t.
  39:Generated_Source\PSoC6\pdl\drivers\peripheral\tcpwm/cy_tcpwm_quaddec.c **** *
  40:Generated_Source\PSoC6\pdl\drivers\peripheral\tcpwm/cy_tcpwm_quaddec.c **** * \funcusage
  41:Generated_Source\PSoC6\pdl\drivers\peripheral\tcpwm/cy_tcpwm_quaddec.c **** * \snippet tcpwm/tcpwm_v1_0_quaddec_sut_01.cydsn/main_cm4.c snippet_Cy_TCPWM_QuadDec_Config
  42:Generated_Source\PSoC6\pdl\drivers\peripheral\tcpwm/cy_tcpwm_quaddec.c **** * \snippet tcpwm/tcpwm_v1_0_quaddec_sut_01.cydsn/main_cm4.c snippet_Cy_TCPWM_QuadDec_Init
  43:Generated_Source\PSoC6\pdl\drivers\peripheral\tcpwm/cy_tcpwm_quaddec.c **** *
  44:Generated_Source\PSoC6\pdl\drivers\peripheral\tcpwm/cy_tcpwm_quaddec.c **** *******************************************************************************/
  45:Generated_Source\PSoC6\pdl\drivers\peripheral\tcpwm/cy_tcpwm_quaddec.c **** cy_en_tcpwm_status_t Cy_TCPWM_QuadDec_Init(TCPWM_Type *base, uint32_t cntNum, 
  46:Generated_Source\PSoC6\pdl\drivers\peripheral\tcpwm/cy_tcpwm_quaddec.c ****                                            cy_stc_tcpwm_quaddec_config_t const *config)
  47:Generated_Source\PSoC6\pdl\drivers\peripheral\tcpwm/cy_tcpwm_quaddec.c **** {
  28              		.loc 1 47 0
  29              		.cfi_startproc
  30              		@ args = 0, pretend = 0, frame = 0
  31              		@ frame_needed = 0, uses_anonymous_args = 0
  32              	.LVL0:
  33 0000 30B5     		push	{r4, r5, lr}
  34              		.cfi_def_cfa_offset 12
  35              		.cfi_offset 4, -12
  36              		.cfi_offset 5, -8
  37              		.cfi_offset 14, -4
  38              	.LVL1:
  48:Generated_Source\PSoC6\pdl\drivers\peripheral\tcpwm/cy_tcpwm_quaddec.c ****     cy_en_tcpwm_status_t status = CY_TCPWM_BAD_PARAM;
  49:Generated_Source\PSoC6\pdl\drivers\peripheral\tcpwm/cy_tcpwm_quaddec.c **** 
  50:Generated_Source\PSoC6\pdl\drivers\peripheral\tcpwm/cy_tcpwm_quaddec.c ****     if ((NULL != base) && (NULL != config))
  39              		.loc 1 50 0
  40 0002 0028     		cmp	r0, #0
  41 0004 3ED0     		beq	.L4
  42              		.loc 1 50 0 is_stmt 0 discriminator 1
  43 0006 002A     		cmp	r2, #0
  44 0008 3ED0     		beq	.L5
  51:Generated_Source\PSoC6\pdl\drivers\peripheral\tcpwm/cy_tcpwm_quaddec.c ****     {
  52:Generated_Source\PSoC6\pdl\drivers\peripheral\tcpwm/cy_tcpwm_quaddec.c ****         base->CNT[cntNum].CTRL = ( _VAL2FLD(TCPWM_CNT_CTRL_QUADRATURE_MODE, config->resolution) |
  45              		.loc 1 52 0 is_stmt 1
  46 000a 1368     		ldr	r3, [r2]
  47 000c 1C05     		lsls	r4, r3, #20
  48 000e C023     		movs	r3, #192
  49 0010 9B03     		lsls	r3, r3, #14
  50 0012 2340     		ands	r3, r4
  51 0014 C024     		movs	r4, #192
  52 0016 A404     		lsls	r4, r4, #18
  53 0018 2343     		orrs	r3, r4
  54 001a 0C1D     		adds	r4, r1, #4
  55 001c A401     		lsls	r4, r4, #6
  56 001e 2350     		str	r3, [r4, r0]
  53:Generated_Source\PSoC6\pdl\drivers\peripheral\tcpwm/cy_tcpwm_quaddec.c ****                             _VAL2FLD(TCPWM_CNT_CTRL_MODE, CY_TCPWM_QUADDEC_CTRL_QUADDEC_MODE));
  54:Generated_Source\PSoC6\pdl\drivers\peripheral\tcpwm/cy_tcpwm_quaddec.c **** 
  55:Generated_Source\PSoC6\pdl\drivers\peripheral\tcpwm/cy_tcpwm_quaddec.c ****         if (CY_TCPWM_INPUT_CREATOR != config->phiAInput)
  57              		.loc 1 55 0
  58 0020 9369     		ldr	r3, [r2, #24]
  59 0022 5C1C     		adds	r4, r3, #1
ARM GAS  C:\Users\gjl\AppData\Local\Temp\ccYp04na.s 			page 3


  60 0024 17D0     		beq	.L3
  56:Generated_Source\PSoC6\pdl\drivers\peripheral\tcpwm/cy_tcpwm_quaddec.c ****         {        
  57:Generated_Source\PSoC6\pdl\drivers\peripheral\tcpwm/cy_tcpwm_quaddec.c ****             base->CNT[cntNum].TR_CTRL0 = (_VAL2FLD(TCPWM_CNT_TR_CTRL0_COUNT_SEL, config->phiAInput)
  61              		.loc 1 57 0
  62 0026 1B01     		lsls	r3, r3, #4
  63 0028 FF24     		movs	r4, #255
  64 002a 2340     		ands	r3, r4
  58:Generated_Source\PSoC6\pdl\drivers\peripheral\tcpwm/cy_tcpwm_quaddec.c ****                                           _VAL2FLD(TCPWM_CNT_TR_CTRL0_START_SEL, config->phiBInput)
  65              		.loc 1 58 0
  66 002c D469     		ldr	r4, [r2, #28]
  67 002e 2504     		lsls	r5, r4, #16
  68 0030 F024     		movs	r4, #240
  69 0032 2403     		lsls	r4, r4, #12
  70 0034 2C40     		ands	r4, r5
  57:Generated_Source\PSoC6\pdl\drivers\peripheral\tcpwm/cy_tcpwm_quaddec.c ****                                           _VAL2FLD(TCPWM_CNT_TR_CTRL0_START_SEL, config->phiBInput)
  71              		.loc 1 57 0
  72 0036 2343     		orrs	r3, r4
  59:Generated_Source\PSoC6\pdl\drivers\peripheral\tcpwm/cy_tcpwm_quaddec.c ****                                           _VAL2FLD(TCPWM_CNT_TR_CTRL0_RELOAD_SEL, config->indexInpu
  73              		.loc 1 59 0
  74 0038 D468     		ldr	r4, [r2, #12]
  75 003a 2502     		lsls	r5, r4, #8
  76 003c F024     		movs	r4, #240
  77 003e 2401     		lsls	r4, r4, #4
  78 0040 2C40     		ands	r4, r5
  58:Generated_Source\PSoC6\pdl\drivers\peripheral\tcpwm/cy_tcpwm_quaddec.c ****                                           _VAL2FLD(TCPWM_CNT_TR_CTRL0_START_SEL, config->phiBInput)
  79              		.loc 1 58 0
  80 0042 2343     		orrs	r3, r4
  60:Generated_Source\PSoC6\pdl\drivers\peripheral\tcpwm/cy_tcpwm_quaddec.c ****                                           _VAL2FLD(TCPWM_CNT_TR_CTRL0_STOP_SEL, config->stopInput))
  81              		.loc 1 60 0
  82 0044 5469     		ldr	r4, [r2, #20]
  83 0046 2407     		lsls	r4, r4, #28
  84 0048 240C     		lsrs	r4, r4, #16
  59:Generated_Source\PSoC6\pdl\drivers\peripheral\tcpwm/cy_tcpwm_quaddec.c ****                                           _VAL2FLD(TCPWM_CNT_TR_CTRL0_RELOAD_SEL, config->indexInpu
  85              		.loc 1 59 0
  86 004a 2343     		orrs	r3, r4
  57:Generated_Source\PSoC6\pdl\drivers\peripheral\tcpwm/cy_tcpwm_quaddec.c ****                                           _VAL2FLD(TCPWM_CNT_TR_CTRL0_START_SEL, config->phiBInput)
  87              		.loc 1 57 0
  88 004c 8C01     		lsls	r4, r1, #6
  89 004e 0419     		adds	r4, r0, r4
  90 0050 2134     		adds	r4, r4, #33
  91 0052 FF34     		adds	r4, r4, #255
  92 0054 2360     		str	r3, [r4]
  93              	.L3:
  61:Generated_Source\PSoC6\pdl\drivers\peripheral\tcpwm/cy_tcpwm_quaddec.c ****         }
  62:Generated_Source\PSoC6\pdl\drivers\peripheral\tcpwm/cy_tcpwm_quaddec.c ****         
  63:Generated_Source\PSoC6\pdl\drivers\peripheral\tcpwm/cy_tcpwm_quaddec.c ****         base->CNT[cntNum].TR_CTRL1 = (_VAL2FLD(TCPWM_CNT_TR_CTRL1_CAPTURE_EDGE, CY_TCPWM_INPUT_LEVE
  64:Generated_Source\PSoC6\pdl\drivers\peripheral\tcpwm/cy_tcpwm_quaddec.c ****                                       _VAL2FLD(TCPWM_CNT_TR_CTRL1_COUNT_EDGE, CY_TCPWM_INPUT_LEVEL)
  65:Generated_Source\PSoC6\pdl\drivers\peripheral\tcpwm/cy_tcpwm_quaddec.c ****                                       _VAL2FLD(TCPWM_CNT_TR_CTRL1_START_EDGE, CY_TCPWM_INPUT_LEVEL)
  66:Generated_Source\PSoC6\pdl\drivers\peripheral\tcpwm/cy_tcpwm_quaddec.c ****                                       _VAL2FLD(TCPWM_CNT_TR_CTRL1_RELOAD_EDGE, config->indexInputMo
  94              		.loc 1 66 0
  95 0056 9368     		ldr	r3, [r2, #8]
  96 0058 1B01     		lsls	r3, r3, #4
  97 005a 3025     		movs	r5, #48
  98 005c 1D40     		ands	r5, r3
  67:Generated_Source\PSoC6\pdl\drivers\peripheral\tcpwm/cy_tcpwm_quaddec.c ****                                       _VAL2FLD(TCPWM_CNT_TR_CTRL1_STOP_EDGE, config->stopInputMode)
  99              		.loc 1 67 0
 100 005e 1369     		ldr	r3, [r2, #16]
ARM GAS  C:\Users\gjl\AppData\Local\Temp\ccYp04na.s 			page 4


 101 0060 9C01     		lsls	r4, r3, #6
 102 0062 FF23     		movs	r3, #255
 103 0064 2340     		ands	r3, r4
  66:Generated_Source\PSoC6\pdl\drivers\peripheral\tcpwm/cy_tcpwm_quaddec.c ****                                       _VAL2FLD(TCPWM_CNT_TR_CTRL1_STOP_EDGE, config->stopInputMode)
 104              		.loc 1 66 0
 105 0066 2B43     		orrs	r3, r5
 106 0068 084C     		ldr	r4, .L6
 107 006a 2343     		orrs	r3, r4
  63:Generated_Source\PSoC6\pdl\drivers\peripheral\tcpwm/cy_tcpwm_quaddec.c ****                                       _VAL2FLD(TCPWM_CNT_TR_CTRL1_COUNT_EDGE, CY_TCPWM_INPUT_LEVEL)
 108              		.loc 1 63 0
 109 006c 8901     		lsls	r1, r1, #6
 110              	.LVL2:
 111 006e 4118     		adds	r1, r0, r1
 112 0070 0800     		movs	r0, r1
 113              	.LVL3:
 114 0072 2530     		adds	r0, r0, #37
 115 0074 FF30     		adds	r0, r0, #255
 116 0076 0360     		str	r3, [r0]
  68:Generated_Source\PSoC6\pdl\drivers\peripheral\tcpwm/cy_tcpwm_quaddec.c **** 
  69:Generated_Source\PSoC6\pdl\drivers\peripheral\tcpwm/cy_tcpwm_quaddec.c ****         base->CNT[cntNum].INTR_MASK = config->interruptSources;
 117              		.loc 1 69 0
 118 0078 5368     		ldr	r3, [r2, #4]
 119 007a 3931     		adds	r1, r1, #57
 120 007c FF31     		adds	r1, r1, #255
 121 007e 0B60     		str	r3, [r1]
 122              	.LVL4:
  70:Generated_Source\PSoC6\pdl\drivers\peripheral\tcpwm/cy_tcpwm_quaddec.c **** 
  71:Generated_Source\PSoC6\pdl\drivers\peripheral\tcpwm/cy_tcpwm_quaddec.c ****         status = CY_TCPWM_SUCCESS;
 123              		.loc 1 71 0
 124 0080 0020     		movs	r0, #0
 125 0082 02E0     		b	.L2
 126              	.LVL5:
 127              	.L4:
  48:Generated_Source\PSoC6\pdl\drivers\peripheral\tcpwm/cy_tcpwm_quaddec.c **** 
 128              		.loc 1 48 0
 129 0084 0248     		ldr	r0, .L6+4
 130              	.LVL6:
 131 0086 00E0     		b	.L2
 132              	.LVL7:
 133              	.L5:
 134 0088 0148     		ldr	r0, .L6+4
 135              	.LVL8:
 136              	.L2:
  72:Generated_Source\PSoC6\pdl\drivers\peripheral\tcpwm/cy_tcpwm_quaddec.c ****     }
  73:Generated_Source\PSoC6\pdl\drivers\peripheral\tcpwm/cy_tcpwm_quaddec.c **** 
  74:Generated_Source\PSoC6\pdl\drivers\peripheral\tcpwm/cy_tcpwm_quaddec.c ****     return(status);
  75:Generated_Source\PSoC6\pdl\drivers\peripheral\tcpwm/cy_tcpwm_quaddec.c **** }
 137              		.loc 1 75 0
 138              		@ sp needed
 139 008a 30BD     		pop	{r4, r5, pc}
 140              	.L7:
 141              		.align	2
 142              	.L6:
 143 008c 0F030000 		.word	783
 144 0090 0100B600 		.word	11927553
 145              		.cfi_endproc
 146              	.LFE55:
ARM GAS  C:\Users\gjl\AppData\Local\Temp\ccYp04na.s 			page 5


 147              		.size	Cy_TCPWM_QuadDec_Init, .-Cy_TCPWM_QuadDec_Init
 148              		.section	.text.Cy_TCPWM_QuadDec_DeInit,"ax",%progbits
 149              		.align	2
 150              		.global	Cy_TCPWM_QuadDec_DeInit
 151              		.code	16
 152              		.thumb_func
 153              		.type	Cy_TCPWM_QuadDec_DeInit, %function
 154              	Cy_TCPWM_QuadDec_DeInit:
 155              	.LFB56:
  76:Generated_Source\PSoC6\pdl\drivers\peripheral\tcpwm/cy_tcpwm_quaddec.c **** 
  77:Generated_Source\PSoC6\pdl\drivers\peripheral\tcpwm/cy_tcpwm_quaddec.c **** 
  78:Generated_Source\PSoC6\pdl\drivers\peripheral\tcpwm/cy_tcpwm_quaddec.c **** /*******************************************************************************
  79:Generated_Source\PSoC6\pdl\drivers\peripheral\tcpwm/cy_tcpwm_quaddec.c **** * Function Name: Cy_TCPWM_QuadDec_DeInit
  80:Generated_Source\PSoC6\pdl\drivers\peripheral\tcpwm/cy_tcpwm_quaddec.c **** ****************************************************************************//**
  81:Generated_Source\PSoC6\pdl\drivers\peripheral\tcpwm/cy_tcpwm_quaddec.c **** *
  82:Generated_Source\PSoC6\pdl\drivers\peripheral\tcpwm/cy_tcpwm_quaddec.c **** * De-initializes the counter in the TCPWM block, returns register values to 
  83:Generated_Source\PSoC6\pdl\drivers\peripheral\tcpwm/cy_tcpwm_quaddec.c **** * default.
  84:Generated_Source\PSoC6\pdl\drivers\peripheral\tcpwm/cy_tcpwm_quaddec.c **** *
  85:Generated_Source\PSoC6\pdl\drivers\peripheral\tcpwm/cy_tcpwm_quaddec.c **** * \param base
  86:Generated_Source\PSoC6\pdl\drivers\peripheral\tcpwm/cy_tcpwm_quaddec.c **** * The pointer to a TCPWM instance.
  87:Generated_Source\PSoC6\pdl\drivers\peripheral\tcpwm/cy_tcpwm_quaddec.c **** *
  88:Generated_Source\PSoC6\pdl\drivers\peripheral\tcpwm/cy_tcpwm_quaddec.c **** * \param cntNum
  89:Generated_Source\PSoC6\pdl\drivers\peripheral\tcpwm/cy_tcpwm_quaddec.c **** * The Counter instance number in the selected TCPWM.
  90:Generated_Source\PSoC6\pdl\drivers\peripheral\tcpwm/cy_tcpwm_quaddec.c **** *
  91:Generated_Source\PSoC6\pdl\drivers\peripheral\tcpwm/cy_tcpwm_quaddec.c **** * \param config
  92:Generated_Source\PSoC6\pdl\drivers\peripheral\tcpwm/cy_tcpwm_quaddec.c **** * The pointer to a configuration structure. See \ref cy_stc_tcpwm_quaddec_config_t.
  93:Generated_Source\PSoC6\pdl\drivers\peripheral\tcpwm/cy_tcpwm_quaddec.c **** *
  94:Generated_Source\PSoC6\pdl\drivers\peripheral\tcpwm/cy_tcpwm_quaddec.c **** * \funcusage
  95:Generated_Source\PSoC6\pdl\drivers\peripheral\tcpwm/cy_tcpwm_quaddec.c **** * \snippet tcpwm/tcpwm_v1_0_quaddec_sut_01.cydsn/main_cm4.c snippet_Cy_TCPWM_QuadDec_DeInit
  96:Generated_Source\PSoC6\pdl\drivers\peripheral\tcpwm/cy_tcpwm_quaddec.c **** *
  97:Generated_Source\PSoC6\pdl\drivers\peripheral\tcpwm/cy_tcpwm_quaddec.c **** *******************************************************************************/
  98:Generated_Source\PSoC6\pdl\drivers\peripheral\tcpwm/cy_tcpwm_quaddec.c **** void Cy_TCPWM_QuadDec_DeInit(TCPWM_Type *base, uint32_t cntNum, cy_stc_tcpwm_quaddec_config_t const
  99:Generated_Source\PSoC6\pdl\drivers\peripheral\tcpwm/cy_tcpwm_quaddec.c **** {
 156              		.loc 1 99 0
 157              		.cfi_startproc
 158              		@ args = 0, pretend = 0, frame = 0
 159              		@ frame_needed = 0, uses_anonymous_args = 0
 160              	.LVL9:
 161 0000 70B5     		push	{r4, r5, r6, lr}
 162              		.cfi_def_cfa_offset 16
 163              		.cfi_offset 4, -16
 164              		.cfi_offset 5, -12
 165              		.cfi_offset 6, -8
 166              		.cfi_offset 14, -4
 100:Generated_Source\PSoC6\pdl\drivers\peripheral\tcpwm/cy_tcpwm_quaddec.c ****     base->CNT[cntNum].CTRL = CY_TCPWM_CNT_CTRL_DEFAULT;
 167              		.loc 1 100 0
 168 0002 0B1D     		adds	r3, r1, #4
 169 0004 9B01     		lsls	r3, r3, #6
 170 0006 0024     		movs	r4, #0
 171 0008 1C50     		str	r4, [r3, r0]
 101:Generated_Source\PSoC6\pdl\drivers\peripheral\tcpwm/cy_tcpwm_quaddec.c ****     base->CNT[cntNum].COUNTER = CY_TCPWM_CNT_COUNTER_DEFAULT;
 172              		.loc 1 101 0
 173 000a 8B01     		lsls	r3, r1, #6
 174 000c C318     		adds	r3, r0, r3
 175 000e 1D00     		movs	r5, r3
 176 0010 0935     		adds	r5, r5, #9
 177 0012 FF35     		adds	r5, r5, #255
ARM GAS  C:\Users\gjl\AppData\Local\Temp\ccYp04na.s 			page 6


 178 0014 2C60     		str	r4, [r5]
 102:Generated_Source\PSoC6\pdl\drivers\peripheral\tcpwm/cy_tcpwm_quaddec.c ****     base->CNT[cntNum].CC = CY_TCPWM_CNT_CC_DEFAULT;
 179              		.loc 1 102 0
 180 0016 1E00     		movs	r6, r3
 181 0018 0D36     		adds	r6, r6, #13
 182 001a FF36     		adds	r6, r6, #255
 183 001c 0125     		movs	r5, #1
 184 001e 6D42     		rsbs	r5, r5, #0
 185 0020 3560     		str	r5, [r6]
 103:Generated_Source\PSoC6\pdl\drivers\peripheral\tcpwm/cy_tcpwm_quaddec.c ****     base->CNT[cntNum].CC_BUFF = CY_TCPWM_CNT_CC_BUFF_DEFAULT;
 186              		.loc 1 103 0
 187 0022 0436     		adds	r6, r6, #4
 188 0024 3560     		str	r5, [r6]
 104:Generated_Source\PSoC6\pdl\drivers\peripheral\tcpwm/cy_tcpwm_quaddec.c ****     base->CNT[cntNum].PERIOD = CY_TCPWM_CNT_PERIOD_DEFAULT;
 189              		.loc 1 104 0
 190 0026 0436     		adds	r6, r6, #4
 191 0028 3560     		str	r5, [r6]
 105:Generated_Source\PSoC6\pdl\drivers\peripheral\tcpwm/cy_tcpwm_quaddec.c ****     base->CNT[cntNum].PERIOD_BUFF = CY_TCPWM_CNT_PERIOD_BUFF_DEFAULT;
 192              		.loc 1 105 0
 193 002a 0436     		adds	r6, r6, #4
 194 002c 3560     		str	r5, [r6]
 106:Generated_Source\PSoC6\pdl\drivers\peripheral\tcpwm/cy_tcpwm_quaddec.c ****     base->CNT[cntNum].TR_CTRL1 = CY_TCPWM_CNT_TR_CTRL1_DEFAULT;
 195              		.loc 1 106 0
 196 002e 1D00     		movs	r5, r3
 197 0030 2535     		adds	r5, r5, #37
 198 0032 FF35     		adds	r5, r5, #255
 199 0034 0B4E     		ldr	r6, .L10
 200 0036 2E60     		str	r6, [r5]
 107:Generated_Source\PSoC6\pdl\drivers\peripheral\tcpwm/cy_tcpwm_quaddec.c ****     base->CNT[cntNum].TR_CTRL2 = CY_TCPWM_CNT_TR_CTRL2_DEFAULT;
 201              		.loc 1 107 0
 202 0038 0435     		adds	r5, r5, #4
 203 003a 3F26     		movs	r6, #63
 204 003c 2E60     		str	r6, [r5]
 108:Generated_Source\PSoC6\pdl\drivers\peripheral\tcpwm/cy_tcpwm_quaddec.c ****     base->CNT[cntNum].INTR = CY_TCPWM_CNT_INTR_DEFAULT;
 205              		.loc 1 108 0
 206 003e 0835     		adds	r5, r5, #8
 207 0040 3C3E     		subs	r6, r6, #60
 208 0042 2E60     		str	r6, [r5]
 109:Generated_Source\PSoC6\pdl\drivers\peripheral\tcpwm/cy_tcpwm_quaddec.c ****     base->CNT[cntNum].INTR_SET = CY_TCPWM_CNT_INTR_SET_DEFAULT;
 209              		.loc 1 109 0
 210 0044 0435     		adds	r5, r5, #4
 211 0046 2C60     		str	r4, [r5]
 110:Generated_Source\PSoC6\pdl\drivers\peripheral\tcpwm/cy_tcpwm_quaddec.c ****     base->CNT[cntNum].INTR_MASK = CY_TCPWM_CNT_INTR_MASK_DEFAULT;
 212              		.loc 1 110 0
 213 0048 3933     		adds	r3, r3, #57
 214 004a FF33     		adds	r3, r3, #255
 215 004c 1C60     		str	r4, [r3]
 111:Generated_Source\PSoC6\pdl\drivers\peripheral\tcpwm/cy_tcpwm_quaddec.c **** 
 112:Generated_Source\PSoC6\pdl\drivers\peripheral\tcpwm/cy_tcpwm_quaddec.c ****     if (CY_TCPWM_INPUT_CREATOR != config->phiAInput)
 216              		.loc 1 112 0
 217 004e 9369     		ldr	r3, [r2, #24]
 218 0050 0133     		adds	r3, r3, #1
 219 0052 05D0     		beq	.L8
 113:Generated_Source\PSoC6\pdl\drivers\peripheral\tcpwm/cy_tcpwm_quaddec.c ****     {        
 114:Generated_Source\PSoC6\pdl\drivers\peripheral\tcpwm/cy_tcpwm_quaddec.c ****         base->CNT[cntNum].TR_CTRL0 = CY_TCPWM_CNT_TR_CTRL0_DEFAULT;
 220              		.loc 1 114 0
 221 0054 8901     		lsls	r1, r1, #6
ARM GAS  C:\Users\gjl\AppData\Local\Temp\ccYp04na.s 			page 7


 222              	.LVL10:
 223 0056 4118     		adds	r1, r0, r1
 224 0058 2131     		adds	r1, r1, #33
 225 005a FF31     		adds	r1, r1, #255
 226 005c 1023     		movs	r3, #16
 227 005e 0B60     		str	r3, [r1]
 228              	.L8:
 115:Generated_Source\PSoC6\pdl\drivers\peripheral\tcpwm/cy_tcpwm_quaddec.c ****     }
 116:Generated_Source\PSoC6\pdl\drivers\peripheral\tcpwm/cy_tcpwm_quaddec.c **** }
 229              		.loc 1 116 0
 230              		@ sp needed
 231 0060 70BD     		pop	{r4, r5, r6, pc}
 232              	.L11:
 233 0062 C046     		.align	2
 234              	.L10:
 235 0064 FF030000 		.word	1023
 236              		.cfi_endproc
 237              	.LFE56:
 238              		.size	Cy_TCPWM_QuadDec_DeInit, .-Cy_TCPWM_QuadDec_DeInit
 239              		.text
 240              	.Letext0:
 241              		.file 2 "c:\\program files (x86)\\cypress\\psoc creator\\4.2\\psoc creator\\import\\gnu\\arm\\5.4.
 242              		.file 3 "c:\\program files (x86)\\cypress\\psoc creator\\4.2\\psoc creator\\import\\gnu\\arm\\5.4.
 243              		.file 4 "Generated_Source\\PSoC6\\pdl\\devices/psoc6/ip/cyip_tcpwm.h"
 244              		.file 5 "Generated_Source\\PSoC6\\pdl\\drivers\\peripheral\\tcpwm\\cy_tcpwm.h"
 245              		.file 6 "Generated_Source\\PSoC6\\pdl\\drivers\\peripheral\\tcpwm\\cy_tcpwm_quaddec.h"