ARM GAS  C:\Users\gjl\AppData\Local\Temp\cc0COz1Y.s 			page 1


   1              		.syntax unified
   2              		.cpu cortex-m0plus
   3              		.fpu softvfp
   4              		.eabi_attribute 20, 1
   5              		.eabi_attribute 21, 1
   6              		.eabi_attribute 23, 3
   7              		.eabi_attribute 24, 1
   8              		.eabi_attribute 25, 1
   9              		.eabi_attribute 26, 1
  10              		.eabi_attribute 30, 1
  11              		.eabi_attribute 34, 0
  12              		.eabi_attribute 18, 4
  13              		.thumb
  14              		.syntax unified
  15              		.file	"cy_ble_clk.c"
  16              		.text
  17              	.Ltext0:
  18              		.cfi_sections	.debug_frame
  19              		.section	.text.Cy_BLE_HalRcbRegRead,"ax",%progbits
  20              		.align	2
  21              		.code	16
  22              		.thumb_func
  23              		.type	Cy_BLE_HalRcbRegRead, %function
  24              	Cy_BLE_HalRcbRegRead:
  25              	.LFB167:
  26              		.file 1 "Generated_Source\\PSoC6\\pdl\\middleware\\ble\\cy_ble_clk.c"
   1:Generated_Source\PSoC6\pdl\middleware\ble/cy_ble_clk.c **** /***************************************************************************//**
   2:Generated_Source\PSoC6\pdl\middleware\ble/cy_ble_clk.c **** * \file cy_ble_clk.c
   3:Generated_Source\PSoC6\pdl\middleware\ble/cy_ble_clk.c **** * \version 2.0
   4:Generated_Source\PSoC6\pdl\middleware\ble/cy_ble_clk.c **** *
   5:Generated_Source\PSoC6\pdl\middleware\ble/cy_ble_clk.c **** * \brief
   6:Generated_Source\PSoC6\pdl\middleware\ble/cy_ble_clk.c **** *  Contains the source code for the BLE ECO clock.
   7:Generated_Source\PSoC6\pdl\middleware\ble/cy_ble_clk.c **** *
   8:Generated_Source\PSoC6\pdl\middleware\ble/cy_ble_clk.c **** ********************************************************************************
   9:Generated_Source\PSoC6\pdl\middleware\ble/cy_ble_clk.c **** * \copyright
  10:Generated_Source\PSoC6\pdl\middleware\ble/cy_ble_clk.c **** * Copyright 2017-2018, Cypress Semiconductor Corporation.  All rights reserved.
  11:Generated_Source\PSoC6\pdl\middleware\ble/cy_ble_clk.c **** * You may use this file only in accordance with the license, terms, conditions,
  12:Generated_Source\PSoC6\pdl\middleware\ble/cy_ble_clk.c **** * disclaimers, and limitations in the end user license agreement accompanying
  13:Generated_Source\PSoC6\pdl\middleware\ble/cy_ble_clk.c **** * the software package with which this file was provided.
  14:Generated_Source\PSoC6\pdl\middleware\ble/cy_ble_clk.c **** *******************************************************************************/
  15:Generated_Source\PSoC6\pdl\middleware\ble/cy_ble_clk.c **** 
  16:Generated_Source\PSoC6\pdl\middleware\ble/cy_ble_clk.c **** #include "cy_ble_clk.h"
  17:Generated_Source\PSoC6\pdl\middleware\ble/cy_ble_clk.c **** #include "syslib/cy_syslib.h"
  18:Generated_Source\PSoC6\pdl\middleware\ble/cy_ble_clk.c **** #include "sysclk/cy_sysclk.h"
  19:Generated_Source\PSoC6\pdl\middleware\ble/cy_ble_clk.c **** #include "syspm/cy_syspm.h"
  20:Generated_Source\PSoC6\pdl\middleware\ble/cy_ble_clk.c **** 
  21:Generated_Source\PSoC6\pdl\middleware\ble/cy_ble_clk.c **** /* C binding of definitions if building with C++ compiler */
  22:Generated_Source\PSoC6\pdl\middleware\ble/cy_ble_clk.c **** #ifdef __cplusplus
  23:Generated_Source\PSoC6\pdl\middleware\ble/cy_ble_clk.c **** extern "C" {
  24:Generated_Source\PSoC6\pdl\middleware\ble/cy_ble_clk.c **** #endif /* __cplusplus */
  25:Generated_Source\PSoC6\pdl\middleware\ble/cy_ble_clk.c **** 
  26:Generated_Source\PSoC6\pdl\middleware\ble/cy_ble_clk.c **** 
  27:Generated_Source\PSoC6\pdl\middleware\ble/cy_ble_clk.c **** static cy_en_ble_eco_status_t Cy_BLE_HalRcbRegRead(uint16_t addr, uint16_t *data);
  28:Generated_Source\PSoC6\pdl\middleware\ble/cy_ble_clk.c **** static cy_en_ble_eco_status_t Cy_BLE_HalRcbRegWrite(uint16_t addr, uint16_t data);
  29:Generated_Source\PSoC6\pdl\middleware\ble/cy_ble_clk.c **** static cy_en_ble_eco_status_t Cy_BLE_HalEcoSetTrim(uint8_t trim, uint8_t startUpTime);
  30:Generated_Source\PSoC6\pdl\middleware\ble/cy_ble_clk.c **** static cy_en_ble_eco_status_t Cy_BLE_HalMxdRadioEnableClocks(const cy_stc_ble_bless_eco_cfg_params_
  31:Generated_Source\PSoC6\pdl\middleware\ble/cy_ble_clk.c **** 
ARM GAS  C:\Users\gjl\AppData\Local\Temp\cc0COz1Y.s 			page 2


  32:Generated_Source\PSoC6\pdl\middleware\ble/cy_ble_clk.c **** 
  33:Generated_Source\PSoC6\pdl\middleware\ble/cy_ble_clk.c **** /*******************************************************************************
  34:Generated_Source\PSoC6\pdl\middleware\ble/cy_ble_clk.c **** * Function Name: Cy_BLE_HAL_IsEcoCpuClockSrc
  35:Generated_Source\PSoC6\pdl\middleware\ble/cy_ble_clk.c **** ****************************************************************************//**
  36:Generated_Source\PSoC6\pdl\middleware\ble/cy_ble_clk.c **** *
  37:Generated_Source\PSoC6\pdl\middleware\ble/cy_ble_clk.c **** *  If ECO from BLESS in CLK_PATH_SELECT register is selected return 1.
  38:Generated_Source\PSoC6\pdl\middleware\ble/cy_ble_clk.c **** *
  39:Generated_Source\PSoC6\pdl\middleware\ble/cy_ble_clk.c **** *  \return
  40:Generated_Source\PSoC6\pdl\middleware\ble/cy_ble_clk.c **** *  uint8_t: 0 - ECO from BLESS is not used in DWR
  41:Generated_Source\PSoC6\pdl\middleware\ble/cy_ble_clk.c **** *           1 - ECO from BLESS is selected in CLK_PATH_SELECT register
  42:Generated_Source\PSoC6\pdl\middleware\ble/cy_ble_clk.c **** *
  43:Generated_Source\PSoC6\pdl\middleware\ble/cy_ble_clk.c **** *******************************************************************************/
  44:Generated_Source\PSoC6\pdl\middleware\ble/cy_ble_clk.c **** uint8_t Cy_BLE_HAL_IsEcoCpuClockSrc(void)
  45:Generated_Source\PSoC6\pdl\middleware\ble/cy_ble_clk.c **** {
  46:Generated_Source\PSoC6\pdl\middleware\ble/cy_ble_clk.c ****     uint8_t returnVal = 0u;
  47:Generated_Source\PSoC6\pdl\middleware\ble/cy_ble_clk.c ****     uint32_t i;
  48:Generated_Source\PSoC6\pdl\middleware\ble/cy_ble_clk.c **** 
  49:Generated_Source\PSoC6\pdl\middleware\ble/cy_ble_clk.c ****     for(i = 0u; i < SRSS_NUM_CLKPATH; i++)
  50:Generated_Source\PSoC6\pdl\middleware\ble/cy_ble_clk.c ****     {
  51:Generated_Source\PSoC6\pdl\middleware\ble/cy_ble_clk.c ****         if(Cy_SysClk_ClkPathGetSource(i) == CY_SYSCLK_CLKPATH_IN_ALTHF)
  52:Generated_Source\PSoC6\pdl\middleware\ble/cy_ble_clk.c ****         {
  53:Generated_Source\PSoC6\pdl\middleware\ble/cy_ble_clk.c ****             returnVal = 1u;
  54:Generated_Source\PSoC6\pdl\middleware\ble/cy_ble_clk.c ****             break;
  55:Generated_Source\PSoC6\pdl\middleware\ble/cy_ble_clk.c ****         }
  56:Generated_Source\PSoC6\pdl\middleware\ble/cy_ble_clk.c ****     }
  57:Generated_Source\PSoC6\pdl\middleware\ble/cy_ble_clk.c **** 
  58:Generated_Source\PSoC6\pdl\middleware\ble/cy_ble_clk.c ****     return(returnVal);
  59:Generated_Source\PSoC6\pdl\middleware\ble/cy_ble_clk.c **** }
  60:Generated_Source\PSoC6\pdl\middleware\ble/cy_ble_clk.c **** 
  61:Generated_Source\PSoC6\pdl\middleware\ble/cy_ble_clk.c **** 
  62:Generated_Source\PSoC6\pdl\middleware\ble/cy_ble_clk.c **** /*******************************************************************************
  63:Generated_Source\PSoC6\pdl\middleware\ble/cy_ble_clk.c **** * Function Name: Cy_BLE_HAL_IsWcoLfclkSrc
  64:Generated_Source\PSoC6\pdl\middleware\ble/cy_ble_clk.c **** ****************************************************************************//**
  65:Generated_Source\PSoC6\pdl\middleware\ble/cy_ble_clk.c **** *
  66:Generated_Source\PSoC6\pdl\middleware\ble/cy_ble_clk.c **** *  In CLK_SELECT register if WCO or PILO return 1
  67:Generated_Source\PSoC6\pdl\middleware\ble/cy_ble_clk.c **** *
  68:Generated_Source\PSoC6\pdl\middleware\ble/cy_ble_clk.c **** *  \return
  69:Generated_Source\PSoC6\pdl\middleware\ble/cy_ble_clk.c **** *  uint8_t: 0 - WCO or PILO are not used in DWR
  70:Generated_Source\PSoC6\pdl\middleware\ble/cy_ble_clk.c **** *           1 - WCO is selected in CLK_SELECT register
  71:Generated_Source\PSoC6\pdl\middleware\ble/cy_ble_clk.c **** *
  72:Generated_Source\PSoC6\pdl\middleware\ble/cy_ble_clk.c **** *******************************************************************************/
  73:Generated_Source\PSoC6\pdl\middleware\ble/cy_ble_clk.c **** uint8_t Cy_BLE_HAL_IsWcoLfclkSrc(void)
  74:Generated_Source\PSoC6\pdl\middleware\ble/cy_ble_clk.c **** {
  75:Generated_Source\PSoC6\pdl\middleware\ble/cy_ble_clk.c ****     cy_en_clklf_in_sources_t lfclkSrs;
  76:Generated_Source\PSoC6\pdl\middleware\ble/cy_ble_clk.c **** 
  77:Generated_Source\PSoC6\pdl\middleware\ble/cy_ble_clk.c ****     lfclkSrs = Cy_SysClk_ClkLfGetSource();
  78:Generated_Source\PSoC6\pdl\middleware\ble/cy_ble_clk.c **** 
  79:Generated_Source\PSoC6\pdl\middleware\ble/cy_ble_clk.c ****     return(((lfclkSrs == CY_SYSCLK_CLKLF_IN_WCO) || (lfclkSrs == CY_SYSCLK_CLKLF_IN_PILO)) ? 1u : 0
  80:Generated_Source\PSoC6\pdl\middleware\ble/cy_ble_clk.c **** }
  81:Generated_Source\PSoC6\pdl\middleware\ble/cy_ble_clk.c **** 
  82:Generated_Source\PSoC6\pdl\middleware\ble/cy_ble_clk.c **** 
  83:Generated_Source\PSoC6\pdl\middleware\ble/cy_ble_clk.c **** /*******************************************************************************
  84:Generated_Source\PSoC6\pdl\middleware\ble/cy_ble_clk.c **** * Function Name: Cy_BLE_HAL_Init
  85:Generated_Source\PSoC6\pdl\middleware\ble/cy_ble_clk.c **** ****************************************************************************//**
  86:Generated_Source\PSoC6\pdl\middleware\ble/cy_ble_clk.c **** *
  87:Generated_Source\PSoC6\pdl\middleware\ble/cy_ble_clk.c **** *  Initializes the BLESS port.
  88:Generated_Source\PSoC6\pdl\middleware\ble/cy_ble_clk.c **** *
ARM GAS  C:\Users\gjl\AppData\Local\Temp\cc0COz1Y.s 			page 3


  89:Generated_Source\PSoC6\pdl\middleware\ble/cy_ble_clk.c **** * \return
  90:Generated_Source\PSoC6\pdl\middleware\ble/cy_ble_clk.c **** *  None
  91:Generated_Source\PSoC6\pdl\middleware\ble/cy_ble_clk.c **** *
  92:Generated_Source\PSoC6\pdl\middleware\ble/cy_ble_clk.c **** *******************************************************************************/
  93:Generated_Source\PSoC6\pdl\middleware\ble/cy_ble_clk.c **** void Cy_BLE_HAL_Init(void)
  94:Generated_Source\PSoC6\pdl\middleware\ble/cy_ble_clk.c **** {
  95:Generated_Source\PSoC6\pdl\middleware\ble/cy_ble_clk.c ****     /* Configures pins for BLESS */
  96:Generated_Source\PSoC6\pdl\middleware\ble/cy_ble_clk.c ****     const cy_stc_gpio_prt_config_t port2_cfg =
  97:Generated_Source\PSoC6\pdl\middleware\ble/cy_ble_clk.c ****     {
  98:Generated_Source\PSoC6\pdl\middleware\ble/cy_ble_clk.c ****         .cfg        = CY_BLE_PORT2_CFG_VAL,
  99:Generated_Source\PSoC6\pdl\middleware\ble/cy_ble_clk.c ****         .cfgOut     = CY_BLE_PORT_CFG_OUT_VAL,
 100:Generated_Source\PSoC6\pdl\middleware\ble/cy_ble_clk.c ****         .sel0Active = CY_BLE_PORT2_HSIOM_SEL0,
 101:Generated_Source\PSoC6\pdl\middleware\ble/cy_ble_clk.c ****         .sel1Active = CY_BLE_PORT2_HSIOM_SEL1
 102:Generated_Source\PSoC6\pdl\middleware\ble/cy_ble_clk.c ****     };
 103:Generated_Source\PSoC6\pdl\middleware\ble/cy_ble_clk.c ****     const cy_stc_gpio_prt_config_t port3_cfg =
 104:Generated_Source\PSoC6\pdl\middleware\ble/cy_ble_clk.c ****     {
 105:Generated_Source\PSoC6\pdl\middleware\ble/cy_ble_clk.c ****         .cfg        = CY_BLE_PORT3_CFG_VAL,
 106:Generated_Source\PSoC6\pdl\middleware\ble/cy_ble_clk.c ****         .cfgOut     = CY_BLE_PORT_CFG_OUT_VAL,
 107:Generated_Source\PSoC6\pdl\middleware\ble/cy_ble_clk.c ****         .sel0Active = CY_BLE_PORT3_HSIOM_SEL0,
 108:Generated_Source\PSoC6\pdl\middleware\ble/cy_ble_clk.c ****         .sel1Active = CY_BLE_PORT3_HSIOM_SEL1
 109:Generated_Source\PSoC6\pdl\middleware\ble/cy_ble_clk.c ****     };
 110:Generated_Source\PSoC6\pdl\middleware\ble/cy_ble_clk.c ****     const cy_stc_gpio_prt_config_t port4_cfg =
 111:Generated_Source\PSoC6\pdl\middleware\ble/cy_ble_clk.c ****     {
 112:Generated_Source\PSoC6\pdl\middleware\ble/cy_ble_clk.c ****         .cfg        = CY_BLE_PORT4_CFG_VAL,
 113:Generated_Source\PSoC6\pdl\middleware\ble/cy_ble_clk.c ****         .cfgOut     = CY_BLE_PORT_CFG_OUT_VAL,
 114:Generated_Source\PSoC6\pdl\middleware\ble/cy_ble_clk.c ****         .sel0Active = CY_BLE_PORT4_HSIOM_SEL0,
 115:Generated_Source\PSoC6\pdl\middleware\ble/cy_ble_clk.c ****         .sel1Active = CY_BLE_PORT4_HSIOM_SEL1
 116:Generated_Source\PSoC6\pdl\middleware\ble/cy_ble_clk.c ****     };
 117:Generated_Source\PSoC6\pdl\middleware\ble/cy_ble_clk.c **** 
 118:Generated_Source\PSoC6\pdl\middleware\ble/cy_ble_clk.c ****     (void)Cy_GPIO_Port_Init(GPIO_PRT2, &port2_cfg);
 119:Generated_Source\PSoC6\pdl\middleware\ble/cy_ble_clk.c ****     (void)Cy_GPIO_Port_Init(GPIO_PRT3, &port3_cfg);
 120:Generated_Source\PSoC6\pdl\middleware\ble/cy_ble_clk.c ****     (void)Cy_GPIO_Port_Init(GPIO_PRT4, &port4_cfg);
 121:Generated_Source\PSoC6\pdl\middleware\ble/cy_ble_clk.c **** }
 122:Generated_Source\PSoC6\pdl\middleware\ble/cy_ble_clk.c **** 
 123:Generated_Source\PSoC6\pdl\middleware\ble/cy_ble_clk.c **** 
 124:Generated_Source\PSoC6\pdl\middleware\ble/cy_ble_clk.c **** /*******************************************************************************
 125:Generated_Source\PSoC6\pdl\middleware\ble/cy_ble_clk.c **** * Function Name: Cy_BLE_HalRcbRegRead
 126:Generated_Source\PSoC6\pdl\middleware\ble/cy_ble_clk.c **** ****************************************************************************//**
 127:Generated_Source\PSoC6\pdl\middleware\ble/cy_ble_clk.c **** *
 128:Generated_Source\PSoC6\pdl\middleware\ble/cy_ble_clk.c **** *  Reads Radio register.
 129:Generated_Source\PSoC6\pdl\middleware\ble/cy_ble_clk.c **** *
 130:Generated_Source\PSoC6\pdl\middleware\ble/cy_ble_clk.c **** *  \param addr: Register address.
 131:Generated_Source\PSoC6\pdl\middleware\ble/cy_ble_clk.c **** *  \param *data: Register data (output parameter).
 132:Generated_Source\PSoC6\pdl\middleware\ble/cy_ble_clk.c **** *
 133:Generated_Source\PSoC6\pdl\middleware\ble/cy_ble_clk.c **** *  \return
 134:Generated_Source\PSoC6\pdl\middleware\ble/cy_ble_clk.c **** *   CY_BLE_ECO_SUCCESS - On successful operation.
 135:Generated_Source\PSoC6\pdl\middleware\ble/cy_ble_clk.c **** *   CY_BLE_ECO_HARDWARE_ERROR - If RCB operation failed
 136:Generated_Source\PSoC6\pdl\middleware\ble/cy_ble_clk.c **** *
 137:Generated_Source\PSoC6\pdl\middleware\ble/cy_ble_clk.c **** *******************************************************************************/
 138:Generated_Source\PSoC6\pdl\middleware\ble/cy_ble_clk.c **** static cy_en_ble_eco_status_t Cy_BLE_HalRcbRegRead(uint16_t addr, uint16_t *data)
 139:Generated_Source\PSoC6\pdl\middleware\ble/cy_ble_clk.c **** {
  27              		.loc 1 139 0
  28              		.cfi_startproc
  29              		@ args = 0, pretend = 0, frame = 0
  30              		@ frame_needed = 0, uses_anonymous_args = 0
  31              	.LVL0:
  32 0000 70B5     		push	{r4, r5, r6, lr}
ARM GAS  C:\Users\gjl\AppData\Local\Temp\cc0COz1Y.s 			page 4


  33              		.cfi_def_cfa_offset 16
  34              		.cfi_offset 4, -16
  35              		.cfi_offset 5, -12
  36              		.cfi_offset 6, -8
  37              		.cfi_offset 14, -4
  38 0002 0D00     		movs	r5, r1
  39              	.LVL1:
 140:Generated_Source\PSoC6\pdl\middleware\ble/cy_ble_clk.c ****     cy_en_ble_eco_status_t status = CY_BLE_ECO_SUCCESS;
 141:Generated_Source\PSoC6\pdl\middleware\ble/cy_ble_clk.c ****     uint32_t timeout = CY_BLE_RCB_TIMEOUT;
 142:Generated_Source\PSoC6\pdl\middleware\ble/cy_ble_clk.c ****     uint32_t temp = (uint32_t)((0x8000UL | addr) << 16u);
  40              		.loc 1 142 0
  41 0004 0F4B     		ldr	r3, .L7
  42 0006 1843     		orrs	r0, r3
  43              	.LVL2:
  44 0008 0004     		lsls	r0, r0, #16
  45              	.LVL3:
 143:Generated_Source\PSoC6\pdl\middleware\ble/cy_ble_clk.c **** 
 144:Generated_Source\PSoC6\pdl\middleware\ble/cy_ble_clk.c ****     /* Write Address to the RCB */
 145:Generated_Source\PSoC6\pdl\middleware\ble/cy_ble_clk.c ****     BLE->RCB.TX_FIFO_WR = temp;
  46              		.loc 1 145 0
  47 000a 0F4B     		ldr	r3, .L7+4
  48 000c D861     		str	r0, [r3, #28]
 141:Generated_Source\PSoC6\pdl\middleware\ble/cy_ble_clk.c ****     uint32_t temp = (uint32_t)((0x8000UL | addr) << 16u);
  49              		.loc 1 141 0
  50 000e FA24     		movs	r4, #250
  51 0010 A400     		lsls	r4, r4, #2
 146:Generated_Source\PSoC6\pdl\middleware\ble/cy_ble_clk.c **** 
 147:Generated_Source\PSoC6\pdl\middleware\ble/cy_ble_clk.c ****     /* Wait for Data. */
 148:Generated_Source\PSoC6\pdl\middleware\ble/cy_ble_clk.c ****     while(((BLE->RCB.INTR & BLE_RCB_INTR_RCB_DONE_Msk) == 0u) && (timeout > 0u))
  52              		.loc 1 148 0
  53 0012 03E0     		b	.L2
  54              	.LVL4:
  55              	.L4:
 149:Generated_Source\PSoC6\pdl\middleware\ble/cy_ble_clk.c ****     {
 150:Generated_Source\PSoC6\pdl\middleware\ble/cy_ble_clk.c ****         timeout--;
  56              		.loc 1 150 0
  57 0014 013C     		subs	r4, r4, #1
  58              	.LVL5:
 151:Generated_Source\PSoC6\pdl\middleware\ble/cy_ble_clk.c ****         Cy_SysLib_DelayUs(CY_BLE_DELAY_TIME);
  59              		.loc 1 151 0
  60 0016 0120     		movs	r0, #1
  61 0018 FFF7FEFF 		bl	Cy_SysLib_DelayUs
  62              	.LVL6:
  63              	.L2:
 148:Generated_Source\PSoC6\pdl\middleware\ble/cy_ble_clk.c ****     {
  64              		.loc 1 148 0
  65 001c 0A4B     		ldr	r3, .L7+4
  66 001e 1B6C     		ldr	r3, [r3, #64]
  67 0020 DB07     		lsls	r3, r3, #31
  68 0022 01D4     		bmi	.L3
 148:Generated_Source\PSoC6\pdl\middleware\ble/cy_ble_clk.c ****     {
  69              		.loc 1 148 0 is_stmt 0 discriminator 1
  70 0024 002C     		cmp	r4, #0
  71 0026 F5D1     		bne	.L4
  72              	.L3:
 152:Generated_Source\PSoC6\pdl\middleware\ble/cy_ble_clk.c ****     }
 153:Generated_Source\PSoC6\pdl\middleware\ble/cy_ble_clk.c **** 
ARM GAS  C:\Users\gjl\AppData\Local\Temp\cc0COz1Y.s 			page 5


 154:Generated_Source\PSoC6\pdl\middleware\ble/cy_ble_clk.c ****     if(timeout > 0u)
  73              		.loc 1 154 0 is_stmt 1
  74 0028 002C     		cmp	r4, #0
  75 002a 08D0     		beq	.L6
 155:Generated_Source\PSoC6\pdl\middleware\ble/cy_ble_clk.c ****     {
 156:Generated_Source\PSoC6\pdl\middleware\ble/cy_ble_clk.c ****         BLE->RCB.INTR |= BLE_RCB_INTR_RCB_DONE_Msk;
  76              		.loc 1 156 0
  77 002c 064B     		ldr	r3, .L7+4
  78 002e 196C     		ldr	r1, [r3, #64]
  79 0030 0122     		movs	r2, #1
  80 0032 0A43     		orrs	r2, r1
  81 0034 1A64     		str	r2, [r3, #64]
 157:Generated_Source\PSoC6\pdl\middleware\ble/cy_ble_clk.c ****         *data = (uint16_t)BLE->RCB.RX_FIFO_RD;
  82              		.loc 1 157 0
  83 0036 DB6A     		ldr	r3, [r3, #44]
  84 0038 2B80     		strh	r3, [r5]
 140:Generated_Source\PSoC6\pdl\middleware\ble/cy_ble_clk.c ****     uint32_t timeout = CY_BLE_RCB_TIMEOUT;
  85              		.loc 1 140 0
  86 003a 0020     		movs	r0, #0
  87 003c 00E0     		b	.L5
  88              	.L6:
 158:Generated_Source\PSoC6\pdl\middleware\ble/cy_ble_clk.c ****     }
 159:Generated_Source\PSoC6\pdl\middleware\ble/cy_ble_clk.c ****     else
 160:Generated_Source\PSoC6\pdl\middleware\ble/cy_ble_clk.c ****     {
 161:Generated_Source\PSoC6\pdl\middleware\ble/cy_ble_clk.c ****         status = CY_BLE_ECO_HARDWARE_ERROR;
  89              		.loc 1 161 0
  90 003e 0348     		ldr	r0, .L7+8
  91              	.L5:
  92              	.LVL7:
 162:Generated_Source\PSoC6\pdl\middleware\ble/cy_ble_clk.c ****     }
 163:Generated_Source\PSoC6\pdl\middleware\ble/cy_ble_clk.c **** 
 164:Generated_Source\PSoC6\pdl\middleware\ble/cy_ble_clk.c ****     return(status);
 165:Generated_Source\PSoC6\pdl\middleware\ble/cy_ble_clk.c **** }
  93              		.loc 1 165 0
  94              		@ sp needed
  95              	.LVL8:
  96              	.LVL9:
  97 0040 70BD     		pop	{r4, r5, r6, pc}
  98              	.L8:
  99 0042 C046     		.align	2
 100              	.L7:
 101 0044 0080FFFF 		.word	-32768
 102 0048 00003C40 		.word	1077673984
 103 004c 04001600 		.word	1441796
 104              		.cfi_endproc
 105              	.LFE167:
 106              		.size	Cy_BLE_HalRcbRegRead, .-Cy_BLE_HalRcbRegRead
 107              		.section	.text.Cy_BLE_HalRcbRegWrite,"ax",%progbits
 108              		.align	2
 109              		.code	16
 110              		.thumb_func
 111              		.type	Cy_BLE_HalRcbRegWrite, %function
 112              	Cy_BLE_HalRcbRegWrite:
 113              	.LFB168:
 166:Generated_Source\PSoC6\pdl\middleware\ble/cy_ble_clk.c **** 
 167:Generated_Source\PSoC6\pdl\middleware\ble/cy_ble_clk.c **** 
 168:Generated_Source\PSoC6\pdl\middleware\ble/cy_ble_clk.c **** /*******************************************************************************
ARM GAS  C:\Users\gjl\AppData\Local\Temp\cc0COz1Y.s 			page 6


 169:Generated_Source\PSoC6\pdl\middleware\ble/cy_ble_clk.c **** * Function Name: Cy_BLE_HalRcbRegWrite
 170:Generated_Source\PSoC6\pdl\middleware\ble/cy_ble_clk.c **** ****************************************************************************//**
 171:Generated_Source\PSoC6\pdl\middleware\ble/cy_ble_clk.c **** *
 172:Generated_Source\PSoC6\pdl\middleware\ble/cy_ble_clk.c **** *  Writes Radio register.
 173:Generated_Source\PSoC6\pdl\middleware\ble/cy_ble_clk.c **** *
 174:Generated_Source\PSoC6\pdl\middleware\ble/cy_ble_clk.c **** *  \param addr: Register address.
 175:Generated_Source\PSoC6\pdl\middleware\ble/cy_ble_clk.c **** *  \param data: Register data.
 176:Generated_Source\PSoC6\pdl\middleware\ble/cy_ble_clk.c **** *
 177:Generated_Source\PSoC6\pdl\middleware\ble/cy_ble_clk.c **** *  \return
 178:Generated_Source\PSoC6\pdl\middleware\ble/cy_ble_clk.c **** *   CY_BLE_ECO_SUCCESS - On successful operation.
 179:Generated_Source\PSoC6\pdl\middleware\ble/cy_ble_clk.c **** *   CY_BLE_ECO_HARDWARE_ERROR - If RCB operation failed
 180:Generated_Source\PSoC6\pdl\middleware\ble/cy_ble_clk.c **** *
 181:Generated_Source\PSoC6\pdl\middleware\ble/cy_ble_clk.c **** *******************************************************************************/
 182:Generated_Source\PSoC6\pdl\middleware\ble/cy_ble_clk.c **** static cy_en_ble_eco_status_t Cy_BLE_HalRcbRegWrite(uint16_t addr, uint16_t data)
 183:Generated_Source\PSoC6\pdl\middleware\ble/cy_ble_clk.c **** {
 114              		.loc 1 183 0
 115              		.cfi_startproc
 116              		@ args = 0, pretend = 0, frame = 0
 117              		@ frame_needed = 0, uses_anonymous_args = 0
 118              	.LVL10:
 119 0000 10B5     		push	{r4, lr}
 120              		.cfi_def_cfa_offset 8
 121              		.cfi_offset 4, -8
 122              		.cfi_offset 14, -4
 123              	.LVL11:
 184:Generated_Source\PSoC6\pdl\middleware\ble/cy_ble_clk.c ****     cy_en_ble_eco_status_t status = CY_BLE_ECO_SUCCESS;
 185:Generated_Source\PSoC6\pdl\middleware\ble/cy_ble_clk.c ****     uint32_t timeout = CY_BLE_RCB_TIMEOUT;
 186:Generated_Source\PSoC6\pdl\middleware\ble/cy_ble_clk.c ****     uint32_t temp = ((uint32_t)((0x7FFFUL & addr) << 16u)) | data;
 124              		.loc 1 186 0
 125 0002 0004     		lsls	r0, r0, #16
 126              	.LVL12:
 127 0004 0E4B     		ldr	r3, .L15
 128 0006 1840     		ands	r0, r3
 129 0008 0143     		orrs	r1, r0
 130              	.LVL13:
 187:Generated_Source\PSoC6\pdl\middleware\ble/cy_ble_clk.c **** 
 188:Generated_Source\PSoC6\pdl\middleware\ble/cy_ble_clk.c ****     BLE->RCB.TX_FIFO_WR = temp;
 131              		.loc 1 188 0
 132 000a 0E4B     		ldr	r3, .L15+4
 133 000c D961     		str	r1, [r3, #28]
 185:Generated_Source\PSoC6\pdl\middleware\ble/cy_ble_clk.c ****     uint32_t temp = ((uint32_t)((0x7FFFUL & addr) << 16u)) | data;
 134              		.loc 1 185 0
 135 000e FA24     		movs	r4, #250
 136 0010 A400     		lsls	r4, r4, #2
 189:Generated_Source\PSoC6\pdl\middleware\ble/cy_ble_clk.c **** 
 190:Generated_Source\PSoC6\pdl\middleware\ble/cy_ble_clk.c ****     /* Wait for RCB done. */
 191:Generated_Source\PSoC6\pdl\middleware\ble/cy_ble_clk.c ****     while(((BLE->RCB.INTR & BLE_RCB_INTR_RCB_DONE_Msk) == 0u) && (timeout > 0u))
 137              		.loc 1 191 0
 138 0012 03E0     		b	.L10
 139              	.LVL14:
 140              	.L12:
 192:Generated_Source\PSoC6\pdl\middleware\ble/cy_ble_clk.c ****     {
 193:Generated_Source\PSoC6\pdl\middleware\ble/cy_ble_clk.c ****         timeout--;
 141              		.loc 1 193 0
 142 0014 013C     		subs	r4, r4, #1
 143              	.LVL15:
 194:Generated_Source\PSoC6\pdl\middleware\ble/cy_ble_clk.c ****         Cy_SysLib_DelayUs(CY_BLE_DELAY_TIME);
ARM GAS  C:\Users\gjl\AppData\Local\Temp\cc0COz1Y.s 			page 7


 144              		.loc 1 194 0
 145 0016 0120     		movs	r0, #1
 146 0018 FFF7FEFF 		bl	Cy_SysLib_DelayUs
 147              	.LVL16:
 148              	.L10:
 191:Generated_Source\PSoC6\pdl\middleware\ble/cy_ble_clk.c ****     {
 149              		.loc 1 191 0
 150 001c 094B     		ldr	r3, .L15+4
 151 001e 1B6C     		ldr	r3, [r3, #64]
 152 0020 DB07     		lsls	r3, r3, #31
 153 0022 01D4     		bmi	.L11
 191:Generated_Source\PSoC6\pdl\middleware\ble/cy_ble_clk.c ****     {
 154              		.loc 1 191 0 is_stmt 0 discriminator 1
 155 0024 002C     		cmp	r4, #0
 156 0026 F5D1     		bne	.L12
 157              	.L11:
 195:Generated_Source\PSoC6\pdl\middleware\ble/cy_ble_clk.c ****     }
 196:Generated_Source\PSoC6\pdl\middleware\ble/cy_ble_clk.c **** 
 197:Generated_Source\PSoC6\pdl\middleware\ble/cy_ble_clk.c ****     if(timeout > 0u)
 158              		.loc 1 197 0 is_stmt 1
 159 0028 002C     		cmp	r4, #0
 160 002a 06D0     		beq	.L14
 198:Generated_Source\PSoC6\pdl\middleware\ble/cy_ble_clk.c ****     {
 199:Generated_Source\PSoC6\pdl\middleware\ble/cy_ble_clk.c ****         BLE->RCB.INTR |= BLE_RCB_INTR_RCB_DONE_Msk;
 161              		.loc 1 199 0
 162 002c 054A     		ldr	r2, .L15+4
 163 002e 116C     		ldr	r1, [r2, #64]
 164 0030 0123     		movs	r3, #1
 165 0032 0B43     		orrs	r3, r1
 166 0034 1364     		str	r3, [r2, #64]
 184:Generated_Source\PSoC6\pdl\middleware\ble/cy_ble_clk.c ****     uint32_t timeout = CY_BLE_RCB_TIMEOUT;
 167              		.loc 1 184 0
 168 0036 0020     		movs	r0, #0
 169 0038 00E0     		b	.L13
 170              	.L14:
 200:Generated_Source\PSoC6\pdl\middleware\ble/cy_ble_clk.c ****     }
 201:Generated_Source\PSoC6\pdl\middleware\ble/cy_ble_clk.c ****     else
 202:Generated_Source\PSoC6\pdl\middleware\ble/cy_ble_clk.c ****     {
 203:Generated_Source\PSoC6\pdl\middleware\ble/cy_ble_clk.c ****         status = CY_BLE_ECO_HARDWARE_ERROR;
 171              		.loc 1 203 0
 172 003a 0348     		ldr	r0, .L15+8
 173              	.L13:
 174              	.LVL17:
 204:Generated_Source\PSoC6\pdl\middleware\ble/cy_ble_clk.c ****     }
 205:Generated_Source\PSoC6\pdl\middleware\ble/cy_ble_clk.c ****     
 206:Generated_Source\PSoC6\pdl\middleware\ble/cy_ble_clk.c ****     return(status);
 207:Generated_Source\PSoC6\pdl\middleware\ble/cy_ble_clk.c **** }
 175              		.loc 1 207 0
 176              		@ sp needed
 177              	.LVL18:
 178 003c 10BD     		pop	{r4, pc}
 179              	.L16:
 180 003e C046     		.align	2
 181              	.L15:
 182 0040 0000FF7F 		.word	2147418112
 183 0044 00003C40 		.word	1077673984
 184 0048 04001600 		.word	1441796
ARM GAS  C:\Users\gjl\AppData\Local\Temp\cc0COz1Y.s 			page 8


 185              		.cfi_endproc
 186              	.LFE168:
 187              		.size	Cy_BLE_HalRcbRegWrite, .-Cy_BLE_HalRcbRegWrite
 188              		.section	.text.Cy_BLE_HalMxdRadioEnableClocks,"ax",%progbits
 189              		.align	2
 190              		.code	16
 191              		.thumb_func
 192              		.type	Cy_BLE_HalMxdRadioEnableClocks, %function
 193              	Cy_BLE_HalMxdRadioEnableClocks:
 194              	.LFB170:
 208:Generated_Source\PSoC6\pdl\middleware\ble/cy_ble_clk.c **** 
 209:Generated_Source\PSoC6\pdl\middleware\ble/cy_ble_clk.c **** 
 210:Generated_Source\PSoC6\pdl\middleware\ble/cy_ble_clk.c **** /*******************************************************************************
 211:Generated_Source\PSoC6\pdl\middleware\ble/cy_ble_clk.c **** * Function Name: Cy_BLE_HalEcoSetTrim
 212:Generated_Source\PSoC6\pdl\middleware\ble/cy_ble_clk.c **** ****************************************************************************//**
 213:Generated_Source\PSoC6\pdl\middleware\ble/cy_ble_clk.c **** *
 214:Generated_Source\PSoC6\pdl\middleware\ble/cy_ble_clk.c **** *  Sets ECO trim value.
 215:Generated_Source\PSoC6\pdl\middleware\ble/cy_ble_clk.c **** *
 216:Generated_Source\PSoC6\pdl\middleware\ble/cy_ble_clk.c **** *  \param trim       : Trim value.
 217:Generated_Source\PSoC6\pdl\middleware\ble/cy_ble_clk.c **** *         startUpTime: start up time delay.
 218:Generated_Source\PSoC6\pdl\middleware\ble/cy_ble_clk.c **** *
 219:Generated_Source\PSoC6\pdl\middleware\ble/cy_ble_clk.c **** *  \return
 220:Generated_Source\PSoC6\pdl\middleware\ble/cy_ble_clk.c **** *   CY_BLE_ECO_SUCCESS - On successful operation.
 221:Generated_Source\PSoC6\pdl\middleware\ble/cy_ble_clk.c **** *   CY_BLE_ECO_HARDWARE_ERROR - If RCB operation failed
 222:Generated_Source\PSoC6\pdl\middleware\ble/cy_ble_clk.c **** *
 223:Generated_Source\PSoC6\pdl\middleware\ble/cy_ble_clk.c **** *******************************************************************************/
 224:Generated_Source\PSoC6\pdl\middleware\ble/cy_ble_clk.c **** static cy_en_ble_eco_status_t Cy_BLE_HalEcoSetTrim(uint8_t trim, uint8_t startUpTime)
 225:Generated_Source\PSoC6\pdl\middleware\ble/cy_ble_clk.c **** {
 226:Generated_Source\PSoC6\pdl\middleware\ble/cy_ble_clk.c ****     uint16_t reg = CY_BLE_RF_DCXO_CFG_REG_VALUE;
 227:Generated_Source\PSoC6\pdl\middleware\ble/cy_ble_clk.c ****     cy_en_ble_eco_status_t status;
 228:Generated_Source\PSoC6\pdl\middleware\ble/cy_ble_clk.c ****     
 229:Generated_Source\PSoC6\pdl\middleware\ble/cy_ble_clk.c ****     /* Load the new CAP TRIM value */
 230:Generated_Source\PSoC6\pdl\middleware\ble/cy_ble_clk.c ****     reg |= (uint16_t)((uint16_t)trim << CY_BLE_RF_DCXO_CFG_REG_DCXO_CAP_SHIFT);
 231:Generated_Source\PSoC6\pdl\middleware\ble/cy_ble_clk.c **** 
 232:Generated_Source\PSoC6\pdl\middleware\ble/cy_ble_clk.c ****     /* Write the new value to the register */
 233:Generated_Source\PSoC6\pdl\middleware\ble/cy_ble_clk.c ****     status = Cy_BLE_HalRcbRegWrite(CY_BLE_RF_DCXO_CFG_REG, reg);
 234:Generated_Source\PSoC6\pdl\middleware\ble/cy_ble_clk.c ****         
 235:Generated_Source\PSoC6\pdl\middleware\ble/cy_ble_clk.c ****     if(status == CY_BLE_ECO_SUCCESS)
 236:Generated_Source\PSoC6\pdl\middleware\ble/cy_ble_clk.c ****     {
 237:Generated_Source\PSoC6\pdl\middleware\ble/cy_ble_clk.c ****         /* Write the new value to the CFG2 register */
 238:Generated_Source\PSoC6\pdl\middleware\ble/cy_ble_clk.c ****         status = Cy_BLE_HalRcbRegWrite(CY_BLE_RF_DCXO_CFG2_REG, CY_BLE_RF_DCXO_CFG2_REG_VALUE);
 239:Generated_Source\PSoC6\pdl\middleware\ble/cy_ble_clk.c ****     }
 240:Generated_Source\PSoC6\pdl\middleware\ble/cy_ble_clk.c ****     
 241:Generated_Source\PSoC6\pdl\middleware\ble/cy_ble_clk.c ****     Cy_SysLib_DelayUs(startUpTime * CY_BLE_ECO_SET_TRIM_DELAY_COEF);
 242:Generated_Source\PSoC6\pdl\middleware\ble/cy_ble_clk.c ****     
 243:Generated_Source\PSoC6\pdl\middleware\ble/cy_ble_clk.c ****     return(status);
 244:Generated_Source\PSoC6\pdl\middleware\ble/cy_ble_clk.c **** }
 245:Generated_Source\PSoC6\pdl\middleware\ble/cy_ble_clk.c **** 
 246:Generated_Source\PSoC6\pdl\middleware\ble/cy_ble_clk.c **** 
 247:Generated_Source\PSoC6\pdl\middleware\ble/cy_ble_clk.c **** /*******************************************************************************
 248:Generated_Source\PSoC6\pdl\middleware\ble/cy_ble_clk.c **** * Function Name: Cy_BLE_HalMxdRadioEnableClocks
 249:Generated_Source\PSoC6\pdl\middleware\ble/cy_ble_clk.c **** ****************************************************************************//**
 250:Generated_Source\PSoC6\pdl\middleware\ble/cy_ble_clk.c **** *
 251:Generated_Source\PSoC6\pdl\middleware\ble/cy_ble_clk.c **** *  Enables and configures radio clock.
 252:Generated_Source\PSoC6\pdl\middleware\ble/cy_ble_clk.c **** *  
 253:Generated_Source\PSoC6\pdl\middleware\ble/cy_ble_clk.c **** *  \param ecoConfig: Clock configuration of type 'cy_stc_ble_bless_eco_cfg_params_t'.
 254:Generated_Source\PSoC6\pdl\middleware\ble/cy_ble_clk.c **** *
ARM GAS  C:\Users\gjl\AppData\Local\Temp\cc0COz1Y.s 			page 9


 255:Generated_Source\PSoC6\pdl\middleware\ble/cy_ble_clk.c **** *  \return
 256:Generated_Source\PSoC6\pdl\middleware\ble/cy_ble_clk.c **** *   CY_BLE_ECO_SUCCESS - On successful operation.
 257:Generated_Source\PSoC6\pdl\middleware\ble/cy_ble_clk.c **** *   CY_BLE_ECO_HARDWARE_ERROR - If RCB operation failed
 258:Generated_Source\PSoC6\pdl\middleware\ble/cy_ble_clk.c **** *
 259:Generated_Source\PSoC6\pdl\middleware\ble/cy_ble_clk.c **** *******************************************************************************/
 260:Generated_Source\PSoC6\pdl\middleware\ble/cy_ble_clk.c **** static cy_en_ble_eco_status_t Cy_BLE_HalMxdRadioEnableClocks(const cy_stc_ble_bless_eco_cfg_params_
 261:Generated_Source\PSoC6\pdl\middleware\ble/cy_ble_clk.c **** {
 195              		.loc 1 261 0
 196              		.cfi_startproc
 197              		@ args = 0, pretend = 0, frame = 8
 198              		@ frame_needed = 0, uses_anonymous_args = 0
 199              	.LVL19:
 200 0000 F0B5     		push	{r4, r5, r6, r7, lr}
 201              		.cfi_def_cfa_offset 20
 202              		.cfi_offset 4, -20
 203              		.cfi_offset 5, -16
 204              		.cfi_offset 6, -12
 205              		.cfi_offset 7, -8
 206              		.cfi_offset 14, -4
 207 0002 83B0     		sub	sp, sp, #12
 208              		.cfi_def_cfa_offset 32
 209 0004 0600     		movs	r6, r0
 210              	.LVL20:
 262:Generated_Source\PSoC6\pdl\middleware\ble/cy_ble_clk.c ****     uint16_t temp;
 263:Generated_Source\PSoC6\pdl\middleware\ble/cy_ble_clk.c ****     uint16_t blerdDivider;
 264:Generated_Source\PSoC6\pdl\middleware\ble/cy_ble_clk.c ****     uint16_t ecoSysDivider;
 265:Generated_Source\PSoC6\pdl\middleware\ble/cy_ble_clk.c ****     uint16_t blellDivider = 0u;
 266:Generated_Source\PSoC6\pdl\middleware\ble/cy_ble_clk.c ****     uint32_t retries = CY_BLE_RCB_RETRIES;
 211              		.loc 1 266 0
 212 0006 0A24     		movs	r4, #10
 213              	.LVL21:
 214              	.L21:
 267:Generated_Source\PSoC6\pdl\middleware\ble/cy_ble_clk.c ****     cy_en_ble_eco_status_t status;
 268:Generated_Source\PSoC6\pdl\middleware\ble/cy_ble_clk.c **** 
 269:Generated_Source\PSoC6\pdl\middleware\ble/cy_ble_clk.c ****     /* Deassert active domain reset and enable clock buffer in MXD Radio */
 270:Generated_Source\PSoC6\pdl\middleware\ble/cy_ble_clk.c ****     do
 271:Generated_Source\PSoC6\pdl\middleware\ble/cy_ble_clk.c ****     {
 272:Generated_Source\PSoC6\pdl\middleware\ble/cy_ble_clk.c ****         status = Cy_BLE_HalRcbRegWrite(CY_BLE_PMU_MODE_TRANSITION_REG, CY_BLE_MXD_RADIO_CLK_BUF_EN_
 215              		.loc 1 272 0
 216 0008 C021     		movs	r1, #192
 217 000a 4901     		lsls	r1, r1, #5
 218 000c 7548     		ldr	r0, .L42
 219 000e FFF7FEFF 		bl	Cy_BLE_HalRcbRegWrite
 220              	.LVL22:
 273:Generated_Source\PSoC6\pdl\middleware\ble/cy_ble_clk.c ****         if(status == CY_BLE_ECO_SUCCESS)
 221              		.loc 1 273 0
 222 0012 0028     		cmp	r0, #0
 223 0014 04D1     		bne	.L18
 274:Generated_Source\PSoC6\pdl\middleware\ble/cy_ble_clk.c ****         {
 275:Generated_Source\PSoC6\pdl\middleware\ble/cy_ble_clk.c ****             status = Cy_BLE_HalRcbRegRead(CY_BLE_PMU_MODE_TRANSITION_REG, &temp);
 224              		.loc 1 275 0
 225 0016 6B46     		mov	r3, sp
 226 0018 991D     		adds	r1, r3, #6
 227 001a 7248     		ldr	r0, .L42
 228              	.LVL23:
 229 001c FFF7FEFF 		bl	Cy_BLE_HalRcbRegRead
 230              	.LVL24:
ARM GAS  C:\Users\gjl\AppData\Local\Temp\cc0COz1Y.s 			page 10


 231              	.L18:
 276:Generated_Source\PSoC6\pdl\middleware\ble/cy_ble_clk.c ****         }
 277:Generated_Source\PSoC6\pdl\middleware\ble/cy_ble_clk.c ****         if(retries > 0u)
 232              		.loc 1 277 0
 233 0020 002C     		cmp	r4, #0
 234 0022 01D0     		beq	.L37
 278:Generated_Source\PSoC6\pdl\middleware\ble/cy_ble_clk.c ****         {
 279:Generated_Source\PSoC6\pdl\middleware\ble/cy_ble_clk.c ****             retries--;
 235              		.loc 1 279 0
 236 0024 013C     		subs	r4, r4, #1
 237              	.LVL25:
 238 0026 00E0     		b	.L19
 239              	.L37:
 280:Generated_Source\PSoC6\pdl\middleware\ble/cy_ble_clk.c ****         }
 281:Generated_Source\PSoC6\pdl\middleware\ble/cy_ble_clk.c ****         else
 282:Generated_Source\PSoC6\pdl\middleware\ble/cy_ble_clk.c ****         {
 283:Generated_Source\PSoC6\pdl\middleware\ble/cy_ble_clk.c ****             status = CY_BLE_ECO_HARDWARE_ERROR;
 240              		.loc 1 283 0
 241 0028 6F48     		ldr	r0, .L42+4
 242              	.LVL26:
 243              	.L19:
 284:Generated_Source\PSoC6\pdl\middleware\ble/cy_ble_clk.c ****         }
 285:Generated_Source\PSoC6\pdl\middleware\ble/cy_ble_clk.c ****     }
 286:Generated_Source\PSoC6\pdl\middleware\ble/cy_ble_clk.c ****     while((status == CY_BLE_ECO_SUCCESS) && (temp != CY_BLE_MXD_RADIO_CLK_BUF_EN_VAL));
 244              		.loc 1 286 0
 245 002a 0028     		cmp	r0, #0
 246 002c 05D1     		bne	.L20
 247              		.loc 1 286 0 is_stmt 0 discriminator 1
 248 002e 6B46     		mov	r3, sp
 249 0030 DA88     		ldrh	r2, [r3, #6]
 250 0032 C023     		movs	r3, #192
 251 0034 5B01     		lsls	r3, r3, #5
 252 0036 9A42     		cmp	r2, r3
 253 0038 E6D1     		bne	.L21
 254              	.L20:
 287:Generated_Source\PSoC6\pdl\middleware\ble/cy_ble_clk.c **** 
 288:Generated_Source\PSoC6\pdl\middleware\ble/cy_ble_clk.c ****     /* Check if ECO clock output is enabled
 289:Generated_Source\PSoC6\pdl\middleware\ble/cy_ble_clk.c ****      * In MXD_VER2, ECO clock is stopped on overwriting this bit */
 290:Generated_Source\PSoC6\pdl\middleware\ble/cy_ble_clk.c ****     if(status == CY_BLE_ECO_SUCCESS)
 255              		.loc 1 290 0 is_stmt 1
 256 003a 0028     		cmp	r0, #0
 257 003c 25D1     		bne	.L22
 258              	.LVL27:
 291:Generated_Source\PSoC6\pdl\middleware\ble/cy_ble_clk.c ****     {
 292:Generated_Source\PSoC6\pdl\middleware\ble/cy_ble_clk.c ****         retries = CY_BLE_RCB_RETRIES;
 293:Generated_Source\PSoC6\pdl\middleware\ble/cy_ble_clk.c ****         status = Cy_BLE_HalRcbRegRead(CY_BLE_PMU_PMU_CTRL_REG, &temp);
 259              		.loc 1 293 0
 260 003e 6B46     		mov	r3, sp
 261 0040 991D     		adds	r1, r3, #6
 262 0042 6A48     		ldr	r0, .L42+8
 263              	.LVL28:
 264 0044 FFF7FEFF 		bl	Cy_BLE_HalRcbRegRead
 265              	.LVL29:
 294:Generated_Source\PSoC6\pdl\middleware\ble/cy_ble_clk.c ****         if((status == CY_BLE_ECO_SUCCESS) && ((temp & CY_BLE_MXD_RADIO_DIG_CLK_OUT_EN_VAL) == 0u)) 
 266              		.loc 1 294 0
 267 0048 0028     		cmp	r0, #0
 268 004a 1ED1     		bne	.L22
ARM GAS  C:\Users\gjl\AppData\Local\Temp\cc0COz1Y.s 			page 11


 269              		.loc 1 294 0 is_stmt 0 discriminator 1
 270 004c 6B46     		mov	r3, sp
 271 004e 0633     		adds	r3, r3, #6
 272 0050 1B88     		ldrh	r3, [r3]
 273 0052 5B05     		lsls	r3, r3, #21
 274 0054 19D4     		bmi	.L22
 275 0056 0A24     		movs	r4, #10
 276              	.LVL30:
 277              	.L25:
 295:Generated_Source\PSoC6\pdl\middleware\ble/cy_ble_clk.c ****         {
 296:Generated_Source\PSoC6\pdl\middleware\ble/cy_ble_clk.c ****             /* Enable digital ECO clock output from MXD Radio to BLESS */
 297:Generated_Source\PSoC6\pdl\middleware\ble/cy_ble_clk.c ****             do
 298:Generated_Source\PSoC6\pdl\middleware\ble/cy_ble_clk.c ****             {
 299:Generated_Source\PSoC6\pdl\middleware\ble/cy_ble_clk.c ****                 status = Cy_BLE_HalRcbRegWrite(CY_BLE_PMU_PMU_CTRL_REG, CY_BLE_MXD_RADIO_DIG_CLK_OU
 278              		.loc 1 299 0 is_stmt 1
 279 0058 8021     		movs	r1, #128
 280 005a C900     		lsls	r1, r1, #3
 281 005c 6348     		ldr	r0, .L42+8
 282              	.LVL31:
 283 005e FFF7FEFF 		bl	Cy_BLE_HalRcbRegWrite
 284              	.LVL32:
 300:Generated_Source\PSoC6\pdl\middleware\ble/cy_ble_clk.c ****                 if(status == CY_BLE_ECO_SUCCESS)
 285              		.loc 1 300 0
 286 0062 0028     		cmp	r0, #0
 287 0064 04D1     		bne	.L23
 301:Generated_Source\PSoC6\pdl\middleware\ble/cy_ble_clk.c ****                 {
 302:Generated_Source\PSoC6\pdl\middleware\ble/cy_ble_clk.c ****                     status = Cy_BLE_HalRcbRegRead(CY_BLE_PMU_PMU_CTRL_REG, &temp);
 288              		.loc 1 302 0
 289 0066 6B46     		mov	r3, sp
 290 0068 991D     		adds	r1, r3, #6
 291 006a 6048     		ldr	r0, .L42+8
 292              	.LVL33:
 293 006c FFF7FEFF 		bl	Cy_BLE_HalRcbRegRead
 294              	.LVL34:
 295              	.L23:
 303:Generated_Source\PSoC6\pdl\middleware\ble/cy_ble_clk.c ****                 }
 304:Generated_Source\PSoC6\pdl\middleware\ble/cy_ble_clk.c ****                 if(retries > 0u)
 296              		.loc 1 304 0
 297 0070 002C     		cmp	r4, #0
 298 0072 01D0     		beq	.L38
 305:Generated_Source\PSoC6\pdl\middleware\ble/cy_ble_clk.c ****                 {
 306:Generated_Source\PSoC6\pdl\middleware\ble/cy_ble_clk.c ****                     retries--;
 299              		.loc 1 306 0
 300 0074 013C     		subs	r4, r4, #1
 301              	.LVL35:
 302 0076 00E0     		b	.L24
 303              	.L38:
 307:Generated_Source\PSoC6\pdl\middleware\ble/cy_ble_clk.c ****                 }
 308:Generated_Source\PSoC6\pdl\middleware\ble/cy_ble_clk.c ****                 else
 309:Generated_Source\PSoC6\pdl\middleware\ble/cy_ble_clk.c ****                 {
 310:Generated_Source\PSoC6\pdl\middleware\ble/cy_ble_clk.c ****                     status = CY_BLE_ECO_HARDWARE_ERROR;
 304              		.loc 1 310 0
 305 0078 5B48     		ldr	r0, .L42+4
 306              	.LVL36:
 307              	.L24:
 311:Generated_Source\PSoC6\pdl\middleware\ble/cy_ble_clk.c ****                 }
 312:Generated_Source\PSoC6\pdl\middleware\ble/cy_ble_clk.c ****             }
ARM GAS  C:\Users\gjl\AppData\Local\Temp\cc0COz1Y.s 			page 12


 313:Generated_Source\PSoC6\pdl\middleware\ble/cy_ble_clk.c ****             while((status == CY_BLE_ECO_SUCCESS) && (temp != CY_BLE_MXD_RADIO_DIG_CLK_OUT_EN_VAL));
 308              		.loc 1 313 0
 309 007a 0028     		cmp	r0, #0
 310 007c 05D1     		bne	.L22
 311              		.loc 1 313 0 is_stmt 0 discriminator 1
 312 007e 6B46     		mov	r3, sp
 313 0080 DA88     		ldrh	r2, [r3, #6]
 314 0082 8023     		movs	r3, #128
 315 0084 DB00     		lsls	r3, r3, #3
 316 0086 9A42     		cmp	r2, r3
 317 0088 E6D1     		bne	.L25
 318              	.LVL37:
 319              	.L22:
 314:Generated_Source\PSoC6\pdl\middleware\ble/cy_ble_clk.c ****         }
 315:Generated_Source\PSoC6\pdl\middleware\ble/cy_ble_clk.c ****     }
 316:Generated_Source\PSoC6\pdl\middleware\ble/cy_ble_clk.c **** 
 317:Generated_Source\PSoC6\pdl\middleware\ble/cy_ble_clk.c ****     /* Configure ECO clock frequency and clock divider in MXD Radio */
 318:Generated_Source\PSoC6\pdl\middleware\ble/cy_ble_clk.c ****     if(status == CY_BLE_ECO_SUCCESS)
 320              		.loc 1 318 0 is_stmt 1
 321 008a 0028     		cmp	r0, #0
 322 008c 04D1     		bne	.L26
 319:Generated_Source\PSoC6\pdl\middleware\ble/cy_ble_clk.c ****     {
 320:Generated_Source\PSoC6\pdl\middleware\ble/cy_ble_clk.c ****         /* Read the MXD Radio register */
 321:Generated_Source\PSoC6\pdl\middleware\ble/cy_ble_clk.c ****         status = Cy_BLE_HalRcbRegRead(CY_BLE_RF_DCXO_BUF_CFG_REG, &temp);
 323              		.loc 1 321 0
 324 008e 6B46     		mov	r3, sp
 325 0090 991D     		adds	r1, r3, #6
 326 0092 5748     		ldr	r0, .L42+12
 327              	.LVL38:
 328 0094 FFF7FEFF 		bl	Cy_BLE_HalRcbRegRead
 329              	.LVL39:
 330              	.L26:
 322:Generated_Source\PSoC6\pdl\middleware\ble/cy_ble_clk.c ****     }
 323:Generated_Source\PSoC6\pdl\middleware\ble/cy_ble_clk.c ****     if(status == CY_BLE_ECO_SUCCESS)
 331              		.loc 1 323 0
 332 0098 0028     		cmp	r0, #0
 333 009a 44D1     		bne	.L27
 324:Generated_Source\PSoC6\pdl\middleware\ble/cy_ble_clk.c ****     {
 325:Generated_Source\PSoC6\pdl\middleware\ble/cy_ble_clk.c ****         /* Clear clock divider and select amp buffer output bits */
 326:Generated_Source\PSoC6\pdl\middleware\ble/cy_ble_clk.c ****         temp &= CY_LO16(~((CY_BLE_RF_DCXO_BUF_CFG_REG_CLK_DIV_MASK << CY_BLE_RF_DCXO_BUF_CFG_REG_CL
 334              		.loc 1 326 0
 335 009c 6B46     		mov	r3, sp
 336 009e 0633     		adds	r3, r3, #6
 337 00a0 1B88     		ldrh	r3, [r3]
 338 00a2 3F22     		movs	r2, #63
 339 00a4 9343     		bics	r3, r2
 327:Generated_Source\PSoC6\pdl\middleware\ble/cy_ble_clk.c ****                           (CY_BLE_RF_DCXO_BUF_CFG_REG_BUF_AMP_SEL_MASK << CY_BLE_RF_DCXO_BUF_CFG_RE
 328:Generated_Source\PSoC6\pdl\middleware\ble/cy_ble_clk.c **** 
 329:Generated_Source\PSoC6\pdl\middleware\ble/cy_ble_clk.c ****         /* Total ECO divider consist of divider located on BLERD and BLESS divider
 330:Generated_Source\PSoC6\pdl\middleware\ble/cy_ble_clk.c ****          * Set BLERD divider to maximum value taking in to account that 8 MHz is required for BLELL
 331:Generated_Source\PSoC6\pdl\middleware\ble/cy_ble_clk.c ****          * BLELL clock frequency is set to 8 MHz irrespective of the crystal value.
 332:Generated_Source\PSoC6\pdl\middleware\ble/cy_ble_clk.c ****          */
 333:Generated_Source\PSoC6\pdl\middleware\ble/cy_ble_clk.c ****         if(ecoConfig->ecoFreq == CY_BLE_BLESS_ECO_FREQ_32MHZ)
 340              		.loc 1 333 0
 341 00a6 B278     		ldrb	r2, [r6, #2]
 342 00a8 012A     		cmp	r2, #1
 343 00aa 15D1     		bne	.L28
ARM GAS  C:\Users\gjl\AppData\Local\Temp\cc0COz1Y.s 			page 13


 334:Generated_Source\PSoC6\pdl\middleware\ble/cy_ble_clk.c ****         {
 335:Generated_Source\PSoC6\pdl\middleware\ble/cy_ble_clk.c ****             if(ecoConfig->ecoSysDiv >= CY_BLE_SYS_ECO_CLK_DIV_4)
 344              		.loc 1 335 0
 345 00ac F178     		ldrb	r1, [r6, #3]
 346 00ae 0129     		cmp	r1, #1
 347 00b0 04D8     		bhi	.L39
 336:Generated_Source\PSoC6\pdl\middleware\ble/cy_ble_clk.c ****             {
 337:Generated_Source\PSoC6\pdl\middleware\ble/cy_ble_clk.c ****                 blerdDivider = (uint16_t)CY_BLE_MXD_RADIO_CLK_DIV_4;
 338:Generated_Source\PSoC6\pdl\middleware\ble/cy_ble_clk.c ****             }
 339:Generated_Source\PSoC6\pdl\middleware\ble/cy_ble_clk.c ****             else
 340:Generated_Source\PSoC6\pdl\middleware\ble/cy_ble_clk.c ****             {
 341:Generated_Source\PSoC6\pdl\middleware\ble/cy_ble_clk.c ****                 blerdDivider = (uint16_t)ecoConfig->ecoSysDiv;
 348              		.loc 1 341 0
 349 00b2 8FB2     		uxth	r7, r1
 350              	.LVL40:
 342:Generated_Source\PSoC6\pdl\middleware\ble/cy_ble_clk.c ****                 blellDivider = (uint16_t)CY_BLE_MXD_RADIO_CLK_DIV_4 - blerdDivider;
 351              		.loc 1 342 0
 352 00b4 0222     		movs	r2, #2
 353 00b6 D21B     		subs	r2, r2, r7
 354 00b8 95B2     		uxth	r5, r2
 355              	.LVL41:
 356 00ba 01E0     		b	.L29
 357              	.LVL42:
 358              	.L39:
 265:Generated_Source\PSoC6\pdl\middleware\ble/cy_ble_clk.c ****     uint32_t retries = CY_BLE_RCB_RETRIES;
 359              		.loc 1 265 0
 360 00bc 0025     		movs	r5, #0
 337:Generated_Source\PSoC6\pdl\middleware\ble/cy_ble_clk.c ****             }
 361              		.loc 1 337 0
 362 00be 0227     		movs	r7, #2
 363              	.LVL43:
 364              	.L29:
 343:Generated_Source\PSoC6\pdl\middleware\ble/cy_ble_clk.c ****             }
 344:Generated_Source\PSoC6\pdl\middleware\ble/cy_ble_clk.c ****             temp |= CY_BLE_RF_DCXO_BUF_CFG_REG_XTAL_32M_SEL_BIT;
 365              		.loc 1 344 0
 366 00c0 4022     		movs	r2, #64
 367 00c2 1343     		orrs	r3, r2
 368 00c4 9BB2     		uxth	r3, r3
 345:Generated_Source\PSoC6\pdl\middleware\ble/cy_ble_clk.c ****             temp |= (uint16_t)(CY_BLE_MXD_RADIO_CLK_BUF_AMP_32M_LARGE << CY_BLE_RF_DCXO_BUF_CFG_REG
 369              		.loc 1 345 0
 370 00c6 3022     		movs	r2, #48
 371 00c8 1343     		orrs	r3, r2
 372 00ca 6A46     		mov	r2, sp
 373 00cc D380     		strh	r3, [r2, #6]
 346:Generated_Source\PSoC6\pdl\middleware\ble/cy_ble_clk.c **** 
 347:Generated_Source\PSoC6\pdl\middleware\ble/cy_ble_clk.c ****             /* Update cy_BleEcoClockFreqHz for the proper Cy_SysLib_Delay functionality */
 348:Generated_Source\PSoC6\pdl\middleware\ble/cy_ble_clk.c ****             cy_BleEcoClockFreqHz = CY_BLE_DEFAULT_ECO_CLK_FREQ_32MHZ / (1UL << (uint16_t)ecoConfig-
 374              		.loc 1 348 0
 375 00ce 494B     		ldr	r3, .L42+16
 376 00d0 CB40     		lsrs	r3, r3, r1
 377 00d2 494A     		ldr	r2, .L42+20
 378 00d4 1360     		str	r3, [r2]
 379 00d6 13E0     		b	.L30
 380              	.LVL44:
 381              	.L28:
 349:Generated_Source\PSoC6\pdl\middleware\ble/cy_ble_clk.c ****         }
 350:Generated_Source\PSoC6\pdl\middleware\ble/cy_ble_clk.c ****         else
ARM GAS  C:\Users\gjl\AppData\Local\Temp\cc0COz1Y.s 			page 14


 351:Generated_Source\PSoC6\pdl\middleware\ble/cy_ble_clk.c ****         {
 352:Generated_Source\PSoC6\pdl\middleware\ble/cy_ble_clk.c ****             if(ecoConfig->ecoSysDiv >= CY_BLE_SYS_ECO_CLK_DIV_2)
 382              		.loc 1 352 0
 383 00d8 F178     		ldrb	r1, [r6, #3]
 384 00da 0029     		cmp	r1, #0
 385 00dc 04D1     		bne	.L40
 353:Generated_Source\PSoC6\pdl\middleware\ble/cy_ble_clk.c ****             {
 354:Generated_Source\PSoC6\pdl\middleware\ble/cy_ble_clk.c ****                 blerdDivider = (uint16_t)CY_BLE_MXD_RADIO_CLK_DIV_2;
 355:Generated_Source\PSoC6\pdl\middleware\ble/cy_ble_clk.c ****             }
 356:Generated_Source\PSoC6\pdl\middleware\ble/cy_ble_clk.c ****             else
 357:Generated_Source\PSoC6\pdl\middleware\ble/cy_ble_clk.c ****             {
 358:Generated_Source\PSoC6\pdl\middleware\ble/cy_ble_clk.c ****                 blerdDivider = (uint16_t)ecoConfig->ecoSysDiv;
 386              		.loc 1 358 0
 387 00de 8FB2     		uxth	r7, r1
 388              	.LVL45:
 359:Generated_Source\PSoC6\pdl\middleware\ble/cy_ble_clk.c ****                 blellDivider = (uint16_t)CY_BLE_MXD_RADIO_CLK_DIV_2 - blerdDivider;
 389              		.loc 1 359 0
 390 00e0 0122     		movs	r2, #1
 391 00e2 D21B     		subs	r2, r2, r7
 392 00e4 95B2     		uxth	r5, r2
 393              	.LVL46:
 394 00e6 01E0     		b	.L31
 395              	.LVL47:
 396              	.L40:
 265:Generated_Source\PSoC6\pdl\middleware\ble/cy_ble_clk.c ****     uint32_t retries = CY_BLE_RCB_RETRIES;
 397              		.loc 1 265 0
 398 00e8 0025     		movs	r5, #0
 354:Generated_Source\PSoC6\pdl\middleware\ble/cy_ble_clk.c ****             }
 399              		.loc 1 354 0
 400 00ea 0127     		movs	r7, #1
 401              	.LVL48:
 402              	.L31:
 360:Generated_Source\PSoC6\pdl\middleware\ble/cy_ble_clk.c ****             }
 361:Generated_Source\PSoC6\pdl\middleware\ble/cy_ble_clk.c ****             temp &= (uint16_t) ~CY_BLE_RF_DCXO_BUF_CFG_REG_XTAL_32M_SEL_BIT;
 403              		.loc 1 361 0
 404 00ec 4022     		movs	r2, #64
 405 00ee 9343     		bics	r3, r2
 362:Generated_Source\PSoC6\pdl\middleware\ble/cy_ble_clk.c ****             temp |= (uint16_t)(CY_BLE_MXD_RADIO_CLK_BUF_AMP_16M_LARGE << CY_BLE_RF_DCXO_BUF_CFG_REG
 406              		.loc 1 362 0
 407 00f0 1022     		movs	r2, #16
 408 00f2 1343     		orrs	r3, r2
 409 00f4 6A46     		mov	r2, sp
 410 00f6 D380     		strh	r3, [r2, #6]
 363:Generated_Source\PSoC6\pdl\middleware\ble/cy_ble_clk.c **** 
 364:Generated_Source\PSoC6\pdl\middleware\ble/cy_ble_clk.c ****             /* Update cy_BleEcoClockFreqHz for the proper Cy_SysLib_Delay functionality */
 365:Generated_Source\PSoC6\pdl\middleware\ble/cy_ble_clk.c ****             cy_BleEcoClockFreqHz = CY_BLE_DEFAULT_ECO_CLK_FREQ_16MHZ / (1UL << (uint16_t)ecoConfig-
 411              		.loc 1 365 0
 412 00f8 404B     		ldr	r3, .L42+24
 413 00fa CB40     		lsrs	r3, r3, r1
 414 00fc 3E4A     		ldr	r2, .L42+20
 415 00fe 1360     		str	r3, [r2]
 416              	.L30:
 366:Generated_Source\PSoC6\pdl\middleware\ble/cy_ble_clk.c ****         }
 367:Generated_Source\PSoC6\pdl\middleware\ble/cy_ble_clk.c **** 
 368:Generated_Source\PSoC6\pdl\middleware\ble/cy_ble_clk.c ****         temp |= (uint16_t)(blerdDivider << CY_BLE_RF_DCXO_BUF_CFG_REG_CLK_DIV_SHIFT);
 417              		.loc 1 368 0
 418 0100 6B46     		mov	r3, sp
ARM GAS  C:\Users\gjl\AppData\Local\Temp\cc0COz1Y.s 			page 15


 419 0102 9C1D     		adds	r4, r3, #6
 420 0104 D988     		ldrh	r1, [r3, #6]
 421 0106 3943     		orrs	r1, r7
 422 0108 D980     		strh	r1, [r3, #6]
 369:Generated_Source\PSoC6\pdl\middleware\ble/cy_ble_clk.c ****         
 370:Generated_Source\PSoC6\pdl\middleware\ble/cy_ble_clk.c ****         /* Write the MXD Radio register */
 371:Generated_Source\PSoC6\pdl\middleware\ble/cy_ble_clk.c ****         status = Cy_BLE_HalRcbRegWrite(CY_BLE_RF_DCXO_BUF_CFG_REG, temp);
 423              		.loc 1 371 0
 424 010a 3948     		ldr	r0, .L42+12
 425              	.LVL49:
 426 010c FFF7FEFF 		bl	Cy_BLE_HalRcbRegWrite
 427              	.LVL50:
 372:Generated_Source\PSoC6\pdl\middleware\ble/cy_ble_clk.c ****         
 373:Generated_Source\PSoC6\pdl\middleware\ble/cy_ble_clk.c ****         /* Reduce BLESS divider by BLERD divider value */
 374:Generated_Source\PSoC6\pdl\middleware\ble/cy_ble_clk.c ****         ecoSysDivider = (uint16_t)ecoConfig->ecoSysDiv - blerdDivider;
 428              		.loc 1 374 0
 429 0110 F378     		ldrb	r3, [r6, #3]
 430 0112 DB1B     		subs	r3, r3, r7
 431              	.LVL51:
 375:Generated_Source\PSoC6\pdl\middleware\ble/cy_ble_clk.c ****         temp = (uint16_t)(ecoSysDivider & BLE_BLESS_XTAL_CLK_DIV_CONFIG_SYSCLK_DIV_Msk);
 432              		.loc 1 375 0
 433 0114 0322     		movs	r2, #3
 434 0116 1340     		ands	r3, r2
 435              	.LVL52:
 376:Generated_Source\PSoC6\pdl\middleware\ble/cy_ble_clk.c ****         temp |= (uint16_t)(blellDivider << BLE_BLESS_XTAL_CLK_DIV_CONFIG_LLCLK_DIV_Pos);
 436              		.loc 1 376 0
 437 0118 AA00     		lsls	r2, r5, #2
 438 011a 92B2     		uxth	r2, r2
 439 011c 1343     		orrs	r3, r2
 440 011e 2380     		strh	r3, [r4]
 441              	.LVL53:
 377:Generated_Source\PSoC6\pdl\middleware\ble/cy_ble_clk.c **** 
 378:Generated_Source\PSoC6\pdl\middleware\ble/cy_ble_clk.c ****         /* Set clock divider */
 379:Generated_Source\PSoC6\pdl\middleware\ble/cy_ble_clk.c ****         BLE->BLESS.XTAL_CLK_DIV_CONFIG = temp;
 442              		.loc 1 379 0
 443 0120 374A     		ldr	r2, .L42+28
 444 0122 3849     		ldr	r1, .L42+32
 445 0124 8B50     		str	r3, [r1, r2]
 446              	.LVL54:
 447              	.L27:
 448              	.LBB19:
 449              	.LBB20:
 450              		.file 2 "Generated_Source\\PSoC6\\pdl\\drivers/peripheral/syslib/cy_syslib.h"
   1:Generated_Source\PSoC6\pdl\drivers/peripheral/syslib/cy_syslib.h **** /***************************************************************************//**
   2:Generated_Source\PSoC6\pdl\drivers/peripheral/syslib/cy_syslib.h **** * \file cy_syslib.h
   3:Generated_Source\PSoC6\pdl\drivers/peripheral/syslib/cy_syslib.h **** * \version 2.0.1
   4:Generated_Source\PSoC6\pdl\drivers/peripheral/syslib/cy_syslib.h **** *
   5:Generated_Source\PSoC6\pdl\drivers/peripheral/syslib/cy_syslib.h **** * Provides an API declaration of the SysLib driver.
   6:Generated_Source\PSoC6\pdl\drivers/peripheral/syslib/cy_syslib.h **** *
   7:Generated_Source\PSoC6\pdl\drivers/peripheral/syslib/cy_syslib.h **** ********************************************************************************
   8:Generated_Source\PSoC6\pdl\drivers/peripheral/syslib/cy_syslib.h **** * \copyright
   9:Generated_Source\PSoC6\pdl\drivers/peripheral/syslib/cy_syslib.h **** * Copyright 2016-2018, Cypress Semiconductor Corporation. All rights reserved.
  10:Generated_Source\PSoC6\pdl\drivers/peripheral/syslib/cy_syslib.h **** * You may use this file only in accordance with the license, terms, conditions,
  11:Generated_Source\PSoC6\pdl\drivers/peripheral/syslib/cy_syslib.h **** * disclaimers, and limitations in the end user license agreement accompanying
  12:Generated_Source\PSoC6\pdl\drivers/peripheral/syslib/cy_syslib.h **** * the software package with which this file was provided.
  13:Generated_Source\PSoC6\pdl\drivers/peripheral/syslib/cy_syslib.h **** *******************************************************************************/
  14:Generated_Source\PSoC6\pdl\drivers/peripheral/syslib/cy_syslib.h **** 
ARM GAS  C:\Users\gjl\AppData\Local\Temp\cc0COz1Y.s 			page 16


  15:Generated_Source\PSoC6\pdl\drivers/peripheral/syslib/cy_syslib.h **** /**
  16:Generated_Source\PSoC6\pdl\drivers/peripheral/syslib/cy_syslib.h **** * \defgroup group_syslib System Library (SysLib)
  17:Generated_Source\PSoC6\pdl\drivers/peripheral/syslib/cy_syslib.h **** * \{
  18:Generated_Source\PSoC6\pdl\drivers/peripheral/syslib/cy_syslib.h **** * The system libraries provide APIs that can be called in the user application
  19:Generated_Source\PSoC6\pdl\drivers/peripheral/syslib/cy_syslib.h **** * to handle the timing, logical checking or register.
  20:Generated_Source\PSoC6\pdl\drivers/peripheral/syslib/cy_syslib.h **** *
  21:Generated_Source\PSoC6\pdl\drivers/peripheral/syslib/cy_syslib.h **** * The SysLib driver contains a set of different system functions. These functions
  22:Generated_Source\PSoC6\pdl\drivers/peripheral/syslib/cy_syslib.h **** * can be called in the application routine. Major features of the system library:
  23:Generated_Source\PSoC6\pdl\drivers/peripheral/syslib/cy_syslib.h **** * * Delay functions
  24:Generated_Source\PSoC6\pdl\drivers/peripheral/syslib/cy_syslib.h **** * * The register Read/Write macro
  25:Generated_Source\PSoC6\pdl\drivers/peripheral/syslib/cy_syslib.h **** * * Assert and Halt
  26:Generated_Source\PSoC6\pdl\drivers/peripheral/syslib/cy_syslib.h **** * * Assert Classes and Levels
  27:Generated_Source\PSoC6\pdl\drivers/peripheral/syslib/cy_syslib.h **** * * A software reset
  28:Generated_Source\PSoC6\pdl\drivers/peripheral/syslib/cy_syslib.h **** * * Reading the reset cause
  29:Generated_Source\PSoC6\pdl\drivers/peripheral/syslib/cy_syslib.h **** * * An API to invalidate the flash cache and buffer
  30:Generated_Source\PSoC6\pdl\drivers/peripheral/syslib/cy_syslib.h **** * * Data manipulation macro
  31:Generated_Source\PSoC6\pdl\drivers/peripheral/syslib/cy_syslib.h **** * * A variable type definition from MISRA-C which specifies signedness
  32:Generated_Source\PSoC6\pdl\drivers/peripheral/syslib/cy_syslib.h **** * * Cross compiler compatible attributes
  33:Generated_Source\PSoC6\pdl\drivers/peripheral/syslib/cy_syslib.h **** * * Getting a silicon-unique ID API
  34:Generated_Source\PSoC6\pdl\drivers/peripheral/syslib/cy_syslib.h **** * * Setting wait states API
  35:Generated_Source\PSoC6\pdl\drivers/peripheral/syslib/cy_syslib.h **** * * Resetting the backup domain API
  36:Generated_Source\PSoC6\pdl\drivers/peripheral/syslib/cy_syslib.h **** * * APIs to serve Fault handler
  37:Generated_Source\PSoC6\pdl\drivers/peripheral/syslib/cy_syslib.h **** *
  38:Generated_Source\PSoC6\pdl\drivers/peripheral/syslib/cy_syslib.h **** * \section group_syslib_configuration Configuration Considerations
  39:Generated_Source\PSoC6\pdl\drivers/peripheral/syslib/cy_syslib.h **** * <b> Assertion Usage </b> <br />
  40:Generated_Source\PSoC6\pdl\drivers/peripheral/syslib/cy_syslib.h **** * Use the CY_ASSERT() macro to check expressions that must be true as long as the
  41:Generated_Source\PSoC6\pdl\drivers/peripheral/syslib/cy_syslib.h **** * program is running correctly. It is a convenient way to insert sanity checks.
  42:Generated_Source\PSoC6\pdl\drivers/peripheral/syslib/cy_syslib.h **** * The CY_ASSERT() macro is defined in the cy_syslib.h file which is part of
  43:Generated_Source\PSoC6\pdl\drivers/peripheral/syslib/cy_syslib.h **** * the PDL library. The behavior of the macro is as follows: if the expression
  44:Generated_Source\PSoC6\pdl\drivers/peripheral/syslib/cy_syslib.h **** * passed to the macro is false, output an error message that includes the file
  45:Generated_Source\PSoC6\pdl\drivers/peripheral/syslib/cy_syslib.h **** * name and line number, and then halts the CPU. \n
  46:Generated_Source\PSoC6\pdl\drivers/peripheral/syslib/cy_syslib.h **** * In case of fault, the CY_ASSERT() macro calls the Cy_SysLib_AssertFailed() function.
  47:Generated_Source\PSoC6\pdl\drivers/peripheral/syslib/cy_syslib.h **** * This is a weakly linked function. The default implementation stores the file
  48:Generated_Source\PSoC6\pdl\drivers/peripheral/syslib/cy_syslib.h **** * name and line number of the ASSERT into global variables, cy_assertFileName
  49:Generated_Source\PSoC6\pdl\drivers/peripheral/syslib/cy_syslib.h **** * and cy_assertLine . It then calls the Cy_SysLib_Halt() function.
  50:Generated_Source\PSoC6\pdl\drivers/peripheral/syslib/cy_syslib.h **** * \note Firmware can redefine the Cy_SysLib_AssertFailed() function for custom processing.
  51:Generated_Source\PSoC6\pdl\drivers/peripheral/syslib/cy_syslib.h **** * 
  52:Generated_Source\PSoC6\pdl\drivers/peripheral/syslib/cy_syslib.h **** * The PDL source code uses this assert mechanism extensively. It is recommended
  53:Generated_Source\PSoC6\pdl\drivers/peripheral/syslib/cy_syslib.h **** * that you enable asserts when debugging firmware. \n
  54:Generated_Source\PSoC6\pdl\drivers/peripheral/syslib/cy_syslib.h **** * <b> Assertion Classes and Levels </b> <br />
  55:Generated_Source\PSoC6\pdl\drivers/peripheral/syslib/cy_syslib.h **** * The PDL defines three assert classes, which correspond to different kinds
  56:Generated_Source\PSoC6\pdl\drivers/peripheral/syslib/cy_syslib.h **** * of parameters. There is a corresponding assert "level" for each class.
  57:Generated_Source\PSoC6\pdl\drivers/peripheral/syslib/cy_syslib.h **** * <table class="doxtable">
  58:Generated_Source\PSoC6\pdl\drivers/peripheral/syslib/cy_syslib.h **** *   <tr><th>Class Macro</th><th>Level Macro</th><th>Type of check</th></tr>
  59:Generated_Source\PSoC6\pdl\drivers/peripheral/syslib/cy_syslib.h **** *   <tr>
  60:Generated_Source\PSoC6\pdl\drivers/peripheral/syslib/cy_syslib.h **** *     <td>CY_ASSERT_CLASS_1</td>
  61:Generated_Source\PSoC6\pdl\drivers/peripheral/syslib/cy_syslib.h **** *     <td>CY_ASSERT_L1</td>
  62:Generated_Source\PSoC6\pdl\drivers/peripheral/syslib/cy_syslib.h **** *     <td>A parameter that could change between different PSoC devices
  63:Generated_Source\PSoC6\pdl\drivers/peripheral/syslib/cy_syslib.h **** *         (e.g. the number of clock paths)</td>
  64:Generated_Source\PSoC6\pdl\drivers/peripheral/syslib/cy_syslib.h **** *   </tr>
  65:Generated_Source\PSoC6\pdl\drivers/peripheral/syslib/cy_syslib.h **** *   <tr>
  66:Generated_Source\PSoC6\pdl\drivers/peripheral/syslib/cy_syslib.h **** *     <td>CY_ASSERT_CLASS_2</td>
  67:Generated_Source\PSoC6\pdl\drivers/peripheral/syslib/cy_syslib.h **** *     <td>CY_ASSERT_L2</td>
  68:Generated_Source\PSoC6\pdl\drivers/peripheral/syslib/cy_syslib.h **** *     <td>A parameter that has fixed limits such as a counter period</td>
  69:Generated_Source\PSoC6\pdl\drivers/peripheral/syslib/cy_syslib.h **** *   </tr>
  70:Generated_Source\PSoC6\pdl\drivers/peripheral/syslib/cy_syslib.h **** *   <tr>
  71:Generated_Source\PSoC6\pdl\drivers/peripheral/syslib/cy_syslib.h **** *     <td>CY_ASSERT_CLASS_3</td>
ARM GAS  C:\Users\gjl\AppData\Local\Temp\cc0COz1Y.s 			page 17


  72:Generated_Source\PSoC6\pdl\drivers/peripheral/syslib/cy_syslib.h **** *     <td>CY_ASSERT_L3</td>
  73:Generated_Source\PSoC6\pdl\drivers/peripheral/syslib/cy_syslib.h **** *     <td>A parameter that is an enum constant</td>
  74:Generated_Source\PSoC6\pdl\drivers/peripheral/syslib/cy_syslib.h **** *   </tr>
  75:Generated_Source\PSoC6\pdl\drivers/peripheral/syslib/cy_syslib.h **** * </table>
  76:Generated_Source\PSoC6\pdl\drivers/peripheral/syslib/cy_syslib.h **** * Firmware defines which ASSERT class is enabled by defining CY_ASSERT_LEVEL.
  77:Generated_Source\PSoC6\pdl\drivers/peripheral/syslib/cy_syslib.h **** * This is a compiler command line argument, similar to how the DEBUG / NDEBUG
  78:Generated_Source\PSoC6\pdl\drivers/peripheral/syslib/cy_syslib.h **** * macro is passed. \n 
  79:Generated_Source\PSoC6\pdl\drivers/peripheral/syslib/cy_syslib.h **** * Enabling any class also enables any lower-numbered class.
  80:Generated_Source\PSoC6\pdl\drivers/peripheral/syslib/cy_syslib.h **** * CY_ASSERT_CLASS_3 is the default level, and it enables asserts for all three
  81:Generated_Source\PSoC6\pdl\drivers/peripheral/syslib/cy_syslib.h **** * classes. The following example shows the command-line option to enable all
  82:Generated_Source\PSoC6\pdl\drivers/peripheral/syslib/cy_syslib.h **** * the assert levels:
  83:Generated_Source\PSoC6\pdl\drivers/peripheral/syslib/cy_syslib.h **** * \code -D CY_ASSERT_LEVEL=CY_ASSERT_CLASS_3 \endcode
  84:Generated_Source\PSoC6\pdl\drivers/peripheral/syslib/cy_syslib.h **** * \note The use of special characters, such as spaces, parenthesis, etc. must
  85:Generated_Source\PSoC6\pdl\drivers/peripheral/syslib/cy_syslib.h **** * be protected with quotes. 
  86:Generated_Source\PSoC6\pdl\drivers/peripheral/syslib/cy_syslib.h **** * 
  87:Generated_Source\PSoC6\pdl\drivers/peripheral/syslib/cy_syslib.h **** * After CY_ASSERT_LEVEL is defined, firmware can use
  88:Generated_Source\PSoC6\pdl\drivers/peripheral/syslib/cy_syslib.h **** * one of the three level macros to make an assertion. For example, if the
  89:Generated_Source\PSoC6\pdl\drivers/peripheral/syslib/cy_syslib.h **** * parameter can vary between devices, firmware uses the L1 macro.
  90:Generated_Source\PSoC6\pdl\drivers/peripheral/syslib/cy_syslib.h **** * \code CY_ASSERT_L1(clkPath < SRSS_NUM_CLKPATH); \endcode
  91:Generated_Source\PSoC6\pdl\drivers/peripheral/syslib/cy_syslib.h **** * If the parameter has bounds, firmware uses L2.
  92:Generated_Source\PSoC6\pdl\drivers/peripheral/syslib/cy_syslib.h **** * \code CY_ASSERT_L2(trim <= CY_CTB_TRIM_VALUE_MAX); \endcode
  93:Generated_Source\PSoC6\pdl\drivers/peripheral/syslib/cy_syslib.h **** * If the parameter is an enum, firmware uses L3.
  94:Generated_Source\PSoC6\pdl\drivers/peripheral/syslib/cy_syslib.h **** * \code CY_ASSERT_L3(config->LossAction <= CY_SYSCLK_CSV_ERROR_FAULT_RESET); \endcode
  95:Generated_Source\PSoC6\pdl\drivers/peripheral/syslib/cy_syslib.h **** * Each check uses the appropriate level macro for the kind of parameter being checked.
  96:Generated_Source\PSoC6\pdl\drivers/peripheral/syslib/cy_syslib.h **** * If a particular assert class/level is not enabled, then the assert does nothing.
  97:Generated_Source\PSoC6\pdl\drivers/peripheral/syslib/cy_syslib.h **** *
  98:Generated_Source\PSoC6\pdl\drivers/peripheral/syslib/cy_syslib.h **** * \section group_syslib_more_information More Information
  99:Generated_Source\PSoC6\pdl\drivers/peripheral/syslib/cy_syslib.h **** * Refer to the technical reference manual (TRM).
 100:Generated_Source\PSoC6\pdl\drivers/peripheral/syslib/cy_syslib.h **** *
 101:Generated_Source\PSoC6\pdl\drivers/peripheral/syslib/cy_syslib.h **** * \section group_syslib_MISRA MISRA-C Compliance
 102:Generated_Source\PSoC6\pdl\drivers/peripheral/syslib/cy_syslib.h **** * <table class="doxtable">
 103:Generated_Source\PSoC6\pdl\drivers/peripheral/syslib/cy_syslib.h **** *   <tr>
 104:Generated_Source\PSoC6\pdl\drivers/peripheral/syslib/cy_syslib.h **** *     <th>MISRA Rule</th>
 105:Generated_Source\PSoC6\pdl\drivers/peripheral/syslib/cy_syslib.h **** *     <th>Rule Class (Required/Advisory)</th>
 106:Generated_Source\PSoC6\pdl\drivers/peripheral/syslib/cy_syslib.h **** *     <th>Rule Description</th>
 107:Generated_Source\PSoC6\pdl\drivers/peripheral/syslib/cy_syslib.h **** *     <th>Description of Deviation(s)</th>
 108:Generated_Source\PSoC6\pdl\drivers/peripheral/syslib/cy_syslib.h **** *   </tr>
 109:Generated_Source\PSoC6\pdl\drivers/peripheral/syslib/cy_syslib.h **** *   <tr>
 110:Generated_Source\PSoC6\pdl\drivers/peripheral/syslib/cy_syslib.h **** *     <td>18.4</td>
 111:Generated_Source\PSoC6\pdl\drivers/peripheral/syslib/cy_syslib.h **** *     <td>R</td>
 112:Generated_Source\PSoC6\pdl\drivers/peripheral/syslib/cy_syslib.h **** *     <td>Unions shall not be used.</td>
 113:Generated_Source\PSoC6\pdl\drivers/peripheral/syslib/cy_syslib.h **** *     <td>The unions are used for CFSR, HFSR and SHCSR Fault Status Registers
 114:Generated_Source\PSoC6\pdl\drivers/peripheral/syslib/cy_syslib.h **** *         content access as a word in code and as a structure during debug.</td>
 115:Generated_Source\PSoC6\pdl\drivers/peripheral/syslib/cy_syslib.h **** *   </tr>
 116:Generated_Source\PSoC6\pdl\drivers/peripheral/syslib/cy_syslib.h **** *   <tr>
 117:Generated_Source\PSoC6\pdl\drivers/peripheral/syslib/cy_syslib.h **** *     <td>19.13</td>
 118:Generated_Source\PSoC6\pdl\drivers/peripheral/syslib/cy_syslib.h **** *     <td>A</td>
 119:Generated_Source\PSoC6\pdl\drivers/peripheral/syslib/cy_syslib.h **** *     <td>The # and ## operators should not be used.</td>
 120:Generated_Source\PSoC6\pdl\drivers/peripheral/syslib/cy_syslib.h **** *     <td>The ## preprocessor operator is used in macros to form the field mask.</td>
 121:Generated_Source\PSoC6\pdl\drivers/peripheral/syslib/cy_syslib.h **** *   </tr>
 122:Generated_Source\PSoC6\pdl\drivers/peripheral/syslib/cy_syslib.h **** * </table>
 123:Generated_Source\PSoC6\pdl\drivers/peripheral/syslib/cy_syslib.h **** *
 124:Generated_Source\PSoC6\pdl\drivers/peripheral/syslib/cy_syslib.h **** * \section group_syslib_changelog Changelog
 125:Generated_Source\PSoC6\pdl\drivers/peripheral/syslib/cy_syslib.h **** * <table class="doxtable">
 126:Generated_Source\PSoC6\pdl\drivers/peripheral/syslib/cy_syslib.h **** *   <tr><th>Version</th><th>Changes</th><th>Reason for Change</th></tr>
 127:Generated_Source\PSoC6\pdl\drivers/peripheral/syslib/cy_syslib.h **** *   <tr>
 128:Generated_Source\PSoC6\pdl\drivers/peripheral/syslib/cy_syslib.h **** *     <td>2.0.1</td>
ARM GAS  C:\Users\gjl\AppData\Local\Temp\cc0COz1Y.s 			page 18


 129:Generated_Source\PSoC6\pdl\drivers/peripheral/syslib/cy_syslib.h **** *     <td>Minor documentation edits</td>
 130:Generated_Source\PSoC6\pdl\drivers/peripheral/syslib/cy_syslib.h **** *     <td>Documentation update and clarification</td>
 131:Generated_Source\PSoC6\pdl\drivers/peripheral/syslib/cy_syslib.h **** *   </tr>
 132:Generated_Source\PSoC6\pdl\drivers/peripheral/syslib/cy_syslib.h **** *   <tr>
 133:Generated_Source\PSoC6\pdl\drivers/peripheral/syslib/cy_syslib.h **** *     <td rowspan="4"> 2.0</td>
 134:Generated_Source\PSoC6\pdl\drivers/peripheral/syslib/cy_syslib.h **** *     <td>
 135:Generated_Source\PSoC6\pdl\drivers/peripheral/syslib/cy_syslib.h **** * Added Cy_SysLib_ResetBackupDomain() API implementation. \n
 136:Generated_Source\PSoC6\pdl\drivers/peripheral/syslib/cy_syslib.h **** * Added CY_NOINLINE attribute implementation. \n
 137:Generated_Source\PSoC6\pdl\drivers/peripheral/syslib/cy_syslib.h **** * Added DIE_YEAR field to 64-bit unique ID return value of Cy_SysLib_GetUniqueId() API. \n
 138:Generated_Source\PSoC6\pdl\drivers/peripheral/syslib/cy_syslib.h **** * Added storing of SCB->HFSR, SCB->SHCSR registers and SCB->MMFAR, SCB->BFAR addresses to Fault Han
 139:Generated_Source\PSoC6\pdl\drivers/peripheral/syslib/cy_syslib.h **** * Optimized Cy_SysLib_SetWaitStates() API implementation.
 140:Generated_Source\PSoC6\pdl\drivers/peripheral/syslib/cy_syslib.h **** *     </td>
 141:Generated_Source\PSoC6\pdl\drivers/peripheral/syslib/cy_syslib.h **** *     <td>Improvements made based on usability feedback.</td>
 142:Generated_Source\PSoC6\pdl\drivers/peripheral/syslib/cy_syslib.h **** *   </tr>
 143:Generated_Source\PSoC6\pdl\drivers/peripheral/syslib/cy_syslib.h **** *   <tr>
 144:Generated_Source\PSoC6\pdl\drivers/peripheral/syslib/cy_syslib.h **** *     <td>Added Assertion Classes and Levels.</td>
 145:Generated_Source\PSoC6\pdl\drivers/peripheral/syslib/cy_syslib.h **** *     <td>For error checking, parameter validation and status returns in the PDL API.</td>
 146:Generated_Source\PSoC6\pdl\drivers/peripheral/syslib/cy_syslib.h **** *   </tr>
 147:Generated_Source\PSoC6\pdl\drivers/peripheral/syslib/cy_syslib.h **** *   <tr>
 148:Generated_Source\PSoC6\pdl\drivers/peripheral/syslib/cy_syslib.h **** *     <td>Applied CY_NOINIT attribute to cy_assertFileName, cy_assertLine, and cy_faultFrame global
 149:Generated_Source\PSoC6\pdl\drivers/peripheral/syslib/cy_syslib.h **** *     <td>To store debug information into a non-zero init area for future analysis.</td>
 150:Generated_Source\PSoC6\pdl\drivers/peripheral/syslib/cy_syslib.h **** *   </tr>
 151:Generated_Source\PSoC6\pdl\drivers/peripheral/syslib/cy_syslib.h **** *   <tr>
 152:Generated_Source\PSoC6\pdl\drivers/peripheral/syslib/cy_syslib.h **** *     <td>Removed CY_WEAK attribute implementation.</td>
 153:Generated_Source\PSoC6\pdl\drivers/peripheral/syslib/cy_syslib.h **** *     <td>CMSIS __WEAK attribute should be used instead.</td>
 154:Generated_Source\PSoC6\pdl\drivers/peripheral/syslib/cy_syslib.h **** *   </tr>
 155:Generated_Source\PSoC6\pdl\drivers/peripheral/syslib/cy_syslib.h **** *   <tr>
 156:Generated_Source\PSoC6\pdl\drivers/peripheral/syslib/cy_syslib.h **** *     <td>1.0</td>
 157:Generated_Source\PSoC6\pdl\drivers/peripheral/syslib/cy_syslib.h **** *     <td>Initial version</td>
 158:Generated_Source\PSoC6\pdl\drivers/peripheral/syslib/cy_syslib.h **** *     <td></td>
 159:Generated_Source\PSoC6\pdl\drivers/peripheral/syslib/cy_syslib.h **** *   </tr>
 160:Generated_Source\PSoC6\pdl\drivers/peripheral/syslib/cy_syslib.h **** * </table>
 161:Generated_Source\PSoC6\pdl\drivers/peripheral/syslib/cy_syslib.h **** *
 162:Generated_Source\PSoC6\pdl\drivers/peripheral/syslib/cy_syslib.h **** * \defgroup group_syslib_macros Macros
 163:Generated_Source\PSoC6\pdl\drivers/peripheral/syslib/cy_syslib.h **** * \defgroup group_syslib_functions Functions
 164:Generated_Source\PSoC6\pdl\drivers/peripheral/syslib/cy_syslib.h **** * \defgroup group_syslib_data_structures Data Structures
 165:Generated_Source\PSoC6\pdl\drivers/peripheral/syslib/cy_syslib.h **** * \defgroup group_syslib_enumerated_types Enumerated Types
 166:Generated_Source\PSoC6\pdl\drivers/peripheral/syslib/cy_syslib.h **** *
 167:Generated_Source\PSoC6\pdl\drivers/peripheral/syslib/cy_syslib.h **** */
 168:Generated_Source\PSoC6\pdl\drivers/peripheral/syslib/cy_syslib.h **** 
 169:Generated_Source\PSoC6\pdl\drivers/peripheral/syslib/cy_syslib.h **** #if !defined(_CY_SYSLIB_H_)
 170:Generated_Source\PSoC6\pdl\drivers/peripheral/syslib/cy_syslib.h **** #define _CY_SYSLIB_H_
 171:Generated_Source\PSoC6\pdl\drivers/peripheral/syslib/cy_syslib.h **** 
 172:Generated_Source\PSoC6\pdl\drivers/peripheral/syslib/cy_syslib.h **** #include <stdint.h>
 173:Generated_Source\PSoC6\pdl\drivers/peripheral/syslib/cy_syslib.h **** #include <stdbool.h>
 174:Generated_Source\PSoC6\pdl\drivers/peripheral/syslib/cy_syslib.h **** #include "cy_device_headers.h"
 175:Generated_Source\PSoC6\pdl\drivers/peripheral/syslib/cy_syslib.h **** 
 176:Generated_Source\PSoC6\pdl\drivers/peripheral/syslib/cy_syslib.h **** #if defined(__cplusplus)
 177:Generated_Source\PSoC6\pdl\drivers/peripheral/syslib/cy_syslib.h **** extern "C" {
 178:Generated_Source\PSoC6\pdl\drivers/peripheral/syslib/cy_syslib.h **** #endif /* defined(__cplusplus) */
 179:Generated_Source\PSoC6\pdl\drivers/peripheral/syslib/cy_syslib.h **** 
 180:Generated_Source\PSoC6\pdl\drivers/peripheral/syslib/cy_syslib.h **** #if defined( __ICCARM__ )
 181:Generated_Source\PSoC6\pdl\drivers/peripheral/syslib/cy_syslib.h ****     /* Suppress the warning for multiple volatile variables in an expression. */
 182:Generated_Source\PSoC6\pdl\drivers/peripheral/syslib/cy_syslib.h ****     /* This is common for driver's code and the usage is not order-dependent. */
 183:Generated_Source\PSoC6\pdl\drivers/peripheral/syslib/cy_syslib.h ****     #pragma diag_suppress=Pa082
 184:Generated_Source\PSoC6\pdl\drivers/peripheral/syslib/cy_syslib.h **** #endif  /* defined( __ICCARM__ ) */
 185:Generated_Source\PSoC6\pdl\drivers/peripheral/syslib/cy_syslib.h **** 
ARM GAS  C:\Users\gjl\AppData\Local\Temp\cc0COz1Y.s 			page 19


 186:Generated_Source\PSoC6\pdl\drivers/peripheral/syslib/cy_syslib.h **** /**
 187:Generated_Source\PSoC6\pdl\drivers/peripheral/syslib/cy_syslib.h **** * \addtogroup group_syslib_macros
 188:Generated_Source\PSoC6\pdl\drivers/peripheral/syslib/cy_syslib.h **** * \{
 189:Generated_Source\PSoC6\pdl\drivers/peripheral/syslib/cy_syslib.h **** */
 190:Generated_Source\PSoC6\pdl\drivers/peripheral/syslib/cy_syslib.h **** 
 191:Generated_Source\PSoC6\pdl\drivers/peripheral/syslib/cy_syslib.h **** /******************************************************************************
 192:Generated_Source\PSoC6\pdl\drivers/peripheral/syslib/cy_syslib.h **** * Macros
 193:Generated_Source\PSoC6\pdl\drivers/peripheral/syslib/cy_syslib.h **** *****************************************************************************/
 194:Generated_Source\PSoC6\pdl\drivers/peripheral/syslib/cy_syslib.h **** 
 195:Generated_Source\PSoC6\pdl\drivers/peripheral/syslib/cy_syslib.h **** #define CY_CPU_CORTEX_M0P   (__CORTEX_M == 0)    /**< CM0+ core CPU Code */
 196:Generated_Source\PSoC6\pdl\drivers/peripheral/syslib/cy_syslib.h **** #define CY_CPU_CORTEX_M4    (__CORTEX_M == 4)    /**< CM4  core CPU Code */
 197:Generated_Source\PSoC6\pdl\drivers/peripheral/syslib/cy_syslib.h **** 
 198:Generated_Source\PSoC6\pdl\drivers/peripheral/syslib/cy_syslib.h **** /** The macro to disable the Fault Handler */
 199:Generated_Source\PSoC6\pdl\drivers/peripheral/syslib/cy_syslib.h **** #define CY_ARM_FAULT_DEBUG_DISABLED    (0U)
 200:Generated_Source\PSoC6\pdl\drivers/peripheral/syslib/cy_syslib.h **** /** The macro to enable the Fault Handler */
 201:Generated_Source\PSoC6\pdl\drivers/peripheral/syslib/cy_syslib.h **** #define CY_ARM_FAULT_DEBUG_ENABLED     (1U)
 202:Generated_Source\PSoC6\pdl\drivers/peripheral/syslib/cy_syslib.h **** 
 203:Generated_Source\PSoC6\pdl\drivers/peripheral/syslib/cy_syslib.h **** #if !defined(CY_ARM_FAULT_DEBUG)
 204:Generated_Source\PSoC6\pdl\drivers/peripheral/syslib/cy_syslib.h ****     /** The macro defines if the Fault Handler is enabled. Enabled by default. */
 205:Generated_Source\PSoC6\pdl\drivers/peripheral/syslib/cy_syslib.h ****     #define CY_ARM_FAULT_DEBUG         (CY_ARM_FAULT_DEBUG_ENABLED)
 206:Generated_Source\PSoC6\pdl\drivers/peripheral/syslib/cy_syslib.h **** #endif /* CY_ARM_FAULT_DEBUG */
 207:Generated_Source\PSoC6\pdl\drivers/peripheral/syslib/cy_syslib.h **** 
 208:Generated_Source\PSoC6\pdl\drivers/peripheral/syslib/cy_syslib.h **** /**
 209:Generated_Source\PSoC6\pdl\drivers/peripheral/syslib/cy_syslib.h **** * \defgroup group_syslib_macros_status_codes Status codes
 210:Generated_Source\PSoC6\pdl\drivers/peripheral/syslib/cy_syslib.h **** * \{
 211:Generated_Source\PSoC6\pdl\drivers/peripheral/syslib/cy_syslib.h **** * Function status type codes
 212:Generated_Source\PSoC6\pdl\drivers/peripheral/syslib/cy_syslib.h **** */
 213:Generated_Source\PSoC6\pdl\drivers/peripheral/syslib/cy_syslib.h **** #define CY_PDL_STATUS_CODE_Pos  (0U)        /**< The module status code position in the status code
 214:Generated_Source\PSoC6\pdl\drivers/peripheral/syslib/cy_syslib.h **** #define CY_PDL_STATUS_TYPE_Pos  (16U)       /**< The status type position in the status code */
 215:Generated_Source\PSoC6\pdl\drivers/peripheral/syslib/cy_syslib.h **** #define CY_PDL_MODULE_ID_Pos    (18U)       /**< The software module ID position in the status code
 216:Generated_Source\PSoC6\pdl\drivers/peripheral/syslib/cy_syslib.h **** #define CY_PDL_STATUS_INFO      (0UL << CY_PDL_STATUS_TYPE_Pos)    /**< The information status type
 217:Generated_Source\PSoC6\pdl\drivers/peripheral/syslib/cy_syslib.h **** #define CY_PDL_STATUS_WARNING   (1UL << CY_PDL_STATUS_TYPE_Pos)    /**< The warning status type */
 218:Generated_Source\PSoC6\pdl\drivers/peripheral/syslib/cy_syslib.h **** #define CY_PDL_STATUS_ERROR     (2UL << CY_PDL_STATUS_TYPE_Pos)    /**< The error status type */
 219:Generated_Source\PSoC6\pdl\drivers/peripheral/syslib/cy_syslib.h **** #define CY_PDL_MODULE_ID_Msk    (0x3FFFU)   /**< The software module ID mask */
 220:Generated_Source\PSoC6\pdl\drivers/peripheral/syslib/cy_syslib.h **** /** Get the software PDL module ID */
 221:Generated_Source\PSoC6\pdl\drivers/peripheral/syslib/cy_syslib.h **** #define CY_PDL_DRV_ID(id)       ((uint32_t)((uint32_t)((id) & CY_PDL_MODULE_ID_Msk) << CY_PDL_MODUL
 222:Generated_Source\PSoC6\pdl\drivers/peripheral/syslib/cy_syslib.h **** #define CY_SYSLIB_ID            CY_PDL_DRV_ID(0x11U)     /**< SYSLIB PDL ID */
 223:Generated_Source\PSoC6\pdl\drivers/peripheral/syslib/cy_syslib.h **** /** \} group_syslib_macros_status_codes */
 224:Generated_Source\PSoC6\pdl\drivers/peripheral/syslib/cy_syslib.h **** 
 225:Generated_Source\PSoC6\pdl\drivers/peripheral/syslib/cy_syslib.h **** /** \} group_syslib_macros */
 226:Generated_Source\PSoC6\pdl\drivers/peripheral/syslib/cy_syslib.h **** 
 227:Generated_Source\PSoC6\pdl\drivers/peripheral/syslib/cy_syslib.h **** /**
 228:Generated_Source\PSoC6\pdl\drivers/peripheral/syslib/cy_syslib.h **** * \addtogroup group_syslib_enumerated_types
 229:Generated_Source\PSoC6\pdl\drivers/peripheral/syslib/cy_syslib.h **** * \{
 230:Generated_Source\PSoC6\pdl\drivers/peripheral/syslib/cy_syslib.h **** */
 231:Generated_Source\PSoC6\pdl\drivers/peripheral/syslib/cy_syslib.h **** 
 232:Generated_Source\PSoC6\pdl\drivers/peripheral/syslib/cy_syslib.h **** /** The SysLib status code structure. */
 233:Generated_Source\PSoC6\pdl\drivers/peripheral/syslib/cy_syslib.h **** typedef enum
 234:Generated_Source\PSoC6\pdl\drivers/peripheral/syslib/cy_syslib.h **** {
 235:Generated_Source\PSoC6\pdl\drivers/peripheral/syslib/cy_syslib.h ****     CY_SYSLIB_SUCCESS       = 0x00UL,    /**< The success status code */
 236:Generated_Source\PSoC6\pdl\drivers/peripheral/syslib/cy_syslib.h ****     CY_SYSLIB_BAD_PARAM     = CY_SYSLIB_ID | CY_PDL_STATUS_ERROR | 0x01UL,    /**< The bad paramete
 237:Generated_Source\PSoC6\pdl\drivers/peripheral/syslib/cy_syslib.h ****     CY_SYSLIB_TIMEOUT       = CY_SYSLIB_ID | CY_PDL_STATUS_ERROR | 0x02UL,    /**< The time out sta
 238:Generated_Source\PSoC6\pdl\drivers/peripheral/syslib/cy_syslib.h ****     CY_SYSLIB_INVALID_STATE = CY_SYSLIB_ID | CY_PDL_STATUS_ERROR | 0x03UL,    /**< The invalid stat
 239:Generated_Source\PSoC6\pdl\drivers/peripheral/syslib/cy_syslib.h ****     CY_SYSLIB_UNKNOWN       = CY_SYSLIB_ID | CY_PDL_STATUS_ERROR | 0xFFUL     /**< Unknown status c
 240:Generated_Source\PSoC6\pdl\drivers/peripheral/syslib/cy_syslib.h **** } cy_en_syslib_status_t;
 241:Generated_Source\PSoC6\pdl\drivers/peripheral/syslib/cy_syslib.h **** 
 242:Generated_Source\PSoC6\pdl\drivers/peripheral/syslib/cy_syslib.h **** /** \} group_syslib_enumerated_types */
ARM GAS  C:\Users\gjl\AppData\Local\Temp\cc0COz1Y.s 			page 20


 243:Generated_Source\PSoC6\pdl\drivers/peripheral/syslib/cy_syslib.h **** /**
 244:Generated_Source\PSoC6\pdl\drivers/peripheral/syslib/cy_syslib.h **** * \addtogroup group_syslib_data_structures
 245:Generated_Source\PSoC6\pdl\drivers/peripheral/syslib/cy_syslib.h **** * \{
 246:Generated_Source\PSoC6\pdl\drivers/peripheral/syslib/cy_syslib.h **** */
 247:Generated_Source\PSoC6\pdl\drivers/peripheral/syslib/cy_syslib.h **** 
 248:Generated_Source\PSoC6\pdl\drivers/peripheral/syslib/cy_syslib.h **** #if (CY_ARM_FAULT_DEBUG == CY_ARM_FAULT_DEBUG_ENABLED)
 249:Generated_Source\PSoC6\pdl\drivers/peripheral/syslib/cy_syslib.h ****     #if (CY_CPU_CORTEX_M4)
 250:Generated_Source\PSoC6\pdl\drivers/peripheral/syslib/cy_syslib.h ****         /** Configurable Fault Status Register - CFSR */
 251:Generated_Source\PSoC6\pdl\drivers/peripheral/syslib/cy_syslib.h ****         typedef struct
 252:Generated_Source\PSoC6\pdl\drivers/peripheral/syslib/cy_syslib.h ****         {
 253:Generated_Source\PSoC6\pdl\drivers/peripheral/syslib/cy_syslib.h ****             /** MemManage Fault Status Sub-register - MMFSR */
 254:Generated_Source\PSoC6\pdl\drivers/peripheral/syslib/cy_syslib.h ****             uint32_t iaccViol    : 1;  /**< MemManage Fault - The instruction access violation flag
 255:Generated_Source\PSoC6\pdl\drivers/peripheral/syslib/cy_syslib.h ****             uint32_t daccViol    : 1;  /**< MemManage Fault - The data access violation flag */
 256:Generated_Source\PSoC6\pdl\drivers/peripheral/syslib/cy_syslib.h ****             uint32_t reserved1   : 1;  /**< Reserved */
 257:Generated_Source\PSoC6\pdl\drivers/peripheral/syslib/cy_syslib.h ****             uint32_t mUnstkErr   : 1;  /**< MemManage Fault - Unstacking for a return from exceptio
 258:Generated_Source\PSoC6\pdl\drivers/peripheral/syslib/cy_syslib.h ****             uint32_t mStkErr     : 1;  /**< MemManage Fault - MemManage fault on stacking for excep
 259:Generated_Source\PSoC6\pdl\drivers/peripheral/syslib/cy_syslib.h ****             uint32_t mlspErr     : 1;  /**< MemManage Fault - MemManage fault occurred during float
 260:Generated_Source\PSoC6\pdl\drivers/peripheral/syslib/cy_syslib.h ****             uint32_t reserved2   : 1;  /**< Reserved */
 261:Generated_Source\PSoC6\pdl\drivers/peripheral/syslib/cy_syslib.h ****             uint32_t mmarValid   : 1;  /**< MemManage Fault - The MemManage Address register valid 
 262:Generated_Source\PSoC6\pdl\drivers/peripheral/syslib/cy_syslib.h ****             /** Bus Fault Status Sub-register - UFSR */
 263:Generated_Source\PSoC6\pdl\drivers/peripheral/syslib/cy_syslib.h ****             uint32_t iBusErr     : 1;  /**< Bus Fault - The instruction bus error */
 264:Generated_Source\PSoC6\pdl\drivers/peripheral/syslib/cy_syslib.h ****             uint32_t precisErr   : 1;  /**< Bus Fault - The precise Data bus error */
 265:Generated_Source\PSoC6\pdl\drivers/peripheral/syslib/cy_syslib.h ****             uint32_t imprecisErr : 1;  /**< Bus Fault - The imprecise data bus error */
 266:Generated_Source\PSoC6\pdl\drivers/peripheral/syslib/cy_syslib.h ****             uint32_t unstkErr    : 1;  /**< Bus Fault - Unstacking for an exception return has caus
 267:Generated_Source\PSoC6\pdl\drivers/peripheral/syslib/cy_syslib.h ****             uint32_t stkErr      : 1;  /**< Bus Fault - Stacking for an exception entry has caused 
 268:Generated_Source\PSoC6\pdl\drivers/peripheral/syslib/cy_syslib.h ****             uint32_t lspErr      : 1;  /**< Bus Fault - A bus fault occurred during the floating-po
 269:Generated_Source\PSoC6\pdl\drivers/peripheral/syslib/cy_syslib.h ****             uint32_t reserved3   : 1;  /**< Reserved */
 270:Generated_Source\PSoC6\pdl\drivers/peripheral/syslib/cy_syslib.h ****             uint32_t bfarValid   : 1;  /**< Bus Fault - The bus fault address register valid flag *
 271:Generated_Source\PSoC6\pdl\drivers/peripheral/syslib/cy_syslib.h ****             /** Usage Fault Status Sub-register - UFSR */
 272:Generated_Source\PSoC6\pdl\drivers/peripheral/syslib/cy_syslib.h ****             uint32_t undefInstr  : 1;  /**< Usage Fault - An undefined instruction */
 273:Generated_Source\PSoC6\pdl\drivers/peripheral/syslib/cy_syslib.h ****             uint32_t invState    : 1;  /**< Usage Fault - The invalid state */
 274:Generated_Source\PSoC6\pdl\drivers/peripheral/syslib/cy_syslib.h ****             uint32_t invPC       : 1;  /**< Usage Fault - An invalid PC */
 275:Generated_Source\PSoC6\pdl\drivers/peripheral/syslib/cy_syslib.h ****             uint32_t noCP        : 1;  /**< Usage Fault - No coprocessor */
 276:Generated_Source\PSoC6\pdl\drivers/peripheral/syslib/cy_syslib.h ****             uint32_t reserved4   : 4;  /**< Reserved */
 277:Generated_Source\PSoC6\pdl\drivers/peripheral/syslib/cy_syslib.h ****             uint32_t unaligned   : 1;  /**< Usage Fault - Unaligned access */
 278:Generated_Source\PSoC6\pdl\drivers/peripheral/syslib/cy_syslib.h ****             uint32_t divByZero   : 1;  /**< Usage Fault - Divide by zero */
 279:Generated_Source\PSoC6\pdl\drivers/peripheral/syslib/cy_syslib.h ****             uint32_t reserved5   : 6;  /**< Reserved */
 280:Generated_Source\PSoC6\pdl\drivers/peripheral/syslib/cy_syslib.h ****         } cy_stc_fault_cfsr_t;
 281:Generated_Source\PSoC6\pdl\drivers/peripheral/syslib/cy_syslib.h **** 
 282:Generated_Source\PSoC6\pdl\drivers/peripheral/syslib/cy_syslib.h ****         /** Hard Fault Status Register - HFSR */
 283:Generated_Source\PSoC6\pdl\drivers/peripheral/syslib/cy_syslib.h ****         typedef struct
 284:Generated_Source\PSoC6\pdl\drivers/peripheral/syslib/cy_syslib.h ****         {
 285:Generated_Source\PSoC6\pdl\drivers/peripheral/syslib/cy_syslib.h ****             uint32_t reserved1   :  1;   /**< Reserved. */
 286:Generated_Source\PSoC6\pdl\drivers/peripheral/syslib/cy_syslib.h ****             uint32_t vectTbl     :  1;   /**< HFSR - Indicates a bus fault on a vector table read d
 287:Generated_Source\PSoC6\pdl\drivers/peripheral/syslib/cy_syslib.h ****             uint32_t reserved2   : 28;   /**< Reserved. */
 288:Generated_Source\PSoC6\pdl\drivers/peripheral/syslib/cy_syslib.h ****             uint32_t forced      :  1;   /**< HFSR - Indicates a forced hard fault */
 289:Generated_Source\PSoC6\pdl\drivers/peripheral/syslib/cy_syslib.h ****             uint32_t debugEvt    :  1;   /**< HFSR - Reserved for the debug use.  */
 290:Generated_Source\PSoC6\pdl\drivers/peripheral/syslib/cy_syslib.h ****         } cy_stc_fault_hfsr_t;
 291:Generated_Source\PSoC6\pdl\drivers/peripheral/syslib/cy_syslib.h **** 
 292:Generated_Source\PSoC6\pdl\drivers/peripheral/syslib/cy_syslib.h ****         /** System Handler Control and State Register - SHCSR */
 293:Generated_Source\PSoC6\pdl\drivers/peripheral/syslib/cy_syslib.h ****         typedef struct
 294:Generated_Source\PSoC6\pdl\drivers/peripheral/syslib/cy_syslib.h ****         {
 295:Generated_Source\PSoC6\pdl\drivers/peripheral/syslib/cy_syslib.h ****             uint32_t memFaultAct    :  1;   /**< SHCSR - The MemManage exception active bit, reads 
 296:Generated_Source\PSoC6\pdl\drivers/peripheral/syslib/cy_syslib.h ****             uint32_t busFaultAct    :  1;   /**< SHCSR - The BusFault exception active bit, reads a
 297:Generated_Source\PSoC6\pdl\drivers/peripheral/syslib/cy_syslib.h ****             uint32_t reserved1      :  1;   /**< Reserved. */
 298:Generated_Source\PSoC6\pdl\drivers/peripheral/syslib/cy_syslib.h ****             uint32_t usgFaultAct    :  1;   /**< SHCSR - The UsageFault exception active bit, reads
 299:Generated_Source\PSoC6\pdl\drivers/peripheral/syslib/cy_syslib.h ****             uint32_t reserved2      :  3;   /**< Reserved. */
ARM GAS  C:\Users\gjl\AppData\Local\Temp\cc0COz1Y.s 			page 21


 300:Generated_Source\PSoC6\pdl\drivers/peripheral/syslib/cy_syslib.h ****             uint32_t svCallAct      :  1;   /**< SHCSR - The SVCall active bit, reads as 1 if the S
 301:Generated_Source\PSoC6\pdl\drivers/peripheral/syslib/cy_syslib.h ****             uint32_t monitorAct     :  1;   /**< SHCSR - The debug monitor active bit, reads as 1 i
 302:Generated_Source\PSoC6\pdl\drivers/peripheral/syslib/cy_syslib.h ****             uint32_t reserved3      :  1;   /**< Reserved. */
 303:Generated_Source\PSoC6\pdl\drivers/peripheral/syslib/cy_syslib.h ****             uint32_t pendSVAct      :  1;   /**< SHCSR - The PendSV exception active bit, reads as 
 304:Generated_Source\PSoC6\pdl\drivers/peripheral/syslib/cy_syslib.h ****             uint32_t sysTickAct     :  1;   /**< SHCSR - The SysTick exception active bit, reads as
 305:Generated_Source\PSoC6\pdl\drivers/peripheral/syslib/cy_syslib.h ****             uint32_t usgFaultPended :  1;   /**< SHCSR - The UsageFault exception pending bit, read
 306:Generated_Source\PSoC6\pdl\drivers/peripheral/syslib/cy_syslib.h ****             uint32_t memFaultPended :  1;   /**< SHCSR - The MemManage exception pending bit, reads
 307:Generated_Source\PSoC6\pdl\drivers/peripheral/syslib/cy_syslib.h ****             uint32_t busFaultPended :  1;   /**< SHCSR - The BusFault exception pending bit, reads 
 308:Generated_Source\PSoC6\pdl\drivers/peripheral/syslib/cy_syslib.h ****             uint32_t svCallPended   :  1;   /**< SHCSR - The SVCall pending bit, reads as 1 if the 
 309:Generated_Source\PSoC6\pdl\drivers/peripheral/syslib/cy_syslib.h ****             uint32_t memFaultEna    :  1;   /**< SHCSR - The MemManage enable bit, set to 1 to enab
 310:Generated_Source\PSoC6\pdl\drivers/peripheral/syslib/cy_syslib.h ****             uint32_t busFaultEna    :  1;   /**< SHCSR - The BusFault enable bit, set to 1 to enabl
 311:Generated_Source\PSoC6\pdl\drivers/peripheral/syslib/cy_syslib.h ****             uint32_t usgFaultEna    :  1;   /**< SHCSR - The UsageFault enable bit, set to 1 to ena
 312:Generated_Source\PSoC6\pdl\drivers/peripheral/syslib/cy_syslib.h ****             uint32_t reserved4      : 13;   /**< Reserved */
 313:Generated_Source\PSoC6\pdl\drivers/peripheral/syslib/cy_syslib.h ****         } cy_stc_fault_shcsr_t;
 314:Generated_Source\PSoC6\pdl\drivers/peripheral/syslib/cy_syslib.h ****     #endif /* CY_CPU_CORTEX_M4 */
 315:Generated_Source\PSoC6\pdl\drivers/peripheral/syslib/cy_syslib.h **** 
 316:Generated_Source\PSoC6\pdl\drivers/peripheral/syslib/cy_syslib.h ****     /** The fault configuration structure. */
 317:Generated_Source\PSoC6\pdl\drivers/peripheral/syslib/cy_syslib.h ****     typedef struct
 318:Generated_Source\PSoC6\pdl\drivers/peripheral/syslib/cy_syslib.h ****     {
 319:Generated_Source\PSoC6\pdl\drivers/peripheral/syslib/cy_syslib.h ****         uint32_t r0;       /**< R0 register content */
 320:Generated_Source\PSoC6\pdl\drivers/peripheral/syslib/cy_syslib.h ****         uint32_t r1;       /**< R1 register content */
 321:Generated_Source\PSoC6\pdl\drivers/peripheral/syslib/cy_syslib.h ****         uint32_t r2;       /**< R2 register content */
 322:Generated_Source\PSoC6\pdl\drivers/peripheral/syslib/cy_syslib.h ****         uint32_t r3;       /**< R3 register content */
 323:Generated_Source\PSoC6\pdl\drivers/peripheral/syslib/cy_syslib.h ****         uint32_t r12;      /**< R12 register content */
 324:Generated_Source\PSoC6\pdl\drivers/peripheral/syslib/cy_syslib.h ****         uint32_t lr;       /**< LR register content */
 325:Generated_Source\PSoC6\pdl\drivers/peripheral/syslib/cy_syslib.h ****         uint32_t pc;       /**< PC register content */
 326:Generated_Source\PSoC6\pdl\drivers/peripheral/syslib/cy_syslib.h ****         uint32_t psr;      /**< PSR register content */
 327:Generated_Source\PSoC6\pdl\drivers/peripheral/syslib/cy_syslib.h ****         #if (CY_CPU_CORTEX_M4)
 328:Generated_Source\PSoC6\pdl\drivers/peripheral/syslib/cy_syslib.h ****             union
 329:Generated_Source\PSoC6\pdl\drivers/peripheral/syslib/cy_syslib.h ****             {
 330:Generated_Source\PSoC6\pdl\drivers/peripheral/syslib/cy_syslib.h ****                 uint32_t cfsrReg;              /**< CFSR register content as a word */
 331:Generated_Source\PSoC6\pdl\drivers/peripheral/syslib/cy_syslib.h ****                 cy_stc_fault_cfsr_t cfsrBits;  /**< CFSR register content as a structure */
 332:Generated_Source\PSoC6\pdl\drivers/peripheral/syslib/cy_syslib.h ****             } cfsr;
 333:Generated_Source\PSoC6\pdl\drivers/peripheral/syslib/cy_syslib.h ****             union
 334:Generated_Source\PSoC6\pdl\drivers/peripheral/syslib/cy_syslib.h ****             {
 335:Generated_Source\PSoC6\pdl\drivers/peripheral/syslib/cy_syslib.h ****                 uint32_t hfsrReg;              /**< HFSR register content as a word */
 336:Generated_Source\PSoC6\pdl\drivers/peripheral/syslib/cy_syslib.h ****                 cy_stc_fault_hfsr_t hfsrBits;  /**< HFSR register content as a structure */
 337:Generated_Source\PSoC6\pdl\drivers/peripheral/syslib/cy_syslib.h ****             } hfsr;
 338:Generated_Source\PSoC6\pdl\drivers/peripheral/syslib/cy_syslib.h ****             union
 339:Generated_Source\PSoC6\pdl\drivers/peripheral/syslib/cy_syslib.h ****             {
 340:Generated_Source\PSoC6\pdl\drivers/peripheral/syslib/cy_syslib.h ****                 uint32_t shcsrReg;              /**< SHCSR register content as a word */
 341:Generated_Source\PSoC6\pdl\drivers/peripheral/syslib/cy_syslib.h ****                 cy_stc_fault_shcsr_t shcsrBits; /**< SHCSR register content as a structure */
 342:Generated_Source\PSoC6\pdl\drivers/peripheral/syslib/cy_syslib.h ****             } shcsr;
 343:Generated_Source\PSoC6\pdl\drivers/peripheral/syslib/cy_syslib.h ****             uint32_t mmfar;                /**< MMFAR register content */
 344:Generated_Source\PSoC6\pdl\drivers/peripheral/syslib/cy_syslib.h ****             uint32_t bfar;                 /**< BFAR register content */
 345:Generated_Source\PSoC6\pdl\drivers/peripheral/syslib/cy_syslib.h ****             #if ((defined (__FPU_PRESENT) && (__FPU_PRESENT == 1U)) && \
 346:Generated_Source\PSoC6\pdl\drivers/peripheral/syslib/cy_syslib.h ****                  (defined (__FPU_USED   ) && (__FPU_USED    == 1U)))
 347:Generated_Source\PSoC6\pdl\drivers/peripheral/syslib/cy_syslib.h ****                 uint32_t s0;       /**< FPU S0 register content */
 348:Generated_Source\PSoC6\pdl\drivers/peripheral/syslib/cy_syslib.h ****                 uint32_t s1;       /**< FPU S1 register content */
 349:Generated_Source\PSoC6\pdl\drivers/peripheral/syslib/cy_syslib.h ****                 uint32_t s2;       /**< FPU S2 register content */
 350:Generated_Source\PSoC6\pdl\drivers/peripheral/syslib/cy_syslib.h ****                 uint32_t s3;       /**< FPU S3 register content */
 351:Generated_Source\PSoC6\pdl\drivers/peripheral/syslib/cy_syslib.h ****                 uint32_t s4;       /**< FPU S4 register content */
 352:Generated_Source\PSoC6\pdl\drivers/peripheral/syslib/cy_syslib.h ****                 uint32_t s5;       /**< FPU S5 register content */
 353:Generated_Source\PSoC6\pdl\drivers/peripheral/syslib/cy_syslib.h ****                 uint32_t s6;       /**< FPU S6 register content */
 354:Generated_Source\PSoC6\pdl\drivers/peripheral/syslib/cy_syslib.h ****                 uint32_t s7;       /**< FPU S7 register content */
 355:Generated_Source\PSoC6\pdl\drivers/peripheral/syslib/cy_syslib.h ****                 uint32_t s8;       /**< FPU S8 register content */
 356:Generated_Source\PSoC6\pdl\drivers/peripheral/syslib/cy_syslib.h ****                 uint32_t s9;       /**< FPU S9 register content */
ARM GAS  C:\Users\gjl\AppData\Local\Temp\cc0COz1Y.s 			page 22


 357:Generated_Source\PSoC6\pdl\drivers/peripheral/syslib/cy_syslib.h ****                 uint32_t s10;      /**< FPU S10 register content */
 358:Generated_Source\PSoC6\pdl\drivers/peripheral/syslib/cy_syslib.h ****                 uint32_t s11;      /**< FPU S11 register content */
 359:Generated_Source\PSoC6\pdl\drivers/peripheral/syslib/cy_syslib.h ****                 uint32_t s12;      /**< FPU S12 register content */
 360:Generated_Source\PSoC6\pdl\drivers/peripheral/syslib/cy_syslib.h ****                 uint32_t s13;      /**< FPU S13 register content */
 361:Generated_Source\PSoC6\pdl\drivers/peripheral/syslib/cy_syslib.h ****                 uint32_t s14;      /**< FPU S14 register content */
 362:Generated_Source\PSoC6\pdl\drivers/peripheral/syslib/cy_syslib.h ****                 uint32_t s15;      /**< FPU S15 register content */
 363:Generated_Source\PSoC6\pdl\drivers/peripheral/syslib/cy_syslib.h ****                 uint32_t fpscr;    /**< FPU FPSCR register content */
 364:Generated_Source\PSoC6\pdl\drivers/peripheral/syslib/cy_syslib.h ****             #endif /* __FPU_PRESENT */
 365:Generated_Source\PSoC6\pdl\drivers/peripheral/syslib/cy_syslib.h ****         #endif /* CY_CPU_CORTEX_M4 */
 366:Generated_Source\PSoC6\pdl\drivers/peripheral/syslib/cy_syslib.h ****     } cy_stc_fault_frame_t;
 367:Generated_Source\PSoC6\pdl\drivers/peripheral/syslib/cy_syslib.h **** #endif /* (CY_ARM_FAULT_DEBUG == CY_ARM_FAULT_DEBUG_ENABLED) */
 368:Generated_Source\PSoC6\pdl\drivers/peripheral/syslib/cy_syslib.h **** 
 369:Generated_Source\PSoC6\pdl\drivers/peripheral/syslib/cy_syslib.h **** /** \} group_syslib_data_structures */
 370:Generated_Source\PSoC6\pdl\drivers/peripheral/syslib/cy_syslib.h **** 
 371:Generated_Source\PSoC6\pdl\drivers/peripheral/syslib/cy_syslib.h **** /**
 372:Generated_Source\PSoC6\pdl\drivers/peripheral/syslib/cy_syslib.h **** * \addtogroup group_syslib_macros
 373:Generated_Source\PSoC6\pdl\drivers/peripheral/syslib/cy_syslib.h **** * \{
 374:Generated_Source\PSoC6\pdl\drivers/peripheral/syslib/cy_syslib.h **** */
 375:Generated_Source\PSoC6\pdl\drivers/peripheral/syslib/cy_syslib.h **** 
 376:Generated_Source\PSoC6\pdl\drivers/peripheral/syslib/cy_syslib.h **** /** The driver major version */
 377:Generated_Source\PSoC6\pdl\drivers/peripheral/syslib/cy_syslib.h **** #define CY_SYSLIB_DRV_VERSION_MAJOR    2
 378:Generated_Source\PSoC6\pdl\drivers/peripheral/syslib/cy_syslib.h **** 
 379:Generated_Source\PSoC6\pdl\drivers/peripheral/syslib/cy_syslib.h **** /** The driver minor version */
 380:Generated_Source\PSoC6\pdl\drivers/peripheral/syslib/cy_syslib.h **** #define CY_SYSLIB_DRV_VERSION_MINOR    0
 381:Generated_Source\PSoC6\pdl\drivers/peripheral/syslib/cy_syslib.h **** 
 382:Generated_Source\PSoC6\pdl\drivers/peripheral/syslib/cy_syslib.h **** 
 383:Generated_Source\PSoC6\pdl\drivers/peripheral/syslib/cy_syslib.h **** /*******************************************************************************
 384:Generated_Source\PSoC6\pdl\drivers/peripheral/syslib/cy_syslib.h **** *  Data manipulation defines
 385:Generated_Source\PSoC6\pdl\drivers/peripheral/syslib/cy_syslib.h **** *******************************************************************************/
 386:Generated_Source\PSoC6\pdl\drivers/peripheral/syslib/cy_syslib.h **** 
 387:Generated_Source\PSoC6\pdl\drivers/peripheral/syslib/cy_syslib.h **** /** Get the lower 8 bits of a 16-bit value. */
 388:Generated_Source\PSoC6\pdl\drivers/peripheral/syslib/cy_syslib.h **** #define CY_LO8(x)               ((uint8_t) ((x) & 0xFFU))
 389:Generated_Source\PSoC6\pdl\drivers/peripheral/syslib/cy_syslib.h **** /** Get the upper 8 bits of a 16-bit value. */
 390:Generated_Source\PSoC6\pdl\drivers/peripheral/syslib/cy_syslib.h **** #define CY_HI8(x)               ((uint8_t) ((uint16_t)(x) >> 8U))
 391:Generated_Source\PSoC6\pdl\drivers/peripheral/syslib/cy_syslib.h **** 
 392:Generated_Source\PSoC6\pdl\drivers/peripheral/syslib/cy_syslib.h **** /** Get the lower 16 bits of a 32-bit value. */
 393:Generated_Source\PSoC6\pdl\drivers/peripheral/syslib/cy_syslib.h **** #define CY_LO16(x)              ((uint16_t) ((x) & 0xFFFFU))
 394:Generated_Source\PSoC6\pdl\drivers/peripheral/syslib/cy_syslib.h **** /** Get the upper 16 bits of a 32-bit value. */
 395:Generated_Source\PSoC6\pdl\drivers/peripheral/syslib/cy_syslib.h **** #define CY_HI16(x)              ((uint16_t) ((uint32_t)(x) >> 16U))
 396:Generated_Source\PSoC6\pdl\drivers/peripheral/syslib/cy_syslib.h **** 
 397:Generated_Source\PSoC6\pdl\drivers/peripheral/syslib/cy_syslib.h **** /** Swap the byte ordering of a 16-bit value */
 398:Generated_Source\PSoC6\pdl\drivers/peripheral/syslib/cy_syslib.h **** #define CY_SWAP_ENDIAN16(x)     ((uint16_t)(((x) << 8U) | (((x) >> 8U) & 0x00FFU)))
 399:Generated_Source\PSoC6\pdl\drivers/peripheral/syslib/cy_syslib.h **** 
 400:Generated_Source\PSoC6\pdl\drivers/peripheral/syslib/cy_syslib.h **** /** Swap the byte ordering of a 32-bit value */
 401:Generated_Source\PSoC6\pdl\drivers/peripheral/syslib/cy_syslib.h **** #define CY_SWAP_ENDIAN32(x)     ((uint32_t)((((x) >> 24U) & 0x000000FFU) | (((x) & 0x00FF0000U) >> 
 402:Generated_Source\PSoC6\pdl\drivers/peripheral/syslib/cy_syslib.h ****                                 (((x) & 0x0000FF00U) << 8U) | ((x) << 24U)))
 403:Generated_Source\PSoC6\pdl\drivers/peripheral/syslib/cy_syslib.h **** 
 404:Generated_Source\PSoC6\pdl\drivers/peripheral/syslib/cy_syslib.h **** /** Swap the byte ordering of a 64-bit value */
 405:Generated_Source\PSoC6\pdl\drivers/peripheral/syslib/cy_syslib.h **** #define CY_SWAP_ENDIAN64(x)     ((uint64_t) (((uint64_t) CY_SWAP_ENDIAN32((uint32_t)(x)) << 32U) | 
 406:Generated_Source\PSoC6\pdl\drivers/peripheral/syslib/cy_syslib.h ****                                 CY_SWAP_ENDIAN32((uint32_t)((x) >> 32U))))
 407:Generated_Source\PSoC6\pdl\drivers/peripheral/syslib/cy_syslib.h **** 
 408:Generated_Source\PSoC6\pdl\drivers/peripheral/syslib/cy_syslib.h **** 
 409:Generated_Source\PSoC6\pdl\drivers/peripheral/syslib/cy_syslib.h **** /*******************************************************************************
 410:Generated_Source\PSoC6\pdl\drivers/peripheral/syslib/cy_syslib.h **** *   Memory model definitions
 411:Generated_Source\PSoC6\pdl\drivers/peripheral/syslib/cy_syslib.h **** *******************************************************************************/
 412:Generated_Source\PSoC6\pdl\drivers/peripheral/syslib/cy_syslib.h **** #if defined(__ARMCC_VERSION)
 413:Generated_Source\PSoC6\pdl\drivers/peripheral/syslib/cy_syslib.h ****     /** To create cross compiler compatible code, use the CY_NOINIT, CY_SECTION, CY_UNUSED, CY_ALIG
ARM GAS  C:\Users\gjl\AppData\Local\Temp\cc0COz1Y.s 			page 23


 414:Generated_Source\PSoC6\pdl\drivers/peripheral/syslib/cy_syslib.h ****      * attributes at the first place of declaration/definition.
 415:Generated_Source\PSoC6\pdl\drivers/peripheral/syslib/cy_syslib.h ****      * For example: CY_NOINIT uint32_t noinitVar;
 416:Generated_Source\PSoC6\pdl\drivers/peripheral/syslib/cy_syslib.h ****      */
 417:Generated_Source\PSoC6\pdl\drivers/peripheral/syslib/cy_syslib.h ****     #define CY_NOINIT           __attribute__ ((section(".noinit"), zero_init))
 418:Generated_Source\PSoC6\pdl\drivers/peripheral/syslib/cy_syslib.h ****     #define CY_SECTION(name)    __attribute__ ((section(name)))
 419:Generated_Source\PSoC6\pdl\drivers/peripheral/syslib/cy_syslib.h ****     #define CY_UNUSED           __attribute__ ((unused))
 420:Generated_Source\PSoC6\pdl\drivers/peripheral/syslib/cy_syslib.h ****     #define CY_NOINLINE         __attribute__ ((noinline))
 421:Generated_Source\PSoC6\pdl\drivers/peripheral/syslib/cy_syslib.h ****     /* Specifies the minimum alignment (in bytes) for variables of the specified type. */
 422:Generated_Source\PSoC6\pdl\drivers/peripheral/syslib/cy_syslib.h ****     #define CY_ALIGN(align)     __ALIGNED(align)
 423:Generated_Source\PSoC6\pdl\drivers/peripheral/syslib/cy_syslib.h **** #elif defined (__GNUC__)
 424:Generated_Source\PSoC6\pdl\drivers/peripheral/syslib/cy_syslib.h ****     #define CY_NOINIT           __attribute__ ((section(".noinit")))
 425:Generated_Source\PSoC6\pdl\drivers/peripheral/syslib/cy_syslib.h ****     #define CY_SECTION(name)    __attribute__ ((section(name)))
 426:Generated_Source\PSoC6\pdl\drivers/peripheral/syslib/cy_syslib.h ****     #define CY_UNUSED           __attribute__ ((unused))
 427:Generated_Source\PSoC6\pdl\drivers/peripheral/syslib/cy_syslib.h ****     #define CY_NOINLINE         __attribute__ ((noinline))
 428:Generated_Source\PSoC6\pdl\drivers/peripheral/syslib/cy_syslib.h ****     #define CY_ALIGN(align)     __ALIGNED(align)
 429:Generated_Source\PSoC6\pdl\drivers/peripheral/syslib/cy_syslib.h **** #elif defined (__ICCARM__)
 430:Generated_Source\PSoC6\pdl\drivers/peripheral/syslib/cy_syslib.h ****     #define CY_PRAGMA(x)        _Pragma(#x)
 431:Generated_Source\PSoC6\pdl\drivers/peripheral/syslib/cy_syslib.h ****     #define CY_NOINIT           __no_init
 432:Generated_Source\PSoC6\pdl\drivers/peripheral/syslib/cy_syslib.h ****     #define CY_SECTION(name)    CY_PRAGMA(location = name)
 433:Generated_Source\PSoC6\pdl\drivers/peripheral/syslib/cy_syslib.h ****     #define CY_UNUSED
 434:Generated_Source\PSoC6\pdl\drivers/peripheral/syslib/cy_syslib.h ****     #define CY_NOINLINE         CY_PRAGMA(optimize = no_inline)
 435:Generated_Source\PSoC6\pdl\drivers/peripheral/syslib/cy_syslib.h ****     #if (__VER__ < 8010001)
 436:Generated_Source\PSoC6\pdl\drivers/peripheral/syslib/cy_syslib.h ****         #define CY_ALIGN(align) CY_PRAGMA(data_alignment = align)
 437:Generated_Source\PSoC6\pdl\drivers/peripheral/syslib/cy_syslib.h ****     #else
 438:Generated_Source\PSoC6\pdl\drivers/peripheral/syslib/cy_syslib.h ****         #define CY_ALIGN(align) __ALIGNED(align)
 439:Generated_Source\PSoC6\pdl\drivers/peripheral/syslib/cy_syslib.h ****     #endif /* (__VER__ < 8010001) */
 440:Generated_Source\PSoC6\pdl\drivers/peripheral/syslib/cy_syslib.h **** #else
 441:Generated_Source\PSoC6\pdl\drivers/peripheral/syslib/cy_syslib.h ****     #error "An unsupported toolchain"
 442:Generated_Source\PSoC6\pdl\drivers/peripheral/syslib/cy_syslib.h **** #endif  /* (__ARMCC_VERSION) */
 443:Generated_Source\PSoC6\pdl\drivers/peripheral/syslib/cy_syslib.h **** 
 444:Generated_Source\PSoC6\pdl\drivers/peripheral/syslib/cy_syslib.h **** typedef void (* cy_israddress)(void);   /**< Type of ISR callbacks */
 445:Generated_Source\PSoC6\pdl\drivers/peripheral/syslib/cy_syslib.h **** #if defined (__ICCARM__)
 446:Generated_Source\PSoC6\pdl\drivers/peripheral/syslib/cy_syslib.h ****     typedef union { cy_israddress __fun; void * __ptr; } cy_intvec_elem;
 447:Generated_Source\PSoC6\pdl\drivers/peripheral/syslib/cy_syslib.h **** #endif  /* defined (__ICCARM__) */
 448:Generated_Source\PSoC6\pdl\drivers/peripheral/syslib/cy_syslib.h **** 
 449:Generated_Source\PSoC6\pdl\drivers/peripheral/syslib/cy_syslib.h **** /* MISRA rule 6.3 recommends using specific-length typedef for the basic
 450:Generated_Source\PSoC6\pdl\drivers/peripheral/syslib/cy_syslib.h ****  * numerical types of signed and unsigned variants of char, float, and double.
 451:Generated_Source\PSoC6\pdl\drivers/peripheral/syslib/cy_syslib.h ****  */
 452:Generated_Source\PSoC6\pdl\drivers/peripheral/syslib/cy_syslib.h **** typedef char     char_t;    /**< Specific-length typedef for the basic numerical types of char */
 453:Generated_Source\PSoC6\pdl\drivers/peripheral/syslib/cy_syslib.h **** typedef float    float32_t; /**< Specific-length typedef for the basic numerical types of float */
 454:Generated_Source\PSoC6\pdl\drivers/peripheral/syslib/cy_syslib.h **** typedef double   float64_t; /**< Specific-length typedef for the basic numerical types of double */
 455:Generated_Source\PSoC6\pdl\drivers/peripheral/syslib/cy_syslib.h **** 
 456:Generated_Source\PSoC6\pdl\drivers/peripheral/syslib/cy_syslib.h **** #if !defined(NDEBUG)
 457:Generated_Source\PSoC6\pdl\drivers/peripheral/syslib/cy_syslib.h ****     /** The max size of the file name which stores the ASSERT location */
 458:Generated_Source\PSoC6\pdl\drivers/peripheral/syslib/cy_syslib.h ****     #define CY_MAX_FILE_NAME_SIZE  (24U)
 459:Generated_Source\PSoC6\pdl\drivers/peripheral/syslib/cy_syslib.h ****     extern CY_NOINIT char_t cy_assertFileName[CY_MAX_FILE_NAME_SIZE];  /**< The assert buffer */
 460:Generated_Source\PSoC6\pdl\drivers/peripheral/syslib/cy_syslib.h ****     extern CY_NOINIT uint32_t cy_assertLine;                           /**< The assert line value *
 461:Generated_Source\PSoC6\pdl\drivers/peripheral/syslib/cy_syslib.h **** #endif /* NDEBUG */
 462:Generated_Source\PSoC6\pdl\drivers/peripheral/syslib/cy_syslib.h **** 
 463:Generated_Source\PSoC6\pdl\drivers/peripheral/syslib/cy_syslib.h **** #if (CY_ARM_FAULT_DEBUG == CY_ARM_FAULT_DEBUG_ENABLED)
 464:Generated_Source\PSoC6\pdl\drivers/peripheral/syslib/cy_syslib.h ****     #define CY_R0_Pos             (0U)     /**< The position of the R0  content in a fault structur
 465:Generated_Source\PSoC6\pdl\drivers/peripheral/syslib/cy_syslib.h ****     #define CY_R1_Pos             (1U)     /**< The position of the R1  content in a fault structur
 466:Generated_Source\PSoC6\pdl\drivers/peripheral/syslib/cy_syslib.h ****     #define CY_R2_Pos             (2U)     /**< The position of the R2  content in a fault structur
 467:Generated_Source\PSoC6\pdl\drivers/peripheral/syslib/cy_syslib.h ****     #define CY_R3_Pos             (3U)     /**< The position of the R3  content in a fault structur
 468:Generated_Source\PSoC6\pdl\drivers/peripheral/syslib/cy_syslib.h ****     #define CY_R12_Pos            (4U)     /**< The position of the R12 content in a fault structur
 469:Generated_Source\PSoC6\pdl\drivers/peripheral/syslib/cy_syslib.h ****     #define CY_LR_Pos             (5U)     /**< The position of the LR  content in a fault structur
 470:Generated_Source\PSoC6\pdl\drivers/peripheral/syslib/cy_syslib.h ****     #define CY_PC_Pos             (6U)     /**< The position of the PC  content in a fault structur
ARM GAS  C:\Users\gjl\AppData\Local\Temp\cc0COz1Y.s 			page 24


 471:Generated_Source\PSoC6\pdl\drivers/peripheral/syslib/cy_syslib.h ****     #define CY_PSR_Pos            (7U)     /**< The position of the PSR content in a fault structur
 472:Generated_Source\PSoC6\pdl\drivers/peripheral/syslib/cy_syslib.h ****     #if (CY_CPU_CORTEX_M4) && ((defined (__FPU_PRESENT) && (__FPU_PRESENT == 1U)) && \
 473:Generated_Source\PSoC6\pdl\drivers/peripheral/syslib/cy_syslib.h ****                                (defined (__FPU_USED   ) && (__FPU_USED    == 1U)))
 474:Generated_Source\PSoC6\pdl\drivers/peripheral/syslib/cy_syslib.h ****         #define CY_FPSCR_IXC_Msk  (0x00000010U)    /**< The cumulative exception bit for floating-p
 475:Generated_Source\PSoC6\pdl\drivers/peripheral/syslib/cy_syslib.h ****         #define CY_FPSCR_IDC_Msk  (0x00000080U)    /**< The cumulative exception bit for floating-p
 476:Generated_Source\PSoC6\pdl\drivers/peripheral/syslib/cy_syslib.h ****         #define CY_S0_Pos         (8U)     /**< The position of the FPU S0 content in a fault struc
 477:Generated_Source\PSoC6\pdl\drivers/peripheral/syslib/cy_syslib.h ****         #define CY_S1_Pos         (9U)     /**< The position of the FPU S1 content in a fault struc
 478:Generated_Source\PSoC6\pdl\drivers/peripheral/syslib/cy_syslib.h ****         #define CY_S2_Pos         (10U)    /**< The position of the FPU S2 content in a fault struc
 479:Generated_Source\PSoC6\pdl\drivers/peripheral/syslib/cy_syslib.h ****         #define CY_S3_Pos         (11U)    /**< The position of the FPU S3 content in a fault struc
 480:Generated_Source\PSoC6\pdl\drivers/peripheral/syslib/cy_syslib.h ****         #define CY_S4_Pos         (12U)    /**< The position of the FPU S4 content in a fault struc
 481:Generated_Source\PSoC6\pdl\drivers/peripheral/syslib/cy_syslib.h ****         #define CY_S5_Pos         (13U)    /**< The position of the FPU S5 content in a fault struc
 482:Generated_Source\PSoC6\pdl\drivers/peripheral/syslib/cy_syslib.h ****         #define CY_S6_Pos         (14U)    /**< The position of the FPU S6 content in a fault struc
 483:Generated_Source\PSoC6\pdl\drivers/peripheral/syslib/cy_syslib.h ****         #define CY_S7_Pos         (15U)    /**< The position of the FPU S7 content in a fault struc
 484:Generated_Source\PSoC6\pdl\drivers/peripheral/syslib/cy_syslib.h ****         #define CY_S8_Pos         (16U)    /**< The position of the FPU S8 content in a fault struc
 485:Generated_Source\PSoC6\pdl\drivers/peripheral/syslib/cy_syslib.h ****         #define CY_S9_Pos         (17U)    /**< The position of the FPU S9 content in a fault struc
 486:Generated_Source\PSoC6\pdl\drivers/peripheral/syslib/cy_syslib.h ****         #define CY_S10_Pos        (18U)    /**< The position of the FPU S10 content in a fault stru
 487:Generated_Source\PSoC6\pdl\drivers/peripheral/syslib/cy_syslib.h ****         #define CY_S11_Pos        (19U)    /**< The position of the FPU S11 content in a fault stru
 488:Generated_Source\PSoC6\pdl\drivers/peripheral/syslib/cy_syslib.h ****         #define CY_S12_Pos        (20U)    /**< The position of the FPU S12 content in a fault stru
 489:Generated_Source\PSoC6\pdl\drivers/peripheral/syslib/cy_syslib.h ****         #define CY_S13_Pos        (21U)    /**< The position of the FPU S13 content in a fault stru
 490:Generated_Source\PSoC6\pdl\drivers/peripheral/syslib/cy_syslib.h ****         #define CY_S14_Pos        (22U)    /**< The position of the FPU S14 content in a fault stru
 491:Generated_Source\PSoC6\pdl\drivers/peripheral/syslib/cy_syslib.h ****         #define CY_S15_Pos        (23U)    /**< The position of the FPU S15 content in a fault stru
 492:Generated_Source\PSoC6\pdl\drivers/peripheral/syslib/cy_syslib.h ****         #define CY_FPSCR_Pos      (24U)    /**< The position of the FPU FPSCR content in a fault st
 493:Generated_Source\PSoC6\pdl\drivers/peripheral/syslib/cy_syslib.h ****     #endif /* CY_CPU_CORTEX_M4 && __FPU_PRESENT */
 494:Generated_Source\PSoC6\pdl\drivers/peripheral/syslib/cy_syslib.h **** 
 495:Generated_Source\PSoC6\pdl\drivers/peripheral/syslib/cy_syslib.h ****     extern CY_NOINIT cy_stc_fault_frame_t cy_faultFrame;    /**< Fault frame structure */
 496:Generated_Source\PSoC6\pdl\drivers/peripheral/syslib/cy_syslib.h **** #endif /* (CY_ARM_FAULT_DEBUG == CY_ARM_FAULT_DEBUG_ENABLED) */
 497:Generated_Source\PSoC6\pdl\drivers/peripheral/syslib/cy_syslib.h **** 
 498:Generated_Source\PSoC6\pdl\drivers/peripheral/syslib/cy_syslib.h **** 
 499:Generated_Source\PSoC6\pdl\drivers/peripheral/syslib/cy_syslib.h **** /*******************************************************************************
 500:Generated_Source\PSoC6\pdl\drivers/peripheral/syslib/cy_syslib.h **** * Macro Name: CY_GET_REG8(addr)
 501:Generated_Source\PSoC6\pdl\drivers/peripheral/syslib/cy_syslib.h **** ****************************************************************************//**
 502:Generated_Source\PSoC6\pdl\drivers/peripheral/syslib/cy_syslib.h **** *
 503:Generated_Source\PSoC6\pdl\drivers/peripheral/syslib/cy_syslib.h **** * Reads the 8-bit value from the specified address. This function can't be
 504:Generated_Source\PSoC6\pdl\drivers/peripheral/syslib/cy_syslib.h **** * used to access the Core register, otherwise a fault occurs.
 505:Generated_Source\PSoC6\pdl\drivers/peripheral/syslib/cy_syslib.h **** *
 506:Generated_Source\PSoC6\pdl\drivers/peripheral/syslib/cy_syslib.h **** * \param addr  The register address.
 507:Generated_Source\PSoC6\pdl\drivers/peripheral/syslib/cy_syslib.h **** *
 508:Generated_Source\PSoC6\pdl\drivers/peripheral/syslib/cy_syslib.h **** * \return The read value.
 509:Generated_Source\PSoC6\pdl\drivers/peripheral/syslib/cy_syslib.h **** *
 510:Generated_Source\PSoC6\pdl\drivers/peripheral/syslib/cy_syslib.h **** *******************************************************************************/
 511:Generated_Source\PSoC6\pdl\drivers/peripheral/syslib/cy_syslib.h **** #define CY_GET_REG8(addr)           (*((const volatile uint8_t *)(addr)))
 512:Generated_Source\PSoC6\pdl\drivers/peripheral/syslib/cy_syslib.h **** 
 513:Generated_Source\PSoC6\pdl\drivers/peripheral/syslib/cy_syslib.h **** 
 514:Generated_Source\PSoC6\pdl\drivers/peripheral/syslib/cy_syslib.h **** /*******************************************************************************
 515:Generated_Source\PSoC6\pdl\drivers/peripheral/syslib/cy_syslib.h **** * Macro Name: CY_SET_REG8(addr, value)
 516:Generated_Source\PSoC6\pdl\drivers/peripheral/syslib/cy_syslib.h **** ****************************************************************************//**
 517:Generated_Source\PSoC6\pdl\drivers/peripheral/syslib/cy_syslib.h **** *
 518:Generated_Source\PSoC6\pdl\drivers/peripheral/syslib/cy_syslib.h **** * Writes an 8-bit value to the specified address. This function can't be
 519:Generated_Source\PSoC6\pdl\drivers/peripheral/syslib/cy_syslib.h **** * used to access the Core register, otherwise a fault occurs.
 520:Generated_Source\PSoC6\pdl\drivers/peripheral/syslib/cy_syslib.h **** *
 521:Generated_Source\PSoC6\pdl\drivers/peripheral/syslib/cy_syslib.h **** * \param addr  The register address.
 522:Generated_Source\PSoC6\pdl\drivers/peripheral/syslib/cy_syslib.h **** *
 523:Generated_Source\PSoC6\pdl\drivers/peripheral/syslib/cy_syslib.h **** * \param value The value to write.
 524:Generated_Source\PSoC6\pdl\drivers/peripheral/syslib/cy_syslib.h **** *
 525:Generated_Source\PSoC6\pdl\drivers/peripheral/syslib/cy_syslib.h **** *******************************************************************************/
 526:Generated_Source\PSoC6\pdl\drivers/peripheral/syslib/cy_syslib.h **** #define CY_SET_REG8(addr, value)    (*((volatile uint8_t *)(addr)) = (uint8_t)(value))
 527:Generated_Source\PSoC6\pdl\drivers/peripheral/syslib/cy_syslib.h **** 
ARM GAS  C:\Users\gjl\AppData\Local\Temp\cc0COz1Y.s 			page 25


 528:Generated_Source\PSoC6\pdl\drivers/peripheral/syslib/cy_syslib.h **** 
 529:Generated_Source\PSoC6\pdl\drivers/peripheral/syslib/cy_syslib.h **** /*******************************************************************************
 530:Generated_Source\PSoC6\pdl\drivers/peripheral/syslib/cy_syslib.h **** * Macro Name: CY_GET_REG16(addr)
 531:Generated_Source\PSoC6\pdl\drivers/peripheral/syslib/cy_syslib.h **** ****************************************************************************//**
 532:Generated_Source\PSoC6\pdl\drivers/peripheral/syslib/cy_syslib.h **** *
 533:Generated_Source\PSoC6\pdl\drivers/peripheral/syslib/cy_syslib.h **** * Reads the 16-bit value from the specified address.
 534:Generated_Source\PSoC6\pdl\drivers/peripheral/syslib/cy_syslib.h **** *
 535:Generated_Source\PSoC6\pdl\drivers/peripheral/syslib/cy_syslib.h **** * \param addr  The register address.
 536:Generated_Source\PSoC6\pdl\drivers/peripheral/syslib/cy_syslib.h **** *
 537:Generated_Source\PSoC6\pdl\drivers/peripheral/syslib/cy_syslib.h **** * \return The read value.
 538:Generated_Source\PSoC6\pdl\drivers/peripheral/syslib/cy_syslib.h **** *
 539:Generated_Source\PSoC6\pdl\drivers/peripheral/syslib/cy_syslib.h **** *******************************************************************************/
 540:Generated_Source\PSoC6\pdl\drivers/peripheral/syslib/cy_syslib.h **** #define CY_GET_REG16(addr)          (*((const volatile uint16_t *)(addr)))
 541:Generated_Source\PSoC6\pdl\drivers/peripheral/syslib/cy_syslib.h **** 
 542:Generated_Source\PSoC6\pdl\drivers/peripheral/syslib/cy_syslib.h **** 
 543:Generated_Source\PSoC6\pdl\drivers/peripheral/syslib/cy_syslib.h **** /*******************************************************************************
 544:Generated_Source\PSoC6\pdl\drivers/peripheral/syslib/cy_syslib.h **** * Macro Name: CY_SET_REG16(addr, value)
 545:Generated_Source\PSoC6\pdl\drivers/peripheral/syslib/cy_syslib.h **** ****************************************************************************//**
 546:Generated_Source\PSoC6\pdl\drivers/peripheral/syslib/cy_syslib.h **** *
 547:Generated_Source\PSoC6\pdl\drivers/peripheral/syslib/cy_syslib.h **** * Writes the 16-bit value to the specified address.
 548:Generated_Source\PSoC6\pdl\drivers/peripheral/syslib/cy_syslib.h **** *
 549:Generated_Source\PSoC6\pdl\drivers/peripheral/syslib/cy_syslib.h **** * \param addr  The register address.
 550:Generated_Source\PSoC6\pdl\drivers/peripheral/syslib/cy_syslib.h **** *
 551:Generated_Source\PSoC6\pdl\drivers/peripheral/syslib/cy_syslib.h **** * \param value The value to write.
 552:Generated_Source\PSoC6\pdl\drivers/peripheral/syslib/cy_syslib.h **** *
 553:Generated_Source\PSoC6\pdl\drivers/peripheral/syslib/cy_syslib.h **** *******************************************************************************/
 554:Generated_Source\PSoC6\pdl\drivers/peripheral/syslib/cy_syslib.h **** #define CY_SET_REG16(addr, value)   (*((volatile uint16_t *)(addr)) = (uint16_t)(value))
 555:Generated_Source\PSoC6\pdl\drivers/peripheral/syslib/cy_syslib.h **** 
 556:Generated_Source\PSoC6\pdl\drivers/peripheral/syslib/cy_syslib.h **** 
 557:Generated_Source\PSoC6\pdl\drivers/peripheral/syslib/cy_syslib.h **** /*******************************************************************************
 558:Generated_Source\PSoC6\pdl\drivers/peripheral/syslib/cy_syslib.h **** * Macro Name: CY_GET_REG24(addr)
 559:Generated_Source\PSoC6\pdl\drivers/peripheral/syslib/cy_syslib.h **** ****************************************************************************//**
 560:Generated_Source\PSoC6\pdl\drivers/peripheral/syslib/cy_syslib.h **** *
 561:Generated_Source\PSoC6\pdl\drivers/peripheral/syslib/cy_syslib.h **** * Reads the 24-bit value from the specified address.
 562:Generated_Source\PSoC6\pdl\drivers/peripheral/syslib/cy_syslib.h **** *
 563:Generated_Source\PSoC6\pdl\drivers/peripheral/syslib/cy_syslib.h **** * \param addr  The register address.
 564:Generated_Source\PSoC6\pdl\drivers/peripheral/syslib/cy_syslib.h **** *
 565:Generated_Source\PSoC6\pdl\drivers/peripheral/syslib/cy_syslib.h **** * \return The read value.
 566:Generated_Source\PSoC6\pdl\drivers/peripheral/syslib/cy_syslib.h **** *
 567:Generated_Source\PSoC6\pdl\drivers/peripheral/syslib/cy_syslib.h **** *******************************************************************************/
 568:Generated_Source\PSoC6\pdl\drivers/peripheral/syslib/cy_syslib.h **** #define CY_GET_REG24(addr)          (uint32_t) ((*((const volatile uint8_t *)(addr))) | \
 569:Generated_Source\PSoC6\pdl\drivers/peripheral/syslib/cy_syslib.h ****                                     (uint32_t) ((*((const volatile uint8_t *)(addr) + 1)) << 8U) | 
 570:Generated_Source\PSoC6\pdl\drivers/peripheral/syslib/cy_syslib.h ****                                     (uint32_t) ((*((const volatile uint8_t *)(addr) + 2)) << 16U))
 571:Generated_Source\PSoC6\pdl\drivers/peripheral/syslib/cy_syslib.h **** 
 572:Generated_Source\PSoC6\pdl\drivers/peripheral/syslib/cy_syslib.h **** 
 573:Generated_Source\PSoC6\pdl\drivers/peripheral/syslib/cy_syslib.h **** /*******************************************************************************
 574:Generated_Source\PSoC6\pdl\drivers/peripheral/syslib/cy_syslib.h **** * Macro Name: CY_SET_REG24(addr, value)
 575:Generated_Source\PSoC6\pdl\drivers/peripheral/syslib/cy_syslib.h **** ****************************************************************************//**
 576:Generated_Source\PSoC6\pdl\drivers/peripheral/syslib/cy_syslib.h **** *
 577:Generated_Source\PSoC6\pdl\drivers/peripheral/syslib/cy_syslib.h **** * Writes the 24-bit value to the specified address.
 578:Generated_Source\PSoC6\pdl\drivers/peripheral/syslib/cy_syslib.h **** *
 579:Generated_Source\PSoC6\pdl\drivers/peripheral/syslib/cy_syslib.h **** * \param addr  The register address.
 580:Generated_Source\PSoC6\pdl\drivers/peripheral/syslib/cy_syslib.h **** *
 581:Generated_Source\PSoC6\pdl\drivers/peripheral/syslib/cy_syslib.h **** * \param value The value to write.
 582:Generated_Source\PSoC6\pdl\drivers/peripheral/syslib/cy_syslib.h **** *
 583:Generated_Source\PSoC6\pdl\drivers/peripheral/syslib/cy_syslib.h **** *******************************************************************************/
 584:Generated_Source\PSoC6\pdl\drivers/peripheral/syslib/cy_syslib.h **** #define CY_SET_REG24(addr, value)   do  \
ARM GAS  C:\Users\gjl\AppData\Local\Temp\cc0COz1Y.s 			page 26


 585:Generated_Source\PSoC6\pdl\drivers/peripheral/syslib/cy_syslib.h ****                                     {   \
 586:Generated_Source\PSoC6\pdl\drivers/peripheral/syslib/cy_syslib.h ****                                         (*((volatile uint8_t *) (addr))) = (uint8_t)(value);       
 587:Generated_Source\PSoC6\pdl\drivers/peripheral/syslib/cy_syslib.h ****                                         (*((volatile uint8_t *) (addr) + 1)) = (uint8_t)((value) >>
 588:Generated_Source\PSoC6\pdl\drivers/peripheral/syslib/cy_syslib.h ****                                         (*((volatile uint8_t *) (addr) + 2)) = (uint8_t)((value) >>
 589:Generated_Source\PSoC6\pdl\drivers/peripheral/syslib/cy_syslib.h ****                                     }   \
 590:Generated_Source\PSoC6\pdl\drivers/peripheral/syslib/cy_syslib.h ****                                     while(0)
 591:Generated_Source\PSoC6\pdl\drivers/peripheral/syslib/cy_syslib.h **** 
 592:Generated_Source\PSoC6\pdl\drivers/peripheral/syslib/cy_syslib.h **** 
 593:Generated_Source\PSoC6\pdl\drivers/peripheral/syslib/cy_syslib.h **** /*******************************************************************************
 594:Generated_Source\PSoC6\pdl\drivers/peripheral/syslib/cy_syslib.h **** * Macro Name: CY_GET_REG32(addr)
 595:Generated_Source\PSoC6\pdl\drivers/peripheral/syslib/cy_syslib.h **** ****************************************************************************//**
 596:Generated_Source\PSoC6\pdl\drivers/peripheral/syslib/cy_syslib.h **** *
 597:Generated_Source\PSoC6\pdl\drivers/peripheral/syslib/cy_syslib.h **** * Reads the 32-bit value from the specified register. The address is the little
 598:Generated_Source\PSoC6\pdl\drivers/peripheral/syslib/cy_syslib.h **** * endian order (LSB in lowest address).
 599:Generated_Source\PSoC6\pdl\drivers/peripheral/syslib/cy_syslib.h **** *
 600:Generated_Source\PSoC6\pdl\drivers/peripheral/syslib/cy_syslib.h **** * \param addr  The register address.
 601:Generated_Source\PSoC6\pdl\drivers/peripheral/syslib/cy_syslib.h **** *
 602:Generated_Source\PSoC6\pdl\drivers/peripheral/syslib/cy_syslib.h **** * \return The read value.
 603:Generated_Source\PSoC6\pdl\drivers/peripheral/syslib/cy_syslib.h **** *
 604:Generated_Source\PSoC6\pdl\drivers/peripheral/syslib/cy_syslib.h **** *******************************************************************************/
 605:Generated_Source\PSoC6\pdl\drivers/peripheral/syslib/cy_syslib.h **** #define CY_GET_REG32(addr)          (*((const volatile uint32_t *)(addr)))
 606:Generated_Source\PSoC6\pdl\drivers/peripheral/syslib/cy_syslib.h **** 
 607:Generated_Source\PSoC6\pdl\drivers/peripheral/syslib/cy_syslib.h **** 
 608:Generated_Source\PSoC6\pdl\drivers/peripheral/syslib/cy_syslib.h **** /*******************************************************************************
 609:Generated_Source\PSoC6\pdl\drivers/peripheral/syslib/cy_syslib.h **** * Macro Name: CY_SET_REG32(addr, value)
 610:Generated_Source\PSoC6\pdl\drivers/peripheral/syslib/cy_syslib.h **** ****************************************************************************//**
 611:Generated_Source\PSoC6\pdl\drivers/peripheral/syslib/cy_syslib.h **** *
 612:Generated_Source\PSoC6\pdl\drivers/peripheral/syslib/cy_syslib.h **** * Writes the 32-bit value to the specified register. The address is the little
 613:Generated_Source\PSoC6\pdl\drivers/peripheral/syslib/cy_syslib.h **** * endian order (LSB in lowest address).
 614:Generated_Source\PSoC6\pdl\drivers/peripheral/syslib/cy_syslib.h **** *
 615:Generated_Source\PSoC6\pdl\drivers/peripheral/syslib/cy_syslib.h **** * \param addr  The register address.
 616:Generated_Source\PSoC6\pdl\drivers/peripheral/syslib/cy_syslib.h **** *
 617:Generated_Source\PSoC6\pdl\drivers/peripheral/syslib/cy_syslib.h **** * \param value The value to write.
 618:Generated_Source\PSoC6\pdl\drivers/peripheral/syslib/cy_syslib.h **** *
 619:Generated_Source\PSoC6\pdl\drivers/peripheral/syslib/cy_syslib.h **** *******************************************************************************/
 620:Generated_Source\PSoC6\pdl\drivers/peripheral/syslib/cy_syslib.h **** #define CY_SET_REG32(addr, value)   (*((volatile uint32_t *)(addr)) = (uint32_t)(value))
 621:Generated_Source\PSoC6\pdl\drivers/peripheral/syslib/cy_syslib.h **** 
 622:Generated_Source\PSoC6\pdl\drivers/peripheral/syslib/cy_syslib.h **** 
 623:Generated_Source\PSoC6\pdl\drivers/peripheral/syslib/cy_syslib.h **** /**
 624:Generated_Source\PSoC6\pdl\drivers/peripheral/syslib/cy_syslib.h **** * \defgroup group_syslib_macros_assert Assert Classes and Levels
 625:Generated_Source\PSoC6\pdl\drivers/peripheral/syslib/cy_syslib.h **** * \{
 626:Generated_Source\PSoC6\pdl\drivers/peripheral/syslib/cy_syslib.h **** * Defines for the Assert Classes and Levels
 627:Generated_Source\PSoC6\pdl\drivers/peripheral/syslib/cy_syslib.h **** */
 628:Generated_Source\PSoC6\pdl\drivers/peripheral/syslib/cy_syslib.h **** 
 629:Generated_Source\PSoC6\pdl\drivers/peripheral/syslib/cy_syslib.h **** /** 
 630:Generated_Source\PSoC6\pdl\drivers/peripheral/syslib/cy_syslib.h **** * Class 1 - The highest class, safety-critical functions which rely on parameters that could be
 631:Generated_Source\PSoC6\pdl\drivers/peripheral/syslib/cy_syslib.h **** * changed between different PSoC devices
 632:Generated_Source\PSoC6\pdl\drivers/peripheral/syslib/cy_syslib.h **** */
 633:Generated_Source\PSoC6\pdl\drivers/peripheral/syslib/cy_syslib.h **** #define CY_ASSERT_CLASS_1           (1U)
 634:Generated_Source\PSoC6\pdl\drivers/peripheral/syslib/cy_syslib.h **** 
 635:Generated_Source\PSoC6\pdl\drivers/peripheral/syslib/cy_syslib.h **** /** Class 2 - Functions that have fixed limits such as counter periods (16-bits/32-bits etc.) */
 636:Generated_Source\PSoC6\pdl\drivers/peripheral/syslib/cy_syslib.h **** #define CY_ASSERT_CLASS_2           (2U)
 637:Generated_Source\PSoC6\pdl\drivers/peripheral/syslib/cy_syslib.h **** 
 638:Generated_Source\PSoC6\pdl\drivers/peripheral/syslib/cy_syslib.h **** /** Class 3 - Functions that accept enums as constant parameters */
 639:Generated_Source\PSoC6\pdl\drivers/peripheral/syslib/cy_syslib.h **** #define CY_ASSERT_CLASS_3           (3U)
 640:Generated_Source\PSoC6\pdl\drivers/peripheral/syslib/cy_syslib.h **** 
 641:Generated_Source\PSoC6\pdl\drivers/peripheral/syslib/cy_syslib.h **** #ifndef CY_ASSERT_LEVEL
ARM GAS  C:\Users\gjl\AppData\Local\Temp\cc0COz1Y.s 			page 27


 642:Generated_Source\PSoC6\pdl\drivers/peripheral/syslib/cy_syslib.h ****     /** The user-definable assert level from compiler command-line argument (similarly to DEBUG / N
 643:Generated_Source\PSoC6\pdl\drivers/peripheral/syslib/cy_syslib.h ****     #define CY_ASSERT_LEVEL         CY_ASSERT_CLASS_3
 644:Generated_Source\PSoC6\pdl\drivers/peripheral/syslib/cy_syslib.h **** #endif /* CY_ASSERT_LEVEL */
 645:Generated_Source\PSoC6\pdl\drivers/peripheral/syslib/cy_syslib.h **** 
 646:Generated_Source\PSoC6\pdl\drivers/peripheral/syslib/cy_syslib.h **** #if (CY_ASSERT_LEVEL == CY_ASSERT_CLASS_1)
 647:Generated_Source\PSoC6\pdl\drivers/peripheral/syslib/cy_syslib.h ****     #define CY_ASSERT_L1(x)         CY_ASSERT(x)     /**< Assert Level 1 */
 648:Generated_Source\PSoC6\pdl\drivers/peripheral/syslib/cy_syslib.h ****     #define CY_ASSERT_L2(x)         do{} while(0)    /**< Assert Level 2 */
 649:Generated_Source\PSoC6\pdl\drivers/peripheral/syslib/cy_syslib.h ****     #define CY_ASSERT_L3(x)         do{} while(0)    /**< Assert Level 3 */
 650:Generated_Source\PSoC6\pdl\drivers/peripheral/syslib/cy_syslib.h **** #elif (CY_ASSERT_LEVEL == CY_ASSERT_CLASS_2)
 651:Generated_Source\PSoC6\pdl\drivers/peripheral/syslib/cy_syslib.h ****     #define CY_ASSERT_L1(x)         CY_ASSERT(x)     /**< Assert Level 1 */
 652:Generated_Source\PSoC6\pdl\drivers/peripheral/syslib/cy_syslib.h ****     #define CY_ASSERT_L2(x)         CY_ASSERT(x)     /**< Assert Level 2 */
 653:Generated_Source\PSoC6\pdl\drivers/peripheral/syslib/cy_syslib.h ****     #define CY_ASSERT_L3(x)         do{} while(0)    /**< Assert Level 3 */
 654:Generated_Source\PSoC6\pdl\drivers/peripheral/syslib/cy_syslib.h **** #else /* Default is Level 3 */
 655:Generated_Source\PSoC6\pdl\drivers/peripheral/syslib/cy_syslib.h ****     #define CY_ASSERT_L1(x)         CY_ASSERT(x)     /**< Assert Level 1 */
 656:Generated_Source\PSoC6\pdl\drivers/peripheral/syslib/cy_syslib.h ****     #define CY_ASSERT_L2(x)         CY_ASSERT(x)     /**< Assert Level 2 */
 657:Generated_Source\PSoC6\pdl\drivers/peripheral/syslib/cy_syslib.h ****     #define CY_ASSERT_L3(x)         CY_ASSERT(x)     /**< Assert Level 3 */
 658:Generated_Source\PSoC6\pdl\drivers/peripheral/syslib/cy_syslib.h **** #endif /* CY_ASSERT_LEVEL == CY_ASSERT_CLASS_1 */
 659:Generated_Source\PSoC6\pdl\drivers/peripheral/syslib/cy_syslib.h **** 
 660:Generated_Source\PSoC6\pdl\drivers/peripheral/syslib/cy_syslib.h **** /** \} group_syslib_macros_assert */
 661:Generated_Source\PSoC6\pdl\drivers/peripheral/syslib/cy_syslib.h **** 
 662:Generated_Source\PSoC6\pdl\drivers/peripheral/syslib/cy_syslib.h **** 
 663:Generated_Source\PSoC6\pdl\drivers/peripheral/syslib/cy_syslib.h **** /*******************************************************************************
 664:Generated_Source\PSoC6\pdl\drivers/peripheral/syslib/cy_syslib.h **** * Macro Name: CY_ASSERT
 665:Generated_Source\PSoC6\pdl\drivers/peripheral/syslib/cy_syslib.h **** ****************************************************************************//**
 666:Generated_Source\PSoC6\pdl\drivers/peripheral/syslib/cy_syslib.h **** *
 667:Generated_Source\PSoC6\pdl\drivers/peripheral/syslib/cy_syslib.h **** *  The macro that evaluates the expression and, if it is false (evaluates to 0),
 668:Generated_Source\PSoC6\pdl\drivers/peripheral/syslib/cy_syslib.h **** *  the processor is halted. Cy_SysLib_AssertFailed() is called when the logical
 669:Generated_Source\PSoC6\pdl\drivers/peripheral/syslib/cy_syslib.h **** *  expression is false to store the ASSERT location and halt the processor.
 670:Generated_Source\PSoC6\pdl\drivers/peripheral/syslib/cy_syslib.h **** *
 671:Generated_Source\PSoC6\pdl\drivers/peripheral/syslib/cy_syslib.h **** * \param x  The logical expression. Asserts if false.
 672:Generated_Source\PSoC6\pdl\drivers/peripheral/syslib/cy_syslib.h **** * \note This macro is evaluated unless NDEBUG is not defined.
 673:Generated_Source\PSoC6\pdl\drivers/peripheral/syslib/cy_syslib.h **** *       If NDEBUG is defined, just empty do while cycle is generated for this
 674:Generated_Source\PSoC6\pdl\drivers/peripheral/syslib/cy_syslib.h **** *       macro for the sake of consistency and to avoid MISRA violation.
 675:Generated_Source\PSoC6\pdl\drivers/peripheral/syslib/cy_syslib.h **** *       NDEBUG is defined by default for a Release build setting and not defined
 676:Generated_Source\PSoC6\pdl\drivers/peripheral/syslib/cy_syslib.h **** *       for a Debug build setting.
 677:Generated_Source\PSoC6\pdl\drivers/peripheral/syslib/cy_syslib.h **** *
 678:Generated_Source\PSoC6\pdl\drivers/peripheral/syslib/cy_syslib.h **** *******************************************************************************/
 679:Generated_Source\PSoC6\pdl\drivers/peripheral/syslib/cy_syslib.h **** #if !defined(NDEBUG)
 680:Generated_Source\PSoC6\pdl\drivers/peripheral/syslib/cy_syslib.h ****     #define CY_ASSERT(x)    do  \
 681:Generated_Source\PSoC6\pdl\drivers/peripheral/syslib/cy_syslib.h ****                             {   \
 682:Generated_Source\PSoC6\pdl\drivers/peripheral/syslib/cy_syslib.h ****                                 if(!(x)) \
 683:Generated_Source\PSoC6\pdl\drivers/peripheral/syslib/cy_syslib.h ****                                 { \
 684:Generated_Source\PSoC6\pdl\drivers/peripheral/syslib/cy_syslib.h ****                                     Cy_SysLib_AssertFailed((char_t *) __FILE__, (uint32_t) __LINE__
 685:Generated_Source\PSoC6\pdl\drivers/peripheral/syslib/cy_syslib.h ****                                 } \
 686:Generated_Source\PSoC6\pdl\drivers/peripheral/syslib/cy_syslib.h ****                             } while(0)
 687:Generated_Source\PSoC6\pdl\drivers/peripheral/syslib/cy_syslib.h **** #else
 688:Generated_Source\PSoC6\pdl\drivers/peripheral/syslib/cy_syslib.h ****     #define CY_ASSERT(x)    do  \
 689:Generated_Source\PSoC6\pdl\drivers/peripheral/syslib/cy_syslib.h ****                             {   \
 690:Generated_Source\PSoC6\pdl\drivers/peripheral/syslib/cy_syslib.h ****                             } while(0)
 691:Generated_Source\PSoC6\pdl\drivers/peripheral/syslib/cy_syslib.h **** #endif  /* !defined(NDEBUG) */
 692:Generated_Source\PSoC6\pdl\drivers/peripheral/syslib/cy_syslib.h **** 
 693:Generated_Source\PSoC6\pdl\drivers/peripheral/syslib/cy_syslib.h **** 
 694:Generated_Source\PSoC6\pdl\drivers/peripheral/syslib/cy_syslib.h **** /*******************************************************************************
 695:Generated_Source\PSoC6\pdl\drivers/peripheral/syslib/cy_syslib.h **** * Macro Name: _CLR_SET_FLD32U
 696:Generated_Source\PSoC6\pdl\drivers/peripheral/syslib/cy_syslib.h **** ****************************************************************************//**
 697:Generated_Source\PSoC6\pdl\drivers/peripheral/syslib/cy_syslib.h **** *
 698:Generated_Source\PSoC6\pdl\drivers/peripheral/syslib/cy_syslib.h **** *  The macro for setting a register with a name field and value for providing
ARM GAS  C:\Users\gjl\AppData\Local\Temp\cc0COz1Y.s 			page 28


 699:Generated_Source\PSoC6\pdl\drivers/peripheral/syslib/cy_syslib.h **** *  get-clear-modify-write operations.
 700:Generated_Source\PSoC6\pdl\drivers/peripheral/syslib/cy_syslib.h **** *  Returns a resulting value to be assigned to the register.
 701:Generated_Source\PSoC6\pdl\drivers/peripheral/syslib/cy_syslib.h **** *
 702:Generated_Source\PSoC6\pdl\drivers/peripheral/syslib/cy_syslib.h **** *******************************************************************************/
 703:Generated_Source\PSoC6\pdl\drivers/peripheral/syslib/cy_syslib.h **** #define _CLR_SET_FLD32U(reg, field, value) (((reg) & ((uint32_t)(~(field ## _Msk)))) | (_VAL2FLD(fi
 704:Generated_Source\PSoC6\pdl\drivers/peripheral/syslib/cy_syslib.h **** 
 705:Generated_Source\PSoC6\pdl\drivers/peripheral/syslib/cy_syslib.h **** 
 706:Generated_Source\PSoC6\pdl\drivers/peripheral/syslib/cy_syslib.h **** /*******************************************************************************
 707:Generated_Source\PSoC6\pdl\drivers/peripheral/syslib/cy_syslib.h **** * Macro Name: _BOOL2FLD
 708:Generated_Source\PSoC6\pdl\drivers/peripheral/syslib/cy_syslib.h **** ****************************************************************************//**
 709:Generated_Source\PSoC6\pdl\drivers/peripheral/syslib/cy_syslib.h **** *
 710:Generated_Source\PSoC6\pdl\drivers/peripheral/syslib/cy_syslib.h **** *  Returns a field mask if the value is not false.
 711:Generated_Source\PSoC6\pdl\drivers/peripheral/syslib/cy_syslib.h **** *  Returns 0, if the value is false.
 712:Generated_Source\PSoC6\pdl\drivers/peripheral/syslib/cy_syslib.h **** *
 713:Generated_Source\PSoC6\pdl\drivers/peripheral/syslib/cy_syslib.h **** *******************************************************************************/
 714:Generated_Source\PSoC6\pdl\drivers/peripheral/syslib/cy_syslib.h **** #define _BOOL2FLD(field, value) (((value) != false) ? (field ## _Msk) : 0UL)
 715:Generated_Source\PSoC6\pdl\drivers/peripheral/syslib/cy_syslib.h **** 
 716:Generated_Source\PSoC6\pdl\drivers/peripheral/syslib/cy_syslib.h **** 
 717:Generated_Source\PSoC6\pdl\drivers/peripheral/syslib/cy_syslib.h **** /*******************************************************************************
 718:Generated_Source\PSoC6\pdl\drivers/peripheral/syslib/cy_syslib.h **** * Macro Name: _FLD2BOOL
 719:Generated_Source\PSoC6\pdl\drivers/peripheral/syslib/cy_syslib.h **** ****************************************************************************//**
 720:Generated_Source\PSoC6\pdl\drivers/peripheral/syslib/cy_syslib.h **** *
 721:Generated_Source\PSoC6\pdl\drivers/peripheral/syslib/cy_syslib.h **** *  Returns true, if the value includes the field mask.
 722:Generated_Source\PSoC6\pdl\drivers/peripheral/syslib/cy_syslib.h **** *  Returns false, if the value doesn't include the field mask.
 723:Generated_Source\PSoC6\pdl\drivers/peripheral/syslib/cy_syslib.h **** *
 724:Generated_Source\PSoC6\pdl\drivers/peripheral/syslib/cy_syslib.h **** *******************************************************************************/
 725:Generated_Source\PSoC6\pdl\drivers/peripheral/syslib/cy_syslib.h **** #define _FLD2BOOL(field, value) (((value) & (field ## _Msk)) != 0UL)
 726:Generated_Source\PSoC6\pdl\drivers/peripheral/syslib/cy_syslib.h **** 
 727:Generated_Source\PSoC6\pdl\drivers/peripheral/syslib/cy_syslib.h **** 
 728:Generated_Source\PSoC6\pdl\drivers/peripheral/syslib/cy_syslib.h **** /******************************************************************************
 729:Generated_Source\PSoC6\pdl\drivers/peripheral/syslib/cy_syslib.h **** * Constants
 730:Generated_Source\PSoC6\pdl\drivers/peripheral/syslib/cy_syslib.h **** *****************************************************************************/
 731:Generated_Source\PSoC6\pdl\drivers/peripheral/syslib/cy_syslib.h **** /** Defines a 32-kHz clock delay */
 732:Generated_Source\PSoC6\pdl\drivers/peripheral/syslib/cy_syslib.h **** #define CY_DELAY_MS_OVERFLOW            (0x8000U)
 733:Generated_Source\PSoC6\pdl\drivers/peripheral/syslib/cy_syslib.h **** 
 734:Generated_Source\PSoC6\pdl\drivers/peripheral/syslib/cy_syslib.h **** /**
 735:Generated_Source\PSoC6\pdl\drivers/peripheral/syslib/cy_syslib.h **** * \defgroup group_syslib_macros_reset_cause Reset cause
 736:Generated_Source\PSoC6\pdl\drivers/peripheral/syslib/cy_syslib.h **** * \{
 737:Generated_Source\PSoC6\pdl\drivers/peripheral/syslib/cy_syslib.h **** * Define RESET_CAUSE mask values
 738:Generated_Source\PSoC6\pdl\drivers/peripheral/syslib/cy_syslib.h **** */
 739:Generated_Source\PSoC6\pdl\drivers/peripheral/syslib/cy_syslib.h **** /** A basic WatchDog Timer (WDT) reset has occurred since the last power cycle. */
 740:Generated_Source\PSoC6\pdl\drivers/peripheral/syslib/cy_syslib.h **** #define CY_SYSLIB_RESET_HWWDT           (0x0001U)
 741:Generated_Source\PSoC6\pdl\drivers/peripheral/syslib/cy_syslib.h **** /** The fault logging system requested a reset from its Active logic. */
 742:Generated_Source\PSoC6\pdl\drivers/peripheral/syslib/cy_syslib.h **** #define CY_SYSLIB_RESET_ACT_FAULT       (0x0002U)
 743:Generated_Source\PSoC6\pdl\drivers/peripheral/syslib/cy_syslib.h **** /** The fault logging system requested a reset from its Deep-Sleep logic. */
 744:Generated_Source\PSoC6\pdl\drivers/peripheral/syslib/cy_syslib.h **** #define CY_SYSLIB_RESET_DPSLP_FAULT     (0x0004U)
 745:Generated_Source\PSoC6\pdl\drivers/peripheral/syslib/cy_syslib.h **** /** The CPU requested a system reset through it's SYSRESETREQ. This can be done via a debugger prob
 746:Generated_Source\PSoC6\pdl\drivers/peripheral/syslib/cy_syslib.h **** #define CY_SYSLIB_RESET_SOFT            (0x0010U)
 747:Generated_Source\PSoC6\pdl\drivers/peripheral/syslib/cy_syslib.h **** /** The Multi-Counter Watchdog timer #0 reset has occurred since the last power cycle. */
 748:Generated_Source\PSoC6\pdl\drivers/peripheral/syslib/cy_syslib.h **** #define CY_SYSLIB_RESET_SWWDT0          (0x0020U)
 749:Generated_Source\PSoC6\pdl\drivers/peripheral/syslib/cy_syslib.h **** /** The Multi-Counter Watchdog timer #1 reset has occurred since the last power cycle. */
 750:Generated_Source\PSoC6\pdl\drivers/peripheral/syslib/cy_syslib.h **** #define CY_SYSLIB_RESET_SWWDT1          (0x0040U)
 751:Generated_Source\PSoC6\pdl\drivers/peripheral/syslib/cy_syslib.h **** /** The Multi-Counter Watchdog timer #2 reset has occurred since the last power cycle. */
 752:Generated_Source\PSoC6\pdl\drivers/peripheral/syslib/cy_syslib.h **** #define CY_SYSLIB_RESET_SWWDT2          (0x0080U)
 753:Generated_Source\PSoC6\pdl\drivers/peripheral/syslib/cy_syslib.h **** /** The Multi-Counter Watchdog timer #3 reset has occurred since the last power cycle. */
 754:Generated_Source\PSoC6\pdl\drivers/peripheral/syslib/cy_syslib.h **** #define CY_SYSLIB_RESET_SWWDT3          (0x0100U)
 755:Generated_Source\PSoC6\pdl\drivers/peripheral/syslib/cy_syslib.h **** /** The reset has occurred on a wakeup from Hibernate power mode. */
ARM GAS  C:\Users\gjl\AppData\Local\Temp\cc0COz1Y.s 			page 29


 756:Generated_Source\PSoC6\pdl\drivers/peripheral/syslib/cy_syslib.h **** #define CY_SYSLIB_RESET_HIB_WAKEUP      (0x40000UL)
 757:Generated_Source\PSoC6\pdl\drivers/peripheral/syslib/cy_syslib.h **** #if (SRSS_WCOCSV_PRESENT != 0U)
 758:Generated_Source\PSoC6\pdl\drivers/peripheral/syslib/cy_syslib.h ****     /** The clock supervision logic requested a reset due to the loss of a watch-crystal clock. */
 759:Generated_Source\PSoC6\pdl\drivers/peripheral/syslib/cy_syslib.h ****     #define CY_SYSLIB_RESET_CSV_WCO_LOSS    (0x0008U)
 760:Generated_Source\PSoC6\pdl\drivers/peripheral/syslib/cy_syslib.h ****     /** The clock supervision logic requested a reset due to the loss of a high-frequency clock. */
 761:Generated_Source\PSoC6\pdl\drivers/peripheral/syslib/cy_syslib.h ****     #define CY_SYSLIB_RESET_HFCLK_LOSS      (0x10000UL)
 762:Generated_Source\PSoC6\pdl\drivers/peripheral/syslib/cy_syslib.h ****     /** The clock supervision logic requested a reset due to the frequency error of a high-frequenc
 763:Generated_Source\PSoC6\pdl\drivers/peripheral/syslib/cy_syslib.h ****     #define CY_SYSLIB_RESET_HFCLK_ERR       (0x20000UL)
 764:Generated_Source\PSoC6\pdl\drivers/peripheral/syslib/cy_syslib.h **** #endif /* (SRSS_WCOCSV_PRESENT != 0U) */
 765:Generated_Source\PSoC6\pdl\drivers/peripheral/syslib/cy_syslib.h **** 
 766:Generated_Source\PSoC6\pdl\drivers/peripheral/syslib/cy_syslib.h **** /** \} group_syslib_macros_reset_cause */
 767:Generated_Source\PSoC6\pdl\drivers/peripheral/syslib/cy_syslib.h **** 
 768:Generated_Source\PSoC6\pdl\drivers/peripheral/syslib/cy_syslib.h **** /** Bit[31:24] Opcode = 0x1B (SoftReset)
 769:Generated_Source\PSoC6\pdl\drivers/peripheral/syslib/cy_syslib.h ****  *  Bit[7:1]   Type   = 1    (Only CM4 reset)
 770:Generated_Source\PSoC6\pdl\drivers/peripheral/syslib/cy_syslib.h ****  */
 771:Generated_Source\PSoC6\pdl\drivers/peripheral/syslib/cy_syslib.h **** #define CY_IPC_DATA_FOR_CM4_SOFT_RESET  (0x1B000002UL)
 772:Generated_Source\PSoC6\pdl\drivers/peripheral/syslib/cy_syslib.h **** 
 773:Generated_Source\PSoC6\pdl\drivers/peripheral/syslib/cy_syslib.h **** /**
 774:Generated_Source\PSoC6\pdl\drivers/peripheral/syslib/cy_syslib.h **** * \defgroup group_syslib_macros_unique_id Unique ID
 775:Generated_Source\PSoC6\pdl\drivers/peripheral/syslib/cy_syslib.h **** * \{
 776:Generated_Source\PSoC6\pdl\drivers/peripheral/syslib/cy_syslib.h **** * Unique ID fields positions
 777:Generated_Source\PSoC6\pdl\drivers/peripheral/syslib/cy_syslib.h **** */
 778:Generated_Source\PSoC6\pdl\drivers/peripheral/syslib/cy_syslib.h **** #define CY_UNIQUE_ID_DIE_YEAR_Pos       (57U)    /**< The position of the DIE_YEAR  field in the si
 779:Generated_Source\PSoC6\pdl\drivers/peripheral/syslib/cy_syslib.h **** #define CY_UNIQUE_ID_DIE_MINOR_Pos      (56U)    /**< The position of the DIE_MINOR field in the si
 780:Generated_Source\PSoC6\pdl\drivers/peripheral/syslib/cy_syslib.h **** #define CY_UNIQUE_ID_DIE_SORT_Pos       (48U)    /**< The position of the DIE_SORT  field in the si
 781:Generated_Source\PSoC6\pdl\drivers/peripheral/syslib/cy_syslib.h **** #define CY_UNIQUE_ID_DIE_Y_Pos          (40U)    /**< The position of the DIE_Y     field in the si
 782:Generated_Source\PSoC6\pdl\drivers/peripheral/syslib/cy_syslib.h **** #define CY_UNIQUE_ID_DIE_X_Pos          (32U)    /**< The position of the DIE_X     field in the si
 783:Generated_Source\PSoC6\pdl\drivers/peripheral/syslib/cy_syslib.h **** #define CY_UNIQUE_ID_DIE_WAFER_Pos      (24U)    /**< The position of the DIE_WAFER field in the si
 784:Generated_Source\PSoC6\pdl\drivers/peripheral/syslib/cy_syslib.h **** #define CY_UNIQUE_ID_DIE_LOT_2_Pos      (16U)    /**< The position of the DIE_LOT_2 field in the si
 785:Generated_Source\PSoC6\pdl\drivers/peripheral/syslib/cy_syslib.h **** #define CY_UNIQUE_ID_DIE_LOT_1_Pos      (8U)     /**< The position of the DIE_LOT_1 field in the si
 786:Generated_Source\PSoC6\pdl\drivers/peripheral/syslib/cy_syslib.h **** #define CY_UNIQUE_ID_DIE_LOT_0_Pos      (0U)     /**< The position of the DIE_LOT_0 field in the si
 787:Generated_Source\PSoC6\pdl\drivers/peripheral/syslib/cy_syslib.h **** 
 788:Generated_Source\PSoC6\pdl\drivers/peripheral/syslib/cy_syslib.h **** /** \} group_syslib_macros_unique_id */
 789:Generated_Source\PSoC6\pdl\drivers/peripheral/syslib/cy_syslib.h **** 
 790:Generated_Source\PSoC6\pdl\drivers/peripheral/syslib/cy_syslib.h **** /** \} group_syslib_macros */
 791:Generated_Source\PSoC6\pdl\drivers/peripheral/syslib/cy_syslib.h **** 
 792:Generated_Source\PSoC6\pdl\drivers/peripheral/syslib/cy_syslib.h **** /******************************************************************************
 793:Generated_Source\PSoC6\pdl\drivers/peripheral/syslib/cy_syslib.h **** * Function prototypes
 794:Generated_Source\PSoC6\pdl\drivers/peripheral/syslib/cy_syslib.h **** ******************************************************************************/
 795:Generated_Source\PSoC6\pdl\drivers/peripheral/syslib/cy_syslib.h **** 
 796:Generated_Source\PSoC6\pdl\drivers/peripheral/syslib/cy_syslib.h **** /**
 797:Generated_Source\PSoC6\pdl\drivers/peripheral/syslib/cy_syslib.h **** * \addtogroup group_syslib_functions
 798:Generated_Source\PSoC6\pdl\drivers/peripheral/syslib/cy_syslib.h **** * \{
 799:Generated_Source\PSoC6\pdl\drivers/peripheral/syslib/cy_syslib.h **** */
 800:Generated_Source\PSoC6\pdl\drivers/peripheral/syslib/cy_syslib.h **** 
 801:Generated_Source\PSoC6\pdl\drivers/peripheral/syslib/cy_syslib.h **** void Cy_SysLib_Delay(uint32_t milliseconds);
 802:Generated_Source\PSoC6\pdl\drivers/peripheral/syslib/cy_syslib.h **** void Cy_SysLib_DelayUs(uint16_t microseconds);
 803:Generated_Source\PSoC6\pdl\drivers/peripheral/syslib/cy_syslib.h **** /** Delays for the specified number of cycles.
 804:Generated_Source\PSoC6\pdl\drivers/peripheral/syslib/cy_syslib.h ****  *  The function is implemented in the assembler for each supported compiler.
 805:Generated_Source\PSoC6\pdl\drivers/peripheral/syslib/cy_syslib.h ****  *  \param cycles  The number of cycles to delay.
 806:Generated_Source\PSoC6\pdl\drivers/peripheral/syslib/cy_syslib.h ****  */
 807:Generated_Source\PSoC6\pdl\drivers/peripheral/syslib/cy_syslib.h **** void Cy_SysLib_DelayCycles(uint32_t cycles);
 808:Generated_Source\PSoC6\pdl\drivers/peripheral/syslib/cy_syslib.h **** __NO_RETURN void Cy_SysLib_Halt(uint32_t reason);
 809:Generated_Source\PSoC6\pdl\drivers/peripheral/syslib/cy_syslib.h **** #if !defined(NDEBUG) || defined(CY_DOXYGEN)
 810:Generated_Source\PSoC6\pdl\drivers/peripheral/syslib/cy_syslib.h ****     void Cy_SysLib_AssertFailed(const char_t * file, uint32_t line);
 811:Generated_Source\PSoC6\pdl\drivers/peripheral/syslib/cy_syslib.h **** #endif  /* !defined(NDEBUG) || defined(CY_DOXYGEN) */
 812:Generated_Source\PSoC6\pdl\drivers/peripheral/syslib/cy_syslib.h **** void Cy_SysLib_ClearFlashCacheAndBuffer(void);
ARM GAS  C:\Users\gjl\AppData\Local\Temp\cc0COz1Y.s 			page 30


 813:Generated_Source\PSoC6\pdl\drivers/peripheral/syslib/cy_syslib.h **** cy_en_syslib_status_t Cy_SysLib_ResetBackupDomain(void);
 814:Generated_Source\PSoC6\pdl\drivers/peripheral/syslib/cy_syslib.h **** uint32_t Cy_SysLib_GetResetReason(void);
 815:Generated_Source\PSoC6\pdl\drivers/peripheral/syslib/cy_syslib.h **** #if (SRSS_WCOCSV_PRESENT != 0U) || defined(CY_DOXYGEN)
 816:Generated_Source\PSoC6\pdl\drivers/peripheral/syslib/cy_syslib.h ****     uint32_t Cy_SysLib_GetNumHfclkResetCause(void);
 817:Generated_Source\PSoC6\pdl\drivers/peripheral/syslib/cy_syslib.h **** #endif /* (SRSS_WCOCSV_PRESENT != 0U) || defined(CY_DOXYGEN) */
 818:Generated_Source\PSoC6\pdl\drivers/peripheral/syslib/cy_syslib.h **** void Cy_SysLib_ClearResetReason(void);
 819:Generated_Source\PSoC6\pdl\drivers/peripheral/syslib/cy_syslib.h **** uint64_t Cy_SysLib_GetUniqueId(void);
 820:Generated_Source\PSoC6\pdl\drivers/peripheral/syslib/cy_syslib.h **** #if (CY_CPU_CORTEX_M0P)
 821:Generated_Source\PSoC6\pdl\drivers/peripheral/syslib/cy_syslib.h ****     void Cy_SysLib_SoftResetCM4(void);
 822:Generated_Source\PSoC6\pdl\drivers/peripheral/syslib/cy_syslib.h **** #endif /* CY_CPU_CORTEX_M0P */
 823:Generated_Source\PSoC6\pdl\drivers/peripheral/syslib/cy_syslib.h **** #if (CY_ARM_FAULT_DEBUG == CY_ARM_FAULT_DEBUG_ENABLED) || defined(CY_DOXYGEN)
 824:Generated_Source\PSoC6\pdl\drivers/peripheral/syslib/cy_syslib.h ****     void Cy_SysLib_FaultHandler(uint32_t const *faultStackAddr);
 825:Generated_Source\PSoC6\pdl\drivers/peripheral/syslib/cy_syslib.h ****     void Cy_SysLib_ProcessingFault(void);
 826:Generated_Source\PSoC6\pdl\drivers/peripheral/syslib/cy_syslib.h **** #endif /* (CY_ARM_FAULT_DEBUG == CY_ARM_FAULT_DEBUG_ENABLED) */
 827:Generated_Source\PSoC6\pdl\drivers/peripheral/syslib/cy_syslib.h **** void Cy_SysLib_SetWaitStates(bool ulpMode, uint32_t clkHfMHz);
 828:Generated_Source\PSoC6\pdl\drivers/peripheral/syslib/cy_syslib.h **** 
 829:Generated_Source\PSoC6\pdl\drivers/peripheral/syslib/cy_syslib.h **** 
 830:Generated_Source\PSoC6\pdl\drivers/peripheral/syslib/cy_syslib.h **** /*******************************************************************************
 831:Generated_Source\PSoC6\pdl\drivers/peripheral/syslib/cy_syslib.h **** * Function Name: Cy_SysLib_EnterCriticalSection
 832:Generated_Source\PSoC6\pdl\drivers/peripheral/syslib/cy_syslib.h **** ****************************************************************************//**
 833:Generated_Source\PSoC6\pdl\drivers/peripheral/syslib/cy_syslib.h **** *
 834:Generated_Source\PSoC6\pdl\drivers/peripheral/syslib/cy_syslib.h **** *  Cy_SysLib_EnterCriticalSection disables interrupts and returns a value
 835:Generated_Source\PSoC6\pdl\drivers/peripheral/syslib/cy_syslib.h **** *  indicating whether the interrupts were previously enabled.
 836:Generated_Source\PSoC6\pdl\drivers/peripheral/syslib/cy_syslib.h **** *
 837:Generated_Source\PSoC6\pdl\drivers/peripheral/syslib/cy_syslib.h **** *  \return Returns the current interrupt status. Returns 0 if the interrupts
 838:Generated_Source\PSoC6\pdl\drivers/peripheral/syslib/cy_syslib.h **** *          were previously enabled or 1 if the interrupts were previously
 839:Generated_Source\PSoC6\pdl\drivers/peripheral/syslib/cy_syslib.h **** *          disabled.
 840:Generated_Source\PSoC6\pdl\drivers/peripheral/syslib/cy_syslib.h **** *
 841:Generated_Source\PSoC6\pdl\drivers/peripheral/syslib/cy_syslib.h **** *  \note Implementation of Cy_SysLib_EnterCriticalSection manipulates the IRQ
 842:Generated_Source\PSoC6\pdl\drivers/peripheral/syslib/cy_syslib.h **** *        enable bit with interrupts still enabled.
 843:Generated_Source\PSoC6\pdl\drivers/peripheral/syslib/cy_syslib.h **** *
 844:Generated_Source\PSoC6\pdl\drivers/peripheral/syslib/cy_syslib.h **** *******************************************************************************/
 845:Generated_Source\PSoC6\pdl\drivers/peripheral/syslib/cy_syslib.h **** uint32_t Cy_SysLib_EnterCriticalSection(void);
 846:Generated_Source\PSoC6\pdl\drivers/peripheral/syslib/cy_syslib.h **** 
 847:Generated_Source\PSoC6\pdl\drivers/peripheral/syslib/cy_syslib.h **** 
 848:Generated_Source\PSoC6\pdl\drivers/peripheral/syslib/cy_syslib.h **** /*******************************************************************************
 849:Generated_Source\PSoC6\pdl\drivers/peripheral/syslib/cy_syslib.h **** * Function Name: Cy_SysLib_ExitCriticalSection
 850:Generated_Source\PSoC6\pdl\drivers/peripheral/syslib/cy_syslib.h **** ****************************************************************************//**
 851:Generated_Source\PSoC6\pdl\drivers/peripheral/syslib/cy_syslib.h **** *
 852:Generated_Source\PSoC6\pdl\drivers/peripheral/syslib/cy_syslib.h **** *  Re-enables the interrupts if they were enabled before
 853:Generated_Source\PSoC6\pdl\drivers/peripheral/syslib/cy_syslib.h **** *  Cy_SysLib_EnterCriticalSection() was called. The argument should be the value
 854:Generated_Source\PSoC6\pdl\drivers/peripheral/syslib/cy_syslib.h **** *  returned from \ref Cy_SysLib_EnterCriticalSection().
 855:Generated_Source\PSoC6\pdl\drivers/peripheral/syslib/cy_syslib.h **** *
 856:Generated_Source\PSoC6\pdl\drivers/peripheral/syslib/cy_syslib.h **** *  \param savedIntrStatus  Puts the saved interrupts status returned by
 857:Generated_Source\PSoC6\pdl\drivers/peripheral/syslib/cy_syslib.h **** *                          the \ref Cy_SysLib_EnterCriticalSection().
 858:Generated_Source\PSoC6\pdl\drivers/peripheral/syslib/cy_syslib.h **** *
 859:Generated_Source\PSoC6\pdl\drivers/peripheral/syslib/cy_syslib.h **** *******************************************************************************/
 860:Generated_Source\PSoC6\pdl\drivers/peripheral/syslib/cy_syslib.h **** void Cy_SysLib_ExitCriticalSection(uint32_t savedIntrStatus);
 861:Generated_Source\PSoC6\pdl\drivers/peripheral/syslib/cy_syslib.h **** 
 862:Generated_Source\PSoC6\pdl\drivers/peripheral/syslib/cy_syslib.h **** 
 863:Generated_Source\PSoC6\pdl\drivers/peripheral/syslib/cy_syslib.h **** /** \cond INTERNAL */
 864:Generated_Source\PSoC6\pdl\drivers/peripheral/syslib/cy_syslib.h **** #define CY_SYSLIB_DEVICE_REV_0A       (0x21U)  /**< The device TO *A Revision ID */
 865:Generated_Source\PSoC6\pdl\drivers/peripheral/syslib/cy_syslib.h **** #define CY_SYSLIB_DEVICE_PSOC6ABLE2   (0x100U) /**< The PSoC6 BLE2 device Family ID */
 866:Generated_Source\PSoC6\pdl\drivers/peripheral/syslib/cy_syslib.h **** 
 867:Generated_Source\PSoC6\pdl\drivers/peripheral/syslib/cy_syslib.h **** 
 868:Generated_Source\PSoC6\pdl\drivers/peripheral/syslib/cy_syslib.h **** /*******************************************************************************
 869:Generated_Source\PSoC6\pdl\drivers/peripheral/syslib/cy_syslib.h **** * Function Name: Cy_SysLib_GetDeviceRevision
ARM GAS  C:\Users\gjl\AppData\Local\Temp\cc0COz1Y.s 			page 31


 870:Generated_Source\PSoC6\pdl\drivers/peripheral/syslib/cy_syslib.h **** ****************************************************************************//**
 871:Generated_Source\PSoC6\pdl\drivers/peripheral/syslib/cy_syslib.h **** *
 872:Generated_Source\PSoC6\pdl\drivers/peripheral/syslib/cy_syslib.h **** * This function returns a device Revision ID.
 873:Generated_Source\PSoC6\pdl\drivers/peripheral/syslib/cy_syslib.h **** *
 874:Generated_Source\PSoC6\pdl\drivers/peripheral/syslib/cy_syslib.h **** * \return  A device Revision ID.
 875:Generated_Source\PSoC6\pdl\drivers/peripheral/syslib/cy_syslib.h **** *
 876:Generated_Source\PSoC6\pdl\drivers/peripheral/syslib/cy_syslib.h **** *******************************************************************************/
 877:Generated_Source\PSoC6\pdl\drivers/peripheral/syslib/cy_syslib.h **** __STATIC_INLINE uint8_t Cy_SysLib_GetDeviceRevision(void)
 878:Generated_Source\PSoC6\pdl\drivers/peripheral/syslib/cy_syslib.h **** {
 879:Generated_Source\PSoC6\pdl\drivers/peripheral/syslib/cy_syslib.h ****     return ((SFLASH->SI_REVISION_ID == 0UL) ? CY_SYSLIB_DEVICE_REV_0A : SFLASH->SI_REVISION_ID);
 451              		.loc 2 879 0
 452 0126 B023     		movs	r3, #176
 453 0128 5B05     		lsls	r3, r3, #21
 454 012a 5B78     		ldrb	r3, [r3, #1]
 455 012c 002B     		cmp	r3, #0
 456 012e 04D0     		beq	.L41
 457 0130 B023     		movs	r3, #176
 458 0132 5B05     		lsls	r3, r3, #21
 459 0134 5B78     		ldrb	r3, [r3, #1]
 460 0136 DBB2     		uxtb	r3, r3
 461 0138 00E0     		b	.L32
 462              	.L41:
 463 013a 2123     		movs	r3, #33
 464              	.L32:
 465              	.LBE20:
 466              	.LBE19:
 380:Generated_Source\PSoC6\pdl\middleware\ble/cy_ble_clk.c ****     }
 381:Generated_Source\PSoC6\pdl\middleware\ble/cy_ble_clk.c ****     
 382:Generated_Source\PSoC6\pdl\middleware\ble/cy_ble_clk.c ****     /* Update RADIO LDO trim values */
 383:Generated_Source\PSoC6\pdl\middleware\ble/cy_ble_clk.c ****     if((Cy_SysLib_GetDeviceRevision() != CY_SYSLIB_DEVICE_REV_0A) && (SFLASH->RADIO_LDO_TRIMS != 0u
 467              		.loc 1 383 0
 468 013c 212B     		cmp	r3, #33
 469 013e 4FD0     		beq	.L33
 470              		.loc 1 383 0 is_stmt 0 discriminator 1
 471 0140 314B     		ldr	r3, .L42+36
 472 0142 B022     		movs	r2, #176
 473 0144 5205     		lsls	r2, r2, #21
 474 0146 D35A     		ldrh	r3, [r2, r3]
 475 0148 9BB2     		uxth	r3, r3
 476 014a 002B     		cmp	r3, #0
 477 014c 48D0     		beq	.L33
 384:Generated_Source\PSoC6\pdl\middleware\ble/cy_ble_clk.c ****     {
 385:Generated_Source\PSoC6\pdl\middleware\ble/cy_ble_clk.c ****         if(status == CY_BLE_ECO_SUCCESS)
 478              		.loc 1 385 0 is_stmt 1
 479 014e 0028     		cmp	r0, #0
 480 0150 04D1     		bne	.L34
 386:Generated_Source\PSoC6\pdl\middleware\ble/cy_ble_clk.c ****         {
 387:Generated_Source\PSoC6\pdl\middleware\ble/cy_ble_clk.c ****             status = Cy_BLE_HalRcbRegRead(CY_BLE_RF_LDO_CFG_REG, &temp);
 481              		.loc 1 387 0
 482 0152 6B46     		mov	r3, sp
 483 0154 991D     		adds	r1, r3, #6
 484 0156 2D48     		ldr	r0, .L42+40
 485              	.LVL55:
 486 0158 FFF7FEFF 		bl	Cy_BLE_HalRcbRegRead
 487              	.LVL56:
 488              	.L34:
 388:Generated_Source\PSoC6\pdl\middleware\ble/cy_ble_clk.c ****         }
ARM GAS  C:\Users\gjl\AppData\Local\Temp\cc0COz1Y.s 			page 32


 389:Generated_Source\PSoC6\pdl\middleware\ble/cy_ble_clk.c ****         
 390:Generated_Source\PSoC6\pdl\middleware\ble/cy_ble_clk.c ****         if(status == CY_BLE_ECO_SUCCESS) 
 489              		.loc 1 390 0
 490 015c 0028     		cmp	r0, #0
 491 015e 24D1     		bne	.L35
 391:Generated_Source\PSoC6\pdl\middleware\ble/cy_ble_clk.c ****         {      
 392:Generated_Source\PSoC6\pdl\middleware\ble/cy_ble_clk.c ****             /* Update LDO_IF value */
 393:Generated_Source\PSoC6\pdl\middleware\ble/cy_ble_clk.c ****             temp &= (uint16_t)~(CY_BLE_RF_LDO_CFG_REG_LDO_IF_CFG_MASK << CY_BLE_RF_LDO_CFG_REG_LDO_
 492              		.loc 1 393 0
 493 0160 6B46     		mov	r3, sp
 494 0162 9A1D     		adds	r2, r3, #6
 495 0164 DB88     		ldrh	r3, [r3, #6]
 496 0166 6021     		movs	r1, #96
 497 0168 8B43     		bics	r3, r1
 498 016a 1800     		movs	r0, r3
 499              	.LVL57:
 500 016c 1380     		strh	r3, [r2]
 394:Generated_Source\PSoC6\pdl\middleware\ble/cy_ble_clk.c ****             temp |= (uint16_t)(((SFLASH->RADIO_LDO_TRIMS & SFLASH_RADIO_LDO_TRIMS_LDO_IF_Msk) >>
 501              		.loc 1 394 0
 502 016e B025     		movs	r5, #176
 503 0170 6D05     		lsls	r5, r5, #21
 504 0172 254C     		ldr	r4, .L42+36
 505 0174 2B5B     		ldrh	r3, [r5, r4]
 506 0176 6031     		adds	r1, r1, #96
 507 0178 0B40     		ands	r3, r1
 508 017a 5B08     		lsrs	r3, r3, #1
 509 017c 0343     		orrs	r3, r0
 395:Generated_Source\PSoC6\pdl\middleware\ble/cy_ble_clk.c ****                        SFLASH_RADIO_LDO_TRIMS_LDO_IF_Pos) << CY_BLE_RF_LDO_CFG_REG_LDO_IF_CFG_SHIFT
 396:Generated_Source\PSoC6\pdl\middleware\ble/cy_ble_clk.c ****             
 397:Generated_Source\PSoC6\pdl\middleware\ble/cy_ble_clk.c ****             /* Update LDO_ACT value */
 398:Generated_Source\PSoC6\pdl\middleware\ble/cy_ble_clk.c ****             temp &= (uint16_t)~(CY_BLE_RF_LDO_CFG_REG_LDO_ACT_CFG_MASK << CY_BLE_RF_LDO_CFG_REG_LDO
 510              		.loc 1 398 0
 511 017e 2449     		ldr	r1, .L42+44
 512 0180 0B40     		ands	r3, r1
 513 0182 1380     		strh	r3, [r2]
 399:Generated_Source\PSoC6\pdl\middleware\ble/cy_ble_clk.c ****             temp |= (uint16_t)(((SFLASH->RADIO_LDO_TRIMS & SFLASH_RADIO_LDO_TRIMS_LDO_ACT_Msk) >>
 514              		.loc 1 399 0
 515 0184 295B     		ldrh	r1, [r5, r4]
 516 0186 C901     		lsls	r1, r1, #7
 517 0188 F020     		movs	r0, #240
 518 018a C000     		lsls	r0, r0, #3
 519 018c 0140     		ands	r1, r0
 520 018e 0B43     		orrs	r3, r1
 400:Generated_Source\PSoC6\pdl\middleware\ble/cy_ble_clk.c ****                        SFLASH_RADIO_LDO_TRIMS_LDO_ACT_Pos) << CY_BLE_RF_LDO_CFG_REG_LDO_ACT_CFG_SHI
 401:Generated_Source\PSoC6\pdl\middleware\ble/cy_ble_clk.c ****             
 402:Generated_Source\PSoC6\pdl\middleware\ble/cy_ble_clk.c ****             /* Update LDO_DIG value */
 403:Generated_Source\PSoC6\pdl\middleware\ble/cy_ble_clk.c ****             temp &= (uint16_t)~(CY_BLE_RF_LDO_CFG_REG_LDO10_CFG_MASK << CY_BLE_RF_LDO_CFG_REG_LDO10
 521              		.loc 1 403 0
 522 0190 2049     		ldr	r1, .L42+48
 523 0192 1940     		ands	r1, r3
 524 0194 1180     		strh	r1, [r2]
 404:Generated_Source\PSoC6\pdl\middleware\ble/cy_ble_clk.c ****             temp |= (uint16_t)(((SFLASH->RADIO_LDO_TRIMS & SFLASH_RADIO_LDO_TRIMS_LDO_DIG_Msk) >>
 525              		.loc 1 404 0
 526 0196 285B     		ldrh	r0, [r5, r4]
 527 0198 C023     		movs	r3, #192
 528 019a 9B00     		lsls	r3, r3, #2
 529 019c 0340     		ands	r3, r0
ARM GAS  C:\Users\gjl\AppData\Local\Temp\cc0COz1Y.s 			page 33


 530 019e DB00     		lsls	r3, r3, #3
 531 01a0 1943     		orrs	r1, r3
 532 01a2 1180     		strh	r1, [r2]
 405:Generated_Source\PSoC6\pdl\middleware\ble/cy_ble_clk.c ****                        SFLASH_RADIO_LDO_TRIMS_LDO_DIG_Pos) << CY_BLE_RF_LDO_CFG_REG_LDO10_CFG_SHIFT
 406:Generated_Source\PSoC6\pdl\middleware\ble/cy_ble_clk.c ****             
 407:Generated_Source\PSoC6\pdl\middleware\ble/cy_ble_clk.c ****             status = Cy_BLE_HalRcbRegWrite(CY_BLE_RF_LDO_CFG_REG, temp);
 533              		.loc 1 407 0
 534 01a4 1948     		ldr	r0, .L42+40
 535 01a6 FFF7FEFF 		bl	Cy_BLE_HalRcbRegWrite
 536              	.LVL58:
 537              	.L35:
 408:Generated_Source\PSoC6\pdl\middleware\ble/cy_ble_clk.c ****         }
 409:Generated_Source\PSoC6\pdl\middleware\ble/cy_ble_clk.c ****         
 410:Generated_Source\PSoC6\pdl\middleware\ble/cy_ble_clk.c ****         if(status == CY_BLE_ECO_SUCCESS)
 538              		.loc 1 410 0
 539 01aa 0028     		cmp	r0, #0
 540 01ac 04D1     		bne	.L36
 411:Generated_Source\PSoC6\pdl\middleware\ble/cy_ble_clk.c ****         {
 412:Generated_Source\PSoC6\pdl\middleware\ble/cy_ble_clk.c ****            status = Cy_BLE_HalRcbRegRead(CY_BLE_RF_LDO_EN_REG, &temp);
 541              		.loc 1 412 0
 542 01ae 6B46     		mov	r3, sp
 543 01b0 991D     		adds	r1, r3, #6
 544 01b2 1948     		ldr	r0, .L42+52
 545              	.LVL59:
 546 01b4 FFF7FEFF 		bl	Cy_BLE_HalRcbRegRead
 547              	.LVL60:
 548              	.L36:
 413:Generated_Source\PSoC6\pdl\middleware\ble/cy_ble_clk.c ****         }
 414:Generated_Source\PSoC6\pdl\middleware\ble/cy_ble_clk.c ****         
 415:Generated_Source\PSoC6\pdl\middleware\ble/cy_ble_clk.c ****         if(status == CY_BLE_ECO_SUCCESS)
 549              		.loc 1 415 0
 550 01b8 0028     		cmp	r0, #0
 551 01ba 11D1     		bne	.L33
 416:Generated_Source\PSoC6\pdl\middleware\ble/cy_ble_clk.c ****         {  
 417:Generated_Source\PSoC6\pdl\middleware\ble/cy_ble_clk.c ****             /* Update LDO_LNA value */
 418:Generated_Source\PSoC6\pdl\middleware\ble/cy_ble_clk.c ****             temp &= (uint16_t)~(CY_BLE_RF_LDO_EN_REG_LDO_RF_CFG_MASK << CY_BLE_RF_LDO_EN_REG_LDO_RF
 552              		.loc 1 418 0
 553 01bc 6B46     		mov	r3, sp
 554 01be 9A1D     		adds	r2, r3, #6
 555 01c0 D988     		ldrh	r1, [r3, #6]
 556 01c2 C023     		movs	r3, #192
 557 01c4 9943     		bics	r1, r3
 558 01c6 1180     		strh	r1, [r2]
 419:Generated_Source\PSoC6\pdl\middleware\ble/cy_ble_clk.c ****             temp |= (uint16_t)(((SFLASH->RADIO_LDO_TRIMS & SFLASH_RADIO_LDO_TRIMS_LDO_LNA_Msk) >>
 559              		.loc 1 419 0
 560 01c8 0F4B     		ldr	r3, .L42+36
 561 01ca B020     		movs	r0, #176
 562              	.LVL61:
 563 01cc 4005     		lsls	r0, r0, #21
 564 01ce C05A     		ldrh	r0, [r0, r3]
 565 01d0 3023     		movs	r3, #48
 566 01d2 0340     		ands	r3, r0
 567 01d4 9B00     		lsls	r3, r3, #2
 568 01d6 1943     		orrs	r1, r3
 569 01d8 1180     		strh	r1, [r2]
 420:Generated_Source\PSoC6\pdl\middleware\ble/cy_ble_clk.c ****                        SFLASH_RADIO_LDO_TRIMS_LDO_LNA_Pos) << CY_BLE_RF_LDO_EN_REG_LDO_RF_CFG_SHIFT
 421:Generated_Source\PSoC6\pdl\middleware\ble/cy_ble_clk.c ****             
ARM GAS  C:\Users\gjl\AppData\Local\Temp\cc0COz1Y.s 			page 34


 422:Generated_Source\PSoC6\pdl\middleware\ble/cy_ble_clk.c ****             status = Cy_BLE_HalRcbRegWrite(CY_BLE_RF_LDO_EN_REG, temp);
 570              		.loc 1 422 0
 571 01da 0F48     		ldr	r0, .L42+52
 572 01dc FFF7FEFF 		bl	Cy_BLE_HalRcbRegWrite
 573              	.LVL62:
 574              	.L33:
 423:Generated_Source\PSoC6\pdl\middleware\ble/cy_ble_clk.c ****         }
 424:Generated_Source\PSoC6\pdl\middleware\ble/cy_ble_clk.c ****     }
 425:Generated_Source\PSoC6\pdl\middleware\ble/cy_ble_clk.c ****     return(status);
 426:Generated_Source\PSoC6\pdl\middleware\ble/cy_ble_clk.c **** }
 575              		.loc 1 426 0
 576 01e0 03B0     		add	sp, sp, #12
 577              		@ sp needed
 578              	.LVL63:
 579 01e2 F0BD     		pop	{r4, r5, r6, r7, pc}
 580              	.L43:
 581              		.align	2
 582              	.L42:
 583 01e4 021E0000 		.word	7682
 584 01e8 04001600 		.word	1441796
 585 01ec 031E0000 		.word	7683
 586 01f0 091E0000 		.word	7689
 587 01f4 0048E801 		.word	32000000
 588 01f8 00000000 		.word	cy_BleEcoClockFreqHz
 589 01fc 0024F400 		.word	16000000
 590 0200 64F00100 		.word	127076
 591 0204 00003C40 		.word	1077673984
 592 0208 16180000 		.word	6166
 593 020c 071E0000 		.word	7687
 594 0210 7FF8FFFF 		.word	-1921
 595 0214 FFE7FFFF 		.word	-6145
 596 0218 061E0000 		.word	7686
 597              		.cfi_endproc
 598              	.LFE170:
 599              		.size	Cy_BLE_HalMxdRadioEnableClocks, .-Cy_BLE_HalMxdRadioEnableClocks
 600              		.section	.text.Cy_BLE_HalEcoSetTrim,"ax",%progbits
 601              		.align	2
 602              		.code	16
 603              		.thumb_func
 604              		.type	Cy_BLE_HalEcoSetTrim, %function
 605              	Cy_BLE_HalEcoSetTrim:
 606              	.LFB169:
 225:Generated_Source\PSoC6\pdl\middleware\ble/cy_ble_clk.c ****     uint16_t reg = CY_BLE_RF_DCXO_CFG_REG_VALUE;
 607              		.loc 1 225 0
 608              		.cfi_startproc
 609              		@ args = 0, pretend = 0, frame = 0
 610              		@ frame_needed = 0, uses_anonymous_args = 0
 611              	.LVL64:
 612 0000 70B5     		push	{r4, r5, r6, lr}
 613              		.cfi_def_cfa_offset 16
 614              		.cfi_offset 4, -16
 615              		.cfi_offset 5, -12
 616              		.cfi_offset 6, -8
 617              		.cfi_offset 14, -4
 618 0002 0C00     		movs	r4, r1
 619              	.LVL65:
 230:Generated_Source\PSoC6\pdl\middleware\ble/cy_ble_clk.c **** 
ARM GAS  C:\Users\gjl\AppData\Local\Temp\cc0COz1Y.s 			page 35


 620              		.loc 1 230 0
 621 0004 4000     		lsls	r0, r0, #1
 622              	.LVL66:
 623 0006 0849     		ldr	r1, .L46
 624              	.LVL67:
 625 0008 0143     		orrs	r1, r0
 626              	.LVL68:
 233:Generated_Source\PSoC6\pdl\middleware\ble/cy_ble_clk.c ****         
 627              		.loc 1 233 0
 628 000a 0848     		ldr	r0, .L46+4
 629 000c FFF7FEFF 		bl	Cy_BLE_HalRcbRegWrite
 630              	.LVL69:
 631 0010 051E     		subs	r5, r0, #0
 632              	.LVL70:
 235:Generated_Source\PSoC6\pdl\middleware\ble/cy_ble_clk.c ****     {
 633              		.loc 1 235 0
 634 0012 04D1     		bne	.L45
 238:Generated_Source\PSoC6\pdl\middleware\ble/cy_ble_clk.c ****     }
 635              		.loc 1 238 0
 636 0014 0649     		ldr	r1, .L46+8
 637 0016 0748     		ldr	r0, .L46+12
 638              	.LVL71:
 639 0018 FFF7FEFF 		bl	Cy_BLE_HalRcbRegWrite
 640              	.LVL72:
 641 001c 0500     		movs	r5, r0
 642              	.LVL73:
 643              	.L45:
 241:Generated_Source\PSoC6\pdl\middleware\ble/cy_ble_clk.c ****     
 644              		.loc 1 241 0
 645 001e 6001     		lsls	r0, r4, #5
 646              	.LVL74:
 647 0020 FFF7FEFF 		bl	Cy_SysLib_DelayUs
 648              	.LVL75:
 244:Generated_Source\PSoC6\pdl\middleware\ble/cy_ble_clk.c **** 
 649              		.loc 1 244 0
 650 0024 2800     		movs	r0, r5
 651              		@ sp needed
 652              	.LVL76:
 653 0026 70BD     		pop	{r4, r5, r6, pc}
 654              	.L47:
 655              		.align	2
 656              	.L46:
 657 0028 01100000 		.word	4097
 658 002c 081E0000 		.word	7688
 659 0030 37680000 		.word	26679
 660 0034 0F1E0000 		.word	7695
 661              		.cfi_endproc
 662              	.LFE169:
 663              		.size	Cy_BLE_HalEcoSetTrim, .-Cy_BLE_HalEcoSetTrim
 664              		.section	.text.Cy_BLE_HAL_IsEcoCpuClockSrc,"ax",%progbits
 665              		.align	2
 666              		.global	Cy_BLE_HAL_IsEcoCpuClockSrc
 667              		.code	16
 668              		.thumb_func
 669              		.type	Cy_BLE_HAL_IsEcoCpuClockSrc, %function
 670              	Cy_BLE_HAL_IsEcoCpuClockSrc:
 671              	.LFB164:
ARM GAS  C:\Users\gjl\AppData\Local\Temp\cc0COz1Y.s 			page 36


  45:Generated_Source\PSoC6\pdl\middleware\ble/cy_ble_clk.c ****     uint8_t returnVal = 0u;
 672              		.loc 1 45 0
 673              		.cfi_startproc
 674              		@ args = 0, pretend = 0, frame = 0
 675              		@ frame_needed = 0, uses_anonymous_args = 0
 676 0000 10B5     		push	{r4, lr}
 677              		.cfi_def_cfa_offset 8
 678              		.cfi_offset 4, -8
 679              		.cfi_offset 14, -4
 680              	.LVL77:
  49:Generated_Source\PSoC6\pdl\middleware\ble/cy_ble_clk.c ****     {
 681              		.loc 1 49 0
 682 0002 0024     		movs	r4, #0
 683 0004 05E0     		b	.L49
 684              	.LVL78:
 685              	.L51:
  51:Generated_Source\PSoC6\pdl\middleware\ble/cy_ble_clk.c ****         {
 686              		.loc 1 51 0
 687 0006 2000     		movs	r0, r4
 688 0008 FFF7FEFF 		bl	Cy_SysClk_ClkPathGetSource
 689              	.LVL79:
 690 000c 0328     		cmp	r0, #3
 691 000e 04D0     		beq	.L52
  49:Generated_Source\PSoC6\pdl\middleware\ble/cy_ble_clk.c ****     {
 692              		.loc 1 49 0 discriminator 2
 693 0010 0134     		adds	r4, r4, #1
 694              	.LVL80:
 695              	.L49:
  49:Generated_Source\PSoC6\pdl\middleware\ble/cy_ble_clk.c ****     {
 696              		.loc 1 49 0 is_stmt 0 discriminator 1
 697 0012 042C     		cmp	r4, #4
 698 0014 F7D9     		bls	.L51
  46:Generated_Source\PSoC6\pdl\middleware\ble/cy_ble_clk.c ****     uint32_t i;
 699              		.loc 1 46 0 is_stmt 1
 700 0016 0020     		movs	r0, #0
 701 0018 00E0     		b	.L50
 702              	.L52:
  53:Generated_Source\PSoC6\pdl\middleware\ble/cy_ble_clk.c ****             break;
 703              		.loc 1 53 0
 704 001a 0120     		movs	r0, #1
 705              	.L50:
 706              	.LVL81:
  59:Generated_Source\PSoC6\pdl\middleware\ble/cy_ble_clk.c **** 
 707              		.loc 1 59 0
 708              		@ sp needed
 709              	.LVL82:
 710 001c 10BD     		pop	{r4, pc}
 711              		.cfi_endproc
 712              	.LFE164:
 713              		.size	Cy_BLE_HAL_IsEcoCpuClockSrc, .-Cy_BLE_HAL_IsEcoCpuClockSrc
 714 001e C046     		.section	.text.Cy_BLE_HAL_IsWcoLfclkSrc,"ax",%progbits
 715              		.align	2
 716              		.global	Cy_BLE_HAL_IsWcoLfclkSrc
 717              		.code	16
 718              		.thumb_func
 719              		.type	Cy_BLE_HAL_IsWcoLfclkSrc, %function
 720              	Cy_BLE_HAL_IsWcoLfclkSrc:
ARM GAS  C:\Users\gjl\AppData\Local\Temp\cc0COz1Y.s 			page 37


 721              	.LFB165:
  74:Generated_Source\PSoC6\pdl\middleware\ble/cy_ble_clk.c ****     cy_en_clklf_in_sources_t lfclkSrs;
 722              		.loc 1 74 0
 723              		.cfi_startproc
 724              		@ args = 0, pretend = 0, frame = 0
 725              		@ frame_needed = 0, uses_anonymous_args = 0
 726              		@ link register save eliminated.
 727              	.LBB21:
 728              	.LBB22:
 729              		.file 3 "Generated_Source\\PSoC6\\pdl\\drivers/peripheral/sysclk/cy_sysclk.h"
   1:Generated_Source\PSoC6\pdl\drivers/peripheral/sysclk/cy_sysclk.h **** /***************************************************************************//**
   2:Generated_Source\PSoC6\pdl\drivers/peripheral/sysclk/cy_sysclk.h **** * \file cy_sysclk.h
   3:Generated_Source\PSoC6\pdl\drivers/peripheral/sysclk/cy_sysclk.h **** * \version 1.10.1
   4:Generated_Source\PSoC6\pdl\drivers/peripheral/sysclk/cy_sysclk.h **** *
   5:Generated_Source\PSoC6\pdl\drivers/peripheral/sysclk/cy_sysclk.h **** * Provides an API declaration of the sysclk driver.
   6:Generated_Source\PSoC6\pdl\drivers/peripheral/sysclk/cy_sysclk.h **** *
   7:Generated_Source\PSoC6\pdl\drivers/peripheral/sysclk/cy_sysclk.h **** ********************************************************************************
   8:Generated_Source\PSoC6\pdl\drivers/peripheral/sysclk/cy_sysclk.h **** * \copyright
   9:Generated_Source\PSoC6\pdl\drivers/peripheral/sysclk/cy_sysclk.h **** * Copyright 2016-2018, Cypress Semiconductor Corporation. All rights reserved.
  10:Generated_Source\PSoC6\pdl\drivers/peripheral/sysclk/cy_sysclk.h **** * You may use this file only in accordance with the license, terms, conditions,
  11:Generated_Source\PSoC6\pdl\drivers/peripheral/sysclk/cy_sysclk.h **** * disclaimers, and limitations in the end user license agreement accompanying
  12:Generated_Source\PSoC6\pdl\drivers/peripheral/sysclk/cy_sysclk.h **** * the software package with which this file was provided.
  13:Generated_Source\PSoC6\pdl\drivers/peripheral/sysclk/cy_sysclk.h **** *******************************************************************************/
  14:Generated_Source\PSoC6\pdl\drivers/peripheral/sysclk/cy_sysclk.h **** 
  15:Generated_Source\PSoC6\pdl\drivers/peripheral/sysclk/cy_sysclk.h **** /**
  16:Generated_Source\PSoC6\pdl\drivers/peripheral/sysclk/cy_sysclk.h **** * \defgroup group_sysclk System Clock (SysClk)
  17:Generated_Source\PSoC6\pdl\drivers/peripheral/sysclk/cy_sysclk.h **** * \{
  18:Generated_Source\PSoC6\pdl\drivers/peripheral/sysclk/cy_sysclk.h **** * The System Clock (SysClk) driver contains the API for configuring system and
  19:Generated_Source\PSoC6\pdl\drivers/peripheral/sysclk/cy_sysclk.h **** * peripheral clocks. Firmware uses the API to configure , enable, or disable
  20:Generated_Source\PSoC6\pdl\drivers/peripheral/sysclk/cy_sysclk.h **** * a clock.
  21:Generated_Source\PSoC6\pdl\drivers/peripheral/sysclk/cy_sysclk.h **** * 
  22:Generated_Source\PSoC6\pdl\drivers/peripheral/sysclk/cy_sysclk.h **** * The clock system includes a variety of resources that can vary per device, including:
  23:Generated_Source\PSoC6\pdl\drivers/peripheral/sysclk/cy_sysclk.h **** * - Internal clock sources such as internal oscillators
  24:Generated_Source\PSoC6\pdl\drivers/peripheral/sysclk/cy_sysclk.h **** * - External clock sources such as crystal oscillators or a signal on an I/O pin
  25:Generated_Source\PSoC6\pdl\drivers/peripheral/sysclk/cy_sysclk.h **** * - Generated clocks such as an FLL, a PLL, and peripheral clocks
  26:Generated_Source\PSoC6\pdl\drivers/peripheral/sysclk/cy_sysclk.h **** *
  27:Generated_Source\PSoC6\pdl\drivers/peripheral/sysclk/cy_sysclk.h **** * Consult the Technical Reference Manual for your device for details of the 
  28:Generated_Source\PSoC6\pdl\drivers/peripheral/sysclk/cy_sysclk.h **** * clock system.
  29:Generated_Source\PSoC6\pdl\drivers/peripheral/sysclk/cy_sysclk.h **** *
  30:Generated_Source\PSoC6\pdl\drivers/peripheral/sysclk/cy_sysclk.h **** * The PDL defines clock system capabilities in:\n
  31:Generated_Source\PSoC6\pdl\drivers/peripheral/sysclk/cy_sysclk.h **** * devices\<family\>/<series\>/include\<series\>_config.h. (E.g.
  32:Generated_Source\PSoC6\pdl\drivers/peripheral/sysclk/cy_sysclk.h **** * devices/psoc6/psoc63/include/psoc63_config.h). 
  33:Generated_Source\PSoC6\pdl\drivers/peripheral/sysclk/cy_sysclk.h **** * User-configurable clock speeds are defined in the file system_<series>.h.
  34:Generated_Source\PSoC6\pdl\drivers/peripheral/sysclk/cy_sysclk.h **** *
  35:Generated_Source\PSoC6\pdl\drivers/peripheral/sysclk/cy_sysclk.h **** * As an illustration of the clocking system, the following diagram shows the
  36:Generated_Source\PSoC6\pdl\drivers/peripheral/sysclk/cy_sysclk.h **** * PSoC 63 series clock tree. The actual tree may vary depending on the device series.
  37:Generated_Source\PSoC6\pdl\drivers/peripheral/sysclk/cy_sysclk.h **** * ![](sysclk_tree.png)
  38:Generated_Source\PSoC6\pdl\drivers/peripheral/sysclk/cy_sysclk.h **** *
  39:Generated_Source\PSoC6\pdl\drivers/peripheral/sysclk/cy_sysclk.h **** * The sysclk driver supports multiple peripheral clocks, as well as the fast 
  40:Generated_Source\PSoC6\pdl\drivers/peripheral/sysclk/cy_sysclk.h **** * clock, slow clock, backup domain clock, timer clock, and pump clock. The API
  41:Generated_Source\PSoC6\pdl\drivers/peripheral/sysclk/cy_sysclk.h **** * for any given clock contains the functions to manage that clock. Functions
  42:Generated_Source\PSoC6\pdl\drivers/peripheral/sysclk/cy_sysclk.h **** * for clock measurement and trimming are also provided.
  43:Generated_Source\PSoC6\pdl\drivers/peripheral/sysclk/cy_sysclk.h **** *
  44:Generated_Source\PSoC6\pdl\drivers/peripheral/sysclk/cy_sysclk.h **** * \section group_sysclk_configuration Configuration Considerations
  45:Generated_Source\PSoC6\pdl\drivers/peripheral/sysclk/cy_sysclk.h **** * The availability of clock functions depend on the availability of the chip
  46:Generated_Source\PSoC6\pdl\drivers/peripheral/sysclk/cy_sysclk.h **** * resources that support those functions. Consult the device TRM before
  47:Generated_Source\PSoC6\pdl\drivers/peripheral/sysclk/cy_sysclk.h **** * attempting to use these functions.
ARM GAS  C:\Users\gjl\AppData\Local\Temp\cc0COz1Y.s 			page 38


  48:Generated_Source\PSoC6\pdl\drivers/peripheral/sysclk/cy_sysclk.h **** *
  49:Generated_Source\PSoC6\pdl\drivers/peripheral/sysclk/cy_sysclk.h **** * LPActive and LPSleep power modes limit the maximum clock frequency allowed
  50:Generated_Source\PSoC6\pdl\drivers/peripheral/sysclk/cy_sysclk.h **** * on the device. Refer to the SysPm driver and the TRM for details.
  51:Generated_Source\PSoC6\pdl\drivers/peripheral/sysclk/cy_sysclk.h **** *
  52:Generated_Source\PSoC6\pdl\drivers/peripheral/sysclk/cy_sysclk.h **** * \section group_sysclk_more_information More Information
  53:Generated_Source\PSoC6\pdl\drivers/peripheral/sysclk/cy_sysclk.h **** * Refer to the technical reference manual (TRM) and the device datasheet.
  54:Generated_Source\PSoC6\pdl\drivers/peripheral/sysclk/cy_sysclk.h **** *
  55:Generated_Source\PSoC6\pdl\drivers/peripheral/sysclk/cy_sysclk.h **** * \section group_sysclk_MISRA MISRA-C Compliance
  56:Generated_Source\PSoC6\pdl\drivers/peripheral/sysclk/cy_sysclk.h **** * <table class="doxtable">
  57:Generated_Source\PSoC6\pdl\drivers/peripheral/sysclk/cy_sysclk.h **** *   <tr>
  58:Generated_Source\PSoC6\pdl\drivers/peripheral/sysclk/cy_sysclk.h **** *     <th>MISRA Rule</th>
  59:Generated_Source\PSoC6\pdl\drivers/peripheral/sysclk/cy_sysclk.h **** *     <th>Rule Class (Required/Advisory)</th>
  60:Generated_Source\PSoC6\pdl\drivers/peripheral/sysclk/cy_sysclk.h **** *     <th>Rule Description</th>
  61:Generated_Source\PSoC6\pdl\drivers/peripheral/sysclk/cy_sysclk.h **** *     <th>Description of Deviation(s)</th>
  62:Generated_Source\PSoC6\pdl\drivers/peripheral/sysclk/cy_sysclk.h **** *   </tr>
  63:Generated_Source\PSoC6\pdl\drivers/peripheral/sysclk/cy_sysclk.h **** *   <tr>
  64:Generated_Source\PSoC6\pdl\drivers/peripheral/sysclk/cy_sysclk.h **** *     <td>1.2</td>
  65:Generated_Source\PSoC6\pdl\drivers/peripheral/sysclk/cy_sysclk.h **** *     <td>R</td>
  66:Generated_Source\PSoC6\pdl\drivers/peripheral/sysclk/cy_sysclk.h **** *     <td>No reliance on undefined behavior.</td>
  67:Generated_Source\PSoC6\pdl\drivers/peripheral/sysclk/cy_sysclk.h **** *     <td>Calculation of an absolute value in the FLL and PLL configuration.</td>
  68:Generated_Source\PSoC6\pdl\drivers/peripheral/sysclk/cy_sysclk.h **** *   </tr>
  69:Generated_Source\PSoC6\pdl\drivers/peripheral/sysclk/cy_sysclk.h **** *   <tr>
  70:Generated_Source\PSoC6\pdl\drivers/peripheral/sysclk/cy_sysclk.h **** *     <td>5.6</td>
  71:Generated_Source\PSoC6\pdl\drivers/peripheral/sysclk/cy_sysclk.h **** *     <td>R</td>
  72:Generated_Source\PSoC6\pdl\drivers/peripheral/sysclk/cy_sysclk.h **** *     <td>No identifier in one name space should have the same spelling as an identifier in another
  73:Generated_Source\PSoC6\pdl\drivers/peripheral/sysclk/cy_sysclk.h **** *         exception of structure member and union member names.</td>
  74:Generated_Source\PSoC6\pdl\drivers/peripheral/sysclk/cy_sysclk.h **** *     <td>The "mode" and "retval" are used as a structure/union member they are a label, tag or ord
  75:Generated_Source\PSoC6\pdl\drivers/peripheral/sysclk/cy_sysclk.h **** *         identifier.</td>
  76:Generated_Source\PSoC6\pdl\drivers/peripheral/sysclk/cy_sysclk.h **** *   </tr>
  77:Generated_Source\PSoC6\pdl\drivers/peripheral/sysclk/cy_sysclk.h **** *   <tr>
  78:Generated_Source\PSoC6\pdl\drivers/peripheral/sysclk/cy_sysclk.h **** *     <td>10.1</td>
  79:Generated_Source\PSoC6\pdl\drivers/peripheral/sysclk/cy_sysclk.h **** *     <td>R</td>
  80:Generated_Source\PSoC6\pdl\drivers/peripheral/sysclk/cy_sysclk.h **** *     <td>The value of an expression of integer type shall not be implicitly converted to a differe
  81:Generated_Source\PSoC6\pdl\drivers/peripheral/sysclk/cy_sysclk.h **** *         if the expression is complex.</td>
  82:Generated_Source\PSoC6\pdl\drivers/peripheral/sysclk/cy_sysclk.h **** *     <td>Use of a Cypress defined macro to access memory mapped objects.
  83:Generated_Source\PSoC6\pdl\drivers/peripheral/sysclk/cy_sysclk.h **** *         Use of a Cypress defined macro to divide with rounding.</td>
  84:Generated_Source\PSoC6\pdl\drivers/peripheral/sysclk/cy_sysclk.h **** *   </tr>
  85:Generated_Source\PSoC6\pdl\drivers/peripheral/sysclk/cy_sysclk.h **** *   <tr>
  86:Generated_Source\PSoC6\pdl\drivers/peripheral/sysclk/cy_sysclk.h **** *     <td>10.2</td>
  87:Generated_Source\PSoC6\pdl\drivers/peripheral/sysclk/cy_sysclk.h **** *     <td>R</td>
  88:Generated_Source\PSoC6\pdl\drivers/peripheral/sysclk/cy_sysclk.h **** *     <td>The value of an expression of floating type shall not be implicitly converted to a differ
  89:Generated_Source\PSoC6\pdl\drivers/peripheral/sysclk/cy_sysclk.h **** *         a) it is not a conversion to a wider floating type, or
  90:Generated_Source\PSoC6\pdl\drivers/peripheral/sysclk/cy_sysclk.h **** *         b) the expression is complex, or
  91:Generated_Source\PSoC6\pdl\drivers/peripheral/sysclk/cy_sysclk.h **** *         c) the expression is a function argument, or
  92:Generated_Source\PSoC6\pdl\drivers/peripheral/sysclk/cy_sysclk.h **** *         d) the expression is a return expression.</td>
  93:Generated_Source\PSoC6\pdl\drivers/peripheral/sysclk/cy_sysclk.h **** *     <td>The operands of this relational operator are expressions of different "essential type" ca
  94:Generated_Source\PSoC6\pdl\drivers/peripheral/sysclk/cy_sysclk.h **** *         (enum and unsigned).</td>
  95:Generated_Source\PSoC6\pdl\drivers/peripheral/sysclk/cy_sysclk.h **** *   </tr>
  96:Generated_Source\PSoC6\pdl\drivers/peripheral/sysclk/cy_sysclk.h **** *   <tr>
  97:Generated_Source\PSoC6\pdl\drivers/peripheral/sysclk/cy_sysclk.h **** *     <td>10.3</td>
  98:Generated_Source\PSoC6\pdl\drivers/peripheral/sysclk/cy_sysclk.h **** *     <td>R</td>
  99:Generated_Source\PSoC6\pdl\drivers/peripheral/sysclk/cy_sysclk.h **** *     <td>A composite integer expression is being cast to a wider type.</td>
 100:Generated_Source\PSoC6\pdl\drivers/peripheral/sysclk/cy_sysclk.h **** *     <td>Use of a Cypress defined macro to access memory-mapped objects. Calculating the clock par
 101:Generated_Source\PSoC6\pdl\drivers/peripheral/sysclk/cy_sysclk.h **** *   </tr>
 102:Generated_Source\PSoC6\pdl\drivers/peripheral/sysclk/cy_sysclk.h **** *   <tr>
 103:Generated_Source\PSoC6\pdl\drivers/peripheral/sysclk/cy_sysclk.h **** *     <td>10.4</td>
 104:Generated_Source\PSoC6\pdl\drivers/peripheral/sysclk/cy_sysclk.h **** *     <td>R</td>
ARM GAS  C:\Users\gjl\AppData\Local\Temp\cc0COz1Y.s 			page 39


 105:Generated_Source\PSoC6\pdl\drivers/peripheral/sysclk/cy_sysclk.h **** *     <td>A composite floating point expression is being cast to double, or unsigned.</td>
 106:Generated_Source\PSoC6\pdl\drivers/peripheral/sysclk/cy_sysclk.h **** *     <td>Use of the C library sqrt() function. Casting a floating-point calculation result to an i
 107:Generated_Source\PSoC6\pdl\drivers/peripheral/sysclk/cy_sysclk.h **** *   </tr>
 108:Generated_Source\PSoC6\pdl\drivers/peripheral/sysclk/cy_sysclk.h **** *   <tr>
 109:Generated_Source\PSoC6\pdl\drivers/peripheral/sysclk/cy_sysclk.h **** *     <td>10.5</td>
 110:Generated_Source\PSoC6\pdl\drivers/peripheral/sysclk/cy_sysclk.h **** *     <td>R</td>
 111:Generated_Source\PSoC6\pdl\drivers/peripheral/sysclk/cy_sysclk.h **** *     <td>The value of an expression of integer type shall not be implicitly converted to a differe
 112:Generated_Source\PSoC6\pdl\drivers/peripheral/sysclk/cy_sysclk.h **** *         if the expression is complex.</td>
 113:Generated_Source\PSoC6\pdl\drivers/peripheral/sysclk/cy_sysclk.h **** *     <td>Use of a Cypress defined macro to access memory-mapped objects.</td>
 114:Generated_Source\PSoC6\pdl\drivers/peripheral/sysclk/cy_sysclk.h **** *   </tr>
 115:Generated_Source\PSoC6\pdl\drivers/peripheral/sysclk/cy_sysclk.h **** *   <tr>
 116:Generated_Source\PSoC6\pdl\drivers/peripheral/sysclk/cy_sysclk.h **** *     <td>12.1</td>
 117:Generated_Source\PSoC6\pdl\drivers/peripheral/sysclk/cy_sysclk.h **** *     <td>A</td>
 118:Generated_Source\PSoC6\pdl\drivers/peripheral/sysclk/cy_sysclk.h **** *     <td>Extra parentheses recommended.</td>
 119:Generated_Source\PSoC6\pdl\drivers/peripheral/sysclk/cy_sysclk.h **** *     <td>Ternary operator uses constants; extra parentheses not needed.</td>
 120:Generated_Source\PSoC6\pdl\drivers/peripheral/sysclk/cy_sysclk.h **** *   </tr>
 121:Generated_Source\PSoC6\pdl\drivers/peripheral/sysclk/cy_sysclk.h **** *   <tr>
 122:Generated_Source\PSoC6\pdl\drivers/peripheral/sysclk/cy_sysclk.h **** *     <td>12.2</td>
 123:Generated_Source\PSoC6\pdl\drivers/peripheral/sysclk/cy_sysclk.h **** *     <td>A</td>
 124:Generated_Source\PSoC6\pdl\drivers/peripheral/sysclk/cy_sysclk.h **** *     <td>The value of an expression must be the same under any order of evaluation that the standa
 125:Generated_Source\PSoC6\pdl\drivers/peripheral/sysclk/cy_sysclk.h **** *     <td>The "rtnval" is modified more than once between the sequence points - the evaluation orde
 126:Generated_Source\PSoC6\pdl\drivers/peripheral/sysclk/cy_sysclk.h **** *   </tr>
 127:Generated_Source\PSoC6\pdl\drivers/peripheral/sysclk/cy_sysclk.h **** *   <tr>
 128:Generated_Source\PSoC6\pdl\drivers/peripheral/sysclk/cy_sysclk.h **** *     <td>12.4</td>
 129:Generated_Source\PSoC6\pdl\drivers/peripheral/sysclk/cy_sysclk.h **** *     <td>A</td>
 130:Generated_Source\PSoC6\pdl\drivers/peripheral/sysclk/cy_sysclk.h **** *     <td>The right hand operand of a logical && or || operator shall not contain side effects.</td
 131:Generated_Source\PSoC6\pdl\drivers/peripheral/sysclk/cy_sysclk.h **** *     <td>No side effect in this case.</td>
 132:Generated_Source\PSoC6\pdl\drivers/peripheral/sysclk/cy_sysclk.h **** *   </tr>
 133:Generated_Source\PSoC6\pdl\drivers/peripheral/sysclk/cy_sysclk.h **** *   <tr>
 134:Generated_Source\PSoC6\pdl\drivers/peripheral/sysclk/cy_sysclk.h **** *     <td>13.4</td>
 135:Generated_Source\PSoC6\pdl\drivers/peripheral/sysclk/cy_sysclk.h **** *     <td>R</td>
 136:Generated_Source\PSoC6\pdl\drivers/peripheral/sysclk/cy_sysclk.h **** *     <td>The controlling expression of a for statement shall not contain any objects of floating t
 137:Generated_Source\PSoC6\pdl\drivers/peripheral/sysclk/cy_sysclk.h **** *     <td>Scanning through a list of floating point values.</td>
 138:Generated_Source\PSoC6\pdl\drivers/peripheral/sysclk/cy_sysclk.h **** *   </tr>
 139:Generated_Source\PSoC6\pdl\drivers/peripheral/sysclk/cy_sysclk.h **** *   <tr>
 140:Generated_Source\PSoC6\pdl\drivers/peripheral/sysclk/cy_sysclk.h **** *     <td>16.7</td>
 141:Generated_Source\PSoC6\pdl\drivers/peripheral/sysclk/cy_sysclk.h **** *     <td>R</td>
 142:Generated_Source\PSoC6\pdl\drivers/peripheral/sysclk/cy_sysclk.h **** *     <td>The object addressed by the pointer parameter is not modified and so the pointer could be
 143:Generated_Source\PSoC6\pdl\drivers/peripheral/sysclk/cy_sysclk.h **** *         type 'pointer to const'.</td>
 144:Generated_Source\PSoC6\pdl\drivers/peripheral/sysclk/cy_sysclk.h **** *     <td>The callback function for system power management (SysPm) must be of generic callback typ
 145:Generated_Source\PSoC6\pdl\drivers/peripheral/sysclk/cy_sysclk.h **** *         contains non-const pointer parameter.</td>
 146:Generated_Source\PSoC6\pdl\drivers/peripheral/sysclk/cy_sysclk.h **** *   </tr>
 147:Generated_Source\PSoC6\pdl\drivers/peripheral/sysclk/cy_sysclk.h **** *   <tr>
 148:Generated_Source\PSoC6\pdl\drivers/peripheral/sysclk/cy_sysclk.h **** *     <td>18.4</td>
 149:Generated_Source\PSoC6\pdl\drivers/peripheral/sysclk/cy_sysclk.h **** *     <td>R</td>
 150:Generated_Source\PSoC6\pdl\drivers/peripheral/sysclk/cy_sysclk.h **** *     <td>Unions shall not be used.</td>
 151:Generated_Source\PSoC6\pdl\drivers/peripheral/sysclk/cy_sysclk.h **** *     <td>The clock path in \ref Cy_SysClk_PeriphGetFrequency() uses either FLL or PLL.</td>
 152:Generated_Source\PSoC6\pdl\drivers/peripheral/sysclk/cy_sysclk.h **** *   </tr>
 153:Generated_Source\PSoC6\pdl\drivers/peripheral/sysclk/cy_sysclk.h **** *   <tr>
 154:Generated_Source\PSoC6\pdl\drivers/peripheral/sysclk/cy_sysclk.h **** *     <td>19.4</td>
 155:Generated_Source\PSoC6\pdl\drivers/peripheral/sysclk/cy_sysclk.h **** *     <td>R</td>
 156:Generated_Source\PSoC6\pdl\drivers/peripheral/sysclk/cy_sysclk.h **** *     <td>Macros shall only expand to a limited set of constructs.</td>
 157:Generated_Source\PSoC6\pdl\drivers/peripheral/sysclk/cy_sysclk.h **** *     <td>The macro CY_SYSCLK_CLR_SET uses a concatenate operation,
 158:Generated_Source\PSoC6\pdl\drivers/peripheral/sysclk/cy_sysclk.h **** *         so one of the macro parameters cannot be enclosed in parentheses.</td>
 159:Generated_Source\PSoC6\pdl\drivers/peripheral/sysclk/cy_sysclk.h **** *   </tr>
 160:Generated_Source\PSoC6\pdl\drivers/peripheral/sysclk/cy_sysclk.h **** * </table>
 161:Generated_Source\PSoC6\pdl\drivers/peripheral/sysclk/cy_sysclk.h **** *
ARM GAS  C:\Users\gjl\AppData\Local\Temp\cc0COz1Y.s 			page 40


 162:Generated_Source\PSoC6\pdl\drivers/peripheral/sysclk/cy_sysclk.h **** *
 163:Generated_Source\PSoC6\pdl\drivers/peripheral/sysclk/cy_sysclk.h **** * \section group_sysclk_changelog Changelog
 164:Generated_Source\PSoC6\pdl\drivers/peripheral/sysclk/cy_sysclk.h **** * <table class="doxtable">
 165:Generated_Source\PSoC6\pdl\drivers/peripheral/sysclk/cy_sysclk.h **** *   <tr><th>Version</th><th>Changes</th><th>Reason for Change</th></tr>
 166:Generated_Source\PSoC6\pdl\drivers/peripheral/sysclk/cy_sysclk.h **** *   <tr>
 167:Generated_Source\PSoC6\pdl\drivers/peripheral/sysclk/cy_sysclk.h **** *     <td>1.10.1</td>
 168:Generated_Source\PSoC6\pdl\drivers/peripheral/sysclk/cy_sysclk.h **** *     <td>Renamed Power Management section to Low Power Callback section</td>
 169:Generated_Source\PSoC6\pdl\drivers/peripheral/sysclk/cy_sysclk.h **** *     <td>Documentation update and clarification</td>
 170:Generated_Source\PSoC6\pdl\drivers/peripheral/sysclk/cy_sysclk.h **** *   </tr>
 171:Generated_Source\PSoC6\pdl\drivers/peripheral/sysclk/cy_sysclk.h **** *   <tr>
 172:Generated_Source\PSoC6\pdl\drivers/peripheral/sysclk/cy_sysclk.h **** *     <td rowspan="5">1.10</td>
 173:Generated_Source\PSoC6\pdl\drivers/peripheral/sysclk/cy_sysclk.h **** *     <td>Updated FLL parameter calculation</td>
 174:Generated_Source\PSoC6\pdl\drivers/peripheral/sysclk/cy_sysclk.h **** *     <td>Support low frequency sources</td>
 175:Generated_Source\PSoC6\pdl\drivers/peripheral/sysclk/cy_sysclk.h **** *   </tr>
 176:Generated_Source\PSoC6\pdl\drivers/peripheral/sysclk/cy_sysclk.h **** *   <tr>
 177:Generated_Source\PSoC6\pdl\drivers/peripheral/sysclk/cy_sysclk.h **** *     <td>Added Cy_SysClk_PiloSetTrim() and Cy_SysclkPiloGetTrim() functions</td>
 178:Generated_Source\PSoC6\pdl\drivers/peripheral/sysclk/cy_sysclk.h **** *     <td>Support PILO manual trims</td>
 179:Generated_Source\PSoC6\pdl\drivers/peripheral/sysclk/cy_sysclk.h **** *   </tr>
 180:Generated_Source\PSoC6\pdl\drivers/peripheral/sysclk/cy_sysclk.h **** *   <tr>
 181:Generated_Source\PSoC6\pdl\drivers/peripheral/sysclk/cy_sysclk.h **** *     <td>Made Cy_SysClk_FllLostLock() function dependent on SRSS v1</td>
 182:Generated_Source\PSoC6\pdl\drivers/peripheral/sysclk/cy_sysclk.h **** *     <td>Feature is not supported in SRSS v1</td>
 183:Generated_Source\PSoC6\pdl\drivers/peripheral/sysclk/cy_sysclk.h **** *   </tr>
 184:Generated_Source\PSoC6\pdl\drivers/peripheral/sysclk/cy_sysclk.h **** *   <tr>
 185:Generated_Source\PSoC6\pdl\drivers/peripheral/sysclk/cy_sysclk.h **** *     <td>Updated Cy_SysClk_DeepSleepCallback() to save/restore both FLL and PLL settings</td>
 186:Generated_Source\PSoC6\pdl\drivers/peripheral/sysclk/cy_sysclk.h **** *     <td>The function should return when the lock is established or a timeout has occurred</td>
 187:Generated_Source\PSoC6\pdl\drivers/peripheral/sysclk/cy_sysclk.h **** *   </tr>
 188:Generated_Source\PSoC6\pdl\drivers/peripheral/sysclk/cy_sysclk.h **** *   <tr>
 189:Generated_Source\PSoC6\pdl\drivers/peripheral/sysclk/cy_sysclk.h **** *     <td>General documentation updates</td>
 190:Generated_Source\PSoC6\pdl\drivers/peripheral/sysclk/cy_sysclk.h **** *     <td></td>
 191:Generated_Source\PSoC6\pdl\drivers/peripheral/sysclk/cy_sysclk.h **** *   </tr>
 192:Generated_Source\PSoC6\pdl\drivers/peripheral/sysclk/cy_sysclk.h **** *   <tr>
 193:Generated_Source\PSoC6\pdl\drivers/peripheral/sysclk/cy_sysclk.h **** *     <td>1.0</td>
 194:Generated_Source\PSoC6\pdl\drivers/peripheral/sysclk/cy_sysclk.h **** *     <td>Initial version</td>
 195:Generated_Source\PSoC6\pdl\drivers/peripheral/sysclk/cy_sysclk.h **** *     <td></td>
 196:Generated_Source\PSoC6\pdl\drivers/peripheral/sysclk/cy_sysclk.h **** *   </tr>
 197:Generated_Source\PSoC6\pdl\drivers/peripheral/sysclk/cy_sysclk.h **** * </table>
 198:Generated_Source\PSoC6\pdl\drivers/peripheral/sysclk/cy_sysclk.h **** *
 199:Generated_Source\PSoC6\pdl\drivers/peripheral/sysclk/cy_sysclk.h **** * \defgroup group_sysclk_macros           Macros
 200:Generated_Source\PSoC6\pdl\drivers/peripheral/sysclk/cy_sysclk.h **** * \{
 201:Generated_Source\PSoC6\pdl\drivers/peripheral/sysclk/cy_sysclk.h **** * \}
 202:Generated_Source\PSoC6\pdl\drivers/peripheral/sysclk/cy_sysclk.h **** * \defgroup group_sysclk_enums           General Enumerated Types
 203:Generated_Source\PSoC6\pdl\drivers/peripheral/sysclk/cy_sysclk.h **** * \{
 204:Generated_Source\PSoC6\pdl\drivers/peripheral/sysclk/cy_sysclk.h **** *   \defgroup group_sysclk_returns         Function return values
 205:Generated_Source\PSoC6\pdl\drivers/peripheral/sysclk/cy_sysclk.h **** * \}
 206:Generated_Source\PSoC6\pdl\drivers/peripheral/sysclk/cy_sysclk.h **** * \defgroup group_sysclk_eco             External Crystal Oscillator (ECO)
 207:Generated_Source\PSoC6\pdl\drivers/peripheral/sysclk/cy_sysclk.h **** * \{
 208:Generated_Source\PSoC6\pdl\drivers/peripheral/sysclk/cy_sysclk.h **** *   The External Crystal Oscillator (ECO) is a clock source that consists
 209:Generated_Source\PSoC6\pdl\drivers/peripheral/sysclk/cy_sysclk.h **** *   of an oscillator circuit that drives an external crystal through its
 210:Generated_Source\PSoC6\pdl\drivers/peripheral/sysclk/cy_sysclk.h **** *   dedicated ECO pins. The ECO is a source clock that can be used to
 211:Generated_Source\PSoC6\pdl\drivers/peripheral/sysclk/cy_sysclk.h **** *   source one or more clock paths (Refer to \ref group_sysclk_path_src).
 212:Generated_Source\PSoC6\pdl\drivers/peripheral/sysclk/cy_sysclk.h **** *   These clock paths can then source the processors and peripherals in
 213:Generated_Source\PSoC6\pdl\drivers/peripheral/sysclk/cy_sysclk.h **** *   the device.
 214:Generated_Source\PSoC6\pdl\drivers/peripheral/sysclk/cy_sysclk.h **** *
 215:Generated_Source\PSoC6\pdl\drivers/peripheral/sysclk/cy_sysclk.h **** *   The ECO relies on the presence of an external crystal. The pins
 216:Generated_Source\PSoC6\pdl\drivers/peripheral/sysclk/cy_sysclk.h **** *   connected to this crystal must be configured to operate in analog
 217:Generated_Source\PSoC6\pdl\drivers/peripheral/sysclk/cy_sysclk.h **** *   drive mode with HSIOM connection set to GPIO control (HSIOM_SEL_GPIO).
 218:Generated_Source\PSoC6\pdl\drivers/peripheral/sysclk/cy_sysclk.h **** *
ARM GAS  C:\Users\gjl\AppData\Local\Temp\cc0COz1Y.s 			page 41


 219:Generated_Source\PSoC6\pdl\drivers/peripheral/sysclk/cy_sysclk.h **** *   \defgroup group_sysclk_eco_funcs       Functions
 220:Generated_Source\PSoC6\pdl\drivers/peripheral/sysclk/cy_sysclk.h **** * \}
 221:Generated_Source\PSoC6\pdl\drivers/peripheral/sysclk/cy_sysclk.h **** * \defgroup group_sysclk_path_src           Clock Path Source
 222:Generated_Source\PSoC6\pdl\drivers/peripheral/sysclk/cy_sysclk.h **** * \{
 223:Generated_Source\PSoC6\pdl\drivers/peripheral/sysclk/cy_sysclk.h **** *   Clock paths are a series of multiplexers that allow a source clock
 224:Generated_Source\PSoC6\pdl\drivers/peripheral/sysclk/cy_sysclk.h **** *   to drive multiple clocking resources down the chain. These paths are
 225:Generated_Source\PSoC6\pdl\drivers/peripheral/sysclk/cy_sysclk.h **** *   used for active domain clocks that are not operational during chip 
 226:Generated_Source\PSoC6\pdl\drivers/peripheral/sysclk/cy_sysclk.h **** *   deep-sleep, hibernate and off modes. Illustrated below is a diagram
 227:Generated_Source\PSoC6\pdl\drivers/peripheral/sysclk/cy_sysclk.h **** *   of the clock paths for the PSoC 63 series, showing the first three
 228:Generated_Source\PSoC6\pdl\drivers/peripheral/sysclk/cy_sysclk.h **** *   clock paths. The source clocks for these paths are highlighted in
 229:Generated_Source\PSoC6\pdl\drivers/peripheral/sysclk/cy_sysclk.h **** *   the red box.
 230:Generated_Source\PSoC6\pdl\drivers/peripheral/sysclk/cy_sysclk.h **** *
 231:Generated_Source\PSoC6\pdl\drivers/peripheral/sysclk/cy_sysclk.h **** *   - IMO: 8 MHz Internal Main Oscillator (Default)
 232:Generated_Source\PSoC6\pdl\drivers/peripheral/sysclk/cy_sysclk.h **** *   - EXTCLK: External clock (signal brought in through dedicated pins)
 233:Generated_Source\PSoC6\pdl\drivers/peripheral/sysclk/cy_sysclk.h **** *   - ECO: External Crystal Oscillator (requires external crystal on dedicated pins)
 234:Generated_Source\PSoC6\pdl\drivers/peripheral/sysclk/cy_sysclk.h **** *   - ALTHF: Select on-chip signals (e.g. BLE ECO)
 235:Generated_Source\PSoC6\pdl\drivers/peripheral/sysclk/cy_sysclk.h **** *   - Digital Signal (DSI): Digital signal from a UDB source
 236:Generated_Source\PSoC6\pdl\drivers/peripheral/sysclk/cy_sysclk.h **** *
 237:Generated_Source\PSoC6\pdl\drivers/peripheral/sysclk/cy_sysclk.h **** *   Some clock paths such as path 0 and path 1 have additional resources
 238:Generated_Source\PSoC6\pdl\drivers/peripheral/sysclk/cy_sysclk.h **** *   that can be utilized to provide a higher frequency clock. For example, 
 239:Generated_Source\PSoC6\pdl\drivers/peripheral/sysclk/cy_sysclk.h **** *   path 0 source clock can be used as the reference clock for the FLL and 
 240:Generated_Source\PSoC6\pdl\drivers/peripheral/sysclk/cy_sysclk.h **** *   path 1 source clock can be used as the reference clock for the PLL.
 241:Generated_Source\PSoC6\pdl\drivers/peripheral/sysclk/cy_sysclk.h **** *
 242:Generated_Source\PSoC6\pdl\drivers/peripheral/sysclk/cy_sysclk.h **** *   ![](sysclk_path_source.png)
 243:Generated_Source\PSoC6\pdl\drivers/peripheral/sysclk/cy_sysclk.h **** *
 244:Generated_Source\PSoC6\pdl\drivers/peripheral/sysclk/cy_sysclk.h **** *   \note The PDL driver cannot configure a clock path to use Digital Signal
 245:Generated_Source\PSoC6\pdl\drivers/peripheral/sysclk/cy_sysclk.h **** *   Interconnect (DSI) outputs as sources. This must be done through DSI
 246:Generated_Source\PSoC6\pdl\drivers/peripheral/sysclk/cy_sysclk.h **** *   configuration tool such as PSoC Creator.
 247:Generated_Source\PSoC6\pdl\drivers/peripheral/sysclk/cy_sysclk.h **** *
 248:Generated_Source\PSoC6\pdl\drivers/peripheral/sysclk/cy_sysclk.h **** *   \defgroup group_sysclk_path_src_funcs     Functions
 249:Generated_Source\PSoC6\pdl\drivers/peripheral/sysclk/cy_sysclk.h **** *   \defgroup group_sysclk_path_src_enums     Enumerated Types
 250:Generated_Source\PSoC6\pdl\drivers/peripheral/sysclk/cy_sysclk.h **** * \}
 251:Generated_Source\PSoC6\pdl\drivers/peripheral/sysclk/cy_sysclk.h **** * \defgroup group_sysclk_fll             Frequency Locked Loop (FLL)
 252:Generated_Source\PSoC6\pdl\drivers/peripheral/sysclk/cy_sysclk.h **** * \{
 253:Generated_Source\PSoC6\pdl\drivers/peripheral/sysclk/cy_sysclk.h **** *   The FLL is a clock generation circuit that can be used to produce a
 254:Generated_Source\PSoC6\pdl\drivers/peripheral/sysclk/cy_sysclk.h **** *   higher frequency clock from a reference clock. The output clock exhibits
 255:Generated_Source\PSoC6\pdl\drivers/peripheral/sysclk/cy_sysclk.h **** *   some characteristics of the reference clock such as the accuracy of the
 256:Generated_Source\PSoC6\pdl\drivers/peripheral/sysclk/cy_sysclk.h **** *   source. However other attributes such as the clock phase are not preserved.
 257:Generated_Source\PSoC6\pdl\drivers/peripheral/sysclk/cy_sysclk.h **** *   The FLL is similar in purpose to a (Phase locked loop) PLL but they are
 258:Generated_Source\PSoC6\pdl\drivers/peripheral/sysclk/cy_sysclk.h **** *   not equivalent.
 259:Generated_Source\PSoC6\pdl\drivers/peripheral/sysclk/cy_sysclk.h **** *
 260:Generated_Source\PSoC6\pdl\drivers/peripheral/sysclk/cy_sysclk.h **** *   - They may have different frequency ranges.
 261:Generated_Source\PSoC6\pdl\drivers/peripheral/sysclk/cy_sysclk.h **** *   - The FLL starts up (locks) faster and consumes less current than the PLL.
 262:Generated_Source\PSoC6\pdl\drivers/peripheral/sysclk/cy_sysclk.h **** *   - The FLL accepts a source clock with lower frequency than PLL, such as the WCO (32 KHz). 
 263:Generated_Source\PSoC6\pdl\drivers/peripheral/sysclk/cy_sysclk.h **** *   - The FLL does not lock phase. The hardware consist of a counter with a
 264:Generated_Source\PSoC6\pdl\drivers/peripheral/sysclk/cy_sysclk.h **** *     current-controlled oscillator (CCO). The counter counts the number of output
 265:Generated_Source\PSoC6\pdl\drivers/peripheral/sysclk/cy_sysclk.h **** *     clock edges in a reference clock period and adjusts the CCO until the
 266:Generated_Source\PSoC6\pdl\drivers/peripheral/sysclk/cy_sysclk.h **** *     expected ratio is achieved (locked). After initial lock, the CCO is
 267:Generated_Source\PSoC6\pdl\drivers/peripheral/sysclk/cy_sysclk.h **** *     adjusted dynamically to keep the ratio within tolerance. The lock tolerance
 268:Generated_Source\PSoC6\pdl\drivers/peripheral/sysclk/cy_sysclk.h **** *     is user-adjustable.
 269:Generated_Source\PSoC6\pdl\drivers/peripheral/sysclk/cy_sysclk.h **** *   ![](sysclk_fll.png)
 270:Generated_Source\PSoC6\pdl\drivers/peripheral/sysclk/cy_sysclk.h **** *
 271:Generated_Source\PSoC6\pdl\drivers/peripheral/sysclk/cy_sysclk.h **** *   The SysClk driver supports two models for configuring the FLL. The first
 272:Generated_Source\PSoC6\pdl\drivers/peripheral/sysclk/cy_sysclk.h **** *   model is to call the Cy_SysClk_FllConfigure() function, which calculates the 
 273:Generated_Source\PSoC6\pdl\drivers/peripheral/sysclk/cy_sysclk.h **** *   necessary parameters for the FLL at run-time. This may be necessary for dynamic
 274:Generated_Source\PSoC6\pdl\drivers/peripheral/sysclk/cy_sysclk.h **** *   run-time changes to the FLL. However this method is slow as it needs to perform 
 275:Generated_Source\PSoC6\pdl\drivers/peripheral/sysclk/cy_sysclk.h **** *   the calculation before configuring the FLL. The other model is to call 
ARM GAS  C:\Users\gjl\AppData\Local\Temp\cc0COz1Y.s 			page 42


 276:Generated_Source\PSoC6\pdl\drivers/peripheral/sysclk/cy_sysclk.h **** *   Cy_SysClk_FllManualConfigure() function with pre-calculated parameter values. 
 277:Generated_Source\PSoC6\pdl\drivers/peripheral/sysclk/cy_sysclk.h **** *   This method is faster but requires prior knowledge of the necessary parameters.
 278:Generated_Source\PSoC6\pdl\drivers/peripheral/sysclk/cy_sysclk.h **** *   Consult the device TRM for the FLL calculation equations.
 279:Generated_Source\PSoC6\pdl\drivers/peripheral/sysclk/cy_sysclk.h **** *
 280:Generated_Source\PSoC6\pdl\drivers/peripheral/sysclk/cy_sysclk.h **** *   \defgroup group_sysclk_fll_funcs       Functions
 281:Generated_Source\PSoC6\pdl\drivers/peripheral/sysclk/cy_sysclk.h **** *   \defgroup group_sysclk_fll_structs     Data Structures
 282:Generated_Source\PSoC6\pdl\drivers/peripheral/sysclk/cy_sysclk.h **** *   \defgroup group_sysclk_fll_enums       Enumerated Types
 283:Generated_Source\PSoC6\pdl\drivers/peripheral/sysclk/cy_sysclk.h **** * \}
 284:Generated_Source\PSoC6\pdl\drivers/peripheral/sysclk/cy_sysclk.h **** * \defgroup group_sysclk_pll             Phase Locked Loop (PLL)
 285:Generated_Source\PSoC6\pdl\drivers/peripheral/sysclk/cy_sysclk.h **** * \{
 286:Generated_Source\PSoC6\pdl\drivers/peripheral/sysclk/cy_sysclk.h **** *   The PLL is a clock generation circuit that can be used to produce a
 287:Generated_Source\PSoC6\pdl\drivers/peripheral/sysclk/cy_sysclk.h **** *   higher frequency clock from a reference clock. The output clock exhibits
 288:Generated_Source\PSoC6\pdl\drivers/peripheral/sysclk/cy_sysclk.h **** *   characteristics of the reference clock such as the accuracy of the source
 289:Generated_Source\PSoC6\pdl\drivers/peripheral/sysclk/cy_sysclk.h **** *   and its phase. The PLL is similar in purpose to a (Frequency locked loop) FLL
 290:Generated_Source\PSoC6\pdl\drivers/peripheral/sysclk/cy_sysclk.h **** *   but they are not equivalent.
 291:Generated_Source\PSoC6\pdl\drivers/peripheral/sysclk/cy_sysclk.h **** *
 292:Generated_Source\PSoC6\pdl\drivers/peripheral/sysclk/cy_sysclk.h **** *   - They may have different frequency ranges.
 293:Generated_Source\PSoC6\pdl\drivers/peripheral/sysclk/cy_sysclk.h **** *   - The PLL starts up more slowly and consumes more current than the FLL.
 294:Generated_Source\PSoC6\pdl\drivers/peripheral/sysclk/cy_sysclk.h **** *   - The PLL requires a higher frequency source clock than PLL. 
 295:Generated_Source\PSoC6\pdl\drivers/peripheral/sysclk/cy_sysclk.h **** *   ![](sysclk_pll.png)
 296:Generated_Source\PSoC6\pdl\drivers/peripheral/sysclk/cy_sysclk.h **** *
 297:Generated_Source\PSoC6\pdl\drivers/peripheral/sysclk/cy_sysclk.h **** *   The SysClk driver supports two models for configuring the PLL. The first
 298:Generated_Source\PSoC6\pdl\drivers/peripheral/sysclk/cy_sysclk.h **** *   model is to call the Cy_SysClk_PllConfigure() function, which calculates the 
 299:Generated_Source\PSoC6\pdl\drivers/peripheral/sysclk/cy_sysclk.h **** *   necessary parameters for the PLL at run-time. This may be necessary for dynamic
 300:Generated_Source\PSoC6\pdl\drivers/peripheral/sysclk/cy_sysclk.h **** *   run-time changes to the PLL. However this method is slow as it needs to perform 
 301:Generated_Source\PSoC6\pdl\drivers/peripheral/sysclk/cy_sysclk.h **** *   the calculation before configuring the PLL. The other model is to call 
 302:Generated_Source\PSoC6\pdl\drivers/peripheral/sysclk/cy_sysclk.h **** *   Cy_SysClk_PllManualConfigure() function with pre-calculated parameter values. 
 303:Generated_Source\PSoC6\pdl\drivers/peripheral/sysclk/cy_sysclk.h **** *   This method is faster but requires prior knowledge of the necessary parameters.
 304:Generated_Source\PSoC6\pdl\drivers/peripheral/sysclk/cy_sysclk.h **** *   Consult the device TRM for the PLL calculation equations.
 305:Generated_Source\PSoC6\pdl\drivers/peripheral/sysclk/cy_sysclk.h **** *
 306:Generated_Source\PSoC6\pdl\drivers/peripheral/sysclk/cy_sysclk.h **** *   \defgroup group_sysclk_pll_funcs       Functions
 307:Generated_Source\PSoC6\pdl\drivers/peripheral/sysclk/cy_sysclk.h **** *   \defgroup group_sysclk_pll_structs     Data Structures
 308:Generated_Source\PSoC6\pdl\drivers/peripheral/sysclk/cy_sysclk.h **** * \}
 309:Generated_Source\PSoC6\pdl\drivers/peripheral/sysclk/cy_sysclk.h **** * \defgroup group_sysclk_ilo             Internal Low-Speed Oscillator (ILO)
 310:Generated_Source\PSoC6\pdl\drivers/peripheral/sysclk/cy_sysclk.h **** * \{
 311:Generated_Source\PSoC6\pdl\drivers/peripheral/sysclk/cy_sysclk.h **** *   The ILO operates with no external components and outputs a stable clock at
 312:Generated_Source\PSoC6\pdl\drivers/peripheral/sysclk/cy_sysclk.h **** *   32.768 kHz nominal. The ILO is relatively low power and low accuracy. It is 
 313:Generated_Source\PSoC6\pdl\drivers/peripheral/sysclk/cy_sysclk.h **** *   available in all power modes and can be used as a source for the Backup domain clock.
 314:Generated_Source\PSoC6\pdl\drivers/peripheral/sysclk/cy_sysclk.h **** *   ![](sysclk_backup.png)
 315:Generated_Source\PSoC6\pdl\drivers/peripheral/sysclk/cy_sysclk.h **** *
 316:Generated_Source\PSoC6\pdl\drivers/peripheral/sysclk/cy_sysclk.h **** *   To ensure the ILO remains active in Hibernate mode, and across power-on-reset
 317:Generated_Source\PSoC6\pdl\drivers/peripheral/sysclk/cy_sysclk.h **** *   (POR) or brown out detect (BOD), firmware must call Cy_SysClk_IloHibernateOn(). 
 318:Generated_Source\PSoC6\pdl\drivers/peripheral/sysclk/cy_sysclk.h **** *
 319:Generated_Source\PSoC6\pdl\drivers/peripheral/sysclk/cy_sysclk.h **** *   Additionally, the ILO clock can be trimmed to +/- 1.5% of nominal frequency using
 320:Generated_Source\PSoC6\pdl\drivers/peripheral/sysclk/cy_sysclk.h **** *   a higher precision clock source. Use the \ref group_sysclk_calclk API to measure 
 321:Generated_Source\PSoC6\pdl\drivers/peripheral/sysclk/cy_sysclk.h **** *   the current ILO frequency before trimming.
 322:Generated_Source\PSoC6\pdl\drivers/peripheral/sysclk/cy_sysclk.h **** *
 323:Generated_Source\PSoC6\pdl\drivers/peripheral/sysclk/cy_sysclk.h **** *   \note The ILO is always the source clock for the \ref group_wdt. Therefore:
 324:Generated_Source\PSoC6\pdl\drivers/peripheral/sysclk/cy_sysclk.h **** *   - The WDT must be unlocked when making an ILO function call in the PDL
 325:Generated_Source\PSoC6\pdl\drivers/peripheral/sysclk/cy_sysclk.h **** *   - It is recommended to always have the ILO enabled
 326:Generated_Source\PSoC6\pdl\drivers/peripheral/sysclk/cy_sysclk.h **** *
 327:Generated_Source\PSoC6\pdl\drivers/peripheral/sysclk/cy_sysclk.h **** *   \defgroup group_sysclk_ilo_funcs       Functions
 328:Generated_Source\PSoC6\pdl\drivers/peripheral/sysclk/cy_sysclk.h **** * \}
 329:Generated_Source\PSoC6\pdl\drivers/peripheral/sysclk/cy_sysclk.h **** * \defgroup group_sysclk_pilo            Precision Internal Low-Speed Oscillator (PILO)
 330:Generated_Source\PSoC6\pdl\drivers/peripheral/sysclk/cy_sysclk.h **** * \{
 331:Generated_Source\PSoC6\pdl\drivers/peripheral/sysclk/cy_sysclk.h **** *   PILO provides a higher accuracy 32.768 kHz clock than the \ref group_sysclk_ilo "ILO".
 332:Generated_Source\PSoC6\pdl\drivers/peripheral/sysclk/cy_sysclk.h **** *   When periodically calibrated using a high-accuracy clock such as the
ARM GAS  C:\Users\gjl\AppData\Local\Temp\cc0COz1Y.s 			page 43


 333:Generated_Source\PSoC6\pdl\drivers/peripheral/sysclk/cy_sysclk.h **** *   \ref group_sysclk_eco "ECO", the PILO can achieve 250 ppm accuracy of nominal frequency.
 334:Generated_Source\PSoC6\pdl\drivers/peripheral/sysclk/cy_sysclk.h **** *   The PILO is capable of operating in device Active, Sleep and Deep-Sleep power modes. 
 335:Generated_Source\PSoC6\pdl\drivers/peripheral/sysclk/cy_sysclk.h **** *   It is not available in Hibernate mode.
 336:Generated_Source\PSoC6\pdl\drivers/peripheral/sysclk/cy_sysclk.h **** *
 337:Generated_Source\PSoC6\pdl\drivers/peripheral/sysclk/cy_sysclk.h **** *   The PILO can be used as a source for the \ref group_sysclk_clk_lf. However,
 338:Generated_Source\PSoC6\pdl\drivers/peripheral/sysclk/cy_sysclk.h **** *   because PILO is disabled in Hibernate mode, RTC timers cannot operate in this mode
 339:Generated_Source\PSoC6\pdl\drivers/peripheral/sysclk/cy_sysclk.h **** *   when clocked using the PILO. Instead, either the \ref group_sysclk_ilo "ILO" or
 340:Generated_Source\PSoC6\pdl\drivers/peripheral/sysclk/cy_sysclk.h **** *   \ref group_sysclk_wco "WCO" should be used when hibernate operation is required. 
 341:Generated_Source\PSoC6\pdl\drivers/peripheral/sysclk/cy_sysclk.h **** *
 342:Generated_Source\PSoC6\pdl\drivers/peripheral/sysclk/cy_sysclk.h **** *   ![](sysclk_backup.png)
 343:Generated_Source\PSoC6\pdl\drivers/peripheral/sysclk/cy_sysclk.h **** *
 344:Generated_Source\PSoC6\pdl\drivers/peripheral/sysclk/cy_sysclk.h **** *   Periodic calibration to a high-accuracy clock (such as ECO) is required to
 345:Generated_Source\PSoC6\pdl\drivers/peripheral/sysclk/cy_sysclk.h **** *   maintain accuracy. The application should use the functions described in the 
 346:Generated_Source\PSoC6\pdl\drivers/peripheral/sysclk/cy_sysclk.h **** *   \ref group_sysclk_calclk API to measure the current PILO frequency before trimming.
 347:Generated_Source\PSoC6\pdl\drivers/peripheral/sysclk/cy_sysclk.h **** *
 348:Generated_Source\PSoC6\pdl\drivers/peripheral/sysclk/cy_sysclk.h **** *   \defgroup group_sysclk_pilo_funcs      Functions
 349:Generated_Source\PSoC6\pdl\drivers/peripheral/sysclk/cy_sysclk.h **** * \}
 350:Generated_Source\PSoC6\pdl\drivers/peripheral/sysclk/cy_sysclk.h **** * \defgroup group_sysclk_calclk          Clock Measurement
 351:Generated_Source\PSoC6\pdl\drivers/peripheral/sysclk/cy_sysclk.h **** * \{
 352:Generated_Source\PSoC6\pdl\drivers/peripheral/sysclk/cy_sysclk.h **** *   These functions measure the frequency of a specified clock relative to a
 353:Generated_Source\PSoC6\pdl\drivers/peripheral/sysclk/cy_sysclk.h **** *   reference clock. They are typically called in the following order:
 354:Generated_Source\PSoC6\pdl\drivers/peripheral/sysclk/cy_sysclk.h **** *
 355:Generated_Source\PSoC6\pdl\drivers/peripheral/sysclk/cy_sysclk.h **** *   1. Specify the measured clock, the count, and the reference clock
 356:Generated_Source\PSoC6\pdl\drivers/peripheral/sysclk/cy_sysclk.h **** *   2. Start the counters
 357:Generated_Source\PSoC6\pdl\drivers/peripheral/sysclk/cy_sysclk.h **** *   3. Wait for the measurement counter to finish counting
 358:Generated_Source\PSoC6\pdl\drivers/peripheral/sysclk/cy_sysclk.h **** *   4. Retrieve the measured frequency
 359:Generated_Source\PSoC6\pdl\drivers/peripheral/sysclk/cy_sysclk.h **** *
 360:Generated_Source\PSoC6\pdl\drivers/peripheral/sysclk/cy_sysclk.h **** *   \note These functions may also be used as part of a clock trimming
 361:Generated_Source\PSoC6\pdl\drivers/peripheral/sysclk/cy_sysclk.h **** *   process. Refer to the \ref group_sysclk_trim "Clock Trim" API.
 362:Generated_Source\PSoC6\pdl\drivers/peripheral/sysclk/cy_sysclk.h **** *
 363:Generated_Source\PSoC6\pdl\drivers/peripheral/sysclk/cy_sysclk.h **** *   \defgroup group_sysclk_calclk_funcs    Functions
 364:Generated_Source\PSoC6\pdl\drivers/peripheral/sysclk/cy_sysclk.h **** *   \defgroup group_sysclk_calclk_enums    Enumerated Types
 365:Generated_Source\PSoC6\pdl\drivers/peripheral/sysclk/cy_sysclk.h **** * \}
 366:Generated_Source\PSoC6\pdl\drivers/peripheral/sysclk/cy_sysclk.h **** * \defgroup group_sysclk_trim            Clock Trim (ILO, PILO)
 367:Generated_Source\PSoC6\pdl\drivers/peripheral/sysclk/cy_sysclk.h **** * \{
 368:Generated_Source\PSoC6\pdl\drivers/peripheral/sysclk/cy_sysclk.h **** *   These functions perform a single trim operation on the ILO or PILO. Each
 369:Generated_Source\PSoC6\pdl\drivers/peripheral/sysclk/cy_sysclk.h **** *   function's parameter is the actual frequency of the clock. To measure the
 370:Generated_Source\PSoC6\pdl\drivers/peripheral/sysclk/cy_sysclk.h **** *   frequency, use the functions described in the \ref group_sysclk_calclk API.
 371:Generated_Source\PSoC6\pdl\drivers/peripheral/sysclk/cy_sysclk.h **** *
 372:Generated_Source\PSoC6\pdl\drivers/peripheral/sysclk/cy_sysclk.h **** *   To trim the clock as close as possible to the target frequency, multiple
 373:Generated_Source\PSoC6\pdl\drivers/peripheral/sysclk/cy_sysclk.h **** *   calls to the trim function may be needed. A typical usage example is to:
 374:Generated_Source\PSoC6\pdl\drivers/peripheral/sysclk/cy_sysclk.h **** *   1. Call the clock measurement functions to get the actual frequency of the clock
 375:Generated_Source\PSoC6\pdl\drivers/peripheral/sysclk/cy_sysclk.h **** *   2. Call the trim function, passing in the measured frequency
 376:Generated_Source\PSoC6\pdl\drivers/peripheral/sysclk/cy_sysclk.h **** *   3. Repeat the above until the trim function reports that the clock is trimmed to within limits.
 377:Generated_Source\PSoC6\pdl\drivers/peripheral/sysclk/cy_sysclk.h **** *
 378:Generated_Source\PSoC6\pdl\drivers/peripheral/sysclk/cy_sysclk.h **** *   \defgroup group_sysclk_trim_funcs      Functions
 379:Generated_Source\PSoC6\pdl\drivers/peripheral/sysclk/cy_sysclk.h **** * \}
 380:Generated_Source\PSoC6\pdl\drivers/peripheral/sysclk/cy_sysclk.h **** * \defgroup group_sysclk_pm              Low Power Callback
 381:Generated_Source\PSoC6\pdl\drivers/peripheral/sysclk/cy_sysclk.h **** * \{
 382:Generated_Source\PSoC6\pdl\drivers/peripheral/sysclk/cy_sysclk.h **** *   Entering and exiting low power modes require compatible clock configurations
 383:Generated_Source\PSoC6\pdl\drivers/peripheral/sysclk/cy_sysclk.h **** *   to be set before entering low power and restored upon wake-up and exit. The
 384:Generated_Source\PSoC6\pdl\drivers/peripheral/sysclk/cy_sysclk.h **** *   SysClk driver provides a Cy_SysClk_DeepSleepCallback() function to support
 385:Generated_Source\PSoC6\pdl\drivers/peripheral/sysclk/cy_sysclk.h **** *   deep-sleep mode entry. 
 386:Generated_Source\PSoC6\pdl\drivers/peripheral/sysclk/cy_sysclk.h **** *
 387:Generated_Source\PSoC6\pdl\drivers/peripheral/sysclk/cy_sysclk.h **** *   This function can be called either by itself before initiating low-power mode
 388:Generated_Source\PSoC6\pdl\drivers/peripheral/sysclk/cy_sysclk.h **** *   entry or it can be used in conjunction with the SysPm driver as a registered 
 389:Generated_Source\PSoC6\pdl\drivers/peripheral/sysclk/cy_sysclk.h **** *   callback. To do so, register this function as a callback before calling 
ARM GAS  C:\Users\gjl\AppData\Local\Temp\cc0COz1Y.s 			page 44


 390:Generated_Source\PSoC6\pdl\drivers/peripheral/sysclk/cy_sysclk.h **** *   Cy_SysPm_DeepSleep(). Specify \ref CY_SYSPM_DEEPSLEEP as the callback type, 
 391:Generated_Source\PSoC6\pdl\drivers/peripheral/sysclk/cy_sysclk.h **** *   and call Cy_SysPm_RegisterCallback().
 392:Generated_Source\PSoC6\pdl\drivers/peripheral/sysclk/cy_sysclk.h **** *   
 393:Generated_Source\PSoC6\pdl\drivers/peripheral/sysclk/cy_sysclk.h **** *   \note If the FLL or PLL source is the ECO, this function must be called.
 394:Generated_Source\PSoC6\pdl\drivers/peripheral/sysclk/cy_sysclk.h **** *
 395:Generated_Source\PSoC6\pdl\drivers/peripheral/sysclk/cy_sysclk.h **** *   \defgroup group_sysclk_pm_funcs        Functions
 396:Generated_Source\PSoC6\pdl\drivers/peripheral/sysclk/cy_sysclk.h **** * \}
 397:Generated_Source\PSoC6\pdl\drivers/peripheral/sysclk/cy_sysclk.h **** * \defgroup group_sysclk_wco             Watch Crystal Oscillator (WCO)
 398:Generated_Source\PSoC6\pdl\drivers/peripheral/sysclk/cy_sysclk.h **** * \{
 399:Generated_Source\PSoC6\pdl\drivers/peripheral/sysclk/cy_sysclk.h **** *   The WCO is a highly accurate 32.768 kHz clock source capable of operating
 400:Generated_Source\PSoC6\pdl\drivers/peripheral/sysclk/cy_sysclk.h **** *   in all power modes (excluding the Off mode). It is the primary clock source for
 401:Generated_Source\PSoC6\pdl\drivers/peripheral/sysclk/cy_sysclk.h **** *   the backup domain clock, which is used by the real-time clock (RTC). The 
 402:Generated_Source\PSoC6\pdl\drivers/peripheral/sysclk/cy_sysclk.h **** *   WCO can also be used as a source for the low-frequency clock to support other
 403:Generated_Source\PSoC6\pdl\drivers/peripheral/sysclk/cy_sysclk.h **** *   low power mode peripherals.
 404:Generated_Source\PSoC6\pdl\drivers/peripheral/sysclk/cy_sysclk.h **** *
 405:Generated_Source\PSoC6\pdl\drivers/peripheral/sysclk/cy_sysclk.h **** *   ![](sysclk_backup.png)
 406:Generated_Source\PSoC6\pdl\drivers/peripheral/sysclk/cy_sysclk.h **** *
 407:Generated_Source\PSoC6\pdl\drivers/peripheral/sysclk/cy_sysclk.h **** *   The WCO requires the configuration of the dedicated WCO pins (SRSS_WCO_IN_PIN,
 408:Generated_Source\PSoC6\pdl\drivers/peripheral/sysclk/cy_sysclk.h **** *   SRSS_WCO_OUT_PIN). These must be configured as Analog Hi-Z drive modes and the
 409:Generated_Source\PSoC6\pdl\drivers/peripheral/sysclk/cy_sysclk.h **** *   HSIOM selection set to GPIO. The WCO can also be used in bypass mode, where
 410:Generated_Source\PSoC6\pdl\drivers/peripheral/sysclk/cy_sysclk.h **** *   an external 32.768 kHz square wave is brought in directly through the 
 411:Generated_Source\PSoC6\pdl\drivers/peripheral/sysclk/cy_sysclk.h **** *   SRSS_WCO_OUT_PIN pin.
 412:Generated_Source\PSoC6\pdl\drivers/peripheral/sysclk/cy_sysclk.h **** *
 413:Generated_Source\PSoC6\pdl\drivers/peripheral/sysclk/cy_sysclk.h **** *   Some devices support a built-in clock supervisor (CSV) in the WCO. The clock
 414:Generated_Source\PSoC6\pdl\drivers/peripheral/sysclk/cy_sysclk.h **** *   supervisor detects if the WCO has been lost; that is, the WCO is no longer 
 415:Generated_Source\PSoC6\pdl\drivers/peripheral/sysclk/cy_sysclk.h **** *   producing clock pulses. The CSV does this by checking to ensure there is at 
 416:Generated_Source\PSoC6\pdl\drivers/peripheral/sysclk/cy_sysclk.h **** *   least one WCO clock pulse within a certain time window. The ILO or PILO can be
 417:Generated_Source\PSoC6\pdl\drivers/peripheral/sysclk/cy_sysclk.h **** *   the supervising clock. Firmware can configure the CSV to trigger a fault,
 418:Generated_Source\PSoC6\pdl\drivers/peripheral/sysclk/cy_sysclk.h **** *   a reset, or both after specified cycles of the supervising clock.
 419:Generated_Source\PSoC6\pdl\drivers/peripheral/sysclk/cy_sysclk.h **** *
 420:Generated_Source\PSoC6\pdl\drivers/peripheral/sysclk/cy_sysclk.h **** *   \defgroup group_sysclk_wco_funcs       Functions
 421:Generated_Source\PSoC6\pdl\drivers/peripheral/sysclk/cy_sysclk.h **** *   \defgroup group_sysclk_wco_structs     Data Structures
 422:Generated_Source\PSoC6\pdl\drivers/peripheral/sysclk/cy_sysclk.h **** *   \defgroup group_sysclk_wco_enums       Enumerated Types
 423:Generated_Source\PSoC6\pdl\drivers/peripheral/sysclk/cy_sysclk.h **** * \}
 424:Generated_Source\PSoC6\pdl\drivers/peripheral/sysclk/cy_sysclk.h **** * \defgroup group_sysclk_clk_hf          High-Frequency Clocks
 425:Generated_Source\PSoC6\pdl\drivers/peripheral/sysclk/cy_sysclk.h **** * \{
 426:Generated_Source\PSoC6\pdl\drivers/peripheral/sysclk/cy_sysclk.h **** *   Multiple high frequency clocks (CLK_HF) are available in the device. For example,
 427:Generated_Source\PSoC6\pdl\drivers/peripheral/sysclk/cy_sysclk.h **** *   PSoC 63 series has five high-frequency root clocks. Each CLK_HF has a particular
 428:Generated_Source\PSoC6\pdl\drivers/peripheral/sysclk/cy_sysclk.h **** *   connection and chip-specific destination on the device.
 429:Generated_Source\PSoC6\pdl\drivers/peripheral/sysclk/cy_sysclk.h **** *
 430:Generated_Source\PSoC6\pdl\drivers/peripheral/sysclk/cy_sysclk.h **** *   |Name     |Description                                             |
 431:Generated_Source\PSoC6\pdl\drivers/peripheral/sysclk/cy_sysclk.h **** *   |:--------|:-------------------------------------------------------|
 432:Generated_Source\PSoC6\pdl\drivers/peripheral/sysclk/cy_sysclk.h **** *   |CLK_HF[0]| Root clock for CPUs, PERI, and AHB infrastructure      |
 433:Generated_Source\PSoC6\pdl\drivers/peripheral/sysclk/cy_sysclk.h **** *   |CLK_HF[1]| Root clock for the PDM/PCM and I2S audio subsystem     |
 434:Generated_Source\PSoC6\pdl\drivers/peripheral/sysclk/cy_sysclk.h **** *   |CLK_HF[2]| Root clock for the Serial Memory Interface subsystem   |
 435:Generated_Source\PSoC6\pdl\drivers/peripheral/sysclk/cy_sysclk.h **** *   |CLK_HF[3]| Root clock for USB communications                      |
 436:Generated_Source\PSoC6\pdl\drivers/peripheral/sysclk/cy_sysclk.h **** *   |CLK_HF[4]| Clock output on clk_ext pin (when used as an output)   |
 437:Generated_Source\PSoC6\pdl\drivers/peripheral/sysclk/cy_sysclk.h **** *
 438:Generated_Source\PSoC6\pdl\drivers/peripheral/sysclk/cy_sysclk.h **** *   ![](sysclk_hf.png)
 439:Generated_Source\PSoC6\pdl\drivers/peripheral/sysclk/cy_sysclk.h **** *   
 440:Generated_Source\PSoC6\pdl\drivers/peripheral/sysclk/cy_sysclk.h **** *   High frequency clocks are sourced by path clocks, which should be configured
 441:Generated_Source\PSoC6\pdl\drivers/peripheral/sysclk/cy_sysclk.h **** *   first. An exception to this rule is CLK_HF[0], which cannot be disabled. 
 442:Generated_Source\PSoC6\pdl\drivers/peripheral/sysclk/cy_sysclk.h **** *   This divided clock drives the core processors and the peripherals in the system.
 443:Generated_Source\PSoC6\pdl\drivers/peripheral/sysclk/cy_sysclk.h **** *   In order to update its clock source, CLK_HF[0] source must be selected without
 444:Generated_Source\PSoC6\pdl\drivers/peripheral/sysclk/cy_sysclk.h **** *   disabling the clock.
 445:Generated_Source\PSoC6\pdl\drivers/peripheral/sysclk/cy_sysclk.h **** *
 446:Generated_Source\PSoC6\pdl\drivers/peripheral/sysclk/cy_sysclk.h **** *   ![](sysclk_hf_dist.png)
ARM GAS  C:\Users\gjl\AppData\Local\Temp\cc0COz1Y.s 			page 45


 447:Generated_Source\PSoC6\pdl\drivers/peripheral/sysclk/cy_sysclk.h **** *
 448:Generated_Source\PSoC6\pdl\drivers/peripheral/sysclk/cy_sysclk.h **** *   Some devices support a clock supervisor (CSV) for each root clock. These
 449:Generated_Source\PSoC6\pdl\drivers/peripheral/sysclk/cy_sysclk.h **** *   can detect frequency loss, or monitor that the clock frequency stays within
 450:Generated_Source\PSoC6\pdl\drivers/peripheral/sysclk/cy_sysclk.h **** *   a specified range. The possible supervising clocks are IMO, ECO, or ALTHF. 
 451:Generated_Source\PSoC6\pdl\drivers/peripheral/sysclk/cy_sysclk.h **** *   Loss detection and frequency monitoring can be enabled or disabled independently.
 452:Generated_Source\PSoC6\pdl\drivers/peripheral/sysclk/cy_sysclk.h **** *   Each has its own programmable action that occurs on detection of an error.
 453:Generated_Source\PSoC6\pdl\drivers/peripheral/sysclk/cy_sysclk.h **** *
 454:Generated_Source\PSoC6\pdl\drivers/peripheral/sysclk/cy_sysclk.h **** *   \defgroup group_sysclk_clk_hf_funcs    Functions
 455:Generated_Source\PSoC6\pdl\drivers/peripheral/sysclk/cy_sysclk.h **** *   \defgroup group_sysclk_clk_hf_structs  Data Structures
 456:Generated_Source\PSoC6\pdl\drivers/peripheral/sysclk/cy_sysclk.h **** *   \defgroup group_sysclk_clk_hf_enums    Enumerated Types
 457:Generated_Source\PSoC6\pdl\drivers/peripheral/sysclk/cy_sysclk.h **** * \}
 458:Generated_Source\PSoC6\pdl\drivers/peripheral/sysclk/cy_sysclk.h **** * \defgroup group_sysclk_clk_fast        Fast Clock
 459:Generated_Source\PSoC6\pdl\drivers/peripheral/sysclk/cy_sysclk.h **** * \{
 460:Generated_Source\PSoC6\pdl\drivers/peripheral/sysclk/cy_sysclk.h **** *   The fast clock drives the "fast" processor (e.g. Cortex-M4 processor in PSoC 6).
 461:Generated_Source\PSoC6\pdl\drivers/peripheral/sysclk/cy_sysclk.h **** *   This clock is sourced by CLK_HF[0] (\ref group_sysclk_clk_hf "HF Clocks").
 462:Generated_Source\PSoC6\pdl\drivers/peripheral/sysclk/cy_sysclk.h **** *   A divider value of 1~256 can be used to further divide the CLK_HF[0] to a
 463:Generated_Source\PSoC6\pdl\drivers/peripheral/sysclk/cy_sysclk.h **** *   desired clock speed for the processor.
 464:Generated_Source\PSoC6\pdl\drivers/peripheral/sysclk/cy_sysclk.h **** *
 465:Generated_Source\PSoC6\pdl\drivers/peripheral/sysclk/cy_sysclk.h **** *   ![](sysclk_fast.png)
 466:Generated_Source\PSoC6\pdl\drivers/peripheral/sysclk/cy_sysclk.h **** *
 467:Generated_Source\PSoC6\pdl\drivers/peripheral/sysclk/cy_sysclk.h **** *   \defgroup group_sysclk_clk_fast_funcs  Functions
 468:Generated_Source\PSoC6\pdl\drivers/peripheral/sysclk/cy_sysclk.h **** * \}
 469:Generated_Source\PSoC6\pdl\drivers/peripheral/sysclk/cy_sysclk.h **** * \defgroup group_sysclk_clk_peri        Peripheral Clock
 470:Generated_Source\PSoC6\pdl\drivers/peripheral/sysclk/cy_sysclk.h **** * \{
 471:Generated_Source\PSoC6\pdl\drivers/peripheral/sysclk/cy_sysclk.h **** *   The peripheral clock is a divided clock of CLK_HF0 (\ref group_sysclk_clk_hf "HF Clocks").
 472:Generated_Source\PSoC6\pdl\drivers/peripheral/sysclk/cy_sysclk.h **** *   It is the source clock for the \ref group_sysclk_clk_slow, and most active domain
 473:Generated_Source\PSoC6\pdl\drivers/peripheral/sysclk/cy_sysclk.h **** *   peripheral clocks (\ref group_sysclk_clk_peripheral). A divider value of 1~256 
 474:Generated_Source\PSoC6\pdl\drivers/peripheral/sysclk/cy_sysclk.h **** *   can be used to further divide the CLK_HF[0] to a desired clock speed for the peripherals.
 475:Generated_Source\PSoC6\pdl\drivers/peripheral/sysclk/cy_sysclk.h **** *
 476:Generated_Source\PSoC6\pdl\drivers/peripheral/sysclk/cy_sysclk.h **** *   ![](sysclk_peri.png)
 477:Generated_Source\PSoC6\pdl\drivers/peripheral/sysclk/cy_sysclk.h **** *
 478:Generated_Source\PSoC6\pdl\drivers/peripheral/sysclk/cy_sysclk.h **** *   \defgroup group_sysclk_clk_peri_funcs  Functions
 479:Generated_Source\PSoC6\pdl\drivers/peripheral/sysclk/cy_sysclk.h **** * \}
 480:Generated_Source\PSoC6\pdl\drivers/peripheral/sysclk/cy_sysclk.h **** * \defgroup group_sysclk_clk_peripheral  Peripherals Clock Dividers
 481:Generated_Source\PSoC6\pdl\drivers/peripheral/sysclk/cy_sysclk.h **** * \{
 482:Generated_Source\PSoC6\pdl\drivers/peripheral/sysclk/cy_sysclk.h **** *   There are multiple peripheral clock dividers that, in effect, create 
 483:Generated_Source\PSoC6\pdl\drivers/peripheral/sysclk/cy_sysclk.h **** *   multiple separate peripheral clocks. The available dividers vary per device 
 484:Generated_Source\PSoC6\pdl\drivers/peripheral/sysclk/cy_sysclk.h **** *   series. As an example, for the PSoC 63 series there are 29 dividers:
 485:Generated_Source\PSoC6\pdl\drivers/peripheral/sysclk/cy_sysclk.h **** *
 486:Generated_Source\PSoC6\pdl\drivers/peripheral/sysclk/cy_sysclk.h **** *   - eight 8-bit dividers
 487:Generated_Source\PSoC6\pdl\drivers/peripheral/sysclk/cy_sysclk.h **** *   - sixteen 16-bit dividers
 488:Generated_Source\PSoC6\pdl\drivers/peripheral/sysclk/cy_sysclk.h **** *   - four fractional 16.5-bit dividers (16 integer bits, 5 fractional bits)
 489:Generated_Source\PSoC6\pdl\drivers/peripheral/sysclk/cy_sysclk.h **** *   - one fractional 24.5-bit divider (24 integer bits, 5 fractional bits)
 490:Generated_Source\PSoC6\pdl\drivers/peripheral/sysclk/cy_sysclk.h **** *
 491:Generated_Source\PSoC6\pdl\drivers/peripheral/sysclk/cy_sysclk.h **** *   The five fractional bits supports further precision in 1/32nd increments. For
 492:Generated_Source\PSoC6\pdl\drivers/peripheral/sysclk/cy_sysclk.h **** *   example, a divider with an integer value of 3 and a fractional value of
 493:Generated_Source\PSoC6\pdl\drivers/peripheral/sysclk/cy_sysclk.h **** *   4 (4/32) results in a divider of 3.125. Fractional dividers are useful when
 494:Generated_Source\PSoC6\pdl\drivers/peripheral/sysclk/cy_sysclk.h **** *   a high-precision clock is required, for example, for a UART/SPI serial
 495:Generated_Source\PSoC6\pdl\drivers/peripheral/sysclk/cy_sysclk.h **** *   interface.
 496:Generated_Source\PSoC6\pdl\drivers/peripheral/sysclk/cy_sysclk.h **** *
 497:Generated_Source\PSoC6\pdl\drivers/peripheral/sysclk/cy_sysclk.h **** *   ![](sysclk_peri_divs.png)
 498:Generated_Source\PSoC6\pdl\drivers/peripheral/sysclk/cy_sysclk.h **** *
 499:Generated_Source\PSoC6\pdl\drivers/peripheral/sysclk/cy_sysclk.h **** *   Each peripheral can connect to any one of the programmable dividers. A
 500:Generated_Source\PSoC6\pdl\drivers/peripheral/sysclk/cy_sysclk.h **** *   particular peripheral clock divider can drive multiple peripherals.
 501:Generated_Source\PSoC6\pdl\drivers/peripheral/sysclk/cy_sysclk.h **** *   
 502:Generated_Source\PSoC6\pdl\drivers/peripheral/sysclk/cy_sysclk.h **** *   The SysClk driver also supports phase aligning two peripheral clock dividers using
 503:Generated_Source\PSoC6\pdl\drivers/peripheral/sysclk/cy_sysclk.h **** *   Cy_SysClk_PeriphEnablePhaseAlignDivider(). Alignment works for both integer
ARM GAS  C:\Users\gjl\AppData\Local\Temp\cc0COz1Y.s 			page 46


 504:Generated_Source\PSoC6\pdl\drivers/peripheral/sysclk/cy_sysclk.h **** *   and fractional dividers. The divider to which a second divider is aligned
 505:Generated_Source\PSoC6\pdl\drivers/peripheral/sysclk/cy_sysclk.h **** *   must already be enabled.
 506:Generated_Source\PSoC6\pdl\drivers/peripheral/sysclk/cy_sysclk.h **** *
 507:Generated_Source\PSoC6\pdl\drivers/peripheral/sysclk/cy_sysclk.h **** *   \defgroup group_sysclk_clk_peripheral_funcs Functions
 508:Generated_Source\PSoC6\pdl\drivers/peripheral/sysclk/cy_sysclk.h **** *   \defgroup group_sysclk_clk_peripheral_enums Enumerated Types
 509:Generated_Source\PSoC6\pdl\drivers/peripheral/sysclk/cy_sysclk.h **** * \}
 510:Generated_Source\PSoC6\pdl\drivers/peripheral/sysclk/cy_sysclk.h **** * \defgroup group_sysclk_clk_slow        Slow Clock
 511:Generated_Source\PSoC6\pdl\drivers/peripheral/sysclk/cy_sysclk.h **** * \{
 512:Generated_Source\PSoC6\pdl\drivers/peripheral/sysclk/cy_sysclk.h **** *   The slow clock is the source clock for the "slow" processor (e.g. Cortex-M0+ in PSoC 6).
 513:Generated_Source\PSoC6\pdl\drivers/peripheral/sysclk/cy_sysclk.h **** *   This clock is a divided version of the \ref group_sysclk_clk_peri, which in turn is 
 514:Generated_Source\PSoC6\pdl\drivers/peripheral/sysclk/cy_sysclk.h **** *   a divided version of CLK_HF[0] (\ref group_sysclk_clk_hf "HF Clocks"). A divider 
 515:Generated_Source\PSoC6\pdl\drivers/peripheral/sysclk/cy_sysclk.h **** *   value of 1~256 can be used to further divide the Peri clock to a desired clock speed
 516:Generated_Source\PSoC6\pdl\drivers/peripheral/sysclk/cy_sysclk.h **** *   for the processor.
 517:Generated_Source\PSoC6\pdl\drivers/peripheral/sysclk/cy_sysclk.h **** *
 518:Generated_Source\PSoC6\pdl\drivers/peripheral/sysclk/cy_sysclk.h **** *   ![](sysclk_slow.png)
 519:Generated_Source\PSoC6\pdl\drivers/peripheral/sysclk/cy_sysclk.h **** *
 520:Generated_Source\PSoC6\pdl\drivers/peripheral/sysclk/cy_sysclk.h **** *   \defgroup group_sysclk_clk_slow_funcs  Functions
 521:Generated_Source\PSoC6\pdl\drivers/peripheral/sysclk/cy_sysclk.h **** * \}
 522:Generated_Source\PSoC6\pdl\drivers/peripheral/sysclk/cy_sysclk.h **** * \defgroup group_sysclk_clk_lf          Low-Frequency Clock
 523:Generated_Source\PSoC6\pdl\drivers/peripheral/sysclk/cy_sysclk.h **** * \{
 524:Generated_Source\PSoC6\pdl\drivers/peripheral/sysclk/cy_sysclk.h **** *   The low-frequency clock is the source clock for the \ref group_mcwdt
 525:Generated_Source\PSoC6\pdl\drivers/peripheral/sysclk/cy_sysclk.h **** *   and can be the source clock for \ref group_sysclk_clk_bak, which drives the
 526:Generated_Source\PSoC6\pdl\drivers/peripheral/sysclk/cy_sysclk.h **** *   \ref group_rtc.
 527:Generated_Source\PSoC6\pdl\drivers/peripheral/sysclk/cy_sysclk.h **** *   
 528:Generated_Source\PSoC6\pdl\drivers/peripheral/sysclk/cy_sysclk.h **** *   The low-frequency clock has three possible source clocks:
 529:Generated_Source\PSoC6\pdl\drivers/peripheral/sysclk/cy_sysclk.h **** *   \ref group_sysclk_ilo "ILO", \ref group_sysclk_pilo "PILO", and
 530:Generated_Source\PSoC6\pdl\drivers/peripheral/sysclk/cy_sysclk.h **** *   \ref group_sysclk_wco "WCO".
 531:Generated_Source\PSoC6\pdl\drivers/peripheral/sysclk/cy_sysclk.h **** *
 532:Generated_Source\PSoC6\pdl\drivers/peripheral/sysclk/cy_sysclk.h **** *   ![](sysclk_lf.png)
 533:Generated_Source\PSoC6\pdl\drivers/peripheral/sysclk/cy_sysclk.h **** *
 534:Generated_Source\PSoC6\pdl\drivers/peripheral/sysclk/cy_sysclk.h **** *   \defgroup group_sysclk_clk_lf_funcs    Functions
 535:Generated_Source\PSoC6\pdl\drivers/peripheral/sysclk/cy_sysclk.h **** *   \defgroup group_sysclk_clk_lf_enums    Enumerated Types
 536:Generated_Source\PSoC6\pdl\drivers/peripheral/sysclk/cy_sysclk.h **** * \}
 537:Generated_Source\PSoC6\pdl\drivers/peripheral/sysclk/cy_sysclk.h **** * \defgroup group_sysclk_clk_timer       Timer Clock
 538:Generated_Source\PSoC6\pdl\drivers/peripheral/sysclk/cy_sysclk.h **** * \{
 539:Generated_Source\PSoC6\pdl\drivers/peripheral/sysclk/cy_sysclk.h **** *   The timer clock can be a source for the alternative clock driving 
 540:Generated_Source\PSoC6\pdl\drivers/peripheral/sysclk/cy_sysclk.h **** *   the \ref group_arm_system_timer. It can also be used as a reference clock 
 541:Generated_Source\PSoC6\pdl\drivers/peripheral/sysclk/cy_sysclk.h **** *   for a counter in the \ref group_energy_profiler "Energy Profiler".
 542:Generated_Source\PSoC6\pdl\drivers/peripheral/sysclk/cy_sysclk.h **** *   
 543:Generated_Source\PSoC6\pdl\drivers/peripheral/sysclk/cy_sysclk.h **** *   The timer clock is a divided clock of either the IMO or CLK_HF[0]
 544:Generated_Source\PSoC6\pdl\drivers/peripheral/sysclk/cy_sysclk.h **** *   (\ref group_sysclk_clk_hf "HF Clocks").
 545:Generated_Source\PSoC6\pdl\drivers/peripheral/sysclk/cy_sysclk.h **** *
 546:Generated_Source\PSoC6\pdl\drivers/peripheral/sysclk/cy_sysclk.h **** *   \defgroup group_sysclk_clk_timer_funcs Functions
 547:Generated_Source\PSoC6\pdl\drivers/peripheral/sysclk/cy_sysclk.h **** *   \defgroup group_sysclk_clk_timer_enums Enumerated Types
 548:Generated_Source\PSoC6\pdl\drivers/peripheral/sysclk/cy_sysclk.h **** * \}
 549:Generated_Source\PSoC6\pdl\drivers/peripheral/sysclk/cy_sysclk.h **** * \defgroup group_sysclk_clk_pump        Pump Clock
 550:Generated_Source\PSoC6\pdl\drivers/peripheral/sysclk/cy_sysclk.h **** * \{
 551:Generated_Source\PSoC6\pdl\drivers/peripheral/sysclk/cy_sysclk.h **** *   The pump clock is a clock source used to provide analog precision in low voltage
 552:Generated_Source\PSoC6\pdl\drivers/peripheral/sysclk/cy_sysclk.h **** *   applications. Depedning on the usage scenario, it may be required to drive the
 553:Generated_Source\PSoC6\pdl\drivers/peripheral/sysclk/cy_sysclk.h **** *   internal voltage pump for the Continuous Time Block mini (CTBm) in the analog 
 554:Generated_Source\PSoC6\pdl\drivers/peripheral/sysclk/cy_sysclk.h **** *   subsystem. The pump clock is a divided clock of one of the clock paths 
 555:Generated_Source\PSoC6\pdl\drivers/peripheral/sysclk/cy_sysclk.h **** *   (\ref group_sysclk_path_src).
 556:Generated_Source\PSoC6\pdl\drivers/peripheral/sysclk/cy_sysclk.h **** *
 557:Generated_Source\PSoC6\pdl\drivers/peripheral/sysclk/cy_sysclk.h **** *   \defgroup group_sysclk_clk_pump_funcs  Functions
 558:Generated_Source\PSoC6\pdl\drivers/peripheral/sysclk/cy_sysclk.h **** *   \defgroup group_sysclk_clk_pump_enums  Enumerated Types
 559:Generated_Source\PSoC6\pdl\drivers/peripheral/sysclk/cy_sysclk.h **** * \}
 560:Generated_Source\PSoC6\pdl\drivers/peripheral/sysclk/cy_sysclk.h **** * \defgroup group_sysclk_clk_bak         Backup Domain Clock
ARM GAS  C:\Users\gjl\AppData\Local\Temp\cc0COz1Y.s 			page 47


 561:Generated_Source\PSoC6\pdl\drivers/peripheral/sysclk/cy_sysclk.h **** * \{
 562:Generated_Source\PSoC6\pdl\drivers/peripheral/sysclk/cy_sysclk.h **** *   The backup domain clock drives the \ref group_rtc.
 563:Generated_Source\PSoC6\pdl\drivers/peripheral/sysclk/cy_sysclk.h **** *   This clock has two possible source clocks: \ref group_sysclk_wco "WCO"
 564:Generated_Source\PSoC6\pdl\drivers/peripheral/sysclk/cy_sysclk.h **** *   or the \ref group_sysclk_clk_lf. In turn the low frequency clock is sourced by
 565:Generated_Source\PSoC6\pdl\drivers/peripheral/sysclk/cy_sysclk.h **** *   \ref group_sysclk_ilo "ILO", \ref group_sysclk_pilo "PILO", or
 566:Generated_Source\PSoC6\pdl\drivers/peripheral/sysclk/cy_sysclk.h **** *   \ref group_sysclk_wco "WCO". Typically the ILO is not suitable as an RTC source,
 567:Generated_Source\PSoC6\pdl\drivers/peripheral/sysclk/cy_sysclk.h **** *   because of its low accuracy. However the ILO does operate in hibernate mode and
