ARM GAS  C:\Users\gjl\AppData\Local\Temp\ccYWElnH.s 			page 1


   1              		.syntax unified
   2              		.cpu cortex-m4
   3              		.eabi_attribute 27, 1
   4              		.fpu fpv4-sp-d16
   5              		.eabi_attribute 20, 1
   6              		.eabi_attribute 21, 1
   7              		.eabi_attribute 23, 3
   8              		.eabi_attribute 24, 1
   9              		.eabi_attribute 25, 1
  10              		.eabi_attribute 26, 1
  11              		.eabi_attribute 30, 1
  12              		.eabi_attribute 34, 1
  13              		.eabi_attribute 18, 4
  14              		.thumb
  15              		.syntax unified
  16              		.file	"cy_ble_gap.c"
  17              		.text
  18              	.Ltext0:
  19              		.cfi_sections	.debug_frame
  20              		.section	.text.Cy_BLE_ServiceInit,"ax",%progbits
  21              		.align	2
  22              		.global	Cy_BLE_ServiceInit
  23              		.thumb
  24              		.thumb_func
  25              		.type	Cy_BLE_ServiceInit, %function
  26              	Cy_BLE_ServiceInit:
  27              	.LFB286:
  28              		.file 1 "Generated_Source\\PSoC6\\pdl\\middleware\\ble\\cy_ble_gap.c"
   1:Generated_Source\PSoC6\pdl\middleware\ble/cy_ble_gap.c **** /***************************************************************************//**
   2:Generated_Source\PSoC6\pdl\middleware\ble/cy_ble_gap.c **** * \file cy_ble_gap.c
   3:Generated_Source\PSoC6\pdl\middleware\ble/cy_ble_gap.c **** * \version 2.0
   4:Generated_Source\PSoC6\pdl\middleware\ble/cy_ble_gap.c **** *
   5:Generated_Source\PSoC6\pdl\middleware\ble/cy_ble_gap.c **** * \brief
   6:Generated_Source\PSoC6\pdl\middleware\ble/cy_ble_gap.c **** *  This file contains the source code for the GAP API of the BLE Middleware.
   7:Generated_Source\PSoC6\pdl\middleware\ble/cy_ble_gap.c **** *
   8:Generated_Source\PSoC6\pdl\middleware\ble/cy_ble_gap.c **** ********************************************************************************
   9:Generated_Source\PSoC6\pdl\middleware\ble/cy_ble_gap.c **** * \copyright
  10:Generated_Source\PSoC6\pdl\middleware\ble/cy_ble_gap.c **** * Copyright 2017-2018, Cypress Semiconductor Corporation.  All rights reserved.
  11:Generated_Source\PSoC6\pdl\middleware\ble/cy_ble_gap.c **** * You may use this file only in accordance with the license, terms, conditions,
  12:Generated_Source\PSoC6\pdl\middleware\ble/cy_ble_gap.c **** * disclaimers, and limitations in the end user license agreement accompanying
  13:Generated_Source\PSoC6\pdl\middleware\ble/cy_ble_gap.c **** * the software package with which this file was provided.
  14:Generated_Source\PSoC6\pdl\middleware\ble/cy_ble_gap.c **** *******************************************************************************/
  15:Generated_Source\PSoC6\pdl\middleware\ble/cy_ble_gap.c **** 
  16:Generated_Source\PSoC6\pdl\middleware\ble/cy_ble_gap.c **** #include "cy_ble_event_handler.h"
  17:Generated_Source\PSoC6\pdl\middleware\ble/cy_ble_gap.c **** /* C binding of definitions if building with C++ compiler */
  18:Generated_Source\PSoC6\pdl\middleware\ble/cy_ble_gap.c **** #ifdef __cplusplus
  19:Generated_Source\PSoC6\pdl\middleware\ble/cy_ble_gap.c **** extern "C" {
  20:Generated_Source\PSoC6\pdl\middleware\ble/cy_ble_gap.c **** #endif /* __cplusplus */
  21:Generated_Source\PSoC6\pdl\middleware\ble/cy_ble_gap.c **** 
  22:Generated_Source\PSoC6\pdl\middleware\ble/cy_ble_gap.c **** #if (CY_BLE_MODE_PROFILE)
  23:Generated_Source\PSoC6\pdl\middleware\ble/cy_ble_gap.c **** 
  24:Generated_Source\PSoC6\pdl\middleware\ble/cy_ble_gap.c **** #include "cy_ble.h"
  25:Generated_Source\PSoC6\pdl\middleware\ble/cy_ble_gap.c **** #include "cy_ble_hal_pvt.h"
  26:Generated_Source\PSoC6\pdl\middleware\ble/cy_ble_gap.c **** #include <stdlib.h>
  27:Generated_Source\PSoC6\pdl\middleware\ble/cy_ble_gap.c **** 
  28:Generated_Source\PSoC6\pdl\middleware\ble/cy_ble_gap.c **** /***************************************
  29:Generated_Source\PSoC6\pdl\middleware\ble/cy_ble_gap.c **** * Function Prototypes
ARM GAS  C:\Users\gjl\AppData\Local\Temp\ccYWElnH.s 			page 2


  30:Generated_Source\PSoC6\pdl\middleware\ble/cy_ble_gap.c **** ***************************************/
  31:Generated_Source\PSoC6\pdl\middleware\ble/cy_ble_gap.c **** 
  32:Generated_Source\PSoC6\pdl\middleware\ble/cy_ble_gap.c **** #if (CY_BLE_GATT_ROLE_SERVER)
  33:Generated_Source\PSoC6\pdl\middleware\ble/cy_ble_gap.c ****     #if (CY_BLE_GAP_ROLE_PERIPHERAL)
  34:Generated_Source\PSoC6\pdl\middleware\ble/cy_ble_gap.c **** static void Cy_BLE_ChangeAdLocalName(const char8 name[], uint8_t dest);
  35:Generated_Source\PSoC6\pdl\middleware\ble/cy_ble_gap.c ****     #endif /* (CY_BLE_GAP_ROLE_PERIPHERAL) */
  36:Generated_Source\PSoC6\pdl\middleware\ble/cy_ble_gap.c **** #endif     /* (CY_BLE_GATT_ROLE_SERVER) */
  37:Generated_Source\PSoC6\pdl\middleware\ble/cy_ble_gap.c **** 
  38:Generated_Source\PSoC6\pdl\middleware\ble/cy_ble_gap.c **** 
  39:Generated_Source\PSoC6\pdl\middleware\ble/cy_ble_gap.c **** /***************************************
  40:Generated_Source\PSoC6\pdl\middleware\ble/cy_ble_gap.c **** * Global Variables
  41:Generated_Source\PSoC6\pdl\middleware\ble/cy_ble_gap.c **** ***************************************/
  42:Generated_Source\PSoC6\pdl\middleware\ble/cy_ble_gap.c **** 
  43:Generated_Source\PSoC6\pdl\middleware\ble/cy_ble_gap.c **** cy_en_ble_state_t cy_ble_state;
  44:Generated_Source\PSoC6\pdl\middleware\ble/cy_ble_gap.c **** 
  45:Generated_Source\PSoC6\pdl\middleware\ble/cy_ble_gap.c **** #if (CY_BLE_GAP_ROLE_PERIPHERAL || CY_BLE_GAP_ROLE_BROADCASTER)
  46:Generated_Source\PSoC6\pdl\middleware\ble/cy_ble_gap.c **** cy_en_ble_adv_state_t cy_ble_advState;
  47:Generated_Source\PSoC6\pdl\middleware\ble/cy_ble_gap.c **** uint8_t cy_ble_advIndex;
  48:Generated_Source\PSoC6\pdl\middleware\ble/cy_ble_gap.c **** #endif  /* (CY_BLE_GAP_ROLE_PERIPHERAL || CY_BLE_GAP_ROLE_BROADCASTER) */
  49:Generated_Source\PSoC6\pdl\middleware\ble/cy_ble_gap.c **** 
  50:Generated_Source\PSoC6\pdl\middleware\ble/cy_ble_gap.c **** #if (CY_BLE_GAP_ROLE_CENTRAL || CY_BLE_GAP_ROLE_OBSERVER)
  51:Generated_Source\PSoC6\pdl\middleware\ble/cy_ble_gap.c **** cy_en_ble_scan_state_t cy_ble_scanState;
  52:Generated_Source\PSoC6\pdl\middleware\ble/cy_ble_gap.c **** uint8_t cy_ble_scanIndex;
  53:Generated_Source\PSoC6\pdl\middleware\ble/cy_ble_gap.c **** #endif /* (CY_BLE_GAP_ROLE_CENTRAL || CY_BLE_GAP_ROLE_OBSERVER) */
  54:Generated_Source\PSoC6\pdl\middleware\ble/cy_ble_gap.c **** 
  55:Generated_Source\PSoC6\pdl\middleware\ble/cy_ble_gap.c **** #if ((CY_BLE_GAP_ROLE_PERIPHERAL || CY_BLE_GAP_ROLE_CENTRAL))
  56:Generated_Source\PSoC6\pdl\middleware\ble/cy_ble_gap.c **** 
  57:Generated_Source\PSoC6\pdl\middleware\ble/cy_ble_gap.c **** /**
  58:Generated_Source\PSoC6\pdl\middleware\ble/cy_ble_gap.c ****  * \addtogroup group_ble_common_api_global_variables
  59:Generated_Source\PSoC6\pdl\middleware\ble/cy_ble_gap.c ****  * @{
  60:Generated_Source\PSoC6\pdl\middleware\ble/cy_ble_gap.c ****  */    
  61:Generated_Source\PSoC6\pdl\middleware\ble/cy_ble_gap.c **** /** 
  62:Generated_Source\PSoC6\pdl\middleware\ble/cy_ble_gap.c ****  * This global variable is initialized after connection with peer device,
  63:Generated_Source\PSoC6\pdl\middleware\ble/cy_ble_gap.c ****  * after CY_BLE_EVT_GATT_CONNECT_IND event, and could be used by application code
  64:Generated_Source\PSoC6\pdl\middleware\ble/cy_ble_gap.c ****  * to send data to peer device.
  65:Generated_Source\PSoC6\pdl\middleware\ble/cy_ble_gap.c ****  */
  66:Generated_Source\PSoC6\pdl\middleware\ble/cy_ble_gap.c **** cy_stc_ble_conn_handle_t cy_ble_connHandle[CY_BLE_CONN_COUNT];
  67:Generated_Source\PSoC6\pdl\middleware\ble/cy_ble_gap.c **** /** @} group_ble_common_api_global_variables */
  68:Generated_Source\PSoC6\pdl\middleware\ble/cy_ble_gap.c **** 
  69:Generated_Source\PSoC6\pdl\middleware\ble/cy_ble_gap.c **** cy_en_ble_conn_state_t cy_ble_connState[CY_BLE_CONN_COUNT];
  70:Generated_Source\PSoC6\pdl\middleware\ble/cy_ble_gap.c **** 
  71:Generated_Source\PSoC6\pdl\middleware\ble/cy_ble_gap.c **** volatile uint8_t cy_ble_devConnRole[CY_BLE_CONN_COUNT] = {0u}; /* Store information that device con
  72:Generated_Source\PSoC6\pdl\middleware\ble/cy_ble_gap.c ****                                                                 * CY_BLE_GAP_LL_ROLE_SLAVE or CY_BL
  73:Generated_Source\PSoC6\pdl\middleware\ble/cy_ble_gap.c ****                                                                 */
  74:Generated_Source\PSoC6\pdl\middleware\ble/cy_ble_gap.c **** 
  75:Generated_Source\PSoC6\pdl\middleware\ble/cy_ble_gap.c **** volatile bool cy_ble_pairStatus[CY_BLE_CONN_COUNT] = {false};  /* Store information is device paire
  76:Generated_Source\PSoC6\pdl\middleware\ble/cy_ble_gap.c **** 
  77:Generated_Source\PSoC6\pdl\middleware\ble/cy_ble_gap.c **** #if (CY_BLE_BONDING_REQUIREMENT == CY_BLE_BONDING_YES)
  78:Generated_Source\PSoC6\pdl\middleware\ble/cy_ble_gap.c **** uint8_t cy_ble_peerBonding[CY_BLE_CONN_COUNT];
  79:Generated_Source\PSoC6\pdl\middleware\ble/cy_ble_gap.c **** uint8_t cy_ble_pendingFlashWrite;
  80:Generated_Source\PSoC6\pdl\middleware\ble/cy_ble_gap.c **** 
  81:Generated_Source\PSoC6\pdl\middleware\ble/cy_ble_gap.c **** #if (CY_BLE_GATT_DB_CCCD_COUNT != 0u)
  82:Generated_Source\PSoC6\pdl\middleware\ble/cy_ble_gap.c **** static uint8_t cy_ble_pendingFlashClearCccdHandle;
  83:Generated_Source\PSoC6\pdl\middleware\ble/cy_ble_gap.c **** #endif /* CY_BLE_GATT_DB_CCCD_COUNT != 0u */
  84:Generated_Source\PSoC6\pdl\middleware\ble/cy_ble_gap.c **** 
  85:Generated_Source\PSoC6\pdl\middleware\ble/cy_ble_gap.c **** #endif /* (CY_BLE_BONDING_REQUIREMENT == CY_BLE_BONDING_YES) */
  86:Generated_Source\PSoC6\pdl\middleware\ble/cy_ble_gap.c **** #endif /* (CY_BLE_BONDING_REQUIREMENT == CY_BLE_BONDING_YES) */
ARM GAS  C:\Users\gjl\AppData\Local\Temp\ccYWElnH.s 			page 3


  87:Generated_Source\PSoC6\pdl\middleware\ble/cy_ble_gap.c **** 
  88:Generated_Source\PSoC6\pdl\middleware\ble/cy_ble_gap.c **** #if (CY_BLE_GAP_ROLE_CENTRAL)
  89:Generated_Source\PSoC6\pdl\middleware\ble/cy_ble_gap.c **** 
  90:Generated_Source\PSoC6\pdl\middleware\ble/cy_ble_gap.c **** cy_stc_ble_gapc_conn_info_t cy_ble_connectionParameters;
  91:Generated_Source\PSoC6\pdl\middleware\ble/cy_ble_gap.c **** 
  92:Generated_Source\PSoC6\pdl\middleware\ble/cy_ble_gap.c **** /* Connecting timeout is set to 30 seconds in Cy_BLE_Init function.
  93:Generated_Source\PSoC6\pdl\middleware\ble/cy_ble_gap.c ****  * Not zero value starts timer in Cy_BLE_GAPC_ConnectDevice().
  94:Generated_Source\PSoC6\pdl\middleware\ble/cy_ble_gap.c ****  */
  95:Generated_Source\PSoC6\pdl\middleware\ble/cy_ble_gap.c **** cy_stc_ble_timer_info_t cy_ble_connectingTimeout;
  96:Generated_Source\PSoC6\pdl\middleware\ble/cy_ble_gap.c **** 
  97:Generated_Source\PSoC6\pdl\middleware\ble/cy_ble_gap.c **** #endif /* CY_BLE_GAP_ROLE_CENTRAL */
  98:Generated_Source\PSoC6\pdl\middleware\ble/cy_ble_gap.c **** 
  99:Generated_Source\PSoC6\pdl\middleware\ble/cy_ble_gap.c **** cy_stc_ble_gap_bd_addr_t * cy_ble_sflashDeviceAddress = CY_BLE_SFLASH_DEVICE_ADDRESS_PTR;
 100:Generated_Source\PSoC6\pdl\middleware\ble/cy_ble_gap.c **** 
 101:Generated_Source\PSoC6\pdl\middleware\ble/cy_ble_gap.c **** 
 102:Generated_Source\PSoC6\pdl\middleware\ble/cy_ble_gap.c **** 
 103:Generated_Source\PSoC6\pdl\middleware\ble/cy_ble_gap.c **** /******************************************************************************
 104:Generated_Source\PSoC6\pdl\middleware\ble/cy_ble_gap.c **** * Function Name: Cy_BLE_ServiceInit
 105:Generated_Source\PSoC6\pdl\middleware\ble/cy_ble_gap.c **** ***************************************************************************//**
 106:Generated_Source\PSoC6\pdl\middleware\ble/cy_ble_gap.c **** *
 107:Generated_Source\PSoC6\pdl\middleware\ble/cy_ble_gap.c **** *  Initializes all included services.
 108:Generated_Source\PSoC6\pdl\middleware\ble/cy_ble_gap.c **** *
 109:Generated_Source\PSoC6\pdl\middleware\ble/cy_ble_gap.c **** * \return
 110:Generated_Source\PSoC6\pdl\middleware\ble/cy_ble_gap.c **** *  None
 111:Generated_Source\PSoC6\pdl\middleware\ble/cy_ble_gap.c **** *
 112:Generated_Source\PSoC6\pdl\middleware\ble/cy_ble_gap.c **** ******************************************************************************/
 113:Generated_Source\PSoC6\pdl\middleware\ble/cy_ble_gap.c **** void Cy_BLE_ServiceInit(void)
 114:Generated_Source\PSoC6\pdl\middleware\ble/cy_ble_gap.c **** {
  29              		.loc 1 114 0
  30              		.cfi_startproc
  31              		@ args = 0, pretend = 0, frame = 0
  32              		@ frame_needed = 0, uses_anonymous_args = 0
  33 0000 08B5     		push	{r3, lr}
  34              		.cfi_def_cfa_offset 8
  35              		.cfi_offset 3, -8
  36              		.cfi_offset 14, -4
  37              	.LVL0:
 115:Generated_Source\PSoC6\pdl\middleware\ble/cy_ble_gap.c ****     #if (CY_BLE_GATT_ROLE_CLIENT)
 116:Generated_Source\PSoC6\pdl\middleware\ble/cy_ble_gap.c ****     uint32_t idx;
 117:Generated_Source\PSoC6\pdl\middleware\ble/cy_ble_gap.c ****     for(idx = 0u; idx < CY_BLE_GATTC_COUNT; idx++)
  38              		.loc 1 117 0
  39 0002 0023     		movs	r3, #0
  40 0004 35E0     		b	.L2
  41              	.LVL1:
  42              	.L5:
 118:Generated_Source\PSoC6\pdl\middleware\ble/cy_ble_gap.c ****     {
 119:Generated_Source\PSoC6\pdl\middleware\ble/cy_ble_gap.c ****         /* Check service range before clearing to support partial discovery */
 120:Generated_Source\PSoC6\pdl\middleware\ble/cy_ble_gap.c ****         if(cy_ble_serverInfo[idx][CY_BLE_SRVI_GAP].range.startHandle == CY_BLE_GATT_INVALID_ATTR_HA
  43              		.loc 1 120 0
  44 0006 03EBC301 		add	r1, r3, r3, lsl #3
  45 000a 4A00     		lsls	r2, r1, #1
  46 000c 1C49     		ldr	r1, .L7
  47 000e 8A5A     		ldrh	r2, [r1, r2]
  48 0010 AAB9     		cbnz	r2, .L3
 121:Generated_Source\PSoC6\pdl\middleware\ble/cy_ble_gap.c ****         {
 122:Generated_Source\PSoC6\pdl\middleware\ble/cy_ble_gap.c ****             (void)memset(&cy_ble_discovery[idx].gapc, 0, sizeof(cy_stc_ble_gapc_t));
  49              		.loc 1 122 0
ARM GAS  C:\Users\gjl\AppData\Local\Temp\ccYWElnH.s 			page 4


  50 0012 03EB0312 		add	r2, r3, r3, lsl #4
  51 0016 9100     		lsls	r1, r2, #2
  52 0018 2031     		adds	r1, r1, #32
  53 001a 1A4A     		ldr	r2, .L7+4
  54 001c 1144     		add	r1, r1, r2
  55 001e 0022     		movs	r2, #0
  56 0020 C1F80620 		str	r2, [r1, #6]	@ unaligned
  57 0024 C1F80A20 		str	r2, [r1, #10]	@ unaligned
  58 0028 C1F80E20 		str	r2, [r1, #14]	@ unaligned
  59 002c 4A82     		strh	r2, [r1, #18]	@ unaligned
 123:Generated_Source\PSoC6\pdl\middleware\ble/cy_ble_gap.c **** 
 124:Generated_Source\PSoC6\pdl\middleware\ble/cy_ble_gap.c ****             /* Initialize UUID  */
 125:Generated_Source\PSoC6\pdl\middleware\ble/cy_ble_gap.c ****             cy_ble_serverInfo[idx][CY_BLE_SRVI_GAP].uuid = CY_BLE_UUID_GAP_SERVICE;
  60              		.loc 1 125 0
  61 002e 03EBC301 		add	r1, r3, r3, lsl #3
  62 0032 4A00     		lsls	r2, r1, #1
  63 0034 1249     		ldr	r1, .L7
  64 0036 0A44     		add	r2, r2, r1
  65 0038 4FF4C051 		mov	r1, #6144
  66 003c 9180     		strh	r1, [r2, #4]	@ movhi
  67              	.L3:
 126:Generated_Source\PSoC6\pdl\middleware\ble/cy_ble_gap.c ****         }
 127:Generated_Source\PSoC6\pdl\middleware\ble/cy_ble_gap.c **** 
 128:Generated_Source\PSoC6\pdl\middleware\ble/cy_ble_gap.c ****         /* Check service range before clearing to support partial discovery */
 129:Generated_Source\PSoC6\pdl\middleware\ble/cy_ble_gap.c ****         if(cy_ble_serverInfo[idx][CY_BLE_SRVI_GATT].range.startHandle == CY_BLE_GATT_INVALID_ATTR_H
  68              		.loc 1 129 0
  69 003e 03EBC301 		add	r1, r3, r3, lsl #3
  70 0042 4A00     		lsls	r2, r1, #1
  71 0044 0E49     		ldr	r1, .L7
  72 0046 0A44     		add	r2, r2, r1
  73 0048 D288     		ldrh	r2, [r2, #6]
  74 004a 8AB9     		cbnz	r2, .L4
 130:Generated_Source\PSoC6\pdl\middleware\ble/cy_ble_gap.c ****         {
 131:Generated_Source\PSoC6\pdl\middleware\ble/cy_ble_gap.c ****             (void)memset(&cy_ble_discovery[idx].gattc, 0, sizeof(cy_stc_ble_gattc_t));
  75              		.loc 1 131 0
  76 004c 03EB0311 		add	r1, r3, r3, lsl #4
  77 0050 8A00     		lsls	r2, r1, #2
  78 0052 02F13001 		add	r1, r2, #48
  79 0056 0B4A     		ldr	r2, .L7+4
  80 0058 0A44     		add	r2, r2, r1
  81 005a 0021     		movs	r1, #0
  82 005c 5160     		str	r1, [r2, #4]	@ unaligned
  83 005e 1181     		strh	r1, [r2, #8]	@ unaligned
 132:Generated_Source\PSoC6\pdl\middleware\ble/cy_ble_gap.c **** 
 133:Generated_Source\PSoC6\pdl\middleware\ble/cy_ble_gap.c ****             /* Initialize UUID  */
 134:Generated_Source\PSoC6\pdl\middleware\ble/cy_ble_gap.c ****             cy_ble_serverInfo[idx][CY_BLE_SRVI_GATT].uuid = CY_BLE_UUID_GATT_SERVICE;
  84              		.loc 1 134 0
  85 0060 03EBC301 		add	r1, r3, r3, lsl #3
  86 0064 4A00     		lsls	r2, r1, #1
  87 0066 0649     		ldr	r1, .L7
  88 0068 0A44     		add	r2, r2, r1
  89 006a 41F60101 		movw	r1, #6145
  90 006e 5181     		strh	r1, [r2, #10]	@ movhi
  91              	.L4:
 117:Generated_Source\PSoC6\pdl\middleware\ble/cy_ble_gap.c ****     {
  92              		.loc 1 117 0 discriminator 2
  93 0070 0133     		adds	r3, r3, #1
ARM GAS  C:\Users\gjl\AppData\Local\Temp\ccYWElnH.s 			page 5


  94              	.LVL2:
  95              	.L2:
 117:Generated_Source\PSoC6\pdl\middleware\ble/cy_ble_gap.c ****     {
  96              		.loc 1 117 0 is_stmt 0 discriminator 1
  97 0072 002B     		cmp	r3, #0
  98 0074 C7D0     		beq	.L5
 135:Generated_Source\PSoC6\pdl\middleware\ble/cy_ble_gap.c ****         }
 136:Generated_Source\PSoC6\pdl\middleware\ble/cy_ble_gap.c **** 
 137:Generated_Source\PSoC6\pdl\middleware\ble/cy_ble_gap.c ****         #ifdef CY_BLE_IPSS_CLIENT
 138:Generated_Source\PSoC6\pdl\middleware\ble/cy_ble_gap.c ****         cy_ble_serverInfo[idx][CY_BLE_SRVI_IPSS].uuid = CY_BLE_UUID_INTERNET_PROTOCOL_SUPPORT_SERVI
 139:Generated_Source\PSoC6\pdl\middleware\ble/cy_ble_gap.c ****         #endif /* CY_BLE_IPSS_CLIENT */
 140:Generated_Source\PSoC6\pdl\middleware\ble/cy_ble_gap.c ****     }
 141:Generated_Source\PSoC6\pdl\middleware\ble/cy_ble_gap.c ****     #endif     /* CY_BLE_GATT_ROLE_CLIENT */
 142:Generated_Source\PSoC6\pdl\middleware\ble/cy_ble_gap.c **** 
 143:Generated_Source\PSoC6\pdl\middleware\ble/cy_ble_gap.c ****     #ifdef CY_BLE_ANCS
 144:Generated_Source\PSoC6\pdl\middleware\ble/cy_ble_gap.c ****     (void)Cy_BLE_ANCS_Init(&cy_ble_ancsConfig);
 145:Generated_Source\PSoC6\pdl\middleware\ble/cy_ble_gap.c ****     #endif /* CY_BLE_ANCS */
 146:Generated_Source\PSoC6\pdl\middleware\ble/cy_ble_gap.c **** 
 147:Generated_Source\PSoC6\pdl\middleware\ble/cy_ble_gap.c ****     #ifdef CY_BLE_ANS
 148:Generated_Source\PSoC6\pdl\middleware\ble/cy_ble_gap.c ****     (void)Cy_BLE_ANS_Init(&cy_ble_ansConfig);
 149:Generated_Source\PSoC6\pdl\middleware\ble/cy_ble_gap.c ****     #endif /* CY_BLE_ANS */
 150:Generated_Source\PSoC6\pdl\middleware\ble/cy_ble_gap.c **** 
 151:Generated_Source\PSoC6\pdl\middleware\ble/cy_ble_gap.c ****     #ifdef CY_BLE_AIOS
 152:Generated_Source\PSoC6\pdl\middleware\ble/cy_ble_gap.c ****     (void)Cy_BLE_AIOS_Init(&cy_ble_aiosConfig);
 153:Generated_Source\PSoC6\pdl\middleware\ble/cy_ble_gap.c ****     #endif /* CY_BLE_AIOS */
 154:Generated_Source\PSoC6\pdl\middleware\ble/cy_ble_gap.c **** 
 155:Generated_Source\PSoC6\pdl\middleware\ble/cy_ble_gap.c ****     #ifdef CY_BLE_BAS
 156:Generated_Source\PSoC6\pdl\middleware\ble/cy_ble_gap.c ****     (void)Cy_BLE_BAS_Init(&cy_ble_basConfig);
 157:Generated_Source\PSoC6\pdl\middleware\ble/cy_ble_gap.c ****     #endif /* CY_BLE_BAS */
 158:Generated_Source\PSoC6\pdl\middleware\ble/cy_ble_gap.c **** 
 159:Generated_Source\PSoC6\pdl\middleware\ble/cy_ble_gap.c ****     #ifdef CY_BLE_BCS
 160:Generated_Source\PSoC6\pdl\middleware\ble/cy_ble_gap.c ****     (void)Cy_BLE_BCS_Init(&cy_ble_bcsConfig);
 161:Generated_Source\PSoC6\pdl\middleware\ble/cy_ble_gap.c ****     #endif /* CY_BLE_BCS */
 162:Generated_Source\PSoC6\pdl\middleware\ble/cy_ble_gap.c **** 
 163:Generated_Source\PSoC6\pdl\middleware\ble/cy_ble_gap.c ****     #ifdef CY_BLE_BLS
 164:Generated_Source\PSoC6\pdl\middleware\ble/cy_ble_gap.c ****     (void)Cy_BLE_BLS_Init(&cy_ble_blsConfig);
 165:Generated_Source\PSoC6\pdl\middleware\ble/cy_ble_gap.c ****     #endif /* CY_BLE_BLS */
 166:Generated_Source\PSoC6\pdl\middleware\ble/cy_ble_gap.c **** 
 167:Generated_Source\PSoC6\pdl\middleware\ble/cy_ble_gap.c ****     #ifdef CY_BLE_BMS
 168:Generated_Source\PSoC6\pdl\middleware\ble/cy_ble_gap.c ****     (void)Cy_BLE_BMS_Init(&cy_ble_bmsConfig);
 169:Generated_Source\PSoC6\pdl\middleware\ble/cy_ble_gap.c ****     #endif /* CY_BLE_BMS */
 170:Generated_Source\PSoC6\pdl\middleware\ble/cy_ble_gap.c **** 
 171:Generated_Source\PSoC6\pdl\middleware\ble/cy_ble_gap.c ****     #ifdef CY_BLE_BTS
 172:Generated_Source\PSoC6\pdl\middleware\ble/cy_ble_gap.c ****     (void)Cy_BLE_BTS_Init(&cy_ble_btsConfig);
 173:Generated_Source\PSoC6\pdl\middleware\ble/cy_ble_gap.c ****     #endif /* CY_BLE_BTS */
 174:Generated_Source\PSoC6\pdl\middleware\ble/cy_ble_gap.c **** 
 175:Generated_Source\PSoC6\pdl\middleware\ble/cy_ble_gap.c ****     #ifdef CY_BLE_CGMS
 176:Generated_Source\PSoC6\pdl\middleware\ble/cy_ble_gap.c ****     (void)Cy_BLE_CGMS_Init(&cy_ble_cgmsConfig);
 177:Generated_Source\PSoC6\pdl\middleware\ble/cy_ble_gap.c ****     #endif /* CY_BLE_CGMS */
 178:Generated_Source\PSoC6\pdl\middleware\ble/cy_ble_gap.c **** 
 179:Generated_Source\PSoC6\pdl\middleware\ble/cy_ble_gap.c ****     #ifdef CY_BLE_CPS
 180:Generated_Source\PSoC6\pdl\middleware\ble/cy_ble_gap.c ****     (void)Cy_BLE_CPS_Init(&cy_ble_cpsConfig);
 181:Generated_Source\PSoC6\pdl\middleware\ble/cy_ble_gap.c ****     #endif /* CY_BLE_CPS */
 182:Generated_Source\PSoC6\pdl\middleware\ble/cy_ble_gap.c **** 
 183:Generated_Source\PSoC6\pdl\middleware\ble/cy_ble_gap.c ****     #ifdef CY_BLE_CSCS
 184:Generated_Source\PSoC6\pdl\middleware\ble/cy_ble_gap.c ****     (void)Cy_BLE_CSCS_Init(&cy_ble_cscsConfig);
 185:Generated_Source\PSoC6\pdl\middleware\ble/cy_ble_gap.c ****     #endif /* CY_BLE_CSCS */
ARM GAS  C:\Users\gjl\AppData\Local\Temp\ccYWElnH.s 			page 6


 186:Generated_Source\PSoC6\pdl\middleware\ble/cy_ble_gap.c **** 
 187:Generated_Source\PSoC6\pdl\middleware\ble/cy_ble_gap.c ****     #ifdef CY_BLE_CTS
 188:Generated_Source\PSoC6\pdl\middleware\ble/cy_ble_gap.c ****     (void)Cy_BLE_CTS_Init(&cy_ble_ctsConfig);
 189:Generated_Source\PSoC6\pdl\middleware\ble/cy_ble_gap.c ****     #endif /* CY_BLE_CTS */
 190:Generated_Source\PSoC6\pdl\middleware\ble/cy_ble_gap.c **** 
 191:Generated_Source\PSoC6\pdl\middleware\ble/cy_ble_gap.c ****     #ifdef CY_BLE_CUSTOM
 192:Generated_Source\PSoC6\pdl\middleware\ble/cy_ble_gap.c ****     (void)Cy_BLE_CUSTOM_Init(&cy_ble_customConfig);
  99              		.loc 1 192 0 is_stmt 1
 100 0076 0448     		ldr	r0, .L7+8
 101 0078 FFF7FEFF 		bl	Cy_BLE_CUSTOM_Init
 102              	.LVL3:
 103 007c 08BD     		pop	{r3, pc}
 104              	.L8:
 105 007e 00BF     		.align	2
 106              	.L7:
 107 0080 00000000 		.word	cy_ble_serverInfo
 108 0084 00000000 		.word	cy_ble_discovery
 109 0088 00000000 		.word	cy_ble_customConfig
 110              		.cfi_endproc
 111              	.LFE286:
 112              		.size	Cy_BLE_ServiceInit, .-Cy_BLE_ServiceInit
 113              		.section	.text.Cy_BLE_StoreAppData,"ax",%progbits
 114              		.align	2
 115              		.global	Cy_BLE_StoreAppData
 116              		.thumb
 117              		.thumb_func
 118              		.type	Cy_BLE_StoreAppData, %function
 119              	Cy_BLE_StoreAppData:
 120              	.LFB287:
 193:Generated_Source\PSoC6\pdl\middleware\ble/cy_ble_gap.c ****     #endif /* CY_BLE_CUSTOM */
 194:Generated_Source\PSoC6\pdl\middleware\ble/cy_ble_gap.c **** 
 195:Generated_Source\PSoC6\pdl\middleware\ble/cy_ble_gap.c ****     #ifdef CY_BLE_DIS
 196:Generated_Source\PSoC6\pdl\middleware\ble/cy_ble_gap.c ****     (void)Cy_BLE_DIS_Init(&cy_ble_disConfig);
 197:Generated_Source\PSoC6\pdl\middleware\ble/cy_ble_gap.c ****     #endif /* CY_BLE_DIS */
 198:Generated_Source\PSoC6\pdl\middleware\ble/cy_ble_gap.c **** 
 199:Generated_Source\PSoC6\pdl\middleware\ble/cy_ble_gap.c ****     #ifdef CY_BLE_ESS
 200:Generated_Source\PSoC6\pdl\middleware\ble/cy_ble_gap.c ****     (void)Cy_BLE_ESS_Init(&cy_ble_essConfig);
 201:Generated_Source\PSoC6\pdl\middleware\ble/cy_ble_gap.c ****     #endif /* CY_BLE_ESS */
 202:Generated_Source\PSoC6\pdl\middleware\ble/cy_ble_gap.c **** 
 203:Generated_Source\PSoC6\pdl\middleware\ble/cy_ble_gap.c ****     #ifdef CY_BLE_GLS
 204:Generated_Source\PSoC6\pdl\middleware\ble/cy_ble_gap.c ****     (void)Cy_BLE_GLS_Init(&cy_ble_glsConfig);
 205:Generated_Source\PSoC6\pdl\middleware\ble/cy_ble_gap.c ****     #endif /* CY_BLE_GLS */
 206:Generated_Source\PSoC6\pdl\middleware\ble/cy_ble_gap.c **** 
 207:Generated_Source\PSoC6\pdl\middleware\ble/cy_ble_gap.c ****     #ifdef CY_BLE_HIDS
 208:Generated_Source\PSoC6\pdl\middleware\ble/cy_ble_gap.c ****     (void)Cy_BLE_HIDS_Init(&cy_ble_hidsConfig);
 209:Generated_Source\PSoC6\pdl\middleware\ble/cy_ble_gap.c ****     #endif /* CY_BLE_HIDS */
 210:Generated_Source\PSoC6\pdl\middleware\ble/cy_ble_gap.c **** 
 211:Generated_Source\PSoC6\pdl\middleware\ble/cy_ble_gap.c ****     #ifdef CY_BLE_HPS
 212:Generated_Source\PSoC6\pdl\middleware\ble/cy_ble_gap.c ****     (void)Cy_BLE_HPS_Init(&cy_ble_hpsConfig);
 213:Generated_Source\PSoC6\pdl\middleware\ble/cy_ble_gap.c ****     #endif /* CY_BLE_HPS */
 214:Generated_Source\PSoC6\pdl\middleware\ble/cy_ble_gap.c **** 
 215:Generated_Source\PSoC6\pdl\middleware\ble/cy_ble_gap.c ****     #ifdef CY_BLE_HRS
 216:Generated_Source\PSoC6\pdl\middleware\ble/cy_ble_gap.c ****     (void)Cy_BLE_HRS_Init(&cy_ble_hrsConfig);
 217:Generated_Source\PSoC6\pdl\middleware\ble/cy_ble_gap.c ****     #endif /* CY_BLE_HRS */
 218:Generated_Source\PSoC6\pdl\middleware\ble/cy_ble_gap.c **** 
 219:Generated_Source\PSoC6\pdl\middleware\ble/cy_ble_gap.c ****     #ifdef CY_BLE_HTS
 220:Generated_Source\PSoC6\pdl\middleware\ble/cy_ble_gap.c ****     (void)Cy_BLE_HTS_Init(&cy_ble_htsConfig);
ARM GAS  C:\Users\gjl\AppData\Local\Temp\ccYWElnH.s 			page 7


 221:Generated_Source\PSoC6\pdl\middleware\ble/cy_ble_gap.c ****     #endif /* CY_BLE_RSCS */
 222:Generated_Source\PSoC6\pdl\middleware\ble/cy_ble_gap.c **** 
 223:Generated_Source\PSoC6\pdl\middleware\ble/cy_ble_gap.c ****     #ifdef CY_BLE_IAS
 224:Generated_Source\PSoC6\pdl\middleware\ble/cy_ble_gap.c ****     (void)Cy_BLE_IAS_Init(&cy_ble_iasConfig);
 225:Generated_Source\PSoC6\pdl\middleware\ble/cy_ble_gap.c ****     #endif /* CY_BLE_IAS */
 226:Generated_Source\PSoC6\pdl\middleware\ble/cy_ble_gap.c **** 
 227:Generated_Source\PSoC6\pdl\middleware\ble/cy_ble_gap.c ****     #ifdef CY_BLE_IPS
 228:Generated_Source\PSoC6\pdl\middleware\ble/cy_ble_gap.c ****     (void)Cy_BLE_IPS_Init(&cy_ble_ipsConfig);
 229:Generated_Source\PSoC6\pdl\middleware\ble/cy_ble_gap.c ****     #endif /* CY_BLE_IPS */
 230:Generated_Source\PSoC6\pdl\middleware\ble/cy_ble_gap.c **** 
 231:Generated_Source\PSoC6\pdl\middleware\ble/cy_ble_gap.c ****     #ifdef CY_BLE_LLS
 232:Generated_Source\PSoC6\pdl\middleware\ble/cy_ble_gap.c ****     (void)Cy_BLE_LLS_Init(&cy_ble_llsConfig);
 233:Generated_Source\PSoC6\pdl\middleware\ble/cy_ble_gap.c ****     #endif /* CY_BLE_LLS */
 234:Generated_Source\PSoC6\pdl\middleware\ble/cy_ble_gap.c **** 
 235:Generated_Source\PSoC6\pdl\middleware\ble/cy_ble_gap.c ****     #ifdef CY_BLE_LNS
 236:Generated_Source\PSoC6\pdl\middleware\ble/cy_ble_gap.c ****     (void)Cy_BLE_LNS_Init(&cy_ble_lnsConfig);
 237:Generated_Source\PSoC6\pdl\middleware\ble/cy_ble_gap.c ****     #endif /* CY_BLE_LNS */
 238:Generated_Source\PSoC6\pdl\middleware\ble/cy_ble_gap.c **** 
 239:Generated_Source\PSoC6\pdl\middleware\ble/cy_ble_gap.c ****     #ifdef CY_BLE_NDCS
 240:Generated_Source\PSoC6\pdl\middleware\ble/cy_ble_gap.c ****     (void)Cy_BLE_NDCS_Init(&cy_ble_ndcsConfig);
 241:Generated_Source\PSoC6\pdl\middleware\ble/cy_ble_gap.c ****     #endif /* CY_BLE_NDCS */
 242:Generated_Source\PSoC6\pdl\middleware\ble/cy_ble_gap.c **** 
 243:Generated_Source\PSoC6\pdl\middleware\ble/cy_ble_gap.c ****     #ifdef CY_BLE_PASS
 244:Generated_Source\PSoC6\pdl\middleware\ble/cy_ble_gap.c ****     (void)Cy_BLE_PASS_Init(&cy_ble_passConfig);
 245:Generated_Source\PSoC6\pdl\middleware\ble/cy_ble_gap.c ****     #endif /* CY_BLE_PASS */
 246:Generated_Source\PSoC6\pdl\middleware\ble/cy_ble_gap.c **** 
 247:Generated_Source\PSoC6\pdl\middleware\ble/cy_ble_gap.c ****     #ifdef CY_BLE_RSCS
 248:Generated_Source\PSoC6\pdl\middleware\ble/cy_ble_gap.c ****     (void)Cy_BLE_RSCS_Init(&cy_ble_rscsConfig);
 249:Generated_Source\PSoC6\pdl\middleware\ble/cy_ble_gap.c ****     #endif /* CY_BLE_RSCS */
 250:Generated_Source\PSoC6\pdl\middleware\ble/cy_ble_gap.c **** 
 251:Generated_Source\PSoC6\pdl\middleware\ble/cy_ble_gap.c ****     #ifdef CY_BLE_PLXS
 252:Generated_Source\PSoC6\pdl\middleware\ble/cy_ble_gap.c ****     (void)Cy_BLE_PLXS_Init(&cy_ble_plxsConfig);
 253:Generated_Source\PSoC6\pdl\middleware\ble/cy_ble_gap.c ****     #endif /* CY_BLE_PLXS */
 254:Generated_Source\PSoC6\pdl\middleware\ble/cy_ble_gap.c **** 
 255:Generated_Source\PSoC6\pdl\middleware\ble/cy_ble_gap.c ****     #ifdef CY_BLE_RTUS
 256:Generated_Source\PSoC6\pdl\middleware\ble/cy_ble_gap.c ****     (void)Cy_BLE_RTUS_Init(&cy_ble_rtusConfig);
 257:Generated_Source\PSoC6\pdl\middleware\ble/cy_ble_gap.c ****     #endif /* CY_BLE_RTUS */
 258:Generated_Source\PSoC6\pdl\middleware\ble/cy_ble_gap.c **** 
 259:Generated_Source\PSoC6\pdl\middleware\ble/cy_ble_gap.c ****     #ifdef CY_BLE_SCPS
 260:Generated_Source\PSoC6\pdl\middleware\ble/cy_ble_gap.c ****     (void)Cy_BLE_SCPS_Init(&cy_ble_scpsConfig);
 261:Generated_Source\PSoC6\pdl\middleware\ble/cy_ble_gap.c ****     #endif /* CY_BLE_SCPS */
 262:Generated_Source\PSoC6\pdl\middleware\ble/cy_ble_gap.c **** 
 263:Generated_Source\PSoC6\pdl\middleware\ble/cy_ble_gap.c ****     #ifdef CY_BLE_TPS
 264:Generated_Source\PSoC6\pdl\middleware\ble/cy_ble_gap.c ****     (void)Cy_BLE_TPS_Init(&cy_ble_tpsConfig);
 265:Generated_Source\PSoC6\pdl\middleware\ble/cy_ble_gap.c ****     #endif /* CY_BLE_TPS */
 266:Generated_Source\PSoC6\pdl\middleware\ble/cy_ble_gap.c **** 
 267:Generated_Source\PSoC6\pdl\middleware\ble/cy_ble_gap.c ****     #ifdef CY_BLE_UDS
 268:Generated_Source\PSoC6\pdl\middleware\ble/cy_ble_gap.c ****     (void)Cy_BLE_UDS_Init(&cy_ble_udsConfig);
 269:Generated_Source\PSoC6\pdl\middleware\ble/cy_ble_gap.c ****     #endif /* CY_BLE_UDS */
 270:Generated_Source\PSoC6\pdl\middleware\ble/cy_ble_gap.c **** 
 271:Generated_Source\PSoC6\pdl\middleware\ble/cy_ble_gap.c ****     #ifdef CY_BLE_WPTS
 272:Generated_Source\PSoC6\pdl\middleware\ble/cy_ble_gap.c ****     (void)Cy_BLE_WPTS_Init(&cy_ble_wptsConfig);
 273:Generated_Source\PSoC6\pdl\middleware\ble/cy_ble_gap.c ****     #endif /* CY_BLE_WPTS */
 274:Generated_Source\PSoC6\pdl\middleware\ble/cy_ble_gap.c **** 
 275:Generated_Source\PSoC6\pdl\middleware\ble/cy_ble_gap.c ****     #ifdef CY_BLE_WSS
 276:Generated_Source\PSoC6\pdl\middleware\ble/cy_ble_gap.c ****     (void)Cy_BLE_WSS_Init(&cy_ble_wssConfig);
 277:Generated_Source\PSoC6\pdl\middleware\ble/cy_ble_gap.c ****     #endif /* CY_BLE_WSS */
ARM GAS  C:\Users\gjl\AppData\Local\Temp\ccYWElnH.s 			page 8


 278:Generated_Source\PSoC6\pdl\middleware\ble/cy_ble_gap.c **** }
 279:Generated_Source\PSoC6\pdl\middleware\ble/cy_ble_gap.c **** 
 280:Generated_Source\PSoC6\pdl\middleware\ble/cy_ble_gap.c **** /******************************************************************************
 281:Generated_Source\PSoC6\pdl\middleware\ble/cy_ble_gap.c **** * Function Name: Cy_BLE_StoreAppData
 282:Generated_Source\PSoC6\pdl\middleware\ble/cy_ble_gap.c **** ***************************************************************************//**
 283:Generated_Source\PSoC6\pdl\middleware\ble/cy_ble_gap.c **** *
 284:Generated_Source\PSoC6\pdl\middleware\ble/cy_ble_gap.c **** *  This function is used to back up application-specific data into the flash.
 285:Generated_Source\PSoC6\pdl\middleware\ble/cy_ble_gap.c **** *
 286:Generated_Source\PSoC6\pdl\middleware\ble/cy_ble_gap.c **** *  This function works in two Write modes: blocking or non-blocking:
 287:Generated_Source\PSoC6\pdl\middleware\ble/cy_ble_gap.c **** *  * Blocking (#CY_BLE_STORE_DATA_MODE_BLOCKING) - The function writes 
 288:Generated_Source\PSoC6\pdl\middleware\ble/cy_ble_gap.c **** *    all data from srcBuff and returns #CY_BLE_SUCCESS when finishes.
 289:Generated_Source\PSoC6\pdl\middleware\ble/cy_ble_gap.c **** *  <br> 
 290:Generated_Source\PSoC6\pdl\middleware\ble/cy_ble_gap.c **** *  * Non-blocking (#CY_BLE_STORE_DATA_MODE_NON_BLOCKING) - The function initiate 
 291:Generated_Source\PSoC6\pdl\middleware\ble/cy_ble_gap.c **** *    Write data and returns #CY_BLE_INFO_FLASH_WRITE_IN_PROGRESS when the Write
 292:Generated_Source\PSoC6\pdl\middleware\ble/cy_ble_gap.c **** *    is in progress, or #CY_BLE_SUCCESS when finishes. In order to have a complete
 293:Generated_Source\PSoC6\pdl\middleware\ble/cy_ble_gap.c **** *    data written, the application needs to continue calling this function with 
 294:Generated_Source\PSoC6\pdl\middleware\ble/cy_ble_gap.c **** *    the same input parameter (param), until this function returns CY_BLE_SUCCESS.
 295:Generated_Source\PSoC6\pdl\middleware\ble/cy_ble_gap.c **** *    The application must not change input parameter's structure and content until
 296:Generated_Source\PSoC6\pdl\middleware\ble/cy_ble_gap.c **** *    this function returns CY_BLE_SUCCESS.
 297:Generated_Source\PSoC6\pdl\middleware\ble/cy_ble_gap.c **** *
 298:Generated_Source\PSoC6\pdl\middleware\ble/cy_ble_gap.c **** *  \param param: The parameter of type \ref cy_stc_ble_app_flash_param_t.
 299:Generated_Source\PSoC6\pdl\middleware\ble/cy_ble_gap.c **** *   * param->srcBuff:   The source buffer.
 300:Generated_Source\PSoC6\pdl\middleware\ble/cy_ble_gap.c **** *   * param->destAddr:  The destination address. The destination buffer size should 
 301:Generated_Source\PSoC6\pdl\middleware\ble/cy_ble_gap.c **** *                       be equal or bigger than source buffer.
 302:Generated_Source\PSoC6\pdl\middleware\ble/cy_ble_gap.c **** *   * param->buffLen:   The length of srcData (in bytes).
 303:Generated_Source\PSoC6\pdl\middleware\ble/cy_ble_gap.c **** *   * param->writeMode: Blocking or non-blocking Write mode.
 304:Generated_Source\PSoC6\pdl\middleware\ble/cy_ble_gap.c **** *
 305:Generated_Source\PSoC6\pdl\middleware\ble/cy_ble_gap.c **** *  param->destAddr - An array address to be defined in the 
 306:Generated_Source\PSoC6\pdl\middleware\ble/cy_ble_gap.c **** *  application and aligned to the size of the device's flash row. 
 307:Generated_Source\PSoC6\pdl\middleware\ble/cy_ble_gap.c **** *
 308:Generated_Source\PSoC6\pdl\middleware\ble/cy_ble_gap.c **** *  An example of a declaration of such an array (100 bytes): 
 309:Generated_Source\PSoC6\pdl\middleware\ble/cy_ble_gap.c **** *   - CY_ALIGN(CY_FLASH_SIZEOF_ROW) const uint8_t appBuff[100u] = {0u}; <br>
 310:Generated_Source\PSoC6\pdl\middleware\ble/cy_ble_gap.c **** *  <br>
 311:Generated_Source\PSoC6\pdl\middleware\ble/cy_ble_gap.c **** *  CY_ALIGN() - Aligns the array to the size of the device`s flash row. 
 312:Generated_Source\PSoC6\pdl\middleware\ble/cy_ble_gap.c **** *  Even if the length of srcData is not multiple of the flash row size, 
 313:Generated_Source\PSoC6\pdl\middleware\ble/cy_ble_gap.c **** *  the Cy_BLE_StoreAppData() forms a whole rows, and programs them in sequence
 314:Generated_Source\PSoC6\pdl\middleware\ble/cy_ble_gap.c **** *
 315:Generated_Source\PSoC6\pdl\middleware\ble/cy_ble_gap.c **** *  The approximate time to write one row - 16ms.
 316:Generated_Source\PSoC6\pdl\middleware\ble/cy_ble_gap.c **** *
 317:Generated_Source\PSoC6\pdl\middleware\ble/cy_ble_gap.c **** *  The following code snippet shows the usage of Cy_BLE_StoreAppData()
 318:Generated_Source\PSoC6\pdl\middleware\ble/cy_ble_gap.c **** * \snippet ble_sut_01_all_api.cydsn/snippets.c BLE Common API: Cy_BLE_StoreAppData()
 319:Generated_Source\PSoC6\pdl\middleware\ble/cy_ble_gap.c **** *
 320:Generated_Source\PSoC6\pdl\middleware\ble/cy_ble_gap.c **** * \return
 321:Generated_Source\PSoC6\pdl\middleware\ble/cy_ble_gap.c **** * \ref cy_en_ble_api_result_t : Return value indicates if the function succeeded or
 322:Generated_Source\PSoC6\pdl\middleware\ble/cy_ble_gap.c **** *  failed. Following are the possible error codes.
 323:Generated_Source\PSoC6\pdl\middleware\ble/cy_ble_gap.c **** *
 324:Generated_Source\PSoC6\pdl\middleware\ble/cy_ble_gap.c **** *   Error codes                              | Description
 325:Generated_Source\PSoC6\pdl\middleware\ble/cy_ble_gap.c **** *   ------------                             | -----------
 326:Generated_Source\PSoC6\pdl\middleware\ble/cy_ble_gap.c **** *   CY_BLE_SUCCESS                           | On successful operation.
 327:Generated_Source\PSoC6\pdl\middleware\ble/cy_ble_gap.c **** *   CY_BLE_INFO_FLASH_WRITE_IN_PROGRESS      | Write operation is in progress.
 328:Generated_Source\PSoC6\pdl\middleware\ble/cy_ble_gap.c **** *   CY_BLE_ERROR_INVALID_PARAMETER           | An invalid input parameter.
 329:Generated_Source\PSoC6\pdl\middleware\ble/cy_ble_gap.c **** *   CY_BLE_ERROR_FLASH_WRITE                 | An error in the flash Write.
 330:Generated_Source\PSoC6\pdl\middleware\ble/cy_ble_gap.c **** *
 331:Generated_Source\PSoC6\pdl\middleware\ble/cy_ble_gap.c **** ******************************************************************************/
 332:Generated_Source\PSoC6\pdl\middleware\ble/cy_ble_gap.c **** cy_en_ble_api_result_t Cy_BLE_StoreAppData(const cy_stc_ble_app_flash_param_t *param)
 333:Generated_Source\PSoC6\pdl\middleware\ble/cy_ble_gap.c **** {
 121              		.loc 1 333 0
ARM GAS  C:\Users\gjl\AppData\Local\Temp\ccYWElnH.s 			page 9


 122              		.cfi_startproc
 123              		@ args = 0, pretend = 0, frame = 0
 124              		@ frame_needed = 0, uses_anonymous_args = 0
 125              	.LVL4:
 334:Generated_Source\PSoC6\pdl\middleware\ble/cy_ble_gap.c ****     static cy_en_ble_api_result_t storeState = CY_BLE_SUCCESS;
 335:Generated_Source\PSoC6\pdl\middleware\ble/cy_ble_gap.c ****     static uint32_t tLength = 0u;
 336:Generated_Source\PSoC6\pdl\middleware\ble/cy_ble_gap.c **** 
 337:Generated_Source\PSoC6\pdl\middleware\ble/cy_ble_gap.c ****     
 338:Generated_Source\PSoC6\pdl\middleware\ble/cy_ble_gap.c ****     if ((param == NULL) || (param->writeMode > CY_BLE_STORE_DATA_MODE_NON_BLOCKING))
 126              		.loc 1 338 0
 127 0000 0028     		cmp	r0, #0
 128 0002 69D0     		beq	.L26
 333:Generated_Source\PSoC6\pdl\middleware\ble/cy_ble_gap.c ****     static cy_en_ble_api_result_t storeState = CY_BLE_SUCCESS;
 129              		.loc 1 333 0 discriminator 1
 130 0004 2DE9F041 		push	{r4, r5, r6, r7, r8, lr}
 131              		.cfi_def_cfa_offset 24
 132              		.cfi_offset 4, -24
 133              		.cfi_offset 5, -20
 134              		.cfi_offset 6, -16
 135              		.cfi_offset 7, -12
 136              		.cfi_offset 8, -8
 137              		.cfi_offset 14, -4
 138 0008 0746     		mov	r7, r0
 139              		.loc 1 338 0 discriminator 1
 140 000a C368     		ldr	r3, [r0, #12]
 141 000c 012B     		cmp	r3, #1
 142 000e 03D9     		bls	.L11
 339:Generated_Source\PSoC6\pdl\middleware\ble/cy_ble_gap.c ****     {
 340:Generated_Source\PSoC6\pdl\middleware\ble/cy_ble_gap.c ****         storeState = CY_BLE_ERROR_INVALID_PARAMETER;
 143              		.loc 1 340 0
 144 0010 344A     		ldr	r2, .L27
 145 0012 354B     		ldr	r3, .L27+4
 146 0014 1A60     		str	r2, [r3]
 147 0016 5BE0     		b	.L12
 148              	.L11:
 149              	.LBB22:
 341:Generated_Source\PSoC6\pdl\middleware\ble/cy_ble_gap.c ****     }
 342:Generated_Source\PSoC6\pdl\middleware\ble/cy_ble_gap.c ****     else
 343:Generated_Source\PSoC6\pdl\middleware\ble/cy_ble_gap.c ****     {
 344:Generated_Source\PSoC6\pdl\middleware\ble/cy_ble_gap.c ****         uint8_t *tSrcPtr   = (uint8_t *) param->srcBuff;
 150              		.loc 1 344 0
 151 0018 0668     		ldr	r6, [r0]
 152              	.LVL5:
 345:Generated_Source\PSoC6\pdl\middleware\ble/cy_ble_gap.c ****         uint32_t tOffset   = (uint32) param->destAddr - CY_FLASH_BASE;  /* Get offset */
 153              		.loc 1 345 0
 154 001a 4568     		ldr	r5, [r0, #4]
 155 001c 05F17045 		add	r5, r5, #-268435456
 156              	.LVL6:
 346:Generated_Source\PSoC6\pdl\middleware\ble/cy_ble_gap.c ****         uint32_t blockSize;      
 347:Generated_Source\PSoC6\pdl\middleware\ble/cy_ble_gap.c ****         bool exitFlag = false;
 348:Generated_Source\PSoC6\pdl\middleware\ble/cy_ble_gap.c ****         
 349:Generated_Source\PSoC6\pdl\middleware\ble/cy_ble_gap.c ****         switch (storeState)
 157              		.loc 1 349 0
 158 0020 314B     		ldr	r3, .L27+4
 159 0022 1B68     		ldr	r3, [r3]
 160 0024 314A     		ldr	r2, .L27+8
 161 0026 9342     		cmp	r3, r2
ARM GAS  C:\Users\gjl\AppData\Local\Temp\ccYWElnH.s 			page 10


 162 0028 0ED0     		beq	.L14
 163 002a 01D8     		bhi	.L15
 164 002c ABB9     		cbnz	r3, .L22
 165 002e 05E0     		b	.L16
 166              	.L15:
 167 0030 2C4A     		ldr	r2, .L27
 168 0032 9342     		cmp	r3, r2
 169 0034 02D0     		beq	.L16
 170 0036 1232     		adds	r2, r2, #18
 171 0038 9342     		cmp	r3, r2
 172 003a 0ED1     		bne	.L22
 173              	.L16:
 350:Generated_Source\PSoC6\pdl\middleware\ble/cy_ble_gap.c ****         {           
 351:Generated_Source\PSoC6\pdl\middleware\ble/cy_ble_gap.c ****             case CY_BLE_SUCCESS: 
 352:Generated_Source\PSoC6\pdl\middleware\ble/cy_ble_gap.c ****             case CY_BLE_ERROR_INVALID_PARAMETER:
 353:Generated_Source\PSoC6\pdl\middleware\ble/cy_ble_gap.c ****             case CY_BLE_ERROR_FLASH_WRITE:
 354:Generated_Source\PSoC6\pdl\middleware\ble/cy_ble_gap.c ****                 tLength = param->buffLen;
 174              		.loc 1 354 0
 175 003c BA68     		ldr	r2, [r7, #8]
 176 003e 2A4B     		ldr	r3, .L27+4
 177 0040 5A60     		str	r2, [r3, #4]
 347:Generated_Source\PSoC6\pdl\middleware\ble/cy_ble_gap.c ****         
 178              		.loc 1 347 0
 179 0042 4FF00008 		mov	r8, #0
 355:Generated_Source\PSoC6\pdl\middleware\ble/cy_ble_gap.c ****                 break;
 180              		.loc 1 355 0
 181 0046 3DE0     		b	.L18
 182              	.L14:
 356:Generated_Source\PSoC6\pdl\middleware\ble/cy_ble_gap.c ****                 
 357:Generated_Source\PSoC6\pdl\middleware\ble/cy_ble_gap.c ****             case CY_BLE_INFO_FLASH_WRITE_IN_PROGRESS:
 358:Generated_Source\PSoC6\pdl\middleware\ble/cy_ble_gap.c ****                 if (tLength == 0u)
 183              		.loc 1 358 0
 184 0048 274B     		ldr	r3, .L27+4
 185 004a 5B68     		ldr	r3, [r3, #4]
 186 004c 43B9     		cbnz	r3, .L17
 359:Generated_Source\PSoC6\pdl\middleware\ble/cy_ble_gap.c ****                 {
 360:Generated_Source\PSoC6\pdl\middleware\ble/cy_ble_gap.c ****                     storeState = CY_BLE_SUCCESS;
 187              		.loc 1 360 0
 188 004e 0022     		movs	r2, #0
 189 0050 254B     		ldr	r3, .L27+4
 190 0052 1A60     		str	r2, [r3]
 191              	.LVL7:
 361:Generated_Source\PSoC6\pdl\middleware\ble/cy_ble_gap.c ****                     exitFlag = true;
 192              		.loc 1 361 0
 193 0054 4FF00108 		mov	r8, #1
 194 0058 34E0     		b	.L18
 195              	.LVL8:
 196              	.L22:
 347:Generated_Source\PSoC6\pdl\middleware\ble/cy_ble_gap.c ****         
 197              		.loc 1 347 0
 198 005a 4FF00008 		mov	r8, #0
 199 005e 31E0     		b	.L18
 200              	.L17:
 362:Generated_Source\PSoC6\pdl\middleware\ble/cy_ble_gap.c ****                 }
 363:Generated_Source\PSoC6\pdl\middleware\ble/cy_ble_gap.c ****                 else
 364:Generated_Source\PSoC6\pdl\middleware\ble/cy_ble_gap.c ****                 {
 365:Generated_Source\PSoC6\pdl\middleware\ble/cy_ble_gap.c ****                     /* Restore offset and srcPtr according to length */
ARM GAS  C:\Users\gjl\AppData\Local\Temp\ccYWElnH.s 			page 11


 366:Generated_Source\PSoC6\pdl\middleware\ble/cy_ble_gap.c ****                     tSrcPtr += param->buffLen - tLength;
 201              		.loc 1 366 0
 202 0060 8268     		ldr	r2, [r0, #8]
 203 0062 D31A     		subs	r3, r2, r3
 204 0064 1E44     		add	r6, r6, r3
 205              	.LVL9:
 367:Generated_Source\PSoC6\pdl\middleware\ble/cy_ble_gap.c ****                     tOffset += param->buffLen - tLength;
 206              		.loc 1 367 0
 207 0066 1D44     		add	r5, r5, r3
 208              	.LVL10:
 347:Generated_Source\PSoC6\pdl\middleware\ble/cy_ble_gap.c ****         
 209              		.loc 1 347 0
 210 0068 4FF00008 		mov	r8, #0
 211 006c 2AE0     		b	.L18
 212              	.LVL11:
 213              	.L21:
 368:Generated_Source\PSoC6\pdl\middleware\ble/cy_ble_gap.c ****                 }
 369:Generated_Source\PSoC6\pdl\middleware\ble/cy_ble_gap.c ****                 break;
 370:Generated_Source\PSoC6\pdl\middleware\ble/cy_ble_gap.c ****                 
 371:Generated_Source\PSoC6\pdl\middleware\ble/cy_ble_gap.c ****            default:
 372:Generated_Source\PSoC6\pdl\middleware\ble/cy_ble_gap.c ****                 break;
 373:Generated_Source\PSoC6\pdl\middleware\ble/cy_ble_gap.c ****         }
 374:Generated_Source\PSoC6\pdl\middleware\ble/cy_ble_gap.c ****         
 375:Generated_Source\PSoC6\pdl\middleware\ble/cy_ble_gap.c ****         while((tLength != 0u) && (exitFlag == false))
 376:Generated_Source\PSoC6\pdl\middleware\ble/cy_ble_gap.c ****         {
 377:Generated_Source\PSoC6\pdl\middleware\ble/cy_ble_gap.c ****             /* Split srcBuff into parts of flash row size (512 bytes) */
 378:Generated_Source\PSoC6\pdl\middleware\ble/cy_ble_gap.c ****             blockSize = (tOffset >> 9) << 9;                            /* Get current row size reg
 214              		.loc 1 378 0
 215 006e 25F4FF74 		bic	r4, r5, #510
 216 0072 24F00104 		bic	r4, r4, #1
 217              	.LVL12:
 379:Generated_Source\PSoC6\pdl\middleware\ble/cy_ble_gap.c ****             blockSize = CY_FLASH_SIZEOF_ROW - (tOffset - blockSize);    /* Calculate final length o
 218              		.loc 1 379 0
 219 0076 641B     		subs	r4, r4, r5
 220              	.LVL13:
 221 0078 04F50074 		add	r4, r4, #512
 222              	.LVL14:
 380:Generated_Source\PSoC6\pdl\middleware\ble/cy_ble_gap.c ****                                                                            we can write to row */
 381:Generated_Source\PSoC6\pdl\middleware\ble/cy_ble_gap.c ****             blockSize = (blockSize > tLength )? tLength : blockSize;
 223              		.loc 1 381 0
 224 007c 9C42     		cmp	r4, r3
 225 007e 28BF     		it	cs
 226 0080 1C46     		movcs	r4, r3
 227              	.LVL15:
 382:Generated_Source\PSoC6\pdl\middleware\ble/cy_ble_gap.c **** 
 383:Generated_Source\PSoC6\pdl\middleware\ble/cy_ble_gap.c ****             /* Write 512 byte block */
 384:Generated_Source\PSoC6\pdl\middleware\ble/cy_ble_gap.c ****             storeState = Cy_BLE_HAL_NvramWrite(tSrcPtr, (uint8_t *)(tOffset + CY_FLASH_BASE), block
 228              		.loc 1 384 0
 229 0082 2246     		mov	r2, r4
 230 0084 05F18051 		add	r1, r5, #268435456
 231 0088 3046     		mov	r0, r6
 232 008a FFF7FEFF 		bl	Cy_BLE_HAL_NvramWrite
 233              	.LVL16:
 234 008e 164B     		ldr	r3, .L27+4
 235 0090 1860     		str	r0, [r3]
 385:Generated_Source\PSoC6\pdl\middleware\ble/cy_ble_gap.c **** 
 386:Generated_Source\PSoC6\pdl\middleware\ble/cy_ble_gap.c ****             if((storeState & CY_PDL_STATUS_ERROR) != 0u)
ARM GAS  C:\Users\gjl\AppData\Local\Temp\ccYWElnH.s 			page 12


 236              		.loc 1 386 0
 237 0092 10F4003F 		tst	r0, #131072
 238 0096 01D0     		beq	.L19
 387:Generated_Source\PSoC6\pdl\middleware\ble/cy_ble_gap.c ****             {
 388:Generated_Source\PSoC6\pdl\middleware\ble/cy_ble_gap.c ****                 exitFlag = true;
 239              		.loc 1 388 0
 240 0098 4FF00108 		mov	r8, #1
 241              	.LVL17:
 242              	.L19:
 389:Generated_Source\PSoC6\pdl\middleware\ble/cy_ble_gap.c ****             }
 390:Generated_Source\PSoC6\pdl\middleware\ble/cy_ble_gap.c ****                         
 391:Generated_Source\PSoC6\pdl\middleware\ble/cy_ble_gap.c ****             
 392:Generated_Source\PSoC6\pdl\middleware\ble/cy_ble_gap.c ****             tSrcPtr += blockSize;
 243              		.loc 1 392 0
 244 009c 2644     		add	r6, r6, r4
 245              	.LVL18:
 393:Generated_Source\PSoC6\pdl\middleware\ble/cy_ble_gap.c ****             tOffset += blockSize;
 246              		.loc 1 393 0
 247 009e 2544     		add	r5, r5, r4
 248              	.LVL19:
 394:Generated_Source\PSoC6\pdl\middleware\ble/cy_ble_gap.c ****             tLength -= blockSize;
 249              		.loc 1 394 0
 250 00a0 114A     		ldr	r2, .L27+4
 251 00a2 5368     		ldr	r3, [r2, #4]
 252 00a4 1C1B     		subs	r4, r3, r4
 253              	.LVL20:
 254 00a6 5460     		str	r4, [r2, #4]
 395:Generated_Source\PSoC6\pdl\middleware\ble/cy_ble_gap.c ****             
 396:Generated_Source\PSoC6\pdl\middleware\ble/cy_ble_gap.c ****             /* For CY_BLE_STORE_DATA_MODE_NON_BLOCKING mode write one row per call */
 397:Generated_Source\PSoC6\pdl\middleware\ble/cy_ble_gap.c ****             if(param->writeMode == CY_BLE_STORE_DATA_MODE_NON_BLOCKING)
 255              		.loc 1 397 0
 256 00a8 FB68     		ldr	r3, [r7, #12]
 257 00aa 012B     		cmp	r3, #1
 258 00ac 08D1     		bne	.L20
 398:Generated_Source\PSoC6\pdl\middleware\ble/cy_ble_gap.c ****             {
 399:Generated_Source\PSoC6\pdl\middleware\ble/cy_ble_gap.c ****                 if (storeState == CY_BLE_SUCCESS)
 259              		.loc 1 399 0
 260 00ae 28B9     		cbnz	r0, .L24
 400:Generated_Source\PSoC6\pdl\middleware\ble/cy_ble_gap.c ****                 {
 401:Generated_Source\PSoC6\pdl\middleware\ble/cy_ble_gap.c ****                     storeState = CY_BLE_INFO_FLASH_WRITE_IN_PROGRESS;
 261              		.loc 1 401 0
 262 00b0 0E4A     		ldr	r2, .L27+8
 263 00b2 0D4B     		ldr	r3, .L27+4
 264 00b4 1A60     		str	r2, [r3]
 402:Generated_Source\PSoC6\pdl\middleware\ble/cy_ble_gap.c ****                 } 
 403:Generated_Source\PSoC6\pdl\middleware\ble/cy_ble_gap.c ****                 exitFlag = true;
 265              		.loc 1 403 0
 266 00b6 4FF00108 		mov	r8, #1
 267              	.LVL21:
 268 00ba 01E0     		b	.L20
 269              	.LVL22:
 270              	.L24:
 271 00bc 4FF00108 		mov	r8, #1
 272              	.LVL23:
 273              	.L20:
 404:Generated_Source\PSoC6\pdl\middleware\ble/cy_ble_gap.c ****             }
 405:Generated_Source\PSoC6\pdl\middleware\ble/cy_ble_gap.c ****         
ARM GAS  C:\Users\gjl\AppData\Local\Temp\ccYWElnH.s 			page 13


 406:Generated_Source\PSoC6\pdl\middleware\ble/cy_ble_gap.c ****             /* Cy_BLE_ProcessEvents() allows BLE Stack to process pending events */
 407:Generated_Source\PSoC6\pdl\middleware\ble/cy_ble_gap.c ****             Cy_BLE_ProcessEvents();
 274              		.loc 1 407 0
 275 00c0 FFF7FEFF 		bl	Cy_BLE_ProcessEvents
 276              	.LVL24:
 277              	.L18:
 375:Generated_Source\PSoC6\pdl\middleware\ble/cy_ble_gap.c ****         {
 278              		.loc 1 375 0
 279 00c4 084B     		ldr	r3, .L27+4
 280 00c6 5B68     		ldr	r3, [r3, #4]
 281 00c8 13B1     		cbz	r3, .L12
 375:Generated_Source\PSoC6\pdl\middleware\ble/cy_ble_gap.c ****         {
 282              		.loc 1 375 0 is_stmt 0 discriminator 1
 283 00ca B8F1000F 		cmp	r8, #0
 284 00ce CED0     		beq	.L21
 285              	.LVL25:
 286              	.L12:
 287              	.LBE22:
 408:Generated_Source\PSoC6\pdl\middleware\ble/cy_ble_gap.c **** 
 409:Generated_Source\PSoC6\pdl\middleware\ble/cy_ble_gap.c ****         }
 410:Generated_Source\PSoC6\pdl\middleware\ble/cy_ble_gap.c ****     }
 411:Generated_Source\PSoC6\pdl\middleware\ble/cy_ble_gap.c ****     return(storeState);
 412:Generated_Source\PSoC6\pdl\middleware\ble/cy_ble_gap.c **** }
 288              		.loc 1 412 0 is_stmt 1
 289 00d0 054B     		ldr	r3, .L27+4
 290 00d2 1868     		ldr	r0, [r3]
 291 00d4 BDE8F081 		pop	{r4, r5, r6, r7, r8, pc}
 292              	.LVL26:
 293              	.L26:
 294              		.cfi_def_cfa_offset 0
 295              		.cfi_restore 4
 296              		.cfi_restore 5
 297              		.cfi_restore 6
 298              		.cfi_restore 7
 299              		.cfi_restore 8
 300              		.cfi_restore 14
 340:Generated_Source\PSoC6\pdl\middleware\ble/cy_ble_gap.c ****     }
 301              		.loc 1 340 0
 302 00d8 024A     		ldr	r2, .L27
 303 00da 034B     		ldr	r3, .L27+4
 304 00dc 1A60     		str	r2, [r3]
 305              		.loc 1 412 0
 306 00de 024B     		ldr	r3, .L27+4
 307 00e0 1868     		ldr	r0, [r3]
 308              	.LVL27:
 309 00e2 7047     		bx	lr
 310              	.L28:
 311              		.align	2
 312              	.L27:
 313 00e4 01001600 		.word	1441793
 314 00e8 00000000 		.word	.LANCHOR0
 315 00ec 01001400 		.word	1310721
 316              		.cfi_endproc
 317              	.LFE287:
 318              		.size	Cy_BLE_StoreAppData, .-Cy_BLE_StoreAppData
 319              		.section	.text.Cy_BLE_StoreBondingData,"ax",%progbits
 320              		.align	2
ARM GAS  C:\Users\gjl\AppData\Local\Temp\ccYWElnH.s 			page 14


 321              		.global	Cy_BLE_StoreBondingData
 322              		.thumb
 323              		.thumb_func
 324              		.type	Cy_BLE_StoreBondingData, %function
 325              	Cy_BLE_StoreBondingData:
 326              	.LFB288:
 413:Generated_Source\PSoC6\pdl\middleware\ble/cy_ble_gap.c **** 
 414:Generated_Source\PSoC6\pdl\middleware\ble/cy_ble_gap.c **** 
 415:Generated_Source\PSoC6\pdl\middleware\ble/cy_ble_gap.c **** #if ((CY_BLE_GAP_ROLE_PERIPHERAL || CY_BLE_GAP_ROLE_CENTRAL) && (CY_BLE_BONDING_REQUIREMENT == CY_B
 416:Generated_Source\PSoC6\pdl\middleware\ble/cy_ble_gap.c **** 
 417:Generated_Source\PSoC6\pdl\middleware\ble/cy_ble_gap.c **** 
 418:Generated_Source\PSoC6\pdl\middleware\ble/cy_ble_gap.c **** /******************************************************************************
 419:Generated_Source\PSoC6\pdl\middleware\ble/cy_ble_gap.c **** * Function Name: Cy_BLE_StoreBondingData
 420:Generated_Source\PSoC6\pdl\middleware\ble/cy_ble_gap.c **** ***************************************************************************//**
 421:Generated_Source\PSoC6\pdl\middleware\ble/cy_ble_gap.c **** *
 422:Generated_Source\PSoC6\pdl\middleware\ble/cy_ble_gap.c **** *  This function writes the new bonding data from RAM to the dedicated Flash
 423:Generated_Source\PSoC6\pdl\middleware\ble/cy_ble_gap.c **** *  location as defined by the BLE Middleware. It performs data comparing between RAM
 424:Generated_Source\PSoC6\pdl\middleware\ble/cy_ble_gap.c **** *  and Flash before writing to Flash. If there is no change between RAM and Flash
 425:Generated_Source\PSoC6\pdl\middleware\ble/cy_ble_gap.c **** *  data, then no write is performed. It writes only one flash row in one call.
 426:Generated_Source\PSoC6\pdl\middleware\ble/cy_ble_gap.c **** *  Application should keep calling this function till it returns #CY_BLE_SUCCESS.
 427:Generated_Source\PSoC6\pdl\middleware\ble/cy_ble_gap.c **** *  This function is available only when Bonding requirement is selected in
 428:Generated_Source\PSoC6\pdl\middleware\ble/cy_ble_gap.c **** *  Security settings.
 429:Generated_Source\PSoC6\pdl\middleware\ble/cy_ble_gap.c **** *
 430:Generated_Source\PSoC6\pdl\middleware\ble/cy_ble_gap.c **** *
 431:Generated_Source\PSoC6\pdl\middleware\ble/cy_ble_gap.c **** * \return
 432:Generated_Source\PSoC6\pdl\middleware\ble/cy_ble_gap.c **** * \ref cy_en_ble_api_result_t : Return value indicates if the function succeeded or
 433:Generated_Source\PSoC6\pdl\middleware\ble/cy_ble_gap.c **** *  failed. Following are the possible error codes.
 434:Generated_Source\PSoC6\pdl\middleware\ble/cy_ble_gap.c **** *
 435:Generated_Source\PSoC6\pdl\middleware\ble/cy_ble_gap.c **** *   Error Codes                           | Description
 436:Generated_Source\PSoC6\pdl\middleware\ble/cy_ble_gap.c **** *   ----------------------------------    | ------------------------------------
 437:Generated_Source\PSoC6\pdl\middleware\ble/cy_ble_gap.c **** *   CY_BLE_SUCCESS                        | On successful operation
 438:Generated_Source\PSoC6\pdl\middleware\ble/cy_ble_gap.c **** *   CY_BLE_INFO_FLASH_WRITE_IN_PROGRESS   | Writing in progress
 439:Generated_Source\PSoC6\pdl\middleware\ble/cy_ble_gap.c **** *   CY_BLE_ERROR_FLASH_WRITE              | Error in flash Write
 440:Generated_Source\PSoC6\pdl\middleware\ble/cy_ble_gap.c **** *
 441:Generated_Source\PSoC6\pdl\middleware\ble/cy_ble_gap.c **** *  \globalvars
 442:Generated_Source\PSoC6\pdl\middleware\ble/cy_ble_gap.c **** *   The \ref cy_ble_pendingFlashWrite variable is used to detect status
 443:Generated_Source\PSoC6\pdl\middleware\ble/cy_ble_gap.c **** *   of pending write to flash operation for BLE Stack data and CCCD.
 444:Generated_Source\PSoC6\pdl\middleware\ble/cy_ble_gap.c **** *   This function automatically clears pending bits after write operation
 445:Generated_Source\PSoC6\pdl\middleware\ble/cy_ble_gap.c **** *   complete.
 446:Generated_Source\PSoC6\pdl\middleware\ble/cy_ble_gap.c **** *
 447:Generated_Source\PSoC6\pdl\middleware\ble/cy_ble_gap.c **** ******************************************************************************/
 448:Generated_Source\PSoC6\pdl\middleware\ble/cy_ble_gap.c **** cy_en_ble_api_result_t Cy_BLE_StoreBondingData(void)
 449:Generated_Source\PSoC6\pdl\middleware\ble/cy_ble_gap.c **** {
 327              		.loc 1 449 0
 328              		.cfi_startproc
 329              		@ args = 0, pretend = 0, frame = 72
 330              		@ frame_needed = 0, uses_anonymous_args = 0
 331 0000 70B5     		push	{r4, r5, r6, lr}
 332              		.cfi_def_cfa_offset 16
 333              		.cfi_offset 4, -16
 334              		.cfi_offset 5, -12
 335              		.cfi_offset 6, -8
 336              		.cfi_offset 14, -4
 337 0002 92B0     		sub	sp, sp, #72
 338              		.cfi_def_cfa_offset 88
 339              	.LVL28:
 450:Generated_Source\PSoC6\pdl\middleware\ble/cy_ble_gap.c ****     cy_en_ble_api_result_t apiResult = CY_BLE_SUCCESS;
ARM GAS  C:\Users\gjl\AppData\Local\Temp\ccYWElnH.s 			page 15


 451:Generated_Source\PSoC6\pdl\middleware\ble/cy_ble_gap.c **** 
 452:Generated_Source\PSoC6\pdl\middleware\ble/cy_ble_gap.c ****     /* Store BLE Stack data */
 453:Generated_Source\PSoC6\pdl\middleware\ble/cy_ble_gap.c ****     if((cy_ble_pendingFlashWrite & CY_BLE_PENDING_STACK_FLASH_WRITE_BIT) != 0u)
 340              		.loc 1 453 0
 341 0004 564B     		ldr	r3, .L47
 342 0006 1B78     		ldrb	r3, [r3]	@ zero_extendqisi2
 343 0008 13F0010F 		tst	r3, #1
 344 000c 11D0     		beq	.L43
 345              	.LBB23:
 454:Generated_Source\PSoC6\pdl\middleware\ble/cy_ble_gap.c ****     {
 455:Generated_Source\PSoC6\pdl\middleware\ble/cy_ble_gap.c ****         cy_stc_ble_stack_flash_param_t stackFlashParam =
 346              		.loc 1 455 0
 347 000e 12A8     		add	r0, sp, #72
 348 0010 0723     		movs	r3, #7
 349 0012 00F8343D 		strb	r3, [r0, #-52]!
 456:Generated_Source\PSoC6\pdl\middleware\ble/cy_ble_gap.c ****         {
 457:Generated_Source\PSoC6\pdl\middleware\ble/cy_ble_gap.c ****             .bitField = CY_BLE_PERSISTENT_BOND_LIST_BITMASK |
 458:Generated_Source\PSoC6\pdl\middleware\ble/cy_ble_gap.c ****                         CY_BLE_PERSISTENT_RPA_LIST_BITMASK |
 459:Generated_Source\PSoC6\pdl\middleware\ble/cy_ble_gap.c ****                         CY_BLE_PERSISTENT_WHITELIST_BITMASK
 460:Generated_Source\PSoC6\pdl\middleware\ble/cy_ble_gap.c ****         };
 461:Generated_Source\PSoC6\pdl\middleware\ble/cy_ble_gap.c **** 
 462:Generated_Source\PSoC6\pdl\middleware\ble/cy_ble_gap.c ****         apiResult = Cy_BLE_StoreStackData(&stackFlashParam);
 350              		.loc 1 462 0
 351 0016 FFF7FEFF 		bl	Cy_BLE_StoreStackData
 352              	.LVL29:
 463:Generated_Source\PSoC6\pdl\middleware\ble/cy_ble_gap.c ****         if(apiResult == CY_BLE_SUCCESS)
 353              		.loc 1 463 0
 354 001a 0346     		mov	r3, r0
 355 001c 50B9     		cbnz	r0, .L30
 464:Generated_Source\PSoC6\pdl\middleware\ble/cy_ble_gap.c ****         {
 465:Generated_Source\PSoC6\pdl\middleware\ble/cy_ble_gap.c ****             cy_ble_pendingFlashWrite &= (uint8_t) ~CY_BLE_PENDING_STACK_FLASH_WRITE_BIT;
 356              		.loc 1 465 0
 357 001e 5049     		ldr	r1, .L47
 358 0020 0A78     		ldrb	r2, [r1]	@ zero_extendqisi2
 359 0022 02F0FE02 		and	r2, r2, #254
 360 0026 0A70     		strb	r2, [r1]
 466:Generated_Source\PSoC6\pdl\middleware\ble/cy_ble_gap.c ****             
 467:Generated_Source\PSoC6\pdl\middleware\ble/cy_ble_gap.c ****             /* Change apiResult if there are more pending data to store */
 468:Generated_Source\PSoC6\pdl\middleware\ble/cy_ble_gap.c ****             if((cy_ble_pendingFlashWrite & CY_BLE_PENDING_CCCD_FLASH_WRITE_BIT) != 0u)
 361              		.loc 1 468 0
 362 0028 12F0020F 		tst	r2, #2
 363 002c 02D0     		beq	.L30
 469:Generated_Source\PSoC6\pdl\middleware\ble/cy_ble_gap.c ****             {
 470:Generated_Source\PSoC6\pdl\middleware\ble/cy_ble_gap.c ****                 apiResult = CY_BLE_INFO_FLASH_WRITE_IN_PROGRESS;
 364              		.loc 1 470 0
 365 002e 4D4B     		ldr	r3, .L47+4
 366              	.LVL30:
 367 0030 00E0     		b	.L30
 368              	.LVL31:
 369              	.L43:
 370              	.LBE23:
 450:Generated_Source\PSoC6\pdl\middleware\ble/cy_ble_gap.c **** 
 371              		.loc 1 450 0
 372 0032 0023     		movs	r3, #0
 373              	.LVL32:
 374              	.L30:
 471:Generated_Source\PSoC6\pdl\middleware\ble/cy_ble_gap.c ****             }
ARM GAS  C:\Users\gjl\AppData\Local\Temp\ccYWElnH.s 			page 16


 472:Generated_Source\PSoC6\pdl\middleware\ble/cy_ble_gap.c ****         }
 473:Generated_Source\PSoC6\pdl\middleware\ble/cy_ble_gap.c ****     }
 474:Generated_Source\PSoC6\pdl\middleware\ble/cy_ble_gap.c **** #if (CY_BLE_GATT_DB_CCCD_COUNT != 0u)
 475:Generated_Source\PSoC6\pdl\middleware\ble/cy_ble_gap.c ****     
 476:Generated_Source\PSoC6\pdl\middleware\ble/cy_ble_gap.c ****     /* Store CCCD values */
 477:Generated_Source\PSoC6\pdl\middleware\ble/cy_ble_gap.c ****     if((apiResult == CY_BLE_SUCCESS) &&
 375              		.loc 1 477 0
 376 0034 002B     		cmp	r3, #0
 377 0036 47D1     		bne	.L32
 478:Generated_Source\PSoC6\pdl\middleware\ble/cy_ble_gap.c ****        ((cy_ble_pendingFlashWrite & CY_BLE_PENDING_CCCD_FLASH_WRITE_BIT) != 0u))
 378              		.loc 1 478 0 discriminator 1
 379 0038 494A     		ldr	r2, .L47
 380 003a 1278     		ldrb	r2, [r2]	@ zero_extendqisi2
 477:Generated_Source\PSoC6\pdl\middleware\ble/cy_ble_gap.c ****        ((cy_ble_pendingFlashWrite & CY_BLE_PENDING_CCCD_FLASH_WRITE_BIT) != 0u))
 381              		.loc 1 477 0 discriminator 1
 382 003c 12F0020F 		tst	r2, #2
 383 0040 42D0     		beq	.L32
 384              	.LBB24:
 479:Generated_Source\PSoC6\pdl\middleware\ble/cy_ble_gap.c ****     {
 480:Generated_Source\PSoC6\pdl\middleware\ble/cy_ble_gap.c ****         uint32_t i;
 481:Generated_Source\PSoC6\pdl\middleware\ble/cy_ble_gap.c ****         cy_stc_ble_app_flash_param_t appFlashParam =
 385              		.loc 1 481 0
 386 0042 0024     		movs	r4, #0
 387 0044 0594     		str	r4, [sp, #20]
 388 0046 0694     		str	r4, [sp, #24]
 389 0048 0894     		str	r4, [sp, #32]
 390 004a 0322     		movs	r2, #3
 391 004c 0792     		str	r2, [sp, #28]
 392              	.LVL33:
 482:Generated_Source\PSoC6\pdl\middleware\ble/cy_ble_gap.c ****         {
 483:Generated_Source\PSoC6\pdl\middleware\ble/cy_ble_gap.c ****             .buffLen = CY_BLE_GATT_DB_CCCD_COUNT + CY_BLE_CCCD_CRC_BYTE,
 484:Generated_Source\PSoC6\pdl\middleware\ble/cy_ble_gap.c ****         };
 485:Generated_Source\PSoC6\pdl\middleware\ble/cy_ble_gap.c **** 
 486:Generated_Source\PSoC6\pdl\middleware\ble/cy_ble_gap.c ****         /* Update CCCD values from RAM for active connections supporting bonding */
 487:Generated_Source\PSoC6\pdl\middleware\ble/cy_ble_gap.c ****         for(i = 0u; i < CY_BLE_CONN_COUNT; i++)
 393              		.loc 1 487 0
 394 004e 33E0     		b	.L33
 395              	.LVL34:
 396              	.L37:
 397 0050 454A     		ldr	r2, .L47+8
 398 0052 32F81420 		ldrh	r2, [r2, r4, lsl #1]	@ unaligned
 399 0056 ADF80020 		strh	r2, [sp]	@ unaligned
 400              	.LBB25:
 401              	.LBB26:
 402              		.file 2 "Generated_Source\\PSoC6\\pdl\\middleware\\ble\\cy_ble_gap.h"
   1:Generated_Source\PSoC6\pdl\middleware\ble/cy_ble_gap.h **** /***************************************************************************//**
   2:Generated_Source\PSoC6\pdl\middleware\ble/cy_ble_gap.h **** * \file cy_ble_gap.h
   3:Generated_Source\PSoC6\pdl\middleware\ble/cy_ble_gap.h **** * \version 2.0
   4:Generated_Source\PSoC6\pdl\middleware\ble/cy_ble_gap.h **** *
   5:Generated_Source\PSoC6\pdl\middleware\ble/cy_ble_gap.h **** * \brief
   6:Generated_Source\PSoC6\pdl\middleware\ble/cy_ble_gap.h **** *  Contains the prototypes and constants used in the BLE GAP profile.
   7:Generated_Source\PSoC6\pdl\middleware\ble/cy_ble_gap.h **** *
   8:Generated_Source\PSoC6\pdl\middleware\ble/cy_ble_gap.h **** ********************************************************************************
   9:Generated_Source\PSoC6\pdl\middleware\ble/cy_ble_gap.h **** * \copyright
  10:Generated_Source\PSoC6\pdl\middleware\ble/cy_ble_gap.h **** * Copyright 2017-2018, Cypress Semiconductor Corporation.  All rights reserved.
  11:Generated_Source\PSoC6\pdl\middleware\ble/cy_ble_gap.h **** * You may use this file only in accordance with the license, terms, conditions,
  12:Generated_Source\PSoC6\pdl\middleware\ble/cy_ble_gap.h **** * disclaimers, and limitations in the end user license agreement accompanying
ARM GAS  C:\Users\gjl\AppData\Local\Temp\ccYWElnH.s 			page 17


  13:Generated_Source\PSoC6\pdl\middleware\ble/cy_ble_gap.h **** * the software package with which this file was provided.
  14:Generated_Source\PSoC6\pdl\middleware\ble/cy_ble_gap.h **** *******************************************************************************/
  15:Generated_Source\PSoC6\pdl\middleware\ble/cy_ble_gap.h **** 
  16:Generated_Source\PSoC6\pdl\middleware\ble/cy_ble_gap.h **** 
  17:Generated_Source\PSoC6\pdl\middleware\ble/cy_ble_gap.h **** #ifndef CY_BLE_GAP_H
  18:Generated_Source\PSoC6\pdl\middleware\ble/cy_ble_gap.h **** #define CY_BLE_GAP_H
  19:Generated_Source\PSoC6\pdl\middleware\ble/cy_ble_gap.h ****     
  20:Generated_Source\PSoC6\pdl\middleware\ble/cy_ble_gap.h **** #include "cy_ble_config.h"
  21:Generated_Source\PSoC6\pdl\middleware\ble/cy_ble_gap.h **** 
  22:Generated_Source\PSoC6\pdl\middleware\ble/cy_ble_gap.h **** /***************************************
  23:Generated_Source\PSoC6\pdl\middleware\ble/cy_ble_gap.h **** * BLE Stack includes
  24:Generated_Source\PSoC6\pdl\middleware\ble/cy_ble_gap.h **** ***************************************/
  25:Generated_Source\PSoC6\pdl\middleware\ble/cy_ble_gap.h **** #include "cy_ble_stack_gatt.h"    
  26:Generated_Source\PSoC6\pdl\middleware\ble/cy_ble_gap.h **** #include "cy_ble_stack_gap.h"
  27:Generated_Source\PSoC6\pdl\middleware\ble/cy_ble_gap.h **** #include "cy_ble_stack_gap_central.h"
  28:Generated_Source\PSoC6\pdl\middleware\ble/cy_ble_gap.h **** #include "cy_ble_stack_gap_peripheral.h"
  29:Generated_Source\PSoC6\pdl\middleware\ble/cy_ble_gap.h **** 
  30:Generated_Source\PSoC6\pdl\middleware\ble/cy_ble_gap.h **** /* C binding of definitions if building with C++ compiler */
  31:Generated_Source\PSoC6\pdl\middleware\ble/cy_ble_gap.h **** #ifdef __cplusplus
  32:Generated_Source\PSoC6\pdl\middleware\ble/cy_ble_gap.h **** extern "C" {
  33:Generated_Source\PSoC6\pdl\middleware\ble/cy_ble_gap.h **** #endif /* __cplusplus */
  34:Generated_Source\PSoC6\pdl\middleware\ble/cy_ble_gap.h **** 
  35:Generated_Source\PSoC6\pdl\middleware\ble/cy_ble_gap.h **** /***************************************
  36:Generated_Source\PSoC6\pdl\middleware\ble/cy_ble_gap.h **** * Conditional Compilation Parameters
  37:Generated_Source\PSoC6\pdl\middleware\ble/cy_ble_gap.h **** ***************************************/
  38:Generated_Source\PSoC6\pdl\middleware\ble/cy_ble_gap.h **** /**
  39:Generated_Source\PSoC6\pdl\middleware\ble/cy_ble_gap.h ****  * The BLE operation mode.
  40:Generated_Source\PSoC6\pdl\middleware\ble/cy_ble_gap.h ****  */
  41:Generated_Source\PSoC6\pdl\middleware\ble/cy_ble_gap.h **** #define CY_BLE_MODE                          (CY_BLE_CONFIG_MODE)
  42:Generated_Source\PSoC6\pdl\middleware\ble/cy_ble_gap.h **** 
  43:Generated_Source\PSoC6\pdl\middleware\ble/cy_ble_gap.h **** /** 
  44:Generated_Source\PSoC6\pdl\middleware\ble/cy_ble_gap.h ****  * Maximum number of BLE connections
  45:Generated_Source\PSoC6\pdl\middleware\ble/cy_ble_gap.h ****  * This parameter displays how many BLE connections (both Central and 
  46:Generated_Source\PSoC6\pdl\middleware\ble/cy_ble_gap.h ****  * Peripheral) are allowed. Valid range is from 1 to 4.
  47:Generated_Source\PSoC6\pdl\middleware\ble/cy_ble_gap.h ****  */
  48:Generated_Source\PSoC6\pdl\middleware\ble/cy_ble_gap.h **** #define CY_BLE_CONN_COUNT                    (CY_BLE_CONFIG_CONN_COUNT)
  49:Generated_Source\PSoC6\pdl\middleware\ble/cy_ble_gap.h ****  
  50:Generated_Source\PSoC6\pdl\middleware\ble/cy_ble_gap.h **** /**
  51:Generated_Source\PSoC6\pdl\middleware\ble/cy_ble_gap.h ****  * The GAP Role 
  52:Generated_Source\PSoC6\pdl\middleware\ble/cy_ble_gap.h ****  * The following defined mask can be used:
  53:Generated_Source\PSoC6\pdl\middleware\ble/cy_ble_gap.h ****  * CY_BLE_GAP_PERIPHERAL  (0x01u) - device operates as peripheral.
  54:Generated_Source\PSoC6\pdl\middleware\ble/cy_ble_gap.h ****  * CY_BLE_GAP_CENTRAL     (0x02u) - device operates as central. 
  55:Generated_Source\PSoC6\pdl\middleware\ble/cy_ble_gap.h ****  * CY_BLE_GAP_BROADCASTER (0x04u) - device operates as broadcaster.
  56:Generated_Source\PSoC6\pdl\middleware\ble/cy_ble_gap.h ****  * CY_BLE_GAP_OBSERVER    (0x08u) - device operates as observer.
  57:Generated_Source\PSoC6\pdl\middleware\ble/cy_ble_gap.h ****  * CY_BLE_GAP_HCI         (0x00u) - used when BLE operates in HCI mode.
  58:Generated_Source\PSoC6\pdl\middleware\ble/cy_ble_gap.h ****  */ 
  59:Generated_Source\PSoC6\pdl\middleware\ble/cy_ble_gap.h **** #define CY_BLE_GAP_ROLE                       (CY_BLE_CONFIG_GAP_ROLE)
  60:Generated_Source\PSoC6\pdl\middleware\ble/cy_ble_gap.h **** 
  61:Generated_Source\PSoC6\pdl\middleware\ble/cy_ble_gap.h **** /** The number of GAP Peripheral configurations structures */
  62:Generated_Source\PSoC6\pdl\middleware\ble/cy_ble_gap.h **** #define CY_BLE_GAP_PERIPHERAL_COUNT           (CY_BLE_CONFIG_GAP_PERIPHERAL_COUNT)
  63:Generated_Source\PSoC6\pdl\middleware\ble/cy_ble_gap.h **** 
  64:Generated_Source\PSoC6\pdl\middleware\ble/cy_ble_gap.h **** /** The number of GAP Broadcaster configurations structures */
  65:Generated_Source\PSoC6\pdl\middleware\ble/cy_ble_gap.h **** #define CY_BLE_GAP_BROADCASTER_COUNT          (CY_BLE_CONFIG_GAP_BROADCASTER_COUNT)
  66:Generated_Source\PSoC6\pdl\middleware\ble/cy_ble_gap.h **** 
  67:Generated_Source\PSoC6\pdl\middleware\ble/cy_ble_gap.h **** /** The number of GAP Central configurations structures */
  68:Generated_Source\PSoC6\pdl\middleware\ble/cy_ble_gap.h **** #define CY_BLE_GAP_CENTRAL_COUNT              (CY_BLE_CONFIG_GAP_CENTRAL_COUNT)
  69:Generated_Source\PSoC6\pdl\middleware\ble/cy_ble_gap.h **** 
ARM GAS  C:\Users\gjl\AppData\Local\Temp\ccYWElnH.s 			page 18


  70:Generated_Source\PSoC6\pdl\middleware\ble/cy_ble_gap.h **** /** The number of GAP Observer configurations structures */
  71:Generated_Source\PSoC6\pdl\middleware\ble/cy_ble_gap.h **** #define CY_BLE_GAP_OBSERVER_COUNT             (CY_BLE_CONFIG_GAP_OBSERVER_COUNT)
  72:Generated_Source\PSoC6\pdl\middleware\ble/cy_ble_gap.h **** 
  73:Generated_Source\PSoC6\pdl\middleware\ble/cy_ble_gap.h **** /** The number of Security configurations structures */
  74:Generated_Source\PSoC6\pdl\middleware\ble/cy_ble_gap.h **** #define CY_BLE_AUTH_INFO_COUNT                (CY_BLE_CONFIG_AUTH_INFO_COUNT)
  75:Generated_Source\PSoC6\pdl\middleware\ble/cy_ble_gap.h **** 
  76:Generated_Source\PSoC6\pdl\middleware\ble/cy_ble_gap.h **** /** The Bonding Requirement structures */
  77:Generated_Source\PSoC6\pdl\middleware\ble/cy_ble_gap.h **** #define CY_BLE_BONDING_REQUIREMENT            (CY_BLE_CONFIG_BONDING_REQUIREMENT)
  78:Generated_Source\PSoC6\pdl\middleware\ble/cy_ble_gap.h **** 
  79:Generated_Source\PSoC6\pdl\middleware\ble/cy_ble_gap.h **** /** The GAP Role defines */
  80:Generated_Source\PSoC6\pdl\middleware\ble/cy_ble_gap.h **** #define CY_BLE_GAP_ROLE_PERIPHERAL            (0u != (CY_BLE_GAP_ROLE & CY_BLE_GAP_PERIPHERAL))
  81:Generated_Source\PSoC6\pdl\middleware\ble/cy_ble_gap.h **** #define CY_BLE_GAP_ROLE_CENTRAL               (0u != (CY_BLE_GAP_ROLE & CY_BLE_GAP_CENTRAL))
  82:Generated_Source\PSoC6\pdl\middleware\ble/cy_ble_gap.h **** #define CY_BLE_GAP_ROLE_OBSERVER              (0u != (CY_BLE_GAP_ROLE & CY_BLE_GAP_OBSERVER))
  83:Generated_Source\PSoC6\pdl\middleware\ble/cy_ble_gap.h **** #define CY_BLE_GAP_ROLE_BROADCASTER           (0u != (CY_BLE_GAP_ROLE & CY_BLE_GAP_BROADCASTER))
  84:Generated_Source\PSoC6\pdl\middleware\ble/cy_ble_gap.h **** 
  85:Generated_Source\PSoC6\pdl\middleware\ble/cy_ble_gap.h **** #define CY_BLE_GAPP_CONF_COUNT                (CY_BLE_GAP_PERIPHERAL_COUNT + CY_BLE_GAP_BROADCASTER
  86:Generated_Source\PSoC6\pdl\middleware\ble/cy_ble_gap.h **** #define CY_BLE_GAPC_CONF_COUNT                (CY_BLE_GAP_CENTRAL_COUNT + CY_BLE_GAP_OBSERVER_COUNT
  87:Generated_Source\PSoC6\pdl\middleware\ble/cy_ble_gap.h **** 
  88:Generated_Source\PSoC6\pdl\middleware\ble/cy_ble_gap.h **** /***************************************
  89:Generated_Source\PSoC6\pdl\middleware\ble/cy_ble_gap.h **** * Type Definitions
  90:Generated_Source\PSoC6\pdl\middleware\ble/cy_ble_gap.h **** ***************************************/
  91:Generated_Source\PSoC6\pdl\middleware\ble/cy_ble_gap.h **** 
  92:Generated_Source\PSoC6\pdl\middleware\ble/cy_ble_gap.h **** #if (CY_BLE_MODE_PROFILE)
  93:Generated_Source\PSoC6\pdl\middleware\ble/cy_ble_gap.h **** 
  94:Generated_Source\PSoC6\pdl\middleware\ble/cy_ble_gap.h **** /***************************************
  95:Generated_Source\PSoC6\pdl\middleware\ble/cy_ble_gap.h **** * Enumerated Types and Structures
  96:Generated_Source\PSoC6\pdl\middleware\ble/cy_ble_gap.h **** ***************************************/
  97:Generated_Source\PSoC6\pdl\middleware\ble/cy_ble_gap.h **** 
  98:Generated_Source\PSoC6\pdl\middleware\ble/cy_ble_gap.h **** /**
  99:Generated_Source\PSoC6\pdl\middleware\ble/cy_ble_gap.h ****  * \addtogroup group_ble_common_api_gap_definitions
 100:Generated_Source\PSoC6\pdl\middleware\ble/cy_ble_gap.h ****  * @{
 101:Generated_Source\PSoC6\pdl\middleware\ble/cy_ble_gap.h ****  */
 102:Generated_Source\PSoC6\pdl\middleware\ble/cy_ble_gap.h **** 
 103:Generated_Source\PSoC6\pdl\middleware\ble/cy_ble_gap.h **** /** BLE state machine type */
 104:Generated_Source\PSoC6\pdl\middleware\ble/cy_ble_gap.h **** typedef enum
 105:Generated_Source\PSoC6\pdl\middleware\ble/cy_ble_gap.h **** {
 106:Generated_Source\PSoC6\pdl\middleware\ble/cy_ble_gap.h ****     CY_BLE_STATE_STOPPED,                             /**< BLE is turned off */
 107:Generated_Source\PSoC6\pdl\middleware\ble/cy_ble_gap.h ****     CY_BLE_STATE_INITIALIZING,                        /**< Initializing state */
 108:Generated_Source\PSoC6\pdl\middleware\ble/cy_ble_gap.h ****     CY_BLE_STATE_ON,                                  /**< BLE is turned on */
 109:Generated_Source\PSoC6\pdl\middleware\ble/cy_ble_gap.h **** #if (CY_BLE_GAP_ROLE_CENTRAL)
 110:Generated_Source\PSoC6\pdl\middleware\ble/cy_ble_gap.h ****     CY_BLE_STATE_CONNECTING,                          /**< Connecting */
 111:Generated_Source\PSoC6\pdl\middleware\ble/cy_ble_gap.h **** #endif /* CY_BLE_GAP_ROLE_CENTRAL */
 112:Generated_Source\PSoC6\pdl\middleware\ble/cy_ble_gap.h **** } cy_en_ble_state_t;
 113:Generated_Source\PSoC6\pdl\middleware\ble/cy_ble_gap.h **** 
 114:Generated_Source\PSoC6\pdl\middleware\ble/cy_ble_gap.h **** 
 115:Generated_Source\PSoC6\pdl\middleware\ble/cy_ble_gap.h **** /** Scanning state machine type */
 116:Generated_Source\PSoC6\pdl\middleware\ble/cy_ble_gap.h **** typedef enum
 117:Generated_Source\PSoC6\pdl\middleware\ble/cy_ble_gap.h **** {
 118:Generated_Source\PSoC6\pdl\middleware\ble/cy_ble_gap.h ****     CY_BLE_SCAN_STATE_STOPPED,                        /**< Scanning is stopped */
 119:Generated_Source\PSoC6\pdl\middleware\ble/cy_ble_gap.h ****     CY_BLE_SCAN_STATE_SCAN_INITIATED,                 /**< Scanning is initiated */
 120:Generated_Source\PSoC6\pdl\middleware\ble/cy_ble_gap.h ****     CY_BLE_SCAN_STATE_SCANNING,                       /**< Scanning process */
 121:Generated_Source\PSoC6\pdl\middleware\ble/cy_ble_gap.h ****     CY_BLE_SCAN_STATE_STOP_INITIATED                  /**< Stop scanning is initiated */
 122:Generated_Source\PSoC6\pdl\middleware\ble/cy_ble_gap.h **** } cy_en_ble_scan_state_t;
 123:Generated_Source\PSoC6\pdl\middleware\ble/cy_ble_gap.h **** 
 124:Generated_Source\PSoC6\pdl\middleware\ble/cy_ble_gap.h **** /** Advertising state machine type */
 125:Generated_Source\PSoC6\pdl\middleware\ble/cy_ble_gap.h **** typedef enum
 126:Generated_Source\PSoC6\pdl\middleware\ble/cy_ble_gap.h **** {
ARM GAS  C:\Users\gjl\AppData\Local\Temp\ccYWElnH.s 			page 19


 127:Generated_Source\PSoC6\pdl\middleware\ble/cy_ble_gap.h ****     CY_BLE_ADV_STATE_STOPPED,                         /**< Advertising is stopped */
 128:Generated_Source\PSoC6\pdl\middleware\ble/cy_ble_gap.h ****     CY_BLE_ADV_STATE_ADV_INITIATED,                   /**< Advertising is initiated */
 129:Generated_Source\PSoC6\pdl\middleware\ble/cy_ble_gap.h ****     CY_BLE_ADV_STATE_ADVERTISING,                     /**< Advertising process */
 130:Generated_Source\PSoC6\pdl\middleware\ble/cy_ble_gap.h ****     CY_BLE_ADV_STATE_STOP_INITIATED                   /**< Stop advertising is initiated */
 131:Generated_Source\PSoC6\pdl\middleware\ble/cy_ble_gap.h **** } cy_en_ble_adv_state_t;
 132:Generated_Source\PSoC6\pdl\middleware\ble/cy_ble_gap.h **** 
 133:Generated_Source\PSoC6\pdl\middleware\ble/cy_ble_gap.h **** /** Connection state machine type */
 134:Generated_Source\PSoC6\pdl\middleware\ble/cy_ble_gap.h **** typedef enum
 135:Generated_Source\PSoC6\pdl\middleware\ble/cy_ble_gap.h **** {
 136:Generated_Source\PSoC6\pdl\middleware\ble/cy_ble_gap.h ****     CY_BLE_CONN_STATE_DISCONNECTED,                   /**< Essentially idle state */
 137:Generated_Source\PSoC6\pdl\middleware\ble/cy_ble_gap.h ****     CY_BLE_CONN_STATE_CLIENT_DISCONNECTED_DISCOVERED, /**< Server is disconnected but discovered */
 138:Generated_Source\PSoC6\pdl\middleware\ble/cy_ble_gap.h ****     CY_BLE_CONN_STATE_CONNECTED,                      /**< Peer device is connected for this and fo
 139:Generated_Source\PSoC6\pdl\middleware\ble/cy_ble_gap.h ****     CY_BLE_CONN_STATE_CLIENT_SRVC_DISCOVERING,        /**< Server services are being discovered */
 140:Generated_Source\PSoC6\pdl\middleware\ble/cy_ble_gap.h ****     CY_BLE_CONN_STATE_CLIENT_INCL_DISCOVERING,        /**< Server included services are being disco
 141:Generated_Source\PSoC6\pdl\middleware\ble/cy_ble_gap.h ****     CY_BLE_CONN_STATE_CLIENT_CHAR_DISCOVERING,        /**< Server characteristics are being discove
 142:Generated_Source\PSoC6\pdl\middleware\ble/cy_ble_gap.h ****     CY_BLE_CONN_STATE_CLIENT_DESCR_DISCOVERING,       /**< Server char. descriptors are being disco
 143:Generated_Source\PSoC6\pdl\middleware\ble/cy_ble_gap.h ****     CY_BLE_CONN_STATE_CLIENT_DISCOVERED               /**< Server is discovered */
 144:Generated_Source\PSoC6\pdl\middleware\ble/cy_ble_gap.h **** } cy_en_ble_conn_state_t;
 145:Generated_Source\PSoC6\pdl\middleware\ble/cy_ble_gap.h **** 
 146:Generated_Source\PSoC6\pdl\middleware\ble/cy_ble_gap.h **** /** Structure with Generic Access Profile Service (GAPS) attribute handles */
 147:Generated_Source\PSoC6\pdl\middleware\ble/cy_ble_gap.h **** typedef struct
 148:Generated_Source\PSoC6\pdl\middleware\ble/cy_ble_gap.h **** {
 149:Generated_Source\PSoC6\pdl\middleware\ble/cy_ble_gap.h ****     /** Service handle*/
 150:Generated_Source\PSoC6\pdl\middleware\ble/cy_ble_gap.h ****     cy_ble_gatt_db_attr_handle_t serviceHandle;
 151:Generated_Source\PSoC6\pdl\middleware\ble/cy_ble_gap.h **** 
 152:Generated_Source\PSoC6\pdl\middleware\ble/cy_ble_gap.h ****     /** Handle of the GAPS Device Name Characteristic */
 153:Generated_Source\PSoC6\pdl\middleware\ble/cy_ble_gap.h ****     cy_ble_gatt_db_attr_handle_t deviceNameCharHandle;
 154:Generated_Source\PSoC6\pdl\middleware\ble/cy_ble_gap.h **** 
 155:Generated_Source\PSoC6\pdl\middleware\ble/cy_ble_gap.h ****     /** Handle of the GAPS Appearance Characteristic */
 156:Generated_Source\PSoC6\pdl\middleware\ble/cy_ble_gap.h ****     cy_ble_gatt_db_attr_handle_t appearanceCharHandle;
 157:Generated_Source\PSoC6\pdl\middleware\ble/cy_ble_gap.h **** 
 158:Generated_Source\PSoC6\pdl\middleware\ble/cy_ble_gap.h ****     /** Handle of the GAPS Peripheral Preferred Connection Parameters Characteristic */
 159:Generated_Source\PSoC6\pdl\middleware\ble/cy_ble_gap.h ****     cy_ble_gatt_db_attr_handle_t prefConnParamCharHandle;
 160:Generated_Source\PSoC6\pdl\middleware\ble/cy_ble_gap.h **** 
 161:Generated_Source\PSoC6\pdl\middleware\ble/cy_ble_gap.h ****     /** Handle of the GAPS Central Address Resolution characteristic */
 162:Generated_Source\PSoC6\pdl\middleware\ble/cy_ble_gap.h ****     cy_ble_gatt_db_attr_handle_t centralAddrResolutionCharHandle;
 163:Generated_Source\PSoC6\pdl\middleware\ble/cy_ble_gap.h **** 
 164:Generated_Source\PSoC6\pdl\middleware\ble/cy_ble_gap.h ****     /** Handle of the GAPS Resolvable Private Address Only characteristic */
 165:Generated_Source\PSoC6\pdl\middleware\ble/cy_ble_gap.h ****     cy_ble_gatt_db_attr_handle_t resolvablePrivateAddressOnly;
 166:Generated_Source\PSoC6\pdl\middleware\ble/cy_ble_gap.h **** } cy_stc_ble_gaps_t;
 167:Generated_Source\PSoC6\pdl\middleware\ble/cy_ble_gap.h **** 
 168:Generated_Source\PSoC6\pdl\middleware\ble/cy_ble_gap.h **** /** GAP Service characteristics server's GATT DB handles structure type */
 169:Generated_Source\PSoC6\pdl\middleware\ble/cy_ble_gap.h **** typedef struct
 170:Generated_Source\PSoC6\pdl\middleware\ble/cy_ble_gap.h **** {
 171:Generated_Source\PSoC6\pdl\middleware\ble/cy_ble_gap.h ****     /** Handle of the GAPS Device Name Characteristic */
 172:Generated_Source\PSoC6\pdl\middleware\ble/cy_ble_gap.h ****     cy_ble_gatt_db_attr_handle_t deviceNameCharHandle;
 173:Generated_Source\PSoC6\pdl\middleware\ble/cy_ble_gap.h **** 
 174:Generated_Source\PSoC6\pdl\middleware\ble/cy_ble_gap.h ****     /** Handle of the GAPS Appearance Characteristic */
 175:Generated_Source\PSoC6\pdl\middleware\ble/cy_ble_gap.h ****     cy_ble_gatt_db_attr_handle_t appearanceCharHandle;
 176:Generated_Source\PSoC6\pdl\middleware\ble/cy_ble_gap.h **** 
 177:Generated_Source\PSoC6\pdl\middleware\ble/cy_ble_gap.h ****     /** Handle of the GAPS Peripheral Privacy Flag Parameters Characteristic */
 178:Generated_Source\PSoC6\pdl\middleware\ble/cy_ble_gap.h ****     cy_ble_gatt_db_attr_handle_t periphPrivacyCharHandle;
 179:Generated_Source\PSoC6\pdl\middleware\ble/cy_ble_gap.h **** 
 180:Generated_Source\PSoC6\pdl\middleware\ble/cy_ble_gap.h ****     /** Handle of the GAPS Reconnection Address Characteristic */
 181:Generated_Source\PSoC6\pdl\middleware\ble/cy_ble_gap.h ****     cy_ble_gatt_db_attr_handle_t reconnAddrCharHandle;
 182:Generated_Source\PSoC6\pdl\middleware\ble/cy_ble_gap.h **** 
 183:Generated_Source\PSoC6\pdl\middleware\ble/cy_ble_gap.h ****     /** Handle of the GAPS Peripheral Preferred Connection Parameters Characteristic */
ARM GAS  C:\Users\gjl\AppData\Local\Temp\ccYWElnH.s 			page 20


 184:Generated_Source\PSoC6\pdl\middleware\ble/cy_ble_gap.h ****     cy_ble_gatt_db_attr_handle_t prefConnParamCharHandle;
 185:Generated_Source\PSoC6\pdl\middleware\ble/cy_ble_gap.h **** 
 186:Generated_Source\PSoC6\pdl\middleware\ble/cy_ble_gap.h ****     /** Handle of the GAPS Central Address Resolution characteristic */
 187:Generated_Source\PSoC6\pdl\middleware\ble/cy_ble_gap.h ****     cy_ble_gatt_db_attr_handle_t centralAddrResolutionCharHandle;
 188:Generated_Source\PSoC6\pdl\middleware\ble/cy_ble_gap.h **** 
 189:Generated_Source\PSoC6\pdl\middleware\ble/cy_ble_gap.h ****     /** Handle of the GAPS Resolvable Private Address Only characteristic */
 190:Generated_Source\PSoC6\pdl\middleware\ble/cy_ble_gap.h ****     cy_ble_gatt_db_attr_handle_t resolvablePrivateAddressOnly;
 191:Generated_Source\PSoC6\pdl\middleware\ble/cy_ble_gap.h **** }cy_stc_ble_gapc_t;
 192:Generated_Source\PSoC6\pdl\middleware\ble/cy_ble_gap.h **** 
 193:Generated_Source\PSoC6\pdl\middleware\ble/cy_ble_gap.h **** /* Stack mode defines */
 194:Generated_Source\PSoC6\pdl\middleware\ble/cy_ble_gap.h **** 
 195:Generated_Source\PSoC6\pdl\middleware\ble/cy_ble_gap.h **** /** Advertisement SIG assigned numbers */
 196:Generated_Source\PSoC6\pdl\middleware\ble/cy_ble_gap.h **** typedef enum
 197:Generated_Source\PSoC6\pdl\middleware\ble/cy_ble_gap.h **** {
 198:Generated_Source\PSoC6\pdl\middleware\ble/cy_ble_gap.h ****     /** Flags */
 199:Generated_Source\PSoC6\pdl\middleware\ble/cy_ble_gap.h ****     CY_BLE_GAP_ADV_FLAGS = 0x01u,
 200:Generated_Source\PSoC6\pdl\middleware\ble/cy_ble_gap.h **** 
 201:Generated_Source\PSoC6\pdl\middleware\ble/cy_ble_gap.h ****     /** Incomplete List of 16-bit Service Class UUIDs */
 202:Generated_Source\PSoC6\pdl\middleware\ble/cy_ble_gap.h ****     CY_BLE_GAP_ADV_INCOMPL_16UUID,
 203:Generated_Source\PSoC6\pdl\middleware\ble/cy_ble_gap.h **** 
 204:Generated_Source\PSoC6\pdl\middleware\ble/cy_ble_gap.h ****     /** Complete List of 16-bit Service Class UUIDs */
 205:Generated_Source\PSoC6\pdl\middleware\ble/cy_ble_gap.h ****     CY_BLE_GAP_ADV_COMPL_16UUID,
 206:Generated_Source\PSoC6\pdl\middleware\ble/cy_ble_gap.h **** 
 207:Generated_Source\PSoC6\pdl\middleware\ble/cy_ble_gap.h ****     /** Incomplete List of 32-bit Service Class UUIDs */
 208:Generated_Source\PSoC6\pdl\middleware\ble/cy_ble_gap.h ****     CY_BLE_GAP_ADV_INCOMPL_32_UUID,
 209:Generated_Source\PSoC6\pdl\middleware\ble/cy_ble_gap.h **** 
 210:Generated_Source\PSoC6\pdl\middleware\ble/cy_ble_gap.h ****     /** Complete List of 32-bit Service Class UUIDs */
 211:Generated_Source\PSoC6\pdl\middleware\ble/cy_ble_gap.h ****     CY_BLE_GAP_ADV_COMPL_32_UUID,
 212:Generated_Source\PSoC6\pdl\middleware\ble/cy_ble_gap.h **** 
 213:Generated_Source\PSoC6\pdl\middleware\ble/cy_ble_gap.h ****     /** Incomplete List of 128-bit Service Class UUIDs */
 214:Generated_Source\PSoC6\pdl\middleware\ble/cy_ble_gap.h ****     CY_BLE_GAP_ADV_INCOMPL_128_UUID,
 215:Generated_Source\PSoC6\pdl\middleware\ble/cy_ble_gap.h **** 
 216:Generated_Source\PSoC6\pdl\middleware\ble/cy_ble_gap.h ****     /** Complete List of 128-bit Service Class UUIDs */
 217:Generated_Source\PSoC6\pdl\middleware\ble/cy_ble_gap.h ****     CY_BLE_GAP_ADV_COMPL_128_UUID,
 218:Generated_Source\PSoC6\pdl\middleware\ble/cy_ble_gap.h **** 
 219:Generated_Source\PSoC6\pdl\middleware\ble/cy_ble_gap.h ****     /** Shortened Local Name */
 220:Generated_Source\PSoC6\pdl\middleware\ble/cy_ble_gap.h ****     CY_BLE_GAP_ADV_SHORT_NAME,
 221:Generated_Source\PSoC6\pdl\middleware\ble/cy_ble_gap.h **** 
 222:Generated_Source\PSoC6\pdl\middleware\ble/cy_ble_gap.h ****     /** Complete Local Name */
 223:Generated_Source\PSoC6\pdl\middleware\ble/cy_ble_gap.h ****     CY_BLE_GAP_ADV_COMPL_NAME,
 224:Generated_Source\PSoC6\pdl\middleware\ble/cy_ble_gap.h **** 
 225:Generated_Source\PSoC6\pdl\middleware\ble/cy_ble_gap.h ****     /** Tx Power Level */
 226:Generated_Source\PSoC6\pdl\middleware\ble/cy_ble_gap.h ****     CY_BLE_GAP_ADV_TX_PWR_LVL,
 227:Generated_Source\PSoC6\pdl\middleware\ble/cy_ble_gap.h **** 
 228:Generated_Source\PSoC6\pdl\middleware\ble/cy_ble_gap.h ****     /** Class of Device */
 229:Generated_Source\PSoC6\pdl\middleware\ble/cy_ble_gap.h ****     CY_BLE_GAP_ADV_CLASS_OF_DEVICE = 0x0Du,
 230:Generated_Source\PSoC6\pdl\middleware\ble/cy_ble_gap.h **** 
 231:Generated_Source\PSoC6\pdl\middleware\ble/cy_ble_gap.h ****     /** Simple Pairing Hash C */
 232:Generated_Source\PSoC6\pdl\middleware\ble/cy_ble_gap.h ****     CY_BLE_GAP_ADV_SMPL_PAIR_HASH_C,
 233:Generated_Source\PSoC6\pdl\middleware\ble/cy_ble_gap.h **** 
 234:Generated_Source\PSoC6\pdl\middleware\ble/cy_ble_gap.h ****     /** Simple Pairing Randomizer R */
 235:Generated_Source\PSoC6\pdl\middleware\ble/cy_ble_gap.h ****     CY_BLE_GAP_ADV_SMPL_PAIR_RANDOM_R,
 236:Generated_Source\PSoC6\pdl\middleware\ble/cy_ble_gap.h **** 
 237:Generated_Source\PSoC6\pdl\middleware\ble/cy_ble_gap.h ****     /** Device ID*/
 238:Generated_Source\PSoC6\pdl\middleware\ble/cy_ble_gap.h ****     CY_BLE_GAP_ADV_DEVICE_ID,
 239:Generated_Source\PSoC6\pdl\middleware\ble/cy_ble_gap.h **** 
 240:Generated_Source\PSoC6\pdl\middleware\ble/cy_ble_gap.h ****     /** Security Manager TK Value */
ARM GAS  C:\Users\gjl\AppData\Local\Temp\ccYWElnH.s 			page 21


 241:Generated_Source\PSoC6\pdl\middleware\ble/cy_ble_gap.h ****     CY_BLE_GAP_ADV_SCRT_MNGR_TK_VAL = 0x10u,
 242:Generated_Source\PSoC6\pdl\middleware\ble/cy_ble_gap.h **** 
 243:Generated_Source\PSoC6\pdl\middleware\ble/cy_ble_gap.h ****     /** Security Manager Out of Band Flags */
 244:Generated_Source\PSoC6\pdl\middleware\ble/cy_ble_gap.h ****     CY_BLE_GAP_ADV_SCRT_MNGR_OOB_FLAGS,
 245:Generated_Source\PSoC6\pdl\middleware\ble/cy_ble_gap.h **** 
 246:Generated_Source\PSoC6\pdl\middleware\ble/cy_ble_gap.h ****     /** Slave Connection Interval Range */
 247:Generated_Source\PSoC6\pdl\middleware\ble/cy_ble_gap.h ****     CY_BLE_GAP_ADV_SLAVE_CONN_INTRV_RANGE,
 248:Generated_Source\PSoC6\pdl\middleware\ble/cy_ble_gap.h **** 
 249:Generated_Source\PSoC6\pdl\middleware\ble/cy_ble_gap.h ****     /** List of 16-bit Service Solicitation UUIDs */
 250:Generated_Source\PSoC6\pdl\middleware\ble/cy_ble_gap.h ****     CY_BLE_GAP_ADV_SOLICIT_16UUID = 0x14u,
 251:Generated_Source\PSoC6\pdl\middleware\ble/cy_ble_gap.h **** 
 252:Generated_Source\PSoC6\pdl\middleware\ble/cy_ble_gap.h ****     /** List of 128-bit Service Solicitation UUIDs */
 253:Generated_Source\PSoC6\pdl\middleware\ble/cy_ble_gap.h ****     CY_BLE_GAP_ADV_SOLICIT_128UUID,
 254:Generated_Source\PSoC6\pdl\middleware\ble/cy_ble_gap.h **** 
 255:Generated_Source\PSoC6\pdl\middleware\ble/cy_ble_gap.h ****     /** Service Data - 16-bit UUID */
 256:Generated_Source\PSoC6\pdl\middleware\ble/cy_ble_gap.h ****     CY_BLE_GAP_ADV_SRVC_DATA_16UUID,
 257:Generated_Source\PSoC6\pdl\middleware\ble/cy_ble_gap.h **** 
 258:Generated_Source\PSoC6\pdl\middleware\ble/cy_ble_gap.h ****     /** Public Target Address */
 259:Generated_Source\PSoC6\pdl\middleware\ble/cy_ble_gap.h ****     CY_BLE_GAP_ADV_PUBLIC_TARGET_ADDR,
 260:Generated_Source\PSoC6\pdl\middleware\ble/cy_ble_gap.h **** 
 261:Generated_Source\PSoC6\pdl\middleware\ble/cy_ble_gap.h ****     /** Random Target Address */
 262:Generated_Source\PSoC6\pdl\middleware\ble/cy_ble_gap.h ****     CY_BLE_GAP_ADV_RANDOM_TARGET_ADDR,
 263:Generated_Source\PSoC6\pdl\middleware\ble/cy_ble_gap.h **** 
 264:Generated_Source\PSoC6\pdl\middleware\ble/cy_ble_gap.h ****     /** Appearance */
 265:Generated_Source\PSoC6\pdl\middleware\ble/cy_ble_gap.h ****     CY_BLE_GAP_ADV_APPEARANCE,
 266:Generated_Source\PSoC6\pdl\middleware\ble/cy_ble_gap.h **** 
 267:Generated_Source\PSoC6\pdl\middleware\ble/cy_ble_gap.h ****     /** Advertising Interval */
 268:Generated_Source\PSoC6\pdl\middleware\ble/cy_ble_gap.h ****     CY_BLE_GAP_ADV_ADVERT_INTERVAL,
 269:Generated_Source\PSoC6\pdl\middleware\ble/cy_ble_gap.h **** 
 270:Generated_Source\PSoC6\pdl\middleware\ble/cy_ble_gap.h ****     /** LE Bluetooth Device Address */
 271:Generated_Source\PSoC6\pdl\middleware\ble/cy_ble_gap.h ****     CY_BLE_GAP_ADV_LE_BT_DEVICE_ADDR,
 272:Generated_Source\PSoC6\pdl\middleware\ble/cy_ble_gap.h **** 
 273:Generated_Source\PSoC6\pdl\middleware\ble/cy_ble_gap.h ****     /** LE Role */
 274:Generated_Source\PSoC6\pdl\middleware\ble/cy_ble_gap.h ****     CY_BLE_GAP_ADV_LE_ROLE,
 275:Generated_Source\PSoC6\pdl\middleware\ble/cy_ble_gap.h **** 
 276:Generated_Source\PSoC6\pdl\middleware\ble/cy_ble_gap.h ****     /** Simple Pairing Hash C-256 */
 277:Generated_Source\PSoC6\pdl\middleware\ble/cy_ble_gap.h ****     CY_BLE_GAP_ADV_SMPL_PAIR_HASH_C256,
 278:Generated_Source\PSoC6\pdl\middleware\ble/cy_ble_gap.h **** 
 279:Generated_Source\PSoC6\pdl\middleware\ble/cy_ble_gap.h ****     /** Simple Pairing Randomizer R-256 */
 280:Generated_Source\PSoC6\pdl\middleware\ble/cy_ble_gap.h ****     CY_BLE_GAP_ADV_SMPL_PAIR_RANDOM_R256,
 281:Generated_Source\PSoC6\pdl\middleware\ble/cy_ble_gap.h **** 
 282:Generated_Source\PSoC6\pdl\middleware\ble/cy_ble_gap.h ****     /** List of 32-bit Service Solicitation UUIDs */
 283:Generated_Source\PSoC6\pdl\middleware\ble/cy_ble_gap.h ****     CY_BLE_GAP_ADV_SOLICIT_32UUID,
 284:Generated_Source\PSoC6\pdl\middleware\ble/cy_ble_gap.h **** 
 285:Generated_Source\PSoC6\pdl\middleware\ble/cy_ble_gap.h ****     /** Service Data - 32-bit UUID */
 286:Generated_Source\PSoC6\pdl\middleware\ble/cy_ble_gap.h ****     CY_BLE_GAP_ADV_SRVC_DATA_32UUID,
 287:Generated_Source\PSoC6\pdl\middleware\ble/cy_ble_gap.h **** 
 288:Generated_Source\PSoC6\pdl\middleware\ble/cy_ble_gap.h ****     /** Service Data - 128-bit UUID */
 289:Generated_Source\PSoC6\pdl\middleware\ble/cy_ble_gap.h ****     CY_BLE_GAP_ADV_SRVC_DATA_128UUID,
 290:Generated_Source\PSoC6\pdl\middleware\ble/cy_ble_gap.h **** 
 291:Generated_Source\PSoC6\pdl\middleware\ble/cy_ble_gap.h ****     /** 3D Information Data */
 292:Generated_Source\PSoC6\pdl\middleware\ble/cy_ble_gap.h ****     CY_BLE_GAP_ADV_3D_INFO_DATA = 0x3D,
 293:Generated_Source\PSoC6\pdl\middleware\ble/cy_ble_gap.h **** 
 294:Generated_Source\PSoC6\pdl\middleware\ble/cy_ble_gap.h ****     /** Manufacturer Specific Data */
 295:Generated_Source\PSoC6\pdl\middleware\ble/cy_ble_gap.h ****     CY_BLE_GAP_ADV_MANUFACTURER_SPECIFIC_DATA = 0xFF
 296:Generated_Source\PSoC6\pdl\middleware\ble/cy_ble_gap.h **** }cy_en_ble_gap_adv_assign_numbers_t;
 297:Generated_Source\PSoC6\pdl\middleware\ble/cy_ble_gap.h **** 
ARM GAS  C:\Users\gjl\AppData\Local\Temp\ccYWElnH.s 			page 22


 298:Generated_Source\PSoC6\pdl\middleware\ble/cy_ble_gap.h **** /** GAPP advertising configuration parameters structure */
 299:Generated_Source\PSoC6\pdl\middleware\ble/cy_ble_gap.h **** typedef struct
 300:Generated_Source\PSoC6\pdl\middleware\ble/cy_ble_gap.h **** {
 301:Generated_Source\PSoC6\pdl\middleware\ble/cy_ble_gap.h ****     /** The minimum interval for fast advertising the data and establishing the LE Connection */
 302:Generated_Source\PSoC6\pdl\middleware\ble/cy_ble_gap.h ****     uint16_t fastAdvIntervalMin;
 303:Generated_Source\PSoC6\pdl\middleware\ble/cy_ble_gap.h **** 
 304:Generated_Source\PSoC6\pdl\middleware\ble/cy_ble_gap.h ****     /** The maximum interval for fast advertising the data and establishing the LE Connection */
 305:Generated_Source\PSoC6\pdl\middleware\ble/cy_ble_gap.h ****     uint16_t fastAdvIntervalMax;
 306:Generated_Source\PSoC6\pdl\middleware\ble/cy_ble_gap.h **** 
 307:Generated_Source\PSoC6\pdl\middleware\ble/cy_ble_gap.h ****     /** The timeout value of  fast advertising with fast advertising interval parameters */
 308:Generated_Source\PSoC6\pdl\middleware\ble/cy_ble_gap.h ****     uint16_t fastAdvTimeOut;
 309:Generated_Source\PSoC6\pdl\middleware\ble/cy_ble_gap.h **** 
 310:Generated_Source\PSoC6\pdl\middleware\ble/cy_ble_gap.h ****     /** Slow advertising enable */
 311:Generated_Source\PSoC6\pdl\middleware\ble/cy_ble_gap.h ****     uint8_t  slowAdvEnable;
 312:Generated_Source\PSoC6\pdl\middleware\ble/cy_ble_gap.h **** 
 313:Generated_Source\PSoC6\pdl\middleware\ble/cy_ble_gap.h ****     /** The minimum interval for slow advertising the data and establishing the LE Connection */
 314:Generated_Source\PSoC6\pdl\middleware\ble/cy_ble_gap.h ****     uint16_t slowAdvIntervalMin;
 315:Generated_Source\PSoC6\pdl\middleware\ble/cy_ble_gap.h **** 
 316:Generated_Source\PSoC6\pdl\middleware\ble/cy_ble_gap.h ****     /** The maximum interval for slow  advertising the data and establishing the LE Connection */
 317:Generated_Source\PSoC6\pdl\middleware\ble/cy_ble_gap.h ****     uint16_t slowAdvIntervalMax;
 318:Generated_Source\PSoC6\pdl\middleware\ble/cy_ble_gap.h **** 
 319:Generated_Source\PSoC6\pdl\middleware\ble/cy_ble_gap.h ****     /** The timeout value of slow advertising with slow advertising interval parameters */
 320:Generated_Source\PSoC6\pdl\middleware\ble/cy_ble_gap.h ****     uint16_t slowAdvTimeOut;
 321:Generated_Source\PSoC6\pdl\middleware\ble/cy_ble_gap.h **** }cy_stc_ble_gapp_adv_params_t;
 322:Generated_Source\PSoC6\pdl\middleware\ble/cy_ble_gap.h **** 
 323:Generated_Source\PSoC6\pdl\middleware\ble/cy_ble_gap.h **** /** GAPC advertising configuration parameters structure */
 324:Generated_Source\PSoC6\pdl\middleware\ble/cy_ble_gap.h **** typedef struct
 325:Generated_Source\PSoC6\pdl\middleware\ble/cy_ble_gap.h **** {
 326:Generated_Source\PSoC6\pdl\middleware\ble/cy_ble_gap.h ****     /** The scan interval when operating in Fast connection */
 327:Generated_Source\PSoC6\pdl\middleware\ble/cy_ble_gap.h ****     uint16_t fastScanInterval;
 328:Generated_Source\PSoC6\pdl\middleware\ble/cy_ble_gap.h **** 
 329:Generated_Source\PSoC6\pdl\middleware\ble/cy_ble_gap.h ****     /** Defines the scan window when operating in Fast connection */
 330:Generated_Source\PSoC6\pdl\middleware\ble/cy_ble_gap.h ****     uint16_t fastScanWindow;
 331:Generated_Source\PSoC6\pdl\middleware\ble/cy_ble_gap.h **** 
 332:Generated_Source\PSoC6\pdl\middleware\ble/cy_ble_gap.h ****     /** The timeout value of scanning with fast scan parameters */
 333:Generated_Source\PSoC6\pdl\middleware\ble/cy_ble_gap.h ****     uint16_t fastScanTimeOut;
 334:Generated_Source\PSoC6\pdl\middleware\ble/cy_ble_gap.h **** 
 335:Generated_Source\PSoC6\pdl\middleware\ble/cy_ble_gap.h ****     /** Slow scan enable/disable */
 336:Generated_Source\PSoC6\pdl\middleware\ble/cy_ble_gap.h ****     uint8_t  slowScanEnabled;
 337:Generated_Source\PSoC6\pdl\middleware\ble/cy_ble_gap.h **** 
 338:Generated_Source\PSoC6\pdl\middleware\ble/cy_ble_gap.h ****     /** The scan interval when operating in Slow connection */
 339:Generated_Source\PSoC6\pdl\middleware\ble/cy_ble_gap.h ****     uint16_t slowScanInterval;
 340:Generated_Source\PSoC6\pdl\middleware\ble/cy_ble_gap.h **** 
 341:Generated_Source\PSoC6\pdl\middleware\ble/cy_ble_gap.h ****     /** Defines the scan window when operating in Slow connection */
 342:Generated_Source\PSoC6\pdl\middleware\ble/cy_ble_gap.h ****     uint16_t slowScanWindow;
 343:Generated_Source\PSoC6\pdl\middleware\ble/cy_ble_gap.h **** 
 344:Generated_Source\PSoC6\pdl\middleware\ble/cy_ble_gap.h ****     /** The timeout value of scanning with Slow scan parameters */
 345:Generated_Source\PSoC6\pdl\middleware\ble/cy_ble_gap.h ****     uint16_t slowScanTimeOut;
 346:Generated_Source\PSoC6\pdl\middleware\ble/cy_ble_gap.h **** 
 347:Generated_Source\PSoC6\pdl\middleware\ble/cy_ble_gap.h ****     /** The minimum permissible connection time value to be used during a connection event */
 348:Generated_Source\PSoC6\pdl\middleware\ble/cy_ble_gap.h ****     uint16_t gapcConnectionIntervalMin;
 349:Generated_Source\PSoC6\pdl\middleware\ble/cy_ble_gap.h **** 
 350:Generated_Source\PSoC6\pdl\middleware\ble/cy_ble_gap.h ****     /** The maximum permissible connection time value to be used during a connection event */
 351:Generated_Source\PSoC6\pdl\middleware\ble/cy_ble_gap.h ****     uint16_t gapcConnectionIntervalMax;
 352:Generated_Source\PSoC6\pdl\middleware\ble/cy_ble_gap.h **** 
 353:Generated_Source\PSoC6\pdl\middleware\ble/cy_ble_gap.h ****     /** Defines the maximum time between two received Data Packet PDUs before
 354:Generated_Source\PSoC6\pdl\middleware\ble/cy_ble_gap.h ****      *  the connection is considered lost */
ARM GAS  C:\Users\gjl\AppData\Local\Temp\ccYWElnH.s 			page 23


 355:Generated_Source\PSoC6\pdl\middleware\ble/cy_ble_gap.h ****     uint16_t gapcConnectionSlaveLatency;
 356:Generated_Source\PSoC6\pdl\middleware\ble/cy_ble_gap.h **** 
 357:Generated_Source\PSoC6\pdl\middleware\ble/cy_ble_gap.h ****     /** Defines the LE link supervision timeout interval */
 358:Generated_Source\PSoC6\pdl\middleware\ble/cy_ble_gap.h ****     uint16_t gapcConnectionTimeOut;
 359:Generated_Source\PSoC6\pdl\middleware\ble/cy_ble_gap.h **** }cy_stc_ble_gapc_scan_params_t;
 360:Generated_Source\PSoC6\pdl\middleware\ble/cy_ble_gap.h **** 
 361:Generated_Source\PSoC6\pdl\middleware\ble/cy_ble_gap.h **** /** Store BLE Application Data parameter into flash */
 362:Generated_Source\PSoC6\pdl\middleware\ble/cy_ble_gap.h **** typedef struct
 363:Generated_Source\PSoC6\pdl\middleware\ble/cy_ble_gap.h **** {
 364:Generated_Source\PSoC6\pdl\middleware\ble/cy_ble_gap.h ****     /** Source buffer */
 365:Generated_Source\PSoC6\pdl\middleware\ble/cy_ble_gap.h ****     const uint8_t *srcBuff;
 366:Generated_Source\PSoC6\pdl\middleware\ble/cy_ble_gap.h **** 
 367:Generated_Source\PSoC6\pdl\middleware\ble/cy_ble_gap.h ****     /** Destination buffer */
 368:Generated_Source\PSoC6\pdl\middleware\ble/cy_ble_gap.h ****     const uint8_t *destAddr;
 369:Generated_Source\PSoC6\pdl\middleware\ble/cy_ble_gap.h **** 
 370:Generated_Source\PSoC6\pdl\middleware\ble/cy_ble_gap.h ****     /** Source buffer length */
 371:Generated_Source\PSoC6\pdl\middleware\ble/cy_ble_gap.h ****     uint32_t      buffLen;
 372:Generated_Source\PSoC6\pdl\middleware\ble/cy_ble_gap.h ****     
 373:Generated_Source\PSoC6\pdl\middleware\ble/cy_ble_gap.h ****     /** Write mode: blocking (default) / non-blocking */
 374:Generated_Source\PSoC6\pdl\middleware\ble/cy_ble_gap.h ****     uint32_t      writeMode;
 375:Generated_Source\PSoC6\pdl\middleware\ble/cy_ble_gap.h ****     
 376:Generated_Source\PSoC6\pdl\middleware\ble/cy_ble_gap.h **** } cy_stc_ble_app_flash_param_t;
 377:Generated_Source\PSoC6\pdl\middleware\ble/cy_ble_gap.h **** 
 378:Generated_Source\PSoC6\pdl\middleware\ble/cy_ble_gap.h **** /** @} group_ble_common_api_gap_definitions */
 379:Generated_Source\PSoC6\pdl\middleware\ble/cy_ble_gap.h ****  
 380:Generated_Source\PSoC6\pdl\middleware\ble/cy_ble_gap.h **** /***************************************
 381:Generated_Source\PSoC6\pdl\middleware\ble/cy_ble_gap.h **** * API Constants
 382:Generated_Source\PSoC6\pdl\middleware\ble/cy_ble_gap.h **** ***************************************/
 383:Generated_Source\PSoC6\pdl\middleware\ble/cy_ble_gap.h **** #define CY_BLE_AD_TYPE_MORE16UUID                  (0x02u)
 384:Generated_Source\PSoC6\pdl\middleware\ble/cy_ble_gap.h **** #define CY_BLE_AD_TYPE_CMPL16UUID                  (0x03u)
 385:Generated_Source\PSoC6\pdl\middleware\ble/cy_ble_gap.h **** #define CY_BLE_AD_TYPE_MORE32UUID                  (0x04u)
 386:Generated_Source\PSoC6\pdl\middleware\ble/cy_ble_gap.h **** #define CY_BLE_AD_TYPE_CMPL32UUID                  (0x05u)
 387:Generated_Source\PSoC6\pdl\middleware\ble/cy_ble_gap.h **** #define CY_BLE_AD_TYPE_MORE128UUID                 (0x06u)
 388:Generated_Source\PSoC6\pdl\middleware\ble/cy_ble_gap.h **** #define CY_BLE_AD_TYPE_CMPL128UUID                 (0x07u)
 389:Generated_Source\PSoC6\pdl\middleware\ble/cy_ble_gap.h **** 
 390:Generated_Source\PSoC6\pdl\middleware\ble/cy_ble_gap.h **** #define CY_BLE_AD_TYPE_SERVICE_DATA                (0x16u)
 391:Generated_Source\PSoC6\pdl\middleware\ble/cy_ble_gap.h **** #define CY_BLE_AD_SERVICE_DATA_OVERHEAD            (0x03u)
 392:Generated_Source\PSoC6\pdl\middleware\ble/cy_ble_gap.h **** 
 393:Generated_Source\PSoC6\pdl\middleware\ble/cy_ble_gap.h **** #define CY_BLE_DISCOVERY_IDLE                      (0x00u)
 394:Generated_Source\PSoC6\pdl\middleware\ble/cy_ble_gap.h **** #define CY_BLE_DISCOVERY_SERVICE                   (0x01u)
 395:Generated_Source\PSoC6\pdl\middleware\ble/cy_ble_gap.h **** #define CY_BLE_DISCOVERY_CHAR                      (0x02u)
 396:Generated_Source\PSoC6\pdl\middleware\ble/cy_ble_gap.h **** #define CY_BLE_DISCOVERY_DESCR                     (0x03u)
 397:Generated_Source\PSoC6\pdl\middleware\ble/cy_ble_gap.h **** #define CY_BLE_DISCOVERY_DONE                      (0x04u)
 398:Generated_Source\PSoC6\pdl\middleware\ble/cy_ble_gap.h **** 
 399:Generated_Source\PSoC6\pdl\middleware\ble/cy_ble_gap.h **** /* Cy_BLE_NextCharDscrDiscovery parameters */
 400:Generated_Source\PSoC6\pdl\middleware\ble/cy_ble_gap.h **** #define CY_BLE_DISCOVERY_INIT                      (0x00u)
 401:Generated_Source\PSoC6\pdl\middleware\ble/cy_ble_gap.h **** #define CY_BLE_DISCOVERY_CONTINUE                  (0x01u)
 402:Generated_Source\PSoC6\pdl\middleware\ble/cy_ble_gap.h **** 
 403:Generated_Source\PSoC6\pdl\middleware\ble/cy_ble_gap.h **** #define CY_BLE_SFLASH_DIE_X_MASK                   (0x3Fu)
 404:Generated_Source\PSoC6\pdl\middleware\ble/cy_ble_gap.h **** #define CY_BLE_SFLASH_DIE_X_BITS                   (6u)
 405:Generated_Source\PSoC6\pdl\middleware\ble/cy_ble_gap.h **** #define CY_BLE_SFLASH_DIE_Y_MASK                   (0x3Fu)
 406:Generated_Source\PSoC6\pdl\middleware\ble/cy_ble_gap.h **** #define CY_BLE_SFLASH_DIE_Y_BITS                   (6u)
 407:Generated_Source\PSoC6\pdl\middleware\ble/cy_ble_gap.h **** #define CY_BLE_SFLASH_DIE_XY_BITS                  (CY_BLE_SFLASH_DIE_X_BITS + CY_BLE_SFLASH_DIE_Y_
 408:Generated_Source\PSoC6\pdl\middleware\ble/cy_ble_gap.h **** #define CY_BLE_SFLASH_DIE_WAFER_MASK               (0x1Fu)
 409:Generated_Source\PSoC6\pdl\middleware\ble/cy_ble_gap.h **** #define CY_BLE_SFLASH_DIE_WAFER_BITS               (5u)
 410:Generated_Source\PSoC6\pdl\middleware\ble/cy_ble_gap.h **** #define CY_BLE_SFLASH_DIE_XYWAFER_BITS             (CY_BLE_SFLASH_DIE_XY_BITS + CY_BLE_SFLASH_DIE_W
 411:Generated_Source\PSoC6\pdl\middleware\ble/cy_ble_gap.h **** #define CY_BLE_SFLASH_DIE_LOT_MASK                 (0x7Fu)
ARM GAS  C:\Users\gjl\AppData\Local\Temp\ccYWElnH.s 			page 24


 412:Generated_Source\PSoC6\pdl\middleware\ble/cy_ble_gap.h **** #define CY_BLE_SFLASH_DIE_LOT_BITS                 (7u)
 413:Generated_Source\PSoC6\pdl\middleware\ble/cy_ble_gap.h **** 
 414:Generated_Source\PSoC6\pdl\middleware\ble/cy_ble_gap.h **** /* Device address stored by user in ROW4 of the SFLASH */
 415:Generated_Source\PSoC6\pdl\middleware\ble/cy_ble_gap.h **** #define CY_BLE_SFLASH_DEVICE_ADDRESS_PTR           ((cy_stc_ble_gap_bd_addr_t*)(SFLASH->BLE_DEVICE_
 416:Generated_Source\PSoC6\pdl\middleware\ble/cy_ble_gap.h **** #define CY_BLE_AD_STRUCTURE_MAX_LENGTH             (31u)
 417:Generated_Source\PSoC6\pdl\middleware\ble/cy_ble_gap.h **** 
 418:Generated_Source\PSoC6\pdl\middleware\ble/cy_ble_gap.h **** /* AD types for complete, shortened local name and device address */
 419:Generated_Source\PSoC6\pdl\middleware\ble/cy_ble_gap.h **** #define CY_BLE_SHORT_LOCAL_NAME                    (0x08u)  /**< Shortened Local Name */
 420:Generated_Source\PSoC6\pdl\middleware\ble/cy_ble_gap.h **** #define CY_BLE_COMPLETE_LOCAL_NAME                 (0x09u)  /**< Complete Local Name */
 421:Generated_Source\PSoC6\pdl\middleware\ble/cy_ble_gap.h **** #define CY_BLE_ADV_DEVICE_ADDR                     (0x1Bu)  /**< LE Bluetooth Device Address */
 422:Generated_Source\PSoC6\pdl\middleware\ble/cy_ble_gap.h **** 
 423:Generated_Source\PSoC6\pdl\middleware\ble/cy_ble_gap.h **** #define CY_BLE_ADVERTISING_FAST                    (0x00u)
 424:Generated_Source\PSoC6\pdl\middleware\ble/cy_ble_gap.h **** #define CY_BLE_ADVERTISING_SLOW                    (0x01u)
 425:Generated_Source\PSoC6\pdl\middleware\ble/cy_ble_gap.h **** #define CY_BLE_ADVERTISING_CUSTOM                  (0x02u)
 426:Generated_Source\PSoC6\pdl\middleware\ble/cy_ble_gap.h **** 
 427:Generated_Source\PSoC6\pdl\middleware\ble/cy_ble_gap.h **** #define CY_BLE_SCANNING_FAST                       (0x00u)
 428:Generated_Source\PSoC6\pdl\middleware\ble/cy_ble_gap.h **** #define CY_BLE_SCANNING_SLOW                       (0x01u)
 429:Generated_Source\PSoC6\pdl\middleware\ble/cy_ble_gap.h **** #define CY_BLE_SCANNING_CUSTOM                     (0x02u)
 430:Generated_Source\PSoC6\pdl\middleware\ble/cy_ble_gap.h **** 
 431:Generated_Source\PSoC6\pdl\middleware\ble/cy_ble_gap.h **** #define CY_BLE_PENDING_STACK_FLASH_WRITE_BIT       (0x01u)
 432:Generated_Source\PSoC6\pdl\middleware\ble/cy_ble_gap.h **** #define CY_BLE_PENDING_CCCD_FLASH_WRITE_BIT        (0x02u)
 433:Generated_Source\PSoC6\pdl\middleware\ble/cy_ble_gap.h **** #define CY_BLE_PENDING_CCCD_FLASH_CLEAR_BIT        (0x04u)
 434:Generated_Source\PSoC6\pdl\middleware\ble/cy_ble_gap.h **** #define CY_BLE_PENDING_CCCD_FLASH_CLEAR_ALL_BIT    (0x08u)
 435:Generated_Source\PSoC6\pdl\middleware\ble/cy_ble_gap.h **** #define CY_BLE_PENDING_CCCD_FLASH_CLEAR_MASK \
 436:Generated_Source\PSoC6\pdl\middleware\ble/cy_ble_gap.h ****     (CY_BLE_PENDING_CCCD_FLASH_CLEAR_BIT | CY_BLE_PENDING_CCCD_FLASH_CLEAR_ALL_BIT)
 437:Generated_Source\PSoC6\pdl\middleware\ble/cy_ble_gap.h ****   
 438:Generated_Source\PSoC6\pdl\middleware\ble/cy_ble_gap.h **** /**
 439:Generated_Source\PSoC6\pdl\middleware\ble/cy_ble_gap.h ****  * \addtogroup group_ble_common_api_macros
 440:Generated_Source\PSoC6\pdl\middleware\ble/cy_ble_gap.h ****  * @{
 441:Generated_Source\PSoC6\pdl\middleware\ble/cy_ble_gap.h ****  */
 442:Generated_Source\PSoC6\pdl\middleware\ble/cy_ble_gap.h ****  
 443:Generated_Source\PSoC6\pdl\middleware\ble/cy_ble_gap.h **** /* GAP Advertisement Flags */
 444:Generated_Source\PSoC6\pdl\middleware\ble/cy_ble_gap.h **** #define CY_BLE_GAP_ADV_FLAG_LE_LIMITED_DISC_MODE        (0x01u)     /**< LE Limited Discoverable Mo
 445:Generated_Source\PSoC6\pdl\middleware\ble/cy_ble_gap.h **** #define CY_BLE_GAP_ADV_FLAG_LE_GENERAL_DISC_MODE        (0x02u)     /**< LE General Discoverable Mo
 446:Generated_Source\PSoC6\pdl\middleware\ble/cy_ble_gap.h **** #define CY_BLE_GAP_ADV_FLAG_BR_EDR_NOT_SUPPORTED        (0x04u)     /**< BR/EDR not supported. */
 447:Generated_Source\PSoC6\pdl\middleware\ble/cy_ble_gap.h **** #define CY_BLE_GAP_ADV_FLAG_LE_BR_EDR_CONTROLLER        (0x08u)     /**< Simultaneous LE and BR/EDR
 448:Generated_Source\PSoC6\pdl\middleware\ble/cy_ble_gap.h **** #define CY_BLE_GAP_ADV_FLAG_LE_BR_EDR_HOST              (0x10u)     /**< Simultaneous LE and BR/EDR
 449:Generated_Source\PSoC6\pdl\middleware\ble/cy_ble_gap.h **** #define CY_BLE_GAP_ADV_FLAGS_PACKET_LENGTH              (0x02u)     /**< Length of flags in an adve
 450:Generated_Source\PSoC6\pdl\middleware\ble/cy_ble_gap.h **** 
 451:Generated_Source\PSoC6\pdl\middleware\ble/cy_ble_gap.h **** /* GAP Advertising interval min and max */
 452:Generated_Source\PSoC6\pdl\middleware\ble/cy_ble_gap.h **** #define CY_BLE_GAP_ADV_ADVERT_INTERVAL_MIN              (0x0020u)   /**< Minimum Advertising interv
 453:Generated_Source\PSoC6\pdl\middleware\ble/cy_ble_gap.h ****                                                                      *   i.e. 20 ms. */
 454:Generated_Source\PSoC6\pdl\middleware\ble/cy_ble_gap.h **** #define CY_BLE_GAP_ADV_ADVERT_INTERVAL_NONCON_MIN       (0x00A0u)   /**< Minimum Advertising interv
 455:Generated_Source\PSoC6\pdl\middleware\ble/cy_ble_gap.h ****                                                                      *   for non connectable mode, 
 456:Generated_Source\PSoC6\pdl\middleware\ble/cy_ble_gap.h **** #define CY_BLE_GAP_ADV_ADVERT_INTERVAL_MAX              (0x4000u)   /**< Maximum Advertising interv
 457:Generated_Source\PSoC6\pdl\middleware\ble/cy_ble_gap.h ****                                                                      *   i.e. 10.24 s. */
 458:Generated_Source\PSoC6\pdl\middleware\ble/cy_ble_gap.h **** #define CY_BLE_GAP_ADV_ADVERT_INTERVAL_PACKET_LENGTH    (0x03u)     /**< Length of the Advertising 
 459:Generated_Source\PSoC6\pdl\middleware\ble/cy_ble_gap.h ****                                                                      *   an advertisement packet */
 460:Generated_Source\PSoC6\pdl\middleware\ble/cy_ble_gap.h **** #define CY_BLE_GAPC_CONNECTING_TIMEOUT                  (30u)       /**< Seconds */
 461:Generated_Source\PSoC6\pdl\middleware\ble/cy_ble_gap.h **** #define CY_BLE_INVALID_CONN_HANDLE_VALUE                (0xFFu)     /**< Invalid Connection Handle 
 462:Generated_Source\PSoC6\pdl\middleware\ble/cy_ble_gap.h **** 
 463:Generated_Source\PSoC6\pdl\middleware\ble/cy_ble_gap.h **** /* Write mode for Cy_BLE_StoreAppData */
 464:Generated_Source\PSoC6\pdl\middleware\ble/cy_ble_gap.h **** #define CY_BLE_STORE_DATA_MODE_BLOCKING                 (0x0u)      /**< Blocking write */
 465:Generated_Source\PSoC6\pdl\middleware\ble/cy_ble_gap.h **** #define CY_BLE_STORE_DATA_MODE_NON_BLOCKING             (0x1u)      /**< Non-blocking write */
 466:Generated_Source\PSoC6\pdl\middleware\ble/cy_ble_gap.h **** 
 467:Generated_Source\PSoC6\pdl\middleware\ble/cy_ble_gap.h **** /** @} group_ble_common_api_macros */
 468:Generated_Source\PSoC6\pdl\middleware\ble/cy_ble_gap.h **** 
ARM GAS  C:\Users\gjl\AppData\Local\Temp\ccYWElnH.s 			page 25


 469:Generated_Source\PSoC6\pdl\middleware\ble/cy_ble_gap.h **** /***************************************
 470:Generated_Source\PSoC6\pdl\middleware\ble/cy_ble_gap.h **** * Private Function Prototypes
 471:Generated_Source\PSoC6\pdl\middleware\ble/cy_ble_gap.h **** ***************************************/
 472:Generated_Source\PSoC6\pdl\middleware\ble/cy_ble_gap.h **** void Cy_BLE_ServiceInit(void);
 473:Generated_Source\PSoC6\pdl\middleware\ble/cy_ble_gap.h **** uint32_t Cy_BLE_GetDiscoveryIdx(cy_stc_ble_conn_handle_t connHandle);
 474:Generated_Source\PSoC6\pdl\middleware\ble/cy_ble_gap.h **** 
 475:Generated_Source\PSoC6\pdl\middleware\ble/cy_ble_gap.h **** /***************************************
 476:Generated_Source\PSoC6\pdl\middleware\ble/cy_ble_gap.h **** * Function Prototypes
 477:Generated_Source\PSoC6\pdl\middleware\ble/cy_ble_gap.h **** ***************************************/
 478:Generated_Source\PSoC6\pdl\middleware\ble/cy_ble_gap.h **** /**
 479:Generated_Source\PSoC6\pdl\middleware\ble/cy_ble_gap.h ****  * \addtogroup group_ble_common_api_functions
 480:Generated_Source\PSoC6\pdl\middleware\ble/cy_ble_gap.h ****  * @{
 481:Generated_Source\PSoC6\pdl\middleware\ble/cy_ble_gap.h ****  */
 482:Generated_Source\PSoC6\pdl\middleware\ble/cy_ble_gap.h **** 
 483:Generated_Source\PSoC6\pdl\middleware\ble/cy_ble_gap.h **** cy_en_ble_api_result_t Cy_BLE_StoreAppData(const cy_stc_ble_app_flash_param_t *param);
 484:Generated_Source\PSoC6\pdl\middleware\ble/cy_ble_gap.h **** 
 485:Generated_Source\PSoC6\pdl\middleware\ble/cy_ble_gap.h **** #if ((CY_BLE_GAP_ROLE_PERIPHERAL || CY_BLE_GAP_ROLE_CENTRAL) && (CY_BLE_BONDING_REQUIREMENT == CY_B
 486:Generated_Source\PSoC6\pdl\middleware\ble/cy_ble_gap.h **** cy_en_ble_api_result_t Cy_BLE_StoreBondingData(void);
 487:Generated_Source\PSoC6\pdl\middleware\ble/cy_ble_gap.h **** cy_en_ble_api_result_t Cy_BLE_GAP_RemoveBondedDevice(cy_stc_ble_gap_bd_addr_t* bdAddr);
 488:Generated_Source\PSoC6\pdl\middleware\ble/cy_ble_gap.h **** #endif /* (CY_BLE_GAP_ROLE_PERIPHERAL || CY_BLE_GAP_ROLE_CENTRAL) && (CY_BLE_BONDING_REQUIREMENT ==
 489:Generated_Source\PSoC6\pdl\middleware\ble/cy_ble_gap.h **** 
 490:Generated_Source\PSoC6\pdl\middleware\ble/cy_ble_gap.h **** #if (CY_BLE_GAP_ROLE_PERIPHERAL || CY_BLE_GAP_ROLE_CENTRAL)
 491:Generated_Source\PSoC6\pdl\middleware\ble/cy_ble_gap.h **** bool Cy_BLE_IsPeerConnected(uint8_t *bdAddr);
 492:Generated_Source\PSoC6\pdl\middleware\ble/cy_ble_gap.h **** bool Cy_BLE_IsDevicePaired(cy_stc_ble_conn_handle_t *connHandle);
 493:Generated_Source\PSoC6\pdl\middleware\ble/cy_ble_gap.h **** uint8_t Cy_BLE_GetDeviceRole(cy_stc_ble_conn_handle_t *connHandle);
 494:Generated_Source\PSoC6\pdl\middleware\ble/cy_ble_gap.h **** 
 495:Generated_Source\PSoC6\pdl\middleware\ble/cy_ble_gap.h **** cy_en_ble_api_result_t Cy_BLE_GetRssiPeer(uint8_t  bdHandle);
 496:Generated_Source\PSoC6\pdl\middleware\ble/cy_ble_gap.h **** #endif /* (CY_BLE_GAP_ROLE_PERIPHERAL || CY_BLE_GAP_ROLE_CENTRAL) */
 497:Generated_Source\PSoC6\pdl\middleware\ble/cy_ble_gap.h **** /** @} group_ble_common_api_functions */
 498:Generated_Source\PSoC6\pdl\middleware\ble/cy_ble_gap.h **** 
 499:Generated_Source\PSoC6\pdl\middleware\ble/cy_ble_gap.h **** /**
 500:Generated_Source\PSoC6\pdl\middleware\ble/cy_ble_gap.h ****  * \addtogroup group_ble_common_api_gap_peripheral_functions
 501:Generated_Source\PSoC6\pdl\middleware\ble/cy_ble_gap.h ****  * @{
 502:Generated_Source\PSoC6\pdl\middleware\ble/cy_ble_gap.h ****  */
 503:Generated_Source\PSoC6\pdl\middleware\ble/cy_ble_gap.h ****  
 504:Generated_Source\PSoC6\pdl\middleware\ble/cy_ble_gap.h **** #if (CY_BLE_GAP_ROLE_PERIPHERAL || CY_BLE_GAP_ROLE_BROADCASTER)
 505:Generated_Source\PSoC6\pdl\middleware\ble/cy_ble_gap.h **** cy_en_ble_api_result_t Cy_BLE_GAPP_StartAdvertisement(uint8_t advertisingIntervalType, uint8_t adve
 506:Generated_Source\PSoC6\pdl\middleware\ble/cy_ble_gap.h **** cy_en_ble_api_result_t Cy_BLE_GAPP_StopAdvertisement(void);
 507:Generated_Source\PSoC6\pdl\middleware\ble/cy_ble_gap.h **** 
 508:Generated_Source\PSoC6\pdl\middleware\ble/cy_ble_gap.h **** /** \cond IGNORE */
 509:Generated_Source\PSoC6\pdl\middleware\ble/cy_ble_gap.h **** void Cy_BLE_ChangeAdDeviceAddress(const cy_stc_ble_gap_bd_addr_t* bdAddr, uint8_t dest);
 510:Generated_Source\PSoC6\pdl\middleware\ble/cy_ble_gap.h **** /** \endcond */
 511:Generated_Source\PSoC6\pdl\middleware\ble/cy_ble_gap.h **** 
 512:Generated_Source\PSoC6\pdl\middleware\ble/cy_ble_gap.h **** #endif /* CY_BLE_GAP_ROLE_PERIPHERAL */
 513:Generated_Source\PSoC6\pdl\middleware\ble/cy_ble_gap.h **** 
 514:Generated_Source\PSoC6\pdl\middleware\ble/cy_ble_gap.h **** /** @} group_ble_common_api_gap_peripheral_functions */
 515:Generated_Source\PSoC6\pdl\middleware\ble/cy_ble_gap.h **** 
 516:Generated_Source\PSoC6\pdl\middleware\ble/cy_ble_gap.h **** /**
 517:Generated_Source\PSoC6\pdl\middleware\ble/cy_ble_gap.h ****  * \addtogroup group_ble_common_api_gap_central_functions
 518:Generated_Source\PSoC6\pdl\middleware\ble/cy_ble_gap.h ****  * @{
 519:Generated_Source\PSoC6\pdl\middleware\ble/cy_ble_gap.h ****  */
 520:Generated_Source\PSoC6\pdl\middleware\ble/cy_ble_gap.h ****  
 521:Generated_Source\PSoC6\pdl\middleware\ble/cy_ble_gap.h **** #if (CY_BLE_GAP_ROLE_CENTRAL || CY_BLE_GAP_ROLE_OBSERVER)
 522:Generated_Source\PSoC6\pdl\middleware\ble/cy_ble_gap.h **** cy_en_ble_api_result_t Cy_BLE_GAPC_StartScan(uint8_t scanningIntervalType, uint8_t scanParamIndex);
 523:Generated_Source\PSoC6\pdl\middleware\ble/cy_ble_gap.h **** cy_en_ble_api_result_t Cy_BLE_GAPC_StopScan(void);
 524:Generated_Source\PSoC6\pdl\middleware\ble/cy_ble_gap.h **** #endif /* CY_BLE_GAP_ROLE_CENTRAL || CY_BLE_GAP_ROLE_OBSERVER */
 525:Generated_Source\PSoC6\pdl\middleware\ble/cy_ble_gap.h **** 
ARM GAS  C:\Users\gjl\AppData\Local\Temp\ccYWElnH.s 			page 26


 526:Generated_Source\PSoC6\pdl\middleware\ble/cy_ble_gap.h **** #if (CY_BLE_GAP_ROLE_CENTRAL)
 527:Generated_Source\PSoC6\pdl\middleware\ble/cy_ble_gap.h **** cy_en_ble_api_result_t Cy_BLE_GAPC_ConnectDevice(const cy_stc_ble_gap_bd_addr_t * address, uint8_t 
 528:Generated_Source\PSoC6\pdl\middleware\ble/cy_ble_gap.h **** cy_en_ble_api_result_t Cy_BLE_GAPC_CancelDeviceConnection(void);
 529:Generated_Source\PSoC6\pdl\middleware\ble/cy_ble_gap.h **** #endif /* CY_BLE_GAP_ROLE_CENTRAL */
 530:Generated_Source\PSoC6\pdl\middleware\ble/cy_ble_gap.h **** 
 531:Generated_Source\PSoC6\pdl\middleware\ble/cy_ble_gap.h **** /** @} group_ble_common_api_gap_central_functions */
 532:Generated_Source\PSoC6\pdl\middleware\ble/cy_ble_gap.h **** 
 533:Generated_Source\PSoC6\pdl\middleware\ble/cy_ble_gap.h **** /***************************************
 534:Generated_Source\PSoC6\pdl\middleware\ble/cy_ble_gap.h **** * External data references
 535:Generated_Source\PSoC6\pdl\middleware\ble/cy_ble_gap.h **** ***************************************/
 536:Generated_Source\PSoC6\pdl\middleware\ble/cy_ble_gap.h **** extern volatile uint8_t cy_ble_eventHandlerFlag;
 537:Generated_Source\PSoC6\pdl\middleware\ble/cy_ble_gap.h **** extern cy_stc_ble_gap_bd_addr_t *cy_ble_sflashDeviceAddress;
 538:Generated_Source\PSoC6\pdl\middleware\ble/cy_ble_gap.h **** extern cy_stc_ble_gap_bd_addr_t cy_ble_deviceAddress;
 539:Generated_Source\PSoC6\pdl\middleware\ble/cy_ble_gap.h **** extern cy_en_ble_state_t cy_ble_state;
 540:Generated_Source\PSoC6\pdl\middleware\ble/cy_ble_gap.h **** 
 541:Generated_Source\PSoC6\pdl\middleware\ble/cy_ble_gap.h **** #if ((CY_BLE_GAP_ROLE_PERIPHERAL || CY_BLE_GAP_ROLE_CENTRAL))
 542:Generated_Source\PSoC6\pdl\middleware\ble/cy_ble_gap.h **** extern cy_stc_ble_gap_auth_info_t cy_ble_authInfo[CY_BLE_AUTH_INFO_COUNT];
 543:Generated_Source\PSoC6\pdl\middleware\ble/cy_ble_gap.h **** #endif /* ((CY_BLE_GAP_ROLE_PERIPHERAL || CY_BLE_GAP_ROLE_CENTRAL)) */
 544:Generated_Source\PSoC6\pdl\middleware\ble/cy_ble_gap.h **** 
 545:Generated_Source\PSoC6\pdl\middleware\ble/cy_ble_gap.h **** #if (CY_BLE_GAP_ROLE_PERIPHERAL || CY_BLE_GAP_ROLE_BROADCASTER)
 546:Generated_Source\PSoC6\pdl\middleware\ble/cy_ble_gap.h **** extern cy_en_ble_adv_state_t cy_ble_advState;
 547:Generated_Source\PSoC6\pdl\middleware\ble/cy_ble_gap.h **** extern uint8_t cy_ble_advIndex;
 548:Generated_Source\PSoC6\pdl\middleware\ble/cy_ble_gap.h **** #endif  /* (CY_BLE_GAP_ROLE_PERIPHERAL || CY_BLE_GAP_ROLE_BROADCASTER) */
 549:Generated_Source\PSoC6\pdl\middleware\ble/cy_ble_gap.h **** 
 550:Generated_Source\PSoC6\pdl\middleware\ble/cy_ble_gap.h **** #if (CY_BLE_GAP_ROLE_CENTRAL || CY_BLE_GAP_ROLE_OBSERVER)
 551:Generated_Source\PSoC6\pdl\middleware\ble/cy_ble_gap.h **** extern cy_en_ble_scan_state_t cy_ble_scanState;
 552:Generated_Source\PSoC6\pdl\middleware\ble/cy_ble_gap.h **** extern uint8_t cy_ble_scanIndex;
 553:Generated_Source\PSoC6\pdl\middleware\ble/cy_ble_gap.h **** #endif /* (CY_BLE_GAP_ROLE_CENTRAL || CY_BLE_GAP_ROLE_OBSERVER) */
 554:Generated_Source\PSoC6\pdl\middleware\ble/cy_ble_gap.h **** 
 555:Generated_Source\PSoC6\pdl\middleware\ble/cy_ble_gap.h **** #if ((CY_BLE_GAP_ROLE_PERIPHERAL || CY_BLE_GAP_ROLE_CENTRAL))
 556:Generated_Source\PSoC6\pdl\middleware\ble/cy_ble_gap.h **** extern cy_stc_ble_conn_handle_t cy_ble_connHandle[CY_BLE_CONN_COUNT];
 557:Generated_Source\PSoC6\pdl\middleware\ble/cy_ble_gap.h **** extern cy_en_ble_conn_state_t cy_ble_connState[CY_BLE_CONN_COUNT];
 558:Generated_Source\PSoC6\pdl\middleware\ble/cy_ble_gap.h **** 
 559:Generated_Source\PSoC6\pdl\middleware\ble/cy_ble_gap.h **** extern volatile uint8_t cy_ble_devConnRole[CY_BLE_CONN_COUNT];                                     
 560:Generated_Source\PSoC6\pdl\middleware\ble/cy_ble_gap.h **** extern volatile bool cy_ble_pairStatus[CY_BLE_CONN_COUNT];
 561:Generated_Source\PSoC6\pdl\middleware\ble/cy_ble_gap.h **** 
 562:Generated_Source\PSoC6\pdl\middleware\ble/cy_ble_gap.h **** #endif /* ((CY_BLE_GAP_ROLE_PERIPHERAL || CY_BLE_GAP_ROLE_CENTRAL)) */
 563:Generated_Source\PSoC6\pdl\middleware\ble/cy_ble_gap.h **** 
 564:Generated_Source\PSoC6\pdl\middleware\ble/cy_ble_gap.h **** #if (CY_BLE_GAP_ROLE_CENTRAL || CY_BLE_GAP_ROLE_OBSERVER)
 565:Generated_Source\PSoC6\pdl\middleware\ble/cy_ble_gap.h **** extern cy_stc_ble_gapc_disc_info_t cy_ble_discoveryInfo[CY_BLE_GAPC_CONF_COUNT];
 566:Generated_Source\PSoC6\pdl\middleware\ble/cy_ble_gap.h **** #endif /* CY_BLE_GAP_ROLE_CENTRAL || CY_BLE_GAP_ROLE_OBSERVER */
 567:Generated_Source\PSoC6\pdl\middleware\ble/cy_ble_gap.h **** 
 568:Generated_Source\PSoC6\pdl\middleware\ble/cy_ble_gap.h **** #if (CY_BLE_GAP_ROLE_CENTRAL)
 569:Generated_Source\PSoC6\pdl\middleware\ble/cy_ble_gap.h **** extern cy_stc_ble_gapc_conn_info_t cy_ble_connectionParameters;
 570:Generated_Source\PSoC6\pdl\middleware\ble/cy_ble_gap.h **** extern cy_stc_ble_timer_info_t cy_ble_connectingTimeout;
 571:Generated_Source\PSoC6\pdl\middleware\ble/cy_ble_gap.h **** #endif /* CY_BLE_GAP_ROLE_CENTRAL */
 572:Generated_Source\PSoC6\pdl\middleware\ble/cy_ble_gap.h **** 
 573:Generated_Source\PSoC6\pdl\middleware\ble/cy_ble_gap.h **** #if (CY_BLE_GAP_ROLE_PERIPHERAL || CY_BLE_GAP_ROLE_BROADCASTER)
 574:Generated_Source\PSoC6\pdl\middleware\ble/cy_ble_gap.h **** extern cy_stc_ble_gapp_disc_mode_info_t cy_ble_discoveryModeInfo[CY_BLE_GAPP_CONF_COUNT];
 575:Generated_Source\PSoC6\pdl\middleware\ble/cy_ble_gap.h **** extern cy_stc_ble_gapp_disc_param_t cy_ble_discoveryParam[CY_BLE_GAPP_CONF_COUNT];
 576:Generated_Source\PSoC6\pdl\middleware\ble/cy_ble_gap.h **** extern cy_stc_ble_gapp_disc_data_t cy_ble_discoveryData[CY_BLE_GAPP_CONF_COUNT];
 577:Generated_Source\PSoC6\pdl\middleware\ble/cy_ble_gap.h **** extern cy_stc_ble_gapp_scan_rsp_data_t cy_ble_scanRspData[CY_BLE_GAPP_CONF_COUNT];
 578:Generated_Source\PSoC6\pdl\middleware\ble/cy_ble_gap.h **** #endif /* CY_BLE_GAP_ROLE_PERIPHERAL || CY_BLE_GAP_ROLE_BROADCASTER */
 579:Generated_Source\PSoC6\pdl\middleware\ble/cy_ble_gap.h **** 
 580:Generated_Source\PSoC6\pdl\middleware\ble/cy_ble_gap.h **** #if ((CY_BLE_GAP_ROLE_PERIPHERAL || CY_BLE_GAP_ROLE_CENTRAL) && (CY_BLE_BONDING_REQUIREMENT == CY_B
 581:Generated_Source\PSoC6\pdl\middleware\ble/cy_ble_gap.h **** 
 582:Generated_Source\PSoC6\pdl\middleware\ble/cy_ble_gap.h **** /**
ARM GAS  C:\Users\gjl\AppData\Local\Temp\ccYWElnH.s 			page 27


 583:Generated_Source\PSoC6\pdl\middleware\ble/cy_ble_gap.h ****  * \addtogroup group_ble_common_api_global_variables
 584:Generated_Source\PSoC6\pdl\middleware\ble/cy_ble_gap.h ****  * @{
 585:Generated_Source\PSoC6\pdl\middleware\ble/cy_ble_gap.h ****  */  
 586:Generated_Source\PSoC6\pdl\middleware\ble/cy_ble_gap.h **** /** This is a two-bit variable that contains status of pending write to flash operation.
 587:Generated_Source\PSoC6\pdl\middleware\ble/cy_ble_gap.h ****  * This variable is initialized to zero in Cy_BLE_Init().
 588:Generated_Source\PSoC6\pdl\middleware\ble/cy_ble_gap.h ****  * CY_BLE_PENDING_CCCD_FLASH_WRITE_BIT flag is set after write to CCCD event when a
 589:Generated_Source\PSoC6\pdl\middleware\ble/cy_ble_gap.h ****  * peer device supports bonding (cy_ble_peerBonding[eventParam->connHandle.attId] == CY_BLE_GAP_BON
 590:Generated_Source\PSoC6\pdl\middleware\ble/cy_ble_gap.h ****  * CY_BLE_PENDING_STACK_FLASH_WRITE_BIT flag is set after CY_BLE_EVT_PENDING_FLASH_WRITE event.
 591:Generated_Source\PSoC6\pdl\middleware\ble/cy_ble_gap.h ****  * Cy_BLE_StoreBondingData() should be called to store pending bonding data.
 592:Generated_Source\PSoC6\pdl\middleware\ble/cy_ble_gap.h ****  * This function automatically clears pending bits after write operation is complete.
 593:Generated_Source\PSoC6\pdl\middleware\ble/cy_ble_gap.h ****  */
 594:Generated_Source\PSoC6\pdl\middleware\ble/cy_ble_gap.h **** extern uint8_t cy_ble_pendingFlashWrite;
 595:Generated_Source\PSoC6\pdl\middleware\ble/cy_ble_gap.h **** /** @} group_ble_common_api_global_variables */
 596:Generated_Source\PSoC6\pdl\middleware\ble/cy_ble_gap.h ****     
 597:Generated_Source\PSoC6\pdl\middleware\ble/cy_ble_gap.h **** /** Bonding type setting of peer device, CY_BLE_GAP_BONDING_NONE or CY_BLE_GAP_BONDING.
 598:Generated_Source\PSoC6\pdl\middleware\ble/cy_ble_gap.h ****  * It is initialized after pairing with peer device and used for cy_ble_pendingFlashWrite variable
 599:Generated_Source\PSoC6\pdl\middleware\ble/cy_ble_gap.h ****  * setting.
 600:Generated_Source\PSoC6\pdl\middleware\ble/cy_ble_gap.h ****  */
 601:Generated_Source\PSoC6\pdl\middleware\ble/cy_ble_gap.h **** extern uint8_t cy_ble_peerBonding[CY_BLE_CONN_COUNT];
 602:Generated_Source\PSoC6\pdl\middleware\ble/cy_ble_gap.h **** 
 603:Generated_Source\PSoC6\pdl\middleware\ble/cy_ble_gap.h **** #endif  /* (CY_BLE_BONDING_REQUIREMENT == CY_BLE_BONDING_YES) */
 604:Generated_Source\PSoC6\pdl\middleware\ble/cy_ble_gap.h **** 
 605:Generated_Source\PSoC6\pdl\middleware\ble/cy_ble_gap.h **** 
 606:Generated_Source\PSoC6\pdl\middleware\ble/cy_ble_gap.h **** /***************************************
 607:Generated_Source\PSoC6\pdl\middleware\ble/cy_ble_gap.h **** * Exported Functions (MACROS)
 608:Generated_Source\PSoC6\pdl\middleware\ble/cy_ble_gap.h **** ***************************************/
 609:Generated_Source\PSoC6\pdl\middleware\ble/cy_ble_gap.h **** #if ((CY_BLE_GAP_ROLE_PERIPHERAL || CY_BLE_GAP_ROLE_CENTRAL))
 610:Generated_Source\PSoC6\pdl\middleware\ble/cy_ble_gap.h ****    
 611:Generated_Source\PSoC6\pdl\middleware\ble/cy_ble_gap.h **** /******************************************************************************
 612:Generated_Source\PSoC6\pdl\middleware\ble/cy_ble_gap.h **** * Function Name: Cy_BLE_GetConnHandleIdx
 613:Generated_Source\PSoC6\pdl\middleware\ble/cy_ble_gap.h **** ***************************************************************************//**
 614:Generated_Source\PSoC6\pdl\middleware\ble/cy_ble_gap.h **** *
 615:Generated_Source\PSoC6\pdl\middleware\ble/cy_ble_gap.h **** *  This function searches the array of connection handles (cy_ble_connHandle[])
 616:Generated_Source\PSoC6\pdl\middleware\ble/cy_ble_gap.h **** *  for the location (index) of a handle that corresponds to the input parameter
 617:Generated_Source\PSoC6\pdl\middleware\ble/cy_ble_gap.h **** *  connHandle. bdHandle.
 618:Generated_Source\PSoC6\pdl\middleware\ble/cy_ble_gap.h **** *
 619:Generated_Source\PSoC6\pdl\middleware\ble/cy_ble_gap.h **** *  This function is designated for internal usage. 
 620:Generated_Source\PSoC6\pdl\middleware\ble/cy_ble_gap.h **** *    
 621:Generated_Source\PSoC6\pdl\middleware\ble/cy_ble_gap.h **** *  \param connHandle: The connection handle.
 622:Generated_Source\PSoC6\pdl\middleware\ble/cy_ble_gap.h **** *
 623:Generated_Source\PSoC6\pdl\middleware\ble/cy_ble_gap.h **** *  \return
 624:Generated_Source\PSoC6\pdl\middleware\ble/cy_ble_gap.h **** *  retValue: the index of connHandle  
 625:Generated_Source\PSoC6\pdl\middleware\ble/cy_ble_gap.h **** *    
 626:Generated_Source\PSoC6\pdl\middleware\ble/cy_ble_gap.h **** ******************************************************************************/
 627:Generated_Source\PSoC6\pdl\middleware\ble/cy_ble_gap.h **** __STATIC_INLINE uint8_t Cy_BLE_GetConnHandleIdx(cy_stc_ble_conn_handle_t connHandle)
 628:Generated_Source\PSoC6\pdl\middleware\ble/cy_ble_gap.h **** {
 629:Generated_Source\PSoC6\pdl\middleware\ble/cy_ble_gap.h ****     uint8_t idx;
 630:Generated_Source\PSoC6\pdl\middleware\ble/cy_ble_gap.h ****     uint8_t retValue = CY_BLE_CONN_COUNT;
 631:Generated_Source\PSoC6\pdl\middleware\ble/cy_ble_gap.h **** 
 632:Generated_Source\PSoC6\pdl\middleware\ble/cy_ble_gap.h ****     for(idx = 0u; idx < CY_BLE_CONN_COUNT; idx++)
 633:Generated_Source\PSoC6\pdl\middleware\ble/cy_ble_gap.h ****     {
 634:Generated_Source\PSoC6\pdl\middleware\ble/cy_ble_gap.h ****         if(cy_ble_connHandle[idx].bdHandle == connHandle.bdHandle)
 635:Generated_Source\PSoC6\pdl\middleware\ble/cy_ble_gap.h ****         {
 636:Generated_Source\PSoC6\pdl\middleware\ble/cy_ble_gap.h ****             retValue = idx;
 637:Generated_Source\PSoC6\pdl\middleware\ble/cy_ble_gap.h ****             break;
 638:Generated_Source\PSoC6\pdl\middleware\ble/cy_ble_gap.h ****         }
 639:Generated_Source\PSoC6\pdl\middleware\ble/cy_ble_gap.h ****     }
ARM GAS  C:\Users\gjl\AppData\Local\Temp\ccYWElnH.s 			page 28


 640:Generated_Source\PSoC6\pdl\middleware\ble/cy_ble_gap.h ****     if(retValue == CY_BLE_CONN_COUNT)
 641:Generated_Source\PSoC6\pdl\middleware\ble/cy_ble_gap.h ****     {
 642:Generated_Source\PSoC6\pdl\middleware\ble/cy_ble_gap.h ****         /* HALT in debug mode */
 643:Generated_Source\PSoC6\pdl\middleware\ble/cy_ble_gap.h ****         CY_ASSERT(retValue != CY_BLE_CONN_COUNT);
 644:Generated_Source\PSoC6\pdl\middleware\ble/cy_ble_gap.h ****         retValue = 0u;
 645:Generated_Source\PSoC6\pdl\middleware\ble/cy_ble_gap.h ****     }
 646:Generated_Source\PSoC6\pdl\middleware\ble/cy_ble_gap.h **** 
 647:Generated_Source\PSoC6\pdl\middleware\ble/cy_ble_gap.h ****     return(retValue);
 648:Generated_Source\PSoC6\pdl\middleware\ble/cy_ble_gap.h **** }
 649:Generated_Source\PSoC6\pdl\middleware\ble/cy_ble_gap.h **** #endif  /* ((CY_BLE_GAP_ROLE_PERIPHERAL || CY_BLE_GAP_ROLE_CENTRAL)) */
 650:Generated_Source\PSoC6\pdl\middleware\ble/cy_ble_gap.h **** 
 651:Generated_Source\PSoC6\pdl\middleware\ble/cy_ble_gap.h **** /**
 652:Generated_Source\PSoC6\pdl\middleware\ble/cy_ble_gap.h ****  * \addtogroup group_ble_common_api_functions
 653:Generated_Source\PSoC6\pdl\middleware\ble/cy_ble_gap.h ****  * @{
 654:Generated_Source\PSoC6\pdl\middleware\ble/cy_ble_gap.h **** */
 655:Generated_Source\PSoC6\pdl\middleware\ble/cy_ble_gap.h **** /******************************************************************************
 656:Generated_Source\PSoC6\pdl\middleware\ble/cy_ble_gap.h **** * Function Name: Cy_BLE_GetState
 657:Generated_Source\PSoC6\pdl\middleware\ble/cy_ble_gap.h **** ***************************************************************************//**
 658:Generated_Source\PSoC6\pdl\middleware\ble/cy_ble_gap.h **** *
 659:Generated_Source\PSoC6\pdl\middleware\ble/cy_ble_gap.h **** *  This function is used to determine the current state of the BLE Middleware
 660:Generated_Source\PSoC6\pdl\middleware\ble/cy_ble_gap.h **** *  state machine :
 661:Generated_Source\PSoC6\pdl\middleware\ble/cy_ble_gap.h **** *
 662:Generated_Source\PSoC6\pdl\middleware\ble/cy_ble_gap.h **** *  \image html ble_middleware_state_machine.png
 663:Generated_Source\PSoC6\pdl\middleware\ble/cy_ble_gap.h **** *
 664:Generated_Source\PSoC6\pdl\middleware\ble/cy_ble_gap.h **** *  The BLE Middleware is in the state #CY_BLE_STATE_INITIALIZING after the 
 665:Generated_Source\PSoC6\pdl\middleware\ble/cy_ble_gap.h **** *  Cy_BLE_Enable() is called and until the #CY_BLE_EVT_STACK_ON event is not 
 666:Generated_Source\PSoC6\pdl\middleware\ble/cy_ble_gap.h **** *  received. After successful initialization the state is changed to 
 667:Generated_Source\PSoC6\pdl\middleware\ble/cy_ble_gap.h **** *  #CY_BLE_STATE_ON.
 668:Generated_Source\PSoC6\pdl\middleware\ble/cy_ble_gap.h **** *
 669:Generated_Source\PSoC6\pdl\middleware\ble/cy_ble_gap.h **** *  The BLE Middleware is in the state #CY_BLE_STATE_STOPPED 
 670:Generated_Source\PSoC6\pdl\middleware\ble/cy_ble_gap.h **** *  when the #CY_BLE_EVT_STACK_SHUTDOWN_COMPLETE event is received (after the 
 671:Generated_Source\PSoC6\pdl\middleware\ble/cy_ble_gap.h **** *  Cy_BLE_Disable() is called).
 672:Generated_Source\PSoC6\pdl\middleware\ble/cy_ble_gap.h **** *  
 673:Generated_Source\PSoC6\pdl\middleware\ble/cy_ble_gap.h **** *  For GAP Central role when the Cy_BLE_GAPC_ConnectDevice() is called, the state
 674:Generated_Source\PSoC6\pdl\middleware\ble/cy_ble_gap.h **** *  is changed to #CY_BLE_STATE_CONNECTING. After successful connection indicated
 675:Generated_Source\PSoC6\pdl\middleware\ble/cy_ble_gap.h **** *  by #CY_BLE_EVT_GAP_DEVICE_CONNECTED or #CY_BLE_EVT_GAP_ENHANCE_CONN_COMPLETE
 676:Generated_Source\PSoC6\pdl\middleware\ble/cy_ble_gap.h **** *  event or the timeout indicated by #CY_BLE_EVT_TIMEOUT event, the state is
 677:Generated_Source\PSoC6\pdl\middleware\ble/cy_ble_gap.h **** *  changed to #CY_BLE_STATE_ON.
 678:Generated_Source\PSoC6\pdl\middleware\ble/cy_ble_gap.h **** *
 679:Generated_Source\PSoC6\pdl\middleware\ble/cy_ble_gap.h **** * \return
 680:Generated_Source\PSoC6\pdl\middleware\ble/cy_ble_gap.h **** * \ref cy_en_ble_state_t : The current BLE Middleware state. The following are 
 681:Generated_Source\PSoC6\pdl\middleware\ble/cy_ble_gap.h **** *                         possible states:
 682:Generated_Source\PSoC6\pdl\middleware\ble/cy_ble_gap.h **** *
 683:Generated_Source\PSoC6\pdl\middleware\ble/cy_ble_gap.h **** *   State                      | Description
 684:Generated_Source\PSoC6\pdl\middleware\ble/cy_ble_gap.h **** *   -------------------------- | -----------
 685:Generated_Source\PSoC6\pdl\middleware\ble/cy_ble_gap.h **** *   CY_BLE_STATE_STOPPED       | BLE is turned off.
 686:Generated_Source\PSoC6\pdl\middleware\ble/cy_ble_gap.h **** *   CY_BLE_STATE_INITIALIZING  | BLE is initializing (waiting for #CY_BLE_EVT_STACK_ON event).
 687:Generated_Source\PSoC6\pdl\middleware\ble/cy_ble_gap.h **** *   CY_BLE_STATE_ON            | BLE is turned on.
 688:Generated_Source\PSoC6\pdl\middleware\ble/cy_ble_gap.h **** *   CY_BLE_STATE_CONNECTING    | BLE is connecting.
 689:Generated_Source\PSoC6\pdl\middleware\ble/cy_ble_gap.h **** 
 690:Generated_Source\PSoC6\pdl\middleware\ble/cy_ble_gap.h **** ******************************************************************************/
 691:Generated_Source\PSoC6\pdl\middleware\ble/cy_ble_gap.h **** #define Cy_BLE_GetState()    (cy_ble_state)
 692:Generated_Source\PSoC6\pdl\middleware\ble/cy_ble_gap.h **** 
 693:Generated_Source\PSoC6\pdl\middleware\ble/cy_ble_gap.h **** /** \cond IGNORE */
 694:Generated_Source\PSoC6\pdl\middleware\ble/cy_ble_gap.h **** /******************************************************************************
 695:Generated_Source\PSoC6\pdl\middleware\ble/cy_ble_gap.h **** * Function Name: Cy_BLE_SetState
 696:Generated_Source\PSoC6\pdl\middleware\ble/cy_ble_gap.h **** ***************************************************************************//**
ARM GAS  C:\Users\gjl\AppData\Local\Temp\ccYWElnH.s 			page 29


 697:Generated_Source\PSoC6\pdl\middleware\ble/cy_ble_gap.h **** *
 698:Generated_Source\PSoC6\pdl\middleware\ble/cy_ble_gap.h **** *  Used to set the BLE Middleware state machine's state.
 699:Generated_Source\PSoC6\pdl\middleware\ble/cy_ble_gap.h **** *
 700:Generated_Source\PSoC6\pdl\middleware\ble/cy_ble_gap.h **** *  \param state: The desired state to which the event handler's
 701:Generated_Source\PSoC6\pdl\middleware\ble/cy_ble_gap.h **** *   state machine should be set. The parameter state is a variable
 702:Generated_Source\PSoC6\pdl\middleware\ble/cy_ble_gap.h **** *   of type cy_en_ble_state_t.
 703:Generated_Source\PSoC6\pdl\middleware\ble/cy_ble_gap.h **** *
 704:Generated_Source\PSoC6\pdl\middleware\ble/cy_ble_gap.h **** * \return
 705:Generated_Source\PSoC6\pdl\middleware\ble/cy_ble_gap.h **** *  None
 706:Generated_Source\PSoC6\pdl\middleware\ble/cy_ble_gap.h **** *
 707:Generated_Source\PSoC6\pdl\middleware\ble/cy_ble_gap.h **** ******************************************************************************/
 708:Generated_Source\PSoC6\pdl\middleware\ble/cy_ble_gap.h **** #define Cy_BLE_SetState(state)    (cy_ble_state = (state))
 709:Generated_Source\PSoC6\pdl\middleware\ble/cy_ble_gap.h **** /** \endcond */
 710:Generated_Source\PSoC6\pdl\middleware\ble/cy_ble_gap.h **** 
 711:Generated_Source\PSoC6\pdl\middleware\ble/cy_ble_gap.h **** #if (CY_BLE_GAP_ROLE_PERIPHERAL || CY_BLE_GAP_ROLE_BROADCASTER)
 712:Generated_Source\PSoC6\pdl\middleware\ble/cy_ble_gap.h **** 
 713:Generated_Source\PSoC6\pdl\middleware\ble/cy_ble_gap.h **** 
 714:Generated_Source\PSoC6\pdl\middleware\ble/cy_ble_gap.h **** /******************************************************************************
 715:Generated_Source\PSoC6\pdl\middleware\ble/cy_ble_gap.h **** * Function Name: Cy_BLE_GetAdvertisementState
 716:Generated_Source\PSoC6\pdl\middleware\ble/cy_ble_gap.h **** ***************************************************************************//**
 717:Generated_Source\PSoC6\pdl\middleware\ble/cy_ble_gap.h **** *    
 718:Generated_Source\PSoC6\pdl\middleware\ble/cy_ble_gap.h **** *  This function returns the state of the link layer hardware advertisement
 719:Generated_Source\PSoC6\pdl\middleware\ble/cy_ble_gap.h **** *  engine.
 720:Generated_Source\PSoC6\pdl\middleware\ble/cy_ble_gap.h **** *
 721:Generated_Source\PSoC6\pdl\middleware\ble/cy_ble_gap.h **** *  \image html ble_advertisement_state_machine.png
 722:Generated_Source\PSoC6\pdl\middleware\ble/cy_ble_gap.h **** *
 723:Generated_Source\PSoC6\pdl\middleware\ble/cy_ble_gap.h **** *  When Cy_BLE_GAPP_StartAdvertisement() is called, the state is set to
 724:Generated_Source\PSoC6\pdl\middleware\ble/cy_ble_gap.h **** *  #CY_BLE_ADV_STATE_ADV_INITIATED. It automatically changes to
 725:Generated_Source\PSoC6\pdl\middleware\ble/cy_ble_gap.h **** *  #CY_BLE_ADV_STATE_ADVERTISING when #CY_BLE_EVT_GAPP_ADVERTISEMENT_START_STOP
 726:Generated_Source\PSoC6\pdl\middleware\ble/cy_ble_gap.h **** *  event is received. When Cy_BLE_GAPP_StopAdvertisement() is called, the
 727:Generated_Source\PSoC6\pdl\middleware\ble/cy_ble_gap.h **** *  state is set to #CY_BLE_ADV_STATE_STOP_INITIATED. It automatically changes
 728:Generated_Source\PSoC6\pdl\middleware\ble/cy_ble_gap.h **** *  to #CY_BLE_ADV_STATE_STOPPED when the #CY_BLE_EVT_GAPP_ADVERTISEMENT_START_STOP
 729:Generated_Source\PSoC6\pdl\middleware\ble/cy_ble_gap.h **** *  event is received.
 730:Generated_Source\PSoC6\pdl\middleware\ble/cy_ble_gap.h **** *
 731:Generated_Source\PSoC6\pdl\middleware\ble/cy_ble_gap.h **** * \return
 732:Generated_Source\PSoC6\pdl\middleware\ble/cy_ble_gap.h **** * \ref cy_en_ble_adv_state_t :The current advertising state. The following are 
 733:Generated_Source\PSoC6\pdl\middleware\ble/cy_ble_gap.h **** *                              possible states.
 734:Generated_Source\PSoC6\pdl\middleware\ble/cy_ble_gap.h **** *
 735:Generated_Source\PSoC6\pdl\middleware\ble/cy_ble_gap.h **** *               State                |         Description
 736:Generated_Source\PSoC6\pdl\middleware\ble/cy_ble_gap.h **** *   -------------------------------- | -----------------------------
 737:Generated_Source\PSoC6\pdl\middleware\ble/cy_ble_gap.h **** *   CY_BLE_ADV_STATE_STOPPED         | Advertising is stopped.
 738:Generated_Source\PSoC6\pdl\middleware\ble/cy_ble_gap.h **** *   CY_BLE_ADV_STATE_ADV_INITIATED   | Advertising is initiated.
 739:Generated_Source\PSoC6\pdl\middleware\ble/cy_ble_gap.h **** *   CY_BLE_ADV_STATE_ADVERTISING     | Advertising is initiated.
 740:Generated_Source\PSoC6\pdl\middleware\ble/cy_ble_gap.h **** *   CY_BLE_ADV_STATE_STOP_INITIATED  | Stop advertising is initiated.
 741:Generated_Source\PSoC6\pdl\middleware\ble/cy_ble_gap.h **** *
 742:Generated_Source\PSoC6\pdl\middleware\ble/cy_ble_gap.h **** ******************************************************************************/
 743:Generated_Source\PSoC6\pdl\middleware\ble/cy_ble_gap.h **** __STATIC_INLINE cy_en_ble_adv_state_t Cy_BLE_GetAdvertisementState(void)
 744:Generated_Source\PSoC6\pdl\middleware\ble/cy_ble_gap.h **** {
 745:Generated_Source\PSoC6\pdl\middleware\ble/cy_ble_gap.h ****     return(cy_ble_advState);
 746:Generated_Source\PSoC6\pdl\middleware\ble/cy_ble_gap.h **** }
 747:Generated_Source\PSoC6\pdl\middleware\ble/cy_ble_gap.h **** 
 748:Generated_Source\PSoC6\pdl\middleware\ble/cy_ble_gap.h **** /** \cond IGNORE */
 749:Generated_Source\PSoC6\pdl\middleware\ble/cy_ble_gap.h **** /******************************************************************************
 750:Generated_Source\PSoC6\pdl\middleware\ble/cy_ble_gap.h **** * Function Name: Cy_BLE_SetAdvertisementState
 751:Generated_Source\PSoC6\pdl\middleware\ble/cy_ble_gap.h **** ***************************************************************************//**
 752:Generated_Source\PSoC6\pdl\middleware\ble/cy_ble_gap.h **** *
 753:Generated_Source\PSoC6\pdl\middleware\ble/cy_ble_gap.h **** *  Used to set the state of the link layer hardware advertisement engine.
ARM GAS  C:\Users\gjl\AppData\Local\Temp\ccYWElnH.s 			page 30


 754:Generated_Source\PSoC6\pdl\middleware\ble/cy_ble_gap.h **** *
 755:Generated_Source\PSoC6\pdl\middleware\ble/cy_ble_gap.h **** *  \param state: The desired state.
 756:Generated_Source\PSoC6\pdl\middleware\ble/cy_ble_gap.h **** *
 757:Generated_Source\PSoC6\pdl\middleware\ble/cy_ble_gap.h **** * \return
 758:Generated_Source\PSoC6\pdl\middleware\ble/cy_ble_gap.h **** *  None
 759:Generated_Source\PSoC6\pdl\middleware\ble/cy_ble_gap.h **** *
 760:Generated_Source\PSoC6\pdl\middleware\ble/cy_ble_gap.h **** ******************************************************************************/
 761:Generated_Source\PSoC6\pdl\middleware\ble/cy_ble_gap.h **** __STATIC_INLINE void Cy_BLE_SetAdvertisementState(cy_en_ble_adv_state_t state)
 762:Generated_Source\PSoC6\pdl\middleware\ble/cy_ble_gap.h **** {
 763:Generated_Source\PSoC6\pdl\middleware\ble/cy_ble_gap.h ****     cy_ble_advState = state;
 764:Generated_Source\PSoC6\pdl\middleware\ble/cy_ble_gap.h **** }
 765:Generated_Source\PSoC6\pdl\middleware\ble/cy_ble_gap.h **** /** \endcond */
 766:Generated_Source\PSoC6\pdl\middleware\ble/cy_ble_gap.h **** 
 767:Generated_Source\PSoC6\pdl\middleware\ble/cy_ble_gap.h **** #endif /* (CY_BLE_GAP_ROLE_PERIPHERAL || CY_BLE_GAP_ROLE_BROADCASTER) */
 768:Generated_Source\PSoC6\pdl\middleware\ble/cy_ble_gap.h **** 
 769:Generated_Source\PSoC6\pdl\middleware\ble/cy_ble_gap.h **** #if (CY_BLE_GAP_ROLE_CENTRAL || CY_BLE_GAP_ROLE_OBSERVER)
 770:Generated_Source\PSoC6\pdl\middleware\ble/cy_ble_gap.h **** 
 771:Generated_Source\PSoC6\pdl\middleware\ble/cy_ble_gap.h **** /******************************************************************************
 772:Generated_Source\PSoC6\pdl\middleware\ble/cy_ble_gap.h **** * Function Name: Cy_BLE_GetScanState
 773:Generated_Source\PSoC6\pdl\middleware\ble/cy_ble_gap.h **** ***************************************************************************//**
 774:Generated_Source\PSoC6\pdl\middleware\ble/cy_ble_gap.h **** *    
 775:Generated_Source\PSoC6\pdl\middleware\ble/cy_ble_gap.h **** *  This returns the state of the link layer hardware scan engine.
 776:Generated_Source\PSoC6\pdl\middleware\ble/cy_ble_gap.h **** *
 777:Generated_Source\PSoC6\pdl\middleware\ble/cy_ble_gap.h **** *  \image html ble_scanning_state_machine.png
 778:Generated_Source\PSoC6\pdl\middleware\ble/cy_ble_gap.h **** *   
 779:Generated_Source\PSoC6\pdl\middleware\ble/cy_ble_gap.h **** *  When Cy_BLE_GAPC_StartScan() is called the state is set to
 780:Generated_Source\PSoC6\pdl\middleware\ble/cy_ble_gap.h **** *  #CY_BLE_SCAN_STATE_SCAN_INITIATED. It automatically changes to
 781:Generated_Source\PSoC6\pdl\middleware\ble/cy_ble_gap.h **** *  #CY_BLE_SCAN_STATE_SCANNING when the #CY_BLE_EVT_GAPC_SCAN_START_STOP event is
 782:Generated_Source\PSoC6\pdl\middleware\ble/cy_ble_gap.h **** *  received. 
 783:Generated_Source\PSoC6\pdl\middleware\ble/cy_ble_gap.h **** *  When Cy_BLE_GAPC_StopScan() is called, the state is set to
 784:Generated_Source\PSoC6\pdl\middleware\ble/cy_ble_gap.h **** *  #CY_BLE_SCAN_STATE_STOP_INITIATED. It automatically changes to
 785:Generated_Source\PSoC6\pdl\middleware\ble/cy_ble_gap.h **** *  #CY_BLE_SCAN_STATE_STOPPED when the #CY_BLE_EVT_GAPC_SCAN_START_STOP event is
 786:Generated_Source\PSoC6\pdl\middleware\ble/cy_ble_gap.h **** *  received.
 787:Generated_Source\PSoC6\pdl\middleware\ble/cy_ble_gap.h **** *
 788:Generated_Source\PSoC6\pdl\middleware\ble/cy_ble_gap.h **** *  \return
 789:Generated_Source\PSoC6\pdl\middleware\ble/cy_ble_gap.h **** *  \ref cy_en_ble_scan_state_t : The current scan state. The following are 
 790:Generated_Source\PSoC6\pdl\middleware\ble/cy_ble_gap.h **** *                                possible states.
 791:Generated_Source\PSoC6\pdl\middleware\ble/cy_ble_gap.h **** *
 792:Generated_Source\PSoC6\pdl\middleware\ble/cy_ble_gap.h **** *               State                |         Description
 793:Generated_Source\PSoC6\pdl\middleware\ble/cy_ble_gap.h **** *   -------------------------------- | -----------------------------
 794:Generated_Source\PSoC6\pdl\middleware\ble/cy_ble_gap.h **** *   CY_BLE_SCAN_STATE_STOPPED        | Scanning is stopped.
 795:Generated_Source\PSoC6\pdl\middleware\ble/cy_ble_gap.h **** *   CY_BLE_SCAN_STATE_SCAN_INITIATED | Scanning is initiated.
 796:Generated_Source\PSoC6\pdl\middleware\ble/cy_ble_gap.h **** *   CY_BLE_SCAN_STATE_SCANNING       | Scanning process.
 797:Generated_Source\PSoC6\pdl\middleware\ble/cy_ble_gap.h **** *   CY_BLE_SCAN_STATE_STOP_INITIATED | Stop scanning is initiated.
 798:Generated_Source\PSoC6\pdl\middleware\ble/cy_ble_gap.h **** *
 799:Generated_Source\PSoC6\pdl\middleware\ble/cy_ble_gap.h **** ******************************************************************************/
 800:Generated_Source\PSoC6\pdl\middleware\ble/cy_ble_gap.h **** __STATIC_INLINE cy_en_ble_scan_state_t Cy_BLE_GetScanState(void)
 801:Generated_Source\PSoC6\pdl\middleware\ble/cy_ble_gap.h **** {
 802:Generated_Source\PSoC6\pdl\middleware\ble/cy_ble_gap.h ****     return(cy_ble_scanState);
 803:Generated_Source\PSoC6\pdl\middleware\ble/cy_ble_gap.h **** }
 804:Generated_Source\PSoC6\pdl\middleware\ble/cy_ble_gap.h **** 
 805:Generated_Source\PSoC6\pdl\middleware\ble/cy_ble_gap.h **** /** \cond IGNORE */
 806:Generated_Source\PSoC6\pdl\middleware\ble/cy_ble_gap.h **** /******************************************************************************
 807:Generated_Source\PSoC6\pdl\middleware\ble/cy_ble_gap.h **** * Function Name: Cy_BLE_SetScanState
 808:Generated_Source\PSoC6\pdl\middleware\ble/cy_ble_gap.h **** ***************************************************************************//**
 809:Generated_Source\PSoC6\pdl\middleware\ble/cy_ble_gap.h **** *
 810:Generated_Source\PSoC6\pdl\middleware\ble/cy_ble_gap.h **** *  Used to set the state of the link layer hardware scan engine.
ARM GAS  C:\Users\gjl\AppData\Local\Temp\ccYWElnH.s 			page 31


 811:Generated_Source\PSoC6\pdl\middleware\ble/cy_ble_gap.h **** *
 812:Generated_Source\PSoC6\pdl\middleware\ble/cy_ble_gap.h **** *  \param state: The desired state.
 813:Generated_Source\PSoC6\pdl\middleware\ble/cy_ble_gap.h **** *
 814:Generated_Source\PSoC6\pdl\middleware\ble/cy_ble_gap.h **** *  \return
 815:Generated_Source\PSoC6\pdl\middleware\ble/cy_ble_gap.h **** *  None
 816:Generated_Source\PSoC6\pdl\middleware\ble/cy_ble_gap.h **** *
 817:Generated_Source\PSoC6\pdl\middleware\ble/cy_ble_gap.h **** ******************************************************************************/
 818:Generated_Source\PSoC6\pdl\middleware\ble/cy_ble_gap.h **** __STATIC_INLINE void Cy_BLE_SetScanState(cy_en_ble_scan_state_t state)
 819:Generated_Source\PSoC6\pdl\middleware\ble/cy_ble_gap.h **** {
 820:Generated_Source\PSoC6\pdl\middleware\ble/cy_ble_gap.h ****     cy_ble_scanState = state;
 821:Generated_Source\PSoC6\pdl\middleware\ble/cy_ble_gap.h **** }
 822:Generated_Source\PSoC6\pdl\middleware\ble/cy_ble_gap.h **** /** \endcond */
 823:Generated_Source\PSoC6\pdl\middleware\ble/cy_ble_gap.h **** 
 824:Generated_Source\PSoC6\pdl\middleware\ble/cy_ble_gap.h **** #endif  /* (CY_BLE_GAP_ROLE_CENTRAL || CY_BLE_GAP_ROLE_OBSERVER) */
 825:Generated_Source\PSoC6\pdl\middleware\ble/cy_ble_gap.h **** 
 826:Generated_Source\PSoC6\pdl\middleware\ble/cy_ble_gap.h ****  
 827:Generated_Source\PSoC6\pdl\middleware\ble/cy_ble_gap.h **** #if ((CY_BLE_GAP_ROLE_PERIPHERAL || CY_BLE_GAP_ROLE_CENTRAL))
 828:Generated_Source\PSoC6\pdl\middleware\ble/cy_ble_gap.h **** 
 829:Generated_Source\PSoC6\pdl\middleware\ble/cy_ble_gap.h **** /******************************************************************************
 830:Generated_Source\PSoC6\pdl\middleware\ble/cy_ble_gap.h **** * Function Name: Cy_BLE_GetConnectionState
 831:Generated_Source\PSoC6\pdl\middleware\ble/cy_ble_gap.h **** ***************************************************************************//**
 832:Generated_Source\PSoC6\pdl\middleware\ble/cy_ble_gap.h **** *  This function returns the state of the BLE link for the specified connection
 833:Generated_Source\PSoC6\pdl\middleware\ble/cy_ble_gap.h **** *  handle.
 834:Generated_Source\PSoC6\pdl\middleware\ble/cy_ble_gap.h **** *
 835:Generated_Source\PSoC6\pdl\middleware\ble/cy_ble_gap.h **** *  The state is set to #CY_BLE_CONN_STATE_CONNECTED when #CY_BLE_EVT_GATT_CONNECT_IND
 836:Generated_Source\PSoC6\pdl\middleware\ble/cy_ble_gap.h **** *  event is received with the corresponding connection handle.
 837:Generated_Source\PSoC6\pdl\middleware\ble/cy_ble_gap.h **** *  The state is set to #CY_BLE_CONN_STATE_DISCONNECTED when the
 838:Generated_Source\PSoC6\pdl\middleware\ble/cy_ble_gap.h **** *  #CY_BLE_EVT_GATT_DISCONNECT_IND event is received.
 839:Generated_Source\PSoC6\pdl\middleware\ble/cy_ble_gap.h **** *
 840:Generated_Source\PSoC6\pdl\middleware\ble/cy_ble_gap.h **** *  For GATT Client role when Cy_BLE_GATTC_StartDiscovery() is called, the state
 841:Generated_Source\PSoC6\pdl\middleware\ble/cy_ble_gap.h **** *  indicates the current flow of the discovery procedure by
 842:Generated_Source\PSoC6\pdl\middleware\ble/cy_ble_gap.h **** *  #CY_BLE_CONN_STATE_CLIENT_SRVC_DISCOVERING,
 843:Generated_Source\PSoC6\pdl\middleware\ble/cy_ble_gap.h **** *  #CY_BLE_CONN_STATE_CLIENT_INCL_DISCOVERING,
 844:Generated_Source\PSoC6\pdl\middleware\ble/cy_ble_gap.h **** *  #CY_BLE_CONN_STATE_CLIENT_CHAR_DISCOVERING,
 845:Generated_Source\PSoC6\pdl\middleware\ble/cy_ble_gap.h **** *  #CY_BLE_CONN_STATE_CLIENT_DESCR_DISCOVERING and changes to
 846:Generated_Source\PSoC6\pdl\middleware\ble/cy_ble_gap.h **** *  #CY_BLE_CONN_STATE_CLIENT_DISCOVERED when the procedure successfully completes.
 847:Generated_Source\PSoC6\pdl\middleware\ble/cy_ble_gap.h **** *
 848:Generated_Source\PSoC6\pdl\middleware\ble/cy_ble_gap.h **** *  The state changes from #CY_BLE_CONN_STATE_CLIENT_DISCOVERED to
 849:Generated_Source\PSoC6\pdl\middleware\ble/cy_ble_gap.h **** *  #CY_BLE_CONN_STATE_CLIENT_DISCONNECTED_DISCOVERED when
 850:Generated_Source\PSoC6\pdl\middleware\ble/cy_ble_gap.h **** *  the #CY_BLE_EVT_GATT_DISCONNECT_IND event is received.
 851:Generated_Source\PSoC6\pdl\middleware\ble/cy_ble_gap.h **** *  The state comes backs to #CY_BLE_CONN_STATE_CLIENT_DISCOVERED when
 852:Generated_Source\PSoC6\pdl\middleware\ble/cy_ble_gap.h **** *  #CY_BLE_EVT_GATT_CONNECT_IND event is received and resolvable device
 853:Generated_Source\PSoC6\pdl\middleware\ble/cy_ble_gap.h **** *  address is not changed.
 854:Generated_Source\PSoC6\pdl\middleware\ble/cy_ble_gap.h **** *
 855:Generated_Source\PSoC6\pdl\middleware\ble/cy_ble_gap.h **** *  \param connHandle: The connection handle.
 856:Generated_Source\PSoC6\pdl\middleware\ble/cy_ble_gap.h **** *
 857:Generated_Source\PSoC6\pdl\middleware\ble/cy_ble_gap.h **** * \return
 858:Generated_Source\PSoC6\pdl\middleware\ble/cy_ble_gap.h **** * \ref cy_en_ble_conn_state_t : The current client state. The following are 
 859:Generated_Source\PSoC6\pdl\middleware\ble/cy_ble_gap.h **** *                               possible states.
 860:Generated_Source\PSoC6\pdl\middleware\ble/cy_ble_gap.h **** *
 861:Generated_Source\PSoC6\pdl\middleware\ble/cy_ble_gap.h **** *               State                                |         Description
 862:Generated_Source\PSoC6\pdl\middleware\ble/cy_ble_gap.h **** *   ------------------------------------------------ | -----------------------------
 863:Generated_Source\PSoC6\pdl\middleware\ble/cy_ble_gap.h **** *   CY_BLE_CONN_STATE_DISCONNECTED                   | Essentially idle state
 864:Generated_Source\PSoC6\pdl\middleware\ble/cy_ble_gap.h **** *   CY_BLE_CONN_STATE_CLIENT_DISCONNECTED_DISCOVERED | Server is disconnected but discovered.
 865:Generated_Source\PSoC6\pdl\middleware\ble/cy_ble_gap.h **** *   CY_BLE_CONN_STATE_CONNECTED                      | Peer device is connected for this and follow
 866:Generated_Source\PSoC6\pdl\middleware\ble/cy_ble_gap.h **** *   CY_BLE_CONN_STATE_CLIENT_SRVC_DISCOVERING        | Server services are being discovered.
 867:Generated_Source\PSoC6\pdl\middleware\ble/cy_ble_gap.h **** *   CY_BLE_CONN_STATE_CLIENT_INCL_DISCOVERING        | Server included services are being discovere
ARM GAS  C:\Users\gjl\AppData\Local\Temp\ccYWElnH.s 			page 32


 868:Generated_Source\PSoC6\pdl\middleware\ble/cy_ble_gap.h **** *   CY_BLE_CONN_STATE_CLIENT_CHAR_DISCOVERING        | Server characteristics are being discovered
 869:Generated_Source\PSoC6\pdl\middleware\ble/cy_ble_gap.h **** *   CY_BLE_CONN_STATE_CLIENT_DESCR_DISCOVERING       | Server char. descriptors are being discovere
 870:Generated_Source\PSoC6\pdl\middleware\ble/cy_ble_gap.h **** *   CY_BLE_CONN_STATE_CLIENT_DISCOVERED              | Server is discovered   
 871:Generated_Source\PSoC6\pdl\middleware\ble/cy_ble_gap.h **** *
 872:Generated_Source\PSoC6\pdl\middleware\ble/cy_ble_gap.h **** *
 873:Generated_Source\PSoC6\pdl\middleware\ble/cy_ble_gap.h **** ******************************************************************************/
 874:Generated_Source\PSoC6\pdl\middleware\ble/cy_ble_gap.h **** __STATIC_INLINE cy_en_ble_conn_state_t Cy_BLE_GetConnectionState(cy_stc_ble_conn_handle_t connHandl
 875:Generated_Source\PSoC6\pdl\middleware\ble/cy_ble_gap.h **** {
 876:Generated_Source\PSoC6\pdl\middleware\ble/cy_ble_gap.h ****     return((connHandle.attId < CY_BLE_CONN_COUNT) ? cy_ble_connState[connHandle.attId] : CY_BLE_CON
 403              		.loc 2 876 0
 404 005a 9DF80120 		ldrb	r2, [sp, #1]	@ zero_extendqisi2
 405 005e 12B9     		cbnz	r2, .L45
 406 0060 4249     		ldr	r1, .L47+12
 407 0062 895C     		ldrb	r1, [r1, r2]	@ zero_extendqisi2
 408 0064 00E0     		b	.L34
 409              	.L45:
 410 0066 0021     		movs	r1, #0
 411              	.L34:
 412              	.LBE26:
 413              	.LBE25:
 488:Generated_Source\PSoC6\pdl\middleware\ble/cy_ble_gap.c ****         {
 489:Generated_Source\PSoC6\pdl\middleware\ble/cy_ble_gap.c ****             if((Cy_BLE_GetConnectionState(cy_ble_connHandle[i]) >= CY_BLE_CONN_STATE_CONNECTED) &&
 414              		.loc 1 489 0
 415 0068 0129     		cmp	r1, #1
 416 006a 24D9     		bls	.L35
 490:Generated_Source\PSoC6\pdl\middleware\ble/cy_ble_gap.c ****                (cy_ble_peerBonding[cy_ble_connHandle[i].attId] == CY_BLE_GAP_BONDING))
 417              		.loc 1 490 0 discriminator 1
 418 006c 4049     		ldr	r1, .L47+16
 419 006e 895C     		ldrb	r1, [r1, r2]	@ zero_extendqisi2
 489:Generated_Source\PSoC6\pdl\middleware\ble/cy_ble_gap.c ****                (cy_ble_peerBonding[cy_ble_connHandle[i].attId] == CY_BLE_GAP_BONDING))
 420              		.loc 1 489 0 discriminator 1
 421 0070 0129     		cmp	r1, #1
 422 0072 20D1     		bne	.L35
 423              	.LBB27:
 491:Generated_Source\PSoC6\pdl\middleware\ble/cy_ble_gap.c ****             {
 492:Generated_Source\PSoC6\pdl\middleware\ble/cy_ble_gap.c ****                 uint8_t cccdBlockCrc;
 493:Generated_Source\PSoC6\pdl\middleware\ble/cy_ble_gap.c ****                 appFlashParam.srcBuff = (uint8_t*)cy_ble_attValuesCccdMultiple[cy_ble_connHandle[i]
 424              		.loc 1 493 0
 425 0074 02EB4202 		add	r2, r2, r2, lsl #1
 426 0078 3E4D     		ldr	r5, .L47+20
 427 007a 5019     		adds	r0, r2, r5
 428 007c 0590     		str	r0, [sp, #20]
 494:Generated_Source\PSoC6\pdl\middleware\ble/cy_ble_gap.c ****                 appFlashParam.destAddr = (uint8_t*)cy_ble_configPtr->flashStorage->attValuesCCCDFla
 429              		.loc 1 494 0
 430 007e 3E4B     		ldr	r3, .L47+24
 431              	.LVL35:
 432 0080 1B68     		ldr	r3, [r3]
 433 0082 1A69     		ldr	r2, [r3, #16]
 495:Generated_Source\PSoC6\pdl\middleware\ble/cy_ble_gap.c ****                                          [cy_ble_connHandle[i].bdHandle];
 434              		.loc 1 495 0
 435 0084 384E     		ldr	r6, .L47+8
 436 0086 16F81430 		ldrb	r3, [r6, r4, lsl #1]	@ zero_extendqisi2
 494:Generated_Source\PSoC6\pdl\middleware\ble/cy_ble_gap.c ****                 appFlashParam.destAddr = (uint8_t*)cy_ble_configPtr->flashStorage->attValuesCCCDFla
 437              		.loc 1 494 0
 438 008a 03EB4303 		add	r3, r3, r3, lsl #1
 439 008e 03F58353 		add	r3, r3, #4192
 440 0092 1344     		add	r3, r3, r2
ARM GAS  C:\Users\gjl\AppData\Local\Temp\ccYWElnH.s 			page 33


 441 0094 0633     		adds	r3, r3, #6
 442 0096 0693     		str	r3, [sp, #24]
 496:Generated_Source\PSoC6\pdl\middleware\ble/cy_ble_gap.c **** 
 497:Generated_Source\PSoC6\pdl\middleware\ble/cy_ble_gap.c ****                 /* Calculate CRC for CCCD block */
 498:Generated_Source\PSoC6\pdl\middleware\ble/cy_ble_gap.c ****                 cccdBlockCrc = Cy_BLE_HAL_CalcCRC8(cy_ble_attValuesCccdMultiple[cy_ble_connHandle[i
 443              		.loc 1 498 0
 444 0098 0221     		movs	r1, #2
 445 009a FFF7FEFF 		bl	Cy_BLE_HAL_CalcCRC8
 446              	.LVL36:
 499:Generated_Source\PSoC6\pdl\middleware\ble/cy_ble_gap.c ****                                                    CY_BLE_GATT_DB_CCCD_COUNT);
 500:Generated_Source\PSoC6\pdl\middleware\ble/cy_ble_gap.c ****                 /* Store new CRC value */                    
 501:Generated_Source\PSoC6\pdl\middleware\ble/cy_ble_gap.c ****                 cy_ble_attValuesCccdMultiple[cy_ble_connHandle[i].attId][CY_BLE_GATT_DB_CCCD_COUNT]
 447              		.loc 1 501 0
 448 009e 06EB4406 		add	r6, r6, r4, lsl #1
 449 00a2 7378     		ldrb	r3, [r6, #1]	@ zero_extendqisi2
 450 00a4 03EB4303 		add	r3, r3, r3, lsl #1
 451 00a8 1D44     		add	r5, r5, r3
 452 00aa A870     		strb	r0, [r5, #2]
 502:Generated_Source\PSoC6\pdl\middleware\ble/cy_ble_gap.c ****                 
 503:Generated_Source\PSoC6\pdl\middleware\ble/cy_ble_gap.c ****                 apiResult = Cy_BLE_StoreAppData(&appFlashParam);
 453              		.loc 1 503 0
 454 00ac 05A8     		add	r0, sp, #20
 455              	.LVL37:
 456 00ae FFF7FEFF 		bl	Cy_BLE_StoreAppData
 457              	.LVL38:
 504:Generated_Source\PSoC6\pdl\middleware\ble/cy_ble_gap.c ****                 if(apiResult != CY_BLE_SUCCESS)
 458              		.loc 1 504 0
 459 00b2 0346     		mov	r3, r0
 460 00b4 10B9     		cbnz	r0, .L36
 461              	.LVL39:
 462              	.L35:
 463              	.LBE27:
 487:Generated_Source\PSoC6\pdl\middleware\ble/cy_ble_gap.c ****         {
 464              		.loc 1 487 0 discriminator 2
 465 00b6 0134     		adds	r4, r4, #1
 466              	.LVL40:
 467              	.L33:
 487:Generated_Source\PSoC6\pdl\middleware\ble/cy_ble_gap.c ****         {
 468              		.loc 1 487 0 is_stmt 0 discriminator 1
 469 00b8 002C     		cmp	r4, #0
 470 00ba C9D0     		beq	.L37
 471              	.L36:
 505:Generated_Source\PSoC6\pdl\middleware\ble/cy_ble_gap.c ****                 {
 506:Generated_Source\PSoC6\pdl\middleware\ble/cy_ble_gap.c ****                     break;
 507:Generated_Source\PSoC6\pdl\middleware\ble/cy_ble_gap.c ****                 }
 508:Generated_Source\PSoC6\pdl\middleware\ble/cy_ble_gap.c ****             }
 509:Generated_Source\PSoC6\pdl\middleware\ble/cy_ble_gap.c ****         }
 510:Generated_Source\PSoC6\pdl\middleware\ble/cy_ble_gap.c ****         if(apiResult == CY_BLE_SUCCESS)
 472              		.loc 1 510 0 is_stmt 1
 473 00bc 23B9     		cbnz	r3, .L32
 511:Generated_Source\PSoC6\pdl\middleware\ble/cy_ble_gap.c ****         {
 512:Generated_Source\PSoC6\pdl\middleware\ble/cy_ble_gap.c ****             cy_ble_pendingFlashWrite &= (uint8_t) ~CY_BLE_PENDING_CCCD_FLASH_WRITE_BIT;
 474              		.loc 1 512 0
 475 00be 2849     		ldr	r1, .L47
 476 00c0 0A78     		ldrb	r2, [r1]	@ zero_extendqisi2
 477 00c2 22F00202 		bic	r2, r2, #2
 478 00c6 0A70     		strb	r2, [r1]
ARM GAS  C:\Users\gjl\AppData\Local\Temp\ccYWElnH.s 			page 34


 479              	.LVL41:
 480              	.L32:
 481              	.LBE24:
 513:Generated_Source\PSoC6\pdl\middleware\ble/cy_ble_gap.c ****         }
 514:Generated_Source\PSoC6\pdl\middleware\ble/cy_ble_gap.c ****     }
 515:Generated_Source\PSoC6\pdl\middleware\ble/cy_ble_gap.c **** 
 516:Generated_Source\PSoC6\pdl\middleware\ble/cy_ble_gap.c ****     /* Clear requested CCCD values */
 517:Generated_Source\PSoC6\pdl\middleware\ble/cy_ble_gap.c ****     if((apiResult == CY_BLE_SUCCESS) &&
 482              		.loc 1 517 0
 483 00c8 002B     		cmp	r3, #0
 484 00ca 45D1     		bne	.L39
 518:Generated_Source\PSoC6\pdl\middleware\ble/cy_ble_gap.c ****        ((cy_ble_pendingFlashWrite & CY_BLE_PENDING_CCCD_FLASH_CLEAR_MASK) != 0u))
 485              		.loc 1 518 0 discriminator 1
 486 00cc 244A     		ldr	r2, .L47
 487 00ce 1278     		ldrb	r2, [r2]	@ zero_extendqisi2
 517:Generated_Source\PSoC6\pdl\middleware\ble/cy_ble_gap.c ****        ((cy_ble_pendingFlashWrite & CY_BLE_PENDING_CCCD_FLASH_CLEAR_MASK) != 0u))
 488              		.loc 1 517 0 discriminator 1
 489 00d0 12F00C0F 		tst	r2, #12
 490 00d4 40D0     		beq	.L39
 519:Generated_Source\PSoC6\pdl\middleware\ble/cy_ble_gap.c ****     {
 520:Generated_Source\PSoC6\pdl\middleware\ble/cy_ble_gap.c ****         if((cy_ble_pendingFlashWrite & CY_BLE_PENDING_CCCD_FLASH_CLEAR_ALL_BIT) != 0u)
 491              		.loc 1 520 0
 492 00d6 12F0080F 		tst	r2, #8
 493 00da 1BD0     		beq	.L40
 494              	.LBB28:
 521:Generated_Source\PSoC6\pdl\middleware\ble/cy_ble_gap.c ****         {
 522:Generated_Source\PSoC6\pdl\middleware\ble/cy_ble_gap.c ****             /* Remove CCCD values for all bonded devices */
 523:Generated_Source\PSoC6\pdl\middleware\ble/cy_ble_gap.c ****             uint8_t defaultValuesCCCD[CY_BLE_MAX_BONDED_DEVICES + CY_BLE_CONN_COUNT][CY_BLE_GATT_DB
 524:Generated_Source\PSoC6\pdl\middleware\ble/cy_ble_gap.c ****             cy_stc_ble_app_flash_param_t appFlashParam =
 495              		.loc 1 524 0
 496 00dc 0021     		movs	r1, #0
 497 00de 0291     		str	r1, [sp, #8]
 498 00e0 0391     		str	r1, [sp, #12]
 499 00e2 0491     		str	r1, [sp, #16]
 500 00e4 05A8     		add	r0, sp, #20
 501 00e6 0190     		str	r0, [sp, #4]
 525:Generated_Source\PSoC6\pdl\middleware\ble/cy_ble_gap.c ****             {
 526:Generated_Source\PSoC6\pdl\middleware\ble/cy_ble_gap.c ****                 .srcBuff  = (uint8_t*)defaultValuesCCCD,
 527:Generated_Source\PSoC6\pdl\middleware\ble/cy_ble_gap.c ****                 .destAddr = (uint8_t*)cy_ble_configPtr->flashStorage->attValuesCCCDFlashMemory,
 502              		.loc 1 527 0
 503 00e8 234B     		ldr	r3, .L47+24
 504              	.LVL42:
 505 00ea 1B68     		ldr	r3, [r3]
 506 00ec 1B69     		ldr	r3, [r3, #16]
 507 00ee 03F58353 		add	r3, r3, #4192
 508 00f2 0633     		adds	r3, r3, #6
 524:Generated_Source\PSoC6\pdl\middleware\ble/cy_ble_gap.c ****             {
 509              		.loc 1 524 0
 510 00f4 0293     		str	r3, [sp, #8]
 511 00f6 3322     		movs	r2, #51
 512 00f8 0392     		str	r2, [sp, #12]
 528:Generated_Source\PSoC6\pdl\middleware\ble/cy_ble_gap.c ****                 .buffLen  = sizeof(defaultValuesCCCD),
 529:Generated_Source\PSoC6\pdl\middleware\ble/cy_ble_gap.c ****             };
 530:Generated_Source\PSoC6\pdl\middleware\ble/cy_ble_gap.c **** 
 531:Generated_Source\PSoC6\pdl\middleware\ble/cy_ble_gap.c ****             (void)memset(defaultValuesCCCD, 0, sizeof(defaultValuesCCCD));
 513              		.loc 1 531 0
 514 00fa FFF7FEFF 		bl	memset
ARM GAS  C:\Users\gjl\AppData\Local\Temp\ccYWElnH.s 			page 35


 515              	.LVL43:
 532:Generated_Source\PSoC6\pdl\middleware\ble/cy_ble_gap.c **** 
 533:Generated_Source\PSoC6\pdl\middleware\ble/cy_ble_gap.c ****             apiResult = Cy_BLE_StoreAppData(&appFlashParam);
 516              		.loc 1 533 0
 517 00fe 01A8     		add	r0, sp, #4
 518 0100 FFF7FEFF 		bl	Cy_BLE_StoreAppData
 519              	.LVL44:
 534:Generated_Source\PSoC6\pdl\middleware\ble/cy_ble_gap.c ****             if(apiResult == CY_BLE_SUCCESS)
 520              		.loc 1 534 0
 521 0104 0346     		mov	r3, r0
 522 0106 38BB     		cbnz	r0, .L39
 535:Generated_Source\PSoC6\pdl\middleware\ble/cy_ble_gap.c ****             {
 536:Generated_Source\PSoC6\pdl\middleware\ble/cy_ble_gap.c ****                 cy_ble_pendingFlashWrite &= (uint8_t) ~CY_BLE_PENDING_CCCD_FLASH_CLEAR_ALL_BIT;
 523              		.loc 1 536 0
 524 0108 1549     		ldr	r1, .L47
 525 010a 0A78     		ldrb	r2, [r1]	@ zero_extendqisi2
 526 010c 22F00802 		bic	r2, r2, #8
 527 0110 0A70     		strb	r2, [r1]
 528 0112 21E0     		b	.L39
 529              	.LVL45:
 530              	.L40:
 531              	.LBE28:
 532              	.LBB29:
 537:Generated_Source\PSoC6\pdl\middleware\ble/cy_ble_gap.c ****             }
 538:Generated_Source\PSoC6\pdl\middleware\ble/cy_ble_gap.c ****         }
 539:Generated_Source\PSoC6\pdl\middleware\ble/cy_ble_gap.c ****         else /* Remove CCCD values for particular device */
 540:Generated_Source\PSoC6\pdl\middleware\ble/cy_ble_gap.c ****         {
 541:Generated_Source\PSoC6\pdl\middleware\ble/cy_ble_gap.c ****             uint8_t defaultValuesCCCD[CY_BLE_GATT_DB_CCCD_COUNT + CY_BLE_CCCD_CRC_BYTE] = { 0u };
 533              		.loc 1 541 0
 534 0114 01AA     		add	r2, sp, #4
 535 0116 0023     		movs	r3, #0
 536              	.LVL46:
 537 0118 ADF80430 		strh	r3, [sp, #4]	@ movhi
 538 011c 8DF80630 		strb	r3, [sp, #6]
 542:Generated_Source\PSoC6\pdl\middleware\ble/cy_ble_gap.c ****             cy_stc_ble_app_flash_param_t appFlashParam =
 539              		.loc 1 542 0
 540 0120 0693     		str	r3, [sp, #24]
 541 0122 0793     		str	r3, [sp, #28]
 542 0124 0893     		str	r3, [sp, #32]
 543 0126 0592     		str	r2, [sp, #20]
 543:Generated_Source\PSoC6\pdl\middleware\ble/cy_ble_gap.c ****             {
 544:Generated_Source\PSoC6\pdl\middleware\ble/cy_ble_gap.c ****                 .srcBuff  = (uint8_t*)defaultValuesCCCD,
 545:Generated_Source\PSoC6\pdl\middleware\ble/cy_ble_gap.c ****                 .destAddr = (uint8_t*)cy_ble_configPtr->flashStorage->
 544              		.loc 1 545 0
 545 0128 134B     		ldr	r3, .L47+24
 546 012a 1B68     		ldr	r3, [r3]
 547 012c 1A69     		ldr	r2, [r3, #16]
 546:Generated_Source\PSoC6\pdl\middleware\ble/cy_ble_gap.c ****                              attValuesCCCDFlashMemory[cy_ble_pendingFlashClearCccdHandle],
 548              		.loc 1 546 0
 549 012e 134B     		ldr	r3, .L47+28
 550 0130 1B7A     		ldrb	r3, [r3, #8]	@ zero_extendqisi2
 545:Generated_Source\PSoC6\pdl\middleware\ble/cy_ble_gap.c ****                              attValuesCCCDFlashMemory[cy_ble_pendingFlashClearCccdHandle],
 551              		.loc 1 545 0
 552 0132 03EB4303 		add	r3, r3, r3, lsl #1
 553 0136 03F58353 		add	r3, r3, #4192
 554 013a 1344     		add	r3, r3, r2
 555 013c 0633     		adds	r3, r3, #6
ARM GAS  C:\Users\gjl\AppData\Local\Temp\ccYWElnH.s 			page 36


 542:Generated_Source\PSoC6\pdl\middleware\ble/cy_ble_gap.c ****             {
 556              		.loc 1 542 0
 557 013e 0693     		str	r3, [sp, #24]
 558 0140 0323     		movs	r3, #3
 559 0142 0793     		str	r3, [sp, #28]
 547:Generated_Source\PSoC6\pdl\middleware\ble/cy_ble_gap.c ****                 .buffLen  = CY_BLE_GATT_DB_CCCD_COUNT + CY_BLE_CCCD_CRC_BYTE,
 548:Generated_Source\PSoC6\pdl\middleware\ble/cy_ble_gap.c ****             };
 549:Generated_Source\PSoC6\pdl\middleware\ble/cy_ble_gap.c **** 
 550:Generated_Source\PSoC6\pdl\middleware\ble/cy_ble_gap.c ****             apiResult = Cy_BLE_StoreAppData(&appFlashParam);
 560              		.loc 1 550 0
 561 0144 05A8     		add	r0, sp, #20
 562 0146 FFF7FEFF 		bl	Cy_BLE_StoreAppData
 563              	.LVL47:
 551:Generated_Source\PSoC6\pdl\middleware\ble/cy_ble_gap.c ****             if(apiResult == CY_BLE_SUCCESS)
 564              		.loc 1 551 0
 565 014a 0346     		mov	r3, r0
 566 014c 20B9     		cbnz	r0, .L39
 552:Generated_Source\PSoC6\pdl\middleware\ble/cy_ble_gap.c ****             {
 553:Generated_Source\PSoC6\pdl\middleware\ble/cy_ble_gap.c ****                 cy_ble_pendingFlashWrite &= (uint8_t) ~CY_BLE_PENDING_CCCD_FLASH_CLEAR_BIT;
 567              		.loc 1 553 0
 568 014e 0449     		ldr	r1, .L47
 569 0150 0A78     		ldrb	r2, [r1]	@ zero_extendqisi2
 570 0152 22F00402 		bic	r2, r2, #4
 571 0156 0A70     		strb	r2, [r1]
 572              	.LVL48:
 573              	.L39:
 574              	.LBE29:
 554:Generated_Source\PSoC6\pdl\middleware\ble/cy_ble_gap.c ****             }
 555:Generated_Source\PSoC6\pdl\middleware\ble/cy_ble_gap.c ****         }
 556:Generated_Source\PSoC6\pdl\middleware\ble/cy_ble_gap.c ****     }
 557:Generated_Source\PSoC6\pdl\middleware\ble/cy_ble_gap.c **** #endif /* CY_BLE_GATT_DB_CCCD_COUNT != 0u */
 558:Generated_Source\PSoC6\pdl\middleware\ble/cy_ble_gap.c ****     return(apiResult);
 559:Generated_Source\PSoC6\pdl\middleware\ble/cy_ble_gap.c **** }
 575              		.loc 1 559 0
 576 0158 1846     		mov	r0, r3
 577 015a 12B0     		add	sp, sp, #72
 578              		.cfi_def_cfa_offset 16
 579              		@ sp needed
 580 015c 70BD     		pop	{r4, r5, r6, pc}
 581              	.L48:
 582 015e 00BF     		.align	2
 583              	.L47:
 584 0160 00000000 		.word	cy_ble_pendingFlashWrite
 585 0164 01001400 		.word	1310721
 586 0168 00000000 		.word	cy_ble_connHandle
 587 016c 00000000 		.word	cy_ble_connState
 588 0170 00000000 		.word	cy_ble_peerBonding
 589 0174 00000000 		.word	cy_ble_attValuesCccdMultiple
 590 0178 00000000 		.word	cy_ble_configPtr
 591 017c 00000000 		.word	.LANCHOR0
 592              		.cfi_endproc
 593              	.LFE288:
 594              		.size	Cy_BLE_StoreBondingData, .-Cy_BLE_StoreBondingData
 595              		.section	.text.Cy_BLE_GAP_RemoveBondedDevice,"ax",%progbits
 596              		.align	2
 597              		.global	Cy_BLE_GAP_RemoveBondedDevice
 598              		.thumb
ARM GAS  C:\Users\gjl\AppData\Local\Temp\ccYWElnH.s 			page 37


 599              		.thumb_func
 600              		.type	Cy_BLE_GAP_RemoveBondedDevice, %function
 601              	Cy_BLE_GAP_RemoveBondedDevice:
 602              	.LFB289:
 560:Generated_Source\PSoC6\pdl\middleware\ble/cy_ble_gap.c **** 
 561:Generated_Source\PSoC6\pdl\middleware\ble/cy_ble_gap.c **** 
 562:Generated_Source\PSoC6\pdl\middleware\ble/cy_ble_gap.c **** /******************************************************************************
 563:Generated_Source\PSoC6\pdl\middleware\ble/cy_ble_gap.c **** * Function Name: Cy_BLE_GAP_RemoveBondedDevice
 564:Generated_Source\PSoC6\pdl\middleware\ble/cy_ble_gap.c **** ***************************************************************************//**
 565:Generated_Source\PSoC6\pdl\middleware\ble/cy_ble_gap.c **** *
 566:Generated_Source\PSoC6\pdl\middleware\ble/cy_ble_gap.c **** *  This function removes the bonding information of the device including CCCD
 567:Generated_Source\PSoC6\pdl\middleware\ble/cy_ble_gap.c **** *  values. 
 568:Generated_Source\PSoC6\pdl\middleware\ble/cy_ble_gap.c **** *
 569:Generated_Source\PSoC6\pdl\middleware\ble/cy_ble_gap.c **** *  This function is available only when Bonding requirement is selected in
 570:Generated_Source\PSoC6\pdl\middleware\ble/cy_ble_gap.c **** *  Security settings.
 571:Generated_Source\PSoC6\pdl\middleware\ble/cy_ble_gap.c **** *
 572:Generated_Source\PSoC6\pdl\middleware\ble/cy_ble_gap.c **** *  \param bdAddr: Pointer to peer device address,
 573:Generated_Source\PSoC6\pdl\middleware\ble/cy_ble_gap.c **** *                   of type \ref cy_stc_ble_gap_bd_addr_t.
 574:Generated_Source\PSoC6\pdl\middleware\ble/cy_ble_gap.c **** *
 575:Generated_Source\PSoC6\pdl\middleware\ble/cy_ble_gap.c **** *  \return
 576:Generated_Source\PSoC6\pdl\middleware\ble/cy_ble_gap.c **** *  \ref cy_en_ble_api_result_t : Return value indicates if the function 
 577:Generated_Source\PSoC6\pdl\middleware\ble/cy_ble_gap.c **** *   succeeded or failed. The following are possible error codes.
 578:Generated_Source\PSoC6\pdl\middleware\ble/cy_ble_gap.c **** *
 579:Generated_Source\PSoC6\pdl\middleware\ble/cy_ble_gap.c **** *   Error Codes                       | Description
 580:Generated_Source\PSoC6\pdl\middleware\ble/cy_ble_gap.c **** *   --------------------------------- | ------------------------------------
 581:Generated_Source\PSoC6\pdl\middleware\ble/cy_ble_gap.c **** *   CY_BLE_SUCCESS                    | On successful operation.
 582:Generated_Source\PSoC6\pdl\middleware\ble/cy_ble_gap.c **** *   CY_BLE_ERROR_INVALID_PARAMETER    | On specifying NULL as input parameter for 'bdAddr'.
 583:Generated_Source\PSoC6\pdl\middleware\ble/cy_ble_gap.c **** *   CY_BLE_ERROR_INVALID_OPERATION    | Whitelist is already in use or there is pending write to fl
 584:Generated_Source\PSoC6\pdl\middleware\ble/cy_ble_gap.c **** *   CY_BLE_ERROR_NO_DEVICE_ENTITY     | Device does not exist in the bond list.
 585:Generated_Source\PSoC6\pdl\middleware\ble/cy_ble_gap.c **** *
 586:Generated_Source\PSoC6\pdl\middleware\ble/cy_ble_gap.c **** *  \globalvars
 587:Generated_Source\PSoC6\pdl\middleware\ble/cy_ble_gap.c **** *   The bdHandle is set in \ref cy_ble_pendingFlashWrite variable to indicate that
 588:Generated_Source\PSoC6\pdl\middleware\ble/cy_ble_gap.c **** *   data should be stored to flash by Cy_BLE_StoreBondingData() afterwards.
 589:Generated_Source\PSoC6\pdl\middleware\ble/cy_ble_gap.c **** *
 590:Generated_Source\PSoC6\pdl\middleware\ble/cy_ble_gap.c **** ******************************************************************************/
 591:Generated_Source\PSoC6\pdl\middleware\ble/cy_ble_gap.c **** cy_en_ble_api_result_t Cy_BLE_GAP_RemoveBondedDevice(cy_stc_ble_gap_bd_addr_t* bdAddr)
 592:Generated_Source\PSoC6\pdl\middleware\ble/cy_ble_gap.c **** {
 603              		.loc 1 592 0
 604              		.cfi_startproc
 605              		@ args = 0, pretend = 0, frame = 16
 606              		@ frame_needed = 0, uses_anonymous_args = 0
 607              	.LVL49:
 593:Generated_Source\PSoC6\pdl\middleware\ble/cy_ble_gap.c ****     cy_en_ble_api_result_t apiResult = CY_BLE_SUCCESS;
 594:Generated_Source\PSoC6\pdl\middleware\ble/cy_ble_gap.c ****     cy_stc_ble_gap_peer_addr_info_t peerAddrInfoParam;
 595:Generated_Source\PSoC6\pdl\middleware\ble/cy_ble_gap.c **** 
 596:Generated_Source\PSoC6\pdl\middleware\ble/cy_ble_gap.c ****     if(bdAddr == NULL)
 608              		.loc 1 596 0
 609 0000 80B3     		cbz	r0, .L54
 592:Generated_Source\PSoC6\pdl\middleware\ble/cy_ble_gap.c ****     cy_en_ble_api_result_t apiResult = CY_BLE_SUCCESS;
 610              		.loc 1 592 0
 611 0002 30B5     		push	{r4, r5, lr}
 612              		.cfi_def_cfa_offset 12
 613              		.cfi_offset 4, -12
 614              		.cfi_offset 5, -8
 615              		.cfi_offset 14, -4
 616 0004 85B0     		sub	sp, sp, #20
 617              		.cfi_def_cfa_offset 32
ARM GAS  C:\Users\gjl\AppData\Local\Temp\ccYWElnH.s 			page 38


 597:Generated_Source\PSoC6\pdl\middleware\ble/cy_ble_gap.c ****     {
 598:Generated_Source\PSoC6\pdl\middleware\ble/cy_ble_gap.c ****         apiResult = CY_BLE_ERROR_INVALID_PARAMETER;
 599:Generated_Source\PSoC6\pdl\middleware\ble/cy_ble_gap.c ****     }
 600:Generated_Source\PSoC6\pdl\middleware\ble/cy_ble_gap.c ****     else if(cy_ble_pendingFlashWrite == 0u)
 618              		.loc 1 600 0
 619 0006 1B4B     		ldr	r3, .L57
 620 0008 1C78     		ldrb	r4, [r3]	@ zero_extendqisi2
 621 000a 74BB     		cbnz	r4, .L55
 622 000c 0546     		mov	r5, r0
 623              	.LBB30:
 601:Generated_Source\PSoC6\pdl\middleware\ble/cy_ble_gap.c ****     {
 602:Generated_Source\PSoC6\pdl\middleware\ble/cy_ble_gap.c ****     #if (CY_BLE_GATT_DB_CCCD_COUNT != 0u)
 603:Generated_Source\PSoC6\pdl\middleware\ble/cy_ble_gap.c ****         /* Request to clear CCCD values which will be done by Cy_BLE_StoreBondingData() */
 604:Generated_Source\PSoC6\pdl\middleware\ble/cy_ble_gap.c ****         cy_stc_ble_gap_bd_addr_t invalidBdAddr = { { 0u, 0u, 0u, 0u, 0u, 0u }, 0u };
 624              		.loc 1 604 0
 625 000e 0023     		movs	r3, #0
 626 0010 0093     		str	r3, [sp]
 627 0012 CDF80330 		str	r3, [sp, #3]	@ unaligned
 605:Generated_Source\PSoC6\pdl\middleware\ble/cy_ble_gap.c **** 
 606:Generated_Source\PSoC6\pdl\middleware\ble/cy_ble_gap.c ****         if(memcmp(((uint8_t*)&(bdAddr->bdAddr)), ((uint8_t*)&(invalidBdAddr.bdAddr)), CY_BLE_GAP_BD
 628              		.loc 1 606 0
 629 0016 0622     		movs	r2, #6
 630 0018 6946     		mov	r1, sp
 631 001a FFF7FEFF 		bl	memcmp
 632              	.LVL50:
 633 001e 28B9     		cbnz	r0, .L51
 607:Generated_Source\PSoC6\pdl\middleware\ble/cy_ble_gap.c ****         {
 608:Generated_Source\PSoC6\pdl\middleware\ble/cy_ble_gap.c ****             /* Request to remove all bonded devices by Cy_BLE_StoreBondingData() */
 609:Generated_Source\PSoC6\pdl\middleware\ble/cy_ble_gap.c ****             cy_ble_pendingFlashWrite |= CY_BLE_PENDING_CCCD_FLASH_CLEAR_ALL_BIT;
 634              		.loc 1 609 0
 635 0020 44F00804 		orr	r4, r4, #8
 636 0024 134B     		ldr	r3, .L57
 637 0026 1C70     		strb	r4, [r3]
 638              	.LBE30:
 593:Generated_Source\PSoC6\pdl\middleware\ble/cy_ble_gap.c ****     cy_stc_ble_gap_peer_addr_info_t peerAddrInfoParam;
 639              		.loc 1 593 0
 640 0028 0023     		movs	r3, #0
 641              	.LBB31:
 642 002a 15E0     		b	.L52
 643              	.L51:
 610:Generated_Source\PSoC6\pdl\middleware\ble/cy_ble_gap.c ****         }
 611:Generated_Source\PSoC6\pdl\middleware\ble/cy_ble_gap.c ****         else
 612:Generated_Source\PSoC6\pdl\middleware\ble/cy_ble_gap.c ****         {
 613:Generated_Source\PSoC6\pdl\middleware\ble/cy_ble_gap.c ****             /* Get the BD handle from Address */
 614:Generated_Source\PSoC6\pdl\middleware\ble/cy_ble_gap.c ****             peerAddrInfoParam.bdAddr = *bdAddr;
 644              		.loc 1 614 0
 645 002c 2868     		ldr	r0, [r5]	@ unaligned
 646 002e 0290     		str	r0, [sp, #8]	@ unaligned
 647 0030 AA88     		ldrh	r2, [r5, #4]	@ unaligned
 648 0032 AB79     		ldrb	r3, [r5, #6]	@ zero_extendqisi2
 649 0034 ADF80C20 		strh	r2, [sp, #12]	@ unaligned
 650 0038 8DF80E30 		strb	r3, [sp, #14]
 615:Generated_Source\PSoC6\pdl\middleware\ble/cy_ble_gap.c ****             apiResult = Cy_BLE_GAP_GetPeerBdHandle(&peerAddrInfoParam);
 651              		.loc 1 615 0
 652 003c 02A8     		add	r0, sp, #8
 653 003e FFF7FEFF 		bl	Cy_BLE_GAP_GetPeerBdHandle
 654              	.LVL51:
ARM GAS  C:\Users\gjl\AppData\Local\Temp\ccYWElnH.s 			page 39


 616:Generated_Source\PSoC6\pdl\middleware\ble/cy_ble_gap.c ****             if(apiResult == CY_BLE_SUCCESS)
 655              		.loc 1 616 0
 656 0042 0346     		mov	r3, r0
 657 0044 40B9     		cbnz	r0, .L52
 617:Generated_Source\PSoC6\pdl\middleware\ble/cy_ble_gap.c ****             {
 618:Generated_Source\PSoC6\pdl\middleware\ble/cy_ble_gap.c ****                 /* Store BD handle to clear CCCD values by Cy_BLE_StoreBondingData() */
 619:Generated_Source\PSoC6\pdl\middleware\ble/cy_ble_gap.c ****                 cy_ble_pendingFlashWrite |= CY_BLE_PENDING_CCCD_FLASH_CLEAR_BIT;
 658              		.loc 1 619 0
 659 0046 0B49     		ldr	r1, .L57
 660 0048 0A78     		ldrb	r2, [r1]	@ zero_extendqisi2
 661 004a 42F00402 		orr	r2, r2, #4
 662 004e 0A70     		strb	r2, [r1]
 620:Generated_Source\PSoC6\pdl\middleware\ble/cy_ble_gap.c ****                 cy_ble_pendingFlashClearCccdHandle = peerAddrInfoParam.bdHandle;
 663              		.loc 1 620 0
 664 0050 9DF80F10 		ldrb	r1, [sp, #15]	@ zero_extendqisi2
 665 0054 084A     		ldr	r2, .L57+4
 666 0056 1172     		strb	r1, [r2, #8]
 667              	.LVL52:
 668              	.L52:
 621:Generated_Source\PSoC6\pdl\middleware\ble/cy_ble_gap.c ****             }
 622:Generated_Source\PSoC6\pdl\middleware\ble/cy_ble_gap.c ****         }
 623:Generated_Source\PSoC6\pdl\middleware\ble/cy_ble_gap.c ****     #endif /* CY_BLE_GATT_DB_CCCD_COUNT != 0u */
 624:Generated_Source\PSoC6\pdl\middleware\ble/cy_ble_gap.c ****         if(apiResult == CY_BLE_SUCCESS)
 669              		.loc 1 624 0
 670 0058 43B9     		cbnz	r3, .L50
 625:Generated_Source\PSoC6\pdl\middleware\ble/cy_ble_gap.c ****         {
 626:Generated_Source\PSoC6\pdl\middleware\ble/cy_ble_gap.c ****             apiResult = Cy_BLE_GAP_RemoveDeviceFromBondList(bdAddr);
 671              		.loc 1 626 0
 672 005a 2846     		mov	r0, r5
 673 005c FFF7FEFF 		bl	Cy_BLE_GAP_RemoveDeviceFromBondList
 674              	.LVL53:
 675 0060 0346     		mov	r3, r0
 676              	.LVL54:
 677 0062 03E0     		b	.L50
 678              	.LVL55:
 679              	.L54:
 680              		.cfi_def_cfa_offset 0
 681              		.cfi_restore 4
 682              		.cfi_restore 5
 683              		.cfi_restore 14
 684              	.LBE31:
 598:Generated_Source\PSoC6\pdl\middleware\ble/cy_ble_gap.c ****     }
 685              		.loc 1 598 0
 686 0064 054B     		ldr	r3, .L57+8
 687              	.LVL56:
 627:Generated_Source\PSoC6\pdl\middleware\ble/cy_ble_gap.c ****         }
 628:Generated_Source\PSoC6\pdl\middleware\ble/cy_ble_gap.c ****     }
 629:Generated_Source\PSoC6\pdl\middleware\ble/cy_ble_gap.c ****     else
 630:Generated_Source\PSoC6\pdl\middleware\ble/cy_ble_gap.c ****     {
 631:Generated_Source\PSoC6\pdl\middleware\ble/cy_ble_gap.c ****         apiResult = CY_BLE_ERROR_INVALID_OPERATION;
 632:Generated_Source\PSoC6\pdl\middleware\ble/cy_ble_gap.c ****     }
 633:Generated_Source\PSoC6\pdl\middleware\ble/cy_ble_gap.c **** 
 634:Generated_Source\PSoC6\pdl\middleware\ble/cy_ble_gap.c ****     return(apiResult);
 635:Generated_Source\PSoC6\pdl\middleware\ble/cy_ble_gap.c **** }
 688              		.loc 1 635 0
 689 0066 1846     		mov	r0, r3
 690              	.LVL57:
ARM GAS  C:\Users\gjl\AppData\Local\Temp\ccYWElnH.s 			page 40


 691 0068 7047     		bx	lr
 692              	.LVL58:
 693              	.L55:
 694              		.cfi_def_cfa_offset 32
 695              		.cfi_offset 4, -12
 696              		.cfi_offset 5, -8
 697              		.cfi_offset 14, -4
 631:Generated_Source\PSoC6\pdl\middleware\ble/cy_ble_gap.c ****     }
 698              		.loc 1 631 0
 699 006a 054B     		ldr	r3, .L57+12
 700              	.LVL59:
 701              	.L50:
 702              		.loc 1 635 0
 703 006c 1846     		mov	r0, r3
 704 006e 05B0     		add	sp, sp, #20
 705              		.cfi_def_cfa_offset 12
 706              		@ sp needed
 707 0070 30BD     		pop	{r4, r5, pc}
 708              	.L58:
 709 0072 00BF     		.align	2
 710              	.L57:
 711 0074 00000000 		.word	cy_ble_pendingFlashWrite
 712 0078 00000000 		.word	.LANCHOR0
 713 007c 01001600 		.word	1441793
 714 0080 02001600 		.word	1441794
 715              		.cfi_endproc
 716              	.LFE289:
 717              		.size	Cy_BLE_GAP_RemoveBondedDevice, .-Cy_BLE_GAP_RemoveBondedDevice
 718              		.section	.text.Cy_BLE_GAPC_StartScan,"ax",%progbits
 719              		.align	2
 720              		.global	Cy_BLE_GAPC_StartScan
 721              		.thumb
 722              		.thumb_func
 723              		.type	Cy_BLE_GAPC_StartScan, %function
 724              	Cy_BLE_GAPC_StartScan:
 725              	.LFB290:
 636:Generated_Source\PSoC6\pdl\middleware\ble/cy_ble_gap.c **** 
 637:Generated_Source\PSoC6\pdl\middleware\ble/cy_ble_gap.c **** 
 638:Generated_Source\PSoC6\pdl\middleware\ble/cy_ble_gap.c **** #endif /* (CY_BLE_GAP_ROLE_PERIPHERAL || CY_BLE_GAP_ROLE_CENTRAL) && (CY_BLE_BONDING_REQUIREMENT ==
 639:Generated_Source\PSoC6\pdl\middleware\ble/cy_ble_gap.c **** 
 640:Generated_Source\PSoC6\pdl\middleware\ble/cy_ble_gap.c **** 
 641:Generated_Source\PSoC6\pdl\middleware\ble/cy_ble_gap.c **** #if (CY_BLE_GAP_ROLE_PERIPHERAL || CY_BLE_GAP_ROLE_BROADCASTER)
 642:Generated_Source\PSoC6\pdl\middleware\ble/cy_ble_gap.c **** 
 643:Generated_Source\PSoC6\pdl\middleware\ble/cy_ble_gap.c **** /******************************************************************************
 644:Generated_Source\PSoC6\pdl\middleware\ble/cy_ble_gap.c ****  *  Function Name: Cy_BLE_GAPP_StartAdvertisement
 645:Generated_Source\PSoC6\pdl\middleware\ble/cy_ble_gap.c ****  ***************************************************************************//**
 646:Generated_Source\PSoC6\pdl\middleware\ble/cy_ble_gap.c ****  *
 647:Generated_Source\PSoC6\pdl\middleware\ble/cy_ble_gap.c ****  *  This function is used to start the advertisement using the advertisement data
 648:Generated_Source\PSoC6\pdl\middleware\ble/cy_ble_gap.c ****  *  set in the BLE Component customizer's GUI indicated by the advertisingParamIndex.
 649:Generated_Source\PSoC6\pdl\middleware\ble/cy_ble_gap.c ****  *  After invoking this function, the device will be available for connection by
 650:Generated_Source\PSoC6\pdl\middleware\ble/cy_ble_gap.c ****  *  the devices configured for GAP central role. It is only included if the
 651:Generated_Source\PSoC6\pdl\middleware\ble/cy_ble_gap.c ****  *  device is configured for GAP Peripheral or GAP Peripheral + Central role.
 652:Generated_Source\PSoC6\pdl\middleware\ble/cy_ble_gap.c ****  *
 653:Generated_Source\PSoC6\pdl\middleware\ble/cy_ble_gap.c ****  *  On start of advertisement, GAP Peripheral receives the
 654:Generated_Source\PSoC6\pdl\middleware\ble/cy_ble_gap.c ****  *  #CY_BLE_EVT_GAPP_ADVERTISEMENT_START_STOP event. The following events are
 655:Generated_Source\PSoC6\pdl\middleware\ble/cy_ble_gap.c ****  *  possible on invoking this function:
 656:Generated_Source\PSoC6\pdl\middleware\ble/cy_ble_gap.c ****  *
ARM GAS  C:\Users\gjl\AppData\Local\Temp\ccYWElnH.s 			page 41


 657:Generated_Source\PSoC6\pdl\middleware\ble/cy_ble_gap.c ****  *  * #CY_BLE_EVT_GAP_DEVICE_CONNECTED - If the device connects to a GAP Central and
 658:Generated_Source\PSoC6\pdl\middleware\ble/cy_ble_gap.c ****  *     Link Layer Privacy is disabled.
 659:Generated_Source\PSoC6\pdl\middleware\ble/cy_ble_gap.c ****  *  * #CY_BLE_EVT_GAP_ENHANCE_CONN_COMPLETE - If the device connects to a GAP Central and
 660:Generated_Source\PSoC6\pdl\middleware\ble/cy_ble_gap.c ****  *     Link Layer Privacy is enabled.
 661:Generated_Source\PSoC6\pdl\middleware\ble/cy_ble_gap.c ****  *  * #CY_BLE_EVT_TIMEOUT: If no device in GAP Central mode connects to this
 662:Generated_Source\PSoC6\pdl\middleware\ble/cy_ble_gap.c ****  *                       device within the specified timeout limit. BLE Stack
 663:Generated_Source\PSoC6\pdl\middleware\ble/cy_ble_gap.c ****  *                       automatically initiate stop advertising when Slow
 664:Generated_Source\PSoC6\pdl\middleware\ble/cy_ble_gap.c ****  *                       advertising was initiated, or starts Slow advertising
 665:Generated_Source\PSoC6\pdl\middleware\ble/cy_ble_gap.c ****  *                       after Fast advertising timeout occur.
 666:Generated_Source\PSoC6\pdl\middleware\ble/cy_ble_gap.c ****  *  * #CY_BLE_EVT_GAPP_ADVERTISEMENT_START_STOP: If device started or stopped
 667:Generated_Source\PSoC6\pdl\middleware\ble/cy_ble_gap.c ****  *                       advertising. Use Cy_BLE_GetAdvertisementState() to
 668:Generated_Source\PSoC6\pdl\middleware\ble/cy_ble_gap.c ****  *                       determine the state. Sequential advertising could be
 669:Generated_Source\PSoC6\pdl\middleware\ble/cy_ble_gap.c ****  *                       started when #CY_BLE_ADV_STATE_STOPPED state is returned.
 670:Generated_Source\PSoC6\pdl\middleware\ble/cy_ble_gap.c ****  *  
 671:Generated_Source\PSoC6\pdl\middleware\ble/cy_ble_gap.c ****  *  \param advertisingIntervalType: Fast or slow advertising interval with timings
 672:Generated_Source\PSoC6\pdl\middleware\ble/cy_ble_gap.c ****  *                                  entered in Advertising settings section of the
 673:Generated_Source\PSoC6\pdl\middleware\ble/cy_ble_gap.c ****  *                                  customizer.
 674:Generated_Source\PSoC6\pdl\middleware\ble/cy_ble_gap.c ****  *  * CY_BLE_ADVERTISING_FAST   0x00u
 675:Generated_Source\PSoC6\pdl\middleware\ble/cy_ble_gap.c ****  *  * CY_BLE_ADVERTISING_SLOW   0x01u
 676:Generated_Source\PSoC6\pdl\middleware\ble/cy_ble_gap.c ****  *  * CY_BLE_ADVERTISING_CUSTOM 0x02u
 677:Generated_Source\PSoC6\pdl\middleware\ble/cy_ble_gap.c ****  *
 678:Generated_Source\PSoC6\pdl\middleware\ble/cy_ble_gap.c ****  *  \param advertisingParamIndex: The index of the peripheral and broadcast
 679:Generated_Source\PSoC6\pdl\middleware\ble/cy_ble_gap.c ****  *                                configuration in customizer. For example:
 680:Generated_Source\PSoC6\pdl\middleware\ble/cy_ble_gap.c ****  *  * CY_BLE_PERIPHERAL_CONFIGURATION_0_INDEX     0x00
 681:Generated_Source\PSoC6\pdl\middleware\ble/cy_ble_gap.c ****  *  * CY_BLE_BROADCASTER_CONFIGURATION_0_INDEX    0x01
 682:Generated_Source\PSoC6\pdl\middleware\ble/cy_ble_gap.c ****  *
 683:Generated_Source\PSoC6\pdl\middleware\ble/cy_ble_gap.c ****  *  \return
 684:Generated_Source\PSoC6\pdl\middleware\ble/cy_ble_gap.c ****  *  \ref cy_en_ble_api_result_t : Return value indicates if the function succeeded or
 685:Generated_Source\PSoC6\pdl\middleware\ble/cy_ble_gap.c ****  *  failed. The following are possible error codes.
 686:Generated_Source\PSoC6\pdl\middleware\ble/cy_ble_gap.c ****  *
 687:Generated_Source\PSoC6\pdl\middleware\ble/cy_ble_gap.c ****  *   Error Codes                       |  Description
 688:Generated_Source\PSoC6\pdl\middleware\ble/cy_ble_gap.c ****  *   --------------------------------- |  --------------------------------
 689:Generated_Source\PSoC6\pdl\middleware\ble/cy_ble_gap.c ****  *   CY_BLE_SUCCESS                    |  On successful operation.
 690:Generated_Source\PSoC6\pdl\middleware\ble/cy_ble_gap.c ****  *   CY_BLE_ERROR_INVALID_PARAMETER    |  On passing an invalid parameter.
 691:Generated_Source\PSoC6\pdl\middleware\ble/cy_ble_gap.c ****  *   CY_BLE_ERROR_INVALID_STATE        |  On calling this function not in Stopped state.
 692:Generated_Source\PSoC6\pdl\middleware\ble/cy_ble_gap.c ****  *   CY_BLE_ERROR_INVALID_OPERATION    |  The operation is not permitted due to connection
 693:Generated_Source\PSoC6\pdl\middleware\ble/cy_ble_gap.c ****  *                                     |  limit exceeded. 
 694:Generated_Source\PSoC6\pdl\middleware\ble/cy_ble_gap.c ****  *
 695:Generated_Source\PSoC6\pdl\middleware\ble/cy_ble_gap.c ****  * \note
 696:Generated_Source\PSoC6\pdl\middleware\ble/cy_ble_gap.c ****  *  #CY_BLE_EVT_GAPP_ADVERTISEMENT_START_STOP event is generated after calling 
 697:Generated_Source\PSoC6\pdl\middleware\ble/cy_ble_gap.c ****  *  Cy_BLE_GAPP_StartAdvertisement() and Cy_BLE_GAPP_StopAdvertisement() functions.
 698:Generated_Source\PSoC6\pdl\middleware\ble/cy_ble_gap.c ****  *  Application should keep track of which function call resulted into this event
 699:Generated_Source\PSoC6\pdl\middleware\ble/cy_ble_gap.c ****  *
 700:Generated_Source\PSoC6\pdl\middleware\ble/cy_ble_gap.c ****  *******************************************************************************/
 701:Generated_Source\PSoC6\pdl\middleware\ble/cy_ble_gap.c **** cy_en_ble_api_result_t Cy_BLE_GAPP_StartAdvertisement(uint8_t advertisingIntervalType,
 702:Generated_Source\PSoC6\pdl\middleware\ble/cy_ble_gap.c ****                                                       uint8_t advertisingParamIndex)
 703:Generated_Source\PSoC6\pdl\middleware\ble/cy_ble_gap.c **** {
 704:Generated_Source\PSoC6\pdl\middleware\ble/cy_ble_gap.c ****     cy_en_ble_api_result_t apiResult;
 705:Generated_Source\PSoC6\pdl\middleware\ble/cy_ble_gap.c **** 
 706:Generated_Source\PSoC6\pdl\middleware\ble/cy_ble_gap.c ****     if((advertisingIntervalType > CY_BLE_ADVERTISING_CUSTOM) || (advertisingParamIndex >= CY_BLE_GA
 707:Generated_Source\PSoC6\pdl\middleware\ble/cy_ble_gap.c ****     {
 708:Generated_Source\PSoC6\pdl\middleware\ble/cy_ble_gap.c ****         apiResult = CY_BLE_ERROR_INVALID_PARAMETER;
 709:Generated_Source\PSoC6\pdl\middleware\ble/cy_ble_gap.c ****     }
 710:Generated_Source\PSoC6\pdl\middleware\ble/cy_ble_gap.c **** #if (CY_BLE_GAP_ROLE_PERIPHERAL) 
 711:Generated_Source\PSoC6\pdl\middleware\ble/cy_ble_gap.c ****     else if((Cy_BLE_GetNumOfActiveConn() == CY_BLE_CONN_COUNT) && 
 712:Generated_Source\PSoC6\pdl\middleware\ble/cy_ble_gap.c ****             ((cy_ble_configPtr->discoveryModeInfo[advertisingParamIndex].advParam->advType <
 713:Generated_Source\PSoC6\pdl\middleware\ble/cy_ble_gap.c ****                 CY_BLE_GAPP_SCANNABLE_UNDIRECTED_ADV) ||
ARM GAS  C:\Users\gjl\AppData\Local\Temp\ccYWElnH.s 			page 42


 714:Generated_Source\PSoC6\pdl\middleware\ble/cy_ble_gap.c ****              (cy_ble_configPtr->discoveryModeInfo[advertisingParamIndex].advParam->advType >
 715:Generated_Source\PSoC6\pdl\middleware\ble/cy_ble_gap.c ****                 CY_BLE_GAPP_NON_CONNECTABLE_UNDIRECTED_ADV)))
 716:Generated_Source\PSoC6\pdl\middleware\ble/cy_ble_gap.c ****     {
 717:Generated_Source\PSoC6\pdl\middleware\ble/cy_ble_gap.c ****         apiResult = CY_BLE_ERROR_INVALID_OPERATION;
 718:Generated_Source\PSoC6\pdl\middleware\ble/cy_ble_gap.c ****     }
 719:Generated_Source\PSoC6\pdl\middleware\ble/cy_ble_gap.c **** #endif /*CY_BLE_GAP_ROLE_PERIPHERAL */
 720:Generated_Source\PSoC6\pdl\middleware\ble/cy_ble_gap.c ****     else if(Cy_BLE_GetAdvertisementState() == CY_BLE_ADV_STATE_STOPPED)
 721:Generated_Source\PSoC6\pdl\middleware\ble/cy_ble_gap.c ****     {
 722:Generated_Source\PSoC6\pdl\middleware\ble/cy_ble_gap.c ****         cy_ble_advIndex = advertisingParamIndex;
 723:Generated_Source\PSoC6\pdl\middleware\ble/cy_ble_gap.c ****         if(advertisingIntervalType == CY_BLE_ADVERTISING_FAST)
 724:Generated_Source\PSoC6\pdl\middleware\ble/cy_ble_gap.c ****         {
 725:Generated_Source\PSoC6\pdl\middleware\ble/cy_ble_gap.c ****             cy_ble_configPtr->discoveryModeInfo[advertisingParamIndex].advTo =
 726:Generated_Source\PSoC6\pdl\middleware\ble/cy_ble_gap.c ****                 cy_ble_configPtr->gappAdvParams[advertisingParamIndex].fastAdvTimeOut;
 727:Generated_Source\PSoC6\pdl\middleware\ble/cy_ble_gap.c ****             cy_ble_configPtr->discoveryModeInfo[advertisingParamIndex].advParam->advIntvMin =
 728:Generated_Source\PSoC6\pdl\middleware\ble/cy_ble_gap.c ****                 cy_ble_configPtr->gappAdvParams[advertisingParamIndex].fastAdvIntervalMin;
 729:Generated_Source\PSoC6\pdl\middleware\ble/cy_ble_gap.c ****             cy_ble_configPtr->discoveryModeInfo[advertisingParamIndex].advParam->advIntvMax =
 730:Generated_Source\PSoC6\pdl\middleware\ble/cy_ble_gap.c ****                 cy_ble_configPtr->gappAdvParams[advertisingParamIndex].fastAdvIntervalMax;
 731:Generated_Source\PSoC6\pdl\middleware\ble/cy_ble_gap.c ****         }
 732:Generated_Source\PSoC6\pdl\middleware\ble/cy_ble_gap.c ****         else if(advertisingIntervalType == CY_BLE_ADVERTISING_SLOW)
 733:Generated_Source\PSoC6\pdl\middleware\ble/cy_ble_gap.c ****         {
 734:Generated_Source\PSoC6\pdl\middleware\ble/cy_ble_gap.c ****             cy_ble_configPtr->discoveryModeInfo[advertisingParamIndex].advTo =
 735:Generated_Source\PSoC6\pdl\middleware\ble/cy_ble_gap.c ****                 cy_ble_configPtr->gappAdvParams[advertisingParamIndex].slowAdvTimeOut;
 736:Generated_Source\PSoC6\pdl\middleware\ble/cy_ble_gap.c ****             cy_ble_configPtr->discoveryModeInfo[advertisingParamIndex].advParam->advIntvMin =
 737:Generated_Source\PSoC6\pdl\middleware\ble/cy_ble_gap.c ****                 cy_ble_configPtr->gappAdvParams[advertisingParamIndex].slowAdvIntervalMin;
 738:Generated_Source\PSoC6\pdl\middleware\ble/cy_ble_gap.c ****             cy_ble_configPtr->discoveryModeInfo[advertisingParamIndex].advParam->advIntvMax =
 739:Generated_Source\PSoC6\pdl\middleware\ble/cy_ble_gap.c ****                 cy_ble_configPtr->gappAdvParams[advertisingParamIndex].slowAdvIntervalMax;
 740:Generated_Source\PSoC6\pdl\middleware\ble/cy_ble_gap.c ****         }
 741:Generated_Source\PSoC6\pdl\middleware\ble/cy_ble_gap.c ****         else /* Do not update advertising intervals */
 742:Generated_Source\PSoC6\pdl\middleware\ble/cy_ble_gap.c ****         {
 743:Generated_Source\PSoC6\pdl\middleware\ble/cy_ble_gap.c ****         }
 744:Generated_Source\PSoC6\pdl\middleware\ble/cy_ble_gap.c ****         cy_ble_advertisingIntervalType = advertisingIntervalType;
 745:Generated_Source\PSoC6\pdl\middleware\ble/cy_ble_gap.c ****         apiResult = Cy_BLE_GAPP_EnterDiscoveryMode(&cy_ble_configPtr->discoveryModeInfo[cy_ble_advI
 746:Generated_Source\PSoC6\pdl\middleware\ble/cy_ble_gap.c **** 
 747:Generated_Source\PSoC6\pdl\middleware\ble/cy_ble_gap.c ****         if(apiResult == CY_BLE_SUCCESS)
 748:Generated_Source\PSoC6\pdl\middleware\ble/cy_ble_gap.c ****         {
 749:Generated_Source\PSoC6\pdl\middleware\ble/cy_ble_gap.c ****             Cy_BLE_SetAdvertisementState(CY_BLE_ADV_STATE_ADV_INITIATED);
 750:Generated_Source\PSoC6\pdl\middleware\ble/cy_ble_gap.c ****         }
 751:Generated_Source\PSoC6\pdl\middleware\ble/cy_ble_gap.c ****     }
 752:Generated_Source\PSoC6\pdl\middleware\ble/cy_ble_gap.c ****     else
 753:Generated_Source\PSoC6\pdl\middleware\ble/cy_ble_gap.c ****     {
 754:Generated_Source\PSoC6\pdl\middleware\ble/cy_ble_gap.c ****         apiResult = CY_BLE_ERROR_INVALID_STATE;
 755:Generated_Source\PSoC6\pdl\middleware\ble/cy_ble_gap.c ****     }
 756:Generated_Source\PSoC6\pdl\middleware\ble/cy_ble_gap.c **** 
 757:Generated_Source\PSoC6\pdl\middleware\ble/cy_ble_gap.c ****     return(apiResult);
 758:Generated_Source\PSoC6\pdl\middleware\ble/cy_ble_gap.c **** }
 759:Generated_Source\PSoC6\pdl\middleware\ble/cy_ble_gap.c **** 
 760:Generated_Source\PSoC6\pdl\middleware\ble/cy_ble_gap.c **** 
 761:Generated_Source\PSoC6\pdl\middleware\ble/cy_ble_gap.c **** /******************************************************************************
 762:Generated_Source\PSoC6\pdl\middleware\ble/cy_ble_gap.c **** * Function Name: Cy_BLE_GAPP_StopAdvertisement
 763:Generated_Source\PSoC6\pdl\middleware\ble/cy_ble_gap.c **** ***************************************************************************//**
 764:Generated_Source\PSoC6\pdl\middleware\ble/cy_ble_gap.c **** *
 765:Generated_Source\PSoC6\pdl\middleware\ble/cy_ble_gap.c **** *   This function can be used to exit from discovery mode. After the execution
 766:Generated_Source\PSoC6\pdl\middleware\ble/cy_ble_gap.c **** *   of this function, there will no longer be any advertisements. On stopping
 767:Generated_Source\PSoC6\pdl\middleware\ble/cy_ble_gap.c **** *   advertising, GAP Peripheral receives #CY_BLE_EVT_GAPP_ADVERTISEMENT_START_STOP
 768:Generated_Source\PSoC6\pdl\middleware\ble/cy_ble_gap.c **** *   event.
 769:Generated_Source\PSoC6\pdl\middleware\ble/cy_ble_gap.c **** *
 770:Generated_Source\PSoC6\pdl\middleware\ble/cy_ble_gap.c **** *   The following event occurs on invoking this function:
ARM GAS  C:\Users\gjl\AppData\Local\Temp\ccYWElnH.s 			page 43


 771:Generated_Source\PSoC6\pdl\middleware\ble/cy_ble_gap.c **** *   * #CY_BLE_EVT_GAPP_ADVERTISEMENT_START_STOP
 772:Generated_Source\PSoC6\pdl\middleware\ble/cy_ble_gap.c **** *
 773:Generated_Source\PSoC6\pdl\middleware\ble/cy_ble_gap.c **** *
 774:Generated_Source\PSoC6\pdl\middleware\ble/cy_ble_gap.c **** *  \return
 775:Generated_Source\PSoC6\pdl\middleware\ble/cy_ble_gap.c **** *  \ref cy_en_ble_api_result_t : Return value indicates if the function succeeded or
 776:Generated_Source\PSoC6\pdl\middleware\ble/cy_ble_gap.c **** *  failed. The following are possible error codes.
 777:Generated_Source\PSoC6\pdl\middleware\ble/cy_ble_gap.c **** *
 778:Generated_Source\PSoC6\pdl\middleware\ble/cy_ble_gap.c **** *   Error Codes                           | Description
 779:Generated_Source\PSoC6\pdl\middleware\ble/cy_ble_gap.c **** *   ------------                          | -----------
 780:Generated_Source\PSoC6\pdl\middleware\ble/cy_ble_gap.c **** *   CY_BLE_SUCCESS                        | On successful operation.
 781:Generated_Source\PSoC6\pdl\middleware\ble/cy_ble_gap.c **** *   CY_BLE_ERROR_MEMORY_ALLOCATION_FAILED | Memory allocation failed.
 782:Generated_Source\PSoC6\pdl\middleware\ble/cy_ble_gap.c **** *   CY_BLE_ERROR_INVALID_STATE            | On calling this function not in Advertising state.
 783:Generated_Source\PSoC6\pdl\middleware\ble/cy_ble_gap.c **** *
 784:Generated_Source\PSoC6\pdl\middleware\ble/cy_ble_gap.c **** * \note
 785:Generated_Source\PSoC6\pdl\middleware\ble/cy_ble_gap.c **** *   #CY_BLE_EVT_GAPP_ADVERTISEMENT_START_STOP event is generated after calling 
 786:Generated_Source\PSoC6\pdl\middleware\ble/cy_ble_gap.c **** *   Cy_BLE_GAPP_StartAdvertisement() and Cy_BLE_GAPP_StopAdvertisement() functions.
 787:Generated_Source\PSoC6\pdl\middleware\ble/cy_ble_gap.c **** *   Application should keep track of which function call resulted into this event.
 788:Generated_Source\PSoC6\pdl\middleware\ble/cy_ble_gap.c **** *
 789:Generated_Source\PSoC6\pdl\middleware\ble/cy_ble_gap.c **** *******************************************************************************/
 790:Generated_Source\PSoC6\pdl\middleware\ble/cy_ble_gap.c **** cy_en_ble_api_result_t Cy_BLE_GAPP_StopAdvertisement(void)
 791:Generated_Source\PSoC6\pdl\middleware\ble/cy_ble_gap.c **** {
 792:Generated_Source\PSoC6\pdl\middleware\ble/cy_ble_gap.c ****     cy_en_ble_api_result_t apiResult;
 793:Generated_Source\PSoC6\pdl\middleware\ble/cy_ble_gap.c **** 
 794:Generated_Source\PSoC6\pdl\middleware\ble/cy_ble_gap.c ****     if(Cy_BLE_GetAdvertisementState() != CY_BLE_ADV_STATE_STOPPED)
 795:Generated_Source\PSoC6\pdl\middleware\ble/cy_ble_gap.c ****     {
 796:Generated_Source\PSoC6\pdl\middleware\ble/cy_ble_gap.c ****         apiResult = Cy_BLE_GAPP_ExitDiscoveryMode();
 797:Generated_Source\PSoC6\pdl\middleware\ble/cy_ble_gap.c ****         if(apiResult == CY_BLE_SUCCESS)
 798:Generated_Source\PSoC6\pdl\middleware\ble/cy_ble_gap.c ****         {
 799:Generated_Source\PSoC6\pdl\middleware\ble/cy_ble_gap.c ****             Cy_BLE_SetAdvertisementState(CY_BLE_ADV_STATE_STOP_INITIATED);
 800:Generated_Source\PSoC6\pdl\middleware\ble/cy_ble_gap.c ****         }
 801:Generated_Source\PSoC6\pdl\middleware\ble/cy_ble_gap.c ****     }
 802:Generated_Source\PSoC6\pdl\middleware\ble/cy_ble_gap.c ****     else
 803:Generated_Source\PSoC6\pdl\middleware\ble/cy_ble_gap.c ****     {
 804:Generated_Source\PSoC6\pdl\middleware\ble/cy_ble_gap.c ****         apiResult = CY_BLE_ERROR_INVALID_STATE;
 805:Generated_Source\PSoC6\pdl\middleware\ble/cy_ble_gap.c ****     }
 806:Generated_Source\PSoC6\pdl\middleware\ble/cy_ble_gap.c **** 
 807:Generated_Source\PSoC6\pdl\middleware\ble/cy_ble_gap.c ****     return(apiResult);
 808:Generated_Source\PSoC6\pdl\middleware\ble/cy_ble_gap.c **** }
 809:Generated_Source\PSoC6\pdl\middleware\ble/cy_ble_gap.c **** 
 810:Generated_Source\PSoC6\pdl\middleware\ble/cy_ble_gap.c **** 
 811:Generated_Source\PSoC6\pdl\middleware\ble/cy_ble_gap.c **** /******************************************************************************
 812:Generated_Source\PSoC6\pdl\middleware\ble/cy_ble_gap.c **** * Function Name: Cy_BLE_ChangeAdDeviceAddress
 813:Generated_Source\PSoC6\pdl\middleware\ble/cy_ble_gap.c **** ***************************************************************************//**
 814:Generated_Source\PSoC6\pdl\middleware\ble/cy_ble_gap.c **** *
 815:Generated_Source\PSoC6\pdl\middleware\ble/cy_ble_gap.c **** *  This function is used to set the Bluetooth device address into the
 816:Generated_Source\PSoC6\pdl\middleware\ble/cy_ble_gap.c **** *  advertisement or scan response data structures.
 817:Generated_Source\PSoC6\pdl\middleware\ble/cy_ble_gap.c **** *
 818:Generated_Source\PSoC6\pdl\middleware\ble/cy_ble_gap.c **** *  \param bdAddr: Bluetooth Device address. The variable is of type #cy_stc_ble_gap_bd_addr_t.
 819:Generated_Source\PSoC6\pdl\middleware\ble/cy_ble_gap.c **** *  \param dest: 0 - selects advertisement structure, not zero value selects scan
 820:Generated_Source\PSoC6\pdl\middleware\ble/cy_ble_gap.c **** *               response structure.
 821:Generated_Source\PSoC6\pdl\middleware\ble/cy_ble_gap.c **** *
 822:Generated_Source\PSoC6\pdl\middleware\ble/cy_ble_gap.c **** *  \return
 823:Generated_Source\PSoC6\pdl\middleware\ble/cy_ble_gap.c **** *   None
 824:Generated_Source\PSoC6\pdl\middleware\ble/cy_ble_gap.c **** *
 825:Generated_Source\PSoC6\pdl\middleware\ble/cy_ble_gap.c **** *******************************************************************************/
 826:Generated_Source\PSoC6\pdl\middleware\ble/cy_ble_gap.c **** void Cy_BLE_ChangeAdDeviceAddress(const cy_stc_ble_gap_bd_addr_t* bdAddr,
 827:Generated_Source\PSoC6\pdl\middleware\ble/cy_ble_gap.c ****                                   uint8_t dest)
ARM GAS  C:\Users\gjl\AppData\Local\Temp\ccYWElnH.s 			page 44


 828:Generated_Source\PSoC6\pdl\middleware\ble/cy_ble_gap.c **** {
 829:Generated_Source\PSoC6\pdl\middleware\ble/cy_ble_gap.c ****     uint32_t i;
 830:Generated_Source\PSoC6\pdl\middleware\ble/cy_ble_gap.c ****     uint32_t fFlag;
 831:Generated_Source\PSoC6\pdl\middleware\ble/cy_ble_gap.c ****     uint32_t adLength;
 832:Generated_Source\PSoC6\pdl\middleware\ble/cy_ble_gap.c ****     uint32_t byteCounter;
 833:Generated_Source\PSoC6\pdl\middleware\ble/cy_ble_gap.c ****     uint32_t maxLength;
 834:Generated_Source\PSoC6\pdl\middleware\ble/cy_ble_gap.c ****     uint32_t advIndex = 0u;
 835:Generated_Source\PSoC6\pdl\middleware\ble/cy_ble_gap.c ****     uint8_t *destBuffer;
 836:Generated_Source\PSoC6\pdl\middleware\ble/cy_ble_gap.c **** 
 837:Generated_Source\PSoC6\pdl\middleware\ble/cy_ble_gap.c ****     do
 838:Generated_Source\PSoC6\pdl\middleware\ble/cy_ble_gap.c ****     {
 839:Generated_Source\PSoC6\pdl\middleware\ble/cy_ble_gap.c ****         fFlag = 0u;
 840:Generated_Source\PSoC6\pdl\middleware\ble/cy_ble_gap.c ****         byteCounter = 0u;
 841:Generated_Source\PSoC6\pdl\middleware\ble/cy_ble_gap.c **** 
 842:Generated_Source\PSoC6\pdl\middleware\ble/cy_ble_gap.c ****         if(dest == 0u)      /* Destination - advertising structure */
 843:Generated_Source\PSoC6\pdl\middleware\ble/cy_ble_gap.c ****         {
 844:Generated_Source\PSoC6\pdl\middleware\ble/cy_ble_gap.c ****             destBuffer = cy_ble_configPtr->discoveryModeInfo[advIndex].advData->advData;
 845:Generated_Source\PSoC6\pdl\middleware\ble/cy_ble_gap.c ****             maxLength = cy_ble_configPtr->discoveryModeInfo[advIndex].advData->advDataLen;
 846:Generated_Source\PSoC6\pdl\middleware\ble/cy_ble_gap.c ****         }
 847:Generated_Source\PSoC6\pdl\middleware\ble/cy_ble_gap.c ****         else                /* Destination - scan response structure */
 848:Generated_Source\PSoC6\pdl\middleware\ble/cy_ble_gap.c ****         {
 849:Generated_Source\PSoC6\pdl\middleware\ble/cy_ble_gap.c ****             destBuffer = cy_ble_configPtr->discoveryModeInfo[advIndex].scanRspData->scanRspData;
 850:Generated_Source\PSoC6\pdl\middleware\ble/cy_ble_gap.c ****             maxLength = cy_ble_configPtr->discoveryModeInfo[advIndex].scanRspData->scanRspDataLen;
 851:Generated_Source\PSoC6\pdl\middleware\ble/cy_ble_gap.c ****         }
 852:Generated_Source\PSoC6\pdl\middleware\ble/cy_ble_gap.c **** 
 853:Generated_Source\PSoC6\pdl\middleware\ble/cy_ble_gap.c ****         while((byteCounter < maxLength) && (fFlag == 0u))
 854:Generated_Source\PSoC6\pdl\middleware\ble/cy_ble_gap.c ****         {
 855:Generated_Source\PSoC6\pdl\middleware\ble/cy_ble_gap.c ****             adLength = destBuffer[byteCounter];
 856:Generated_Source\PSoC6\pdl\middleware\ble/cy_ble_gap.c **** 
 857:Generated_Source\PSoC6\pdl\middleware\ble/cy_ble_gap.c ****             if(adLength != 0u)
 858:Generated_Source\PSoC6\pdl\middleware\ble/cy_ble_gap.c ****             {
 859:Generated_Source\PSoC6\pdl\middleware\ble/cy_ble_gap.c ****                 /* Increment byte counter so it can point to AD type */
 860:Generated_Source\PSoC6\pdl\middleware\ble/cy_ble_gap.c ****                 byteCounter++;
 861:Generated_Source\PSoC6\pdl\middleware\ble/cy_ble_gap.c **** 
 862:Generated_Source\PSoC6\pdl\middleware\ble/cy_ble_gap.c ****                 if(destBuffer[byteCounter] == CY_BLE_ADV_DEVICE_ADDR)
 863:Generated_Source\PSoC6\pdl\middleware\ble/cy_ble_gap.c ****                 {
 864:Generated_Source\PSoC6\pdl\middleware\ble/cy_ble_gap.c ****                     /* Start of the device address type was found. Set flag and exit the loop. */
 865:Generated_Source\PSoC6\pdl\middleware\ble/cy_ble_gap.c ****                     fFlag = 1u;
 866:Generated_Source\PSoC6\pdl\middleware\ble/cy_ble_gap.c ****                 }
 867:Generated_Source\PSoC6\pdl\middleware\ble/cy_ble_gap.c ****                 else
 868:Generated_Source\PSoC6\pdl\middleware\ble/cy_ble_gap.c ****                 {
 869:Generated_Source\PSoC6\pdl\middleware\ble/cy_ble_gap.c ****                     byteCounter += adLength;
 870:Generated_Source\PSoC6\pdl\middleware\ble/cy_ble_gap.c ****                 }
 871:Generated_Source\PSoC6\pdl\middleware\ble/cy_ble_gap.c ****             }
 872:Generated_Source\PSoC6\pdl\middleware\ble/cy_ble_gap.c ****             else
 873:Generated_Source\PSoC6\pdl\middleware\ble/cy_ble_gap.c ****             {
 874:Generated_Source\PSoC6\pdl\middleware\ble/cy_ble_gap.c ****                 /* The end of advertisement data structure was encountered though exit the loop. */
 875:Generated_Source\PSoC6\pdl\middleware\ble/cy_ble_gap.c ****                 break;
 876:Generated_Source\PSoC6\pdl\middleware\ble/cy_ble_gap.c ****             }
 877:Generated_Source\PSoC6\pdl\middleware\ble/cy_ble_gap.c ****         }
 878:Generated_Source\PSoC6\pdl\middleware\ble/cy_ble_gap.c **** 
 879:Generated_Source\PSoC6\pdl\middleware\ble/cy_ble_gap.c ****         if(fFlag != 0u)
 880:Generated_Source\PSoC6\pdl\middleware\ble/cy_ble_gap.c ****         {
 881:Generated_Source\PSoC6\pdl\middleware\ble/cy_ble_gap.c ****             /* Increment byte counter so it can point to Device address */
 882:Generated_Source\PSoC6\pdl\middleware\ble/cy_ble_gap.c ****             byteCounter++;
 883:Generated_Source\PSoC6\pdl\middleware\ble/cy_ble_gap.c **** 
 884:Generated_Source\PSoC6\pdl\middleware\ble/cy_ble_gap.c ****             /* Update Device Address type */
ARM GAS  C:\Users\gjl\AppData\Local\Temp\ccYWElnH.s 			page 45


 885:Generated_Source\PSoC6\pdl\middleware\ble/cy_ble_gap.c ****             destBuffer[byteCounter] = bdAddr->type;
 886:Generated_Source\PSoC6\pdl\middleware\ble/cy_ble_gap.c **** 
 887:Generated_Source\PSoC6\pdl\middleware\ble/cy_ble_gap.c ****             for(i = 0u; i < CY_BLE_GAP_BD_ADDR_SIZE; i++)
 888:Generated_Source\PSoC6\pdl\middleware\ble/cy_ble_gap.c ****             {
 889:Generated_Source\PSoC6\pdl\middleware\ble/cy_ble_gap.c ****                 destBuffer[byteCounter + i + 1u] = bdAddr->bdAddr[i];
 890:Generated_Source\PSoC6\pdl\middleware\ble/cy_ble_gap.c ****             }
 891:Generated_Source\PSoC6\pdl\middleware\ble/cy_ble_gap.c ****         }
 892:Generated_Source\PSoC6\pdl\middleware\ble/cy_ble_gap.c ****         advIndex++;
 893:Generated_Source\PSoC6\pdl\middleware\ble/cy_ble_gap.c ****     }
 894:Generated_Source\PSoC6\pdl\middleware\ble/cy_ble_gap.c ****     while(advIndex < CY_BLE_GAPP_CONF_COUNT);
 895:Generated_Source\PSoC6\pdl\middleware\ble/cy_ble_gap.c **** }
 896:Generated_Source\PSoC6\pdl\middleware\ble/cy_ble_gap.c **** 
 897:Generated_Source\PSoC6\pdl\middleware\ble/cy_ble_gap.c **** #endif /* CY_BLE_GAP_ROLE_PERIPHERAL || CY_BLE_GAP_ROLE_BROADCASTER */
 898:Generated_Source\PSoC6\pdl\middleware\ble/cy_ble_gap.c **** 
 899:Generated_Source\PSoC6\pdl\middleware\ble/cy_ble_gap.c **** 
 900:Generated_Source\PSoC6\pdl\middleware\ble/cy_ble_gap.c **** #if (CY_BLE_GAP_ROLE_CENTRAL || CY_BLE_GAP_ROLE_OBSERVER)
 901:Generated_Source\PSoC6\pdl\middleware\ble/cy_ble_gap.c **** 
 902:Generated_Source\PSoC6\pdl\middleware\ble/cy_ble_gap.c **** /******************************************************************************
 903:Generated_Source\PSoC6\pdl\middleware\ble/cy_ble_gap.c **** * Function Name: Cy_BLE_GAPC_StartScan
 904:Generated_Source\PSoC6\pdl\middleware\ble/cy_ble_gap.c **** ***************************************************************************//**
 905:Generated_Source\PSoC6\pdl\middleware\ble/cy_ble_gap.c **** *
 906:Generated_Source\PSoC6\pdl\middleware\ble/cy_ble_gap.c **** *   This function is used for discovering GAP peripheral devices that are
 907:Generated_Source\PSoC6\pdl\middleware\ble/cy_ble_gap.c **** *   available for connection. It performs the scanning routine using the
 908:Generated_Source\PSoC6\pdl\middleware\ble/cy_ble_gap.c **** *   parameters entered in the Component's customizer indicated by
 909:Generated_Source\PSoC6\pdl\middleware\ble/cy_ble_gap.c **** *   scanParamIndex parameter.
 910:Generated_Source\PSoC6\pdl\middleware\ble/cy_ble_gap.c **** *
 911:Generated_Source\PSoC6\pdl\middleware\ble/cy_ble_gap.c **** *   As soon as the discovery operation starts, #CY_BLE_EVT_GAPC_SCAN_START_STOP
 912:Generated_Source\PSoC6\pdl\middleware\ble/cy_ble_gap.c **** *   event is generated. The #CY_BLE_EVT_GAPC_SCAN_PROGRESS_RESULT event is
 913:Generated_Source\PSoC6\pdl\middleware\ble/cy_ble_gap.c **** *   generated when a GAP peripheral device is located. There are three discovery
 914:Generated_Source\PSoC6\pdl\middleware\ble/cy_ble_gap.c **** *   procedures can be selected in the customizer's GUI:
 915:Generated_Source\PSoC6\pdl\middleware\ble/cy_ble_gap.c **** *
 916:Generated_Source\PSoC6\pdl\middleware\ble/cy_ble_gap.c **** *   * Observation procedure: A device performing the observer role receives only
 917:Generated_Source\PSoC6\pdl\middleware\ble/cy_ble_gap.c **** *                            advertisement data from devices irrespective of
 918:Generated_Source\PSoC6\pdl\middleware\ble/cy_ble_gap.c **** *                            their discoverable mode settings. Advertisement
 919:Generated_Source\PSoC6\pdl\middleware\ble/cy_ble_gap.c **** *                            data received is provided by the event,
 920:Generated_Source\PSoC6\pdl\middleware\ble/cy_ble_gap.c **** *                            #CY_BLE_EVT_GAPC_SCAN_PROGRESS_RESULT. This procedure
 921:Generated_Source\PSoC6\pdl\middleware\ble/cy_ble_gap.c **** *                            requires the scanType sub parameter to be passive
 922:Generated_Source\PSoC6\pdl\middleware\ble/cy_ble_gap.c **** *                            scanning.
 923:Generated_Source\PSoC6\pdl\middleware\ble/cy_ble_gap.c **** *
 924:Generated_Source\PSoC6\pdl\middleware\ble/cy_ble_gap.c **** *   * Discovery procedure: A device performing the discovery procedure receives
 925:Generated_Source\PSoC6\pdl\middleware\ble/cy_ble_gap.c **** *                          the advertisement data and scan response data from
 926:Generated_Source\PSoC6\pdl\middleware\ble/cy_ble_gap.c **** *                          devices in both limited discoverable mode and the
 927:Generated_Source\PSoC6\pdl\middleware\ble/cy_ble_gap.c **** *                          general discoverable mode. Received data is provided
 928:Generated_Source\PSoC6\pdl\middleware\ble/cy_ble_gap.c **** *                          by the event, #CY_BLE_EVT_GAPC_SCAN_PROGRESS_RESULT.
 929:Generated_Source\PSoC6\pdl\middleware\ble/cy_ble_gap.c **** *                          This procedure requires the scanType sub-parameter
 930:Generated_Source\PSoC6\pdl\middleware\ble/cy_ble_gap.c **** *                          to be active scanning.
 931:Generated_Source\PSoC6\pdl\middleware\ble/cy_ble_gap.c **** *
 932:Generated_Source\PSoC6\pdl\middleware\ble/cy_ble_gap.c **** *   Every Advertisement / Scan response packet is received in a new event,
 933:Generated_Source\PSoC6\pdl\middleware\ble/cy_ble_gap.c **** *   #CY_BLE_EVT_GAPC_SCAN_PROGRESS_RESULT.
 934:Generated_Source\PSoC6\pdl\middleware\ble/cy_ble_gap.c **** *   If 'scanTo' sub-parameter is a non-zero value, then upon commencement of
 935:Generated_Source\PSoC6\pdl\middleware\ble/cy_ble_gap.c **** *   discovery procedure and elapsed time = 'scanTo', #CY_BLE_EVT_TIMEOUT event
 936:Generated_Source\PSoC6\pdl\middleware\ble/cy_ble_gap.c **** *   is generated with the event parameter indicating #CY_BLE_GAP_SCAN_TO.
 937:Generated_Source\PSoC6\pdl\middleware\ble/cy_ble_gap.c **** *   Possible generated events are:
 938:Generated_Source\PSoC6\pdl\middleware\ble/cy_ble_gap.c **** *   * #CY_BLE_EVT_GAPC_SCAN_START_STOP: If a device started or stopped scanning.
 939:Generated_Source\PSoC6\pdl\middleware\ble/cy_ble_gap.c **** *                                     Use Cy_BLE_GetScanState() to determine the
 940:Generated_Source\PSoC6\pdl\middleware\ble/cy_ble_gap.c **** *                                     state. Sequential scanning could be
 941:Generated_Source\PSoC6\pdl\middleware\ble/cy_ble_gap.c **** *                                     started when #CY_BLE_ADV_STATE_STOPPED
ARM GAS  C:\Users\gjl\AppData\Local\Temp\ccYWElnH.s 			page 46


 942:Generated_Source\PSoC6\pdl\middleware\ble/cy_ble_gap.c **** *                                     state is returned.
 943:Generated_Source\PSoC6\pdl\middleware\ble/cy_ble_gap.c **** *   * #CY_BLE_EVT_GAPC_SCAN_PROGRESS_RESULT
 944:Generated_Source\PSoC6\pdl\middleware\ble/cy_ble_gap.c **** *   * #CY_BLE_EVT_TIMEOUT (CY_BLE_GAP_SCAN_TO)
 945:Generated_Source\PSoC6\pdl\middleware\ble/cy_ble_gap.c **** *
 946:Generated_Source\PSoC6\pdl\middleware\ble/cy_ble_gap.c **** *   \param scanningIntervalType:  Fast or slow scanning interval with
 947:Generated_Source\PSoC6\pdl\middleware\ble/cy_ble_gap.c **** *       timings entered in Scan settings section of the customizer.
 948:Generated_Source\PSoC6\pdl\middleware\ble/cy_ble_gap.c **** *       * CY_BLE_SCANNING_FAST   0x00u
 949:Generated_Source\PSoC6\pdl\middleware\ble/cy_ble_gap.c **** *       * CY_BLE_SCANNING_SLOW   0x01u
 950:Generated_Source\PSoC6\pdl\middleware\ble/cy_ble_gap.c **** *       * CY_BLE_SCANNING_CUSTOM 0x02u
 951:Generated_Source\PSoC6\pdl\middleware\ble/cy_ble_gap.c **** *
 952:Generated_Source\PSoC6\pdl\middleware\ble/cy_ble_gap.c **** *   \param scanParamIndex:  The index of the central and scan configuration
 953:Generated_Source\PSoC6\pdl\middleware\ble/cy_ble_gap.c **** *                           in customizer.
 954:Generated_Source\PSoC6\pdl\middleware\ble/cy_ble_gap.c **** *
 955:Generated_Source\PSoC6\pdl\middleware\ble/cy_ble_gap.c **** *   \return
 956:Generated_Source\PSoC6\pdl\middleware\ble/cy_ble_gap.c **** *   \ref cy_en_ble_api_result_t : Return value indicates if the function succeeded or
 957:Generated_Source\PSoC6\pdl\middleware\ble/cy_ble_gap.c **** *   failed. The following are possible error codes.
 958:Generated_Source\PSoC6\pdl\middleware\ble/cy_ble_gap.c **** *
 959:Generated_Source\PSoC6\pdl\middleware\ble/cy_ble_gap.c **** *   Error Codes                        | Description
 960:Generated_Source\PSoC6\pdl\middleware\ble/cy_ble_gap.c **** *   ---------------------------------- | -----------------------------------
 961:Generated_Source\PSoC6\pdl\middleware\ble/cy_ble_gap.c **** *   CY_BLE_SUCCESS                     | On successful operation.
 962:Generated_Source\PSoC6\pdl\middleware\ble/cy_ble_gap.c **** *   CY_BLE_ERROR_INVALID_PARAMETER     | On passing an invalid parameter.
 963:Generated_Source\PSoC6\pdl\middleware\ble/cy_ble_gap.c **** *   CY_BLE_ERROR_INVALID_STATE         | On calling this function not in Stopped state.
 964:Generated_Source\PSoC6\pdl\middleware\ble/cy_ble_gap.c **** *
 965:Generated_Source\PSoC6\pdl\middleware\ble/cy_ble_gap.c **** *******************************************************************************/
 966:Generated_Source\PSoC6\pdl\middleware\ble/cy_ble_gap.c **** cy_en_ble_api_result_t Cy_BLE_GAPC_StartScan(uint8_t scanningIntervalType,
 967:Generated_Source\PSoC6\pdl\middleware\ble/cy_ble_gap.c ****                                              uint8_t scanParamIndex)
 968:Generated_Source\PSoC6\pdl\middleware\ble/cy_ble_gap.c **** {
 726              		.loc 1 968 0
 727              		.cfi_startproc
 728              		@ args = 0, pretend = 0, frame = 0
 729              		@ frame_needed = 0, uses_anonymous_args = 0
 730              	.LVL60:
 731 0000 F8B5     		push	{r3, r4, r5, r6, r7, lr}
 732              		.cfi_def_cfa_offset 24
 733              		.cfi_offset 3, -24
 734              		.cfi_offset 4, -20
 735              		.cfi_offset 5, -16
 736              		.cfi_offset 6, -12
 737              		.cfi_offset 7, -8
 738              		.cfi_offset 14, -4
 969:Generated_Source\PSoC6\pdl\middleware\ble/cy_ble_gap.c ****     cy_en_ble_api_result_t apiResult;
 970:Generated_Source\PSoC6\pdl\middleware\ble/cy_ble_gap.c **** 
 971:Generated_Source\PSoC6\pdl\middleware\ble/cy_ble_gap.c ****     if(scanningIntervalType > CY_BLE_SCANNING_CUSTOM)
 739              		.loc 1 971 0
 740 0002 0228     		cmp	r0, #2
 741 0004 4FD8     		bhi	.L63
 742              	.LBB32:
 743              	.LBB33:
 802:Generated_Source\PSoC6\pdl\middleware\ble/cy_ble_gap.h **** }
 744              		.loc 2 802 0
 745 0006 2A4B     		ldr	r3, .L66
 746 0008 1B78     		ldrb	r3, [r3]	@ zero_extendqisi2
 747              	.LBE33:
 748              	.LBE32:
 972:Generated_Source\PSoC6\pdl\middleware\ble/cy_ble_gap.c ****     {
 973:Generated_Source\PSoC6\pdl\middleware\ble/cy_ble_gap.c ****         apiResult = CY_BLE_ERROR_INVALID_PARAMETER;
 974:Generated_Source\PSoC6\pdl\middleware\ble/cy_ble_gap.c ****     }
ARM GAS  C:\Users\gjl\AppData\Local\Temp\ccYWElnH.s 			page 47


 975:Generated_Source\PSoC6\pdl\middleware\ble/cy_ble_gap.c ****     else if(Cy_BLE_GetScanState() == CY_BLE_SCAN_STATE_STOPPED)
 749              		.loc 1 975 0
 750 000a 002B     		cmp	r3, #0
 751 000c 4DD1     		bne	.L64
 976:Generated_Source\PSoC6\pdl\middleware\ble/cy_ble_gap.c ****     {
 977:Generated_Source\PSoC6\pdl\middleware\ble/cy_ble_gap.c ****         cy_ble_scanIndex = scanParamIndex;
 752              		.loc 1 977 0
 753 000e 294B     		ldr	r3, .L66+4
 754 0010 1970     		strb	r1, [r3]
 978:Generated_Source\PSoC6\pdl\middleware\ble/cy_ble_gap.c ****         if(scanningIntervalType == CY_BLE_SCANNING_FAST)
 755              		.loc 1 978 0
 756 0012 D0B9     		cbnz	r0, .L61
 979:Generated_Source\PSoC6\pdl\middleware\ble/cy_ble_gap.c ****         {
 980:Generated_Source\PSoC6\pdl\middleware\ble/cy_ble_gap.c ****             cy_ble_configPtr->discoveryInfo[scanParamIndex].scanTo =
 757              		.loc 1 980 0
 758 0014 284F     		ldr	r7, .L66+8
 759 0016 3C68     		ldr	r4, [r7]
 760 0018 A368     		ldr	r3, [r4, #8]
 761 001a 01EB4105 		add	r5, r1, r1, lsl #1
 762 001e AA00     		lsls	r2, r5, #2
 763 0020 9D18     		adds	r5, r3, r2
 981:Generated_Source\PSoC6\pdl\middleware\ble/cy_ble_gap.c ****                 cy_ble_configPtr->gapcScanParams[scanParamIndex].fastScanTimeOut;
 764              		.loc 1 981 0
 765 0022 E668     		ldr	r6, [r4, #12]
 766 0024 1623     		movs	r3, #22
 767 0026 03FB01F3 		mul	r3, r3, r1
 768 002a 1E44     		add	r6, r6, r3
 769 002c B688     		ldrh	r6, [r6, #4]
 980:Generated_Source\PSoC6\pdl\middleware\ble/cy_ble_gap.c ****                 cy_ble_configPtr->gapcScanParams[scanParamIndex].fastScanTimeOut;
 770              		.loc 1 980 0
 771 002e 2E81     		strh	r6, [r5, #8]	@ movhi
 982:Generated_Source\PSoC6\pdl\middleware\ble/cy_ble_gap.c ****             cy_ble_configPtr->discoveryInfo[scanParamIndex].scanIntv =
 772              		.loc 1 982 0
 773 0030 A568     		ldr	r5, [r4, #8]
 774 0032 1544     		add	r5, r5, r2
 983:Generated_Source\PSoC6\pdl\middleware\ble/cy_ble_gap.c ****                 cy_ble_configPtr->gapcScanParams[scanParamIndex].fastScanInterval;
 775              		.loc 1 983 0
 776 0034 E468     		ldr	r4, [r4, #12]
 777 0036 E45A     		ldrh	r4, [r4, r3]
 982:Generated_Source\PSoC6\pdl\middleware\ble/cy_ble_gap.c ****             cy_ble_configPtr->discoveryInfo[scanParamIndex].scanIntv =
 778              		.loc 1 982 0
 779 0038 6C80     		strh	r4, [r5, #2]	@ movhi
 984:Generated_Source\PSoC6\pdl\middleware\ble/cy_ble_gap.c ****             cy_ble_configPtr->discoveryInfo[scanParamIndex].scanWindow =
 780              		.loc 1 984 0
 781 003a 3C68     		ldr	r4, [r7]
 782 003c A568     		ldr	r5, [r4, #8]
 783 003e 2A44     		add	r2, r2, r5
 985:Generated_Source\PSoC6\pdl\middleware\ble/cy_ble_gap.c ****                 cy_ble_configPtr->gapcScanParams[scanParamIndex].fastScanWindow;
 784              		.loc 1 985 0
 785 0040 E468     		ldr	r4, [r4, #12]
 786 0042 2344     		add	r3, r3, r4
 787 0044 5B88     		ldrh	r3, [r3, #2]
 984:Generated_Source\PSoC6\pdl\middleware\ble/cy_ble_gap.c ****             cy_ble_configPtr->discoveryInfo[scanParamIndex].scanWindow =
 788              		.loc 1 984 0
 789 0046 9380     		strh	r3, [r2, #4]	@ movhi
 790 0048 1CE0     		b	.L62
 791              	.L61:
ARM GAS  C:\Users\gjl\AppData\Local\Temp\ccYWElnH.s 			page 48


 986:Generated_Source\PSoC6\pdl\middleware\ble/cy_ble_gap.c ****         }
 987:Generated_Source\PSoC6\pdl\middleware\ble/cy_ble_gap.c ****         else if(scanningIntervalType == CY_BLE_SCANNING_SLOW)
 792              		.loc 1 987 0
 793 004a 0128     		cmp	r0, #1
 794 004c 1AD1     		bne	.L62
 988:Generated_Source\PSoC6\pdl\middleware\ble/cy_ble_gap.c ****         {
 989:Generated_Source\PSoC6\pdl\middleware\ble/cy_ble_gap.c ****             cy_ble_configPtr->discoveryInfo[scanParamIndex].scanTo =
 795              		.loc 1 989 0
 796 004e 1A4F     		ldr	r7, .L66+8
 797 0050 3C68     		ldr	r4, [r7]
 798 0052 A368     		ldr	r3, [r4, #8]
 799 0054 01EB4105 		add	r5, r1, r1, lsl #1
 800 0058 AA00     		lsls	r2, r5, #2
 801 005a 9D18     		adds	r5, r3, r2
 990:Generated_Source\PSoC6\pdl\middleware\ble/cy_ble_gap.c ****                 cy_ble_configPtr->gapcScanParams[scanParamIndex].slowScanTimeOut;
 802              		.loc 1 990 0
 803 005c E668     		ldr	r6, [r4, #12]
 804 005e 1623     		movs	r3, #22
 805 0060 03FB01F3 		mul	r3, r3, r1
 806 0064 1E44     		add	r6, r6, r3
 807 0066 B689     		ldrh	r6, [r6, #12]
 989:Generated_Source\PSoC6\pdl\middleware\ble/cy_ble_gap.c ****                 cy_ble_configPtr->gapcScanParams[scanParamIndex].slowScanTimeOut;
 808              		.loc 1 989 0
 809 0068 2E81     		strh	r6, [r5, #8]	@ movhi
 991:Generated_Source\PSoC6\pdl\middleware\ble/cy_ble_gap.c ****             cy_ble_configPtr->discoveryInfo[scanParamIndex].scanIntv =
 810              		.loc 1 991 0
 811 006a A568     		ldr	r5, [r4, #8]
 812 006c 1544     		add	r5, r5, r2
 992:Generated_Source\PSoC6\pdl\middleware\ble/cy_ble_gap.c ****                 cy_ble_configPtr->gapcScanParams[scanParamIndex].slowScanInterval;
 813              		.loc 1 992 0
 814 006e E468     		ldr	r4, [r4, #12]
 815 0070 1C44     		add	r4, r4, r3
 816 0072 2489     		ldrh	r4, [r4, #8]
 991:Generated_Source\PSoC6\pdl\middleware\ble/cy_ble_gap.c ****             cy_ble_configPtr->discoveryInfo[scanParamIndex].scanIntv =
 817              		.loc 1 991 0
 818 0074 6C80     		strh	r4, [r5, #2]	@ movhi
 993:Generated_Source\PSoC6\pdl\middleware\ble/cy_ble_gap.c ****             cy_ble_configPtr->discoveryInfo[scanParamIndex].scanWindow =
 819              		.loc 1 993 0
 820 0076 3C68     		ldr	r4, [r7]
 821 0078 A568     		ldr	r5, [r4, #8]
 822 007a 2A44     		add	r2, r2, r5
 994:Generated_Source\PSoC6\pdl\middleware\ble/cy_ble_gap.c ****                 cy_ble_configPtr->gapcScanParams[scanParamIndex].slowScanWindow;
 823              		.loc 1 994 0
 824 007c E468     		ldr	r4, [r4, #12]
 825 007e 2344     		add	r3, r3, r4
 826 0080 5B89     		ldrh	r3, [r3, #10]
 993:Generated_Source\PSoC6\pdl\middleware\ble/cy_ble_gap.c ****             cy_ble_configPtr->discoveryInfo[scanParamIndex].scanWindow =
 827              		.loc 1 993 0
 828 0082 9380     		strh	r3, [r2, #4]	@ movhi
 829              	.L62:
 995:Generated_Source\PSoC6\pdl\middleware\ble/cy_ble_gap.c ****         }
 996:Generated_Source\PSoC6\pdl\middleware\ble/cy_ble_gap.c ****         else /* Do not update scanning intervals */
 997:Generated_Source\PSoC6\pdl\middleware\ble/cy_ble_gap.c ****         {
 998:Generated_Source\PSoC6\pdl\middleware\ble/cy_ble_gap.c ****         }
 999:Generated_Source\PSoC6\pdl\middleware\ble/cy_ble_gap.c **** 
1000:Generated_Source\PSoC6\pdl\middleware\ble/cy_ble_gap.c ****         cy_ble_scanningIntervalType = scanningIntervalType;
 830              		.loc 1 1000 0
ARM GAS  C:\Users\gjl\AppData\Local\Temp\ccYWElnH.s 			page 49


 831 0084 0D4B     		ldr	r3, .L66+12
 832 0086 1870     		strb	r0, [r3]
1001:Generated_Source\PSoC6\pdl\middleware\ble/cy_ble_gap.c ****         apiResult = Cy_BLE_GAPC_StartDiscovery(&cy_ble_configPtr->discoveryInfo[scanParamIndex]);
 833              		.loc 1 1001 0
 834 0088 0B4B     		ldr	r3, .L66+8
 835 008a 1B68     		ldr	r3, [r3]
 836 008c 9868     		ldr	r0, [r3, #8]
 837              	.LVL61:
 838 008e 01EB4101 		add	r1, r1, r1, lsl #1
 839              	.LVL62:
 840 0092 8B00     		lsls	r3, r1, #2
 841 0094 1844     		add	r0, r0, r3
 842 0096 FFF7FEFF 		bl	Cy_BLE_GAPC_StartDiscovery
 843              	.LVL63:
1002:Generated_Source\PSoC6\pdl\middleware\ble/cy_ble_gap.c **** 
1003:Generated_Source\PSoC6\pdl\middleware\ble/cy_ble_gap.c ****         if(apiResult == CY_BLE_SUCCESS)
 844              		.loc 1 1003 0
 845 009a 0346     		mov	r3, r0
 846 009c 30B9     		cbnz	r0, .L60
 847              	.LVL64:
 848              	.LBB34:
 849              	.LBB35:
 820:Generated_Source\PSoC6\pdl\middleware\ble/cy_ble_gap.h **** }
 850              		.loc 2 820 0
 851 009e 0121     		movs	r1, #1
 852 00a0 034A     		ldr	r2, .L66
 853 00a2 1170     		strb	r1, [r2]
 854 00a4 02E0     		b	.L60
 855              	.LVL65:
 856              	.L63:
 857              	.LBE35:
 858              	.LBE34:
 973:Generated_Source\PSoC6\pdl\middleware\ble/cy_ble_gap.c ****     }
 859              		.loc 1 973 0
 860 00a6 064B     		ldr	r3, .L66+16
 861 00a8 00E0     		b	.L60
 862              	.L64:
1004:Generated_Source\PSoC6\pdl\middleware\ble/cy_ble_gap.c ****         {
1005:Generated_Source\PSoC6\pdl\middleware\ble/cy_ble_gap.c ****             Cy_BLE_SetScanState(CY_BLE_SCAN_STATE_SCAN_INITIATED);
1006:Generated_Source\PSoC6\pdl\middleware\ble/cy_ble_gap.c ****         }
1007:Generated_Source\PSoC6\pdl\middleware\ble/cy_ble_gap.c ****     }
1008:Generated_Source\PSoC6\pdl\middleware\ble/cy_ble_gap.c ****     else
1009:Generated_Source\PSoC6\pdl\middleware\ble/cy_ble_gap.c ****     {
1010:Generated_Source\PSoC6\pdl\middleware\ble/cy_ble_gap.c ****         apiResult = CY_BLE_ERROR_INVALID_STATE;
 863              		.loc 1 1010 0
 864 00aa 064B     		ldr	r3, .L66+20
 865              	.LVL66:
 866              	.L60:
1011:Generated_Source\PSoC6\pdl\middleware\ble/cy_ble_gap.c ****     }
1012:Generated_Source\PSoC6\pdl\middleware\ble/cy_ble_gap.c **** 
1013:Generated_Source\PSoC6\pdl\middleware\ble/cy_ble_gap.c ****     return(apiResult);
1014:Generated_Source\PSoC6\pdl\middleware\ble/cy_ble_gap.c **** }
 867              		.loc 1 1014 0
 868 00ac 1846     		mov	r0, r3
 869 00ae F8BD     		pop	{r3, r4, r5, r6, r7, pc}
 870              	.LVL67:
 871              	.L67:
ARM GAS  C:\Users\gjl\AppData\Local\Temp\ccYWElnH.s 			page 50


 872              		.align	2
 873              	.L66:
 874 00b0 00000000 		.word	cy_ble_scanState
 875 00b4 00000000 		.word	cy_ble_scanIndex
 876 00b8 00000000 		.word	cy_ble_configPtr
 877 00bc 00000000 		.word	cy_ble_scanningIntervalType
 878 00c0 01001600 		.word	1441793
 879 00c4 FF001600 		.word	1442047
 880              		.cfi_endproc
 881              	.LFE290:
 882              		.size	Cy_BLE_GAPC_StartScan, .-Cy_BLE_GAPC_StartScan
 883              		.section	.text.Cy_BLE_GAPC_StopScan,"ax",%progbits
 884              		.align	2
 885              		.global	Cy_BLE_GAPC_StopScan
 886              		.thumb
 887              		.thumb_func
 888              		.type	Cy_BLE_GAPC_StopScan, %function
 889              	Cy_BLE_GAPC_StopScan:
 890              	.LFB291:
1015:Generated_Source\PSoC6\pdl\middleware\ble/cy_ble_gap.c **** 
1016:Generated_Source\PSoC6\pdl\middleware\ble/cy_ble_gap.c **** 
1017:Generated_Source\PSoC6\pdl\middleware\ble/cy_ble_gap.c **** /******************************************************************************
1018:Generated_Source\PSoC6\pdl\middleware\ble/cy_ble_gap.c **** * Function Name: Cy_BLE_GAPC_StopScan
1019:Generated_Source\PSoC6\pdl\middleware\ble/cy_ble_gap.c **** ***************************************************************************//**
1020:Generated_Source\PSoC6\pdl\middleware\ble/cy_ble_gap.c **** *
1021:Generated_Source\PSoC6\pdl\middleware\ble/cy_ble_gap.c **** *   This function used to stop the discovery of devices. On stopping discovery
1022:Generated_Source\PSoC6\pdl\middleware\ble/cy_ble_gap.c **** *   operation, #CY_BLE_EVT_GAPC_SCAN_START_STOP event is generated. Application
1023:Generated_Source\PSoC6\pdl\middleware\ble/cy_ble_gap.c **** *   layer needs to keep track of the function call made before receiving this
1024:Generated_Source\PSoC6\pdl\middleware\ble/cy_ble_gap.c **** *   event to associate this event with either the start or stop discovery
1025:Generated_Source\PSoC6\pdl\middleware\ble/cy_ble_gap.c **** *   function.
1026:Generated_Source\PSoC6\pdl\middleware\ble/cy_ble_gap.c **** *
1027:Generated_Source\PSoC6\pdl\middleware\ble/cy_ble_gap.c **** *   Possible events generated are:
1028:Generated_Source\PSoC6\pdl\middleware\ble/cy_ble_gap.c **** *    * #CY_BLE_EVT_GAPC_SCAN_START_STOP
1029:Generated_Source\PSoC6\pdl\middleware\ble/cy_ble_gap.c **** *
1030:Generated_Source\PSoC6\pdl\middleware\ble/cy_ble_gap.c **** *  \return
1031:Generated_Source\PSoC6\pdl\middleware\ble/cy_ble_gap.c **** *  \ref cy_en_ble_api_result_t : Return value indicates if the function succeeded or
1032:Generated_Source\PSoC6\pdl\middleware\ble/cy_ble_gap.c **** *  failed. The following are possible error codes.
1033:Generated_Source\PSoC6\pdl\middleware\ble/cy_ble_gap.c **** *
1034:Generated_Source\PSoC6\pdl\middleware\ble/cy_ble_gap.c **** *   Error Codes                           | Description
1035:Generated_Source\PSoC6\pdl\middleware\ble/cy_ble_gap.c **** *   ------------------------------------- | -----------------------------------
1036:Generated_Source\PSoC6\pdl\middleware\ble/cy_ble_gap.c **** *   CY_BLE_SUCCESS                        | On successful operation.
1037:Generated_Source\PSoC6\pdl\middleware\ble/cy_ble_gap.c **** *   CY_BLE_ERROR_MEMORY_ALLOCATION_FAILED | Memory allocation failed.
1038:Generated_Source\PSoC6\pdl\middleware\ble/cy_ble_gap.c **** *   CY_BLE_ERROR_INVALID_STATE            | On calling this function not in Scanning state.
1039:Generated_Source\PSoC6\pdl\middleware\ble/cy_ble_gap.c **** *
1040:Generated_Source\PSoC6\pdl\middleware\ble/cy_ble_gap.c **** *******************************************************************************/
1041:Generated_Source\PSoC6\pdl\middleware\ble/cy_ble_gap.c **** cy_en_ble_api_result_t Cy_BLE_GAPC_StopScan(void)
1042:Generated_Source\PSoC6\pdl\middleware\ble/cy_ble_gap.c **** {
 891              		.loc 1 1042 0
 892              		.cfi_startproc
 893              		@ args = 0, pretend = 0, frame = 0
 894              		@ frame_needed = 0, uses_anonymous_args = 0
 895 0000 08B5     		push	{r3, lr}
 896              		.cfi_def_cfa_offset 8
 897              		.cfi_offset 3, -8
 898              		.cfi_offset 14, -4
 899              	.LBB36:
 900              	.LBB37:
ARM GAS  C:\Users\gjl\AppData\Local\Temp\ccYWElnH.s 			page 51


 802:Generated_Source\PSoC6\pdl\middleware\ble/cy_ble_gap.h **** }
 901              		.loc 2 802 0
 902 0002 074B     		ldr	r3, .L72
 903 0004 1B78     		ldrb	r3, [r3]	@ zero_extendqisi2
 904              	.LBE37:
 905              	.LBE36:
1043:Generated_Source\PSoC6\pdl\middleware\ble/cy_ble_gap.c ****     cy_en_ble_api_result_t apiResult;
1044:Generated_Source\PSoC6\pdl\middleware\ble/cy_ble_gap.c **** 
1045:Generated_Source\PSoC6\pdl\middleware\ble/cy_ble_gap.c ****     if(Cy_BLE_GetScanState() == CY_BLE_SCAN_STATE_SCANNING)
 906              		.loc 1 1045 0
 907 0006 022B     		cmp	r3, #2
 908 0008 07D1     		bne	.L70
1046:Generated_Source\PSoC6\pdl\middleware\ble/cy_ble_gap.c ****     {
1047:Generated_Source\PSoC6\pdl\middleware\ble/cy_ble_gap.c ****         apiResult = Cy_BLE_GAPC_StopDiscovery();
 909              		.loc 1 1047 0
 910 000a FFF7FEFF 		bl	Cy_BLE_GAPC_StopDiscovery
 911              	.LVL68:
1048:Generated_Source\PSoC6\pdl\middleware\ble/cy_ble_gap.c ****         if(apiResult == CY_BLE_SUCCESS)
 912              		.loc 1 1048 0
 913 000e 0346     		mov	r3, r0
 914 0010 20B9     		cbnz	r0, .L69
 915              	.LVL69:
 916              	.LBB38:
 917              	.LBB39:
 820:Generated_Source\PSoC6\pdl\middleware\ble/cy_ble_gap.h **** }
 918              		.loc 2 820 0
 919 0012 0321     		movs	r1, #3
 920 0014 024A     		ldr	r2, .L72
 921 0016 1170     		strb	r1, [r2]
 922 0018 00E0     		b	.L69
 923              	.LVL70:
 924              	.L70:
 925              	.LBE39:
 926              	.LBE38:
1049:Generated_Source\PSoC6\pdl\middleware\ble/cy_ble_gap.c ****         {
1050:Generated_Source\PSoC6\pdl\middleware\ble/cy_ble_gap.c ****             Cy_BLE_SetScanState(CY_BLE_SCAN_STATE_STOP_INITIATED);
1051:Generated_Source\PSoC6\pdl\middleware\ble/cy_ble_gap.c ****         }
1052:Generated_Source\PSoC6\pdl\middleware\ble/cy_ble_gap.c ****     }
1053:Generated_Source\PSoC6\pdl\middleware\ble/cy_ble_gap.c ****     else
1054:Generated_Source\PSoC6\pdl\middleware\ble/cy_ble_gap.c ****     {
1055:Generated_Source\PSoC6\pdl\middleware\ble/cy_ble_gap.c ****         apiResult = CY_BLE_ERROR_INVALID_STATE;
 927              		.loc 1 1055 0
 928 001a 024B     		ldr	r3, .L72+4
 929              	.L69:
 930              	.LVL71:
1056:Generated_Source\PSoC6\pdl\middleware\ble/cy_ble_gap.c ****     }
1057:Generated_Source\PSoC6\pdl\middleware\ble/cy_ble_gap.c **** 
1058:Generated_Source\PSoC6\pdl\middleware\ble/cy_ble_gap.c ****     return(apiResult);
1059:Generated_Source\PSoC6\pdl\middleware\ble/cy_ble_gap.c **** }
 931              		.loc 1 1059 0
 932 001c 1846     		mov	r0, r3
 933 001e 08BD     		pop	{r3, pc}
 934              	.LVL72:
 935              	.L73:
 936              		.align	2
 937              	.L72:
 938 0020 00000000 		.word	cy_ble_scanState
ARM GAS  C:\Users\gjl\AppData\Local\Temp\ccYWElnH.s 			page 52


 939 0024 FF001600 		.word	1442047
 940              		.cfi_endproc
 941              	.LFE291:
 942              		.size	Cy_BLE_GAPC_StopScan, .-Cy_BLE_GAPC_StopScan
 943              		.section	.text.Cy_BLE_GAPC_CancelDeviceConnection,"ax",%progbits
 944              		.align	2
 945              		.global	Cy_BLE_GAPC_CancelDeviceConnection
 946              		.thumb
 947              		.thumb_func
 948              		.type	Cy_BLE_GAPC_CancelDeviceConnection, %function
 949              	Cy_BLE_GAPC_CancelDeviceConnection:
 950              	.LFB293:
1060:Generated_Source\PSoC6\pdl\middleware\ble/cy_ble_gap.c **** 
1061:Generated_Source\PSoC6\pdl\middleware\ble/cy_ble_gap.c **** 
1062:Generated_Source\PSoC6\pdl\middleware\ble/cy_ble_gap.c **** #endif /* CY_BLE_GAP_ROLE_CENTRAL || CY_BLE_GAP_ROLE_OBSERVER */
1063:Generated_Source\PSoC6\pdl\middleware\ble/cy_ble_gap.c **** 
1064:Generated_Source\PSoC6\pdl\middleware\ble/cy_ble_gap.c **** 
1065:Generated_Source\PSoC6\pdl\middleware\ble/cy_ble_gap.c **** #if (CY_BLE_GAP_ROLE_CENTRAL)
1066:Generated_Source\PSoC6\pdl\middleware\ble/cy_ble_gap.c **** 
1067:Generated_Source\PSoC6\pdl\middleware\ble/cy_ble_gap.c **** /******************************************************************************
1068:Generated_Source\PSoC6\pdl\middleware\ble/cy_ble_gap.c **** * Function Name: Cy_BLE_GAPC_ConnectDevice
1069:Generated_Source\PSoC6\pdl\middleware\ble/cy_ble_gap.c **** ***************************************************************************//**
1070:Generated_Source\PSoC6\pdl\middleware\ble/cy_ble_gap.c **** *
1071:Generated_Source\PSoC6\pdl\middleware\ble/cy_ble_gap.c **** *  This function is used to send a connection request to the remote device with
1072:Generated_Source\PSoC6\pdl\middleware\ble/cy_ble_gap.c **** *  the connection parameters set in the BLE Component customizer. This function 
1073:Generated_Source\PSoC6\pdl\middleware\ble/cy_ble_gap.c **** *  needs to be called only once after the target device is discovered by
1074:Generated_Source\PSoC6\pdl\middleware\ble/cy_ble_gap.c **** *  Cy_BLE_GAPC_StartScan() and further scanning has stopped. Scanning is
1075:Generated_Source\PSoC6\pdl\middleware\ble/cy_ble_gap.c **** *  successfully stopped on invoking Cy_BLE_GAPC_StopScan() and then receiving the
1076:Generated_Source\PSoC6\pdl\middleware\ble/cy_ble_gap.c **** *  event #CY_BLE_EVT_GAPC_SCAN_START_STOP with sub-parameter 'success' = 0x01u.
1077:Generated_Source\PSoC6\pdl\middleware\ble/cy_ble_gap.c **** *
1078:Generated_Source\PSoC6\pdl\middleware\ble/cy_ble_gap.c **** *  On successful connection, the following events are generated at the GAP
1079:Generated_Source\PSoC6\pdl\middleware\ble/cy_ble_gap.c **** *  Central device (as well as the GAP Peripheral device), in the following order.
1080:Generated_Source\PSoC6\pdl\middleware\ble/cy_ble_gap.c **** *  * #CY_BLE_EVT_GATT_CONNECT_IND
1081:Generated_Source\PSoC6\pdl\middleware\ble/cy_ble_gap.c **** *  * #CY_BLE_EVT_GAP_DEVICE_CONNECTED - If the device connects to a GAP Central and
1082:Generated_Source\PSoC6\pdl\middleware\ble/cy_ble_gap.c **** *    Link Layer Privacy is disabled.
1083:Generated_Source\PSoC6\pdl\middleware\ble/cy_ble_gap.c **** *  * #CY_BLE_EVT_GAP_ENHANCE_CONN_COMPLETE - If the device connects to a GAP Central and
1084:Generated_Source\PSoC6\pdl\middleware\ble/cy_ble_gap.c **** *    Link Layer Privacy is enabled.
1085:Generated_Source\PSoC6\pdl\middleware\ble/cy_ble_gap.c **** *  * #CY_BLE_EVT_GAP_DEVICE_CONNECTED
1086:Generated_Source\PSoC6\pdl\middleware\ble/cy_ble_gap.c **** *
1087:Generated_Source\PSoC6\pdl\middleware\ble/cy_ble_gap.c **** *  A procedure is considered to have timed out if a connection response packet is
1088:Generated_Source\PSoC6\pdl\middleware\ble/cy_ble_gap.c **** *  not received within time set by cy_ble_connectingTimeout global variable
1089:Generated_Source\PSoC6\pdl\middleware\ble/cy_ble_gap.c **** *  (30 seconds by default). #CY_BLE_EVT_TIMEOUT event with #CY_BLE_GENERIC_APP_TO parameter
1090:Generated_Source\PSoC6\pdl\middleware\ble/cy_ble_gap.c **** *  will indicate about connection procedure timeout. Connection will automatically
1091:Generated_Source\PSoC6\pdl\middleware\ble/cy_ble_gap.c **** *  be canceled and state will be changed to #CY_BLE_STATE_ON.
1092:Generated_Source\PSoC6\pdl\middleware\ble/cy_ble_gap.c **** *
1093:Generated_Source\PSoC6\pdl\middleware\ble/cy_ble_gap.c **** *  \param address: The device address of the remote device to connect to.
1094:Generated_Source\PSoC6\pdl\middleware\ble/cy_ble_gap.c **** *  \param centralParamIndex: The index of the central configuration in customizer.
1095:Generated_Source\PSoC6\pdl\middleware\ble/cy_ble_gap.c **** *    For example:
1096:Generated_Source\PSoC6\pdl\middleware\ble/cy_ble_gap.c **** *  * CY_BLE_CENTRAL_CONFIGURATION_0_INDEX    0x00
1097:Generated_Source\PSoC6\pdl\middleware\ble/cy_ble_gap.c **** *  * CY_BLE_CENTRAL_CONFIGURATION_1_INDEX    0x01
1098:Generated_Source\PSoC6\pdl\middleware\ble/cy_ble_gap.c **** *
1099:Generated_Source\PSoC6\pdl\middleware\ble/cy_ble_gap.c **** * \return
1100:Generated_Source\PSoC6\pdl\middleware\ble/cy_ble_gap.c **** * \ref cy_en_ble_api_result_t : Return value indicates if the function succeeded or
1101:Generated_Source\PSoC6\pdl\middleware\ble/cy_ble_gap.c **** *  failed. The following are possible error codes.
1102:Generated_Source\PSoC6\pdl\middleware\ble/cy_ble_gap.c **** *
1103:Generated_Source\PSoC6\pdl\middleware\ble/cy_ble_gap.c **** *   Error Codes                       | Description
1104:Generated_Source\PSoC6\pdl\middleware\ble/cy_ble_gap.c **** *   ------------                      | -----------
ARM GAS  C:\Users\gjl\AppData\Local\Temp\ccYWElnH.s 			page 53


1105:Generated_Source\PSoC6\pdl\middleware\ble/cy_ble_gap.c **** *   CY_BLE_SUCCESS                    | On successful operation.
1106:Generated_Source\PSoC6\pdl\middleware\ble/cy_ble_gap.c **** *   CY_BLE_ERROR_INVALID_PARAMETER    | On passing an invalid parameter.
1107:Generated_Source\PSoC6\pdl\middleware\ble/cy_ble_gap.c **** *   CY_BLE_ERROR_INVALID_STATE        | On calling this function not in Disconnected state.
1108:Generated_Source\PSoC6\pdl\middleware\ble/cy_ble_gap.c **** *   CY_BLE_ERROR_INVALID_OPERATION    | The operation is not permitted due to connection limit exce
1109:Generated_Source\PSoC6\pdl\middleware\ble/cy_ble_gap.c **** *
1110:Generated_Source\PSoC6\pdl\middleware\ble/cy_ble_gap.c **** *   Note: Please refer the description of Cy_BLE_GAPC_InitConnection() for recommended
1111:Generated_Source\PSoC6\pdl\middleware\ble/cy_ble_gap.c **** *   Connection Interval values.
1112:Generated_Source\PSoC6\pdl\middleware\ble/cy_ble_gap.c **** *
1113:Generated_Source\PSoC6\pdl\middleware\ble/cy_ble_gap.c **** *
1114:Generated_Source\PSoC6\pdl\middleware\ble/cy_ble_gap.c **** ******************************************************************************/
1115:Generated_Source\PSoC6\pdl\middleware\ble/cy_ble_gap.c **** cy_en_ble_api_result_t Cy_BLE_GAPC_ConnectDevice(const cy_stc_ble_gap_bd_addr_t * address,
1116:Generated_Source\PSoC6\pdl\middleware\ble/cy_ble_gap.c ****                                                  uint8_t centralParamIndex)
