ARM GAS  C:\Users\gjl\AppData\Local\Temp\ccIHxLe8.s 			page 1


   1              		.syntax unified
   2              		.cpu cortex-m4
   3              		.eabi_attribute 27, 1
   4              		.fpu fpv4-sp-d16
   5              		.eabi_attribute 20, 1
   6              		.eabi_attribute 21, 1
   7              		.eabi_attribute 23, 3
   8              		.eabi_attribute 24, 1
   9              		.eabi_attribute 25, 1
  10              		.eabi_attribute 26, 1
  11              		.eabi_attribute 30, 1
  12              		.eabi_attribute 34, 1
  13              		.eabi_attribute 18, 4
  14              		.thumb
  15              		.syntax unified
  16              		.file	"cy_wdt.c"
  17              		.text
  18              	.Ltext0:
  19              		.cfi_sections	.debug_frame
  20              		.section	.text.Cy_WDT_Locked,"ax",%progbits
  21              		.align	2
  22              		.thumb
  23              		.thumb_func
  24              		.type	Cy_WDT_Locked, %function
  25              	Cy_WDT_Locked:
  26              	.LFB134:
  27              		.file 1 "Generated_Source\\PSoC6\\pdl\\drivers\\peripheral\\wdt\\cy_wdt.c"
   1:Generated_Source\PSoC6\pdl\drivers\peripheral\wdt/cy_wdt.c **** /***************************************************************************//**
   2:Generated_Source\PSoC6\pdl\drivers\peripheral\wdt/cy_wdt.c **** * \file cy_wdt.c
   3:Generated_Source\PSoC6\pdl\drivers\peripheral\wdt/cy_wdt.c **** * \version 1.0.1
   4:Generated_Source\PSoC6\pdl\drivers\peripheral\wdt/cy_wdt.c **** *
   5:Generated_Source\PSoC6\pdl\drivers\peripheral\wdt/cy_wdt.c **** *  This file provides the source code to the API for the WDT driver.
   6:Generated_Source\PSoC6\pdl\drivers\peripheral\wdt/cy_wdt.c **** *
   7:Generated_Source\PSoC6\pdl\drivers\peripheral\wdt/cy_wdt.c **** ********************************************************************************
   8:Generated_Source\PSoC6\pdl\drivers\peripheral\wdt/cy_wdt.c **** * \copyright
   9:Generated_Source\PSoC6\pdl\drivers\peripheral\wdt/cy_wdt.c **** * Copyright 2016-2018, Cypress Semiconductor Corporation. All rights reserved.
  10:Generated_Source\PSoC6\pdl\drivers\peripheral\wdt/cy_wdt.c **** * You may use this file only in accordance with the license, terms, conditions,
  11:Generated_Source\PSoC6\pdl\drivers\peripheral\wdt/cy_wdt.c **** * disclaimers, and limitations in the end user license agreement accompanying
  12:Generated_Source\PSoC6\pdl\drivers\peripheral\wdt/cy_wdt.c **** * the software package with which this file was provided.
  13:Generated_Source\PSoC6\pdl\drivers\peripheral\wdt/cy_wdt.c **** *******************************************************************************/
  14:Generated_Source\PSoC6\pdl\drivers\peripheral\wdt/cy_wdt.c **** 
  15:Generated_Source\PSoC6\pdl\drivers\peripheral\wdt/cy_wdt.c **** #include "cy_wdt.h"
  16:Generated_Source\PSoC6\pdl\drivers\peripheral\wdt/cy_wdt.c **** #include "syslib/cy_syslib.h"
  17:Generated_Source\PSoC6\pdl\drivers\peripheral\wdt/cy_wdt.c **** 
  18:Generated_Source\PSoC6\pdl\drivers\peripheral\wdt/cy_wdt.c **** #if defined(__cplusplus)
  19:Generated_Source\PSoC6\pdl\drivers\peripheral\wdt/cy_wdt.c **** extern "C" {
  20:Generated_Source\PSoC6\pdl\drivers\peripheral\wdt/cy_wdt.c **** #endif
  21:Generated_Source\PSoC6\pdl\drivers\peripheral\wdt/cy_wdt.c **** 
  22:Generated_Source\PSoC6\pdl\drivers\peripheral\wdt/cy_wdt.c **** static bool Cy_WDT_Locked(void);
  23:Generated_Source\PSoC6\pdl\drivers\peripheral\wdt/cy_wdt.c **** 
  24:Generated_Source\PSoC6\pdl\drivers\peripheral\wdt/cy_wdt.c **** 
  25:Generated_Source\PSoC6\pdl\drivers\peripheral\wdt/cy_wdt.c **** /*******************************************************************************
  26:Generated_Source\PSoC6\pdl\drivers\peripheral\wdt/cy_wdt.c **** * Function Name: Cy_WDT_Init
  27:Generated_Source\PSoC6\pdl\drivers\peripheral\wdt/cy_wdt.c **** ****************************************************************************//**
  28:Generated_Source\PSoC6\pdl\drivers\peripheral\wdt/cy_wdt.c **** *
  29:Generated_Source\PSoC6\pdl\drivers\peripheral\wdt/cy_wdt.c **** * Initializes the Watchdog timer to its default state.
  30:Generated_Source\PSoC6\pdl\drivers\peripheral\wdt/cy_wdt.c **** *
ARM GAS  C:\Users\gjl\AppData\Local\Temp\ccIHxLe8.s 			page 2


  31:Generated_Source\PSoC6\pdl\drivers\peripheral\wdt/cy_wdt.c **** * The given default setting of the WDT:
  32:Generated_Source\PSoC6\pdl\drivers\peripheral\wdt/cy_wdt.c **** * The WDT is unlocked and disabled.
  33:Generated_Source\PSoC6\pdl\drivers\peripheral\wdt/cy_wdt.c **** * The WDT match value is 4096.
  34:Generated_Source\PSoC6\pdl\drivers\peripheral\wdt/cy_wdt.c **** * None of ignore bits are set: the whole WDT counter bits are checked against 
  35:Generated_Source\PSoC6\pdl\drivers\peripheral\wdt/cy_wdt.c **** * the match value.
  36:Generated_Source\PSoC6\pdl\drivers\peripheral\wdt/cy_wdt.c **** *
  37:Generated_Source\PSoC6\pdl\drivers\peripheral\wdt/cy_wdt.c **** *******************************************************************************/
  38:Generated_Source\PSoC6\pdl\drivers\peripheral\wdt/cy_wdt.c **** void Cy_WDT_Init(void)
  39:Generated_Source\PSoC6\pdl\drivers\peripheral\wdt/cy_wdt.c **** {
  40:Generated_Source\PSoC6\pdl\drivers\peripheral\wdt/cy_wdt.c ****     uint32_t interruptState;
  41:Generated_Source\PSoC6\pdl\drivers\peripheral\wdt/cy_wdt.c ****     interruptState = Cy_SysLib_EnterCriticalSection();
  42:Generated_Source\PSoC6\pdl\drivers\peripheral\wdt/cy_wdt.c **** 
  43:Generated_Source\PSoC6\pdl\drivers\peripheral\wdt/cy_wdt.c ****     /* Unlock the WDT by two writes */
  44:Generated_Source\PSoC6\pdl\drivers\peripheral\wdt/cy_wdt.c ****     SRSS->WDT_CTL = ((SRSS->WDT_CTL & (uint32_t)(~SRSS_WDT_CTL_WDT_LOCK_Msk)) | CY_SRSS_WDT_LOCK_BI
  45:Generated_Source\PSoC6\pdl\drivers\peripheral\wdt/cy_wdt.c **** 
  46:Generated_Source\PSoC6\pdl\drivers\peripheral\wdt/cy_wdt.c ****     SRSS->WDT_CTL |= CY_SRSS_WDT_LOCK_BIT1;
  47:Generated_Source\PSoC6\pdl\drivers\peripheral\wdt/cy_wdt.c **** 
  48:Generated_Source\PSoC6\pdl\drivers\peripheral\wdt/cy_wdt.c ****     Cy_WDT_Disable();
  49:Generated_Source\PSoC6\pdl\drivers\peripheral\wdt/cy_wdt.c **** 
  50:Generated_Source\PSoC6\pdl\drivers\peripheral\wdt/cy_wdt.c ****     Cy_WDT_SetMatch(CY_SRSS_WDT_DEFAULT_MATCH_VALUE);
  51:Generated_Source\PSoC6\pdl\drivers\peripheral\wdt/cy_wdt.c **** 
  52:Generated_Source\PSoC6\pdl\drivers\peripheral\wdt/cy_wdt.c ****     Cy_WDT_SetIgnoreBits(CY_SRSS_WDT_DEFAULT_IGNORE_BITS);
  53:Generated_Source\PSoC6\pdl\drivers\peripheral\wdt/cy_wdt.c **** 
  54:Generated_Source\PSoC6\pdl\drivers\peripheral\wdt/cy_wdt.c ****     Cy_SysLib_ExitCriticalSection(interruptState);
  55:Generated_Source\PSoC6\pdl\drivers\peripheral\wdt/cy_wdt.c **** }
  56:Generated_Source\PSoC6\pdl\drivers\peripheral\wdt/cy_wdt.c **** 
  57:Generated_Source\PSoC6\pdl\drivers\peripheral\wdt/cy_wdt.c **** 
  58:Generated_Source\PSoC6\pdl\drivers\peripheral\wdt/cy_wdt.c **** /*******************************************************************************
  59:Generated_Source\PSoC6\pdl\drivers\peripheral\wdt/cy_wdt.c **** * Function Name: Cy_WDT_Lock
  60:Generated_Source\PSoC6\pdl\drivers\peripheral\wdt/cy_wdt.c **** ****************************************************************************//**
  61:Generated_Source\PSoC6\pdl\drivers\peripheral\wdt/cy_wdt.c **** *
  62:Generated_Source\PSoC6\pdl\drivers\peripheral\wdt/cy_wdt.c **** * Locks out configuration changes to the Watchdog Timer register.
  63:Generated_Source\PSoC6\pdl\drivers\peripheral\wdt/cy_wdt.c **** *
  64:Generated_Source\PSoC6\pdl\drivers\peripheral\wdt/cy_wdt.c **** * After this function is called, the WDT configuration cannot be changed until 
  65:Generated_Source\PSoC6\pdl\drivers\peripheral\wdt/cy_wdt.c **** * Cy_WDT_Unlock() is called.
  66:Generated_Source\PSoC6\pdl\drivers\peripheral\wdt/cy_wdt.c **** *
  67:Generated_Source\PSoC6\pdl\drivers\peripheral\wdt/cy_wdt.c **** *******************************************************************************/
  68:Generated_Source\PSoC6\pdl\drivers\peripheral\wdt/cy_wdt.c **** void Cy_WDT_Lock(void)
  69:Generated_Source\PSoC6\pdl\drivers\peripheral\wdt/cy_wdt.c **** {
  70:Generated_Source\PSoC6\pdl\drivers\peripheral\wdt/cy_wdt.c ****     uint32_t interruptState;
  71:Generated_Source\PSoC6\pdl\drivers\peripheral\wdt/cy_wdt.c ****     interruptState = Cy_SysLib_EnterCriticalSection();
  72:Generated_Source\PSoC6\pdl\drivers\peripheral\wdt/cy_wdt.c **** 
  73:Generated_Source\PSoC6\pdl\drivers\peripheral\wdt/cy_wdt.c ****     SRSS->WDT_CTL |= _VAL2FLD(SRSS_WDT_CTL_WDT_LOCK, CY_SRSS_WDT_LOCK_BITS);
  74:Generated_Source\PSoC6\pdl\drivers\peripheral\wdt/cy_wdt.c **** 
  75:Generated_Source\PSoC6\pdl\drivers\peripheral\wdt/cy_wdt.c ****     Cy_SysLib_ExitCriticalSection(interruptState);
  76:Generated_Source\PSoC6\pdl\drivers\peripheral\wdt/cy_wdt.c **** }
  77:Generated_Source\PSoC6\pdl\drivers\peripheral\wdt/cy_wdt.c **** 
  78:Generated_Source\PSoC6\pdl\drivers\peripheral\wdt/cy_wdt.c **** 
  79:Generated_Source\PSoC6\pdl\drivers\peripheral\wdt/cy_wdt.c **** /*******************************************************************************
  80:Generated_Source\PSoC6\pdl\drivers\peripheral\wdt/cy_wdt.c **** * Function Name: Cy_WDT_Locked
  81:Generated_Source\PSoC6\pdl\drivers\peripheral\wdt/cy_wdt.c **** ****************************************************************************//**
  82:Generated_Source\PSoC6\pdl\drivers\peripheral\wdt/cy_wdt.c **** * \internal
  83:Generated_Source\PSoC6\pdl\drivers\peripheral\wdt/cy_wdt.c **** * Reports the WDT lock state.
  84:Generated_Source\PSoC6\pdl\drivers\peripheral\wdt/cy_wdt.c **** *
  85:Generated_Source\PSoC6\pdl\drivers\peripheral\wdt/cy_wdt.c **** * \return true - if WDT is locked, and false - if WDT is unlocked.
  86:Generated_Source\PSoC6\pdl\drivers\peripheral\wdt/cy_wdt.c **** * \endinternal
  87:Generated_Source\PSoC6\pdl\drivers\peripheral\wdt/cy_wdt.c **** *******************************************************************************/
ARM GAS  C:\Users\gjl\AppData\Local\Temp\ccIHxLe8.s 			page 3


  88:Generated_Source\PSoC6\pdl\drivers\peripheral\wdt/cy_wdt.c **** static bool Cy_WDT_Locked(void)
  89:Generated_Source\PSoC6\pdl\drivers\peripheral\wdt/cy_wdt.c **** {
  28              		.loc 1 89 0
  29              		.cfi_startproc
  30              		@ args = 0, pretend = 0, frame = 0
  31              		@ frame_needed = 0, uses_anonymous_args = 0
  32              		@ link register save eliminated.
  90:Generated_Source\PSoC6\pdl\drivers\peripheral\wdt/cy_wdt.c ****     /* Prohibits writing to the WDT registers and LFCLK */
  91:Generated_Source\PSoC6\pdl\drivers\peripheral\wdt/cy_wdt.c ****     return (0u != _FLD2VAL(SRSS_WDT_CTL_WDT_LOCK, SRSS->WDT_CTL));
  33              		.loc 1 91 0
  34 0000 034B     		ldr	r3, .L2
  35 0002 D3F88031 		ldr	r3, [r3, #384]
  36 0006 9B0F     		lsrs	r3, r3, #30
  92:Generated_Source\PSoC6\pdl\drivers\peripheral\wdt/cy_wdt.c **** }
  37              		.loc 1 92 0
  38 0008 14BF     		ite	ne
  39 000a 0120     		movne	r0, #1
  40 000c 0020     		moveq	r0, #0
  41 000e 7047     		bx	lr
  42              	.L3:
  43              		.align	2
  44              	.L2:
  45 0010 00002640 		.word	1076232192
  46              		.cfi_endproc
  47              	.LFE134:
  48              		.size	Cy_WDT_Locked, .-Cy_WDT_Locked
  49              		.section	.text.Cy_WDT_Lock,"ax",%progbits
  50              		.align	2
  51              		.global	Cy_WDT_Lock
  52              		.thumb
  53              		.thumb_func
  54              		.type	Cy_WDT_Lock, %function
  55              	Cy_WDT_Lock:
  56              	.LFB133:
  69:Generated_Source\PSoC6\pdl\drivers\peripheral\wdt/cy_wdt.c ****     uint32_t interruptState;
  57              		.loc 1 69 0
  58              		.cfi_startproc
  59              		@ args = 0, pretend = 0, frame = 0
  60              		@ frame_needed = 0, uses_anonymous_args = 0
  61 0000 08B5     		push	{r3, lr}
  62              		.cfi_def_cfa_offset 8
  63              		.cfi_offset 3, -8
  64              		.cfi_offset 14, -4
  71:Generated_Source\PSoC6\pdl\drivers\peripheral\wdt/cy_wdt.c **** 
  65              		.loc 1 71 0
  66 0002 FFF7FEFF 		bl	Cy_SysLib_EnterCriticalSection
  67              	.LVL0:
  73:Generated_Source\PSoC6\pdl\drivers\peripheral\wdt/cy_wdt.c **** 
  68              		.loc 1 73 0
  69 0006 054A     		ldr	r2, .L6
  70 0008 D2F88031 		ldr	r3, [r2, #384]
  71 000c 43F04043 		orr	r3, r3, #-1073741824
  72 0010 C2F88031 		str	r3, [r2, #384]
  75:Generated_Source\PSoC6\pdl\drivers\peripheral\wdt/cy_wdt.c **** }
  73              		.loc 1 75 0
  74 0014 FFF7FEFF 		bl	Cy_SysLib_ExitCriticalSection
  75              	.LVL1:
ARM GAS  C:\Users\gjl\AppData\Local\Temp\ccIHxLe8.s 			page 4


  76 0018 08BD     		pop	{r3, pc}
  77              	.L7:
  78 001a 00BF     		.align	2
  79              	.L6:
  80 001c 00002640 		.word	1076232192
  81              		.cfi_endproc
  82              	.LFE133:
  83              		.size	Cy_WDT_Lock, .-Cy_WDT_Lock
  84              		.section	.text.Cy_WDT_Unlock,"ax",%progbits
  85              		.align	2
  86              		.global	Cy_WDT_Unlock
  87              		.thumb
  88              		.thumb_func
  89              		.type	Cy_WDT_Unlock, %function
  90              	Cy_WDT_Unlock:
  91              	.LFB135:
  93:Generated_Source\PSoC6\pdl\drivers\peripheral\wdt/cy_wdt.c **** 
  94:Generated_Source\PSoC6\pdl\drivers\peripheral\wdt/cy_wdt.c **** 
  95:Generated_Source\PSoC6\pdl\drivers\peripheral\wdt/cy_wdt.c **** /*******************************************************************************
  96:Generated_Source\PSoC6\pdl\drivers\peripheral\wdt/cy_wdt.c **** * Function Name: Cy_WDT_Unlock
  97:Generated_Source\PSoC6\pdl\drivers\peripheral\wdt/cy_wdt.c **** ****************************************************************************//**
  98:Generated_Source\PSoC6\pdl\drivers\peripheral\wdt/cy_wdt.c **** *
  99:Generated_Source\PSoC6\pdl\drivers\peripheral\wdt/cy_wdt.c **** * Unlocks the Watchdog Timer configuration register.
 100:Generated_Source\PSoC6\pdl\drivers\peripheral\wdt/cy_wdt.c **** *
 101:Generated_Source\PSoC6\pdl\drivers\peripheral\wdt/cy_wdt.c **** *******************************************************************************/
 102:Generated_Source\PSoC6\pdl\drivers\peripheral\wdt/cy_wdt.c **** void Cy_WDT_Unlock(void)
 103:Generated_Source\PSoC6\pdl\drivers\peripheral\wdt/cy_wdt.c **** {
  92              		.loc 1 103 0
  93              		.cfi_startproc
  94              		@ args = 0, pretend = 0, frame = 0
  95              		@ frame_needed = 0, uses_anonymous_args = 0
  96 0000 08B5     		push	{r3, lr}
  97              		.cfi_def_cfa_offset 8
  98              		.cfi_offset 3, -8
  99              		.cfi_offset 14, -4
 104:Generated_Source\PSoC6\pdl\drivers\peripheral\wdt/cy_wdt.c ****     uint32_t interruptState;
 105:Generated_Source\PSoC6\pdl\drivers\peripheral\wdt/cy_wdt.c ****     interruptState = Cy_SysLib_EnterCriticalSection();
 100              		.loc 1 105 0
 101 0002 FFF7FEFF 		bl	Cy_SysLib_EnterCriticalSection
 102              	.LVL2:
 106:Generated_Source\PSoC6\pdl\drivers\peripheral\wdt/cy_wdt.c **** 
 107:Generated_Source\PSoC6\pdl\drivers\peripheral\wdt/cy_wdt.c ****     /* The WDT lock is to be removed by two writes */
 108:Generated_Source\PSoC6\pdl\drivers\peripheral\wdt/cy_wdt.c ****     SRSS->WDT_CTL = ((SRSS->WDT_CTL & (uint32_t)(~SRSS_WDT_CTL_WDT_LOCK_Msk)) | CY_SRSS_WDT_LOCK_BI
 103              		.loc 1 108 0
 104 0006 094A     		ldr	r2, .L10
 105 0008 D2F88031 		ldr	r3, [r2, #384]
 106 000c 23F04043 		bic	r3, r3, #-1073741824
 107 0010 43F08043 		orr	r3, r3, #1073741824
 108 0014 C2F88031 		str	r3, [r2, #384]
 109:Generated_Source\PSoC6\pdl\drivers\peripheral\wdt/cy_wdt.c **** 
 110:Generated_Source\PSoC6\pdl\drivers\peripheral\wdt/cy_wdt.c ****     SRSS->WDT_CTL |= CY_SRSS_WDT_LOCK_BIT1;
 109              		.loc 1 110 0
 110 0018 D2F88031 		ldr	r3, [r2, #384]
 111 001c 43F00043 		orr	r3, r3, #-2147483648
 112 0020 C2F88031 		str	r3, [r2, #384]
 111:Generated_Source\PSoC6\pdl\drivers\peripheral\wdt/cy_wdt.c **** 
 112:Generated_Source\PSoC6\pdl\drivers\peripheral\wdt/cy_wdt.c ****     Cy_SysLib_ExitCriticalSection(interruptState);
ARM GAS  C:\Users\gjl\AppData\Local\Temp\ccIHxLe8.s 			page 5


 113              		.loc 1 112 0
 114 0024 FFF7FEFF 		bl	Cy_SysLib_ExitCriticalSection
 115              	.LVL3:
 116 0028 08BD     		pop	{r3, pc}
 117              	.L11:
 118 002a 00BF     		.align	2
 119              	.L10:
 120 002c 00002640 		.word	1076232192
 121              		.cfi_endproc
 122              	.LFE135:
 123              		.size	Cy_WDT_Unlock, .-Cy_WDT_Unlock
 124              		.section	.text.Cy_WDT_SetMatch,"ax",%progbits
 125              		.align	2
 126              		.global	Cy_WDT_SetMatch
 127              		.thumb
 128              		.thumb_func
 129              		.type	Cy_WDT_SetMatch, %function
 130              	Cy_WDT_SetMatch:
 131              	.LFB136:
 113:Generated_Source\PSoC6\pdl\drivers\peripheral\wdt/cy_wdt.c **** }
 114:Generated_Source\PSoC6\pdl\drivers\peripheral\wdt/cy_wdt.c **** 
 115:Generated_Source\PSoC6\pdl\drivers\peripheral\wdt/cy_wdt.c **** 
 116:Generated_Source\PSoC6\pdl\drivers\peripheral\wdt/cy_wdt.c **** /*******************************************************************************
 117:Generated_Source\PSoC6\pdl\drivers\peripheral\wdt/cy_wdt.c **** * Function Name: Cy_WDT_SetMatch
 118:Generated_Source\PSoC6\pdl\drivers\peripheral\wdt/cy_wdt.c **** ****************************************************************************//**
 119:Generated_Source\PSoC6\pdl\drivers\peripheral\wdt/cy_wdt.c **** *
 120:Generated_Source\PSoC6\pdl\drivers\peripheral\wdt/cy_wdt.c **** * Configures the WDT counter match comparison value. The Watchdog timer 
 121:Generated_Source\PSoC6\pdl\drivers\peripheral\wdt/cy_wdt.c **** * should be unlocked before changing the match value. Call the Cy_WDT_Unlock() 
 122:Generated_Source\PSoC6\pdl\drivers\peripheral\wdt/cy_wdt.c **** * function to unlock the WDT.
 123:Generated_Source\PSoC6\pdl\drivers\peripheral\wdt/cy_wdt.c **** *
 124:Generated_Source\PSoC6\pdl\drivers\peripheral\wdt/cy_wdt.c **** * \param match
 125:Generated_Source\PSoC6\pdl\drivers\peripheral\wdt/cy_wdt.c **** * The valid valid range is [0-65535]. The value to be used to match 
 126:Generated_Source\PSoC6\pdl\drivers\peripheral\wdt/cy_wdt.c **** * against the counter.
 127:Generated_Source\PSoC6\pdl\drivers\peripheral\wdt/cy_wdt.c **** *
 128:Generated_Source\PSoC6\pdl\drivers\peripheral\wdt/cy_wdt.c **** *******************************************************************************/
 129:Generated_Source\PSoC6\pdl\drivers\peripheral\wdt/cy_wdt.c **** void Cy_WDT_SetMatch(uint32_t match)
 130:Generated_Source\PSoC6\pdl\drivers\peripheral\wdt/cy_wdt.c **** {
 132              		.loc 1 130 0
 133              		.cfi_startproc
 134              		@ args = 0, pretend = 0, frame = 0
 135              		@ frame_needed = 0, uses_anonymous_args = 0
 136              	.LVL4:
 137 0000 10B5     		push	{r4, lr}
 138              		.cfi_def_cfa_offset 8
 139              		.cfi_offset 4, -8
 140              		.cfi_offset 14, -4
 141 0002 0446     		mov	r4, r0
 131:Generated_Source\PSoC6\pdl\drivers\peripheral\wdt/cy_wdt.c ****     if (false == Cy_WDT_Locked())
 142              		.loc 1 131 0
 143 0004 FFF7FEFF 		bl	Cy_WDT_Locked
 144              	.LVL5:
 145 0008 40B9     		cbnz	r0, .L12
 132:Generated_Source\PSoC6\pdl\drivers\peripheral\wdt/cy_wdt.c ****     {
 133:Generated_Source\PSoC6\pdl\drivers\peripheral\wdt/cy_wdt.c ****         SRSS->WDT_MATCH = _CLR_SET_FLD32U((SRSS->WDT_MATCH), SRSS_WDT_MATCH_MATCH, match);
 146              		.loc 1 133 0
 147 000a 054A     		ldr	r2, .L15
 148 000c D2F88831 		ldr	r3, [r2, #392]
ARM GAS  C:\Users\gjl\AppData\Local\Temp\ccIHxLe8.s 			page 6


 149 0010 1B0C     		lsrs	r3, r3, #16
 150 0012 1B04     		lsls	r3, r3, #16
 151 0014 A4B2     		uxth	r4, r4
 152              	.LVL6:
 153 0016 1C43     		orrs	r4, r4, r3
 154 0018 C2F88841 		str	r4, [r2, #392]
 155              	.L12:
 156 001c 10BD     		pop	{r4, pc}
 157              	.L16:
 158 001e 00BF     		.align	2
 159              	.L15:
 160 0020 00002640 		.word	1076232192
 161              		.cfi_endproc
 162              	.LFE136:
 163              		.size	Cy_WDT_SetMatch, .-Cy_WDT_SetMatch
 164              		.section	.text.Cy_WDT_SetIgnoreBits,"ax",%progbits
 165              		.align	2
 166              		.global	Cy_WDT_SetIgnoreBits
 167              		.thumb
 168              		.thumb_func
 169              		.type	Cy_WDT_SetIgnoreBits, %function
 170              	Cy_WDT_SetIgnoreBits:
 171              	.LFB137:
 134:Generated_Source\PSoC6\pdl\drivers\peripheral\wdt/cy_wdt.c ****     }
 135:Generated_Source\PSoC6\pdl\drivers\peripheral\wdt/cy_wdt.c **** }
 136:Generated_Source\PSoC6\pdl\drivers\peripheral\wdt/cy_wdt.c **** 
 137:Generated_Source\PSoC6\pdl\drivers\peripheral\wdt/cy_wdt.c **** 
 138:Generated_Source\PSoC6\pdl\drivers\peripheral\wdt/cy_wdt.c **** /*******************************************************************************
 139:Generated_Source\PSoC6\pdl\drivers\peripheral\wdt/cy_wdt.c **** * Function Name: Cy_WDT_SetIgnoreBits
 140:Generated_Source\PSoC6\pdl\drivers\peripheral\wdt/cy_wdt.c **** ****************************************************************************//**
 141:Generated_Source\PSoC6\pdl\drivers\peripheral\wdt/cy_wdt.c **** *
 142:Generated_Source\PSoC6\pdl\drivers\peripheral\wdt/cy_wdt.c **** * Configures the number of the most significant bits of the Watchdog timer that 
 143:Generated_Source\PSoC6\pdl\drivers\peripheral\wdt/cy_wdt.c **** * are not checked against the match. Unlock the Watchdog timer before 
 144:Generated_Source\PSoC6\pdl\drivers\peripheral\wdt/cy_wdt.c **** * ignoring the bits setting. Call the Cy_WDT_Unlock() API to unlock the WDT.
 145:Generated_Source\PSoC6\pdl\drivers\peripheral\wdt/cy_wdt.c **** *
 146:Generated_Source\PSoC6\pdl\drivers\peripheral\wdt/cy_wdt.c **** * \param bitsNum
 147:Generated_Source\PSoC6\pdl\drivers\peripheral\wdt/cy_wdt.c **** * The number of the most significant bits. The valid range is [0-15].
 148:Generated_Source\PSoC6\pdl\drivers\peripheral\wdt/cy_wdt.c **** * The bitsNum over 12 are considered as 12.
 149:Generated_Source\PSoC6\pdl\drivers\peripheral\wdt/cy_wdt.c **** *
 150:Generated_Source\PSoC6\pdl\drivers\peripheral\wdt/cy_wdt.c **** * \details The value of bitsNum controls the time-to-reset of the Watchdog timer
 151:Generated_Source\PSoC6\pdl\drivers\peripheral\wdt/cy_wdt.c **** * This happens after 3 successive matches.
 152:Generated_Source\PSoC6\pdl\drivers\peripheral\wdt/cy_wdt.c **** *
 153:Generated_Source\PSoC6\pdl\drivers\peripheral\wdt/cy_wdt.c **** * \warning This function changes the WDT interrupt period, therefore 
 154:Generated_Source\PSoC6\pdl\drivers\peripheral\wdt/cy_wdt.c **** * the device can go into an infinite WDT reset loop. This may happen
 155:Generated_Source\PSoC6\pdl\drivers\peripheral\wdt/cy_wdt.c **** * if a WDT reset occurs faster that a device start-up.
 156:Generated_Source\PSoC6\pdl\drivers\peripheral\wdt/cy_wdt.c **** *
 157:Generated_Source\PSoC6\pdl\drivers\peripheral\wdt/cy_wdt.c **** *******************************************************************************/
 158:Generated_Source\PSoC6\pdl\drivers\peripheral\wdt/cy_wdt.c **** void Cy_WDT_SetIgnoreBits(uint32_t bitsNum)
 159:Generated_Source\PSoC6\pdl\drivers\peripheral\wdt/cy_wdt.c **** {
 172              		.loc 1 159 0
 173              		.cfi_startproc
 174              		@ args = 0, pretend = 0, frame = 0
 175              		@ frame_needed = 0, uses_anonymous_args = 0
 176              	.LVL7:
 177 0000 10B5     		push	{r4, lr}
 178              		.cfi_def_cfa_offset 8
 179              		.cfi_offset 4, -8
ARM GAS  C:\Users\gjl\AppData\Local\Temp\ccIHxLe8.s 			page 7


 180              		.cfi_offset 14, -4
 181 0002 0446     		mov	r4, r0
 160:Generated_Source\PSoC6\pdl\drivers\peripheral\wdt/cy_wdt.c ****     if (false == Cy_WDT_Locked())
 182              		.loc 1 160 0
 183 0004 FFF7FEFF 		bl	Cy_WDT_Locked
 184              	.LVL8:
 185 0008 50B9     		cbnz	r0, .L17
 161:Generated_Source\PSoC6\pdl\drivers\peripheral\wdt/cy_wdt.c ****     {
 162:Generated_Source\PSoC6\pdl\drivers\peripheral\wdt/cy_wdt.c ****         SRSS->WDT_MATCH = _CLR_SET_FLD32U((SRSS->WDT_MATCH), SRSS_WDT_MATCH_IGNORE_BITS, bitsNum);
 186              		.loc 1 162 0
 187 000a 064A     		ldr	r2, .L20
 188 000c D2F88831 		ldr	r3, [r2, #392]
 189 0010 23F47023 		bic	r3, r3, #983040
 190 0014 2404     		lsls	r4, r4, #16
 191              	.LVL9:
 192 0016 04F47024 		and	r4, r4, #983040
 193 001a 1C43     		orrs	r4, r4, r3
 194 001c C2F88841 		str	r4, [r2, #392]
 195              	.L17:
 196 0020 10BD     		pop	{r4, pc}
 197              	.L21:
 198 0022 00BF     		.align	2
 199              	.L20:
 200 0024 00002640 		.word	1076232192
 201              		.cfi_endproc
 202              	.LFE137:
 203              		.size	Cy_WDT_SetIgnoreBits, .-Cy_WDT_SetIgnoreBits
 204              		.section	.text.Cy_WDT_Init,"ax",%progbits
 205              		.align	2
 206              		.global	Cy_WDT_Init
 207              		.thumb
 208              		.thumb_func
 209              		.type	Cy_WDT_Init, %function
 210              	Cy_WDT_Init:
 211              	.LFB132:
  39:Generated_Source\PSoC6\pdl\drivers\peripheral\wdt/cy_wdt.c ****     uint32_t interruptState;
 212              		.loc 1 39 0
 213              		.cfi_startproc
 214              		@ args = 0, pretend = 0, frame = 0
 215              		@ frame_needed = 0, uses_anonymous_args = 0
 216 0000 10B5     		push	{r4, lr}
 217              		.cfi_def_cfa_offset 8
 218              		.cfi_offset 4, -8
 219              		.cfi_offset 14, -4
  41:Generated_Source\PSoC6\pdl\drivers\peripheral\wdt/cy_wdt.c **** 
 220              		.loc 1 41 0
 221 0002 FFF7FEFF 		bl	Cy_SysLib_EnterCriticalSection
 222              	.LVL10:
 223 0006 0446     		mov	r4, r0
 224              	.LVL11:
  44:Generated_Source\PSoC6\pdl\drivers\peripheral\wdt/cy_wdt.c **** 
 225              		.loc 1 44 0
 226 0008 0F4B     		ldr	r3, .L24
 227 000a D3F88021 		ldr	r2, [r3, #384]
 228 000e 22F04042 		bic	r2, r2, #-1073741824
 229 0012 42F08042 		orr	r2, r2, #1073741824
 230 0016 C3F88021 		str	r2, [r3, #384]
ARM GAS  C:\Users\gjl\AppData\Local\Temp\ccIHxLe8.s 			page 8


  46:Generated_Source\PSoC6\pdl\drivers\peripheral\wdt/cy_wdt.c **** 
 231              		.loc 1 46 0
 232 001a D3F88021 		ldr	r2, [r3, #384]
 233 001e 42F00042 		orr	r2, r2, #-2147483648
 234 0022 C3F88021 		str	r2, [r3, #384]
 235              	.LBB4:
 236              	.LBB5:
 237              		.file 2 "Generated_Source\\PSoC6\\pdl\\drivers\\peripheral\\wdt\\cy_wdt.h"
   1:Generated_Source\PSoC6\pdl\drivers\peripheral\wdt/cy_wdt.h **** /***************************************************************************//**
   2:Generated_Source\PSoC6\pdl\drivers\peripheral\wdt/cy_wdt.h **** * \file cy_wdt.h
   3:Generated_Source\PSoC6\pdl\drivers\peripheral\wdt/cy_wdt.h **** * \version 1.0.1
   4:Generated_Source\PSoC6\pdl\drivers\peripheral\wdt/cy_wdt.h **** *
   5:Generated_Source\PSoC6\pdl\drivers\peripheral\wdt/cy_wdt.h **** *  This file provides constants and parameter values for the WDT driver.
   6:Generated_Source\PSoC6\pdl\drivers\peripheral\wdt/cy_wdt.h **** *
   7:Generated_Source\PSoC6\pdl\drivers\peripheral\wdt/cy_wdt.h **** ********************************************************************************
   8:Generated_Source\PSoC6\pdl\drivers\peripheral\wdt/cy_wdt.h **** * \copyright
   9:Generated_Source\PSoC6\pdl\drivers\peripheral\wdt/cy_wdt.h **** * Copyright 2016-2018, Cypress Semiconductor Corporation.  All rights reserved.
  10:Generated_Source\PSoC6\pdl\drivers\peripheral\wdt/cy_wdt.h **** * You may use this file only in accordance with the license, terms, conditions,
  11:Generated_Source\PSoC6\pdl\drivers\peripheral\wdt/cy_wdt.h **** * disclaimers, and limitations in the end user license agreement accompanying
  12:Generated_Source\PSoC6\pdl\drivers\peripheral\wdt/cy_wdt.h **** * the software package with which this file was provided.
  13:Generated_Source\PSoC6\pdl\drivers\peripheral\wdt/cy_wdt.h **** *
  14:Generated_Source\PSoC6\pdl\drivers\peripheral\wdt/cy_wdt.h **** *******************************************************************************/
  15:Generated_Source\PSoC6\pdl\drivers\peripheral\wdt/cy_wdt.h **** 
  16:Generated_Source\PSoC6\pdl\drivers\peripheral\wdt/cy_wdt.h **** /**
  17:Generated_Source\PSoC6\pdl\drivers\peripheral\wdt/cy_wdt.h **** * \defgroup group_wdt Watchdog Timer (WDT)
  18:Generated_Source\PSoC6\pdl\drivers\peripheral\wdt/cy_wdt.h **** * \{
  19:Generated_Source\PSoC6\pdl\drivers\peripheral\wdt/cy_wdt.h **** *
  20:Generated_Source\PSoC6\pdl\drivers\peripheral\wdt/cy_wdt.h **** * The Watchdog timer (WDT) has a 16-bit free-running up-counter. The WDT can 
  21:Generated_Source\PSoC6\pdl\drivers\peripheral\wdt/cy_wdt.h **** * issue counter match interrupts, and a device reset if its interrupts are not 
  22:Generated_Source\PSoC6\pdl\drivers\peripheral\wdt/cy_wdt.h **** * handled. Use the Watchdog timer for two main purposes.<br>
  23:Generated_Source\PSoC6\pdl\drivers\peripheral\wdt/cy_wdt.h **** * The <b> First use case </b> is recovering from a CPU or firmware failure.
  24:Generated_Source\PSoC6\pdl\drivers\peripheral\wdt/cy_wdt.h **** * A timeout period is set up in the Watchdog timer, and if a timeout occurs, the
  25:Generated_Source\PSoC6\pdl\drivers\peripheral\wdt/cy_wdt.h **** * device is reset (WRES). <br>
  26:Generated_Source\PSoC6\pdl\drivers\peripheral\wdt/cy_wdt.h **** * The <b>Second use case</b> is to generate periodic interrupts.
  27:Generated_Source\PSoC6\pdl\drivers\peripheral\wdt/cy_wdt.h **** * It is strongly recommended not to use the WDT for periodic interrupt
  28:Generated_Source\PSoC6\pdl\drivers\peripheral\wdt/cy_wdt.h **** * generation. However, if absolutely required, see information below.
  29:Generated_Source\PSoC6\pdl\drivers\peripheral\wdt/cy_wdt.h **** *
  30:Generated_Source\PSoC6\pdl\drivers\peripheral\wdt/cy_wdt.h **** * A "reset cause" register exists, and the firmware should check this register 
  31:Generated_Source\PSoC6\pdl\drivers\peripheral\wdt/cy_wdt.h **** * at a start-up. An appropriate action can be taken if a WRES reset is detected.
  32:Generated_Source\PSoC6\pdl\drivers\peripheral\wdt/cy_wdt.h **** *
  33:Generated_Source\PSoC6\pdl\drivers\peripheral\wdt/cy_wdt.h **** * The user's firmware periodically resets the timeout period (clears or "feeds" 
  34:Generated_Source\PSoC6\pdl\drivers\peripheral\wdt/cy_wdt.h **** * the watchdog) before a timeout occurs. If the firmware fails to do so, that is
  35:Generated_Source\PSoC6\pdl\drivers\peripheral\wdt/cy_wdt.h **** * considered to be a CPU crash or a firmware failure, and the reason for a 
  36:Generated_Source\PSoC6\pdl\drivers\peripheral\wdt/cy_wdt.h **** * device reset.
  37:Generated_Source\PSoC6\pdl\drivers\peripheral\wdt/cy_wdt.h **** * The WDT can generate an interrupt instead of a device reset. The Interrupt 
  38:Generated_Source\PSoC6\pdl\drivers\peripheral\wdt/cy_wdt.h **** * Service Routine (ISR) can handle the interrupt either as a periodic interrupt,
  39:Generated_Source\PSoC6\pdl\drivers\peripheral\wdt/cy_wdt.h **** * or as an early indication of a firmware failure and respond accordingly.
  40:Generated_Source\PSoC6\pdl\drivers\peripheral\wdt/cy_wdt.h **** * However, it is not recommended to use the WDT for periodic interrupt 
  41:Generated_Source\PSoC6\pdl\drivers\peripheral\wdt/cy_wdt.h **** * generation. The Multi-counter Watchdog Timers (MCWDT) can be used to generate 
  42:Generated_Source\PSoC6\pdl\drivers\peripheral\wdt/cy_wdt.h **** * periodic interrupts if such are presented in the device.
  43:Generated_Source\PSoC6\pdl\drivers\peripheral\wdt/cy_wdt.h **** *
  44:Generated_Source\PSoC6\pdl\drivers\peripheral\wdt/cy_wdt.h **** * <b> Functional Description </b> <br>
  45:Generated_Source\PSoC6\pdl\drivers\peripheral\wdt/cy_wdt.h **** * The WDT generates an interrupt when the count value in the counter equals the 
  46:Generated_Source\PSoC6\pdl\drivers\peripheral\wdt/cy_wdt.h **** * configured match value.
  47:Generated_Source\PSoC6\pdl\drivers\peripheral\wdt/cy_wdt.h **** *
  48:Generated_Source\PSoC6\pdl\drivers\peripheral\wdt/cy_wdt.h **** * Note that the counter is not reset on a match. In such case the WDT
  49:Generated_Source\PSoC6\pdl\drivers\peripheral\wdt/cy_wdt.h **** * reset period is:
ARM GAS  C:\Users\gjl\AppData\Local\Temp\ccIHxLe8.s 			page 9


  50:Generated_Source\PSoC6\pdl\drivers\peripheral\wdt/cy_wdt.h **** * WDT_Reset_Period = ILO_Period * (2*2^(16-IgnoreBits) + MatchValue);
  51:Generated_Source\PSoC6\pdl\drivers\peripheral\wdt/cy_wdt.h **** * When the counter reaches a match value, it generates an interrupt and then 
  52:Generated_Source\PSoC6\pdl\drivers\peripheral\wdt/cy_wdt.h **** * keeps counting up until it overflows and rolls back to zero and reaches the 
  53:Generated_Source\PSoC6\pdl\drivers\peripheral\wdt/cy_wdt.h **** * match value again, at which point another interrupt is generated.
  54:Generated_Source\PSoC6\pdl\drivers\peripheral\wdt/cy_wdt.h **** *
  55:Generated_Source\PSoC6\pdl\drivers\peripheral\wdt/cy_wdt.h **** * To use a WDT to generate a periodic interrupt, the match value should be 
  56:Generated_Source\PSoC6\pdl\drivers\peripheral\wdt/cy_wdt.h **** * incremented in the ISR. As a result, the next WDT interrupt is generated when 
  57:Generated_Source\PSoC6\pdl\drivers\peripheral\wdt/cy_wdt.h **** * the counter reaches a new match value.
  58:Generated_Source\PSoC6\pdl\drivers\peripheral\wdt/cy_wdt.h **** *
  59:Generated_Source\PSoC6\pdl\drivers\peripheral\wdt/cy_wdt.h **** * You can also reduce the entire WDT counter period by 
  60:Generated_Source\PSoC6\pdl\drivers\peripheral\wdt/cy_wdt.h **** * specifying the number of most significant bits that are ignored in the WDT 
  61:Generated_Source\PSoC6\pdl\drivers\peripheral\wdt/cy_wdt.h **** * counter. For example, if the Cy_WDT_SetIgnoreBits() function is called with
  62:Generated_Source\PSoC6\pdl\drivers\peripheral\wdt/cy_wdt.h **** * parameter 3, the WDT counter becomes a 13-bit free-running up-counter.
  63:Generated_Source\PSoC6\pdl\drivers\peripheral\wdt/cy_wdt.h **** *
  64:Generated_Source\PSoC6\pdl\drivers\peripheral\wdt/cy_wdt.h **** * <b> Power Modes </b> <br>
  65:Generated_Source\PSoC6\pdl\drivers\peripheral\wdt/cy_wdt.h **** * WDT can operate in all possible low power modes. 
  66:Generated_Source\PSoC6\pdl\drivers\peripheral\wdt/cy_wdt.h **** * Operation during Hibernate mode is possible because the logic and 
  67:Generated_Source\PSoC6\pdl\drivers\peripheral\wdt/cy_wdt.h **** * high-voltage internal low oscillator (ILO) are supplied by the external 
  68:Generated_Source\PSoC6\pdl\drivers\peripheral\wdt/cy_wdt.h **** * high-voltage supply (Vddd). The WDT can be configured to wake the device from 
  69:Generated_Source\PSoC6\pdl\drivers\peripheral\wdt/cy_wdt.h **** * Hibernate mode.
  70:Generated_Source\PSoC6\pdl\drivers\peripheral\wdt/cy_wdt.h **** *
  71:Generated_Source\PSoC6\pdl\drivers\peripheral\wdt/cy_wdt.h **** * In Active or LPActive mode, an interrupt request from the WDT is sent to the 
  72:Generated_Source\PSoC6\pdl\drivers\peripheral\wdt/cy_wdt.h **** * CPU via IRQ 22. In Sleep, LPSleep or Deep Sleep power mode, the CPU subsystem 
  73:Generated_Source\PSoC6\pdl\drivers\peripheral\wdt/cy_wdt.h **** * is powered down, so the interrupt request from the WDT is sent directly to the
  74:Generated_Source\PSoC6\pdl\drivers\peripheral\wdt/cy_wdt.h **** * WakeUp Interrupt Controller (WIC) which will then wake up the CPU. The 
  75:Generated_Source\PSoC6\pdl\drivers\peripheral\wdt/cy_wdt.h **** * CPU then acknowledges the interrupt request and executes the ISR.
  76:Generated_Source\PSoC6\pdl\drivers\peripheral\wdt/cy_wdt.h **** *
  77:Generated_Source\PSoC6\pdl\drivers\peripheral\wdt/cy_wdt.h **** * <b> Clock Source </b> <br>
  78:Generated_Source\PSoC6\pdl\drivers\peripheral\wdt/cy_wdt.h **** * The WDT is clocked by the ILO. The WDT must be disabled before disabling 
  79:Generated_Source\PSoC6\pdl\drivers\peripheral\wdt/cy_wdt.h **** * the ILO. According to the device datasheet, the ILO accuracy is +/-30% over 
  80:Generated_Source\PSoC6\pdl\drivers\peripheral\wdt/cy_wdt.h **** * voltage and temperature. This means that the timeout period may vary by 30% 
  81:Generated_Source\PSoC6\pdl\drivers\peripheral\wdt/cy_wdt.h **** * from the configured value. Appropriate margins should be added while 
  82:Generated_Source\PSoC6\pdl\drivers\peripheral\wdt/cy_wdt.h **** * configuring WDT intervals to make sure that unwanted device resets do not 
  83:Generated_Source\PSoC6\pdl\drivers\peripheral\wdt/cy_wdt.h **** * occur on some devices.
  84:Generated_Source\PSoC6\pdl\drivers\peripheral\wdt/cy_wdt.h **** * 
  85:Generated_Source\PSoC6\pdl\drivers\peripheral\wdt/cy_wdt.h **** * Refer to the device datasheet for more information on the oscillator accuracy.
  86:Generated_Source\PSoC6\pdl\drivers\peripheral\wdt/cy_wdt.h **** *
  87:Generated_Source\PSoC6\pdl\drivers\peripheral\wdt/cy_wdt.h **** * <b> Register Locking </b> <br>
  88:Generated_Source\PSoC6\pdl\drivers\peripheral\wdt/cy_wdt.h **** * You can prevent accidental corruption of the WDT configuration by calling 
  89:Generated_Source\PSoC6\pdl\drivers\peripheral\wdt/cy_wdt.h **** * the Cy_WDT_Lock() function. When the WDT is locked, any writing to the WDT_*, 
  90:Generated_Source\PSoC6\pdl\drivers\peripheral\wdt/cy_wdt.h **** * CLK_ILO_CONFIG, CLK_SELECT.LFCLK_SEL, and CLK_TRIM_ILO_CTL registers is 
  91:Generated_Source\PSoC6\pdl\drivers\peripheral\wdt/cy_wdt.h **** * ignored.
  92:Generated_Source\PSoC6\pdl\drivers\peripheral\wdt/cy_wdt.h **** * Call the Cy_WDT_Unlock() function to allow WDT registers modification.
  93:Generated_Source\PSoC6\pdl\drivers\peripheral\wdt/cy_wdt.h **** *
  94:Generated_Source\PSoC6\pdl\drivers\peripheral\wdt/cy_wdt.h **** * <b> Clearing WDT </b> <br>
  95:Generated_Source\PSoC6\pdl\drivers\peripheral\wdt/cy_wdt.h **** * The ILO clock is asynchronous to the SysClk. Therefore it generally 
  96:Generated_Source\PSoC6\pdl\drivers\peripheral\wdt/cy_wdt.h **** * takes three ILO cycles for WDT register changes to come into effect. It is 
  97:Generated_Source\PSoC6\pdl\drivers\peripheral\wdt/cy_wdt.h **** * important to remember that a WDT should be cleared at least four cycles 
  98:Generated_Source\PSoC6\pdl\drivers\peripheral\wdt/cy_wdt.h **** * (3 + 1 for sure) before a timeout occurs, especially when small 
  99:Generated_Source\PSoC6\pdl\drivers\peripheral\wdt/cy_wdt.h **** * match values / low-toggle bit numbers are used.
 100:Generated_Source\PSoC6\pdl\drivers\peripheral\wdt/cy_wdt.h **** *
 101:Generated_Source\PSoC6\pdl\drivers\peripheral\wdt/cy_wdt.h **** * \warning It may happen that a WDT reset can be generated 
 102:Generated_Source\PSoC6\pdl\drivers\peripheral\wdt/cy_wdt.h **** * faster than a device start-up. To prevent this, calculate the 
 103:Generated_Source\PSoC6\pdl\drivers\peripheral\wdt/cy_wdt.h **** * start-up time and WDT reset time. The WDT reset time should be always smaller 
 104:Generated_Source\PSoC6\pdl\drivers\peripheral\wdt/cy_wdt.h **** * than device start-up time.
 105:Generated_Source\PSoC6\pdl\drivers\peripheral\wdt/cy_wdt.h **** *
 106:Generated_Source\PSoC6\pdl\drivers\peripheral\wdt/cy_wdt.h **** * <b> Reset Detection </b> <br>
ARM GAS  C:\Users\gjl\AppData\Local\Temp\ccIHxLe8.s 			page 10


 107:Generated_Source\PSoC6\pdl\drivers\peripheral\wdt/cy_wdt.h **** * Use the Cy_SysLib_GetResetReason() function to detect whether the WDT has 
 108:Generated_Source\PSoC6\pdl\drivers\peripheral\wdt/cy_wdt.h **** * triggered a device reset.
 109:Generated_Source\PSoC6\pdl\drivers\peripheral\wdt/cy_wdt.h **** *
 110:Generated_Source\PSoC6\pdl\drivers\peripheral\wdt/cy_wdt.h **** * <b> Interrupt Configuration </b> <br>
 111:Generated_Source\PSoC6\pdl\drivers\peripheral\wdt/cy_wdt.h **** * The Global Signal Reference and Interrupt components can be used for ISR 
 112:Generated_Source\PSoC6\pdl\drivers\peripheral\wdt/cy_wdt.h **** * configuration. If the WDT is configured to generate an interrupt, pending 
 113:Generated_Source\PSoC6\pdl\drivers\peripheral\wdt/cy_wdt.h **** * interrupts must be cleared within the ISR (otherwise, the interrupt will be 
 114:Generated_Source\PSoC6\pdl\drivers\peripheral\wdt/cy_wdt.h **** * generated continuously).
 115:Generated_Source\PSoC6\pdl\drivers\peripheral\wdt/cy_wdt.h **** * A pending interrupt to the WDT block must be cleared by calling the 
 116:Generated_Source\PSoC6\pdl\drivers\peripheral\wdt/cy_wdt.h **** * Cy_WDT_ClearInterrupt() function. The call to the function will clear the 
 117:Generated_Source\PSoC6\pdl\drivers\peripheral\wdt/cy_wdt.h **** * unhandled WDT interrupt counter.
 118:Generated_Source\PSoC6\pdl\drivers\peripheral\wdt/cy_wdt.h **** *
 119:Generated_Source\PSoC6\pdl\drivers\peripheral\wdt/cy_wdt.h **** * Use the WDT ISR as a timer to trigger certain actions 
 120:Generated_Source\PSoC6\pdl\drivers\peripheral\wdt/cy_wdt.h **** * and to change a next WDT match value.
 121:Generated_Source\PSoC6\pdl\drivers\peripheral\wdt/cy_wdt.h **** *
 122:Generated_Source\PSoC6\pdl\drivers\peripheral\wdt/cy_wdt.h **** * Ensure that the interrupts from the WDT are passed to the CPU to avoid 
 123:Generated_Source\PSoC6\pdl\drivers\peripheral\wdt/cy_wdt.h **** * unregistered interrupts. Unregistered WDT interrupts result in a continuous 
 124:Generated_Source\PSoC6\pdl\drivers\peripheral\wdt/cy_wdt.h **** * device reset. To avoid this, call Cy_WDT_UnmaskInterrupt().
 125:Generated_Source\PSoC6\pdl\drivers\peripheral\wdt/cy_wdt.h **** * After that, call the WDT API functions for interrupt
 126:Generated_Source\PSoC6\pdl\drivers\peripheral\wdt/cy_wdt.h **** * handling/clearing.
 127:Generated_Source\PSoC6\pdl\drivers\peripheral\wdt/cy_wdt.h **** *
 128:Generated_Source\PSoC6\pdl\drivers\peripheral\wdt/cy_wdt.h **** * \section group_wdt_configuration Configuration Considerations
 129:Generated_Source\PSoC6\pdl\drivers\peripheral\wdt/cy_wdt.h **** *
 130:Generated_Source\PSoC6\pdl\drivers\peripheral\wdt/cy_wdt.h **** * To start the WDT, make sure that ILO is enabled.
 131:Generated_Source\PSoC6\pdl\drivers\peripheral\wdt/cy_wdt.h **** * After the ILO is enabled, ensure that the WDT is unlocked and disabled by 
 132:Generated_Source\PSoC6\pdl\drivers\peripheral\wdt/cy_wdt.h **** * calling the Cy_WDT_Unlock() and Cy_WDT_Disable() functions. Set the WDT match 
 133:Generated_Source\PSoC6\pdl\drivers\peripheral\wdt/cy_wdt.h **** * value by calling Cy_WDT_SetMatch() with the required match value. If needed, 
 134:Generated_Source\PSoC6\pdl\drivers\peripheral\wdt/cy_wdt.h **** * set the ignore bits for reducing the WDT counter period by calling 
 135:Generated_Source\PSoC6\pdl\drivers\peripheral\wdt/cy_wdt.h **** * Cy_WDT_SetIgnoreBits() function. After the WDT configuration is set, 
 136:Generated_Source\PSoC6\pdl\drivers\peripheral\wdt/cy_wdt.h **** * call Cy_WDT_Enable().
 137:Generated_Source\PSoC6\pdl\drivers\peripheral\wdt/cy_wdt.h **** *
 138:Generated_Source\PSoC6\pdl\drivers\peripheral\wdt/cy_wdt.h **** * \note Enable a WDT if the power supply can produce
 139:Generated_Source\PSoC6\pdl\drivers\peripheral\wdt/cy_wdt.h **** * sudden brownout events that may compromise the CPU functionality. This 
 140:Generated_Source\PSoC6\pdl\drivers\peripheral\wdt/cy_wdt.h **** * ensures that the system can recover after a brownout.
 141:Generated_Source\PSoC6\pdl\drivers\peripheral\wdt/cy_wdt.h **** *
 142:Generated_Source\PSoC6\pdl\drivers\peripheral\wdt/cy_wdt.h **** * When the WDT is used to protect against system crashes, the 
 143:Generated_Source\PSoC6\pdl\drivers\peripheral\wdt/cy_wdt.h **** * WDT interrupt should be cleared by a portion of the code that is not directly 
 144:Generated_Source\PSoC6\pdl\drivers\peripheral\wdt/cy_wdt.h **** * associated with the WDT interrupt.
 145:Generated_Source\PSoC6\pdl\drivers\peripheral\wdt/cy_wdt.h **** * Otherwise, it is possible that the main firmware loop has crashed or is in an 
 146:Generated_Source\PSoC6\pdl\drivers\peripheral\wdt/cy_wdt.h **** * endless loop, but the WDT interrupt vector continues to operate and service 
 147:Generated_Source\PSoC6\pdl\drivers\peripheral\wdt/cy_wdt.h **** * the WDT. The user should:
 148:Generated_Source\PSoC6\pdl\drivers\peripheral\wdt/cy_wdt.h **** * * Feed the watchdog by clearing the interrupt bit regularly in the main body 
 149:Generated_Source\PSoC6\pdl\drivers\peripheral\wdt/cy_wdt.h **** * of the firmware code.
 150:Generated_Source\PSoC6\pdl\drivers\peripheral\wdt/cy_wdt.h **** *
 151:Generated_Source\PSoC6\pdl\drivers\peripheral\wdt/cy_wdt.h **** * * Guarantee that the interrupt is cleared at least once every WDT period.
 152:Generated_Source\PSoC6\pdl\drivers\peripheral\wdt/cy_wdt.h **** *
 153:Generated_Source\PSoC6\pdl\drivers\peripheral\wdt/cy_wdt.h **** * * Use the WDT ISR only as a timer to trigger certain actions and to change the
 154:Generated_Source\PSoC6\pdl\drivers\peripheral\wdt/cy_wdt.h **** * next match value.
 155:Generated_Source\PSoC6\pdl\drivers\peripheral\wdt/cy_wdt.h **** *
 156:Generated_Source\PSoC6\pdl\drivers\peripheral\wdt/cy_wdt.h **** * \section group_wdt_section_more_information More Information
 157:Generated_Source\PSoC6\pdl\drivers\peripheral\wdt/cy_wdt.h **** *
 158:Generated_Source\PSoC6\pdl\drivers\peripheral\wdt/cy_wdt.h **** * For more information on the WDT peripheral, refer to the technical reference
 159:Generated_Source\PSoC6\pdl\drivers\peripheral\wdt/cy_wdt.h **** * manual (TRM).
 160:Generated_Source\PSoC6\pdl\drivers\peripheral\wdt/cy_wdt.h **** *
 161:Generated_Source\PSoC6\pdl\drivers\peripheral\wdt/cy_wdt.h **** * \section group_wdt_MISRA MISRA-C Compliance
 162:Generated_Source\PSoC6\pdl\drivers\peripheral\wdt/cy_wdt.h **** * The WDT driver does not have any specific deviations.
 163:Generated_Source\PSoC6\pdl\drivers\peripheral\wdt/cy_wdt.h **** *
ARM GAS  C:\Users\gjl\AppData\Local\Temp\ccIHxLe8.s 			page 11


 164:Generated_Source\PSoC6\pdl\drivers\peripheral\wdt/cy_wdt.h **** * \section group_wdt_changelog Changelog
 165:Generated_Source\PSoC6\pdl\drivers\peripheral\wdt/cy_wdt.h **** * <table class="doxtable">
 166:Generated_Source\PSoC6\pdl\drivers\peripheral\wdt/cy_wdt.h **** *   <tr><th>Version</th><th>Changes</th><th>Reason for Change</th></tr>
 167:Generated_Source\PSoC6\pdl\drivers\peripheral\wdt/cy_wdt.h **** *   <tr>
 168:Generated_Source\PSoC6\pdl\drivers\peripheral\wdt/cy_wdt.h **** *     <td>1.0.1</td>
 169:Generated_Source\PSoC6\pdl\drivers\peripheral\wdt/cy_wdt.h **** *     <td>General documentation updates</td>
 170:Generated_Source\PSoC6\pdl\drivers\peripheral\wdt/cy_wdt.h **** *     <td>Added info about periodic interrupt generation use case</td>
 171:Generated_Source\PSoC6\pdl\drivers\peripheral\wdt/cy_wdt.h **** *   </tr>
 172:Generated_Source\PSoC6\pdl\drivers\peripheral\wdt/cy_wdt.h **** *   <tr>
 173:Generated_Source\PSoC6\pdl\drivers\peripheral\wdt/cy_wdt.h **** *     <td>1.0</td>
 174:Generated_Source\PSoC6\pdl\drivers\peripheral\wdt/cy_wdt.h **** *     <td>Initial version</td>
 175:Generated_Source\PSoC6\pdl\drivers\peripheral\wdt/cy_wdt.h **** *     <td></td>
 176:Generated_Source\PSoC6\pdl\drivers\peripheral\wdt/cy_wdt.h **** *   </tr>
 177:Generated_Source\PSoC6\pdl\drivers\peripheral\wdt/cy_wdt.h **** * </table>
 178:Generated_Source\PSoC6\pdl\drivers\peripheral\wdt/cy_wdt.h **** *
 179:Generated_Source\PSoC6\pdl\drivers\peripheral\wdt/cy_wdt.h **** * \defgroup group_wdt_macros Macros
 180:Generated_Source\PSoC6\pdl\drivers\peripheral\wdt/cy_wdt.h **** * \defgroup group_wdt_functions Functions
 181:Generated_Source\PSoC6\pdl\drivers\peripheral\wdt/cy_wdt.h **** *
 182:Generated_Source\PSoC6\pdl\drivers\peripheral\wdt/cy_wdt.h **** */
 183:Generated_Source\PSoC6\pdl\drivers\peripheral\wdt/cy_wdt.h **** 
 184:Generated_Source\PSoC6\pdl\drivers\peripheral\wdt/cy_wdt.h **** #if !defined(_WDT_H_)
 185:Generated_Source\PSoC6\pdl\drivers\peripheral\wdt/cy_wdt.h **** #define _WDT_H_
 186:Generated_Source\PSoC6\pdl\drivers\peripheral\wdt/cy_wdt.h **** 
 187:Generated_Source\PSoC6\pdl\drivers\peripheral\wdt/cy_wdt.h **** #include <stdint.h>
 188:Generated_Source\PSoC6\pdl\drivers\peripheral\wdt/cy_wdt.h **** #include <stdbool.h>
 189:Generated_Source\PSoC6\pdl\drivers\peripheral\wdt/cy_wdt.h **** #include "cy_device_headers.h"
 190:Generated_Source\PSoC6\pdl\drivers\peripheral\wdt/cy_wdt.h **** 
 191:Generated_Source\PSoC6\pdl\drivers\peripheral\wdt/cy_wdt.h **** 
 192:Generated_Source\PSoC6\pdl\drivers\peripheral\wdt/cy_wdt.h **** #if defined(__cplusplus)
 193:Generated_Source\PSoC6\pdl\drivers\peripheral\wdt/cy_wdt.h **** extern "C" {
 194:Generated_Source\PSoC6\pdl\drivers\peripheral\wdt/cy_wdt.h **** #endif
 195:Generated_Source\PSoC6\pdl\drivers\peripheral\wdt/cy_wdt.h **** 
 196:Generated_Source\PSoC6\pdl\drivers\peripheral\wdt/cy_wdt.h **** 
 197:Generated_Source\PSoC6\pdl\drivers\peripheral\wdt/cy_wdt.h **** /*******************************************************************************
 198:Generated_Source\PSoC6\pdl\drivers\peripheral\wdt/cy_wdt.h **** *       Function Constants
 199:Generated_Source\PSoC6\pdl\drivers\peripheral\wdt/cy_wdt.h **** *******************************************************************************/
 200:Generated_Source\PSoC6\pdl\drivers\peripheral\wdt/cy_wdt.h **** 
 201:Generated_Source\PSoC6\pdl\drivers\peripheral\wdt/cy_wdt.h **** /**
 202:Generated_Source\PSoC6\pdl\drivers\peripheral\wdt/cy_wdt.h **** * \addtogroup group_wdt_macros
 203:Generated_Source\PSoC6\pdl\drivers\peripheral\wdt/cy_wdt.h **** * \{
 204:Generated_Source\PSoC6\pdl\drivers\peripheral\wdt/cy_wdt.h **** */
 205:Generated_Source\PSoC6\pdl\drivers\peripheral\wdt/cy_wdt.h **** 
 206:Generated_Source\PSoC6\pdl\drivers\peripheral\wdt/cy_wdt.h **** /** The driver major version */
 207:Generated_Source\PSoC6\pdl\drivers\peripheral\wdt/cy_wdt.h **** #define CY_WDT_DRV_VERSION_MAJOR                       1
 208:Generated_Source\PSoC6\pdl\drivers\peripheral\wdt/cy_wdt.h **** 
 209:Generated_Source\PSoC6\pdl\drivers\peripheral\wdt/cy_wdt.h **** /** The driver minor version */
 210:Generated_Source\PSoC6\pdl\drivers\peripheral\wdt/cy_wdt.h **** #define CY_WDT_DRV_VERSION_MINOR                       0
 211:Generated_Source\PSoC6\pdl\drivers\peripheral\wdt/cy_wdt.h **** 
 212:Generated_Source\PSoC6\pdl\drivers\peripheral\wdt/cy_wdt.h **** /** The internal define for the first iteration of WDT unlocking */
 213:Generated_Source\PSoC6\pdl\drivers\peripheral\wdt/cy_wdt.h **** #define CY_SRSS_WDT_LOCK_BIT0                           ((uint32_t)0x01u << 30u)
 214:Generated_Source\PSoC6\pdl\drivers\peripheral\wdt/cy_wdt.h **** 
 215:Generated_Source\PSoC6\pdl\drivers\peripheral\wdt/cy_wdt.h **** /** The internal define for the second iteration of WDT unlocking */
 216:Generated_Source\PSoC6\pdl\drivers\peripheral\wdt/cy_wdt.h **** #define CY_SRSS_WDT_LOCK_BIT1                           ((uint32_t)0x01u << 31u)
 217:Generated_Source\PSoC6\pdl\drivers\peripheral\wdt/cy_wdt.h **** 
 218:Generated_Source\PSoC6\pdl\drivers\peripheral\wdt/cy_wdt.h **** /** The WDT default match value */
 219:Generated_Source\PSoC6\pdl\drivers\peripheral\wdt/cy_wdt.h **** #define CY_SRSS_WDT_DEFAULT_MATCH_VALUE                 ((uint32_t) 4096u)
 220:Generated_Source\PSoC6\pdl\drivers\peripheral\wdt/cy_wdt.h **** 
ARM GAS  C:\Users\gjl\AppData\Local\Temp\ccIHxLe8.s 			page 12


 221:Generated_Source\PSoC6\pdl\drivers\peripheral\wdt/cy_wdt.h **** /** The default match value of the WDT ignore bits */
 222:Generated_Source\PSoC6\pdl\drivers\peripheral\wdt/cy_wdt.h **** #define CY_SRSS_WDT_DEFAULT_IGNORE_BITS                 (0u)
 223:Generated_Source\PSoC6\pdl\drivers\peripheral\wdt/cy_wdt.h **** 
 224:Generated_Source\PSoC6\pdl\drivers\peripheral\wdt/cy_wdt.h **** /** The default match value of the WDT ignore bits */
 225:Generated_Source\PSoC6\pdl\drivers\peripheral\wdt/cy_wdt.h **** #define CY_SRSS_WDT_LOCK_BITS                           (3u)
 226:Generated_Source\PSoC6\pdl\drivers\peripheral\wdt/cy_wdt.h **** 
 227:Generated_Source\PSoC6\pdl\drivers\peripheral\wdt/cy_wdt.h **** /** The WDT driver identifier */
 228:Generated_Source\PSoC6\pdl\drivers\peripheral\wdt/cy_wdt.h **** #define CY_WDT_ID                                       CY_PDL_DRV_ID(0x34u)
 229:Generated_Source\PSoC6\pdl\drivers\peripheral\wdt/cy_wdt.h **** 
 230:Generated_Source\PSoC6\pdl\drivers\peripheral\wdt/cy_wdt.h **** /** \} group_wdt_macros */
 231:Generated_Source\PSoC6\pdl\drivers\peripheral\wdt/cy_wdt.h **** 
 232:Generated_Source\PSoC6\pdl\drivers\peripheral\wdt/cy_wdt.h **** 
 233:Generated_Source\PSoC6\pdl\drivers\peripheral\wdt/cy_wdt.h **** /*******************************************************************************
 234:Generated_Source\PSoC6\pdl\drivers\peripheral\wdt/cy_wdt.h **** *        Function Prototypes
 235:Generated_Source\PSoC6\pdl\drivers\peripheral\wdt/cy_wdt.h **** *******************************************************************************/
 236:Generated_Source\PSoC6\pdl\drivers\peripheral\wdt/cy_wdt.h **** 
 237:Generated_Source\PSoC6\pdl\drivers\peripheral\wdt/cy_wdt.h **** /**
 238:Generated_Source\PSoC6\pdl\drivers\peripheral\wdt/cy_wdt.h **** * \addtogroup group_wdt_functions
 239:Generated_Source\PSoC6\pdl\drivers\peripheral\wdt/cy_wdt.h **** * @{
 240:Generated_Source\PSoC6\pdl\drivers\peripheral\wdt/cy_wdt.h **** */
 241:Generated_Source\PSoC6\pdl\drivers\peripheral\wdt/cy_wdt.h **** /* WDT API */
 242:Generated_Source\PSoC6\pdl\drivers\peripheral\wdt/cy_wdt.h **** void Cy_WDT_Init(void);
 243:Generated_Source\PSoC6\pdl\drivers\peripheral\wdt/cy_wdt.h **** void Cy_WDT_Lock(void);
 244:Generated_Source\PSoC6\pdl\drivers\peripheral\wdt/cy_wdt.h **** void Cy_WDT_Unlock(void);
 245:Generated_Source\PSoC6\pdl\drivers\peripheral\wdt/cy_wdt.h **** void Cy_WDT_SetMatch(uint32_t match);
 246:Generated_Source\PSoC6\pdl\drivers\peripheral\wdt/cy_wdt.h **** void Cy_WDT_SetIgnoreBits(uint32_t bitsNum);
 247:Generated_Source\PSoC6\pdl\drivers\peripheral\wdt/cy_wdt.h **** void Cy_WDT_ClearInterrupt(void);
 248:Generated_Source\PSoC6\pdl\drivers\peripheral\wdt/cy_wdt.h **** void Cy_WDT_ClearWatchdog(void);
 249:Generated_Source\PSoC6\pdl\drivers\peripheral\wdt/cy_wdt.h **** 
 250:Generated_Source\PSoC6\pdl\drivers\peripheral\wdt/cy_wdt.h **** __STATIC_INLINE void Cy_WDT_Enable(void);
 251:Generated_Source\PSoC6\pdl\drivers\peripheral\wdt/cy_wdt.h **** __STATIC_INLINE void Cy_WDT_Disable(void);
 252:Generated_Source\PSoC6\pdl\drivers\peripheral\wdt/cy_wdt.h **** __STATIC_INLINE uint32_t Cy_WDT_GetMatch(void);
 253:Generated_Source\PSoC6\pdl\drivers\peripheral\wdt/cy_wdt.h **** __STATIC_INLINE uint32_t Cy_WDT_GetCount(void);
 254:Generated_Source\PSoC6\pdl\drivers\peripheral\wdt/cy_wdt.h **** __STATIC_INLINE uint32_t Cy_WDT_GetIgnoreBits(void);
 255:Generated_Source\PSoC6\pdl\drivers\peripheral\wdt/cy_wdt.h **** __STATIC_INLINE void Cy_WDT_MaskInterrupt(void);
 256:Generated_Source\PSoC6\pdl\drivers\peripheral\wdt/cy_wdt.h **** __STATIC_INLINE void Cy_WDT_UnmaskInterrupt(void);
 257:Generated_Source\PSoC6\pdl\drivers\peripheral\wdt/cy_wdt.h **** 
 258:Generated_Source\PSoC6\pdl\drivers\peripheral\wdt/cy_wdt.h **** 
 259:Generated_Source\PSoC6\pdl\drivers\peripheral\wdt/cy_wdt.h **** /*******************************************************************************
 260:Generated_Source\PSoC6\pdl\drivers\peripheral\wdt/cy_wdt.h **** * Function Name: Cy_WDT_Enable
 261:Generated_Source\PSoC6\pdl\drivers\peripheral\wdt/cy_wdt.h **** ****************************************************************************//**
 262:Generated_Source\PSoC6\pdl\drivers\peripheral\wdt/cy_wdt.h **** *
 263:Generated_Source\PSoC6\pdl\drivers\peripheral\wdt/cy_wdt.h **** * Enables the Watchdog timer.
 264:Generated_Source\PSoC6\pdl\drivers\peripheral\wdt/cy_wdt.h **** *
 265:Generated_Source\PSoC6\pdl\drivers\peripheral\wdt/cy_wdt.h **** *******************************************************************************/
 266:Generated_Source\PSoC6\pdl\drivers\peripheral\wdt/cy_wdt.h **** __STATIC_INLINE void Cy_WDT_Enable(void)
 267:Generated_Source\PSoC6\pdl\drivers\peripheral\wdt/cy_wdt.h **** {
 268:Generated_Source\PSoC6\pdl\drivers\peripheral\wdt/cy_wdt.h ****     SRSS->WDT_CTL |= _VAL2FLD(SRSS_WDT_CTL_WDT_EN, 1u);
 269:Generated_Source\PSoC6\pdl\drivers\peripheral\wdt/cy_wdt.h **** }
 270:Generated_Source\PSoC6\pdl\drivers\peripheral\wdt/cy_wdt.h **** 
 271:Generated_Source\PSoC6\pdl\drivers\peripheral\wdt/cy_wdt.h **** 
 272:Generated_Source\PSoC6\pdl\drivers\peripheral\wdt/cy_wdt.h **** /*******************************************************************************
 273:Generated_Source\PSoC6\pdl\drivers\peripheral\wdt/cy_wdt.h **** * Function Name: Cy_WDT_Disable
 274:Generated_Source\PSoC6\pdl\drivers\peripheral\wdt/cy_wdt.h **** ****************************************************************************//**
 275:Generated_Source\PSoC6\pdl\drivers\peripheral\wdt/cy_wdt.h **** *
 276:Generated_Source\PSoC6\pdl\drivers\peripheral\wdt/cy_wdt.h **** * Disables the Watchdog timer. The Watchdog timer should be unlocked before being
 277:Generated_Source\PSoC6\pdl\drivers\peripheral\wdt/cy_wdt.h **** * disabled. Call the Cy_WDT_Unlock() API to unlock the WDT.
ARM GAS  C:\Users\gjl\AppData\Local\Temp\ccIHxLe8.s 			page 13


 278:Generated_Source\PSoC6\pdl\drivers\peripheral\wdt/cy_wdt.h **** *
 279:Generated_Source\PSoC6\pdl\drivers\peripheral\wdt/cy_wdt.h **** *******************************************************************************/
 280:Generated_Source\PSoC6\pdl\drivers\peripheral\wdt/cy_wdt.h **** __STATIC_INLINE void Cy_WDT_Disable(void)
 281:Generated_Source\PSoC6\pdl\drivers\peripheral\wdt/cy_wdt.h **** {
 282:Generated_Source\PSoC6\pdl\drivers\peripheral\wdt/cy_wdt.h ****     SRSS->WDT_CTL &= ((uint32_t) ~(_VAL2FLD(SRSS_WDT_CTL_WDT_EN, 1u)));
 238              		.loc 2 282 0
 239 0026 D3F88021 		ldr	r2, [r3, #384]
 240 002a 22F00102 		bic	r2, r2, #1
 241 002e C3F88021 		str	r2, [r3, #384]
 242              	.LBE5:
 243              	.LBE4:
  50:Generated_Source\PSoC6\pdl\drivers\peripheral\wdt/cy_wdt.c **** 
 244              		.loc 1 50 0
 245 0032 4FF48050 		mov	r0, #4096
 246              	.LVL12:
 247 0036 FFF7FEFF 		bl	Cy_WDT_SetMatch
 248              	.LVL13:
  52:Generated_Source\PSoC6\pdl\drivers\peripheral\wdt/cy_wdt.c **** 
 249              		.loc 1 52 0
 250 003a 0020     		movs	r0, #0
 251 003c FFF7FEFF 		bl	Cy_WDT_SetIgnoreBits
 252              	.LVL14:
  54:Generated_Source\PSoC6\pdl\drivers\peripheral\wdt/cy_wdt.c **** }
 253              		.loc 1 54 0
 254 0040 2046     		mov	r0, r4
 255 0042 FFF7FEFF 		bl	Cy_SysLib_ExitCriticalSection
 256              	.LVL15:
 257 0046 10BD     		pop	{r4, pc}
 258              	.LVL16:
 259              	.L25:
 260              		.align	2
 261              	.L24:
 262 0048 00002640 		.word	1076232192
 263              		.cfi_endproc
 264              	.LFE132:
 265              		.size	Cy_WDT_Init, .-Cy_WDT_Init
 266              		.section	.text.Cy_WDT_ClearInterrupt,"ax",%progbits
 267              		.align	2
 268              		.global	Cy_WDT_ClearInterrupt
 269              		.thumb
 270              		.thumb_func
 271              		.type	Cy_WDT_ClearInterrupt, %function
 272              	Cy_WDT_ClearInterrupt:
 273              	.LFB138:
 163:Generated_Source\PSoC6\pdl\drivers\peripheral\wdt/cy_wdt.c ****     }
 164:Generated_Source\PSoC6\pdl\drivers\peripheral\wdt/cy_wdt.c **** }
 165:Generated_Source\PSoC6\pdl\drivers\peripheral\wdt/cy_wdt.c **** 
 166:Generated_Source\PSoC6\pdl\drivers\peripheral\wdt/cy_wdt.c **** 
 167:Generated_Source\PSoC6\pdl\drivers\peripheral\wdt/cy_wdt.c **** /*******************************************************************************
 168:Generated_Source\PSoC6\pdl\drivers\peripheral\wdt/cy_wdt.c **** * Function Name: Cy_WDT_ClearInterrupt
 169:Generated_Source\PSoC6\pdl\drivers\peripheral\wdt/cy_wdt.c **** ****************************************************************************//**
 170:Generated_Source\PSoC6\pdl\drivers\peripheral\wdt/cy_wdt.c **** *
 171:Generated_Source\PSoC6\pdl\drivers\peripheral\wdt/cy_wdt.c **** * Clears the WDT match flag which is set every time the WDT counter reaches a 
 172:Generated_Source\PSoC6\pdl\drivers\peripheral\wdt/cy_wdt.c **** * WDT match value. Two unserviced interrupts lead to a system reset 
 173:Generated_Source\PSoC6\pdl\drivers\peripheral\wdt/cy_wdt.c **** * (i.e. at the third match).
 174:Generated_Source\PSoC6\pdl\drivers\peripheral\wdt/cy_wdt.c **** *
 175:Generated_Source\PSoC6\pdl\drivers\peripheral\wdt/cy_wdt.c **** *******************************************************************************/
ARM GAS  C:\Users\gjl\AppData\Local\Temp\ccIHxLe8.s 			page 14


 176:Generated_Source\PSoC6\pdl\drivers\peripheral\wdt/cy_wdt.c **** void Cy_WDT_ClearInterrupt(void)
 177:Generated_Source\PSoC6\pdl\drivers\peripheral\wdt/cy_wdt.c **** {
 274              		.loc 1 177 0
 275              		.cfi_startproc
 276              		@ args = 0, pretend = 0, frame = 0
 277              		@ frame_needed = 0, uses_anonymous_args = 0
 278              		@ link register save eliminated.
 178:Generated_Source\PSoC6\pdl\drivers\peripheral\wdt/cy_wdt.c ****     SRSS->SRSS_INTR = _VAL2FLD(SRSS_SRSS_INTR_WDT_MATCH, 1u);
 279              		.loc 1 178 0
 280 0000 034B     		ldr	r3, .L27
 281 0002 0122     		movs	r2, #1
 282 0004 C3F80027 		str	r2, [r3, #1792]
 179:Generated_Source\PSoC6\pdl\drivers\peripheral\wdt/cy_wdt.c **** 
 180:Generated_Source\PSoC6\pdl\drivers\peripheral\wdt/cy_wdt.c ****     /* Read the interrupt register to ensure that the initial clearing write has
 181:Generated_Source\PSoC6\pdl\drivers\peripheral\wdt/cy_wdt.c ****     * been flushed out to the hardware.
 182:Generated_Source\PSoC6\pdl\drivers\peripheral\wdt/cy_wdt.c ****     */
 183:Generated_Source\PSoC6\pdl\drivers\peripheral\wdt/cy_wdt.c ****     (void) SRSS->SRSS_INTR;
 283              		.loc 1 183 0
 284 0008 D3F80037 		ldr	r3, [r3, #1792]
 285 000c 7047     		bx	lr
 286              	.L28:
 287 000e 00BF     		.align	2
 288              	.L27:
 289 0010 00002640 		.word	1076232192
 290              		.cfi_endproc
 291              	.LFE138:
 292              		.size	Cy_WDT_ClearInterrupt, .-Cy_WDT_ClearInterrupt
 293              		.section	.text.Cy_WDT_ClearWatchdog,"ax",%progbits
 294              		.align	2
 295              		.global	Cy_WDT_ClearWatchdog
 296              		.thumb
 297              		.thumb_func
 298              		.type	Cy_WDT_ClearWatchdog, %function
 299              	Cy_WDT_ClearWatchdog:
 300              	.LFB139:
 184:Generated_Source\PSoC6\pdl\drivers\peripheral\wdt/cy_wdt.c **** }
 185:Generated_Source\PSoC6\pdl\drivers\peripheral\wdt/cy_wdt.c **** 
 186:Generated_Source\PSoC6\pdl\drivers\peripheral\wdt/cy_wdt.c **** 
 187:Generated_Source\PSoC6\pdl\drivers\peripheral\wdt/cy_wdt.c **** /*******************************************************************************
 188:Generated_Source\PSoC6\pdl\drivers\peripheral\wdt/cy_wdt.c **** * Function Name: Cy_WDT_ClearWatchdog
 189:Generated_Source\PSoC6\pdl\drivers\peripheral\wdt/cy_wdt.c **** ****************************************************************************//**
 190:Generated_Source\PSoC6\pdl\drivers\peripheral\wdt/cy_wdt.c **** *
 191:Generated_Source\PSoC6\pdl\drivers\peripheral\wdt/cy_wdt.c **** * Clears ("feeds") the watchdog, to prevent a XRES device reset.
 192:Generated_Source\PSoC6\pdl\drivers\peripheral\wdt/cy_wdt.c **** * This function simply call Cy_WDT_ClearInterrupt() function.
 193:Generated_Source\PSoC6\pdl\drivers\peripheral\wdt/cy_wdt.c **** *
 194:Generated_Source\PSoC6\pdl\drivers\peripheral\wdt/cy_wdt.c **** *******************************************************************************/
 195:Generated_Source\PSoC6\pdl\drivers\peripheral\wdt/cy_wdt.c **** void Cy_WDT_ClearWatchdog(void)
 196:Generated_Source\PSoC6\pdl\drivers\peripheral\wdt/cy_wdt.c **** {
 301              		.loc 1 196 0
 302              		.cfi_startproc
 303              		@ args = 0, pretend = 0, frame = 0
 304              		@ frame_needed = 0, uses_anonymous_args = 0
 305 0000 08B5     		push	{r3, lr}
 306              		.cfi_def_cfa_offset 8
 307              		.cfi_offset 3, -8
 308              		.cfi_offset 14, -4
 197:Generated_Source\PSoC6\pdl\drivers\peripheral\wdt/cy_wdt.c ****     Cy_WDT_ClearInterrupt();
ARM GAS  C:\Users\gjl\AppData\Local\Temp\ccIHxLe8.s 			page 15


 309              		.loc 1 197 0
 310 0002 FFF7FEFF 		bl	Cy_WDT_ClearInterrupt
 311              	.LVL17:
 312 0006 08BD     		pop	{r3, pc}
 313              		.cfi_endproc
 314              	.LFE139:
 315              		.size	Cy_WDT_ClearWatchdog, .-Cy_WDT_ClearWatchdog
 316              		.text
 317              	.Letext0:
 318              		.file 3 "c:\\program files (x86)\\cypress\\psoc creator\\4.2\\psoc creator\\import\\gnu\\arm\\5.4.
 319              		.file 4 "c:\\program files (x86)\\cypress\\psoc creator\\4.2\\psoc creator\\import\\gnu\\arm\\5.4.
 320              		.file 5 "Generated_Source\\PSoC6\\pdl\\devices/psoc6/ip/cyip_srss.h"
 321              		.file 6 "Generated_Source\\PSoC6\\pdl\\drivers/peripheral/syslib/cy_syslib.h"
 322              		.file 7 "Generated_Source\\PSoC6\\pdl\\cmsis/include/core_cm4.h"