ARM GAS  C:\Users\gjl\AppData\Local\Temp\cckcOS93.s 			page 1


   1              		.syntax unified
   2              		.cpu cortex-m4
   3              		.eabi_attribute 27, 1
   4              		.fpu fpv4-sp-d16
   5              		.eabi_attribute 20, 1
   6              		.eabi_attribute 21, 1
   7              		.eabi_attribute 23, 3
   8              		.eabi_attribute 24, 1
   9              		.eabi_attribute 25, 1
  10              		.eabi_attribute 26, 1
  11              		.eabi_attribute 30, 1
  12              		.eabi_attribute 34, 1
  13              		.eabi_attribute 18, 4
  14              		.thumb
  15              		.syntax unified
  16              		.file	"cy_ctb.c"
  17              		.text
  18              	.Ltext0:
  19              		.cfi_sections	.debug_frame
  20              		.section	.text.Cy_CTB_Init,"ax",%progbits
  21              		.align	2
  22              		.global	Cy_CTB_Init
  23              		.thumb
  24              		.thumb_func
  25              		.type	Cy_CTB_Init, %function
  26              	Cy_CTB_Init:
  27              	.LFB182:
  28              		.file 1 "Generated_Source\\PSoC6\\pdl\\drivers\\peripheral\\ctb\\cy_ctb.c"
   1:Generated_Source\PSoC6\pdl\drivers\peripheral\ctb/cy_ctb.c **** /***************************************************************************//**
   2:Generated_Source\PSoC6\pdl\drivers\peripheral\ctb/cy_ctb.c **** * \file cy_ctb.c
   3:Generated_Source\PSoC6\pdl\drivers\peripheral\ctb/cy_ctb.c **** * \version 1.0
   4:Generated_Source\PSoC6\pdl\drivers\peripheral\ctb/cy_ctb.c **** *
   5:Generated_Source\PSoC6\pdl\drivers\peripheral\ctb/cy_ctb.c **** * \brief
   6:Generated_Source\PSoC6\pdl\drivers\peripheral\ctb/cy_ctb.c **** * Provides the public functions for the CTB driver.
   7:Generated_Source\PSoC6\pdl\drivers\peripheral\ctb/cy_ctb.c **** *
   8:Generated_Source\PSoC6\pdl\drivers\peripheral\ctb/cy_ctb.c **** ********************************************************************************
   9:Generated_Source\PSoC6\pdl\drivers\peripheral\ctb/cy_ctb.c **** * \copyright
  10:Generated_Source\PSoC6\pdl\drivers\peripheral\ctb/cy_ctb.c **** * Copyright 2017-2018, Cypress Semiconductor Corporation. All rights reserved.
  11:Generated_Source\PSoC6\pdl\drivers\peripheral\ctb/cy_ctb.c **** * You may use this file only in accordance with the license, terms, conditions,
  12:Generated_Source\PSoC6\pdl\drivers\peripheral\ctb/cy_ctb.c **** * disclaimers, and limitations in the end user license agreement accompanying
  13:Generated_Source\PSoC6\pdl\drivers\peripheral\ctb/cy_ctb.c **** * the software package with which this file was provided.
  14:Generated_Source\PSoC6\pdl\drivers\peripheral\ctb/cy_ctb.c **** *******************************************************************************/
  15:Generated_Source\PSoC6\pdl\drivers\peripheral\ctb/cy_ctb.c **** 
  16:Generated_Source\PSoC6\pdl\drivers\peripheral\ctb/cy_ctb.c **** #include "ctb/cy_ctb.h"
  17:Generated_Source\PSoC6\pdl\drivers\peripheral\ctb/cy_ctb.c **** 
  18:Generated_Source\PSoC6\pdl\drivers\peripheral\ctb/cy_ctb.c **** #if defined(__cplusplus)
  19:Generated_Source\PSoC6\pdl\drivers\peripheral\ctb/cy_ctb.c **** extern "C" {
  20:Generated_Source\PSoC6\pdl\drivers\peripheral\ctb/cy_ctb.c **** #endif
  21:Generated_Source\PSoC6\pdl\drivers\peripheral\ctb/cy_ctb.c **** 
  22:Generated_Source\PSoC6\pdl\drivers\peripheral\ctb/cy_ctb.c **** /***************************************
  23:Generated_Source\PSoC6\pdl\drivers\peripheral\ctb/cy_ctb.c **** *       Fast Config Selections
  24:Generated_Source\PSoC6\pdl\drivers\peripheral\ctb/cy_ctb.c **** ***************************************/
  25:Generated_Source\PSoC6\pdl\drivers\peripheral\ctb/cy_ctb.c **** const cy_stc_ctb_fast_config_oa0_t Cy_CTB_Fast_Opamp0_Unused =
  26:Generated_Source\PSoC6\pdl\drivers\peripheral\ctb/cy_ctb.c **** {
  27:Generated_Source\PSoC6\pdl\drivers\peripheral\ctb/cy_ctb.c ****     /*.oa0Power        */ CY_CTB_POWER_OFF,
  28:Generated_Source\PSoC6\pdl\drivers\peripheral\ctb/cy_ctb.c ****     /*.oa0Mode         */ CY_CTB_MODE_OPAMP1X,
  29:Generated_Source\PSoC6\pdl\drivers\peripheral\ctb/cy_ctb.c ****     /*.oa0SwitchCtrl   */ CY_CTB_DEINIT,
ARM GAS  C:\Users\gjl\AppData\Local\Temp\cckcOS93.s 			page 2


  30:Generated_Source\PSoC6\pdl\drivers\peripheral\ctb/cy_ctb.c ****     /*.ctdSwitchCtrl   */ CY_CTB_DEINIT,
  31:Generated_Source\PSoC6\pdl\drivers\peripheral\ctb/cy_ctb.c **** };
  32:Generated_Source\PSoC6\pdl\drivers\peripheral\ctb/cy_ctb.c **** 
  33:Generated_Source\PSoC6\pdl\drivers\peripheral\ctb/cy_ctb.c **** const cy_stc_ctb_fast_config_oa0_t Cy_CTB_Fast_Opamp0_Comp =
  34:Generated_Source\PSoC6\pdl\drivers\peripheral\ctb/cy_ctb.c **** {
  35:Generated_Source\PSoC6\pdl\drivers\peripheral\ctb/cy_ctb.c ****     /*.oa0Power        */ CY_CTB_POWER_MEDIUM,
  36:Generated_Source\PSoC6\pdl\drivers\peripheral\ctb/cy_ctb.c ****     /*.oa0Mode         */ CY_CTB_MODE_COMP,
  37:Generated_Source\PSoC6\pdl\drivers\peripheral\ctb/cy_ctb.c ****     /*.oa0SwitchCtrl   */ CY_CTB_DEINIT,
  38:Generated_Source\PSoC6\pdl\drivers\peripheral\ctb/cy_ctb.c ****     /*.ctdSwitchCtrl   */ CY_CTB_DEINIT,
  39:Generated_Source\PSoC6\pdl\drivers\peripheral\ctb/cy_ctb.c **** };
  40:Generated_Source\PSoC6\pdl\drivers\peripheral\ctb/cy_ctb.c **** 
  41:Generated_Source\PSoC6\pdl\drivers\peripheral\ctb/cy_ctb.c **** const cy_stc_ctb_fast_config_oa0_t Cy_CTB_Fast_Opamp0_Opamp1x =
  42:Generated_Source\PSoC6\pdl\drivers\peripheral\ctb/cy_ctb.c **** {
  43:Generated_Source\PSoC6\pdl\drivers\peripheral\ctb/cy_ctb.c ****     /*.oa0Power        */ CY_CTB_POWER_MEDIUM,
  44:Generated_Source\PSoC6\pdl\drivers\peripheral\ctb/cy_ctb.c ****     /*.oa0Mode         */ CY_CTB_MODE_OPAMP1X,
  45:Generated_Source\PSoC6\pdl\drivers\peripheral\ctb/cy_ctb.c ****     /*.oa0SwitchCtrl   */ CY_CTB_DEINIT,
  46:Generated_Source\PSoC6\pdl\drivers\peripheral\ctb/cy_ctb.c ****     /*.ctdSwitchCtrl   */ CY_CTB_DEINIT,
  47:Generated_Source\PSoC6\pdl\drivers\peripheral\ctb/cy_ctb.c **** };
  48:Generated_Source\PSoC6\pdl\drivers\peripheral\ctb/cy_ctb.c **** 
  49:Generated_Source\PSoC6\pdl\drivers\peripheral\ctb/cy_ctb.c **** const cy_stc_ctb_fast_config_oa0_t Cy_CTB_Fast_Opamp0_Opamp10x =
  50:Generated_Source\PSoC6\pdl\drivers\peripheral\ctb/cy_ctb.c **** {
  51:Generated_Source\PSoC6\pdl\drivers\peripheral\ctb/cy_ctb.c ****     /*.oa0Power        */ CY_CTB_POWER_MEDIUM,
  52:Generated_Source\PSoC6\pdl\drivers\peripheral\ctb/cy_ctb.c ****     /*.oa0Mode         */ CY_CTB_MODE_OPAMP10X,
  53:Generated_Source\PSoC6\pdl\drivers\peripheral\ctb/cy_ctb.c ****     /*.oa0SwitchCtrl   */ CY_CTB_DEINIT,
  54:Generated_Source\PSoC6\pdl\drivers\peripheral\ctb/cy_ctb.c ****     /*.ctdSwitchCtrl   */ CY_CTB_DEINIT,
  55:Generated_Source\PSoC6\pdl\drivers\peripheral\ctb/cy_ctb.c **** };
  56:Generated_Source\PSoC6\pdl\drivers\peripheral\ctb/cy_ctb.c **** 
  57:Generated_Source\PSoC6\pdl\drivers\peripheral\ctb/cy_ctb.c **** const cy_stc_ctb_fast_config_oa0_t Cy_CTB_Fast_Opamp0_Diffamp =
  58:Generated_Source\PSoC6\pdl\drivers\peripheral\ctb/cy_ctb.c **** {
  59:Generated_Source\PSoC6\pdl\drivers\peripheral\ctb/cy_ctb.c ****     /*.oa0Power        */ CY_CTB_POWER_MEDIUM,
  60:Generated_Source\PSoC6\pdl\drivers\peripheral\ctb/cy_ctb.c ****     /*.oa0Mode         */ CY_CTB_MODE_OPAMP10X,
  61:Generated_Source\PSoC6\pdl\drivers\peripheral\ctb/cy_ctb.c ****     /*.oa0SwitchCtrl   */ (uint32_t) CY_CTB_SW_OA0_POS_PIN0_MASK | (uint32_t) CY_CTB_SW_OA0_NEG_PIN
  62:Generated_Source\PSoC6\pdl\drivers\peripheral\ctb/cy_ctb.c ****     /*.ctdSwitchCtrl   */ (uint32_t) CY_CTB_SW_CTD_CHOLD_OA0_POS_ISOLATE_MASK,
  63:Generated_Source\PSoC6\pdl\drivers\peripheral\ctb/cy_ctb.c **** };
  64:Generated_Source\PSoC6\pdl\drivers\peripheral\ctb/cy_ctb.c **** 
  65:Generated_Source\PSoC6\pdl\drivers\peripheral\ctb/cy_ctb.c **** const cy_stc_ctb_fast_config_oa0_t Cy_CTB_Fast_Opamp0_Vdac_Out =
  66:Generated_Source\PSoC6\pdl\drivers\peripheral\ctb/cy_ctb.c **** {
  67:Generated_Source\PSoC6\pdl\drivers\peripheral\ctb/cy_ctb.c ****     /*.oa0Power        */ CY_CTB_POWER_MEDIUM,
  68:Generated_Source\PSoC6\pdl\drivers\peripheral\ctb/cy_ctb.c ****     /*.oa0Mode         */ CY_CTB_MODE_OPAMP10X,
  69:Generated_Source\PSoC6\pdl\drivers\peripheral\ctb/cy_ctb.c ****     /*.oa0SwitchCtrl   */ (uint32_t) CY_CTB_SW_OA0_NEG_OUT_MASK | (uint32_t) CY_CTB_SW_OA0_OUT_SHOR
  70:Generated_Source\PSoC6\pdl\drivers\peripheral\ctb/cy_ctb.c ****     /*.ctdSwitchCtrl   */ (uint32_t) CY_CTB_SW_CTD_OUT_CHOLD_MASK | (uint32_t) CY_CTB_SW_CTD_CHOLD_
  71:Generated_Source\PSoC6\pdl\drivers\peripheral\ctb/cy_ctb.c **** };
  72:Generated_Source\PSoC6\pdl\drivers\peripheral\ctb/cy_ctb.c **** 
  73:Generated_Source\PSoC6\pdl\drivers\peripheral\ctb/cy_ctb.c **** const cy_stc_ctb_fast_config_oa0_t Cy_CTB_Fast_Opamp0_Vdac_Out_SH =
  74:Generated_Source\PSoC6\pdl\drivers\peripheral\ctb/cy_ctb.c **** {
  75:Generated_Source\PSoC6\pdl\drivers\peripheral\ctb/cy_ctb.c ****     /*.oa0Power        */ CY_CTB_POWER_MEDIUM,
  76:Generated_Source\PSoC6\pdl\drivers\peripheral\ctb/cy_ctb.c ****     /*.oa0Mode         */ CY_CTB_MODE_OPAMP10X,
  77:Generated_Source\PSoC6\pdl\drivers\peripheral\ctb/cy_ctb.c ****     /*.oa0SwitchCtrl   */ (uint32_t) CY_CTB_SW_OA0_NEG_OUT_MASK | (uint32_t) CY_CTB_SW_OA0_OUT_SHOR
  78:Generated_Source\PSoC6\pdl\drivers\peripheral\ctb/cy_ctb.c ****     /*.ctdSwitchCtrl   */ (uint32_t) CY_CTB_SW_CTD_OUT_CHOLD_MASK | (uint32_t) CY_CTB_SW_CTD_CHOLD_
  79:Generated_Source\PSoC6\pdl\drivers\peripheral\ctb/cy_ctb.c **** };
  80:Generated_Source\PSoC6\pdl\drivers\peripheral\ctb/cy_ctb.c **** 
  81:Generated_Source\PSoC6\pdl\drivers\peripheral\ctb/cy_ctb.c **** const cy_stc_ctb_fast_config_oa1_t Cy_CTB_Fast_Opamp1_Unused =
  82:Generated_Source\PSoC6\pdl\drivers\peripheral\ctb/cy_ctb.c **** {
  83:Generated_Source\PSoC6\pdl\drivers\peripheral\ctb/cy_ctb.c ****     /*.oa1Power        */ CY_CTB_POWER_OFF,
  84:Generated_Source\PSoC6\pdl\drivers\peripheral\ctb/cy_ctb.c ****     /*.oa1Mode         */ CY_CTB_MODE_OPAMP1X,
  85:Generated_Source\PSoC6\pdl\drivers\peripheral\ctb/cy_ctb.c ****     /*.oa1SwitchCtrl   */ CY_CTB_DEINIT,
  86:Generated_Source\PSoC6\pdl\drivers\peripheral\ctb/cy_ctb.c ****     /*.ctdSwitchCtrl   */ CY_CTB_DEINIT,
ARM GAS  C:\Users\gjl\AppData\Local\Temp\cckcOS93.s 			page 3


  87:Generated_Source\PSoC6\pdl\drivers\peripheral\ctb/cy_ctb.c **** };
  88:Generated_Source\PSoC6\pdl\drivers\peripheral\ctb/cy_ctb.c **** 
  89:Generated_Source\PSoC6\pdl\drivers\peripheral\ctb/cy_ctb.c **** const cy_stc_ctb_fast_config_oa1_t Cy_CTB_Fast_Opamp1_Comp =
  90:Generated_Source\PSoC6\pdl\drivers\peripheral\ctb/cy_ctb.c **** {
  91:Generated_Source\PSoC6\pdl\drivers\peripheral\ctb/cy_ctb.c ****     /*.oa1Power        */ CY_CTB_POWER_MEDIUM,
  92:Generated_Source\PSoC6\pdl\drivers\peripheral\ctb/cy_ctb.c ****     /*.oa1Mode         */ CY_CTB_MODE_COMP,
  93:Generated_Source\PSoC6\pdl\drivers\peripheral\ctb/cy_ctb.c ****     /*.oa1SwitchCtrl   */ CY_CTB_DEINIT,
  94:Generated_Source\PSoC6\pdl\drivers\peripheral\ctb/cy_ctb.c ****     /*.ctdSwitchCtrl   */ CY_CTB_DEINIT,
  95:Generated_Source\PSoC6\pdl\drivers\peripheral\ctb/cy_ctb.c **** };
  96:Generated_Source\PSoC6\pdl\drivers\peripheral\ctb/cy_ctb.c **** 
  97:Generated_Source\PSoC6\pdl\drivers\peripheral\ctb/cy_ctb.c **** const cy_stc_ctb_fast_config_oa1_t Cy_CTB_Fast_Opamp1_Opamp1x =
  98:Generated_Source\PSoC6\pdl\drivers\peripheral\ctb/cy_ctb.c **** {
  99:Generated_Source\PSoC6\pdl\drivers\peripheral\ctb/cy_ctb.c ****     /*.oa1Power        */ CY_CTB_POWER_MEDIUM,
 100:Generated_Source\PSoC6\pdl\drivers\peripheral\ctb/cy_ctb.c ****     /*.oa1Mode         */ CY_CTB_MODE_OPAMP1X,
 101:Generated_Source\PSoC6\pdl\drivers\peripheral\ctb/cy_ctb.c ****     /*.oa1SwitchCtrl   */ CY_CTB_DEINIT,
 102:Generated_Source\PSoC6\pdl\drivers\peripheral\ctb/cy_ctb.c ****     /*.ctdSwitchCtrl   */ CY_CTB_DEINIT,
 103:Generated_Source\PSoC6\pdl\drivers\peripheral\ctb/cy_ctb.c **** };
 104:Generated_Source\PSoC6\pdl\drivers\peripheral\ctb/cy_ctb.c **** 
 105:Generated_Source\PSoC6\pdl\drivers\peripheral\ctb/cy_ctb.c **** const cy_stc_ctb_fast_config_oa1_t Cy_CTB_Fast_Opamp1_Opamp10x =
 106:Generated_Source\PSoC6\pdl\drivers\peripheral\ctb/cy_ctb.c **** {
 107:Generated_Source\PSoC6\pdl\drivers\peripheral\ctb/cy_ctb.c ****     /*.oa1Power        */ CY_CTB_POWER_MEDIUM,
 108:Generated_Source\PSoC6\pdl\drivers\peripheral\ctb/cy_ctb.c ****     /*.oa1Mode         */ CY_CTB_MODE_OPAMP10X,
 109:Generated_Source\PSoC6\pdl\drivers\peripheral\ctb/cy_ctb.c ****     /*.oa1SwitchCtrl   */ CY_CTB_DEINIT,
 110:Generated_Source\PSoC6\pdl\drivers\peripheral\ctb/cy_ctb.c ****     /*.ctdSwitchCtrl   */ CY_CTB_DEINIT,
 111:Generated_Source\PSoC6\pdl\drivers\peripheral\ctb/cy_ctb.c **** };
 112:Generated_Source\PSoC6\pdl\drivers\peripheral\ctb/cy_ctb.c **** 
 113:Generated_Source\PSoC6\pdl\drivers\peripheral\ctb/cy_ctb.c **** const cy_stc_ctb_fast_config_oa1_t Cy_CTB_Fast_Opamp1_Diffamp =
 114:Generated_Source\PSoC6\pdl\drivers\peripheral\ctb/cy_ctb.c **** {
 115:Generated_Source\PSoC6\pdl\drivers\peripheral\ctb/cy_ctb.c ****     /*.oa1Power        */ CY_CTB_POWER_MEDIUM,
 116:Generated_Source\PSoC6\pdl\drivers\peripheral\ctb/cy_ctb.c ****     /*.oa1Mode         */ CY_CTB_MODE_OPAMP10X,
 117:Generated_Source\PSoC6\pdl\drivers\peripheral\ctb/cy_ctb.c ****     /*.oa1SwitchCtrl   */ (uint32_t) CY_CTB_SW_OA1_POS_PIN7_MASK | (uint32_t) CY_CTB_SW_OA1_NEG_PIN
 118:Generated_Source\PSoC6\pdl\drivers\peripheral\ctb/cy_ctb.c ****     /*.ctdSwitchCtrl   */ CY_CTB_DEINIT,
 119:Generated_Source\PSoC6\pdl\drivers\peripheral\ctb/cy_ctb.c **** };
 120:Generated_Source\PSoC6\pdl\drivers\peripheral\ctb/cy_ctb.c **** 
 121:Generated_Source\PSoC6\pdl\drivers\peripheral\ctb/cy_ctb.c **** const cy_stc_ctb_fast_config_oa1_t Cy_CTB_Fast_Opamp1_Vdac_Ref_Aref =
 122:Generated_Source\PSoC6\pdl\drivers\peripheral\ctb/cy_ctb.c **** {
 123:Generated_Source\PSoC6\pdl\drivers\peripheral\ctb/cy_ctb.c ****     /*.oa1Power        */ CY_CTB_POWER_MEDIUM,
 124:Generated_Source\PSoC6\pdl\drivers\peripheral\ctb/cy_ctb.c ****     /*.oa1Mode         */ CY_CTB_MODE_OPAMP1X,
 125:Generated_Source\PSoC6\pdl\drivers\peripheral\ctb/cy_ctb.c ****     /*.oa1SwitchCtrl   */ (uint32_t) CY_CTB_SW_OA1_NEG_OUT_MASK | (uint32_t) CY_CTB_SW_OA1_POS_AREF
 126:Generated_Source\PSoC6\pdl\drivers\peripheral\ctb/cy_ctb.c ****     /*.ctdSwitchCtrl   */ (uint32_t) CY_CTB_SW_CTD_REF_OA1_OUT_MASK,
 127:Generated_Source\PSoC6\pdl\drivers\peripheral\ctb/cy_ctb.c **** };
 128:Generated_Source\PSoC6\pdl\drivers\peripheral\ctb/cy_ctb.c **** 
 129:Generated_Source\PSoC6\pdl\drivers\peripheral\ctb/cy_ctb.c **** const cy_stc_ctb_fast_config_oa1_t Cy_CTB_Fast_Opamp1_Vdac_Ref_Pin5 =
 130:Generated_Source\PSoC6\pdl\drivers\peripheral\ctb/cy_ctb.c **** {
 131:Generated_Source\PSoC6\pdl\drivers\peripheral\ctb/cy_ctb.c ****     /*.oa1Power        */ CY_CTB_POWER_MEDIUM,
 132:Generated_Source\PSoC6\pdl\drivers\peripheral\ctb/cy_ctb.c ****     /*.oa1Mode         */ CY_CTB_MODE_OPAMP1X,
 133:Generated_Source\PSoC6\pdl\drivers\peripheral\ctb/cy_ctb.c ****     /*.oa1SwitchCtrl   */ (uint32_t) CY_CTB_SW_OA1_NEG_OUT_MASK | (uint32_t) CY_CTB_SW_OA1_POS_PIN5
 134:Generated_Source\PSoC6\pdl\drivers\peripheral\ctb/cy_ctb.c ****     /*.ctdSwitchCtrl   */ (uint32_t) CY_CTB_SW_CTD_REF_OA1_OUT_MASK,
 135:Generated_Source\PSoC6\pdl\drivers\peripheral\ctb/cy_ctb.c **** };
 136:Generated_Source\PSoC6\pdl\drivers\peripheral\ctb/cy_ctb.c **** 
 137:Generated_Source\PSoC6\pdl\drivers\peripheral\ctb/cy_ctb.c **** /*******************************************************************************
 138:Generated_Source\PSoC6\pdl\drivers\peripheral\ctb/cy_ctb.c **** * Function Name: Cy_CTB_Init
 139:Generated_Source\PSoC6\pdl\drivers\peripheral\ctb/cy_ctb.c **** ****************************************************************************//**
 140:Generated_Source\PSoC6\pdl\drivers\peripheral\ctb/cy_ctb.c **** *
 141:Generated_Source\PSoC6\pdl\drivers\peripheral\ctb/cy_ctb.c **** * Initialize or restore the CTB and both opamps according to the
 142:Generated_Source\PSoC6\pdl\drivers\peripheral\ctb/cy_ctb.c **** * provided settings. Parameters are usually set only once, at initialization.
 143:Generated_Source\PSoC6\pdl\drivers\peripheral\ctb/cy_ctb.c **** *
ARM GAS  C:\Users\gjl\AppData\Local\Temp\cckcOS93.s 			page 4


 144:Generated_Source\PSoC6\pdl\drivers\peripheral\ctb/cy_ctb.c **** * \param base
 145:Generated_Source\PSoC6\pdl\drivers\peripheral\ctb/cy_ctb.c **** * Pointer to structure describing registers
 146:Generated_Source\PSoC6\pdl\drivers\peripheral\ctb/cy_ctb.c **** *
 147:Generated_Source\PSoC6\pdl\drivers\peripheral\ctb/cy_ctb.c **** * \param config
 148:Generated_Source\PSoC6\pdl\drivers\peripheral\ctb/cy_ctb.c **** * Pointer to structure containing configuration data for entire CTB
 149:Generated_Source\PSoC6\pdl\drivers\peripheral\ctb/cy_ctb.c **** *
 150:Generated_Source\PSoC6\pdl\drivers\peripheral\ctb/cy_ctb.c **** * \return
 151:Generated_Source\PSoC6\pdl\drivers\peripheral\ctb/cy_ctb.c **** * Status of initialization, \ref CY_CTB_SUCCESS or \ref CY_CTB_BAD_PARAM
 152:Generated_Source\PSoC6\pdl\drivers\peripheral\ctb/cy_ctb.c **** *
 153:Generated_Source\PSoC6\pdl\drivers\peripheral\ctb/cy_ctb.c **** * \funcusage
 154:Generated_Source\PSoC6\pdl\drivers\peripheral\ctb/cy_ctb.c **** *
 155:Generated_Source\PSoC6\pdl\drivers\peripheral\ctb/cy_ctb.c **** * The following code snippet configures Opamp0 as a comparator
 156:Generated_Source\PSoC6\pdl\drivers\peripheral\ctb/cy_ctb.c **** * and Opamp1 as an opamp follower with 10x drive. The terminals
 157:Generated_Source\PSoC6\pdl\drivers\peripheral\ctb/cy_ctb.c **** * are routed to external pins by closing the switches shown.
 158:Generated_Source\PSoC6\pdl\drivers\peripheral\ctb/cy_ctb.c **** *
 159:Generated_Source\PSoC6\pdl\drivers\peripheral\ctb/cy_ctb.c **** * \image html ctb_init_funcusage.png
 160:Generated_Source\PSoC6\pdl\drivers\peripheral\ctb/cy_ctb.c **** * \image latex ctb_init_funcusage.png
 161:Generated_Source\PSoC6\pdl\drivers\peripheral\ctb/cy_ctb.c **** *
 162:Generated_Source\PSoC6\pdl\drivers\peripheral\ctb/cy_ctb.c **** * \snippet ctb_sut_01.cydsn/main_cm0p.c SNIPPET_CTBINIT
 163:Generated_Source\PSoC6\pdl\drivers\peripheral\ctb/cy_ctb.c **** *
 164:Generated_Source\PSoC6\pdl\drivers\peripheral\ctb/cy_ctb.c **** *******************************************************************************/
 165:Generated_Source\PSoC6\pdl\drivers\peripheral\ctb/cy_ctb.c **** cy_en_ctb_status_t Cy_CTB_Init(CTBM_Type *base, const cy_stc_ctb_config_t *config)
 166:Generated_Source\PSoC6\pdl\drivers\peripheral\ctb/cy_ctb.c **** {
  29              		.loc 1 166 0
  30              		.cfi_startproc
  31              		@ args = 0, pretend = 0, frame = 0
  32              		@ frame_needed = 0, uses_anonymous_args = 0
  33              	.LVL0:
  34 0000 38B5     		push	{r3, r4, r5, lr}
  35              		.cfi_def_cfa_offset 16
  36              		.cfi_offset 3, -16
  37              		.cfi_offset 4, -12
  38              		.cfi_offset 5, -8
  39              		.cfi_offset 14, -4
  40 0002 0C46     		mov	r4, r1
 167:Generated_Source\PSoC6\pdl\drivers\peripheral\ctb/cy_ctb.c ****     CY_ASSERT_L1(NULL != base);
  41              		.loc 1 167 0
  42 0004 0546     		mov	r5, r0
  43 0006 18B9     		cbnz	r0, .L2
  44              		.loc 1 167 0 is_stmt 0 discriminator 1
  45 0008 A721     		movs	r1, #167
  46              	.LVL1:
  47 000a 8648     		ldr	r0, .L39
  48              	.LVL2:
  49 000c FFF7FEFF 		bl	Cy_SysLib_AssertFailed
  50              	.LVL3:
  51              	.L2:
 168:Generated_Source\PSoC6\pdl\drivers\peripheral\ctb/cy_ctb.c ****     CY_ASSERT_L1(NULL != config);
  52              		.loc 1 168 0 is_stmt 1
  53 0010 1CB9     		cbnz	r4, .L3
  54              		.loc 1 168 0 is_stmt 0 discriminator 1
  55 0012 A821     		movs	r1, #168
  56 0014 8348     		ldr	r0, .L39
  57 0016 FFF7FEFF 		bl	Cy_SysLib_AssertFailed
  58              	.LVL4:
  59              	.L3:
 169:Generated_Source\PSoC6\pdl\drivers\peripheral\ctb/cy_ctb.c **** 
ARM GAS  C:\Users\gjl\AppData\Local\Temp\cckcOS93.s 			page 5


 170:Generated_Source\PSoC6\pdl\drivers\peripheral\ctb/cy_ctb.c ****     cy_en_ctb_status_t result;
 171:Generated_Source\PSoC6\pdl\drivers\peripheral\ctb/cy_ctb.c **** 
 172:Generated_Source\PSoC6\pdl\drivers\peripheral\ctb/cy_ctb.c ****     if ((NULL == base) || (NULL == config))
  60              		.loc 1 172 0 is_stmt 1
  61 001a 002D     		cmp	r5, #0
  62 001c 00F0FB80 		beq	.L29
  63              		.loc 1 172 0 is_stmt 0 discriminator 1
  64 0020 002C     		cmp	r4, #0
  65 0022 00F0FA80 		beq	.L30
 173:Generated_Source\PSoC6\pdl\drivers\peripheral\ctb/cy_ctb.c ****     {
 174:Generated_Source\PSoC6\pdl\drivers\peripheral\ctb/cy_ctb.c ****        result = CY_CTB_BAD_PARAM;
 175:Generated_Source\PSoC6\pdl\drivers\peripheral\ctb/cy_ctb.c ****     }
 176:Generated_Source\PSoC6\pdl\drivers\peripheral\ctb/cy_ctb.c ****     else
 177:Generated_Source\PSoC6\pdl\drivers\peripheral\ctb/cy_ctb.c ****     {
 178:Generated_Source\PSoC6\pdl\drivers\peripheral\ctb/cy_ctb.c ****         CY_ASSERT_L3(CY_CTB_DEEPSLEEP(config->deepSleep));
  66              		.loc 1 178 0 is_stmt 1
  67 0026 2368     		ldr	r3, [r4]
  68 0028 33B1     		cbz	r3, .L5
  69              		.loc 1 178 0 is_stmt 0 discriminator 1
  70 002a B3F1804F 		cmp	r3, #1073741824
  71 002e 03D0     		beq	.L5
  72              		.loc 1 178 0 discriminator 2
  73 0030 B221     		movs	r1, #178
  74 0032 7C48     		ldr	r0, .L39
  75 0034 FFF7FEFF 		bl	Cy_SysLib_AssertFailed
  76              	.LVL5:
  77              	.L5:
 179:Generated_Source\PSoC6\pdl\drivers\peripheral\ctb/cy_ctb.c **** 
 180:Generated_Source\PSoC6\pdl\drivers\peripheral\ctb/cy_ctb.c ****         /* Enum checks for Opamp0 config */
 181:Generated_Source\PSoC6\pdl\drivers\peripheral\ctb/cy_ctb.c ****         CY_ASSERT_L3(CY_CTB_OAPOWER(config->oa0Power));
  78              		.loc 1 181 0 is_stmt 1
  79 0038 2379     		ldrb	r3, [r4, #4]	@ zero_extendqisi2
  80 003a 032B     		cmp	r3, #3
  81 003c 03D9     		bls	.L6
  82              		.loc 1 181 0 is_stmt 0 discriminator 1
  83 003e B521     		movs	r1, #181
  84 0040 7848     		ldr	r0, .L39
  85 0042 FFF7FEFF 		bl	Cy_SysLib_AssertFailed
  86              	.LVL6:
  87              	.L6:
 182:Generated_Source\PSoC6\pdl\drivers\peripheral\ctb/cy_ctb.c ****         CY_ASSERT_L3(CY_CTB_OAMODE(config->oa0Mode));
  88              		.loc 1 182 0 is_stmt 1
  89 0046 6379     		ldrb	r3, [r4, #5]	@ zero_extendqisi2
  90 0048 3BB1     		cbz	r3, .L7
  91              		.loc 1 182 0 is_stmt 0 discriminator 1
  92 004a 082B     		cmp	r3, #8
  93 004c 05D0     		beq	.L7
  94              		.loc 1 182 0 discriminator 2
  95 004e 102B     		cmp	r3, #16
  96 0050 03D0     		beq	.L7
  97              		.loc 1 182 0 discriminator 3
  98 0052 B621     		movs	r1, #182
  99 0054 7348     		ldr	r0, .L39
 100 0056 FFF7FEFF 		bl	Cy_SysLib_AssertFailed
 101              	.LVL7:
 102              	.L7:
 183:Generated_Source\PSoC6\pdl\drivers\peripheral\ctb/cy_ctb.c ****         CY_ASSERT_L3(CY_CTB_OAPUMP(config->oa0Pump));
ARM GAS  C:\Users\gjl\AppData\Local\Temp\cckcOS93.s 			page 6


 103              		.loc 1 183 0 is_stmt 1
 104 005a E388     		ldrh	r3, [r4, #6]
 105 005c 33B1     		cbz	r3, .L8
 106              		.loc 1 183 0 is_stmt 0 discriminator 1
 107 005e B3F5006F 		cmp	r3, #2048
 108 0062 03D0     		beq	.L8
 109              		.loc 1 183 0 discriminator 2
 110 0064 B721     		movs	r1, #183
 111 0066 6F48     		ldr	r0, .L39
 112 0068 FFF7FEFF 		bl	Cy_SysLib_AssertFailed
 113              	.LVL8:
 114              	.L8:
 184:Generated_Source\PSoC6\pdl\drivers\peripheral\ctb/cy_ctb.c ****         CY_ASSERT_L3(CY_CTB_COMPEDGE(config->oa0CompEdge));
 115              		.loc 1 184 0 is_stmt 1
 116 006c 2389     		ldrh	r3, [r4, #8]
 117 006e 63B1     		cbz	r3, .L9
 118              		.loc 1 184 0 is_stmt 0 discriminator 1
 119 0070 B3F5807F 		cmp	r3, #256
 120 0074 09D0     		beq	.L9
 121              		.loc 1 184 0 discriminator 2
 122 0076 B3F5007F 		cmp	r3, #512
 123 007a 06D0     		beq	.L9
 124              		.loc 1 184 0 discriminator 3
 125 007c B3F5407F 		cmp	r3, #768
 126 0080 03D0     		beq	.L9
 127              		.loc 1 184 0 discriminator 4
 128 0082 B821     		movs	r1, #184
 129 0084 6748     		ldr	r0, .L39
 130 0086 FFF7FEFF 		bl	Cy_SysLib_AssertFailed
 131              	.LVL9:
 132              	.L9:
 185:Generated_Source\PSoC6\pdl\drivers\peripheral\ctb/cy_ctb.c ****         CY_ASSERT_L3(CY_CTB_COMPLEVEL(config->oa0CompLevel));
 133              		.loc 1 185 0 is_stmt 1
 134 008a A37A     		ldrb	r3, [r4, #10]	@ zero_extendqisi2
 135 008c 2BB1     		cbz	r3, .L10
 136              		.loc 1 185 0 is_stmt 0 discriminator 1
 137 008e 802B     		cmp	r3, #128
 138 0090 03D0     		beq	.L10
 139              		.loc 1 185 0 discriminator 2
 140 0092 B921     		movs	r1, #185
 141 0094 6348     		ldr	r0, .L39
 142 0096 FFF7FEFF 		bl	Cy_SysLib_AssertFailed
 143              	.LVL10:
 144              	.L10:
 186:Generated_Source\PSoC6\pdl\drivers\peripheral\ctb/cy_ctb.c ****         CY_ASSERT_L3(CY_CTB_COMPBYPASS(config->oa0CompBypass));
 145              		.loc 1 186 0 is_stmt 1
 146 009a E37A     		ldrb	r3, [r4, #11]	@ zero_extendqisi2
 147 009c 2BB1     		cbz	r3, .L11
 148              		.loc 1 186 0 is_stmt 0 discriminator 1
 149 009e 402B     		cmp	r3, #64
 150 00a0 03D0     		beq	.L11
 151              		.loc 1 186 0 discriminator 2
 152 00a2 BA21     		movs	r1, #186
 153 00a4 5F48     		ldr	r0, .L39
 154 00a6 FFF7FEFF 		bl	Cy_SysLib_AssertFailed
 155              	.LVL11:
 156              	.L11:
ARM GAS  C:\Users\gjl\AppData\Local\Temp\cckcOS93.s 			page 7


 187:Generated_Source\PSoC6\pdl\drivers\peripheral\ctb/cy_ctb.c ****         CY_ASSERT_L3(CY_CTB_COMPHYST(config->oa0CompHyst));
 157              		.loc 1 187 0 is_stmt 1
 158 00aa 237B     		ldrb	r3, [r4, #12]	@ zero_extendqisi2
 159 00ac 2BB1     		cbz	r3, .L12
 160              		.loc 1 187 0 is_stmt 0 discriminator 1
 161 00ae 202B     		cmp	r3, #32
 162 00b0 03D0     		beq	.L12
 163              		.loc 1 187 0 discriminator 2
 164 00b2 BB21     		movs	r1, #187
 165 00b4 5B48     		ldr	r0, .L39
 166 00b6 FFF7FEFF 		bl	Cy_SysLib_AssertFailed
 167              	.LVL12:
 168              	.L12:
 188:Generated_Source\PSoC6\pdl\drivers\peripheral\ctb/cy_ctb.c **** 
 189:Generated_Source\PSoC6\pdl\drivers\peripheral\ctb/cy_ctb.c ****         /* Enum checks for Opamp0 config */
 190:Generated_Source\PSoC6\pdl\drivers\peripheral\ctb/cy_ctb.c ****         CY_ASSERT_L3(CY_CTB_OAPOWER(config->oa1Power));
 169              		.loc 1 190 0 is_stmt 1
 170 00ba A37B     		ldrb	r3, [r4, #14]	@ zero_extendqisi2
 171 00bc 032B     		cmp	r3, #3
 172 00be 03D9     		bls	.L13
 173              		.loc 1 190 0 is_stmt 0 discriminator 1
 174 00c0 BE21     		movs	r1, #190
 175 00c2 5848     		ldr	r0, .L39
 176 00c4 FFF7FEFF 		bl	Cy_SysLib_AssertFailed
 177              	.LVL13:
 178              	.L13:
 191:Generated_Source\PSoC6\pdl\drivers\peripheral\ctb/cy_ctb.c ****         CY_ASSERT_L3(CY_CTB_OAMODE(config->oa1Mode));
 179              		.loc 1 191 0 is_stmt 1
 180 00c8 E37B     		ldrb	r3, [r4, #15]	@ zero_extendqisi2
 181 00ca 3BB1     		cbz	r3, .L14
 182              		.loc 1 191 0 is_stmt 0 discriminator 1
 183 00cc 082B     		cmp	r3, #8
 184 00ce 05D0     		beq	.L14
 185              		.loc 1 191 0 discriminator 2
 186 00d0 102B     		cmp	r3, #16
 187 00d2 03D0     		beq	.L14
 188              		.loc 1 191 0 discriminator 3
 189 00d4 BF21     		movs	r1, #191
 190 00d6 5348     		ldr	r0, .L39
 191 00d8 FFF7FEFF 		bl	Cy_SysLib_AssertFailed
 192              	.LVL14:
 193              	.L14:
 192:Generated_Source\PSoC6\pdl\drivers\peripheral\ctb/cy_ctb.c ****         CY_ASSERT_L3(CY_CTB_OAPUMP(config->oa1Pump));
 194              		.loc 1 192 0 is_stmt 1
 195 00dc 238A     		ldrh	r3, [r4, #16]
 196 00de 33B1     		cbz	r3, .L15
 197              		.loc 1 192 0 is_stmt 0 discriminator 1
 198 00e0 B3F5006F 		cmp	r3, #2048
 199 00e4 03D0     		beq	.L15
 200              		.loc 1 192 0 discriminator 2
 201 00e6 C021     		movs	r1, #192
 202 00e8 4E48     		ldr	r0, .L39
 203 00ea FFF7FEFF 		bl	Cy_SysLib_AssertFailed
 204              	.LVL15:
 205              	.L15:
 193:Generated_Source\PSoC6\pdl\drivers\peripheral\ctb/cy_ctb.c ****         CY_ASSERT_L3(CY_CTB_COMPEDGE(config->oa1CompEdge));
 206              		.loc 1 193 0 is_stmt 1
ARM GAS  C:\Users\gjl\AppData\Local\Temp\cckcOS93.s 			page 8


 207 00ee 638A     		ldrh	r3, [r4, #18]
 208 00f0 63B1     		cbz	r3, .L16
 209              		.loc 1 193 0 is_stmt 0 discriminator 1
 210 00f2 B3F5807F 		cmp	r3, #256
 211 00f6 09D0     		beq	.L16
 212              		.loc 1 193 0 discriminator 2
 213 00f8 B3F5007F 		cmp	r3, #512
 214 00fc 06D0     		beq	.L16
 215              		.loc 1 193 0 discriminator 3
 216 00fe B3F5407F 		cmp	r3, #768
 217 0102 03D0     		beq	.L16
 218              		.loc 1 193 0 discriminator 4
 219 0104 C121     		movs	r1, #193
 220 0106 4748     		ldr	r0, .L39
 221 0108 FFF7FEFF 		bl	Cy_SysLib_AssertFailed
 222              	.LVL16:
 223              	.L16:
 194:Generated_Source\PSoC6\pdl\drivers\peripheral\ctb/cy_ctb.c ****         CY_ASSERT_L3(CY_CTB_COMPLEVEL(config->oa1CompLevel));
 224              		.loc 1 194 0 is_stmt 1
 225 010c 237D     		ldrb	r3, [r4, #20]	@ zero_extendqisi2
 226 010e 2BB1     		cbz	r3, .L17
 227              		.loc 1 194 0 is_stmt 0 discriminator 1
 228 0110 802B     		cmp	r3, #128
 229 0112 03D0     		beq	.L17
 230              		.loc 1 194 0 discriminator 2
 231 0114 C221     		movs	r1, #194
 232 0116 4348     		ldr	r0, .L39
 233 0118 FFF7FEFF 		bl	Cy_SysLib_AssertFailed
 234              	.LVL17:
 235              	.L17:
 195:Generated_Source\PSoC6\pdl\drivers\peripheral\ctb/cy_ctb.c ****         CY_ASSERT_L3(CY_CTB_COMPBYPASS(config->oa1CompBypass));
 236              		.loc 1 195 0 is_stmt 1
 237 011c 637D     		ldrb	r3, [r4, #21]	@ zero_extendqisi2
 238 011e 2BB1     		cbz	r3, .L18
 239              		.loc 1 195 0 is_stmt 0 discriminator 1
 240 0120 402B     		cmp	r3, #64
 241 0122 03D0     		beq	.L18
 242              		.loc 1 195 0 discriminator 2
 243 0124 C321     		movs	r1, #195
 244 0126 3F48     		ldr	r0, .L39
 245 0128 FFF7FEFF 		bl	Cy_SysLib_AssertFailed
 246              	.LVL18:
 247              	.L18:
 196:Generated_Source\PSoC6\pdl\drivers\peripheral\ctb/cy_ctb.c ****         CY_ASSERT_L3(CY_CTB_COMPHYST(config->oa1CompHyst));
 248              		.loc 1 196 0 is_stmt 1
 249 012c A37D     		ldrb	r3, [r4, #22]	@ zero_extendqisi2
 250 012e 2BB1     		cbz	r3, .L19
 251              		.loc 1 196 0 is_stmt 0 discriminator 1
 252 0130 202B     		cmp	r3, #32
 253 0132 03D0     		beq	.L19
 254              		.loc 1 196 0 discriminator 2
 255 0134 C421     		movs	r1, #196
 256 0136 3B48     		ldr	r0, .L39
 257 0138 FFF7FEFF 		bl	Cy_SysLib_AssertFailed
 258              	.LVL19:
 259              	.L19:
 197:Generated_Source\PSoC6\pdl\drivers\peripheral\ctb/cy_ctb.c **** 
ARM GAS  C:\Users\gjl\AppData\Local\Temp\cckcOS93.s 			page 9


 198:Generated_Source\PSoC6\pdl\drivers\peripheral\ctb/cy_ctb.c ****         /* Boundary checks for analog routing switch masks */
 199:Generated_Source\PSoC6\pdl\drivers\peripheral\ctb/cy_ctb.c ****         CY_ASSERT_L2(CY_CTB_OA0SWITCH(config->oa0SwitchCtrl));
 260              		.loc 1 199 0 is_stmt 1
 261 013c E269     		ldr	r2, [r4, #28]
 262 013e 3A4B     		ldr	r3, .L39+4
 263 0140 1340     		ands	r3, r3, r2
 264 0142 1BB1     		cbz	r3, .L20
 265              		.loc 1 199 0 is_stmt 0 discriminator 1
 266 0144 C721     		movs	r1, #199
 267 0146 3748     		ldr	r0, .L39
 268 0148 FFF7FEFF 		bl	Cy_SysLib_AssertFailed
 269              	.LVL20:
 270              	.L20:
 200:Generated_Source\PSoC6\pdl\drivers\peripheral\ctb/cy_ctb.c ****         CY_ASSERT_L2(CY_CTB_OA1SWITCH(config->oa1SwitchCtrl));
 271              		.loc 1 200 0 is_stmt 1
 272 014c 226A     		ldr	r2, [r4, #32]
 273 014e 374B     		ldr	r3, .L39+8
 274 0150 1340     		ands	r3, r3, r2
 275 0152 1BB1     		cbz	r3, .L21
 276              		.loc 1 200 0 is_stmt 0 discriminator 1
 277 0154 C821     		movs	r1, #200
 278 0156 3348     		ldr	r0, .L39
 279 0158 FFF7FEFF 		bl	Cy_SysLib_AssertFailed
 280              	.LVL21:
 281              	.L21:
 201:Generated_Source\PSoC6\pdl\drivers\peripheral\ctb/cy_ctb.c ****         CY_ASSERT_L2(CY_CTB_CTDSWITCH(config->ctdSwitchCtrl));
 282              		.loc 1 201 0 is_stmt 1
 283 015c 636A     		ldr	r3, [r4, #36]
 284 015e 23F47743 		bic	r3, r3, #63232
 285 0162 23F03203 		bic	r3, r3, #50
 286 0166 1BB1     		cbz	r3, .L22
 287              		.loc 1 201 0 is_stmt 0 discriminator 1
 288 0168 C921     		movs	r1, #201
 289 016a 2E48     		ldr	r0, .L39
 290 016c FFF7FEFF 		bl	Cy_SysLib_AssertFailed
 291              	.LVL22:
 292              	.L22:
 202:Generated_Source\PSoC6\pdl\drivers\peripheral\ctb/cy_ctb.c **** 
 203:Generated_Source\PSoC6\pdl\drivers\peripheral\ctb/cy_ctb.c ****         base->CTB_CTRL = (uint32_t) config->deepSleep;
 293              		.loc 1 203 0 is_stmt 1
 294 0170 2368     		ldr	r3, [r4]
 295 0172 2B60     		str	r3, [r5]
 204:Generated_Source\PSoC6\pdl\drivers\peripheral\ctb/cy_ctb.c ****         base->OA_RES0_CTRL = (uint32_t) config->oa0Power \
 296              		.loc 1 204 0
 297 0174 2379     		ldrb	r3, [r4, #4]	@ zero_extendqisi2
 205:Generated_Source\PSoC6\pdl\drivers\peripheral\ctb/cy_ctb.c ****                              | (uint32_t) config->oa0Mode \
 298              		.loc 1 205 0
 299 0176 6179     		ldrb	r1, [r4, #5]	@ zero_extendqisi2
 300 0178 0B43     		orrs	r3, r3, r1
 206:Generated_Source\PSoC6\pdl\drivers\peripheral\ctb/cy_ctb.c ****                              | (uint32_t) config->oa0Pump \
 301              		.loc 1 206 0
 302 017a E288     		ldrh	r2, [r4, #6]
 303 017c 1343     		orrs	r3, r3, r2
 207:Generated_Source\PSoC6\pdl\drivers\peripheral\ctb/cy_ctb.c ****                              | (uint32_t) config->oa0CompEdge \
 304              		.loc 1 207 0
 305 017e 2289     		ldrh	r2, [r4, #8]
 306 0180 1343     		orrs	r3, r3, r2
ARM GAS  C:\Users\gjl\AppData\Local\Temp\cckcOS93.s 			page 10


 208:Generated_Source\PSoC6\pdl\drivers\peripheral\ctb/cy_ctb.c ****                              | (uint32_t) config->oa0CompLevel \
 307              		.loc 1 208 0
 308 0182 A27A     		ldrb	r2, [r4, #10]	@ zero_extendqisi2
 309 0184 1343     		orrs	r3, r3, r2
 209:Generated_Source\PSoC6\pdl\drivers\peripheral\ctb/cy_ctb.c ****                              | (uint32_t) config->oa0CompBypass \
 310              		.loc 1 209 0
 311 0186 E27A     		ldrb	r2, [r4, #11]	@ zero_extendqisi2
 312 0188 1343     		orrs	r3, r3, r2
 210:Generated_Source\PSoC6\pdl\drivers\peripheral\ctb/cy_ctb.c ****                              | (uint32_t) config->oa0CompHyst \
 313              		.loc 1 210 0
 314 018a 227B     		ldrb	r2, [r4, #12]	@ zero_extendqisi2
 315 018c 1343     		orrs	r3, r3, r2
 211:Generated_Source\PSoC6\pdl\drivers\peripheral\ctb/cy_ctb.c ****                              | ((CY_CTB_MODE_OPAMP1X == config->oa0Mode) ? CY_CTB_OPAMP_BOOST_ENABL
 316              		.loc 1 211 0
 317 018e 11B9     		cbnz	r1, .L31
 318 0190 4FF48052 		mov	r2, #4096
 319 0194 00E0     		b	.L23
 320              	.L31:
 321 0196 0022     		movs	r2, #0
 322              	.L23:
 323              		.loc 1 211 0 is_stmt 0 discriminator 4
 324 0198 1343     		orrs	r3, r3, r2
 204:Generated_Source\PSoC6\pdl\drivers\peripheral\ctb/cy_ctb.c ****                              | (uint32_t) config->oa0Mode \
 325              		.loc 1 204 0 is_stmt 1 discriminator 4
 326 019a 6B60     		str	r3, [r5, #4]
 212:Generated_Source\PSoC6\pdl\drivers\peripheral\ctb/cy_ctb.c **** 
 213:Generated_Source\PSoC6\pdl\drivers\peripheral\ctb/cy_ctb.c ****         base->OA_RES1_CTRL = (uint32_t) config->oa1Power \
 327              		.loc 1 213 0 discriminator 4
 328 019c A37B     		ldrb	r3, [r4, #14]	@ zero_extendqisi2
 214:Generated_Source\PSoC6\pdl\drivers\peripheral\ctb/cy_ctb.c ****                              | (uint32_t) config->oa1Mode \
 329              		.loc 1 214 0 discriminator 4
 330 019e E17B     		ldrb	r1, [r4, #15]	@ zero_extendqisi2
 331 01a0 0B43     		orrs	r3, r3, r1
 215:Generated_Source\PSoC6\pdl\drivers\peripheral\ctb/cy_ctb.c ****                              | (uint32_t) config->oa1Pump \
 332              		.loc 1 215 0 discriminator 4
 333 01a2 228A     		ldrh	r2, [r4, #16]
 334 01a4 1343     		orrs	r3, r3, r2
 216:Generated_Source\PSoC6\pdl\drivers\peripheral\ctb/cy_ctb.c ****                              | (uint32_t) config->oa1CompEdge \
 335              		.loc 1 216 0 discriminator 4
 336 01a6 628A     		ldrh	r2, [r4, #18]
 337 01a8 1343     		orrs	r3, r3, r2
 217:Generated_Source\PSoC6\pdl\drivers\peripheral\ctb/cy_ctb.c ****                              | (uint32_t) config->oa1CompLevel \
 338              		.loc 1 217 0 discriminator 4
 339 01aa 227D     		ldrb	r2, [r4, #20]	@ zero_extendqisi2
 340 01ac 1343     		orrs	r3, r3, r2
 218:Generated_Source\PSoC6\pdl\drivers\peripheral\ctb/cy_ctb.c ****                              | (uint32_t) config->oa1CompBypass \
 341              		.loc 1 218 0 discriminator 4
 342 01ae 627D     		ldrb	r2, [r4, #21]	@ zero_extendqisi2
 343 01b0 1343     		orrs	r3, r3, r2
 219:Generated_Source\PSoC6\pdl\drivers\peripheral\ctb/cy_ctb.c ****                              | (uint32_t) config->oa1CompHyst \
 344              		.loc 1 219 0 discriminator 4
 345 01b2 A27D     		ldrb	r2, [r4, #22]	@ zero_extendqisi2
 346 01b4 1343     		orrs	r3, r3, r2
 220:Generated_Source\PSoC6\pdl\drivers\peripheral\ctb/cy_ctb.c ****                              | ((CY_CTB_MODE_OPAMP1X == config->oa1Mode) ? CY_CTB_OPAMP_BOOST_ENABL
 347              		.loc 1 220 0 discriminator 4
 348 01b6 11B9     		cbnz	r1, .L32
 349              		.loc 1 220 0 is_stmt 0
ARM GAS  C:\Users\gjl\AppData\Local\Temp\cckcOS93.s 			page 11


 350 01b8 4FF48052 		mov	r2, #4096
 351 01bc 00E0     		b	.L24
 352              	.L32:
 353 01be 0022     		movs	r2, #0
 354              	.L24:
 355              		.loc 1 220 0 discriminator 4
 356 01c0 1343     		orrs	r3, r3, r2
 213:Generated_Source\PSoC6\pdl\drivers\peripheral\ctb/cy_ctb.c ****                              | (uint32_t) config->oa1Mode \
 357              		.loc 1 213 0 is_stmt 1 discriminator 4
 358 01c2 AB60     		str	r3, [r5, #8]
 221:Generated_Source\PSoC6\pdl\drivers\peripheral\ctb/cy_ctb.c **** 
 222:Generated_Source\PSoC6\pdl\drivers\peripheral\ctb/cy_ctb.c ****         base->INTR_MASK = (config->oa0CompIntrEn ? CTBM_INTR_MASK_COMP0_MASK_Msk : CY_CTB_DEINIT) \
 359              		.loc 1 222 0 discriminator 4
 360 01c4 637B     		ldrb	r3, [r4, #13]	@ zero_extendqisi2
 361 01c6 0BB1     		cbz	r3, .L33
 362              		.loc 1 222 0 is_stmt 0
 363 01c8 0122     		movs	r2, #1
 364 01ca 00E0     		b	.L25
 365              	.L33:
 366 01cc 0022     		movs	r2, #0
 367              	.L25:
 223:Generated_Source\PSoC6\pdl\drivers\peripheral\ctb/cy_ctb.c ****                           | (config->oa1CompIntrEn ? CTBM_INTR_MASK_COMP1_MASK_Msk : CY_CTB_DEINIT)
 368              		.loc 1 223 0 is_stmt 1
 369 01ce E37D     		ldrb	r3, [r4, #23]	@ zero_extendqisi2
 370 01d0 0BB1     		cbz	r3, .L34
 371 01d2 0223     		movs	r3, #2
 372 01d4 00E0     		b	.L26
 373              	.L34:
 374 01d6 0023     		movs	r3, #0
 375              	.L26:
 376              		.loc 1 223 0 is_stmt 0 discriminator 4
 377 01d8 1343     		orrs	r3, r3, r2
 222:Generated_Source\PSoC6\pdl\drivers\peripheral\ctb/cy_ctb.c ****                           | (config->oa1CompIntrEn ? CTBM_INTR_MASK_COMP1_MASK_Msk : CY_CTB_DEINIT)
 378              		.loc 1 222 0 is_stmt 1 discriminator 4
 379 01da AB62     		str	r3, [r5, #40]
 224:Generated_Source\PSoC6\pdl\drivers\peripheral\ctb/cy_ctb.c **** 
 225:Generated_Source\PSoC6\pdl\drivers\peripheral\ctb/cy_ctb.c ****         base->OA0_COMP_TRIM = (uint32_t) ((config->oa0Mode == CY_CTB_MODE_OPAMP10X) ? CY_CTB_OPAMP_
 380              		.loc 1 225 0 discriminator 4
 381 01dc 6379     		ldrb	r3, [r4, #5]	@ zero_extendqisi2
 382 01de 082B     		cmp	r3, #8
 383 01e0 01D1     		bne	.L35
 384              		.loc 1 225 0 is_stmt 0
 385 01e2 0323     		movs	r3, #3
 386 01e4 00E0     		b	.L27
 387              	.L35:
 388 01e6 0123     		movs	r3, #1
 389              	.L27:
 390              		.loc 1 225 0 discriminator 4
 391 01e8 C5F8083F 		str	r3, [r5, #3848]
 226:Generated_Source\PSoC6\pdl\drivers\peripheral\ctb/cy_ctb.c ****         base->OA1_COMP_TRIM = (uint32_t) ((config->oa1Mode == CY_CTB_MODE_OPAMP10X) ? CY_CTB_OPAMP_
 392              		.loc 1 226 0 is_stmt 1 discriminator 4
 393 01ec E37B     		ldrb	r3, [r4, #15]	@ zero_extendqisi2
 394 01ee 082B     		cmp	r3, #8
 395 01f0 01D1     		bne	.L36
 396              		.loc 1 226 0 is_stmt 0
 397 01f2 0323     		movs	r3, #3
 398 01f4 00E0     		b	.L28
ARM GAS  C:\Users\gjl\AppData\Local\Temp\cckcOS93.s 			page 12


 399              	.L36:
 400 01f6 0123     		movs	r3, #1
 401              	.L28:
 402              		.loc 1 226 0 discriminator 4
 403 01f8 C5F8143F 		str	r3, [r5, #3860]
 227:Generated_Source\PSoC6\pdl\drivers\peripheral\ctb/cy_ctb.c **** 
 228:Generated_Source\PSoC6\pdl\drivers\peripheral\ctb/cy_ctb.c ****         if (config->configRouting)
 404              		.loc 1 228 0 is_stmt 1 discriminator 4
 405 01fc 237E     		ldrb	r3, [r4, #24]	@ zero_extendqisi2
 406 01fe 73B1     		cbz	r3, .L37
 229:Generated_Source\PSoC6\pdl\drivers\peripheral\ctb/cy_ctb.c ****         {
 230:Generated_Source\PSoC6\pdl\drivers\peripheral\ctb/cy_ctb.c ****             base->OA0_SW = config->oa0SwitchCtrl;
 407              		.loc 1 230 0
 408 0200 E369     		ldr	r3, [r4, #28]
 409 0202 C5F88030 		str	r3, [r5, #128]
 231:Generated_Source\PSoC6\pdl\drivers\peripheral\ctb/cy_ctb.c ****             base->OA1_SW = config->oa1SwitchCtrl;
 410              		.loc 1 231 0
 411 0206 236A     		ldr	r3, [r4, #32]
 412 0208 C5F88830 		str	r3, [r5, #136]
 232:Generated_Source\PSoC6\pdl\drivers\peripheral\ctb/cy_ctb.c ****             base->CTD_SW = config->ctdSwitchCtrl;
 413              		.loc 1 232 0
 414 020c 636A     		ldr	r3, [r4, #36]
 415 020e C5F8A030 		str	r3, [r5, #160]
 233:Generated_Source\PSoC6\pdl\drivers\peripheral\ctb/cy_ctb.c ****         }
 234:Generated_Source\PSoC6\pdl\drivers\peripheral\ctb/cy_ctb.c **** 
 235:Generated_Source\PSoC6\pdl\drivers\peripheral\ctb/cy_ctb.c ****         result = CY_CTB_SUCCESS;
 416              		.loc 1 235 0
 417 0212 0020     		movs	r0, #0
 418 0214 38BD     		pop	{r3, r4, r5, pc}
 419              	.LVL23:
 420              	.L29:
 174:Generated_Source\PSoC6\pdl\drivers\peripheral\ctb/cy_ctb.c ****     }
 421              		.loc 1 174 0
 422 0216 0648     		ldr	r0, .L39+12
 423 0218 38BD     		pop	{r3, r4, r5, pc}
 424              	.LVL24:
 425              	.L30:
 426 021a 0548     		ldr	r0, .L39+12
 427 021c 38BD     		pop	{r3, r4, r5, pc}
 428              	.LVL25:
 429              	.L37:
 430              		.loc 1 235 0
 431 021e 0020     		movs	r0, #0
 432              	.LVL26:
 236:Generated_Source\PSoC6\pdl\drivers\peripheral\ctb/cy_ctb.c ****     }
 237:Generated_Source\PSoC6\pdl\drivers\peripheral\ctb/cy_ctb.c **** 
 238:Generated_Source\PSoC6\pdl\drivers\peripheral\ctb/cy_ctb.c ****     return result;
 239:Generated_Source\PSoC6\pdl\drivers\peripheral\ctb/cy_ctb.c **** }
 433              		.loc 1 239 0
 434 0220 38BD     		pop	{r3, r4, r5, pc}
 435              	.LVL27:
 436              	.L40:
 437 0222 00BF     		.align	2
 438              	.L39:
 439 0224 00000000 		.word	.LC0
 440 0228 F2BEDBFF 		.word	-2375950
 441 022c 6CBED3FF 		.word	-2900372
ARM GAS  C:\Users\gjl\AppData\Local\Temp\cckcOS93.s 			page 13


 442 0230 01002E00 		.word	3014657
 443              		.cfi_endproc
 444              	.LFE182:
 445              		.size	Cy_CTB_Init, .-Cy_CTB_Init
 446              		.section	.text.Cy_CTB_OpampInit,"ax",%progbits
 447              		.align	2
 448              		.global	Cy_CTB_OpampInit
 449              		.thumb
 450              		.thumb_func
 451              		.type	Cy_CTB_OpampInit, %function
 452              	Cy_CTB_OpampInit:
 453              	.LFB183:
 240:Generated_Source\PSoC6\pdl\drivers\peripheral\ctb/cy_ctb.c **** 
 241:Generated_Source\PSoC6\pdl\drivers\peripheral\ctb/cy_ctb.c **** /*******************************************************************************
 242:Generated_Source\PSoC6\pdl\drivers\peripheral\ctb/cy_ctb.c **** * Function Name: Cy_CTB_OpampInit
 243:Generated_Source\PSoC6\pdl\drivers\peripheral\ctb/cy_ctb.c **** ****************************************************************************//**
 244:Generated_Source\PSoC6\pdl\drivers\peripheral\ctb/cy_ctb.c **** *
 245:Generated_Source\PSoC6\pdl\drivers\peripheral\ctb/cy_ctb.c **** * Initialize each opamp separately without impacting analog routing.
 246:Generated_Source\PSoC6\pdl\drivers\peripheral\ctb/cy_ctb.c **** * Intended for use by automatic analog routing and configuration tools
 247:Generated_Source\PSoC6\pdl\drivers\peripheral\ctb/cy_ctb.c **** * to configure each opamp without having to integrate the settings with
 248:Generated_Source\PSoC6\pdl\drivers\peripheral\ctb/cy_ctb.c **** * those of the other opamp first.
 249:Generated_Source\PSoC6\pdl\drivers\peripheral\ctb/cy_ctb.c **** *
 250:Generated_Source\PSoC6\pdl\drivers\peripheral\ctb/cy_ctb.c **** * Can also be used to configure both opamps to have the same settings.
 251:Generated_Source\PSoC6\pdl\drivers\peripheral\ctb/cy_ctb.c **** *
 252:Generated_Source\PSoC6\pdl\drivers\peripheral\ctb/cy_ctb.c **** * \param base
 253:Generated_Source\PSoC6\pdl\drivers\peripheral\ctb/cy_ctb.c **** * Pointer to structure describing registers
 254:Generated_Source\PSoC6\pdl\drivers\peripheral\ctb/cy_ctb.c **** *
 255:Generated_Source\PSoC6\pdl\drivers\peripheral\ctb/cy_ctb.c **** * \param opampNum
 256:Generated_Source\PSoC6\pdl\drivers\peripheral\ctb/cy_ctb.c **** * \ref CY_CTB_OPAMP_0, \ref CY_CTB_OPAMP_1, or \ref CY_CTB_OPAMP_BOTH
 257:Generated_Source\PSoC6\pdl\drivers\peripheral\ctb/cy_ctb.c **** *
 258:Generated_Source\PSoC6\pdl\drivers\peripheral\ctb/cy_ctb.c **** * \param config
 259:Generated_Source\PSoC6\pdl\drivers\peripheral\ctb/cy_ctb.c **** * Pointer to structure containing configuration data
 260:Generated_Source\PSoC6\pdl\drivers\peripheral\ctb/cy_ctb.c **** *
 261:Generated_Source\PSoC6\pdl\drivers\peripheral\ctb/cy_ctb.c **** * \return
 262:Generated_Source\PSoC6\pdl\drivers\peripheral\ctb/cy_ctb.c **** * Status of initialization, \ref CY_CTB_SUCCESS or \ref CY_CTB_BAD_PARAM
 263:Generated_Source\PSoC6\pdl\drivers\peripheral\ctb/cy_ctb.c **** *
 264:Generated_Source\PSoC6\pdl\drivers\peripheral\ctb/cy_ctb.c **** * \funcusage
 265:Generated_Source\PSoC6\pdl\drivers\peripheral\ctb/cy_ctb.c **** *
 266:Generated_Source\PSoC6\pdl\drivers\peripheral\ctb/cy_ctb.c **** * \snippet ctb_sut_01.cydsn/main_cm0p.c SNIPPET_OPAMPINIT
 267:Generated_Source\PSoC6\pdl\drivers\peripheral\ctb/cy_ctb.c **** *
 268:Generated_Source\PSoC6\pdl\drivers\peripheral\ctb/cy_ctb.c **** *******************************************************************************/
 269:Generated_Source\PSoC6\pdl\drivers\peripheral\ctb/cy_ctb.c **** cy_en_ctb_status_t Cy_CTB_OpampInit(CTBM_Type *base, cy_en_ctb_opamp_sel_t opampNum, const cy_stc_c
 270:Generated_Source\PSoC6\pdl\drivers\peripheral\ctb/cy_ctb.c **** {
 454              		.loc 1 270 0
 455              		.cfi_startproc
 456              		@ args = 0, pretend = 0, frame = 0
 457              		@ frame_needed = 0, uses_anonymous_args = 0
 458              	.LVL28:
 459 0000 70B5     		push	{r4, r5, r6, lr}
 460              		.cfi_def_cfa_offset 16
 461              		.cfi_offset 4, -16
 462              		.cfi_offset 5, -12
 463              		.cfi_offset 6, -8
 464              		.cfi_offset 14, -4
 465 0002 0D46     		mov	r5, r1
 466 0004 1446     		mov	r4, r2
 271:Generated_Source\PSoC6\pdl\drivers\peripheral\ctb/cy_ctb.c ****     CY_ASSERT_L1(NULL != base);
ARM GAS  C:\Users\gjl\AppData\Local\Temp\cckcOS93.s 			page 14


 467              		.loc 1 271 0
 468 0006 0646     		mov	r6, r0
 469 0008 20B9     		cbnz	r0, .L42
 470              		.loc 1 271 0 is_stmt 0 discriminator 1
 471 000a 40F20F11 		movw	r1, #271
 472              	.LVL29:
 473 000e 5848     		ldr	r0, .L70
 474              	.LVL30:
 475 0010 FFF7FEFF 		bl	Cy_SysLib_AssertFailed
 476              	.LVL31:
 477              	.L42:
 272:Generated_Source\PSoC6\pdl\drivers\peripheral\ctb/cy_ctb.c ****     CY_ASSERT_L1(NULL != config);
 478              		.loc 1 272 0 is_stmt 1
 479 0014 24B9     		cbnz	r4, .L43
 480              		.loc 1 272 0 is_stmt 0 discriminator 1
 481 0016 4FF48871 		mov	r1, #272
 482 001a 5548     		ldr	r0, .L70
 483 001c FFF7FEFF 		bl	Cy_SysLib_AssertFailed
 484              	.LVL32:
 485              	.L43:
 273:Generated_Source\PSoC6\pdl\drivers\peripheral\ctb/cy_ctb.c **** 
 274:Generated_Source\PSoC6\pdl\drivers\peripheral\ctb/cy_ctb.c ****     cy_en_ctb_status_t result;
 275:Generated_Source\PSoC6\pdl\drivers\peripheral\ctb/cy_ctb.c ****     uint32_t oaResCtrl;
 276:Generated_Source\PSoC6\pdl\drivers\peripheral\ctb/cy_ctb.c **** 
 277:Generated_Source\PSoC6\pdl\drivers\peripheral\ctb/cy_ctb.c ****     if ((NULL == base) || (NULL == config))
 486              		.loc 1 277 0 is_stmt 1
 487 0020 002E     		cmp	r6, #0
 488 0022 00F09F80 		beq	.L61
 489              		.loc 1 277 0 is_stmt 0 discriminator 1
 490 0026 002C     		cmp	r4, #0
 491 0028 00F09E80 		beq	.L62
 278:Generated_Source\PSoC6\pdl\drivers\peripheral\ctb/cy_ctb.c ****     {
 279:Generated_Source\PSoC6\pdl\drivers\peripheral\ctb/cy_ctb.c ****        result = CY_CTB_BAD_PARAM;
 280:Generated_Source\PSoC6\pdl\drivers\peripheral\ctb/cy_ctb.c ****     }
 281:Generated_Source\PSoC6\pdl\drivers\peripheral\ctb/cy_ctb.c ****     else
 282:Generated_Source\PSoC6\pdl\drivers\peripheral\ctb/cy_ctb.c ****     {
 283:Generated_Source\PSoC6\pdl\drivers\peripheral\ctb/cy_ctb.c ****         CY_ASSERT_L3(CY_CTB_OPAMPNUM(opampNum));
 492              		.loc 1 283 0 is_stmt 1
 493 002c 6B1E     		subs	r3, r5, #1
 494 002e DBB2     		uxtb	r3, r3
 495 0030 022B     		cmp	r3, #2
 496 0032 04D9     		bls	.L45
 497              		.loc 1 283 0 is_stmt 0 discriminator 1
 498 0034 40F21B11 		movw	r1, #283
 499 0038 4D48     		ldr	r0, .L70
 500 003a FFF7FEFF 		bl	Cy_SysLib_AssertFailed
 501              	.LVL33:
 502              	.L45:
 284:Generated_Source\PSoC6\pdl\drivers\peripheral\ctb/cy_ctb.c ****         CY_ASSERT_L3(CY_CTB_DEEPSLEEP(config->deepSleep));
 503              		.loc 1 284 0 is_stmt 1
 504 003e 2368     		ldr	r3, [r4]
 505 0040 3BB1     		cbz	r3, .L46
 506              		.loc 1 284 0 is_stmt 0 discriminator 1
 507 0042 B3F1804F 		cmp	r3, #1073741824
 508 0046 04D0     		beq	.L46
 509              		.loc 1 284 0 discriminator 2
 510 0048 4FF48E71 		mov	r1, #284
ARM GAS  C:\Users\gjl\AppData\Local\Temp\cckcOS93.s 			page 15


 511 004c 4848     		ldr	r0, .L70
 512 004e FFF7FEFF 		bl	Cy_SysLib_AssertFailed
 513              	.LVL34:
 514              	.L46:
 285:Generated_Source\PSoC6\pdl\drivers\peripheral\ctb/cy_ctb.c ****         CY_ASSERT_L3(CY_CTB_OAPOWER(config->oaPower));
 515              		.loc 1 285 0 is_stmt 1
 516 0052 2379     		ldrb	r3, [r4, #4]	@ zero_extendqisi2
 517 0054 032B     		cmp	r3, #3
 518 0056 04D9     		bls	.L47
 519              		.loc 1 285 0 is_stmt 0 discriminator 1
 520 0058 40F21D11 		movw	r1, #285
 521 005c 4448     		ldr	r0, .L70
 522 005e FFF7FEFF 		bl	Cy_SysLib_AssertFailed
 523              	.LVL35:
 524              	.L47:
 286:Generated_Source\PSoC6\pdl\drivers\peripheral\ctb/cy_ctb.c ****         CY_ASSERT_L3(CY_CTB_OAMODE(config->oaMode));
 525              		.loc 1 286 0 is_stmt 1
 526 0062 6379     		ldrb	r3, [r4, #5]	@ zero_extendqisi2
 527 0064 43B1     		cbz	r3, .L48
 528              		.loc 1 286 0 is_stmt 0 discriminator 1
 529 0066 082B     		cmp	r3, #8
 530 0068 06D0     		beq	.L48
 531              		.loc 1 286 0 discriminator 2
 532 006a 102B     		cmp	r3, #16
 533 006c 04D0     		beq	.L48
 534              		.loc 1 286 0 discriminator 3
 535 006e 4FF48F71 		mov	r1, #286
 536 0072 3F48     		ldr	r0, .L70
 537 0074 FFF7FEFF 		bl	Cy_SysLib_AssertFailed
 538              	.LVL36:
 539              	.L48:
 287:Generated_Source\PSoC6\pdl\drivers\peripheral\ctb/cy_ctb.c ****         CY_ASSERT_L3(CY_CTB_OAPUMP(config->oaPump));
 540              		.loc 1 287 0 is_stmt 1
 541 0078 E388     		ldrh	r3, [r4, #6]
 542 007a 3BB1     		cbz	r3, .L49
 543              		.loc 1 287 0 is_stmt 0 discriminator 1
 544 007c B3F5006F 		cmp	r3, #2048
 545 0080 04D0     		beq	.L49
 546              		.loc 1 287 0 discriminator 2
 547 0082 40F21F11 		movw	r1, #287
 548 0086 3A48     		ldr	r0, .L70
 549 0088 FFF7FEFF 		bl	Cy_SysLib_AssertFailed
 550              	.LVL37:
 551              	.L49:
 288:Generated_Source\PSoC6\pdl\drivers\peripheral\ctb/cy_ctb.c ****         CY_ASSERT_L3(CY_CTB_COMPEDGE(config->oaCompEdge));
 552              		.loc 1 288 0 is_stmt 1
 553 008c 2389     		ldrh	r3, [r4, #8]
 554 008e 6BB1     		cbz	r3, .L50
 555              		.loc 1 288 0 is_stmt 0 discriminator 1
 556 0090 B3F5807F 		cmp	r3, #256
 557 0094 0AD0     		beq	.L50
 558              		.loc 1 288 0 discriminator 2
 559 0096 B3F5007F 		cmp	r3, #512
 560 009a 07D0     		beq	.L50
 561              		.loc 1 288 0 discriminator 3
 562 009c B3F5407F 		cmp	r3, #768
 563 00a0 04D0     		beq	.L50
ARM GAS  C:\Users\gjl\AppData\Local\Temp\cckcOS93.s 			page 16


 564              		.loc 1 288 0 discriminator 4
 565 00a2 4FF49071 		mov	r1, #288
 566 00a6 3248     		ldr	r0, .L70
 567 00a8 FFF7FEFF 		bl	Cy_SysLib_AssertFailed
 568              	.LVL38:
 569              	.L50:
 289:Generated_Source\PSoC6\pdl\drivers\peripheral\ctb/cy_ctb.c ****         CY_ASSERT_L3(CY_CTB_COMPLEVEL(config->oaCompLevel));
 570              		.loc 1 289 0 is_stmt 1
 571 00ac A37A     		ldrb	r3, [r4, #10]	@ zero_extendqisi2
 572 00ae 33B1     		cbz	r3, .L51
 573              		.loc 1 289 0 is_stmt 0 discriminator 1
 574 00b0 802B     		cmp	r3, #128
 575 00b2 04D0     		beq	.L51
 576              		.loc 1 289 0 discriminator 2
 577 00b4 40F22111 		movw	r1, #289
 578 00b8 2D48     		ldr	r0, .L70
 579 00ba FFF7FEFF 		bl	Cy_SysLib_AssertFailed
 580              	.LVL39:
 581              	.L51:
 290:Generated_Source\PSoC6\pdl\drivers\peripheral\ctb/cy_ctb.c ****         CY_ASSERT_L3(CY_CTB_COMPBYPASS(config->oaCompBypass));
 582              		.loc 1 290 0 is_stmt 1
 583 00be E37A     		ldrb	r3, [r4, #11]	@ zero_extendqisi2
 584 00c0 33B1     		cbz	r3, .L52
 585              		.loc 1 290 0 is_stmt 0 discriminator 1
 586 00c2 402B     		cmp	r3, #64
 587 00c4 04D0     		beq	.L52
 588              		.loc 1 290 0 discriminator 2
 589 00c6 4FF49171 		mov	r1, #290
 590 00ca 2948     		ldr	r0, .L70
 591 00cc FFF7FEFF 		bl	Cy_SysLib_AssertFailed
 592              	.LVL40:
 593              	.L52:
 291:Generated_Source\PSoC6\pdl\drivers\peripheral\ctb/cy_ctb.c ****         CY_ASSERT_L3(CY_CTB_COMPHYST(config->oaCompHyst));
 594              		.loc 1 291 0 is_stmt 1
 595 00d0 237B     		ldrb	r3, [r4, #12]	@ zero_extendqisi2
 596 00d2 33B1     		cbz	r3, .L53
 597              		.loc 1 291 0 is_stmt 0 discriminator 1
 598 00d4 202B     		cmp	r3, #32
 599 00d6 04D0     		beq	.L53
 600              		.loc 1 291 0 discriminator 2
 601 00d8 40F22311 		movw	r1, #291
 602 00dc 2448     		ldr	r0, .L70
 603 00de FFF7FEFF 		bl	Cy_SysLib_AssertFailed
 604              	.LVL41:
 605              	.L53:
 292:Generated_Source\PSoC6\pdl\drivers\peripheral\ctb/cy_ctb.c **** 
 293:Generated_Source\PSoC6\pdl\drivers\peripheral\ctb/cy_ctb.c ****         base->CTB_CTRL = (uint32_t) config->deepSleep;
 606              		.loc 1 293 0 is_stmt 1
 607 00e2 2368     		ldr	r3, [r4]
 608 00e4 3360     		str	r3, [r6]
 294:Generated_Source\PSoC6\pdl\drivers\peripheral\ctb/cy_ctb.c **** 
 295:Generated_Source\PSoC6\pdl\drivers\peripheral\ctb/cy_ctb.c ****         /* The two opamp control registers are symmetrical */
 296:Generated_Source\PSoC6\pdl\drivers\peripheral\ctb/cy_ctb.c ****         oaResCtrl = (uint32_t) config->oaPower \
 609              		.loc 1 296 0
 610 00e6 2279     		ldrb	r2, [r4, #4]	@ zero_extendqisi2
 297:Generated_Source\PSoC6\pdl\drivers\peripheral\ctb/cy_ctb.c ****                     | (uint32_t) config->oaMode \
 611              		.loc 1 297 0
ARM GAS  C:\Users\gjl\AppData\Local\Temp\cckcOS93.s 			page 17


 612 00e8 6179     		ldrb	r1, [r4, #5]	@ zero_extendqisi2
 613 00ea 0A43     		orrs	r2, r2, r1
 298:Generated_Source\PSoC6\pdl\drivers\peripheral\ctb/cy_ctb.c ****                     | (uint32_t) config->oaPump \
 614              		.loc 1 298 0
 615 00ec E388     		ldrh	r3, [r4, #6]
 616 00ee 1A43     		orrs	r2, r2, r3
 299:Generated_Source\PSoC6\pdl\drivers\peripheral\ctb/cy_ctb.c ****                     | (uint32_t) config->oaCompEdge \
 617              		.loc 1 299 0
 618 00f0 2389     		ldrh	r3, [r4, #8]
 619 00f2 1A43     		orrs	r2, r2, r3
 300:Generated_Source\PSoC6\pdl\drivers\peripheral\ctb/cy_ctb.c ****                     | (uint32_t) config->oaCompLevel \
 620              		.loc 1 300 0
 621 00f4 A37A     		ldrb	r3, [r4, #10]	@ zero_extendqisi2
 622 00f6 1A43     		orrs	r2, r2, r3
 301:Generated_Source\PSoC6\pdl\drivers\peripheral\ctb/cy_ctb.c ****                     | (uint32_t) config->oaCompBypass \
 623              		.loc 1 301 0
 624 00f8 E37A     		ldrb	r3, [r4, #11]	@ zero_extendqisi2
 625 00fa 1A43     		orrs	r2, r2, r3
 302:Generated_Source\PSoC6\pdl\drivers\peripheral\ctb/cy_ctb.c ****                     | (uint32_t) config->oaCompHyst \
 626              		.loc 1 302 0
 627 00fc 237B     		ldrb	r3, [r4, #12]	@ zero_extendqisi2
 628 00fe 1343     		orrs	r3, r3, r2
 303:Generated_Source\PSoC6\pdl\drivers\peripheral\ctb/cy_ctb.c ****                     | ((CY_CTB_MODE_OPAMP1X == config->oaMode) ? CY_CTB_OPAMP_BOOST_ENABLE : CY_CTB
 629              		.loc 1 303 0
 630 0100 11B9     		cbnz	r1, .L63
 631 0102 4FF48052 		mov	r2, #4096
 632 0106 00E0     		b	.L54
 633              	.L63:
 634 0108 0022     		movs	r2, #0
 635              	.L54:
 296:Generated_Source\PSoC6\pdl\drivers\peripheral\ctb/cy_ctb.c ****                     | (uint32_t) config->oaMode \
 636              		.loc 1 296 0
 637 010a 1343     		orrs	r3, r3, r2
 638              	.LVL42:
 304:Generated_Source\PSoC6\pdl\drivers\peripheral\ctb/cy_ctb.c **** 
 305:Generated_Source\PSoC6\pdl\drivers\peripheral\ctb/cy_ctb.c ****         if ((opampNum == CY_CTB_OPAMP_0) || (opampNum == CY_CTB_OPAMP_BOTH))
 639              		.loc 1 305 0
 640 010c 012D     		cmp	r5, #1
 641 010e 01D0     		beq	.L55
 642              		.loc 1 305 0 is_stmt 0 discriminator 1
 643 0110 032D     		cmp	r5, #3
 644 0112 10D1     		bne	.L56
 645              	.L55:
 306:Generated_Source\PSoC6\pdl\drivers\peripheral\ctb/cy_ctb.c ****         {
 307:Generated_Source\PSoC6\pdl\drivers\peripheral\ctb/cy_ctb.c ****             base->OA_RES0_CTRL = oaResCtrl;
 646              		.loc 1 307 0 is_stmt 1
 647 0114 7360     		str	r3, [r6, #4]
 308:Generated_Source\PSoC6\pdl\drivers\peripheral\ctb/cy_ctb.c ****             base->OA0_COMP_TRIM = (uint32_t) ((config->oaMode == CY_CTB_MODE_OPAMP10X) ? CY_CTB_OPA
 648              		.loc 1 308 0
 649 0116 6279     		ldrb	r2, [r4, #5]	@ zero_extendqisi2
 650 0118 082A     		cmp	r2, #8
 651 011a 01D1     		bne	.L64
 652 011c 0322     		movs	r2, #3
 653 011e 00E0     		b	.L57
 654              	.L64:
 655 0120 0122     		movs	r2, #1
 656              	.L57:
ARM GAS  C:\Users\gjl\AppData\Local\Temp\cckcOS93.s 			page 18


 657              		.loc 1 308 0 is_stmt 0 discriminator 4
 658 0122 C6F8082F 		str	r2, [r6, #3848]
 309:Generated_Source\PSoC6\pdl\drivers\peripheral\ctb/cy_ctb.c **** 
 310:Generated_Source\PSoC6\pdl\drivers\peripheral\ctb/cy_ctb.c ****             /* The INTR_MASK register is shared between the two opamps */
 311:Generated_Source\PSoC6\pdl\drivers\peripheral\ctb/cy_ctb.c ****             base->INTR_MASK |= (config->oaCompIntrEn ? CTBM_INTR_MASK_COMP0_MASK_Msk : CY_CTB_DEINI
 659              		.loc 1 311 0 is_stmt 1 discriminator 4
 660 0126 B26A     		ldr	r2, [r6, #40]
 661 0128 617B     		ldrb	r1, [r4, #13]	@ zero_extendqisi2
 662 012a 09B1     		cbz	r1, .L65
 663              		.loc 1 311 0 is_stmt 0
 664 012c 0121     		movs	r1, #1
 665 012e 00E0     		b	.L58
 666              	.L65:
 667 0130 0021     		movs	r1, #0
 668              	.L58:
 669              		.loc 1 311 0 discriminator 4
 670 0132 0A43     		orrs	r2, r2, r1
 671 0134 B262     		str	r2, [r6, #40]
 672              	.L56:
 312:Generated_Source\PSoC6\pdl\drivers\peripheral\ctb/cy_ctb.c ****         }
 313:Generated_Source\PSoC6\pdl\drivers\peripheral\ctb/cy_ctb.c **** 
 314:Generated_Source\PSoC6\pdl\drivers\peripheral\ctb/cy_ctb.c ****         if ((opampNum == CY_CTB_OPAMP_1) || (opampNum == CY_CTB_OPAMP_BOTH))
 673              		.loc 1 314 0 is_stmt 1
 674 0136 023D     		subs	r5, r5, #2
 675 0138 EDB2     		uxtb	r5, r5
 676 013a 012D     		cmp	r5, #1
 677 013c 16D8     		bhi	.L66
 315:Generated_Source\PSoC6\pdl\drivers\peripheral\ctb/cy_ctb.c ****         {
 316:Generated_Source\PSoC6\pdl\drivers\peripheral\ctb/cy_ctb.c ****             base->OA_RES1_CTRL = oaResCtrl;
 678              		.loc 1 316 0
 679 013e B360     		str	r3, [r6, #8]
 317:Generated_Source\PSoC6\pdl\drivers\peripheral\ctb/cy_ctb.c ****             base->OA1_COMP_TRIM = (uint32_t) ((config->oaMode == CY_CTB_MODE_OPAMP10X) ? CY_CTB_OPA
 680              		.loc 1 317 0
 681 0140 6379     		ldrb	r3, [r4, #5]	@ zero_extendqisi2
 682              	.LVL43:
 683 0142 082B     		cmp	r3, #8
 684 0144 01D1     		bne	.L67
 685 0146 0323     		movs	r3, #3
 686 0148 00E0     		b	.L59
 687              	.L67:
 688 014a 0123     		movs	r3, #1
 689              	.L59:
 690              		.loc 1 317 0 is_stmt 0 discriminator 4
 691 014c C6F8143F 		str	r3, [r6, #3860]
 692              	.LVL44:
 318:Generated_Source\PSoC6\pdl\drivers\peripheral\ctb/cy_ctb.c **** 
 319:Generated_Source\PSoC6\pdl\drivers\peripheral\ctb/cy_ctb.c ****             /* The INTR_MASK register is shared between the two opamps */
 320:Generated_Source\PSoC6\pdl\drivers\peripheral\ctb/cy_ctb.c ****             base->INTR_MASK |= (config->oaCompIntrEn ? CTBM_INTR_MASK_COMP1_MASK_Msk : CY_CTB_DEINI
 693              		.loc 1 320 0 is_stmt 1 discriminator 4
 694 0150 B36A     		ldr	r3, [r6, #40]
 695 0152 627B     		ldrb	r2, [r4, #13]	@ zero_extendqisi2
 696 0154 0AB1     		cbz	r2, .L68
 697              		.loc 1 320 0 is_stmt 0
 698 0156 0222     		movs	r2, #2
 699 0158 00E0     		b	.L60
 700              	.L68:
 701 015a 0022     		movs	r2, #0
ARM GAS  C:\Users\gjl\AppData\Local\Temp\cckcOS93.s 			page 19


 702              	.L60:
 703              		.loc 1 320 0 discriminator 4
 704 015c 1343     		orrs	r3, r3, r2
 705 015e B362     		str	r3, [r6, #40]
 321:Generated_Source\PSoC6\pdl\drivers\peripheral\ctb/cy_ctb.c ****         }
 322:Generated_Source\PSoC6\pdl\drivers\peripheral\ctb/cy_ctb.c **** 
 323:Generated_Source\PSoC6\pdl\drivers\peripheral\ctb/cy_ctb.c ****         result = CY_CTB_SUCCESS;
 706              		.loc 1 323 0 is_stmt 1 discriminator 4
 707 0160 0020     		movs	r0, #0
 708 0162 70BD     		pop	{r4, r5, r6, pc}
 709              	.LVL45:
 710              	.L61:
 279:Generated_Source\PSoC6\pdl\drivers\peripheral\ctb/cy_ctb.c ****     }
 711              		.loc 1 279 0
 712 0164 0348     		ldr	r0, .L70+4
 713 0166 70BD     		pop	{r4, r5, r6, pc}
 714              	.LVL46:
 715              	.L62:
 716 0168 0248     		ldr	r0, .L70+4
 717 016a 70BD     		pop	{r4, r5, r6, pc}
 718              	.LVL47:
 719              	.L66:
 720              		.loc 1 323 0
 721 016c 0020     		movs	r0, #0
 722              	.LVL48:
 324:Generated_Source\PSoC6\pdl\drivers\peripheral\ctb/cy_ctb.c ****     }
 325:Generated_Source\PSoC6\pdl\drivers\peripheral\ctb/cy_ctb.c **** 
 326:Generated_Source\PSoC6\pdl\drivers\peripheral\ctb/cy_ctb.c ****     return result;
 327:Generated_Source\PSoC6\pdl\drivers\peripheral\ctb/cy_ctb.c **** }
 723              		.loc 1 327 0
 724 016e 70BD     		pop	{r4, r5, r6, pc}
 725              	.LVL49:
 726              	.L71:
 727              		.align	2
 728              	.L70:
 729 0170 00000000 		.word	.LC0
 730 0174 01002E00 		.word	3014657
 731              		.cfi_endproc
 732              	.LFE183:
 733              		.size	Cy_CTB_OpampInit, .-Cy_CTB_OpampInit
 734              		.section	.text.Cy_CTB_DeInit,"ax",%progbits
 735              		.align	2
 736              		.global	Cy_CTB_DeInit
 737              		.thumb
 738              		.thumb_func
 739              		.type	Cy_CTB_DeInit, %function
 740              	Cy_CTB_DeInit:
 741              	.LFB184:
 328:Generated_Source\PSoC6\pdl\drivers\peripheral\ctb/cy_ctb.c **** 
 329:Generated_Source\PSoC6\pdl\drivers\peripheral\ctb/cy_ctb.c **** /*******************************************************************************
 330:Generated_Source\PSoC6\pdl\drivers\peripheral\ctb/cy_ctb.c **** * Function Name: Cy_CTB_DeInit
 331:Generated_Source\PSoC6\pdl\drivers\peripheral\ctb/cy_ctb.c **** ****************************************************************************//**
 332:Generated_Source\PSoC6\pdl\drivers\peripheral\ctb/cy_ctb.c **** *
 333:Generated_Source\PSoC6\pdl\drivers\peripheral\ctb/cy_ctb.c **** * Reset CTB registers back to power on reset defaults.
 334:Generated_Source\PSoC6\pdl\drivers\peripheral\ctb/cy_ctb.c **** *
 335:Generated_Source\PSoC6\pdl\drivers\peripheral\ctb/cy_ctb.c **** * \param base
 336:Generated_Source\PSoC6\pdl\drivers\peripheral\ctb/cy_ctb.c **** * Pointer to structure describing registers
ARM GAS  C:\Users\gjl\AppData\Local\Temp\cckcOS93.s 			page 20


 337:Generated_Source\PSoC6\pdl\drivers\peripheral\ctb/cy_ctb.c **** *
 338:Generated_Source\PSoC6\pdl\drivers\peripheral\ctb/cy_ctb.c **** * \param deInitRouting
 339:Generated_Source\PSoC6\pdl\drivers\peripheral\ctb/cy_ctb.c **** * If true, all analog routing switches are reset to their default state.
 340:Generated_Source\PSoC6\pdl\drivers\peripheral\ctb/cy_ctb.c **** * If false, analog switch registers are untouched.
 341:Generated_Source\PSoC6\pdl\drivers\peripheral\ctb/cy_ctb.c **** *
 342:Generated_Source\PSoC6\pdl\drivers\peripheral\ctb/cy_ctb.c **** * \return
 343:Generated_Source\PSoC6\pdl\drivers\peripheral\ctb/cy_ctb.c **** * Status of initialization, \ref CY_CTB_SUCCESS or \ref CY_CTB_BAD_PARAM
 344:Generated_Source\PSoC6\pdl\drivers\peripheral\ctb/cy_ctb.c **** *
 345:Generated_Source\PSoC6\pdl\drivers\peripheral\ctb/cy_ctb.c **** *******************************************************************************/
 346:Generated_Source\PSoC6\pdl\drivers\peripheral\ctb/cy_ctb.c **** cy_en_ctb_status_t Cy_CTB_DeInit(CTBM_Type *base, bool deInitRouting)
 347:Generated_Source\PSoC6\pdl\drivers\peripheral\ctb/cy_ctb.c **** {
 742              		.loc 1 347 0
 743              		.cfi_startproc
 744              		@ args = 0, pretend = 0, frame = 0
 745              		@ frame_needed = 0, uses_anonymous_args = 0
 746              	.LVL50:
 747 0000 38B5     		push	{r3, r4, r5, lr}
 748              		.cfi_def_cfa_offset 16
 749              		.cfi_offset 3, -16
 750              		.cfi_offset 4, -12
 751              		.cfi_offset 5, -8
 752              		.cfi_offset 14, -4
 753 0002 0D46     		mov	r5, r1
 348:Generated_Source\PSoC6\pdl\drivers\peripheral\ctb/cy_ctb.c ****     CY_ASSERT_L1(NULL != base);
 754              		.loc 1 348 0
 755 0004 0446     		mov	r4, r0
 756 0006 20B9     		cbnz	r0, .L73
 757              		.loc 1 348 0 is_stmt 0 discriminator 1
 758 0008 4FF4AE71 		mov	r1, #348
 759              	.LVL51:
 760 000c 0C48     		ldr	r0, .L78
 761              	.LVL52:
 762 000e FFF7FEFF 		bl	Cy_SysLib_AssertFailed
 763              	.LVL53:
 764              	.L73:
 349:Generated_Source\PSoC6\pdl\drivers\peripheral\ctb/cy_ctb.c **** 
 350:Generated_Source\PSoC6\pdl\drivers\peripheral\ctb/cy_ctb.c ****     cy_en_ctb_status_t result;
 351:Generated_Source\PSoC6\pdl\drivers\peripheral\ctb/cy_ctb.c **** 
 352:Generated_Source\PSoC6\pdl\drivers\peripheral\ctb/cy_ctb.c ****     if (NULL == base)
 765              		.loc 1 352 0 is_stmt 1
 766 0012 8CB1     		cbz	r4, .L75
 353:Generated_Source\PSoC6\pdl\drivers\peripheral\ctb/cy_ctb.c ****     {
 354:Generated_Source\PSoC6\pdl\drivers\peripheral\ctb/cy_ctb.c ****         result = CY_CTB_BAD_PARAM;
 355:Generated_Source\PSoC6\pdl\drivers\peripheral\ctb/cy_ctb.c ****     }
 356:Generated_Source\PSoC6\pdl\drivers\peripheral\ctb/cy_ctb.c ****     else
 357:Generated_Source\PSoC6\pdl\drivers\peripheral\ctb/cy_ctb.c ****     {
 358:Generated_Source\PSoC6\pdl\drivers\peripheral\ctb/cy_ctb.c ****         base->CTB_CTRL          = CY_CTB_DEINIT;
 767              		.loc 1 358 0
 768 0014 0023     		movs	r3, #0
 769 0016 2360     		str	r3, [r4]
 359:Generated_Source\PSoC6\pdl\drivers\peripheral\ctb/cy_ctb.c ****         base->OA_RES0_CTRL      = CY_CTB_DEINIT;
 770              		.loc 1 359 0
 771 0018 6360     		str	r3, [r4, #4]
 360:Generated_Source\PSoC6\pdl\drivers\peripheral\ctb/cy_ctb.c ****         base->OA_RES1_CTRL      = CY_CTB_DEINIT;
 772              		.loc 1 360 0
 773 001a A360     		str	r3, [r4, #8]
 361:Generated_Source\PSoC6\pdl\drivers\peripheral\ctb/cy_ctb.c ****         base->INTR_MASK         = CY_CTB_DEINIT;
ARM GAS  C:\Users\gjl\AppData\Local\Temp\cckcOS93.s 			page 21


 774              		.loc 1 361 0
 775 001c A362     		str	r3, [r4, #40]
 362:Generated_Source\PSoC6\pdl\drivers\peripheral\ctb/cy_ctb.c **** 
 363:Generated_Source\PSoC6\pdl\drivers\peripheral\ctb/cy_ctb.c ****         if (deInitRouting)
 776              		.loc 1 363 0
 777 001e 6DB1     		cbz	r5, .L76
 364:Generated_Source\PSoC6\pdl\drivers\peripheral\ctb/cy_ctb.c ****         {
 365:Generated_Source\PSoC6\pdl\drivers\peripheral\ctb/cy_ctb.c ****             base->OA0_SW_CLEAR   = CY_CTB_DEINIT_OA0_SW;
 778              		.loc 1 365 0
 779 0020 084B     		ldr	r3, .L78+4
 780 0022 C4F88430 		str	r3, [r4, #132]
 366:Generated_Source\PSoC6\pdl\drivers\peripheral\ctb/cy_ctb.c ****             base->OA1_SW_CLEAR   = CY_CTB_DEINIT_OA1_SW;
 781              		.loc 1 366 0
 782 0026 084B     		ldr	r3, .L78+8
 783 0028 C4F88C30 		str	r3, [r4, #140]
 367:Generated_Source\PSoC6\pdl\drivers\peripheral\ctb/cy_ctb.c ****             base->CTD_SW_CLEAR   = CY_CTB_DEINIT_CTD_SW;
 784              		.loc 1 367 0
 785 002c 4FF23273 		movw	r3, #63282
 786 0030 C4F8A430 		str	r3, [r4, #164]
 368:Generated_Source\PSoC6\pdl\drivers\peripheral\ctb/cy_ctb.c ****         }
 369:Generated_Source\PSoC6\pdl\drivers\peripheral\ctb/cy_ctb.c **** 
 370:Generated_Source\PSoC6\pdl\drivers\peripheral\ctb/cy_ctb.c ****         result                  = CY_CTB_SUCCESS;
 787              		.loc 1 370 0
 788 0034 0020     		movs	r0, #0
 789 0036 38BD     		pop	{r3, r4, r5, pc}
 790              	.LVL54:
 791              	.L75:
 354:Generated_Source\PSoC6\pdl\drivers\peripheral\ctb/cy_ctb.c ****     }
 792              		.loc 1 354 0
 793 0038 0448     		ldr	r0, .L78+12
 794 003a 38BD     		pop	{r3, r4, r5, pc}
 795              	.LVL55:
 796              	.L76:
 797              		.loc 1 370 0
 798 003c 0020     		movs	r0, #0
 799              	.LVL56:
 371:Generated_Source\PSoC6\pdl\drivers\peripheral\ctb/cy_ctb.c ****     }
 372:Generated_Source\PSoC6\pdl\drivers\peripheral\ctb/cy_ctb.c **** 
 373:Generated_Source\PSoC6\pdl\drivers\peripheral\ctb/cy_ctb.c ****     return result;
 374:Generated_Source\PSoC6\pdl\drivers\peripheral\ctb/cy_ctb.c **** }
 800              		.loc 1 374 0
 801 003e 38BD     		pop	{r3, r4, r5, pc}
 802              	.LVL57:
 803              	.L79:
 804              		.align	2
 805              	.L78:
 806 0040 00000000 		.word	.LC0
 807 0044 0D412400 		.word	2375949
 808 0048 93412C00 		.word	2900371
 809 004c 01002E00 		.word	3014657
 810              		.cfi_endproc
 811              	.LFE184:
 812              		.size	Cy_CTB_DeInit, .-Cy_CTB_DeInit
 813              		.section	.text.Cy_CTB_FastInit,"ax",%progbits
 814              		.align	2
 815              		.global	Cy_CTB_FastInit
 816              		.thumb
ARM GAS  C:\Users\gjl\AppData\Local\Temp\cckcOS93.s 			page 22


 817              		.thumb_func
 818              		.type	Cy_CTB_FastInit, %function
 819              	Cy_CTB_FastInit:
 820              	.LFB185:
 375:Generated_Source\PSoC6\pdl\drivers\peripheral\ctb/cy_ctb.c **** 
 376:Generated_Source\PSoC6\pdl\drivers\peripheral\ctb/cy_ctb.c **** /*******************************************************************************
 377:Generated_Source\PSoC6\pdl\drivers\peripheral\ctb/cy_ctb.c **** * Function Name: Cy_CTB_FastInit
 378:Generated_Source\PSoC6\pdl\drivers\peripheral\ctb/cy_ctb.c **** ****************************************************************************//**
 379:Generated_Source\PSoC6\pdl\drivers\peripheral\ctb/cy_ctb.c **** *
 380:Generated_Source\PSoC6\pdl\drivers\peripheral\ctb/cy_ctb.c **** * Initialize each opamp of the CTB to one of the common use modes.
 381:Generated_Source\PSoC6\pdl\drivers\peripheral\ctb/cy_ctb.c **** *
 382:Generated_Source\PSoC6\pdl\drivers\peripheral\ctb/cy_ctb.c **** * This function provides a quick and easy method of configuring the CTB
 383:Generated_Source\PSoC6\pdl\drivers\peripheral\ctb/cy_ctb.c **** * using pre-defined configurations.
 384:Generated_Source\PSoC6\pdl\drivers\peripheral\ctb/cy_ctb.c **** * Only routing switches required for the selected mode are configured, leaving final input and outp
 385:Generated_Source\PSoC6\pdl\drivers\peripheral\ctb/cy_ctb.c **** * to the user.
 386:Generated_Source\PSoC6\pdl\drivers\peripheral\ctb/cy_ctb.c **** * Additional use modes that relate to the \ref group_ctdac "CTDAC"
 387:Generated_Source\PSoC6\pdl\drivers\peripheral\ctb/cy_ctb.c **** * are provided to support easy configuration of the CTDAC output buffer and input
 388:Generated_Source\PSoC6\pdl\drivers\peripheral\ctb/cy_ctb.c **** * reference buffer.
 389:Generated_Source\PSoC6\pdl\drivers\peripheral\ctb/cy_ctb.c **** *
 390:Generated_Source\PSoC6\pdl\drivers\peripheral\ctb/cy_ctb.c **** * The fast configuration structures define the opamp power, mode, and routing.
 391:Generated_Source\PSoC6\pdl\drivers\peripheral\ctb/cy_ctb.c **** * This function sets the other configuration options of the CTB to:
 392:Generated_Source\PSoC6\pdl\drivers\peripheral\ctb/cy_ctb.c **** *   - .deepSleep    = CY_CTB_DEEPSLEEP_DISABLE
 393:Generated_Source\PSoC6\pdl\drivers\peripheral\ctb/cy_ctb.c **** *   - .oaPump       = \ref CY_CTB_PUMP_ENABLE
 394:Generated_Source\PSoC6\pdl\drivers\peripheral\ctb/cy_ctb.c **** *   - .oaCompEdge   = \ref CY_CTB_COMP_EDGE_BOTH
 395:Generated_Source\PSoC6\pdl\drivers\peripheral\ctb/cy_ctb.c **** *   - .oaCompLevel  = \ref CY_CTB_COMP_DSI_TRIGGER_OUT_LEVEL
 396:Generated_Source\PSoC6\pdl\drivers\peripheral\ctb/cy_ctb.c **** *   - .oaCompBypass = \ref CY_CTB_COMP_BYPASS_SYNC
 397:Generated_Source\PSoC6\pdl\drivers\peripheral\ctb/cy_ctb.c **** *   - .oaCompHyst   = \ref CY_CTB_COMP_HYST_10MV
 398:Generated_Source\PSoC6\pdl\drivers\peripheral\ctb/cy_ctb.c **** *   - .oaCompIntrEn = true
 399:Generated_Source\PSoC6\pdl\drivers\peripheral\ctb/cy_ctb.c **** 
 400:Generated_Source\PSoC6\pdl\drivers\peripheral\ctb/cy_ctb.c **** * \param base
 401:Generated_Source\PSoC6\pdl\drivers\peripheral\ctb/cy_ctb.c **** * Pointer to structure describing registers
 402:Generated_Source\PSoC6\pdl\drivers\peripheral\ctb/cy_ctb.c **** *
 403:Generated_Source\PSoC6\pdl\drivers\peripheral\ctb/cy_ctb.c **** * \param config0
 404:Generated_Source\PSoC6\pdl\drivers\peripheral\ctb/cy_ctb.c **** * Pointer to structure containing configuration data for quick initialization
 405:Generated_Source\PSoC6\pdl\drivers\peripheral\ctb/cy_ctb.c **** * of Opamp0. Defined your own or use one of the provided structures:
 406:Generated_Source\PSoC6\pdl\drivers\peripheral\ctb/cy_ctb.c **** * - \ref Cy_CTB_Fast_Opamp0_Unused
 407:Generated_Source\PSoC6\pdl\drivers\peripheral\ctb/cy_ctb.c **** * - \ref Cy_CTB_Fast_Opamp0_Comp
 408:Generated_Source\PSoC6\pdl\drivers\peripheral\ctb/cy_ctb.c **** * - \ref Cy_CTB_Fast_Opamp0_Opamp1x
 409:Generated_Source\PSoC6\pdl\drivers\peripheral\ctb/cy_ctb.c **** * - \ref Cy_CTB_Fast_Opamp0_Opamp10x
 410:Generated_Source\PSoC6\pdl\drivers\peripheral\ctb/cy_ctb.c **** * - \ref Cy_CTB_Fast_Opamp0_Diffamp
 411:Generated_Source\PSoC6\pdl\drivers\peripheral\ctb/cy_ctb.c **** * - \ref Cy_CTB_Fast_Opamp0_Vdac_Out
 412:Generated_Source\PSoC6\pdl\drivers\peripheral\ctb/cy_ctb.c **** * - \ref Cy_CTB_Fast_Opamp0_Vdac_Out_SH
 413:Generated_Source\PSoC6\pdl\drivers\peripheral\ctb/cy_ctb.c **** *
 414:Generated_Source\PSoC6\pdl\drivers\peripheral\ctb/cy_ctb.c **** * \param config1
 415:Generated_Source\PSoC6\pdl\drivers\peripheral\ctb/cy_ctb.c **** * Pointer to structure containing configuration data for quick initialization
 416:Generated_Source\PSoC6\pdl\drivers\peripheral\ctb/cy_ctb.c **** * of Opamp1. Defined your own or use one of the provided structures:
 417:Generated_Source\PSoC6\pdl\drivers\peripheral\ctb/cy_ctb.c **** * - \ref Cy_CTB_Fast_Opamp1_Unused
 418:Generated_Source\PSoC6\pdl\drivers\peripheral\ctb/cy_ctb.c **** * - \ref Cy_CTB_Fast_Opamp1_Comp
 419:Generated_Source\PSoC6\pdl\drivers\peripheral\ctb/cy_ctb.c **** * - \ref Cy_CTB_Fast_Opamp1_Opamp1x
 420:Generated_Source\PSoC6\pdl\drivers\peripheral\ctb/cy_ctb.c **** * - \ref Cy_CTB_Fast_Opamp1_Opamp10x
 421:Generated_Source\PSoC6\pdl\drivers\peripheral\ctb/cy_ctb.c **** * - \ref Cy_CTB_Fast_Opamp1_Diffamp
 422:Generated_Source\PSoC6\pdl\drivers\peripheral\ctb/cy_ctb.c **** * - \ref Cy_CTB_Fast_Opamp1_Vdac_Ref_Aref
 423:Generated_Source\PSoC6\pdl\drivers\peripheral\ctb/cy_ctb.c **** * - \ref Cy_CTB_Fast_Opamp1_Vdac_Ref_Pin5
 424:Generated_Source\PSoC6\pdl\drivers\peripheral\ctb/cy_ctb.c **** *
 425:Generated_Source\PSoC6\pdl\drivers\peripheral\ctb/cy_ctb.c **** * \return
 426:Generated_Source\PSoC6\pdl\drivers\peripheral\ctb/cy_ctb.c **** * Status of initialization, \ref CY_CTB_SUCCESS or \ref CY_CTB_BAD_PARAM
 427:Generated_Source\PSoC6\pdl\drivers\peripheral\ctb/cy_ctb.c **** *
ARM GAS  C:\Users\gjl\AppData\Local\Temp\cckcOS93.s 			page 23


 428:Generated_Source\PSoC6\pdl\drivers\peripheral\ctb/cy_ctb.c **** * \funcusage
 429:Generated_Source\PSoC6\pdl\drivers\peripheral\ctb/cy_ctb.c **** *
 430:Generated_Source\PSoC6\pdl\drivers\peripheral\ctb/cy_ctb.c **** * \snippet ctb_sut_01.cydsn/main_cm0p.c SNIPPET_FASTINIT
 431:Generated_Source\PSoC6\pdl\drivers\peripheral\ctb/cy_ctb.c **** *
 432:Generated_Source\PSoC6\pdl\drivers\peripheral\ctb/cy_ctb.c **** *******************************************************************************/
 433:Generated_Source\PSoC6\pdl\drivers\peripheral\ctb/cy_ctb.c **** cy_en_ctb_status_t Cy_CTB_FastInit(CTBM_Type *base, const cy_stc_ctb_fast_config_oa0_t *config0, co
 434:Generated_Source\PSoC6\pdl\drivers\peripheral\ctb/cy_ctb.c **** {
 821              		.loc 1 434 0
 822              		.cfi_startproc
 823              		@ args = 0, pretend = 0, frame = 0
 824              		@ frame_needed = 0, uses_anonymous_args = 0
 825              	.LVL58:
 826 0000 70B5     		push	{r4, r5, r6, lr}
 827              		.cfi_def_cfa_offset 16
 828              		.cfi_offset 4, -16
 829              		.cfi_offset 5, -12
 830              		.cfi_offset 6, -8
 831              		.cfi_offset 14, -4
 832 0002 0C46     		mov	r4, r1
 833 0004 1546     		mov	r5, r2
 435:Generated_Source\PSoC6\pdl\drivers\peripheral\ctb/cy_ctb.c ****     CY_ASSERT_L1(NULL != base);
 834              		.loc 1 435 0
 835 0006 0646     		mov	r6, r0
 836 0008 20B9     		cbnz	r0, .L81
 837              		.loc 1 435 0 is_stmt 0 discriminator 1
 838 000a 40F2B311 		movw	r1, #435
 839              	.LVL59:
 840 000e 5248     		ldr	r0, .L105
 841              	.LVL60:
 842 0010 FFF7FEFF 		bl	Cy_SysLib_AssertFailed
 843              	.LVL61:
 844              	.L81:
 436:Generated_Source\PSoC6\pdl\drivers\peripheral\ctb/cy_ctb.c ****     CY_ASSERT_L1(NULL != config0);
 845              		.loc 1 436 0 is_stmt 1
 846 0014 24B9     		cbnz	r4, .L82
 847              		.loc 1 436 0 is_stmt 0 discriminator 1
 848 0016 4FF4DA71 		mov	r1, #436
 849 001a 4F48     		ldr	r0, .L105
 850 001c FFF7FEFF 		bl	Cy_SysLib_AssertFailed
 851              	.LVL62:
 852              	.L82:
 437:Generated_Source\PSoC6\pdl\drivers\peripheral\ctb/cy_ctb.c ****     CY_ASSERT_L1(NULL != config1);
 853              		.loc 1 437 0 is_stmt 1
 854 0020 25B9     		cbnz	r5, .L83
 855              		.loc 1 437 0 is_stmt 0 discriminator 1
 856 0022 40F2B511 		movw	r1, #437
 857 0026 4C48     		ldr	r0, .L105
 858 0028 FFF7FEFF 		bl	Cy_SysLib_AssertFailed
 859              	.LVL63:
 860              	.L83:
 438:Generated_Source\PSoC6\pdl\drivers\peripheral\ctb/cy_ctb.c **** 
 439:Generated_Source\PSoC6\pdl\drivers\peripheral\ctb/cy_ctb.c ****     cy_en_ctb_status_t result;
 440:Generated_Source\PSoC6\pdl\drivers\peripheral\ctb/cy_ctb.c **** 
 441:Generated_Source\PSoC6\pdl\drivers\peripheral\ctb/cy_ctb.c ****     if ((NULL == base) || (NULL == config0) || (NULL == config1))
 861              		.loc 1 441 0 is_stmt 1
 862 002c 002E     		cmp	r6, #0
 863 002e 00F08D80 		beq	.L97
ARM GAS  C:\Users\gjl\AppData\Local\Temp\cckcOS93.s 			page 24


 864              		.loc 1 441 0 is_stmt 0 discriminator 1
 865 0032 002C     		cmp	r4, #0
 866 0034 00F08C80 		beq	.L98
 867              		.loc 1 441 0 discriminator 2
 868 0038 002D     		cmp	r5, #0
 869 003a 00F08B80 		beq	.L99
 442:Generated_Source\PSoC6\pdl\drivers\peripheral\ctb/cy_ctb.c ****     {
 443:Generated_Source\PSoC6\pdl\drivers\peripheral\ctb/cy_ctb.c ****         result = CY_CTB_BAD_PARAM;
 444:Generated_Source\PSoC6\pdl\drivers\peripheral\ctb/cy_ctb.c ****     }
 445:Generated_Source\PSoC6\pdl\drivers\peripheral\ctb/cy_ctb.c ****     else
 446:Generated_Source\PSoC6\pdl\drivers\peripheral\ctb/cy_ctb.c ****     {
 447:Generated_Source\PSoC6\pdl\drivers\peripheral\ctb/cy_ctb.c ****         /* Enum and boundary checks for config0 */
 448:Generated_Source\PSoC6\pdl\drivers\peripheral\ctb/cy_ctb.c ****         CY_ASSERT_L3(CY_CTB_OAPOWER(config0->oa0Power));
 870              		.loc 1 448 0 is_stmt 1
 871 003e 2378     		ldrb	r3, [r4]	@ zero_extendqisi2
 872 0040 032B     		cmp	r3, #3
 873 0042 04D9     		bls	.L85
 874              		.loc 1 448 0 is_stmt 0 discriminator 1
 875 0044 4FF4E071 		mov	r1, #448
 876 0048 4348     		ldr	r0, .L105
 877 004a FFF7FEFF 		bl	Cy_SysLib_AssertFailed
 878              	.LVL64:
 879              	.L85:
 449:Generated_Source\PSoC6\pdl\drivers\peripheral\ctb/cy_ctb.c ****         CY_ASSERT_L3(CY_CTB_OAMODE(config0->oa0Mode));
 880              		.loc 1 449 0 is_stmt 1
 881 004e 6378     		ldrb	r3, [r4, #1]	@ zero_extendqisi2
 882 0050 43B1     		cbz	r3, .L86
 883              		.loc 1 449 0 is_stmt 0 discriminator 1
 884 0052 082B     		cmp	r3, #8
 885 0054 06D0     		beq	.L86
 886              		.loc 1 449 0 discriminator 2
 887 0056 102B     		cmp	r3, #16
 888 0058 04D0     		beq	.L86
 889              		.loc 1 449 0 discriminator 3
 890 005a 40F2C111 		movw	r1, #449
 891 005e 3E48     		ldr	r0, .L105
 892 0060 FFF7FEFF 		bl	Cy_SysLib_AssertFailed
 893              	.LVL65:
 894              	.L86:
 450:Generated_Source\PSoC6\pdl\drivers\peripheral\ctb/cy_ctb.c ****         CY_ASSERT_L2(CY_CTB_OA0SWITCH(config0->oa0SwitchCtrl));
 895              		.loc 1 450 0 is_stmt 1
 896 0064 6268     		ldr	r2, [r4, #4]
 897 0066 3D4B     		ldr	r3, .L105+4
 898 0068 1340     		ands	r3, r3, r2
 899 006a 23B1     		cbz	r3, .L87
 900              		.loc 1 450 0 is_stmt 0 discriminator 1
 901 006c 4FF4E171 		mov	r1, #450
 902 0070 3948     		ldr	r0, .L105
 903 0072 FFF7FEFF 		bl	Cy_SysLib_AssertFailed
 904              	.LVL66:
 905              	.L87:
 451:Generated_Source\PSoC6\pdl\drivers\peripheral\ctb/cy_ctb.c ****         CY_ASSERT_L2(CY_CTB_CTDSWITCH(config0->ctdSwitchCtrl));
 906              		.loc 1 451 0 is_stmt 1
 907 0076 A368     		ldr	r3, [r4, #8]
 908 0078 23F47743 		bic	r3, r3, #63232
 909 007c 23F03203 		bic	r3, r3, #50
 910 0080 23B1     		cbz	r3, .L88
ARM GAS  C:\Users\gjl\AppData\Local\Temp\cckcOS93.s 			page 25


 911              		.loc 1 451 0 is_stmt 0 discriminator 1
 912 0082 40F2C311 		movw	r1, #451
 913 0086 3448     		ldr	r0, .L105
 914 0088 FFF7FEFF 		bl	Cy_SysLib_AssertFailed
 915              	.LVL67:
 916              	.L88:
 452:Generated_Source\PSoC6\pdl\drivers\peripheral\ctb/cy_ctb.c **** 
 453:Generated_Source\PSoC6\pdl\drivers\peripheral\ctb/cy_ctb.c ****         /* Enum and boundary checks for config1 */
 454:Generated_Source\PSoC6\pdl\drivers\peripheral\ctb/cy_ctb.c ****         CY_ASSERT_L3(CY_CTB_OAPOWER(config1->oa1Power));
 917              		.loc 1 454 0 is_stmt 1
 918 008c 2B78     		ldrb	r3, [r5]	@ zero_extendqisi2
 919 008e 032B     		cmp	r3, #3
 920 0090 04D9     		bls	.L89
 921              		.loc 1 454 0 is_stmt 0 discriminator 1
 922 0092 4FF4E371 		mov	r1, #454
 923 0096 3048     		ldr	r0, .L105
 924 0098 FFF7FEFF 		bl	Cy_SysLib_AssertFailed
 925              	.LVL68:
 926              	.L89:
 455:Generated_Source\PSoC6\pdl\drivers\peripheral\ctb/cy_ctb.c ****         CY_ASSERT_L3(CY_CTB_OAMODE(config1->oa1Mode));
 927              		.loc 1 455 0 is_stmt 1
 928 009c 6B78     		ldrb	r3, [r5, #1]	@ zero_extendqisi2
 929 009e 43B1     		cbz	r3, .L90
 930              		.loc 1 455 0 is_stmt 0 discriminator 1
 931 00a0 082B     		cmp	r3, #8
 932 00a2 06D0     		beq	.L90
 933              		.loc 1 455 0 discriminator 2
 934 00a4 102B     		cmp	r3, #16
 935 00a6 04D0     		beq	.L90
 936              		.loc 1 455 0 discriminator 3
 937 00a8 40F2C711 		movw	r1, #455
 938 00ac 2A48     		ldr	r0, .L105
 939 00ae FFF7FEFF 		bl	Cy_SysLib_AssertFailed
 940              	.LVL69:
 941              	.L90:
 456:Generated_Source\PSoC6\pdl\drivers\peripheral\ctb/cy_ctb.c ****         CY_ASSERT_L2(CY_CTB_OA1SWITCH(config1->oa1SwitchCtrl));
 942              		.loc 1 456 0 is_stmt 1
 943 00b2 6A68     		ldr	r2, [r5, #4]
 944 00b4 2A4B     		ldr	r3, .L105+8
 945 00b6 1340     		ands	r3, r3, r2
 946 00b8 23B1     		cbz	r3, .L91
 947              		.loc 1 456 0 is_stmt 0 discriminator 1
 948 00ba 4FF4E471 		mov	r1, #456
 949 00be 2648     		ldr	r0, .L105
 950 00c0 FFF7FEFF 		bl	Cy_SysLib_AssertFailed
 951              	.LVL70:
 952              	.L91:
 457:Generated_Source\PSoC6\pdl\drivers\peripheral\ctb/cy_ctb.c ****         CY_ASSERT_L2(CY_CTB_CTDSWITCH(config1->ctdSwitchCtrl));
 953              		.loc 1 457 0 is_stmt 1
 954 00c4 AB68     		ldr	r3, [r5, #8]
 955 00c6 23F47743 		bic	r3, r3, #63232
 956 00ca 23F03203 		bic	r3, r3, #50
 957 00ce 23B1     		cbz	r3, .L92
 958              		.loc 1 457 0 is_stmt 0 discriminator 1
 959 00d0 40F2C911 		movw	r1, #457
 960 00d4 2048     		ldr	r0, .L105
 961 00d6 FFF7FEFF 		bl	Cy_SysLib_AssertFailed
ARM GAS  C:\Users\gjl\AppData\Local\Temp\cckcOS93.s 			page 26


 962              	.LVL71:
 963              	.L92:
 458:Generated_Source\PSoC6\pdl\drivers\peripheral\ctb/cy_ctb.c **** 
 459:Generated_Source\PSoC6\pdl\drivers\peripheral\ctb/cy_ctb.c ****         base->CTB_CTRL = (uint32_t) CY_CTB_DEEPSLEEP_DISABLE;
 964              		.loc 1 459 0 is_stmt 1
 965 00da 0023     		movs	r3, #0
 966 00dc 3360     		str	r3, [r6]
 460:Generated_Source\PSoC6\pdl\drivers\peripheral\ctb/cy_ctb.c **** 
 461:Generated_Source\PSoC6\pdl\drivers\peripheral\ctb/cy_ctb.c ****         base->OA_RES0_CTRL = (uint32_t) config0->oa0Power \
 967              		.loc 1 461 0
 968 00de 2378     		ldrb	r3, [r4]	@ zero_extendqisi2
 462:Generated_Source\PSoC6\pdl\drivers\peripheral\ctb/cy_ctb.c ****                              | (uint32_t) config0->oa0Mode \
 969              		.loc 1 462 0
 970 00e0 6278     		ldrb	r2, [r4, #1]	@ zero_extendqisi2
 971 00e2 1343     		orrs	r3, r3, r2
 463:Generated_Source\PSoC6\pdl\drivers\peripheral\ctb/cy_ctb.c ****                              | (uint32_t) CY_CTB_PUMP_ENABLE \
 464:Generated_Source\PSoC6\pdl\drivers\peripheral\ctb/cy_ctb.c ****                              | (uint32_t) CY_CTB_COMP_EDGE_BOTH \
 465:Generated_Source\PSoC6\pdl\drivers\peripheral\ctb/cy_ctb.c ****                              | (uint32_t) CY_CTB_COMP_DSI_TRIGGER_OUT_LEVEL \
 466:Generated_Source\PSoC6\pdl\drivers\peripheral\ctb/cy_ctb.c ****                              | (uint32_t) CY_CTB_COMP_BYPASS_SYNC \
 467:Generated_Source\PSoC6\pdl\drivers\peripheral\ctb/cy_ctb.c ****                              | (uint32_t) CY_CTB_COMP_HYST_10MV \
 468:Generated_Source\PSoC6\pdl\drivers\peripheral\ctb/cy_ctb.c ****                              | ((CY_CTB_MODE_OPAMP1X == config0->oa0Mode) ? CY_CTB_OPAMP_BOOST_ENAB
 972              		.loc 1 468 0
 973 00e4 12B9     		cbnz	r2, .L100
 974 00e6 4FF48052 		mov	r2, #4096
 975 00ea 00E0     		b	.L93
 976              	.L100:
 977 00ec 0022     		movs	r2, #0
 978              	.L93:
 979              		.loc 1 468 0 is_stmt 0 discriminator 4
 980 00ee 1343     		orrs	r3, r3, r2
 981 00f0 43F43A63 		orr	r3, r3, #2976
 461:Generated_Source\PSoC6\pdl\drivers\peripheral\ctb/cy_ctb.c ****                              | (uint32_t) config0->oa0Mode \
 982              		.loc 1 461 0 is_stmt 1 discriminator 4
 983 00f4 7360     		str	r3, [r6, #4]
 469:Generated_Source\PSoC6\pdl\drivers\peripheral\ctb/cy_ctb.c **** 
 470:Generated_Source\PSoC6\pdl\drivers\peripheral\ctb/cy_ctb.c ****         base->OA_RES1_CTRL = (uint32_t) config1->oa1Power \
 984              		.loc 1 470 0 discriminator 4
 985 00f6 2B78     		ldrb	r3, [r5]	@ zero_extendqisi2
 471:Generated_Source\PSoC6\pdl\drivers\peripheral\ctb/cy_ctb.c ****                              | (uint32_t) config1->oa1Mode \
 986              		.loc 1 471 0 discriminator 4
 987 00f8 6A78     		ldrb	r2, [r5, #1]	@ zero_extendqisi2
 988 00fa 1343     		orrs	r3, r3, r2
 472:Generated_Source\PSoC6\pdl\drivers\peripheral\ctb/cy_ctb.c ****                              | (uint32_t) CY_CTB_PUMP_ENABLE \
 473:Generated_Source\PSoC6\pdl\drivers\peripheral\ctb/cy_ctb.c ****                              | (uint32_t) CY_CTB_COMP_EDGE_BOTH \
 474:Generated_Source\PSoC6\pdl\drivers\peripheral\ctb/cy_ctb.c ****                              | (uint32_t) CY_CTB_COMP_DSI_TRIGGER_OUT_LEVEL \
 475:Generated_Source\PSoC6\pdl\drivers\peripheral\ctb/cy_ctb.c ****                              | (uint32_t) CY_CTB_COMP_BYPASS_SYNC \
 476:Generated_Source\PSoC6\pdl\drivers\peripheral\ctb/cy_ctb.c ****                              | (uint32_t) CY_CTB_COMP_HYST_10MV \
 477:Generated_Source\PSoC6\pdl\drivers\peripheral\ctb/cy_ctb.c ****                              | ((CY_CTB_MODE_OPAMP1X == config1->oa1Mode) ? CY_CTB_OPAMP_BOOST_ENAB
 989              		.loc 1 477 0 discriminator 4
 990 00fc 12B9     		cbnz	r2, .L101
 991              		.loc 1 477 0 is_stmt 0
 992 00fe 4FF48052 		mov	r2, #4096
 993 0102 00E0     		b	.L94
 994              	.L101:
 995 0104 0022     		movs	r2, #0
 996              	.L94:
 997              		.loc 1 477 0 discriminator 4
ARM GAS  C:\Users\gjl\AppData\Local\Temp\cckcOS93.s 			page 27


 998 0106 1343     		orrs	r3, r3, r2
 999 0108 43F43A63 		orr	r3, r3, #2976
 470:Generated_Source\PSoC6\pdl\drivers\peripheral\ctb/cy_ctb.c ****                              | (uint32_t) config1->oa1Mode \
 1000              		.loc 1 470 0 is_stmt 1 discriminator 4
 1001 010c B360     		str	r3, [r6, #8]
 478:Generated_Source\PSoC6\pdl\drivers\peripheral\ctb/cy_ctb.c **** 
 479:Generated_Source\PSoC6\pdl\drivers\peripheral\ctb/cy_ctb.c ****         base->INTR_MASK = CTBM_INTR_MASK_COMP0_MASK_Msk | CTBM_INTR_MASK_COMP1_MASK_Msk;
 1002              		.loc 1 479 0 discriminator 4
 1003 010e 0323     		movs	r3, #3
 1004 0110 B362     		str	r3, [r6, #40]
 480:Generated_Source\PSoC6\pdl\drivers\peripheral\ctb/cy_ctb.c **** 
 481:Generated_Source\PSoC6\pdl\drivers\peripheral\ctb/cy_ctb.c ****         base->OA0_COMP_TRIM = (uint32_t) ((config0->oa0Mode == CY_CTB_MODE_OPAMP10X) ? CY_CTB_OPAMP
 1005              		.loc 1 481 0 discriminator 4
 1006 0112 6378     		ldrb	r3, [r4, #1]	@ zero_extendqisi2
 1007 0114 082B     		cmp	r3, #8
 1008 0116 01D1     		bne	.L102
 1009              		.loc 1 481 0 is_stmt 0
 1010 0118 0323     		movs	r3, #3
 1011 011a 00E0     		b	.L95
 1012              	.L102:
 1013 011c 0123     		movs	r3, #1
 1014              	.L95:
 1015              		.loc 1 481 0 discriminator 4
 1016 011e C6F8083F 		str	r3, [r6, #3848]
 482:Generated_Source\PSoC6\pdl\drivers\peripheral\ctb/cy_ctb.c ****         base->OA1_COMP_TRIM = (uint32_t) ((config1->oa1Mode == CY_CTB_MODE_OPAMP10X) ? CY_CTB_OPAMP
 1017              		.loc 1 482 0 is_stmt 1 discriminator 4
 1018 0122 6B78     		ldrb	r3, [r5, #1]	@ zero_extendqisi2
 1019 0124 082B     		cmp	r3, #8
 1020 0126 01D1     		bne	.L103
 1021              		.loc 1 482 0 is_stmt 0
 1022 0128 0323     		movs	r3, #3
 1023 012a 00E0     		b	.L96
 1024              	.L103:
 1025 012c 0123     		movs	r3, #1
 1026              	.L96:
 1027              		.loc 1 482 0 discriminator 4
 1028 012e C6F8143F 		str	r3, [r6, #3860]
 483:Generated_Source\PSoC6\pdl\drivers\peripheral\ctb/cy_ctb.c **** 
 484:Generated_Source\PSoC6\pdl\drivers\peripheral\ctb/cy_ctb.c ****         base->OA0_SW   = config0->oa0SwitchCtrl;
 1029              		.loc 1 484 0 is_stmt 1 discriminator 4
 1030 0132 6368     		ldr	r3, [r4, #4]
 1031 0134 C6F88030 		str	r3, [r6, #128]
 485:Generated_Source\PSoC6\pdl\drivers\peripheral\ctb/cy_ctb.c ****         base->OA1_SW   = config1->oa1SwitchCtrl;
 1032              		.loc 1 485 0 discriminator 4
 1033 0138 6B68     		ldr	r3, [r5, #4]
 1034 013a C6F88830 		str	r3, [r6, #136]
 486:Generated_Source\PSoC6\pdl\drivers\peripheral\ctb/cy_ctb.c ****         base->CTD_SW   = config0->ctdSwitchCtrl | config1->ctdSwitchCtrl;
 1035              		.loc 1 486 0 discriminator 4
 1036 013e A268     		ldr	r2, [r4, #8]
 1037 0140 AB68     		ldr	r3, [r5, #8]
 1038 0142 1343     		orrs	r3, r3, r2
 1039 0144 C6F8A030 		str	r3, [r6, #160]
 1040              	.LVL72:
 487:Generated_Source\PSoC6\pdl\drivers\peripheral\ctb/cy_ctb.c **** 
 488:Generated_Source\PSoC6\pdl\drivers\peripheral\ctb/cy_ctb.c ****         result = CY_CTB_SUCCESS;
 1041              		.loc 1 488 0 discriminator 4
 1042 0148 0020     		movs	r0, #0
ARM GAS  C:\Users\gjl\AppData\Local\Temp\cckcOS93.s 			page 28


 1043 014a 70BD     		pop	{r4, r5, r6, pc}
 1044              	.LVL73:
 1045              	.L97:
 443:Generated_Source\PSoC6\pdl\drivers\peripheral\ctb/cy_ctb.c ****     }
 1046              		.loc 1 443 0
 1047 014c 0548     		ldr	r0, .L105+12
 1048 014e 70BD     		pop	{r4, r5, r6, pc}
 1049              	.LVL74:
 1050              	.L98:
 1051 0150 0448     		ldr	r0, .L105+12
 1052 0152 70BD     		pop	{r4, r5, r6, pc}
 1053              	.LVL75:
 1054              	.L99:
 1055 0154 0348     		ldr	r0, .L105+12
 1056              	.LVL76:
 489:Generated_Source\PSoC6\pdl\drivers\peripheral\ctb/cy_ctb.c ****     }
 490:Generated_Source\PSoC6\pdl\drivers\peripheral\ctb/cy_ctb.c **** 
 491:Generated_Source\PSoC6\pdl\drivers\peripheral\ctb/cy_ctb.c ****     return result;
 492:Generated_Source\PSoC6\pdl\drivers\peripheral\ctb/cy_ctb.c **** }
 1057              		.loc 1 492 0
 1058 0156 70BD     		pop	{r4, r5, r6, pc}
 1059              	.LVL77:
 1060              	.L106:
 1061              		.align	2
 1062              	.L105:
 1063 0158 00000000 		.word	.LC0
 1064 015c F2BEDBFF 		.word	-2375950
 1065 0160 6CBED3FF 		.word	-2900372
 1066 0164 01002E00 		.word	3014657
 1067              		.cfi_endproc
 1068              	.LFE185:
 1069              		.size	Cy_CTB_FastInit, .-Cy_CTB_FastInit
 1070              		.section	.text.Cy_CTB_SetDeepSleepMode,"ax",%progbits
 1071              		.align	2
 1072              		.global	Cy_CTB_SetDeepSleepMode
 1073              		.thumb
 1074              		.thumb_func
 1075              		.type	Cy_CTB_SetDeepSleepMode, %function
 1076              	Cy_CTB_SetDeepSleepMode:
 1077              	.LFB187:
 493:Generated_Source\PSoC6\pdl\drivers\peripheral\ctb/cy_ctb.c **** 
 494:Generated_Source\PSoC6\pdl\drivers\peripheral\ctb/cy_ctb.c **** /*******************************************************************************
 495:Generated_Source\PSoC6\pdl\drivers\peripheral\ctb/cy_ctb.c **** * Function Name: Cy_CTB_SetCurrentMode
 496:Generated_Source\PSoC6\pdl\drivers\peripheral\ctb/cy_ctb.c **** ****************************************************************************//**
 497:Generated_Source\PSoC6\pdl\drivers\peripheral\ctb/cy_ctb.c **** *
 498:Generated_Source\PSoC6\pdl\drivers\peripheral\ctb/cy_ctb.c **** * High level function to configure the current modes of the opamps.
 499:Generated_Source\PSoC6\pdl\drivers\peripheral\ctb/cy_ctb.c **** * This function configures all opamps of the CTB to the same current mode.
 500:Generated_Source\PSoC6\pdl\drivers\peripheral\ctb/cy_ctb.c **** * These modes are differentiated by the reference current level, the opamp
 501:Generated_Source\PSoC6\pdl\drivers\peripheral\ctb/cy_ctb.c **** * input range, and the Deep Sleep mode operation.
 502:Generated_Source\PSoC6\pdl\drivers\peripheral\ctb/cy_ctb.c **** *
 503:Generated_Source\PSoC6\pdl\drivers\peripheral\ctb/cy_ctb.c **** *   - The reference current level is set using \ref Cy_CTB_SetIptatLevel
 504:Generated_Source\PSoC6\pdl\drivers\peripheral\ctb/cy_ctb.c **** *   - When 1 uA current level is used in Deep Sleep,
 505:Generated_Source\PSoC6\pdl\drivers\peripheral\ctb/cy_ctb.c **** *       - All generators in the AREF must be enabled in Deep Sleep. That is,
 506:Generated_Source\PSoC6\pdl\drivers\peripheral\ctb/cy_ctb.c **** *           \ref Cy_SysAnalog_SetDeepSleepMode is called with CY_SYSANALOG_DEEPSLEEP_IPTAT_IZTAT_VR
 507:Generated_Source\PSoC6\pdl\drivers\peripheral\ctb/cy_ctb.c **** *   - When 100 nA current level is used,
 508:Generated_Source\PSoC6\pdl\drivers\peripheral\ctb/cy_ctb.c **** *       - \ref Cy_CTB_EnableRedirect is called to route the AREF IPTAT reference
 509:Generated_Source\PSoC6\pdl\drivers\peripheral\ctb/cy_ctb.c **** *           to the opamp IZTAT and disable the opamps IPTAT.
ARM GAS  C:\Users\gjl\AppData\Local\Temp\cckcOS93.s 			page 29


 510:Generated_Source\PSoC6\pdl\drivers\peripheral\ctb/cy_ctb.c **** *       - The IPTAT generator is enabled in Deep Sleep. That is,
 511:Generated_Source\PSoC6\pdl\drivers\peripheral\ctb/cy_ctb.c **** *           \ref Cy_SysAnalog_SetDeepSleepMode is called with CY_SYSANALOG_DEEPSLEEP_IPTAT_2
 512:Generated_Source\PSoC6\pdl\drivers\peripheral\ctb/cy_ctb.c **** *           unless it is already configured for CY_SYSANALOG_DEEPSLEEP_IPTAT_IZTAT_VREF.
 513:Generated_Source\PSoC6\pdl\drivers\peripheral\ctb/cy_ctb.c **** *
 514:Generated_Source\PSoC6\pdl\drivers\peripheral\ctb/cy_ctb.c **** * \note
 515:Generated_Source\PSoC6\pdl\drivers\peripheral\ctb/cy_ctb.c **** * The IPTAT level is a chip wide configuration so multiple
 516:Generated_Source\PSoC6\pdl\drivers\peripheral\ctb/cy_ctb.c **** * opamps cannot operate at different IPTAT levels.
 517:Generated_Source\PSoC6\pdl\drivers\peripheral\ctb/cy_ctb.c **** * When calling \ref Cy_CTB_SetCurrentMode for a CTB instance on the device,
 518:Generated_Source\PSoC6\pdl\drivers\peripheral\ctb/cy_ctb.c **** * it should be called for all other CTB instances as well.
 519:Generated_Source\PSoC6\pdl\drivers\peripheral\ctb/cy_ctb.c **** *
 520:Generated_Source\PSoC6\pdl\drivers\peripheral\ctb/cy_ctb.c **** * <table class="doxtable">
 521:Generated_Source\PSoC6\pdl\drivers\peripheral\ctb/cy_ctb.c **** *   <tr>
 522:Generated_Source\PSoC6\pdl\drivers\peripheral\ctb/cy_ctb.c **** *     <th>Current Mode</th>
 523:Generated_Source\PSoC6\pdl\drivers\peripheral\ctb/cy_ctb.c **** *     <th>IPTAT Level</th>
 524:Generated_Source\PSoC6\pdl\drivers\peripheral\ctb/cy_ctb.c **** *     <th>Input Range</th>
 525:Generated_Source\PSoC6\pdl\drivers\peripheral\ctb/cy_ctb.c **** *     <th>Deep Sleep Operation</th>
 526:Generated_Source\PSoC6\pdl\drivers\peripheral\ctb/cy_ctb.c **** *   </tr>
 527:Generated_Source\PSoC6\pdl\drivers\peripheral\ctb/cy_ctb.c **** *   <tr>
 528:Generated_Source\PSoC6\pdl\drivers\peripheral\ctb/cy_ctb.c **** *     <td>\ref CY_CTB_CURRENT_HIGH_ACTIVE</td>
 529:Generated_Source\PSoC6\pdl\drivers\peripheral\ctb/cy_ctb.c **** *     <td>1 uA</td>
 530:Generated_Source\PSoC6\pdl\drivers\peripheral\ctb/cy_ctb.c **** *     <td>Rail-to-Rail (charge pump enabled)</td>
 531:Generated_Source\PSoC6\pdl\drivers\peripheral\ctb/cy_ctb.c **** *     <td>Disabled in Deep Sleep</td>
 532:Generated_Source\PSoC6\pdl\drivers\peripheral\ctb/cy_ctb.c **** *   </tr>
 533:Generated_Source\PSoC6\pdl\drivers\peripheral\ctb/cy_ctb.c **** *   <tr>
 534:Generated_Source\PSoC6\pdl\drivers\peripheral\ctb/cy_ctb.c **** *     <td>\ref CY_CTB_CURRENT_HIGH_ACTIVE_DEEPSLEEP</td>
 535:Generated_Source\PSoC6\pdl\drivers\peripheral\ctb/cy_ctb.c **** *     <td>1 uA</td>
 536:Generated_Source\PSoC6\pdl\drivers\peripheral\ctb/cy_ctb.c **** *     <td>0 - VDDA-1.5 V (charge pump disabled)</td>
 537:Generated_Source\PSoC6\pdl\drivers\peripheral\ctb/cy_ctb.c **** *     <td>Enabled in Deep Sleep</td>
 538:Generated_Source\PSoC6\pdl\drivers\peripheral\ctb/cy_ctb.c **** *   </tr>
 539:Generated_Source\PSoC6\pdl\drivers\peripheral\ctb/cy_ctb.c **** *   <tr>
 540:Generated_Source\PSoC6\pdl\drivers\peripheral\ctb/cy_ctb.c **** *     <td>\ref CY_CTB_CURRENT_LOW_ACTIVE_DEEPSLEEP</td>
 541:Generated_Source\PSoC6\pdl\drivers\peripheral\ctb/cy_ctb.c **** *     <td>100 nA</td>
 542:Generated_Source\PSoC6\pdl\drivers\peripheral\ctb/cy_ctb.c **** *     <td>0 - VDDA-1.5 V (charge pump disabled)</td>
 543:Generated_Source\PSoC6\pdl\drivers\peripheral\ctb/cy_ctb.c **** *     <td>Enabled in Deep Sleep</td>
 544:Generated_Source\PSoC6\pdl\drivers\peripheral\ctb/cy_ctb.c **** *   </tr>
 545:Generated_Source\PSoC6\pdl\drivers\peripheral\ctb/cy_ctb.c **** * </table>
 546:Generated_Source\PSoC6\pdl\drivers\peripheral\ctb/cy_ctb.c **** *
 547:Generated_Source\PSoC6\pdl\drivers\peripheral\ctb/cy_ctb.c **** * \note
 548:Generated_Source\PSoC6\pdl\drivers\peripheral\ctb/cy_ctb.c **** * The output range of the opamp is 0.2 V to VDDA - 0.2 V (depending on output load).
 549:Generated_Source\PSoC6\pdl\drivers\peripheral\ctb/cy_ctb.c **** *
 550:Generated_Source\PSoC6\pdl\drivers\peripheral\ctb/cy_ctb.c **** * \param base
 551:Generated_Source\PSoC6\pdl\drivers\peripheral\ctb/cy_ctb.c **** * Pointer to structure describing registers
 552:Generated_Source\PSoC6\pdl\drivers\peripheral\ctb/cy_ctb.c **** *
 553:Generated_Source\PSoC6\pdl\drivers\peripheral\ctb/cy_ctb.c **** * \param currentMode
 554:Generated_Source\PSoC6\pdl\drivers\peripheral\ctb/cy_ctb.c **** * Current mode selection
 555:Generated_Source\PSoC6\pdl\drivers\peripheral\ctb/cy_ctb.c **** *
 556:Generated_Source\PSoC6\pdl\drivers\peripheral\ctb/cy_ctb.c **** * \return None
 557:Generated_Source\PSoC6\pdl\drivers\peripheral\ctb/cy_ctb.c **** *
 558:Generated_Source\PSoC6\pdl\drivers\peripheral\ctb/cy_ctb.c **** * \funcusage
 559:Generated_Source\PSoC6\pdl\drivers\peripheral\ctb/cy_ctb.c **** *
 560:Generated_Source\PSoC6\pdl\drivers\peripheral\ctb/cy_ctb.c **** * \snippet ctb_sut_01.cydsn/main_cm4.c CTB_SNIPPET_SET_CURRENT_MODE
 561:Generated_Source\PSoC6\pdl\drivers\peripheral\ctb/cy_ctb.c **** *
 562:Generated_Source\PSoC6\pdl\drivers\peripheral\ctb/cy_ctb.c **** *******************************************************************************/
 563:Generated_Source\PSoC6\pdl\drivers\peripheral\ctb/cy_ctb.c **** void Cy_CTB_SetCurrentMode(CTBM_Type *base, cy_en_ctb_current_mode_t currentMode)
 564:Generated_Source\PSoC6\pdl\drivers\peripheral\ctb/cy_ctb.c **** {
 565:Generated_Source\PSoC6\pdl\drivers\peripheral\ctb/cy_ctb.c ****     CY_ASSERT_L3(CY_CTB_CURRENTMODE(currentMode));
 566:Generated_Source\PSoC6\pdl\drivers\peripheral\ctb/cy_ctb.c **** 
ARM GAS  C:\Users\gjl\AppData\Local\Temp\cckcOS93.s 			page 30


 567:Generated_Source\PSoC6\pdl\drivers\peripheral\ctb/cy_ctb.c ****     cy_en_sysanalog_deep_sleep_t arefDeepSleep;
 568:Generated_Source\PSoC6\pdl\drivers\peripheral\ctb/cy_ctb.c **** 
 569:Generated_Source\PSoC6\pdl\drivers\peripheral\ctb/cy_ctb.c ****     switch(currentMode)
 570:Generated_Source\PSoC6\pdl\drivers\peripheral\ctb/cy_ctb.c ****     {
 571:Generated_Source\PSoC6\pdl\drivers\peripheral\ctb/cy_ctb.c ****     case CY_CTB_CURRENT_HIGH_ACTIVE:
 572:Generated_Source\PSoC6\pdl\drivers\peripheral\ctb/cy_ctb.c **** 
 573:Generated_Source\PSoC6\pdl\drivers\peripheral\ctb/cy_ctb.c ****         /* Does not disable AREF for Deep Sleep in case the AREF is used by other blocks */
 574:Generated_Source\PSoC6\pdl\drivers\peripheral\ctb/cy_ctb.c **** 
 575:Generated_Source\PSoC6\pdl\drivers\peripheral\ctb/cy_ctb.c ****         /* Use a 1 uA IPTAT level and disable redirection */
 576:Generated_Source\PSoC6\pdl\drivers\peripheral\ctb/cy_ctb.c ****         Cy_CTB_SetIptatLevel(CY_CTB_IPTAT_NORMAL);
 577:Generated_Source\PSoC6\pdl\drivers\peripheral\ctb/cy_ctb.c ****         Cy_CTB_DisableRedirect();
 578:Generated_Source\PSoC6\pdl\drivers\peripheral\ctb/cy_ctb.c **** 
 579:Generated_Source\PSoC6\pdl\drivers\peripheral\ctb/cy_ctb.c ****         /* Disable Deep Sleep mode for the CTB - not opamp specific */
 580:Generated_Source\PSoC6\pdl\drivers\peripheral\ctb/cy_ctb.c ****         Cy_CTB_SetDeepSleepMode(base, CY_CTB_DEEPSLEEP_DISABLE);
 581:Generated_Source\PSoC6\pdl\drivers\peripheral\ctb/cy_ctb.c **** 
 582:Generated_Source\PSoC6\pdl\drivers\peripheral\ctb/cy_ctb.c ****         /* Enable Opamp0 pump */
 583:Generated_Source\PSoC6\pdl\drivers\peripheral\ctb/cy_ctb.c ****         base->OA_RES0_CTRL |= CTBM_OA_RES0_CTRL_OA0_PUMP_EN_Msk;
 584:Generated_Source\PSoC6\pdl\drivers\peripheral\ctb/cy_ctb.c **** 
 585:Generated_Source\PSoC6\pdl\drivers\peripheral\ctb/cy_ctb.c ****         /* Enable Opamp1 pump */
 586:Generated_Source\PSoC6\pdl\drivers\peripheral\ctb/cy_ctb.c ****         base->OA_RES1_CTRL |= CTBM_OA_RES1_CTRL_OA1_PUMP_EN_Msk;
 587:Generated_Source\PSoC6\pdl\drivers\peripheral\ctb/cy_ctb.c **** 
 588:Generated_Source\PSoC6\pdl\drivers\peripheral\ctb/cy_ctb.c ****         break;
 589:Generated_Source\PSoC6\pdl\drivers\peripheral\ctb/cy_ctb.c ****     case CY_CTB_CURRENT_HIGH_ACTIVE_DEEPSLEEP:
 590:Generated_Source\PSoC6\pdl\drivers\peripheral\ctb/cy_ctb.c **** 
 591:Generated_Source\PSoC6\pdl\drivers\peripheral\ctb/cy_ctb.c ****         /* All generators (IPTAT, IZTAT, and VREF) of the AREF block must be enabled for Deep Sleep
 592:Generated_Source\PSoC6\pdl\drivers\peripheral\ctb/cy_ctb.c ****         Cy_SysAnalog_SetDeepSleepMode(CY_SYSANALOG_DEEPSLEEP_IPTAT_IZTAT_VREF);
 593:Generated_Source\PSoC6\pdl\drivers\peripheral\ctb/cy_ctb.c **** 
 594:Generated_Source\PSoC6\pdl\drivers\peripheral\ctb/cy_ctb.c ****         /* Use a 1 uA IPTAT level and disable redirection */
 595:Generated_Source\PSoC6\pdl\drivers\peripheral\ctb/cy_ctb.c ****         Cy_CTB_SetIptatLevel(CY_CTB_IPTAT_NORMAL);
 596:Generated_Source\PSoC6\pdl\drivers\peripheral\ctb/cy_ctb.c ****         Cy_CTB_DisableRedirect();
 597:Generated_Source\PSoC6\pdl\drivers\peripheral\ctb/cy_ctb.c **** 
 598:Generated_Source\PSoC6\pdl\drivers\peripheral\ctb/cy_ctb.c ****         /* Enable Deep Sleep mode for the CTB - not opamp specific */
 599:Generated_Source\PSoC6\pdl\drivers\peripheral\ctb/cy_ctb.c ****         Cy_CTB_SetDeepSleepMode(base, CY_CTB_DEEPSLEEP_ENABLE);
 600:Generated_Source\PSoC6\pdl\drivers\peripheral\ctb/cy_ctb.c **** 
 601:Generated_Source\PSoC6\pdl\drivers\peripheral\ctb/cy_ctb.c ****         /* Disable Opamp0 pump */
 602:Generated_Source\PSoC6\pdl\drivers\peripheral\ctb/cy_ctb.c ****         base->OA_RES0_CTRL &= ~CTBM_OA_RES0_CTRL_OA0_PUMP_EN_Msk;
 603:Generated_Source\PSoC6\pdl\drivers\peripheral\ctb/cy_ctb.c **** 
 604:Generated_Source\PSoC6\pdl\drivers\peripheral\ctb/cy_ctb.c ****         /* Disable Opamp1 pump */
 605:Generated_Source\PSoC6\pdl\drivers\peripheral\ctb/cy_ctb.c ****         base->OA_RES1_CTRL &= ~CTBM_OA_RES1_CTRL_OA1_PUMP_EN_Msk;
 606:Generated_Source\PSoC6\pdl\drivers\peripheral\ctb/cy_ctb.c **** 
 607:Generated_Source\PSoC6\pdl\drivers\peripheral\ctb/cy_ctb.c ****         break;
 608:Generated_Source\PSoC6\pdl\drivers\peripheral\ctb/cy_ctb.c ****     case CY_CTB_CURRENT_LOW_ACTIVE_DEEPSLEEP:
 609:Generated_Source\PSoC6\pdl\drivers\peripheral\ctb/cy_ctb.c ****     default:
 610:Generated_Source\PSoC6\pdl\drivers\peripheral\ctb/cy_ctb.c **** 
 611:Generated_Source\PSoC6\pdl\drivers\peripheral\ctb/cy_ctb.c ****         /* The AREF IPTAT output for the opamps must be enabled in Deep Sleep.
 612:Generated_Source\PSoC6\pdl\drivers\peripheral\ctb/cy_ctb.c ****          * This means a minimum Deep Sleep mode setting of CY_SYSANALOG_DEEPSLEEP_IPTAT_2. */
 613:Generated_Source\PSoC6\pdl\drivers\peripheral\ctb/cy_ctb.c ****         arefDeepSleep = Cy_SysAnalog_GetDeepSleepMode();
 614:Generated_Source\PSoC6\pdl\drivers\peripheral\ctb/cy_ctb.c ****         if ((arefDeepSleep == CY_SYSANALOG_DEEPSLEEP_DISABLE) || (arefDeepSleep == CY_SYSANALOG_DEE
 615:Generated_Source\PSoC6\pdl\drivers\peripheral\ctb/cy_ctb.c ****         {
 616:Generated_Source\PSoC6\pdl\drivers\peripheral\ctb/cy_ctb.c ****             Cy_SysAnalog_SetDeepSleepMode(CY_SYSANALOG_DEEPSLEEP_IPTAT_2);
 617:Generated_Source\PSoC6\pdl\drivers\peripheral\ctb/cy_ctb.c ****         }
 618:Generated_Source\PSoC6\pdl\drivers\peripheral\ctb/cy_ctb.c **** 
 619:Generated_Source\PSoC6\pdl\drivers\peripheral\ctb/cy_ctb.c ****         /* Use a 100 nA IPTAT level and enable redirection */
 620:Generated_Source\PSoC6\pdl\drivers\peripheral\ctb/cy_ctb.c ****         Cy_CTB_SetIptatLevel(CY_CTB_IPTAT_LOW);
 621:Generated_Source\PSoC6\pdl\drivers\peripheral\ctb/cy_ctb.c ****         Cy_CTB_EnableRedirect();
 622:Generated_Source\PSoC6\pdl\drivers\peripheral\ctb/cy_ctb.c **** 
 623:Generated_Source\PSoC6\pdl\drivers\peripheral\ctb/cy_ctb.c ****         /* Enable Deep Sleep mode for the CTB - not opamp specific */
ARM GAS  C:\Users\gjl\AppData\Local\Temp\cckcOS93.s 			page 31


 624:Generated_Source\PSoC6\pdl\drivers\peripheral\ctb/cy_ctb.c ****         Cy_CTB_SetDeepSleepMode(base, CY_CTB_DEEPSLEEP_ENABLE);
 625:Generated_Source\PSoC6\pdl\drivers\peripheral\ctb/cy_ctb.c **** 
 626:Generated_Source\PSoC6\pdl\drivers\peripheral\ctb/cy_ctb.c ****         /* Disable Opamp0 pump */
 627:Generated_Source\PSoC6\pdl\drivers\peripheral\ctb/cy_ctb.c ****         base->OA_RES0_CTRL &= ~CTBM_OA_RES0_CTRL_OA0_PUMP_EN_Msk;
 628:Generated_Source\PSoC6\pdl\drivers\peripheral\ctb/cy_ctb.c **** 
 629:Generated_Source\PSoC6\pdl\drivers\peripheral\ctb/cy_ctb.c ****         /* Disable Opamp1 pump */
 630:Generated_Source\PSoC6\pdl\drivers\peripheral\ctb/cy_ctb.c ****         base->OA_RES1_CTRL &= ~CTBM_OA_RES1_CTRL_OA1_PUMP_EN_Msk;
 631:Generated_Source\PSoC6\pdl\drivers\peripheral\ctb/cy_ctb.c ****         break;
 632:Generated_Source\PSoC6\pdl\drivers\peripheral\ctb/cy_ctb.c ****     }
 633:Generated_Source\PSoC6\pdl\drivers\peripheral\ctb/cy_ctb.c **** }
 634:Generated_Source\PSoC6\pdl\drivers\peripheral\ctb/cy_ctb.c **** 
 635:Generated_Source\PSoC6\pdl\drivers\peripheral\ctb/cy_ctb.c **** /*******************************************************************************
 636:Generated_Source\PSoC6\pdl\drivers\peripheral\ctb/cy_ctb.c **** * Function Name: Cy_CTB_SetDeepSleepMode
 637:Generated_Source\PSoC6\pdl\drivers\peripheral\ctb/cy_ctb.c **** ****************************************************************************//**
 638:Generated_Source\PSoC6\pdl\drivers\peripheral\ctb/cy_ctb.c **** *
 639:Generated_Source\PSoC6\pdl\drivers\peripheral\ctb/cy_ctb.c **** * Enable or disable the entire CTB (not per opamp) in Deep Sleep mode.
 640:Generated_Source\PSoC6\pdl\drivers\peripheral\ctb/cy_ctb.c **** *
 641:Generated_Source\PSoC6\pdl\drivers\peripheral\ctb/cy_ctb.c **** * If enabled, the AREF block must also be enabled for Deep Sleep to provide
 642:Generated_Source\PSoC6\pdl\drivers\peripheral\ctb/cy_ctb.c **** * the needed reference currents to the opamps (see \ref Cy_SysAnalog_SetDeepSleepMode).
 643:Generated_Source\PSoC6\pdl\drivers\peripheral\ctb/cy_ctb.c **** * Additionally, ensure that only internal CTB switches are used for routing.
 644:Generated_Source\PSoC6\pdl\drivers\peripheral\ctb/cy_ctb.c **** * Switches on AMUXBUSA and AMUXBUSB are not enabled in Deep Sleep.
 645:Generated_Source\PSoC6\pdl\drivers\peripheral\ctb/cy_ctb.c **** * See the \ref group_ctb_dependencies section for more information.
 646:Generated_Source\PSoC6\pdl\drivers\peripheral\ctb/cy_ctb.c **** *
 647:Generated_Source\PSoC6\pdl\drivers\peripheral\ctb/cy_ctb.c **** * \note
 648:Generated_Source\PSoC6\pdl\drivers\peripheral\ctb/cy_ctb.c **** * In Deep Sleep mode, the charge pumps are disabled so the input
 649:Generated_Source\PSoC6\pdl\drivers\peripheral\ctb/cy_ctb.c **** * range of the opamps is reduced to 0 V to VDDA - 1.5 V.
 650:Generated_Source\PSoC6\pdl\drivers\peripheral\ctb/cy_ctb.c **** *
 651:Generated_Source\PSoC6\pdl\drivers\peripheral\ctb/cy_ctb.c **** * \param base
 652:Generated_Source\PSoC6\pdl\drivers\peripheral\ctb/cy_ctb.c **** * Pointer to structure describing registers
 653:Generated_Source\PSoC6\pdl\drivers\peripheral\ctb/cy_ctb.c **** *
 654:Generated_Source\PSoC6\pdl\drivers\peripheral\ctb/cy_ctb.c **** * \param deepSleep
 655:Generated_Source\PSoC6\pdl\drivers\peripheral\ctb/cy_ctb.c **** * \ref CY_CTB_DEEPSLEEP_DISABLE or \ref CY_CTB_DEEPSLEEP_ENABLE from
 656:Generated_Source\PSoC6\pdl\drivers\peripheral\ctb/cy_ctb.c **** * \ref cy_en_ctb_deep_sleep_t.
 657:Generated_Source\PSoC6\pdl\drivers\peripheral\ctb/cy_ctb.c **** *
 658:Generated_Source\PSoC6\pdl\drivers\peripheral\ctb/cy_ctb.c **** * \return None
 659:Generated_Source\PSoC6\pdl\drivers\peripheral\ctb/cy_ctb.c **** *
 660:Generated_Source\PSoC6\pdl\drivers\peripheral\ctb/cy_ctb.c **** * \funcusage
 661:Generated_Source\PSoC6\pdl\drivers\peripheral\ctb/cy_ctb.c **** *
 662:Generated_Source\PSoC6\pdl\drivers\peripheral\ctb/cy_ctb.c **** * \snippet ctb_sut_01.cydsn/main_cm4.c CTB_SNIPPET_SET_DEEPSLEEP_MODE
 663:Generated_Source\PSoC6\pdl\drivers\peripheral\ctb/cy_ctb.c **** *
 664:Generated_Source\PSoC6\pdl\drivers\peripheral\ctb/cy_ctb.c **** *******************************************************************************/
 665:Generated_Source\PSoC6\pdl\drivers\peripheral\ctb/cy_ctb.c **** void Cy_CTB_SetDeepSleepMode(CTBM_Type *base, cy_en_ctb_deep_sleep_t deepSleep)
 666:Generated_Source\PSoC6\pdl\drivers\peripheral\ctb/cy_ctb.c **** {
 1078              		.loc 1 666 0
 1079              		.cfi_startproc
 1080              		@ args = 0, pretend = 0, frame = 0
 1081              		@ frame_needed = 0, uses_anonymous_args = 0
 1082              	.LVL78:
 1083 0000 38B5     		push	{r3, r4, r5, lr}
 1084              		.cfi_def_cfa_offset 16
 1085              		.cfi_offset 3, -16
 1086              		.cfi_offset 4, -12
 1087              		.cfi_offset 5, -8
 1088              		.cfi_offset 14, -4
 1089 0002 0446     		mov	r4, r0
 667:Generated_Source\PSoC6\pdl\drivers\peripheral\ctb/cy_ctb.c ****     CY_ASSERT_L3(CY_CTB_DEEPSLEEP(deepSleep));
 1090              		.loc 1 667 0
ARM GAS  C:\Users\gjl\AppData\Local\Temp\cckcOS93.s 			page 32


 1091 0004 0D46     		mov	r5, r1
 1092 0006 39B1     		cbz	r1, .L108
 1093              		.loc 1 667 0 is_stmt 0 discriminator 1
 1094 0008 B1F1804F 		cmp	r1, #1073741824
 1095 000c 04D0     		beq	.L108
 1096              		.loc 1 667 0 discriminator 2
 1097 000e 40F29B21 		movw	r1, #667
 1098              	.LVL79:
 1099 0012 0448     		ldr	r0, .L110
 1100              	.LVL80:
 1101 0014 FFF7FEFF 		bl	Cy_SysLib_AssertFailed
 1102              	.LVL81:
 1103              	.L108:
 668:Generated_Source\PSoC6\pdl\drivers\peripheral\ctb/cy_ctb.c **** 
 669:Generated_Source\PSoC6\pdl\drivers\peripheral\ctb/cy_ctb.c ****     uint32_t ctbCtrl;
 670:Generated_Source\PSoC6\pdl\drivers\peripheral\ctb/cy_ctb.c **** 
 671:Generated_Source\PSoC6\pdl\drivers\peripheral\ctb/cy_ctb.c ****     ctbCtrl = base->CTB_CTRL & ~CTBM_CTB_CTRL_DEEPSLEEP_ON_Msk;
 1104              		.loc 1 671 0 is_stmt 1
 1105 0018 2168     		ldr	r1, [r4]
 1106 001a 21F08041 		bic	r1, r1, #1073741824
 1107              	.LVL82:
 672:Generated_Source\PSoC6\pdl\drivers\peripheral\ctb/cy_ctb.c **** 
 673:Generated_Source\PSoC6\pdl\drivers\peripheral\ctb/cy_ctb.c ****     base->CTB_CTRL = ctbCtrl | (uint32_t)deepSleep;
 1108              		.loc 1 673 0
 1109 001e 2943     		orrs	r1, r1, r5
 1110              	.LVL83:
 1111 0020 2160     		str	r1, [r4]
 1112 0022 38BD     		pop	{r3, r4, r5, pc}
 1113              	.LVL84:
 1114              	.L111:
 1115              		.align	2
 1116              	.L110:
 1117 0024 00000000 		.word	.LC0
 1118              		.cfi_endproc
 1119              	.LFE187:
 1120              		.size	Cy_CTB_SetDeepSleepMode, .-Cy_CTB_SetDeepSleepMode
 1121              		.section	.text.Cy_CTB_SetCurrentMode,"ax",%progbits
 1122              		.align	2
 1123              		.global	Cy_CTB_SetCurrentMode
 1124              		.thumb
 1125              		.thumb_func
 1126              		.type	Cy_CTB_SetCurrentMode, %function
 1127              	Cy_CTB_SetCurrentMode:
 1128              	.LFB186:
 564:Generated_Source\PSoC6\pdl\drivers\peripheral\ctb/cy_ctb.c ****     CY_ASSERT_L3(CY_CTB_CURRENTMODE(currentMode));
 1129              		.loc 1 564 0
 1130              		.cfi_startproc
 1131              		@ args = 0, pretend = 0, frame = 0
 1132              		@ frame_needed = 0, uses_anonymous_args = 0
 1133              	.LVL85:
 1134 0000 38B5     		push	{r3, r4, r5, lr}
 1135              		.cfi_def_cfa_offset 16
 1136              		.cfi_offset 3, -16
 1137              		.cfi_offset 4, -12
 1138              		.cfi_offset 5, -8
 1139              		.cfi_offset 14, -4
 1140 0002 0446     		mov	r4, r0
ARM GAS  C:\Users\gjl\AppData\Local\Temp\cckcOS93.s 			page 33


 1141 0004 0D46     		mov	r5, r1
 565:Generated_Source\PSoC6\pdl\drivers\peripheral\ctb/cy_ctb.c **** 
 1142              		.loc 1 565 0
 1143 0006 0229     		cmp	r1, #2
 1144 0008 04D9     		bls	.L113
 565:Generated_Source\PSoC6\pdl\drivers\peripheral\ctb/cy_ctb.c **** 
 1145              		.loc 1 565 0 is_stmt 0 discriminator 1
 1146 000a 40F23521 		movw	r1, #565
 1147              	.LVL86:
 1148 000e 2F48     		ldr	r0, .L122
 1149              	.LVL87:
 1150 0010 FFF7FEFF 		bl	Cy_SysLib_AssertFailed
 1151              	.LVL88:
 1152              	.L113:
 569:Generated_Source\PSoC6\pdl\drivers\peripheral\ctb/cy_ctb.c ****     {
 1153              		.loc 1 569 0 is_stmt 1
 1154 0014 15B1     		cbz	r5, .L115
 1155 0016 012D     		cmp	r5, #1
 1156 0018 16D0     		beq	.L116
 1157 001a 30E0     		b	.L120
 1158              	.L115:
 1159              	.LVL89:
 1160              	.LBB20:
 1161              	.LBB21:
 1162              		.file 2 "Generated_Source\\PSoC6\\pdl\\drivers/peripheral/ctb/cy_ctb.h"
   1:Generated_Source\PSoC6\pdl\drivers\peripheral\ctb/cy_ctb.h **** /***************************************************************************//**
   2:Generated_Source\PSoC6\pdl\drivers\peripheral\ctb/cy_ctb.h **** * \file cy_ctb.h
   3:Generated_Source\PSoC6\pdl\drivers\peripheral\ctb/cy_ctb.h **** * \version 1.0
   4:Generated_Source\PSoC6\pdl\drivers\peripheral\ctb/cy_ctb.h **** *
   5:Generated_Source\PSoC6\pdl\drivers\peripheral\ctb/cy_ctb.h **** * Header file for the CTB driver
   6:Generated_Source\PSoC6\pdl\drivers\peripheral\ctb/cy_ctb.h **** *
   7:Generated_Source\PSoC6\pdl\drivers\peripheral\ctb/cy_ctb.h **** ********************************************************************************
   8:Generated_Source\PSoC6\pdl\drivers\peripheral\ctb/cy_ctb.h **** * \copyright
   9:Generated_Source\PSoC6\pdl\drivers\peripheral\ctb/cy_ctb.h **** * Copyright 2017-2018, Cypress Semiconductor Corporation. All rights reserved.
  10:Generated_Source\PSoC6\pdl\drivers\peripheral\ctb/cy_ctb.h **** * You may use this file only in accordance with the license, terms, conditions,
  11:Generated_Source\PSoC6\pdl\drivers\peripheral\ctb/cy_ctb.h **** * disclaimers, and limitations in the end user license agreement accompanying
  12:Generated_Source\PSoC6\pdl\drivers\peripheral\ctb/cy_ctb.h **** * the software package with which this file was provided.
  13:Generated_Source\PSoC6\pdl\drivers\peripheral\ctb/cy_ctb.h **** *******************************************************************************/
  14:Generated_Source\PSoC6\pdl\drivers\peripheral\ctb/cy_ctb.h **** 
  15:Generated_Source\PSoC6\pdl\drivers\peripheral\ctb/cy_ctb.h **** /**
  16:Generated_Source\PSoC6\pdl\drivers\peripheral\ctb/cy_ctb.h **** * \defgroup group_ctb Continuous Time Block (CTB)
  17:Generated_Source\PSoC6\pdl\drivers\peripheral\ctb/cy_ctb.h **** * \{
  18:Generated_Source\PSoC6\pdl\drivers\peripheral\ctb/cy_ctb.h **** * This driver provides API functions to configure and use the analog CTB.
  19:Generated_Source\PSoC6\pdl\drivers\peripheral\ctb/cy_ctb.h **** * The CTB comprises two identical opamps, a switch routing matrix,
  20:Generated_Source\PSoC6\pdl\drivers\peripheral\ctb/cy_ctb.h **** * and a sample and hold (SH) circuit. The high level features are:
  21:Generated_Source\PSoC6\pdl\drivers\peripheral\ctb/cy_ctb.h **** *
  22:Generated_Source\PSoC6\pdl\drivers\peripheral\ctb/cy_ctb.h **** *   - Two highly configurable opamps
  23:Generated_Source\PSoC6\pdl\drivers\peripheral\ctb/cy_ctb.h **** *       - Each opamp has programmable power and output drive strength
  24:Generated_Source\PSoC6\pdl\drivers\peripheral\ctb/cy_ctb.h **** *       - Each opamp can be configured as a voltage follower using internal routing
  25:Generated_Source\PSoC6\pdl\drivers\peripheral\ctb/cy_ctb.h **** *       - Each opamp can be configured as a comparator with optional 10 mV hysteresis
  26:Generated_Source\PSoC6\pdl\drivers\peripheral\ctb/cy_ctb.h **** *   - Flexible input and output routing
  27:Generated_Source\PSoC6\pdl\drivers\peripheral\ctb/cy_ctb.h **** *   - Works as a buffer or amplifier for SAR ADC inputs
  28:Generated_Source\PSoC6\pdl\drivers\peripheral\ctb/cy_ctb.h **** *   - Works as a buffer, amplifier, or sample and hold (SH) for the CTDAC output
  29:Generated_Source\PSoC6\pdl\drivers\peripheral\ctb/cy_ctb.h **** *   - Can operate in Deep Sleep power mode
  30:Generated_Source\PSoC6\pdl\drivers\peripheral\ctb/cy_ctb.h **** *
  31:Generated_Source\PSoC6\pdl\drivers\peripheral\ctb/cy_ctb.h **** * Each opamp, marked OA0 and OA1, has one input and three output stages,
  32:Generated_Source\PSoC6\pdl\drivers\peripheral\ctb/cy_ctb.h **** * all of which share the common input stage.
ARM GAS  C:\Users\gjl\AppData\Local\Temp\cckcOS93.s 			page 34


  33:Generated_Source\PSoC6\pdl\drivers\peripheral\ctb/cy_ctb.h **** * Note that only one output stage can be selected at a time.
  34:Generated_Source\PSoC6\pdl\drivers\peripheral\ctb/cy_ctb.h **** * The output stage can operate as a low-drive strength opamp for internal connections (1X), a high-
  35:Generated_Source\PSoC6\pdl\drivers\peripheral\ctb/cy_ctb.h **** * opamp for driving a device pin (10X), or a comparator.
  36:Generated_Source\PSoC6\pdl\drivers\peripheral\ctb/cy_ctb.h **** *
  37:Generated_Source\PSoC6\pdl\drivers\peripheral\ctb/cy_ctb.h **** * Using the switching matrix, the opamp inputs and outputs
  38:Generated_Source\PSoC6\pdl\drivers\peripheral\ctb/cy_ctb.h **** * can be connected to dedicated general-purpose I/Os or other internal analog
  39:Generated_Source\PSoC6\pdl\drivers\peripheral\ctb/cy_ctb.h **** * blocks. See the device datasheet for the dedicated CTB port.
  40:Generated_Source\PSoC6\pdl\drivers\peripheral\ctb/cy_ctb.h **** *
  41:Generated_Source\PSoC6\pdl\drivers\peripheral\ctb/cy_ctb.h **** * \image html ctb_block_diagram.png "CTB Switch Diagram" width=1000px
  42:Generated_Source\PSoC6\pdl\drivers\peripheral\ctb/cy_ctb.h **** * \image latex ctb_block_diagram.png
  43:Generated_Source\PSoC6\pdl\drivers\peripheral\ctb/cy_ctb.h **** *
  44:Generated_Source\PSoC6\pdl\drivers\peripheral\ctb/cy_ctb.h **** * \section group_ctb_init Initialization and Enable
  45:Generated_Source\PSoC6\pdl\drivers\peripheral\ctb/cy_ctb.h **** *
  46:Generated_Source\PSoC6\pdl\drivers\peripheral\ctb/cy_ctb.h **** * Before enabling the CTB, set up any external components (such as resistors)
  47:Generated_Source\PSoC6\pdl\drivers\peripheral\ctb/cy_ctb.h **** * that are needed for the design. To configure the entire hardware block, call \ref Cy_CTB_Init.
  48:Generated_Source\PSoC6\pdl\drivers\peripheral\ctb/cy_ctb.h **** * The base address of the CTB hardware can be found in the device specific header file.
  49:Generated_Source\PSoC6\pdl\drivers\peripheral\ctb/cy_ctb.h **** * Alternatively, to configure only one opamp without any routing, call \ref Cy_CTB_OpampInit.
  50:Generated_Source\PSoC6\pdl\drivers\peripheral\ctb/cy_ctb.h **** * The driver also provides a \ref Cy_CTB_FastInit function for fast and easy initialization of the 
  51:Generated_Source\PSoC6\pdl\drivers\peripheral\ctb/cy_ctb.h **** * based on commonly used configurations. They are pre-defined in the driver as:
  52:Generated_Source\PSoC6\pdl\drivers\peripheral\ctb/cy_ctb.h **** *
  53:Generated_Source\PSoC6\pdl\drivers\peripheral\ctb/cy_ctb.h **** * <b> Opamp0 </b>
  54:Generated_Source\PSoC6\pdl\drivers\peripheral\ctb/cy_ctb.h **** * - \ref Cy_CTB_Fast_Opamp0_Unused
  55:Generated_Source\PSoC6\pdl\drivers\peripheral\ctb/cy_ctb.h **** * - \ref Cy_CTB_Fast_Opamp0_Comp
  56:Generated_Source\PSoC6\pdl\drivers\peripheral\ctb/cy_ctb.h **** * - \ref Cy_CTB_Fast_Opamp0_Opamp1x
  57:Generated_Source\PSoC6\pdl\drivers\peripheral\ctb/cy_ctb.h **** * - \ref Cy_CTB_Fast_Opamp0_Opamp10x
  58:Generated_Source\PSoC6\pdl\drivers\peripheral\ctb/cy_ctb.h **** * - \ref Cy_CTB_Fast_Opamp0_Diffamp
  59:Generated_Source\PSoC6\pdl\drivers\peripheral\ctb/cy_ctb.h **** * - \ref Cy_CTB_Fast_Opamp0_Vdac_Out
  60:Generated_Source\PSoC6\pdl\drivers\peripheral\ctb/cy_ctb.h **** * - \ref Cy_CTB_Fast_Opamp0_Vdac_Out_SH
  61:Generated_Source\PSoC6\pdl\drivers\peripheral\ctb/cy_ctb.h **** *
  62:Generated_Source\PSoC6\pdl\drivers\peripheral\ctb/cy_ctb.h **** * <b> Opamp1 </b>
  63:Generated_Source\PSoC6\pdl\drivers\peripheral\ctb/cy_ctb.h **** * - \ref Cy_CTB_Fast_Opamp1_Unused
  64:Generated_Source\PSoC6\pdl\drivers\peripheral\ctb/cy_ctb.h **** * - \ref Cy_CTB_Fast_Opamp1_Comp
  65:Generated_Source\PSoC6\pdl\drivers\peripheral\ctb/cy_ctb.h **** * - \ref Cy_CTB_Fast_Opamp1_Opamp1x
  66:Generated_Source\PSoC6\pdl\drivers\peripheral\ctb/cy_ctb.h **** * - \ref Cy_CTB_Fast_Opamp1_Opamp10x
  67:Generated_Source\PSoC6\pdl\drivers\peripheral\ctb/cy_ctb.h **** * - \ref Cy_CTB_Fast_Opamp1_Diffamp
  68:Generated_Source\PSoC6\pdl\drivers\peripheral\ctb/cy_ctb.h **** * - \ref Cy_CTB_Fast_Opamp1_Vdac_Ref_Aref
  69:Generated_Source\PSoC6\pdl\drivers\peripheral\ctb/cy_ctb.h **** * - \ref Cy_CTB_Fast_Opamp1_Vdac_Ref_Pin5
  70:Generated_Source\PSoC6\pdl\drivers\peripheral\ctb/cy_ctb.h **** *
  71:Generated_Source\PSoC6\pdl\drivers\peripheral\ctb/cy_ctb.h **** * After initialization, call \ref Cy_CTB_Enable to enable the hardware.
  72:Generated_Source\PSoC6\pdl\drivers\peripheral\ctb/cy_ctb.h **** *
  73:Generated_Source\PSoC6\pdl\drivers\peripheral\ctb/cy_ctb.h **** * \section group_ctb_io_connections Input/Output Connections
  74:Generated_Source\PSoC6\pdl\drivers\peripheral\ctb/cy_ctb.h **** *
  75:Generated_Source\PSoC6\pdl\drivers\peripheral\ctb/cy_ctb.h **** * The CTB has internal switches to support flexible input and output routing. If these switches
  76:Generated_Source\PSoC6\pdl\drivers\peripheral\ctb/cy_ctb.h **** * have not been configured during initialization, call \ref Cy_CTB_SetAnalogSwitch to
  77:Generated_Source\PSoC6\pdl\drivers\peripheral\ctb/cy_ctb.h **** * make the input and output connections.
  78:Generated_Source\PSoC6\pdl\drivers\peripheral\ctb/cy_ctb.h **** *
  79:Generated_Source\PSoC6\pdl\drivers\peripheral\ctb/cy_ctb.h **** * \snippet ctb_sut_01.cydsn/main_cm4.c CTB_SNIPPET_SET_ANALOG_SWITCH
  80:Generated_Source\PSoC6\pdl\drivers\peripheral\ctb/cy_ctb.h **** *
  81:Generated_Source\PSoC6\pdl\drivers\peripheral\ctb/cy_ctb.h **** * As shown in the CTB switch diagram, the 10x output of OA0 and OA1 have dedicated
  82:Generated_Source\PSoC6\pdl\drivers\peripheral\ctb/cy_ctb.h **** * connections to Pin 2 and Pin 3, respectively, of the CTB port. If different output
  83:Generated_Source\PSoC6\pdl\drivers\peripheral\ctb/cy_ctb.h **** * connections are required, the other CTB switches and/or AMUXBUX A/B switches can be used.
  84:Generated_Source\PSoC6\pdl\drivers\peripheral\ctb/cy_ctb.h **** *
  85:Generated_Source\PSoC6\pdl\drivers\peripheral\ctb/cy_ctb.h **** * \section group_ctb_comparator Comparator Mode
  86:Generated_Source\PSoC6\pdl\drivers\peripheral\ctb/cy_ctb.h **** *
  87:Generated_Source\PSoC6\pdl\drivers\peripheral\ctb/cy_ctb.h **** * Each opamp can be configured as a comparator. Note that when used as a
  88:Generated_Source\PSoC6\pdl\drivers\peripheral\ctb/cy_ctb.h **** * comparator, the hardware shuts down the 1X and 10X output drivers.
  89:Generated_Source\PSoC6\pdl\drivers\peripheral\ctb/cy_ctb.h **** * Specific to the comparator mode, there is an optional 10 mV input hysteresis
ARM GAS  C:\Users\gjl\AppData\Local\Temp\cckcOS93.s 			page 35


  90:Generated_Source\PSoC6\pdl\drivers\peripheral\ctb/cy_ctb.h **** * and configurable edge detection interrupt handling.
  91:Generated_Source\PSoC6\pdl\drivers\peripheral\ctb/cy_ctb.h **** *
  92:Generated_Source\PSoC6\pdl\drivers\peripheral\ctb/cy_ctb.h **** * - Negative input terminal: This input is usually connected to the reference voltage.
  93:Generated_Source\PSoC6\pdl\drivers\peripheral\ctb/cy_ctb.h **** * - Positive input terminal: This input is usually connected to the voltage that is being compared.
  94:Generated_Source\PSoC6\pdl\drivers\peripheral\ctb/cy_ctb.h **** * - Comparator digital output: This output goes high when the positive input voltage
  95:Generated_Source\PSoC6\pdl\drivers\peripheral\ctb/cy_ctb.h **** *   is greater than the negative input voltage.
  96:Generated_Source\PSoC6\pdl\drivers\peripheral\ctb/cy_ctb.h **** *
  97:Generated_Source\PSoC6\pdl\drivers\peripheral\ctb/cy_ctb.h **** * The comparator output can be routed to a pin or other components using HSIOM or trigger muxes.
  98:Generated_Source\PSoC6\pdl\drivers\peripheral\ctb/cy_ctb.h **** *
  99:Generated_Source\PSoC6\pdl\drivers\peripheral\ctb/cy_ctb.h **** * \snippet ctb_sut_01.cydsn/main_cm0p.c SNIPPET_COMP_OUT_ROUTING
 100:Generated_Source\PSoC6\pdl\drivers\peripheral\ctb/cy_ctb.h **** *
 101:Generated_Source\PSoC6\pdl\drivers\peripheral\ctb/cy_ctb.h **** * \subsection group_ctb_comparator_handling_interrupts Handling interrupts
 102:Generated_Source\PSoC6\pdl\drivers\peripheral\ctb/cy_ctb.h **** *
 103:Generated_Source\PSoC6\pdl\drivers\peripheral\ctb/cy_ctb.h **** * The comparator output is connected to an edge detector
 104:Generated_Source\PSoC6\pdl\drivers\peripheral\ctb/cy_ctb.h **** * block, which is used to detect the edge (rising, falling, both, or disabled)
 105:Generated_Source\PSoC6\pdl\drivers\peripheral\ctb/cy_ctb.h **** * for interrupt generation.
 106:Generated_Source\PSoC6\pdl\drivers\peripheral\ctb/cy_ctb.h **** *
 107:Generated_Source\PSoC6\pdl\drivers\peripheral\ctb/cy_ctb.h **** * The following code snippet demonstrates how to implement a routine to handle the interrupt.
 108:Generated_Source\PSoC6\pdl\drivers\peripheral\ctb/cy_ctb.h **** * The routine gets called when any comparator on the device generates an interrupt.
 109:Generated_Source\PSoC6\pdl\drivers\peripheral\ctb/cy_ctb.h **** *
 110:Generated_Source\PSoC6\pdl\drivers\peripheral\ctb/cy_ctb.h **** * \snippet ctb_sut_01.cydsn/main_cm0p.c SNIPPET_COMP_ISR
 111:Generated_Source\PSoC6\pdl\drivers\peripheral\ctb/cy_ctb.h **** *
 112:Generated_Source\PSoC6\pdl\drivers\peripheral\ctb/cy_ctb.h **** * The following code snippet demonstrates how to configure and enable the interrupt.
 113:Generated_Source\PSoC6\pdl\drivers\peripheral\ctb/cy_ctb.h **** *
 114:Generated_Source\PSoC6\pdl\drivers\peripheral\ctb/cy_ctb.h **** * \snippet ctb_sut_01.cydsn/main_cm0p.c SNIPPET_COMP_INTR_SETUP
 115:Generated_Source\PSoC6\pdl\drivers\peripheral\ctb/cy_ctb.h **** *
 116:Generated_Source\PSoC6\pdl\drivers\peripheral\ctb/cy_ctb.h **** * \section group_ctb_opamp_range Opamp Input and Output Range
 117:Generated_Source\PSoC6\pdl\drivers\peripheral\ctb/cy_ctb.h **** *
 118:Generated_Source\PSoC6\pdl\drivers\peripheral\ctb/cy_ctb.h **** * The input range of the opamp can be rail-to-rail if the charge pump is enabled.
 119:Generated_Source\PSoC6\pdl\drivers\peripheral\ctb/cy_ctb.h **** * Without the charge pump, the input range is 0 V to VDDA - 1.5 V. The output range
 120:Generated_Source\PSoC6\pdl\drivers\peripheral\ctb/cy_ctb.h **** * of the opamp is typically 0.2 V to VDDA - 0.2 V and will depend on the load. See the
 121:Generated_Source\PSoC6\pdl\drivers\peripheral\ctb/cy_ctb.h **** * device datasheet for more detail.
 122:Generated_Source\PSoC6\pdl\drivers\peripheral\ctb/cy_ctb.h **** *
 123:Generated_Source\PSoC6\pdl\drivers\peripheral\ctb/cy_ctb.h **** * <table class="doxtable">
 124:Generated_Source\PSoC6\pdl\drivers\peripheral\ctb/cy_ctb.h **** *   <tr>
 125:Generated_Source\PSoC6\pdl\drivers\peripheral\ctb/cy_ctb.h **** *     <th>Charge Pump</th>
 126:Generated_Source\PSoC6\pdl\drivers\peripheral\ctb/cy_ctb.h **** *     <th>Input Range</th></tr>
 127:Generated_Source\PSoC6\pdl\drivers\peripheral\ctb/cy_ctb.h **** *     <th>Output Range</th></tr>
 128:Generated_Source\PSoC6\pdl\drivers\peripheral\ctb/cy_ctb.h **** *   <tr>
 129:Generated_Source\PSoC6\pdl\drivers\peripheral\ctb/cy_ctb.h **** *     <td>Enabled</td>
 130:Generated_Source\PSoC6\pdl\drivers\peripheral\ctb/cy_ctb.h **** *     <td>0 V to VDDA</td>
 131:Generated_Source\PSoC6\pdl\drivers\peripheral\ctb/cy_ctb.h **** *     <td>0.2 V to VDDA - 0.2 V</td>
 132:Generated_Source\PSoC6\pdl\drivers\peripheral\ctb/cy_ctb.h **** *   </tr>
 133:Generated_Source\PSoC6\pdl\drivers\peripheral\ctb/cy_ctb.h **** *   <tr>
 134:Generated_Source\PSoC6\pdl\drivers\peripheral\ctb/cy_ctb.h **** *     <td>Disabled</td>
 135:Generated_Source\PSoC6\pdl\drivers\peripheral\ctb/cy_ctb.h **** *     <td>0 V to VDDA - 1.5 V</td>
 136:Generated_Source\PSoC6\pdl\drivers\peripheral\ctb/cy_ctb.h **** *     <td>0.2 V to VDDA - 0.2 V</td>
 137:Generated_Source\PSoC6\pdl\drivers\peripheral\ctb/cy_ctb.h **** *   </tr>
 138:Generated_Source\PSoC6\pdl\drivers\peripheral\ctb/cy_ctb.h **** * </table>
 139:Generated_Source\PSoC6\pdl\drivers\peripheral\ctb/cy_ctb.h **** *
 140:Generated_Source\PSoC6\pdl\drivers\peripheral\ctb/cy_ctb.h **** * \section group_ctb_sample_hold Sample and Hold Mode
 141:Generated_Source\PSoC6\pdl\drivers\peripheral\ctb/cy_ctb.h **** *
 142:Generated_Source\PSoC6\pdl\drivers\peripheral\ctb/cy_ctb.h **** * The CTB has a sample and hold (SH) circuit at the non-inverting input of Opamp0.
 143:Generated_Source\PSoC6\pdl\drivers\peripheral\ctb/cy_ctb.h **** * The circuit includes a hold capacitor, Chold, with a firmware controlled switch, CHD.
 144:Generated_Source\PSoC6\pdl\drivers\peripheral\ctb/cy_ctb.h **** * Sampling and holding the source voltage is performed
 145:Generated_Source\PSoC6\pdl\drivers\peripheral\ctb/cy_ctb.h **** * by closing and opening appropriate switches in the CTB using firmware.
 146:Generated_Source\PSoC6\pdl\drivers\peripheral\ctb/cy_ctb.h **** * If the SH circuit is used for the CTDAC, the \ref Cy_CTB_DACSampleAndHold function
ARM GAS  C:\Users\gjl\AppData\Local\Temp\cckcOS93.s 			page 36


 147:Generated_Source\PSoC6\pdl\drivers\peripheral\ctb/cy_ctb.h **** * should be called.
 148:Generated_Source\PSoC6\pdl\drivers\peripheral\ctb/cy_ctb.h **** *
 149:Generated_Source\PSoC6\pdl\drivers\peripheral\ctb/cy_ctb.h **** * \image html ctb_fast_config_vdac_sh.png
 150:Generated_Source\PSoC6\pdl\drivers\peripheral\ctb/cy_ctb.h **** * \image latex ctb_fast_config_vdac_sh.png
 151:Generated_Source\PSoC6\pdl\drivers\peripheral\ctb/cy_ctb.h **** *
 152:Generated_Source\PSoC6\pdl\drivers\peripheral\ctb/cy_ctb.h **** * \section group_ctb_dependencies Configuration Dependencies
 153:Generated_Source\PSoC6\pdl\drivers\peripheral\ctb/cy_ctb.h **** *
 154:Generated_Source\PSoC6\pdl\drivers\peripheral\ctb/cy_ctb.h **** * The CTB relies on other blocks to function properly. The dependencies
 155:Generated_Source\PSoC6\pdl\drivers\peripheral\ctb/cy_ctb.h **** * are documented here.
 156:Generated_Source\PSoC6\pdl\drivers\peripheral\ctb/cy_ctb.h **** *
 157:Generated_Source\PSoC6\pdl\drivers\peripheral\ctb/cy_ctb.h **** * \subsection group_ctb_dependencies_charge_pump Charge Pump Configuration
 158:Generated_Source\PSoC6\pdl\drivers\peripheral\ctb/cy_ctb.h **** *
 159:Generated_Source\PSoC6\pdl\drivers\peripheral\ctb/cy_ctb.h **** * Each opamp of the CTB has a charge pump that when enabled increases the
 160:Generated_Source\PSoC6\pdl\drivers\peripheral\ctb/cy_ctb.h **** * input range to the supply rails. When disabled, the opamp input range is 0 - VDDA - 1.5 V.
 161:Generated_Source\PSoC6\pdl\drivers\peripheral\ctb/cy_ctb.h **** * When enabled, the pump requires a clock.
 162:Generated_Source\PSoC6\pdl\drivers\peripheral\ctb/cy_ctb.h **** * Call the \ref Cy_CTB_SetClkPumpSource function in the \ref group_sysanalog driver to
 163:Generated_Source\PSoC6\pdl\drivers\peripheral\ctb/cy_ctb.h **** * set the clock source for all CTBs. This clock can come from one of two sources:
 164:Generated_Source\PSoC6\pdl\drivers\peripheral\ctb/cy_ctb.h **** *
 165:Generated_Source\PSoC6\pdl\drivers\peripheral\ctb/cy_ctb.h **** *   -# A dedicated clock divider from one of the CLK_PATH in the SRSS
 166:Generated_Source\PSoC6\pdl\drivers\peripheral\ctb/cy_ctb.h **** *
 167:Generated_Source\PSoC6\pdl\drivers\peripheral\ctb/cy_ctb.h **** *      Call the following functions to configure the pump clock from the SRSS:
 168:Generated_Source\PSoC6\pdl\drivers\peripheral\ctb/cy_ctb.h **** *       - \ref Cy_SysClk_ClkPumpSetSource
 169:Generated_Source\PSoC6\pdl\drivers\peripheral\ctb/cy_ctb.h **** *       - \ref Cy_SysClk_ClkPumpSetDivider
 170:Generated_Source\PSoC6\pdl\drivers\peripheral\ctb/cy_ctb.h **** *       - \ref Cy_SysClk_ClkPumpEnable
 171:Generated_Source\PSoC6\pdl\drivers\peripheral\ctb/cy_ctb.h **** *
 172:Generated_Source\PSoC6\pdl\drivers\peripheral\ctb/cy_ctb.h **** *      \snippet ctb_sut_01.cydsn/main_cm4.c CTB_SNIPPET_SET_CLK_PUMP_SOURCE_SRSS
 173:Generated_Source\PSoC6\pdl\drivers\peripheral\ctb/cy_ctb.h **** *
 174:Generated_Source\PSoC6\pdl\drivers\peripheral\ctb/cy_ctb.h **** *   -# One of the Peri Clock dividers
 175:Generated_Source\PSoC6\pdl\drivers\peripheral\ctb/cy_ctb.h **** *
 176:Generated_Source\PSoC6\pdl\drivers\peripheral\ctb/cy_ctb.h **** *      Call the following functions to configure a Peri Clock divider as the
 177:Generated_Source\PSoC6\pdl\drivers\peripheral\ctb/cy_ctb.h **** *      pump clock:
 178:Generated_Source\PSoC6\pdl\drivers\peripheral\ctb/cy_ctb.h **** *       - \ref Cy_SysClk_PeriphAssignDivider with the IP block set to PCLK_PASS_CLOCK_PUMP_PERI
 179:Generated_Source\PSoC6\pdl\drivers\peripheral\ctb/cy_ctb.h **** *       - \ref Cy_SysClk_PeriphSetDivider
 180:Generated_Source\PSoC6\pdl\drivers\peripheral\ctb/cy_ctb.h **** *       - \ref Cy_SysClk_PeriphEnableDivider
 181:Generated_Source\PSoC6\pdl\drivers\peripheral\ctb/cy_ctb.h **** *
 182:Generated_Source\PSoC6\pdl\drivers\peripheral\ctb/cy_ctb.h **** *      \snippet ctb_sut_01.cydsn/main_cm4.c CTB_SNIPPET_SET_CLK_PUMP_SOURCE_PERI
 183:Generated_Source\PSoC6\pdl\drivers\peripheral\ctb/cy_ctb.h **** *
 184:Generated_Source\PSoC6\pdl\drivers\peripheral\ctb/cy_ctb.h **** * When the charge pump is enabled, the clock frequency should be set as follows:
 185:Generated_Source\PSoC6\pdl\drivers\peripheral\ctb/cy_ctb.h **** *
 186:Generated_Source\PSoC6\pdl\drivers\peripheral\ctb/cy_ctb.h **** * <table class="doxtable">
 187:Generated_Source\PSoC6\pdl\drivers\peripheral\ctb/cy_ctb.h **** *   <tr><th>Opamp Power Level</th><th>Pump Clock Freq</th></tr>
 188:Generated_Source\PSoC6\pdl\drivers\peripheral\ctb/cy_ctb.h **** *   <tr>
 189:Generated_Source\PSoC6\pdl\drivers\peripheral\ctb/cy_ctb.h **** *     <td>Low or Medium</td>
 190:Generated_Source\PSoC6\pdl\drivers\peripheral\ctb/cy_ctb.h **** *     <td>8 - 24 MHz</td>
 191:Generated_Source\PSoC6\pdl\drivers\peripheral\ctb/cy_ctb.h **** *   </tr>
 192:Generated_Source\PSoC6\pdl\drivers\peripheral\ctb/cy_ctb.h **** *   <tr>
 193:Generated_Source\PSoC6\pdl\drivers\peripheral\ctb/cy_ctb.h **** *     <td>High</td>
 194:Generated_Source\PSoC6\pdl\drivers\peripheral\ctb/cy_ctb.h **** *     <td>24 MHz</td>
 195:Generated_Source\PSoC6\pdl\drivers\peripheral\ctb/cy_ctb.h **** *   </tr>
 196:Generated_Source\PSoC6\pdl\drivers\peripheral\ctb/cy_ctb.h **** * </table>
 197:Generated_Source\PSoC6\pdl\drivers\peripheral\ctb/cy_ctb.h **** *
 198:Generated_Source\PSoC6\pdl\drivers\peripheral\ctb/cy_ctb.h **** * The High power level of the opamp requires a 24 MHz pump clock.
 199:Generated_Source\PSoC6\pdl\drivers\peripheral\ctb/cy_ctb.h **** * In Deep Sleep mode, all high frequency clocks are
 200:Generated_Source\PSoC6\pdl\drivers\peripheral\ctb/cy_ctb.h **** * disabled and the charge pump will be disabled.
 201:Generated_Source\PSoC6\pdl\drivers\peripheral\ctb/cy_ctb.h **** *
 202:Generated_Source\PSoC6\pdl\drivers\peripheral\ctb/cy_ctb.h **** * \note
 203:Generated_Source\PSoC6\pdl\drivers\peripheral\ctb/cy_ctb.h **** * The same pump clock is used by all opamps on the device. Be aware of this
ARM GAS  C:\Users\gjl\AppData\Local\Temp\cckcOS93.s 			page 37


 204:Generated_Source\PSoC6\pdl\drivers\peripheral\ctb/cy_ctb.h **** * when configuring different opamps to different power levels.
 205:Generated_Source\PSoC6\pdl\drivers\peripheral\ctb/cy_ctb.h **** *
 206:Generated_Source\PSoC6\pdl\drivers\peripheral\ctb/cy_ctb.h **** * \subsection group_ctb_dependencies_reference_current Reference Current Configurations
 207:Generated_Source\PSoC6\pdl\drivers\peripheral\ctb/cy_ctb.h **** *
 208:Generated_Source\PSoC6\pdl\drivers\peripheral\ctb/cy_ctb.h **** * The CTB uses two reference current generators, IPTAT and IZTAT, from
 209:Generated_Source\PSoC6\pdl\drivers\peripheral\ctb/cy_ctb.h **** * the AREF block (see \ref group_sysanalog driver). The IPTAT current is
 210:Generated_Source\PSoC6\pdl\drivers\peripheral\ctb/cy_ctb.h **** * used to trim the slope of the opamp offset across temperature.
 211:Generated_Source\PSoC6\pdl\drivers\peripheral\ctb/cy_ctb.h **** * The AREF must be initialized and enabled for the CTB to function properly.
 212:Generated_Source\PSoC6\pdl\drivers\peripheral\ctb/cy_ctb.h **** *
 213:Generated_Source\PSoC6\pdl\drivers\peripheral\ctb/cy_ctb.h **** * If the CTB is configured to operate in Deep Sleep mode,
 214:Generated_Source\PSoC6\pdl\drivers\peripheral\ctb/cy_ctb.h **** * the appropriate reference current generators from the AREF block must be enabled in Deep Sleep.
 215:Generated_Source\PSoC6\pdl\drivers\peripheral\ctb/cy_ctb.h **** * When waking up from Deep Sleep,
 216:Generated_Source\PSoC6\pdl\drivers\peripheral\ctb/cy_ctb.h **** * the AREF block has a wakeup time that must be
 217:Generated_Source\PSoC6\pdl\drivers\peripheral\ctb/cy_ctb.h **** * considered. Note that configurations in the AREF block
 218:Generated_Source\PSoC6\pdl\drivers\peripheral\ctb/cy_ctb.h **** * are chip wide and affect all CTBs on the device.
 219:Generated_Source\PSoC6\pdl\drivers\peripheral\ctb/cy_ctb.h **** *
 220:Generated_Source\PSoC6\pdl\drivers\peripheral\ctb/cy_ctb.h **** * The following reference current configurations are supported:
 221:Generated_Source\PSoC6\pdl\drivers\peripheral\ctb/cy_ctb.h **** *
 222:Generated_Source\PSoC6\pdl\drivers\peripheral\ctb/cy_ctb.h **** * <table class="doxtable">
 223:Generated_Source\PSoC6\pdl\drivers\peripheral\ctb/cy_ctb.h **** *   <tr><th>Reference Current Level</th><th>Supported Mode</th><th>Input Range</th></tr>
 224:Generated_Source\PSoC6\pdl\drivers\peripheral\ctb/cy_ctb.h **** *   <tr>
 225:Generated_Source\PSoC6\pdl\drivers\peripheral\ctb/cy_ctb.h **** *     <td>1 uA</td>
 226:Generated_Source\PSoC6\pdl\drivers\peripheral\ctb/cy_ctb.h **** *     <td>Active/Low Power</td>
 227:Generated_Source\PSoC6\pdl\drivers\peripheral\ctb/cy_ctb.h **** *     <td>Rail-to-Rail (charge pump enabled)</td>
 228:Generated_Source\PSoC6\pdl\drivers\peripheral\ctb/cy_ctb.h **** *   </tr>
 229:Generated_Source\PSoC6\pdl\drivers\peripheral\ctb/cy_ctb.h **** *   <tr>
 230:Generated_Source\PSoC6\pdl\drivers\peripheral\ctb/cy_ctb.h **** *     <td>1 uA</td>
 231:Generated_Source\PSoC6\pdl\drivers\peripheral\ctb/cy_ctb.h **** *     <td>Active/Low Power/Deep Sleep</td>
 232:Generated_Source\PSoC6\pdl\drivers\peripheral\ctb/cy_ctb.h **** *     <td>0 - VDDA-1.5 V (charge pump disabled)</td>
 233:Generated_Source\PSoC6\pdl\drivers\peripheral\ctb/cy_ctb.h **** *   </tr>
 234:Generated_Source\PSoC6\pdl\drivers\peripheral\ctb/cy_ctb.h **** *   <tr>
 235:Generated_Source\PSoC6\pdl\drivers\peripheral\ctb/cy_ctb.h **** *     <td>100 nA</td>
 236:Generated_Source\PSoC6\pdl\drivers\peripheral\ctb/cy_ctb.h **** *     <td>Active/Low Power/Deep Sleep</td>
 237:Generated_Source\PSoC6\pdl\drivers\peripheral\ctb/cy_ctb.h **** *     <td>0 - VDDA-1.5 V (charge pump disabled)</td>
 238:Generated_Source\PSoC6\pdl\drivers\peripheral\ctb/cy_ctb.h **** *   </tr>
 239:Generated_Source\PSoC6\pdl\drivers\peripheral\ctb/cy_ctb.h **** * </table>
 240:Generated_Source\PSoC6\pdl\drivers\peripheral\ctb/cy_ctb.h **** *
 241:Generated_Source\PSoC6\pdl\drivers\peripheral\ctb/cy_ctb.h **** * The first configuration provides low offset and drift with maximum input range
 242:Generated_Source\PSoC6\pdl\drivers\peripheral\ctb/cy_ctb.h **** * while consuming the most current.
 243:Generated_Source\PSoC6\pdl\drivers\peripheral\ctb/cy_ctb.h **** * For Deep Sleep operation, use the other two configurations with the charge pump disabled.
 244:Generated_Source\PSoC6\pdl\drivers\peripheral\ctb/cy_ctb.h **** * For ultra low power, use the 100 nA current level.
 245:Generated_Source\PSoC6\pdl\drivers\peripheral\ctb/cy_ctb.h **** * To configure the opamps to operate in one of these options, call \ref Cy_CTB_SetCurrentMode.
 246:Generated_Source\PSoC6\pdl\drivers\peripheral\ctb/cy_ctb.h **** *
 247:Generated_Source\PSoC6\pdl\drivers\peripheral\ctb/cy_ctb.h **** * \subsection group_ctb_dependencies_sample_hold Sample and Hold Switch Control
 248:Generated_Source\PSoC6\pdl\drivers\peripheral\ctb/cy_ctb.h **** *
 249:Generated_Source\PSoC6\pdl\drivers\peripheral\ctb/cy_ctb.h **** * If you are using rev-08 of the CY8CKIT-062, the following eight switches
 250:Generated_Source\PSoC6\pdl\drivers\peripheral\ctb/cy_ctb.h **** * in the CTB are enabled by the CTDAC IP block:
 251:Generated_Source\PSoC6\pdl\drivers\peripheral\ctb/cy_ctb.h **** *
 252:Generated_Source\PSoC6\pdl\drivers\peripheral\ctb/cy_ctb.h **** *   - COS, CA0, CHD, CH6, COB, COR, CRS, and CRD
 253:Generated_Source\PSoC6\pdl\drivers\peripheral\ctb/cy_ctb.h **** *
 254:Generated_Source\PSoC6\pdl\drivers\peripheral\ctb/cy_ctb.h **** * On the rev-08 board, if any of the above switches are used, you must call \ref Cy_CTDAC_Enable
 255:Generated_Source\PSoC6\pdl\drivers\peripheral\ctb/cy_ctb.h **** * to enable these switches.
 256:Generated_Source\PSoC6\pdl\drivers\peripheral\ctb/cy_ctb.h **** *
 257:Generated_Source\PSoC6\pdl\drivers\peripheral\ctb/cy_ctb.h **** * Additionally, on the rev-08 board, if any of the switches are used in Deep Sleep mode,
 258:Generated_Source\PSoC6\pdl\drivers\peripheral\ctb/cy_ctb.h **** * the CTDAC must also be configured to operate in Deep Sleep (see \ref Cy_CTDAC_SetDeepSleepMode).
 259:Generated_Source\PSoC6\pdl\drivers\peripheral\ctb/cy_ctb.h **** *
 260:Generated_Source\PSoC6\pdl\drivers\peripheral\ctb/cy_ctb.h **** * In later revisions of the board, the switches are enabled by the CTB block so
ARM GAS  C:\Users\gjl\AppData\Local\Temp\cckcOS93.s 			page 38


 261:Generated_Source\PSoC6\pdl\drivers\peripheral\ctb/cy_ctb.h **** * calls to the CTDAC IP block are not necessary.
 262:Generated_Source\PSoC6\pdl\drivers\peripheral\ctb/cy_ctb.h **** *
 263:Generated_Source\PSoC6\pdl\drivers\peripheral\ctb/cy_ctb.h **** * \section group_ctb_more_information More Information
 264:Generated_Source\PSoC6\pdl\drivers\peripheral\ctb/cy_ctb.h **** *
 265:Generated_Source\PSoC6\pdl\drivers\peripheral\ctb/cy_ctb.h **** * Refer to technical reference manual (TRM) and the device datasheet.
 266:Generated_Source\PSoC6\pdl\drivers\peripheral\ctb/cy_ctb.h **** *
 267:Generated_Source\PSoC6\pdl\drivers\peripheral\ctb/cy_ctb.h **** * \section group_ctb_MISRA MISRA-C Compliance]
 268:Generated_Source\PSoC6\pdl\drivers\peripheral\ctb/cy_ctb.h **** *
 269:Generated_Source\PSoC6\pdl\drivers\peripheral\ctb/cy_ctb.h **** * This driver does not have any specific deviations.
 270:Generated_Source\PSoC6\pdl\drivers\peripheral\ctb/cy_ctb.h **** *
 271:Generated_Source\PSoC6\pdl\drivers\peripheral\ctb/cy_ctb.h **** * \section group_ctb_changelog Changelog
 272:Generated_Source\PSoC6\pdl\drivers\peripheral\ctb/cy_ctb.h **** * <table class="doxtable">
 273:Generated_Source\PSoC6\pdl\drivers\peripheral\ctb/cy_ctb.h **** *   <tr><th>Version</th><th>Changes</th><th>Reason for Change</th></tr>
 274:Generated_Source\PSoC6\pdl\drivers\peripheral\ctb/cy_ctb.h **** *   <tr>
 275:Generated_Source\PSoC6\pdl\drivers\peripheral\ctb/cy_ctb.h **** *     <td>1.0</td>
 276:Generated_Source\PSoC6\pdl\drivers\peripheral\ctb/cy_ctb.h **** *     <td>Initial version</td>
 277:Generated_Source\PSoC6\pdl\drivers\peripheral\ctb/cy_ctb.h **** *     <td></td>
 278:Generated_Source\PSoC6\pdl\drivers\peripheral\ctb/cy_ctb.h **** *   </tr>
 279:Generated_Source\PSoC6\pdl\drivers\peripheral\ctb/cy_ctb.h **** * </table>
 280:Generated_Source\PSoC6\pdl\drivers\peripheral\ctb/cy_ctb.h **** *
 281:Generated_Source\PSoC6\pdl\drivers\peripheral\ctb/cy_ctb.h **** * \defgroup group_ctb_macros Macros
 282:Generated_Source\PSoC6\pdl\drivers\peripheral\ctb/cy_ctb.h **** * \defgroup group_ctb_functions Functions
 283:Generated_Source\PSoC6\pdl\drivers\peripheral\ctb/cy_ctb.h **** *   \{
 284:Generated_Source\PSoC6\pdl\drivers\peripheral\ctb/cy_ctb.h **** *       \defgroup group_ctb_functions_init          Initialization Functions
 285:Generated_Source\PSoC6\pdl\drivers\peripheral\ctb/cy_ctb.h **** *       \defgroup group_ctb_functions_basic         Basic Configuration Functions
 286:Generated_Source\PSoC6\pdl\drivers\peripheral\ctb/cy_ctb.h **** *       \defgroup group_ctb_functions_comparator    Comparator Functions
 287:Generated_Source\PSoC6\pdl\drivers\peripheral\ctb/cy_ctb.h **** *       \defgroup group_ctb_functions_sample_hold   Sample and Hold Functions
 288:Generated_Source\PSoC6\pdl\drivers\peripheral\ctb/cy_ctb.h **** *       \defgroup group_ctb_functions_interrupts    Interrupt Functions
 289:Generated_Source\PSoC6\pdl\drivers\peripheral\ctb/cy_ctb.h **** *       \defgroup group_ctb_functions_switches      Switch Control Functions
 290:Generated_Source\PSoC6\pdl\drivers\peripheral\ctb/cy_ctb.h **** *       \defgroup group_ctb_functions_trim          Offset and Slope Trim Functions
 291:Generated_Source\PSoC6\pdl\drivers\peripheral\ctb/cy_ctb.h **** *       \defgroup group_ctb_functions_aref          Reference Current Mode Functions
 292:Generated_Source\PSoC6\pdl\drivers\peripheral\ctb/cy_ctb.h **** *   \}
 293:Generated_Source\PSoC6\pdl\drivers\peripheral\ctb/cy_ctb.h **** * \defgroup group_ctb_globals Global Variables
 294:Generated_Source\PSoC6\pdl\drivers\peripheral\ctb/cy_ctb.h **** * \defgroup group_ctb_data_structures Data Structures
 295:Generated_Source\PSoC6\pdl\drivers\peripheral\ctb/cy_ctb.h **** * \defgroup group_ctb_enums Enumerated Types
 296:Generated_Source\PSoC6\pdl\drivers\peripheral\ctb/cy_ctb.h **** */
 297:Generated_Source\PSoC6\pdl\drivers\peripheral\ctb/cy_ctb.h **** 
 298:Generated_Source\PSoC6\pdl\drivers\peripheral\ctb/cy_ctb.h **** #if !defined(CY_CTB_H)
 299:Generated_Source\PSoC6\pdl\drivers\peripheral\ctb/cy_ctb.h **** #define CY_CTB_H
 300:Generated_Source\PSoC6\pdl\drivers\peripheral\ctb/cy_ctb.h **** 
 301:Generated_Source\PSoC6\pdl\drivers\peripheral\ctb/cy_ctb.h **** #include <stdint.h>
 302:Generated_Source\PSoC6\pdl\drivers\peripheral\ctb/cy_ctb.h **** #include <stdbool.h>
 303:Generated_Source\PSoC6\pdl\drivers\peripheral\ctb/cy_ctb.h **** #include <stddef.h>
 304:Generated_Source\PSoC6\pdl\drivers\peripheral\ctb/cy_ctb.h **** #include "cy_device_headers.h"
 305:Generated_Source\PSoC6\pdl\drivers\peripheral\ctb/cy_ctb.h **** #include "syslib/cy_syslib.h"
 306:Generated_Source\PSoC6\pdl\drivers\peripheral\ctb/cy_ctb.h **** #include "sysanalog/cy_sysanalog.h"
 307:Generated_Source\PSoC6\pdl\drivers\peripheral\ctb/cy_ctb.h **** 
 308:Generated_Source\PSoC6\pdl\drivers\peripheral\ctb/cy_ctb.h **** #ifndef CY_IP_MXS40PASS_CTB
 309:Generated_Source\PSoC6\pdl\drivers\peripheral\ctb/cy_ctb.h ****     #error "The CTB driver is not supported on this device"
 310:Generated_Source\PSoC6\pdl\drivers\peripheral\ctb/cy_ctb.h **** #endif
 311:Generated_Source\PSoC6\pdl\drivers\peripheral\ctb/cy_ctb.h **** 
 312:Generated_Source\PSoC6\pdl\drivers\peripheral\ctb/cy_ctb.h **** #if defined(__cplusplus)
 313:Generated_Source\PSoC6\pdl\drivers\peripheral\ctb/cy_ctb.h **** extern "C" {
 314:Generated_Source\PSoC6\pdl\drivers\peripheral\ctb/cy_ctb.h **** #endif
 315:Generated_Source\PSoC6\pdl\drivers\peripheral\ctb/cy_ctb.h **** 
 316:Generated_Source\PSoC6\pdl\drivers\peripheral\ctb/cy_ctb.h **** /** \addtogroup group_ctb_macros
 317:Generated_Source\PSoC6\pdl\drivers\peripheral\ctb/cy_ctb.h **** * \{
ARM GAS  C:\Users\gjl\AppData\Local\Temp\cckcOS93.s 			page 39


 318:Generated_Source\PSoC6\pdl\drivers\peripheral\ctb/cy_ctb.h **** */
 319:Generated_Source\PSoC6\pdl\drivers\peripheral\ctb/cy_ctb.h **** 
 320:Generated_Source\PSoC6\pdl\drivers\peripheral\ctb/cy_ctb.h **** /** Driver major version */
 321:Generated_Source\PSoC6\pdl\drivers\peripheral\ctb/cy_ctb.h **** #define CY_CTB_DRV_VERSION_MAJOR            1
 322:Generated_Source\PSoC6\pdl\drivers\peripheral\ctb/cy_ctb.h **** 
 323:Generated_Source\PSoC6\pdl\drivers\peripheral\ctb/cy_ctb.h **** /** Driver minor version */
 324:Generated_Source\PSoC6\pdl\drivers\peripheral\ctb/cy_ctb.h **** #define CY_CTB_DRV_VERSION_MINOR            0
 325:Generated_Source\PSoC6\pdl\drivers\peripheral\ctb/cy_ctb.h **** 
 326:Generated_Source\PSoC6\pdl\drivers\peripheral\ctb/cy_ctb.h **** /** CTB driver identifier*/
 327:Generated_Source\PSoC6\pdl\drivers\peripheral\ctb/cy_ctb.h **** #define CY_CTB_ID                           CY_PDL_DRV_ID(0x0Bu)
 328:Generated_Source\PSoC6\pdl\drivers\peripheral\ctb/cy_ctb.h **** 
 329:Generated_Source\PSoC6\pdl\drivers\peripheral\ctb/cy_ctb.h **** /** \cond INTERNAL */
 330:Generated_Source\PSoC6\pdl\drivers\peripheral\ctb/cy_ctb.h **** 
 331:Generated_Source\PSoC6\pdl\drivers\peripheral\ctb/cy_ctb.h **** /**< De-init value for most CTB registers */
 332:Generated_Source\PSoC6\pdl\drivers\peripheral\ctb/cy_ctb.h **** #define CY_CTB_DEINIT                       (0uL)
 333:Generated_Source\PSoC6\pdl\drivers\peripheral\ctb/cy_ctb.h **** 
 334:Generated_Source\PSoC6\pdl\drivers\peripheral\ctb/cy_ctb.h **** /**< De-init value for the opamp0 switch control register */
 335:Generated_Source\PSoC6\pdl\drivers\peripheral\ctb/cy_ctb.h **** #define CY_CTB_DEINIT_OA0_SW                (CTBM_OA0_SW_CLEAR_OA0P_A00_Msk \
 336:Generated_Source\PSoC6\pdl\drivers\peripheral\ctb/cy_ctb.h ****                                             | CTBM_OA0_SW_CLEAR_OA0P_A20_Msk \
 337:Generated_Source\PSoC6\pdl\drivers\peripheral\ctb/cy_ctb.h ****                                             | CTBM_OA0_SW_CLEAR_OA0P_A30_Msk \
 338:Generated_Source\PSoC6\pdl\drivers\peripheral\ctb/cy_ctb.h ****                                             | CTBM_OA0_SW_CLEAR_OA0M_A11_Msk \
 339:Generated_Source\PSoC6\pdl\drivers\peripheral\ctb/cy_ctb.h ****                                             | CTBM_OA0_SW_CLEAR_OA0M_A81_Msk \
 340:Generated_Source\PSoC6\pdl\drivers\peripheral\ctb/cy_ctb.h ****                                             | CTBM_OA0_SW_CLEAR_OA0O_D51_Msk \
 341:Generated_Source\PSoC6\pdl\drivers\peripheral\ctb/cy_ctb.h ****                                             | CTBM_OA0_SW_CLEAR_OA0O_D81_Msk)
 342:Generated_Source\PSoC6\pdl\drivers\peripheral\ctb/cy_ctb.h **** 
 343:Generated_Source\PSoC6\pdl\drivers\peripheral\ctb/cy_ctb.h **** /**< De-init value for the opamp1 switch control register */
 344:Generated_Source\PSoC6\pdl\drivers\peripheral\ctb/cy_ctb.h **** #define CY_CTB_DEINIT_OA1_SW                (CTBM_OA1_SW_CLEAR_OA1P_A03_Msk \
 345:Generated_Source\PSoC6\pdl\drivers\peripheral\ctb/cy_ctb.h ****                                             | CTBM_OA1_SW_CLEAR_OA1P_A13_Msk \
 346:Generated_Source\PSoC6\pdl\drivers\peripheral\ctb/cy_ctb.h ****                                             | CTBM_OA1_SW_CLEAR_OA1P_A43_Msk \
 347:Generated_Source\PSoC6\pdl\drivers\peripheral\ctb/cy_ctb.h ****                                             | CTBM_OA1_SW_CLEAR_OA1P_A73_Msk \
 348:Generated_Source\PSoC6\pdl\drivers\peripheral\ctb/cy_ctb.h ****                                             | CTBM_OA1_SW_CLEAR_OA1M_A22_Msk \
 349:Generated_Source\PSoC6\pdl\drivers\peripheral\ctb/cy_ctb.h ****                                             | CTBM_OA1_SW_CLEAR_OA1M_A82_Msk \
 350:Generated_Source\PSoC6\pdl\drivers\peripheral\ctb/cy_ctb.h ****                                             | CTBM_OA1_SW_CLEAR_OA1O_D52_Msk \
 351:Generated_Source\PSoC6\pdl\drivers\peripheral\ctb/cy_ctb.h ****                                             | CTBM_OA1_SW_CLEAR_OA1O_D62_Msk \
 352:Generated_Source\PSoC6\pdl\drivers\peripheral\ctb/cy_ctb.h ****                                             | CTBM_OA1_SW_CLEAR_OA1O_D82_Msk)
 353:Generated_Source\PSoC6\pdl\drivers\peripheral\ctb/cy_ctb.h **** 
 354:Generated_Source\PSoC6\pdl\drivers\peripheral\ctb/cy_ctb.h **** /**< De-init value for the CTDAC switch control register */
 355:Generated_Source\PSoC6\pdl\drivers\peripheral\ctb/cy_ctb.h **** #define CY_CTB_DEINIT_CTD_SW                (CTBM_CTD_SW_CLEAR_CTDD_CRD_Msk \
 356:Generated_Source\PSoC6\pdl\drivers\peripheral\ctb/cy_ctb.h ****                                             | CTBM_CTD_SW_CLEAR_CTDS_CRS_Msk \
 357:Generated_Source\PSoC6\pdl\drivers\peripheral\ctb/cy_ctb.h ****                                             | CTBM_CTD_SW_CLEAR_CTDS_COR_Msk \
 358:Generated_Source\PSoC6\pdl\drivers\peripheral\ctb/cy_ctb.h ****                                             | CTBM_CTD_SW_CLEAR_CTDO_C6H_Msk \
 359:Generated_Source\PSoC6\pdl\drivers\peripheral\ctb/cy_ctb.h ****                                             | CTBM_CTD_SW_CLEAR_CTDO_COS_Msk \
 360:Generated_Source\PSoC6\pdl\drivers\peripheral\ctb/cy_ctb.h ****                                             | CTBM_CTD_SW_CLEAR_CTDH_COB_Msk \
 361:Generated_Source\PSoC6\pdl\drivers\peripheral\ctb/cy_ctb.h ****                                             | CTBM_CTD_SW_CLEAR_CTDH_CHD_Msk \
 362:Generated_Source\PSoC6\pdl\drivers\peripheral\ctb/cy_ctb.h ****                                             | CTBM_CTD_SW_CLEAR_CTDH_CA0_Msk \
 363:Generated_Source\PSoC6\pdl\drivers\peripheral\ctb/cy_ctb.h ****                                             | CTBM_CTD_SW_CLEAR_CTDH_CIS_Msk \
 364:Generated_Source\PSoC6\pdl\drivers\peripheral\ctb/cy_ctb.h ****                                             | CTBM_CTD_SW_CLEAR_CTDH_ILR_Msk)
 365:Generated_Source\PSoC6\pdl\drivers\peripheral\ctb/cy_ctb.h **** 
 366:Generated_Source\PSoC6\pdl\drivers\peripheral\ctb/cy_ctb.h **** #define CY_CTB_TRIM_VALUE_MAX               (63uL)
 367:Generated_Source\PSoC6\pdl\drivers\peripheral\ctb/cy_ctb.h **** 
 368:Generated_Source\PSoC6\pdl\drivers\peripheral\ctb/cy_ctb.h **** /**< Macros for conditions used by CY_ASSERT calls */
 369:Generated_Source\PSoC6\pdl\drivers\peripheral\ctb/cy_ctb.h **** 
 370:Generated_Source\PSoC6\pdl\drivers\peripheral\ctb/cy_ctb.h **** #define CY_CTB_OPAMPNUM(num)                (((num) == CY_CTB_OPAMP_0) || ((num) == CY_CTB_OPAMP_1)
 371:Generated_Source\PSoC6\pdl\drivers\peripheral\ctb/cy_ctb.h **** #define CY_CTB_OPAMPNUM_0_1(num)            (((num) == CY_CTB_OPAMP_0) || ((num) == CY_CTB_OPAMP_1)
 372:Generated_Source\PSoC6\pdl\drivers\peripheral\ctb/cy_ctb.h **** #define CY_CTB_OPAMPNUM_ALL(num)            (((num) == CY_CTB_OPAMP_NONE) \
 373:Generated_Source\PSoC6\pdl\drivers\peripheral\ctb/cy_ctb.h ****                                             || ((num) == CY_CTB_OPAMP_0) \
 374:Generated_Source\PSoC6\pdl\drivers\peripheral\ctb/cy_ctb.h ****                                             || ((num) == CY_CTB_OPAMP_1) \
ARM GAS  C:\Users\gjl\AppData\Local\Temp\cckcOS93.s 			page 40


 375:Generated_Source\PSoC6\pdl\drivers\peripheral\ctb/cy_ctb.h ****                                             || ((num) == CY_CTB_OPAMP_BOTH))
 376:Generated_Source\PSoC6\pdl\drivers\peripheral\ctb/cy_ctb.h **** #define CY_CTB_IPTAT(iptat)                 (((iptat) == CY_CTB_IPTAT_NORMAL) || ((iptat) == CY_CTB
 377:Generated_Source\PSoC6\pdl\drivers\peripheral\ctb/cy_ctb.h **** #define CY_CTB_CLKPUMP(clkPump)             (((clkPump) == CY_CTB_CLK_PUMP_SRSS) || ((clkPump) == C
 378:Generated_Source\PSoC6\pdl\drivers\peripheral\ctb/cy_ctb.h **** #define CY_CTB_DEEPSLEEP(deepSleep)         (((deepSleep) == CY_CTB_DEEPSLEEP_DISABLE) || ((deepSle
 379:Generated_Source\PSoC6\pdl\drivers\peripheral\ctb/cy_ctb.h **** #define CY_CTB_OAPOWER(power)               ((power) <= CY_CTB_POWER_HIGH)
 380:Generated_Source\PSoC6\pdl\drivers\peripheral\ctb/cy_ctb.h **** #define CY_CTB_OAMODE(mode)                 (((mode) == CY_CTB_MODE_OPAMP1X) \
 381:Generated_Source\PSoC6\pdl\drivers\peripheral\ctb/cy_ctb.h ****                                             || ((mode) == CY_CTB_MODE_OPAMP10X) \
 382:Generated_Source\PSoC6\pdl\drivers\peripheral\ctb/cy_ctb.h ****                                             || ((mode) == CY_CTB_MODE_COMP))
 383:Generated_Source\PSoC6\pdl\drivers\peripheral\ctb/cy_ctb.h **** #define CY_CTB_OAPUMP(pump)                 (((pump) == CY_CTB_PUMP_DISABLE) || ((pump) == CY_CTB_P
 384:Generated_Source\PSoC6\pdl\drivers\peripheral\ctb/cy_ctb.h **** #define CY_CTB_COMPEDGE(edge)               (((edge) == CY_CTB_COMP_EDGE_DISABLE) \
 385:Generated_Source\PSoC6\pdl\drivers\peripheral\ctb/cy_ctb.h ****                                             || ((edge) == CY_CTB_COMP_EDGE_RISING) \
 386:Generated_Source\PSoC6\pdl\drivers\peripheral\ctb/cy_ctb.h ****                                             || ((edge) == CY_CTB_COMP_EDGE_FALLING) \
 387:Generated_Source\PSoC6\pdl\drivers\peripheral\ctb/cy_ctb.h ****                                             || ((edge) == CY_CTB_COMP_EDGE_BOTH))
 388:Generated_Source\PSoC6\pdl\drivers\peripheral\ctb/cy_ctb.h **** #define CY_CTB_COMPLEVEL(level)             (((level) == CY_CTB_COMP_DSI_TRIGGER_OUT_PULSE) || ((le
 389:Generated_Source\PSoC6\pdl\drivers\peripheral\ctb/cy_ctb.h **** #define CY_CTB_COMPBYPASS(bypass)           (((bypass) == CY_CTB_COMP_BYPASS_SYNC) || ((bypass) == 
 390:Generated_Source\PSoC6\pdl\drivers\peripheral\ctb/cy_ctb.h **** #define CY_CTB_COMPHYST(hyst)               (((hyst) == CY_CTB_COMP_HYST_DISABLE) || ((hyst) == CY_
 391:Generated_Source\PSoC6\pdl\drivers\peripheral\ctb/cy_ctb.h **** #define CY_CTB_CURRENTMODE(mode)            (((mode) == CY_CTB_CURRENT_HIGH_ACTIVE) \
 392:Generated_Source\PSoC6\pdl\drivers\peripheral\ctb/cy_ctb.h ****                                             || ((mode) == CY_CTB_CURRENT_HIGH_ACTIVE_DEEPSLEEP) \
 393:Generated_Source\PSoC6\pdl\drivers\peripheral\ctb/cy_ctb.h ****                                             || ((mode) == CY_CTB_CURRENT_LOW_ACTIVE_DEEPSLEEP))
 394:Generated_Source\PSoC6\pdl\drivers\peripheral\ctb/cy_ctb.h **** #define CY_CTB_SAMPLEHOLD(mode)             ((mode) <= CY_CTB_SH_HOLD)
 395:Generated_Source\PSoC6\pdl\drivers\peripheral\ctb/cy_ctb.h **** #define CY_CTB_TRIM(trim)                   ((trim) <= CY_CTB_TRIM_VALUE_MAX)
 396:Generated_Source\PSoC6\pdl\drivers\peripheral\ctb/cy_ctb.h **** #define CY_CTB_SWITCHSELECT(select)         (((select) == CY_CTB_SWITCH_OA0_SW) \
 397:Generated_Source\PSoC6\pdl\drivers\peripheral\ctb/cy_ctb.h ****                                             || ((select) == CY_CTB_SWITCH_OA1_SW) \
 398:Generated_Source\PSoC6\pdl\drivers\peripheral\ctb/cy_ctb.h ****                                             || ((select) == CY_CTB_SWITCH_CTD_SW))
 399:Generated_Source\PSoC6\pdl\drivers\peripheral\ctb/cy_ctb.h **** #define CY_CTB_SWITCHSTATE(state)           (((state) == CY_CTB_SWITCH_OPEN) || ((state) == CY_CTB_
 400:Generated_Source\PSoC6\pdl\drivers\peripheral\ctb/cy_ctb.h **** #define CY_CTB_OA0SWITCH(mask)              (((mask) & (~CY_CTB_DEINIT_OA0_SW)) == 0uL)
 401:Generated_Source\PSoC6\pdl\drivers\peripheral\ctb/cy_ctb.h **** #define CY_CTB_OA1SWITCH(mask)              (((mask) & (~CY_CTB_DEINIT_OA1_SW)) == 0uL)
 402:Generated_Source\PSoC6\pdl\drivers\peripheral\ctb/cy_ctb.h **** #define CY_CTB_CTDSWITCH(mask)              (((mask) & (~CY_CTB_DEINIT_CTD_SW)) == 0uL)
 403:Generated_Source\PSoC6\pdl\drivers\peripheral\ctb/cy_ctb.h **** #define CY_CTB_SWITCHMASK(select,mask)      (((select) == CY_CTB_SWITCH_OA0_SW) ? (((mask) & (~CY_C
 404:Generated_Source\PSoC6\pdl\drivers\peripheral\ctb/cy_ctb.h ****                                             (((select) == CY_CTB_SWITCH_OA1_SW) ? (((mask) & (~CY_C
 405:Generated_Source\PSoC6\pdl\drivers\peripheral\ctb/cy_ctb.h ****                                             (((mask) & (~CY_CTB_DEINIT_CTD_SW)) == 0uL)))
 406:Generated_Source\PSoC6\pdl\drivers\peripheral\ctb/cy_ctb.h **** #define CY_CTB_SARSEQCTRL(mask)             (((mask) == CY_CTB_SW_SEQ_CTRL_D51_MASK) \
 407:Generated_Source\PSoC6\pdl\drivers\peripheral\ctb/cy_ctb.h ****                                             || ((mask) == CY_CTB_SW_SEQ_CTRL_D52_D62_MASK) \
 408:Generated_Source\PSoC6\pdl\drivers\peripheral\ctb/cy_ctb.h ****                                             || ((mask) == CY_CTB_SW_SEQ_CTRL_D51_D52_D62_MASK))
 409:Generated_Source\PSoC6\pdl\drivers\peripheral\ctb/cy_ctb.h **** 
 410:Generated_Source\PSoC6\pdl\drivers\peripheral\ctb/cy_ctb.h **** /** \endcond */
 411:Generated_Source\PSoC6\pdl\drivers\peripheral\ctb/cy_ctb.h **** 
 412:Generated_Source\PSoC6\pdl\drivers\peripheral\ctb/cy_ctb.h **** /** \} group_ctb_macros */
 413:Generated_Source\PSoC6\pdl\drivers\peripheral\ctb/cy_ctb.h **** 
 414:Generated_Source\PSoC6\pdl\drivers\peripheral\ctb/cy_ctb.h **** /***************************************
 415:Generated_Source\PSoC6\pdl\drivers\peripheral\ctb/cy_ctb.h **** *       Enumerated Types
 416:Generated_Source\PSoC6\pdl\drivers\peripheral\ctb/cy_ctb.h **** ***************************************/
 417:Generated_Source\PSoC6\pdl\drivers\peripheral\ctb/cy_ctb.h **** 
 418:Generated_Source\PSoC6\pdl\drivers\peripheral\ctb/cy_ctb.h **** /**
 419:Generated_Source\PSoC6\pdl\drivers\peripheral\ctb/cy_ctb.h **** * \addtogroup group_ctb_enums
 420:Generated_Source\PSoC6\pdl\drivers\peripheral\ctb/cy_ctb.h **** * \{
 421:Generated_Source\PSoC6\pdl\drivers\peripheral\ctb/cy_ctb.h **** */
 422:Generated_Source\PSoC6\pdl\drivers\peripheral\ctb/cy_ctb.h **** 
 423:Generated_Source\PSoC6\pdl\drivers\peripheral\ctb/cy_ctb.h **** /**
 424:Generated_Source\PSoC6\pdl\drivers\peripheral\ctb/cy_ctb.h **** * Most functions allow you to configure a single opamp or both opamps at once.
 425:Generated_Source\PSoC6\pdl\drivers\peripheral\ctb/cy_ctb.h **** * The \ref Cy_CTB_SetInterruptMask function can be called with \ref CY_CTB_OPAMP_NONE
 426:Generated_Source\PSoC6\pdl\drivers\peripheral\ctb/cy_ctb.h **** * and interrupts will be disabled.
 427:Generated_Source\PSoC6\pdl\drivers\peripheral\ctb/cy_ctb.h **** */
 428:Generated_Source\PSoC6\pdl\drivers\peripheral\ctb/cy_ctb.h **** typedef enum{
 429:Generated_Source\PSoC6\pdl\drivers\peripheral\ctb/cy_ctb.h ****     CY_CTB_OPAMP_NONE    = 0,                                          /**< For disabling interrupt
 430:Generated_Source\PSoC6\pdl\drivers\peripheral\ctb/cy_ctb.h ****     CY_CTB_OPAMP_0       = CTBM_INTR_COMP0_Msk,                        /**< For configuring Opamp0 
 431:Generated_Source\PSoC6\pdl\drivers\peripheral\ctb/cy_ctb.h ****     CY_CTB_OPAMP_1       = CTBM_INTR_COMP1_Msk,                        /**< For configuring Opamp1 
ARM GAS  C:\Users\gjl\AppData\Local\Temp\cckcOS93.s 			page 41


 432:Generated_Source\PSoC6\pdl\drivers\peripheral\ctb/cy_ctb.h ****     CY_CTB_OPAMP_BOTH    = CTBM_INTR_COMP0_Msk | CTBM_INTR_COMP1_Msk,  /**< For configuring both Op
 433:Generated_Source\PSoC6\pdl\drivers\peripheral\ctb/cy_ctb.h **** }cy_en_ctb_opamp_sel_t;
 434:Generated_Source\PSoC6\pdl\drivers\peripheral\ctb/cy_ctb.h **** 
 435:Generated_Source\PSoC6\pdl\drivers\peripheral\ctb/cy_ctb.h **** /** Enable or disable CTB while in Deep Sleep mode.
 436:Generated_Source\PSoC6\pdl\drivers\peripheral\ctb/cy_ctb.h **** */
 437:Generated_Source\PSoC6\pdl\drivers\peripheral\ctb/cy_ctb.h **** typedef enum {
 438:Generated_Source\PSoC6\pdl\drivers\peripheral\ctb/cy_ctb.h ****     CY_CTB_DEEPSLEEP_DISABLE   = 0u,                               /**< CTB is disabled during Deep
 439:Generated_Source\PSoC6\pdl\drivers\peripheral\ctb/cy_ctb.h ****     CY_CTB_DEEPSLEEP_ENABLE    = CTBM_CTB_CTRL_DEEPSLEEP_ON_Msk,   /**< CTB remains enabled during 
 440:Generated_Source\PSoC6\pdl\drivers\peripheral\ctb/cy_ctb.h **** }cy_en_ctb_deep_sleep_t;
 441:Generated_Source\PSoC6\pdl\drivers\peripheral\ctb/cy_ctb.h **** 
 442:Generated_Source\PSoC6\pdl\drivers\peripheral\ctb/cy_ctb.h **** /**
 443:Generated_Source\PSoC6\pdl\drivers\peripheral\ctb/cy_ctb.h **** * Configure the power mode of each opamp. Each power setting
 444:Generated_Source\PSoC6\pdl\drivers\peripheral\ctb/cy_ctb.h **** * consumes different levels of current and supports a different
 445:Generated_Source\PSoC6\pdl\drivers\peripheral\ctb/cy_ctb.h **** * input range and gain bandwidth.
 446:Generated_Source\PSoC6\pdl\drivers\peripheral\ctb/cy_ctb.h **** *
 447:Generated_Source\PSoC6\pdl\drivers\peripheral\ctb/cy_ctb.h **** * <table class="doxtable">
 448:Generated_Source\PSoC6\pdl\drivers\peripheral\ctb/cy_ctb.h **** *   <tr><th>Opamp Power</th><th>IDD</th><th>Gain bandwidth</th></tr>
 449:Generated_Source\PSoC6\pdl\drivers\peripheral\ctb/cy_ctb.h **** *   <tr>
 450:Generated_Source\PSoC6\pdl\drivers\peripheral\ctb/cy_ctb.h **** *     <td>OFF</td>
 451:Generated_Source\PSoC6\pdl\drivers\peripheral\ctb/cy_ctb.h **** *     <td>0</td>
 452:Generated_Source\PSoC6\pdl\drivers\peripheral\ctb/cy_ctb.h **** *     <td>NA</td>
 453:Generated_Source\PSoC6\pdl\drivers\peripheral\ctb/cy_ctb.h **** *   </tr>
 454:Generated_Source\PSoC6\pdl\drivers\peripheral\ctb/cy_ctb.h **** *   <tr>
 455:Generated_Source\PSoC6\pdl\drivers\peripheral\ctb/cy_ctb.h **** *     <td>LOW</td>
 456:Generated_Source\PSoC6\pdl\drivers\peripheral\ctb/cy_ctb.h **** *     <td>350 uA</td>
 457:Generated_Source\PSoC6\pdl\drivers\peripheral\ctb/cy_ctb.h **** *     <td>1 MHz</td>
 458:Generated_Source\PSoC6\pdl\drivers\peripheral\ctb/cy_ctb.h **** *   </tr>
 459:Generated_Source\PSoC6\pdl\drivers\peripheral\ctb/cy_ctb.h **** *   <tr>
 460:Generated_Source\PSoC6\pdl\drivers\peripheral\ctb/cy_ctb.h **** *     <td>MEDIUM</td>
 461:Generated_Source\PSoC6\pdl\drivers\peripheral\ctb/cy_ctb.h **** *     <td>600 uA</td>
 462:Generated_Source\PSoC6\pdl\drivers\peripheral\ctb/cy_ctb.h **** *     <td>3 MHz for 1X, 2.5 MHz for 10x</td>
 463:Generated_Source\PSoC6\pdl\drivers\peripheral\ctb/cy_ctb.h **** *   </tr>
 464:Generated_Source\PSoC6\pdl\drivers\peripheral\ctb/cy_ctb.h **** *   <tr>
 465:Generated_Source\PSoC6\pdl\drivers\peripheral\ctb/cy_ctb.h **** *     <td>HIGH</td>
 466:Generated_Source\PSoC6\pdl\drivers\peripheral\ctb/cy_ctb.h **** *     <td>1.5 mA</td>
 467:Generated_Source\PSoC6\pdl\drivers\peripheral\ctb/cy_ctb.h **** *     <td>8 MHz for 1X, 6 MHz for 10x</td>
 468:Generated_Source\PSoC6\pdl\drivers\peripheral\ctb/cy_ctb.h **** *   </tr>
 469:Generated_Source\PSoC6\pdl\drivers\peripheral\ctb/cy_ctb.h **** * </table>
 470:Generated_Source\PSoC6\pdl\drivers\peripheral\ctb/cy_ctb.h **** *
 471:Generated_Source\PSoC6\pdl\drivers\peripheral\ctb/cy_ctb.h **** */
 472:Generated_Source\PSoC6\pdl\drivers\peripheral\ctb/cy_ctb.h **** typedef enum {
 473:Generated_Source\PSoC6\pdl\drivers\peripheral\ctb/cy_ctb.h ****     CY_CTB_POWER_OFF       = 0u,     /**< Opamp is off */
 474:Generated_Source\PSoC6\pdl\drivers\peripheral\ctb/cy_ctb.h ****     CY_CTB_POWER_LOW       = 1u,     /**< Low power: IDD = 350 uA, GBW = 1 MHz for both 1x and 10x 
 475:Generated_Source\PSoC6\pdl\drivers\peripheral\ctb/cy_ctb.h ****     CY_CTB_POWER_MEDIUM    = 2u,     /**< Medium power: IDD = 600 uA, GBW = 3 MHz for 1x and 2.5 MH
 476:Generated_Source\PSoC6\pdl\drivers\peripheral\ctb/cy_ctb.h ****     CY_CTB_POWER_HIGH      = 3u,     /**< High power: IDD = 1500 uA, GBW = 8 MHz for 1x and 6 MHz f
 477:Generated_Source\PSoC6\pdl\drivers\peripheral\ctb/cy_ctb.h **** }cy_en_ctb_power_t;
 478:Generated_Source\PSoC6\pdl\drivers\peripheral\ctb/cy_ctb.h **** 
 479:Generated_Source\PSoC6\pdl\drivers\peripheral\ctb/cy_ctb.h **** /**
 480:Generated_Source\PSoC6\pdl\drivers\peripheral\ctb/cy_ctb.h **** * The output stage of each opamp can be configured for low-drive strength (1X) to drive internal ci
 481:Generated_Source\PSoC6\pdl\drivers\peripheral\ctb/cy_ctb.h **** * for high-drive strength (10X) to drive external circuits, or as a comparator.
 482:Generated_Source\PSoC6\pdl\drivers\peripheral\ctb/cy_ctb.h **** */
 483:Generated_Source\PSoC6\pdl\drivers\peripheral\ctb/cy_ctb.h **** typedef enum {
 484:Generated_Source\PSoC6\pdl\drivers\peripheral\ctb/cy_ctb.h ****     CY_CTB_MODE_OPAMP1X    = 0u,                                               /**< Configure opamp
 485:Generated_Source\PSoC6\pdl\drivers\peripheral\ctb/cy_ctb.h ****     CY_CTB_MODE_OPAMP10X   = 1u << CTBM_OA_RES0_CTRL_OA0_DRIVE_STR_SEL_Pos,    /**< Configure opamp
 486:Generated_Source\PSoC6\pdl\drivers\peripheral\ctb/cy_ctb.h ****     CY_CTB_MODE_COMP       = 1u << CTBM_OA_RES0_CTRL_OA0_COMP_EN_Pos,          /**< Configure opamp
 487:Generated_Source\PSoC6\pdl\drivers\peripheral\ctb/cy_ctb.h **** }cy_en_ctb_mode_t;
 488:Generated_Source\PSoC6\pdl\drivers\peripheral\ctb/cy_ctb.h **** 
ARM GAS  C:\Users\gjl\AppData\Local\Temp\cckcOS93.s 			page 42


 489:Generated_Source\PSoC6\pdl\drivers\peripheral\ctb/cy_ctb.h **** /**
 490:Generated_Source\PSoC6\pdl\drivers\peripheral\ctb/cy_ctb.h **** * Each opamp has a charge pump to increase the input range to the rails.
 491:Generated_Source\PSoC6\pdl\drivers\peripheral\ctb/cy_ctb.h **** * When the charge pump is enabled, the input range is 0 to VDDA.
 492:Generated_Source\PSoC6\pdl\drivers\peripheral\ctb/cy_ctb.h **** * When disabled, the input range is 0 to VDDA - 1.5 V.
 493:Generated_Source\PSoC6\pdl\drivers\peripheral\ctb/cy_ctb.h **** *
 494:Generated_Source\PSoC6\pdl\drivers\peripheral\ctb/cy_ctb.h **** ** <table class="doxtable">
 495:Generated_Source\PSoC6\pdl\drivers\peripheral\ctb/cy_ctb.h **** *   <tr><th>Charge Pump</th><th>Input Range (V)</th></tr>
 496:Generated_Source\PSoC6\pdl\drivers\peripheral\ctb/cy_ctb.h **** *   <tr>
 497:Generated_Source\PSoC6\pdl\drivers\peripheral\ctb/cy_ctb.h **** *     <td>OFF</td>
 498:Generated_Source\PSoC6\pdl\drivers\peripheral\ctb/cy_ctb.h **** *     <td>0 to VDDA-1.5</td>
 499:Generated_Source\PSoC6\pdl\drivers\peripheral\ctb/cy_ctb.h **** *   </tr>
 500:Generated_Source\PSoC6\pdl\drivers\peripheral\ctb/cy_ctb.h **** *   <tr>
 501:Generated_Source\PSoC6\pdl\drivers\peripheral\ctb/cy_ctb.h **** *     <td>ON</td>
 502:Generated_Source\PSoC6\pdl\drivers\peripheral\ctb/cy_ctb.h **** *     <td>0 to VDDA</td>
 503:Generated_Source\PSoC6\pdl\drivers\peripheral\ctb/cy_ctb.h **** *   </tr>
 504:Generated_Source\PSoC6\pdl\drivers\peripheral\ctb/cy_ctb.h **** * </table>
 505:Generated_Source\PSoC6\pdl\drivers\peripheral\ctb/cy_ctb.h **** *
 506:Generated_Source\PSoC6\pdl\drivers\peripheral\ctb/cy_ctb.h **** * Note that in Deep Sleep mode, the charge pump is disabled so the input
 507:Generated_Source\PSoC6\pdl\drivers\peripheral\ctb/cy_ctb.h **** * range is reduced.
 508:Generated_Source\PSoC6\pdl\drivers\peripheral\ctb/cy_ctb.h **** */
 509:Generated_Source\PSoC6\pdl\drivers\peripheral\ctb/cy_ctb.h **** typedef enum{
 510:Generated_Source\PSoC6\pdl\drivers\peripheral\ctb/cy_ctb.h ****     CY_CTB_PUMP_DISABLE   = 0u,                                           /**< Charge pump is disab
 511:Generated_Source\PSoC6\pdl\drivers\peripheral\ctb/cy_ctb.h ****     CY_CTB_PUMP_ENABLE    = CTBM_OA_RES0_CTRL_OA0_PUMP_EN_Msk,            /**< Charge pump is enabl
 512:Generated_Source\PSoC6\pdl\drivers\peripheral\ctb/cy_ctb.h **** }cy_en_ctb_pump_t;
 513:Generated_Source\PSoC6\pdl\drivers\peripheral\ctb/cy_ctb.h **** 
 514:Generated_Source\PSoC6\pdl\drivers\peripheral\ctb/cy_ctb.h **** /**
 515:Generated_Source\PSoC6\pdl\drivers\peripheral\ctb/cy_ctb.h **** * Configure the type of edge that will trigger a comparator interrupt or
 516:Generated_Source\PSoC6\pdl\drivers\peripheral\ctb/cy_ctb.h **** * disable the interrupt entirely.
 517:Generated_Source\PSoC6\pdl\drivers\peripheral\ctb/cy_ctb.h **** */
 518:Generated_Source\PSoC6\pdl\drivers\peripheral\ctb/cy_ctb.h **** typedef enum
 519:Generated_Source\PSoC6\pdl\drivers\peripheral\ctb/cy_ctb.h **** {
 520:Generated_Source\PSoC6\pdl\drivers\peripheral\ctb/cy_ctb.h ****     CY_CTB_COMP_EDGE_DISABLE       = 0u,                                       /**< Disabled, no in
 521:Generated_Source\PSoC6\pdl\drivers\peripheral\ctb/cy_ctb.h ****     CY_CTB_COMP_EDGE_RISING        = 1u << CTBM_OA_RES0_CTRL_OA0_COMPINT_Pos,  /**< Rising edge gen
 522:Generated_Source\PSoC6\pdl\drivers\peripheral\ctb/cy_ctb.h ****     CY_CTB_COMP_EDGE_FALLING       = 2u << CTBM_OA_RES0_CTRL_OA0_COMPINT_Pos,  /**< Falling edge ge
 523:Generated_Source\PSoC6\pdl\drivers\peripheral\ctb/cy_ctb.h ****     CY_CTB_COMP_EDGE_BOTH          = 3u << CTBM_OA_RES0_CTRL_OA0_COMPINT_Pos,  /**< Both edges gene
 524:Generated_Source\PSoC6\pdl\drivers\peripheral\ctb/cy_ctb.h **** }cy_en_ctb_comp_edge_t;
 525:Generated_Source\PSoC6\pdl\drivers\peripheral\ctb/cy_ctb.h **** 
 526:Generated_Source\PSoC6\pdl\drivers\peripheral\ctb/cy_ctb.h **** /** Configure the comparator DSI trigger output level when output is synchronized. */
 527:Generated_Source\PSoC6\pdl\drivers\peripheral\ctb/cy_ctb.h **** typedef enum
 528:Generated_Source\PSoC6\pdl\drivers\peripheral\ctb/cy_ctb.h **** {
 529:Generated_Source\PSoC6\pdl\drivers\peripheral\ctb/cy_ctb.h ****     CY_CTB_COMP_DSI_TRIGGER_OUT_PULSE    = 0u,                                        /**< Send pul
 530:Generated_Source\PSoC6\pdl\drivers\peripheral\ctb/cy_ctb.h ****     CY_CTB_COMP_DSI_TRIGGER_OUT_LEVEL    = CTBM_OA_RES0_CTRL_OA0_DSI_LEVEL_Msk,       /**< DSI outp
 531:Generated_Source\PSoC6\pdl\drivers\peripheral\ctb/cy_ctb.h **** }cy_en_ctb_comp_level_t;
 532:Generated_Source\PSoC6\pdl\drivers\peripheral\ctb/cy_ctb.h **** 
 533:Generated_Source\PSoC6\pdl\drivers\peripheral\ctb/cy_ctb.h **** /** Bypass the comparator output synchronization for DSI trigger. */
 534:Generated_Source\PSoC6\pdl\drivers\peripheral\ctb/cy_ctb.h **** typedef enum
 535:Generated_Source\PSoC6\pdl\drivers\peripheral\ctb/cy_ctb.h **** {
 536:Generated_Source\PSoC6\pdl\drivers\peripheral\ctb/cy_ctb.h ****     CY_CTB_COMP_BYPASS_SYNC          = 0u,                                          /**< Comparator
 537:Generated_Source\PSoC6\pdl\drivers\peripheral\ctb/cy_ctb.h ****     CY_CTB_COMP_BYPASS_NO_SYNC       = CTBM_OA_RES0_CTRL_OA0_BYPASS_DSI_SYNC_Msk,   /**< Comparator
 538:Generated_Source\PSoC6\pdl\drivers\peripheral\ctb/cy_ctb.h **** }cy_en_ctb_comp_bypass_t;
 539:Generated_Source\PSoC6\pdl\drivers\peripheral\ctb/cy_ctb.h **** 
 540:Generated_Source\PSoC6\pdl\drivers\peripheral\ctb/cy_ctb.h **** /** Disable or enable the 10 mV hysteresis for the comparator. */
 541:Generated_Source\PSoC6\pdl\drivers\peripheral\ctb/cy_ctb.h **** typedef enum
 542:Generated_Source\PSoC6\pdl\drivers\peripheral\ctb/cy_ctb.h **** {
 543:Generated_Source\PSoC6\pdl\drivers\peripheral\ctb/cy_ctb.h ****     CY_CTB_COMP_HYST_DISABLE      = 0u,                                    /**< Disable hysteresis 
 544:Generated_Source\PSoC6\pdl\drivers\peripheral\ctb/cy_ctb.h ****     CY_CTB_COMP_HYST_10MV         = CTBM_OA_RES0_CTRL_OA0_HYST_EN_Msk,     /**< Enable the 10 mV hy
 545:Generated_Source\PSoC6\pdl\drivers\peripheral\ctb/cy_ctb.h **** }cy_en_ctb_comp_hyst_t;
ARM GAS  C:\Users\gjl\AppData\Local\Temp\cckcOS93.s 			page 43


 546:Generated_Source\PSoC6\pdl\drivers\peripheral\ctb/cy_ctb.h **** 
 547:Generated_Source\PSoC6\pdl\drivers\peripheral\ctb/cy_ctb.h **** /** Switch state, either open or closed, to be used in \ref Cy_CTB_SetAnalogSwitch. */
 548:Generated_Source\PSoC6\pdl\drivers\peripheral\ctb/cy_ctb.h **** typedef enum
 549:Generated_Source\PSoC6\pdl\drivers\peripheral\ctb/cy_ctb.h **** {
 550:Generated_Source\PSoC6\pdl\drivers\peripheral\ctb/cy_ctb.h ****     CY_CTB_SWITCH_OPEN      = 0uL,    /**< Open the switch */
 551:Generated_Source\PSoC6\pdl\drivers\peripheral\ctb/cy_ctb.h ****     CY_CTB_SWITCH_CLOSE     = 1uL     /**< Close the switch */
 552:Generated_Source\PSoC6\pdl\drivers\peripheral\ctb/cy_ctb.h **** }cy_en_ctb_switch_state_t;
 553:Generated_Source\PSoC6\pdl\drivers\peripheral\ctb/cy_ctb.h **** 
 554:Generated_Source\PSoC6\pdl\drivers\peripheral\ctb/cy_ctb.h **** /**
 555:Generated_Source\PSoC6\pdl\drivers\peripheral\ctb/cy_ctb.h **** * The switch register to be used in \ref Cy_CTB_SetAnalogSwitch.
 556:Generated_Source\PSoC6\pdl\drivers\peripheral\ctb/cy_ctb.h **** * The CTB has three registers for configuring the switch routing matrix.
 557:Generated_Source\PSoC6\pdl\drivers\peripheral\ctb/cy_ctb.h **** * */
 558:Generated_Source\PSoC6\pdl\drivers\peripheral\ctb/cy_ctb.h **** typedef enum
 559:Generated_Source\PSoC6\pdl\drivers\peripheral\ctb/cy_ctb.h **** {
 560:Generated_Source\PSoC6\pdl\drivers\peripheral\ctb/cy_ctb.h ****     CY_CTB_SWITCH_OA0_SW     = 0u,     /**< Switch register for Opamp0 */
 561:Generated_Source\PSoC6\pdl\drivers\peripheral\ctb/cy_ctb.h ****     CY_CTB_SWITCH_OA1_SW     = 1u,     /**< Switch register for Opamp1 */
 562:Generated_Source\PSoC6\pdl\drivers\peripheral\ctb/cy_ctb.h ****     CY_CTB_SWITCH_CTD_SW     = 2u,     /**< Switch register for CTDAC routing */
 563:Generated_Source\PSoC6\pdl\drivers\peripheral\ctb/cy_ctb.h **** }cy_en_ctb_switch_register_sel_t;
 564:Generated_Source\PSoC6\pdl\drivers\peripheral\ctb/cy_ctb.h **** 
 565:Generated_Source\PSoC6\pdl\drivers\peripheral\ctb/cy_ctb.h **** /**
 566:Generated_Source\PSoC6\pdl\drivers\peripheral\ctb/cy_ctb.h **** * Switch masks for Opamp0 to be used in \ref Cy_CTB_SetAnalogSwitch.
 567:Generated_Source\PSoC6\pdl\drivers\peripheral\ctb/cy_ctb.h **** */
 568:Generated_Source\PSoC6\pdl\drivers\peripheral\ctb/cy_ctb.h **** typedef enum
 569:Generated_Source\PSoC6\pdl\drivers\peripheral\ctb/cy_ctb.h **** {
 570:Generated_Source\PSoC6\pdl\drivers\peripheral\ctb/cy_ctb.h ****     CY_CTB_SW_OA0_POS_AMUXBUSA_MASK     = CTBM_OA0_SW_OA0P_A00_Msk,       /**< Switch A00: Opamp0 n
 571:Generated_Source\PSoC6\pdl\drivers\peripheral\ctb/cy_ctb.h ****     CY_CTB_SW_OA0_POS_PIN0_MASK         = CTBM_OA0_SW_OA0P_A20_Msk,       /**< Switch A20: Opamp0 n
 572:Generated_Source\PSoC6\pdl\drivers\peripheral\ctb/cy_ctb.h ****     CY_CTB_SW_OA0_POS_PIN6_MASK         = CTBM_OA0_SW_OA0P_A30_Msk,       /**< Switch A30: Opamp0 n
 573:Generated_Source\PSoC6\pdl\drivers\peripheral\ctb/cy_ctb.h ****     CY_CTB_SW_OA0_NEG_PIN1_MASK         = CTBM_OA0_SW_OA0M_A11_Msk,       /**< Switch A11: Opamp0 i
 574:Generated_Source\PSoC6\pdl\drivers\peripheral\ctb/cy_ctb.h ****     CY_CTB_SW_OA0_NEG_OUT_MASK          = CTBM_OA0_SW_OA0M_A81_Msk,       /**< Switch A81: Opamp0 i
 575:Generated_Source\PSoC6\pdl\drivers\peripheral\ctb/cy_ctb.h ****     CY_CTB_SW_OA0_OUT_SARBUS0_MASK      = CTBM_OA0_SW_OA0O_D51_Msk,       /**< Switch D51: Opamp0 o
 576:Generated_Source\PSoC6\pdl\drivers\peripheral\ctb/cy_ctb.h ****     CY_CTB_SW_OA0_OUT_SHORT_1X_10X_MASK = CTBM_OA0_SW_OA0O_D81_Msk,       /**< Switch D81: Short Op
 577:Generated_Source\PSoC6\pdl\drivers\peripheral\ctb/cy_ctb.h **** }cy_en_ctb_oa0_switches_t;
 578:Generated_Source\PSoC6\pdl\drivers\peripheral\ctb/cy_ctb.h **** 
 579:Generated_Source\PSoC6\pdl\drivers\peripheral\ctb/cy_ctb.h **** /**
 580:Generated_Source\PSoC6\pdl\drivers\peripheral\ctb/cy_ctb.h **** * Switch masks for Opamp1 to be used in \ref Cy_CTB_SetAnalogSwitch.
 581:Generated_Source\PSoC6\pdl\drivers\peripheral\ctb/cy_ctb.h **** */
 582:Generated_Source\PSoC6\pdl\drivers\peripheral\ctb/cy_ctb.h **** typedef enum
 583:Generated_Source\PSoC6\pdl\drivers\peripheral\ctb/cy_ctb.h **** {
 584:Generated_Source\PSoC6\pdl\drivers\peripheral\ctb/cy_ctb.h ****     CY_CTB_SW_OA1_POS_AMUXBUSB_MASK     = CTBM_OA1_SW_OA1P_A03_Msk,       /**< Switch A03: Opamp1 n
 585:Generated_Source\PSoC6\pdl\drivers\peripheral\ctb/cy_ctb.h ****     CY_CTB_SW_OA1_POS_PIN5_MASK         = CTBM_OA1_SW_OA1P_A13_Msk,       /**< Switch A13: Opamp1 n
 586:Generated_Source\PSoC6\pdl\drivers\peripheral\ctb/cy_ctb.h ****     CY_CTB_SW_OA1_POS_PIN7_MASK         = CTBM_OA1_SW_OA1P_A43_Msk,       /**< Switch A43: Opamp1 n
 587:Generated_Source\PSoC6\pdl\drivers\peripheral\ctb/cy_ctb.h ****     CY_CTB_SW_OA1_POS_AREF_MASK         = CTBM_OA1_SW_OA1P_A73_Msk,       /**< Switch A73: Opamp1 n
 588:Generated_Source\PSoC6\pdl\drivers\peripheral\ctb/cy_ctb.h ****     CY_CTB_SW_OA1_NEG_PIN4_MASK         = CTBM_OA1_SW_OA1M_A22_Msk,       /**< Switch A22: Opamp1 i
 589:Generated_Source\PSoC6\pdl\drivers\peripheral\ctb/cy_ctb.h ****     CY_CTB_SW_OA1_NEG_OUT_MASK          = CTBM_OA1_SW_OA1M_A82_Msk,       /**< switch A82: Opamp1 i
 590:Generated_Source\PSoC6\pdl\drivers\peripheral\ctb/cy_ctb.h ****     CY_CTB_SW_OA1_OUT_SARBUS0_MASK      = CTBM_OA1_SW_OA1O_D52_Msk,       /**< Switch D52: Opamp1 o
 591:Generated_Source\PSoC6\pdl\drivers\peripheral\ctb/cy_ctb.h ****     CY_CTB_SW_OA1_OUT_SARBUS1_MASK      = CTBM_OA1_SW_OA1O_D62_Msk,       /**< Switch D62: Opamp1 o
 592:Generated_Source\PSoC6\pdl\drivers\peripheral\ctb/cy_ctb.h ****     CY_CTB_SW_OA1_OUT_SHORT_1X_10X_MASK = CTBM_OA1_SW_OA1O_D82_Msk,       /**< Switch D82: Short Op
 593:Generated_Source\PSoC6\pdl\drivers\peripheral\ctb/cy_ctb.h **** }cy_en_ctb_oa1_switches_t;
 594:Generated_Source\PSoC6\pdl\drivers\peripheral\ctb/cy_ctb.h **** 
 595:Generated_Source\PSoC6\pdl\drivers\peripheral\ctb/cy_ctb.h **** /**
 596:Generated_Source\PSoC6\pdl\drivers\peripheral\ctb/cy_ctb.h **** * Switch masks for CTDAC to CTB routing to be used in \ref Cy_CTB_SetAnalogSwitch.
 597:Generated_Source\PSoC6\pdl\drivers\peripheral\ctb/cy_ctb.h **** */
 598:Generated_Source\PSoC6\pdl\drivers\peripheral\ctb/cy_ctb.h **** typedef enum
 599:Generated_Source\PSoC6\pdl\drivers\peripheral\ctb/cy_ctb.h **** {
 600:Generated_Source\PSoC6\pdl\drivers\peripheral\ctb/cy_ctb.h ****     CY_CTB_SW_CTD_REF_OA1_OUT_MASK              = CTBM_CTD_SW_CTDD_CRD_Msk,       /**< Switch CRD: 
 601:Generated_Source\PSoC6\pdl\drivers\peripheral\ctb/cy_ctb.h ****     CY_CTB_SW_CTD_REFSENSE_OA1_NEG_MASK         = CTBM_CTD_SW_CTDS_CRS_Msk,       /**< Switch CRS: 
 602:Generated_Source\PSoC6\pdl\drivers\peripheral\ctb/cy_ctb.h ****     CY_CTB_SW_CTD_OUT_OA1_NEG_MASK              = CTBM_CTD_SW_CTDS_COR_Msk,       /**< Switch COR: 
ARM GAS  C:\Users\gjl\AppData\Local\Temp\cckcOS93.s 			page 44


 603:Generated_Source\PSoC6\pdl\drivers\peripheral\ctb/cy_ctb.h ****     CY_CTB_SW_CTD_OUT_PIN6_MASK                 = CTBM_CTD_SW_CTDO_C6H_Msk,       /**< Switch C6H: 
 604:Generated_Source\PSoC6\pdl\drivers\peripheral\ctb/cy_ctb.h ****     CY_CTB_SW_CTD_OUT_CHOLD_MASK                = CTBM_CTD_SW_CTDO_COS_Msk,       /**< Switch COS: 
 605:Generated_Source\PSoC6\pdl\drivers\peripheral\ctb/cy_ctb.h ****     CY_CTB_SW_CTD_OUT_OA0_1X_OUT_MASK           = CTBM_CTD_SW_CTDH_COB_Msk,       /**< Switch COB: 
 606:Generated_Source\PSoC6\pdl\drivers\peripheral\ctb/cy_ctb.h ****     CY_CTB_SW_CTD_CHOLD_CONNECT_MASK            = CTBM_CTD_SW_CTDH_CHD_Msk,       /**< Switch CHD: 
 607:Generated_Source\PSoC6\pdl\drivers\peripheral\ctb/cy_ctb.h ****     CY_CTB_SW_CTD_CHOLD_OA0_POS_MASK            = CTBM_CTD_SW_CTDH_CA0_Msk,       /**< Switch CA0: 
 608:Generated_Source\PSoC6\pdl\drivers\peripheral\ctb/cy_ctb.h ****     CY_CTB_SW_CTD_CHOLD_OA0_POS_ISOLATE_MASK    = CTBM_CTD_SW_CTDH_CIS_Msk,       /**< Switch CIS: 
 609:Generated_Source\PSoC6\pdl\drivers\peripheral\ctb/cy_ctb.h ****     CY_CTB_SW_CTD_CHOLD_LEAKAGE_REDUCTION_MASK  = CTBM_CTD_SW_CTDH_ILR_Msk,       /**< Switch ILR: 
 610:Generated_Source\PSoC6\pdl\drivers\peripheral\ctb/cy_ctb.h **** }cy_en_ctb_ctd_switches_t;
 611:Generated_Source\PSoC6\pdl\drivers\peripheral\ctb/cy_ctb.h **** 
 612:Generated_Source\PSoC6\pdl\drivers\peripheral\ctb/cy_ctb.h **** 
 613:Generated_Source\PSoC6\pdl\drivers\peripheral\ctb/cy_ctb.h **** /**
 614:Generated_Source\PSoC6\pdl\drivers\peripheral\ctb/cy_ctb.h **** * Masks for CTB switches that can be controlled by the SAR sequencer.
 615:Generated_Source\PSoC6\pdl\drivers\peripheral\ctb/cy_ctb.h **** * These masks are used in \ref Cy_CTB_EnableSarSeqCtrl and \ref Cy_CTB_DisableSarSeqCtrl.
 616:Generated_Source\PSoC6\pdl\drivers\peripheral\ctb/cy_ctb.h **** *
 617:Generated_Source\PSoC6\pdl\drivers\peripheral\ctb/cy_ctb.h **** * The SAR ADC subsystem supports analog routes through three CTB switches on SARBUS0 and SARBUS1.
 618:Generated_Source\PSoC6\pdl\drivers\peripheral\ctb/cy_ctb.h **** * This control allows for pins on the CTB dedicated port to route to the SAR ADC input channels:
 619:Generated_Source\PSoC6\pdl\drivers\peripheral\ctb/cy_ctb.h **** *
 620:Generated_Source\PSoC6\pdl\drivers\peripheral\ctb/cy_ctb.h **** *   - D51: Connects the inverting terminal of OA0 to SARBUS0
 621:Generated_Source\PSoC6\pdl\drivers\peripheral\ctb/cy_ctb.h **** *   - D52: Connects the inverting terminal of OA1 to SARBUS0
 622:Generated_Source\PSoC6\pdl\drivers\peripheral\ctb/cy_ctb.h **** *   - D62: Connects the inverting terminal of OA1 to SARBUS1
 623:Generated_Source\PSoC6\pdl\drivers\peripheral\ctb/cy_ctb.h **** */
 624:Generated_Source\PSoC6\pdl\drivers\peripheral\ctb/cy_ctb.h **** typedef enum
 625:Generated_Source\PSoC6\pdl\drivers\peripheral\ctb/cy_ctb.h **** {
 626:Generated_Source\PSoC6\pdl\drivers\peripheral\ctb/cy_ctb.h ****     CY_CTB_SW_SEQ_CTRL_D51_MASK            = CTBM_CTB_SW_SQ_CTRL_P2_SQ_CTRL23_Msk,  /**< Enable SAR
 627:Generated_Source\PSoC6\pdl\drivers\peripheral\ctb/cy_ctb.h ****     CY_CTB_SW_SEQ_CTRL_D52_D62_MASK        = CTBM_CTB_SW_SQ_CTRL_P3_SQ_CTRL23_Msk,  /**< Enable SAR
 628:Generated_Source\PSoC6\pdl\drivers\peripheral\ctb/cy_ctb.h ****     CY_CTB_SW_SEQ_CTRL_D51_D52_D62_MASK    = CTBM_CTB_SW_SQ_CTRL_P2_SQ_CTRL23_Msk | CTBM_CTB_SW_SQ_
 629:Generated_Source\PSoC6\pdl\drivers\peripheral\ctb/cy_ctb.h **** }cy_en_ctb_switch_sar_seq_t;
 630:Generated_Source\PSoC6\pdl\drivers\peripheral\ctb/cy_ctb.h **** 
 631:Generated_Source\PSoC6\pdl\drivers\peripheral\ctb/cy_ctb.h **** /**
 632:Generated_Source\PSoC6\pdl\drivers\peripheral\ctb/cy_ctb.h **** * Each opamp also has a programmable compensation capacitor block,
 633:Generated_Source\PSoC6\pdl\drivers\peripheral\ctb/cy_ctb.h **** * that optimizes the stability of the opamp performance based on output load.
 634:Generated_Source\PSoC6\pdl\drivers\peripheral\ctb/cy_ctb.h **** * The compensation cap will be set by the driver based on the opamp drive strength (1x or 10x) sele
 635:Generated_Source\PSoC6\pdl\drivers\peripheral\ctb/cy_ctb.h **** */
 636:Generated_Source\PSoC6\pdl\drivers\peripheral\ctb/cy_ctb.h **** typedef enum
 637:Generated_Source\PSoC6\pdl\drivers\peripheral\ctb/cy_ctb.h **** {
 638:Generated_Source\PSoC6\pdl\drivers\peripheral\ctb/cy_ctb.h ****     CY_CTB_OPAMP_COMPENSATION_CAP_OFF      = 0u,       /**< No compensation */
 639:Generated_Source\PSoC6\pdl\drivers\peripheral\ctb/cy_ctb.h ****     CY_CTB_OPAMP_COMPENSATION_CAP_MIN      = 1u,       /**< Minimum compensation - for 1x drive*/
 640:Generated_Source\PSoC6\pdl\drivers\peripheral\ctb/cy_ctb.h ****     CY_CTB_OPAMP_COMPENSATION_CAP_MED      = 2u,       /**< Medium compensation */
 641:Generated_Source\PSoC6\pdl\drivers\peripheral\ctb/cy_ctb.h ****     CY_CTB_OPAMP_COMPENSATION_CAP_MAX      = 3u,       /**< Maximum compensation - for 10x drive */
 642:Generated_Source\PSoC6\pdl\drivers\peripheral\ctb/cy_ctb.h **** }cy_en_ctb_compensation_cap_t;
 643:Generated_Source\PSoC6\pdl\drivers\peripheral\ctb/cy_ctb.h **** 
 644:Generated_Source\PSoC6\pdl\drivers\peripheral\ctb/cy_ctb.h **** /** Enable or disable the gain booster.
 645:Generated_Source\PSoC6\pdl\drivers\peripheral\ctb/cy_ctb.h **** * The gain booster will be set by the driver based on the opamp drive strength (1x or 10x) selectio
 646:Generated_Source\PSoC6\pdl\drivers\peripheral\ctb/cy_ctb.h **** */
 647:Generated_Source\PSoC6\pdl\drivers\peripheral\ctb/cy_ctb.h **** typedef enum
 648:Generated_Source\PSoC6\pdl\drivers\peripheral\ctb/cy_ctb.h **** {
 649:Generated_Source\PSoC6\pdl\drivers\peripheral\ctb/cy_ctb.h ****     CY_CTB_OPAMP_BOOST_DISABLE = 0u,                                   /**< Disable gain booster - 
 650:Generated_Source\PSoC6\pdl\drivers\peripheral\ctb/cy_ctb.h ****     CY_CTB_OPAMP_BOOST_ENABLE  = CTBM_OA_RES0_CTRL_OA0_BOOST_EN_Msk,   /**< Enable gain booster - f
 651:Generated_Source\PSoC6\pdl\drivers\peripheral\ctb/cy_ctb.h **** }cy_en_ctb_boost_en_t;
 652:Generated_Source\PSoC6\pdl\drivers\peripheral\ctb/cy_ctb.h **** 
 653:Generated_Source\PSoC6\pdl\drivers\peripheral\ctb/cy_ctb.h **** /** Sample and hold modes for firmware sampling of the CTDAC output.
 654:Generated_Source\PSoC6\pdl\drivers\peripheral\ctb/cy_ctb.h **** *
 655:Generated_Source\PSoC6\pdl\drivers\peripheral\ctb/cy_ctb.h **** * To perform a sample or a hold, a preparation step must first be executed to
 656:Generated_Source\PSoC6\pdl\drivers\peripheral\ctb/cy_ctb.h **** * open the required switches.
 657:Generated_Source\PSoC6\pdl\drivers\peripheral\ctb/cy_ctb.h **** *
 658:Generated_Source\PSoC6\pdl\drivers\peripheral\ctb/cy_ctb.h **** * -# Call \ref Cy_CTB_DACSampleAndHold with \ref CY_CTB_SH_PREPARE_SAMPLE or \ref CY_CTB_SH_PREPARE
 659:Generated_Source\PSoC6\pdl\drivers\peripheral\ctb/cy_ctb.h **** * -# Enable or disable CTDAC output
ARM GAS  C:\Users\gjl\AppData\Local\Temp\cckcOS93.s 			page 45


 660:Generated_Source\PSoC6\pdl\drivers\peripheral\ctb/cy_ctb.h **** * -# Call \ref Cy_CTB_DACSampleAndHold with \ref CY_CTB_SH_SAMPLE or \ref CY_CTB_SH_HOLD
 661:Generated_Source\PSoC6\pdl\drivers\peripheral\ctb/cy_ctb.h **** */
 662:Generated_Source\PSoC6\pdl\drivers\peripheral\ctb/cy_ctb.h **** typedef enum
 663:Generated_Source\PSoC6\pdl\drivers\peripheral\ctb/cy_ctb.h **** {
 664:Generated_Source\PSoC6\pdl\drivers\peripheral\ctb/cy_ctb.h ****     CY_CTB_SH_DISABLE           = 0u,   /**< The hold capacitor is not connected - this disables sa
 665:Generated_Source\PSoC6\pdl\drivers\peripheral\ctb/cy_ctb.h ****     CY_CTB_SH_PREPARE_SAMPLE    = 1u,   /**< Prepares the required switches for a following sample 
 666:Generated_Source\PSoC6\pdl\drivers\peripheral\ctb/cy_ctb.h ****     CY_CTB_SH_SAMPLE            = 2u,   /**< Performs a sample of the voltage */
 667:Generated_Source\PSoC6\pdl\drivers\peripheral\ctb/cy_ctb.h ****     CY_CTB_SH_PREPARE_HOLD      = 3u,   /**< Prepares the required switches for a following hold */
 668:Generated_Source\PSoC6\pdl\drivers\peripheral\ctb/cy_ctb.h ****     CY_CTB_SH_HOLD              = 4u,   /**< Performs a hold of the previously sampled voltage */
 669:Generated_Source\PSoC6\pdl\drivers\peripheral\ctb/cy_ctb.h **** }cy_en_ctb_sample_hold_mode_t;
 670:Generated_Source\PSoC6\pdl\drivers\peripheral\ctb/cy_ctb.h **** 
 671:Generated_Source\PSoC6\pdl\drivers\peripheral\ctb/cy_ctb.h **** /** AREF IPTAT bias current output for the CTB
 672:Generated_Source\PSoC6\pdl\drivers\peripheral\ctb/cy_ctb.h **** *
 673:Generated_Source\PSoC6\pdl\drivers\peripheral\ctb/cy_ctb.h **** * The CTB bias current can be 1 uA (normal) or 100 nA (low current).
 674:Generated_Source\PSoC6\pdl\drivers\peripheral\ctb/cy_ctb.h **** */
 675:Generated_Source\PSoC6\pdl\drivers\peripheral\ctb/cy_ctb.h **** typedef enum
 676:Generated_Source\PSoC6\pdl\drivers\peripheral\ctb/cy_ctb.h **** {
 677:Generated_Source\PSoC6\pdl\drivers\peripheral\ctb/cy_ctb.h ****     CY_CTB_IPTAT_NORMAL       = 0u,                                               /**< 1 uA bias cu
 678:Generated_Source\PSoC6\pdl\drivers\peripheral\ctb/cy_ctb.h ****     CY_CTB_IPTAT_LOW          = 1u << PASS_AREF_AREF_CTRL_CTB_IPTAT_SCALE_Pos,    /**< 100 nA bias 
 679:Generated_Source\PSoC6\pdl\drivers\peripheral\ctb/cy_ctb.h **** }cy_en_ctb_iptat_t;
 680:Generated_Source\PSoC6\pdl\drivers\peripheral\ctb/cy_ctb.h **** 
 681:Generated_Source\PSoC6\pdl\drivers\peripheral\ctb/cy_ctb.h **** /** CTB charge pump clock sources
 682:Generated_Source\PSoC6\pdl\drivers\peripheral\ctb/cy_ctb.h **** *
 683:Generated_Source\PSoC6\pdl\drivers\peripheral\ctb/cy_ctb.h **** * The CTB pump clock can come from:
 684:Generated_Source\PSoC6\pdl\drivers\peripheral\ctb/cy_ctb.h **** *   - a dedicated divider clock in the SRSS
 685:Generated_Source\PSoC6\pdl\drivers\peripheral\ctb/cy_ctb.h **** *   - one of the CLK_PERI dividers
 686:Generated_Source\PSoC6\pdl\drivers\peripheral\ctb/cy_ctb.h **** */
 687:Generated_Source\PSoC6\pdl\drivers\peripheral\ctb/cy_ctb.h **** typedef enum
 688:Generated_Source\PSoC6\pdl\drivers\peripheral\ctb/cy_ctb.h **** {
 689:Generated_Source\PSoC6\pdl\drivers\peripheral\ctb/cy_ctb.h ****     CY_CTB_CLK_PUMP_SRSS       = 0u,                                                   /**< Use the
 690:Generated_Source\PSoC6\pdl\drivers\peripheral\ctb/cy_ctb.h ****     CY_CTB_CLK_PUMP_PERI       = 1u << PASS_AREF_AREF_CTRL_CLOCK_PUMP_PERI_SEL_Pos,    /**< Use one
 691:Generated_Source\PSoC6\pdl\drivers\peripheral\ctb/cy_ctb.h **** }cy_en_ctb_clk_pump_source_t;
 692:Generated_Source\PSoC6\pdl\drivers\peripheral\ctb/cy_ctb.h **** 
 693:Generated_Source\PSoC6\pdl\drivers\peripheral\ctb/cy_ctb.h **** /** High level opamp current modes */
 694:Generated_Source\PSoC6\pdl\drivers\peripheral\ctb/cy_ctb.h **** typedef enum
 695:Generated_Source\PSoC6\pdl\drivers\peripheral\ctb/cy_ctb.h **** {
 696:Generated_Source\PSoC6\pdl\drivers\peripheral\ctb/cy_ctb.h ****     CY_CTB_CURRENT_HIGH_ACTIVE             = 0u,    /**< Uses 1 uA reference current with charge pu
 697:Generated_Source\PSoC6\pdl\drivers\peripheral\ctb/cy_ctb.h ****     CY_CTB_CURRENT_HIGH_ACTIVE_DEEPSLEEP   = 1u,    /**< Uses 1 uA reference current with charge pu
 698:Generated_Source\PSoC6\pdl\drivers\peripheral\ctb/cy_ctb.h ****     CY_CTB_CURRENT_LOW_ACTIVE_DEEPSLEEP    = 2u,    /**< Uses 100 nA reference current with charge 
 699:Generated_Source\PSoC6\pdl\drivers\peripheral\ctb/cy_ctb.h **** }cy_en_ctb_current_mode_t;
 700:Generated_Source\PSoC6\pdl\drivers\peripheral\ctb/cy_ctb.h **** 
 701:Generated_Source\PSoC6\pdl\drivers\peripheral\ctb/cy_ctb.h **** /** Return states for \ref Cy_CTB_Init, \ref Cy_CTB_OpampInit, \ref Cy_CTB_DeInit, and \ref Cy_CTB_
 702:Generated_Source\PSoC6\pdl\drivers\peripheral\ctb/cy_ctb.h **** typedef enum {
 703:Generated_Source\PSoC6\pdl\drivers\peripheral\ctb/cy_ctb.h ****     CY_CTB_SUCCESS    = 0x00uL,                                      /**< Initialization completed 
 704:Generated_Source\PSoC6\pdl\drivers\peripheral\ctb/cy_ctb.h ****     CY_CTB_BAD_PARAM  = CY_CTB_ID | CY_PDL_STATUS_ERROR | 0x01uL,    /**< Input pointers were NULL 
 705:Generated_Source\PSoC6\pdl\drivers\peripheral\ctb/cy_ctb.h **** }cy_en_ctb_status_t;
 706:Generated_Source\PSoC6\pdl\drivers\peripheral\ctb/cy_ctb.h **** 
 707:Generated_Source\PSoC6\pdl\drivers\peripheral\ctb/cy_ctb.h **** /** \} group_ctb_enums */
 708:Generated_Source\PSoC6\pdl\drivers\peripheral\ctb/cy_ctb.h **** 
 709:Generated_Source\PSoC6\pdl\drivers\peripheral\ctb/cy_ctb.h **** /***************************************
 710:Generated_Source\PSoC6\pdl\drivers\peripheral\ctb/cy_ctb.h **** *       Configuration Structures
 711:Generated_Source\PSoC6\pdl\drivers\peripheral\ctb/cy_ctb.h **** ***************************************/
 712:Generated_Source\PSoC6\pdl\drivers\peripheral\ctb/cy_ctb.h **** 
 713:Generated_Source\PSoC6\pdl\drivers\peripheral\ctb/cy_ctb.h **** /**
 714:Generated_Source\PSoC6\pdl\drivers\peripheral\ctb/cy_ctb.h **** * \addtogroup group_ctb_data_structures
 715:Generated_Source\PSoC6\pdl\drivers\peripheral\ctb/cy_ctb.h **** * \{
 716:Generated_Source\PSoC6\pdl\drivers\peripheral\ctb/cy_ctb.h **** */
ARM GAS  C:\Users\gjl\AppData\Local\Temp\cckcOS93.s 			page 46


 717:Generated_Source\PSoC6\pdl\drivers\peripheral\ctb/cy_ctb.h **** 
 718:Generated_Source\PSoC6\pdl\drivers\peripheral\ctb/cy_ctb.h **** /**
 719:Generated_Source\PSoC6\pdl\drivers\peripheral\ctb/cy_ctb.h **** * Configuration structure to set up the entire CTB to be used with \ref Cy_CTB_Init.
 720:Generated_Source\PSoC6\pdl\drivers\peripheral\ctb/cy_ctb.h **** */
 721:Generated_Source\PSoC6\pdl\drivers\peripheral\ctb/cy_ctb.h **** typedef struct {
 722:Generated_Source\PSoC6\pdl\drivers\peripheral\ctb/cy_ctb.h ****     cy_en_ctb_deep_sleep_t      deepSleep;      /**< Enable or disable the CTB during Deep Sleep */
 723:Generated_Source\PSoC6\pdl\drivers\peripheral\ctb/cy_ctb.h **** 
 724:Generated_Source\PSoC6\pdl\drivers\peripheral\ctb/cy_ctb.h ****     /* Opamp0 configuration */
 725:Generated_Source\PSoC6\pdl\drivers\peripheral\ctb/cy_ctb.h ****     cy_en_ctb_power_t           oa0Power;       /**< Opamp0 power mode: off, low, medium, or high *
 726:Generated_Source\PSoC6\pdl\drivers\peripheral\ctb/cy_ctb.h ****     cy_en_ctb_mode_t            oa0Mode;        /**< Opamp0 usage mode: 1x drive, 10x drive, or as 
 727:Generated_Source\PSoC6\pdl\drivers\peripheral\ctb/cy_ctb.h ****     cy_en_ctb_pump_t            oa0Pump;        /**< Opamp0 charge pump: enable to increase input r
 728:Generated_Source\PSoC6\pdl\drivers\peripheral\ctb/cy_ctb.h ****     cy_en_ctb_comp_edge_t       oa0CompEdge;    /**< Opamp0 comparator edge detection: disable, ris
 729:Generated_Source\PSoC6\pdl\drivers\peripheral\ctb/cy_ctb.h ****     cy_en_ctb_comp_level_t      oa0CompLevel;   /**< Opamp0 comparator DSI (trigger) output: pulse 
 730:Generated_Source\PSoC6\pdl\drivers\peripheral\ctb/cy_ctb.h ****     cy_en_ctb_comp_bypass_t     oa0CompBypass;  /**< Opamp0 comparator DSI (trigger) output synchro
 731:Generated_Source\PSoC6\pdl\drivers\peripheral\ctb/cy_ctb.h ****     cy_en_ctb_comp_hyst_t       oa0CompHyst;    /**< Opamp0 comparator hysteresis: enable for 10 mV
 732:Generated_Source\PSoC6\pdl\drivers\peripheral\ctb/cy_ctb.h ****     bool                        oa0CompIntrEn;  /**< Opamp0 comparator interrupt enable */
 733:Generated_Source\PSoC6\pdl\drivers\peripheral\ctb/cy_ctb.h **** 
 734:Generated_Source\PSoC6\pdl\drivers\peripheral\ctb/cy_ctb.h ****     /* Opamp1 configuration */
 735:Generated_Source\PSoC6\pdl\drivers\peripheral\ctb/cy_ctb.h ****     cy_en_ctb_power_t           oa1Power;       /**< Opamp1 power mode: off, low, medium, or high *
 736:Generated_Source\PSoC6\pdl\drivers\peripheral\ctb/cy_ctb.h ****     cy_en_ctb_mode_t            oa1Mode;        /**< Opamp1 usage mode: 1x drive, 10x drive, or as 
 737:Generated_Source\PSoC6\pdl\drivers\peripheral\ctb/cy_ctb.h ****     cy_en_ctb_pump_t            oa1Pump;        /**< Opamp1 charge pump: enable to increase input r
 738:Generated_Source\PSoC6\pdl\drivers\peripheral\ctb/cy_ctb.h ****     cy_en_ctb_comp_edge_t       oa1CompEdge;    /**< Opamp1 comparator edge detection: disable, ris
 739:Generated_Source\PSoC6\pdl\drivers\peripheral\ctb/cy_ctb.h ****     cy_en_ctb_comp_level_t      oa1CompLevel;   /**< Opamp1 comparator DSI (trigger) output: pulse 
 740:Generated_Source\PSoC6\pdl\drivers\peripheral\ctb/cy_ctb.h ****     cy_en_ctb_comp_bypass_t     oa1CompBypass;  /**< Opamp1 comparator DSI (trigger) output synchro
 741:Generated_Source\PSoC6\pdl\drivers\peripheral\ctb/cy_ctb.h ****     cy_en_ctb_comp_hyst_t       oa1CompHyst;    /**< Opamp1 comparator hysteresis: enable for 10 mV
 742:Generated_Source\PSoC6\pdl\drivers\peripheral\ctb/cy_ctb.h ****     bool                        oa1CompIntrEn;  /**< Opamp1 comparator interrupt enable */
 743:Generated_Source\PSoC6\pdl\drivers\peripheral\ctb/cy_ctb.h **** 
 744:Generated_Source\PSoC6\pdl\drivers\peripheral\ctb/cy_ctb.h ****     /* Switch analog routing configuration */
 745:Generated_Source\PSoC6\pdl\drivers\peripheral\ctb/cy_ctb.h ****     bool                        configRouting;  /**< Configure or ignore routing related registers 
 746:Generated_Source\PSoC6\pdl\drivers\peripheral\ctb/cy_ctb.h ****     uint32_t                    oa0SwitchCtrl;  /**< Opamp0 routing control */
 747:Generated_Source\PSoC6\pdl\drivers\peripheral\ctb/cy_ctb.h ****     uint32_t                    oa1SwitchCtrl;  /**< Opamp1 routing control */
 748:Generated_Source\PSoC6\pdl\drivers\peripheral\ctb/cy_ctb.h ****     uint32_t                    ctdSwitchCtrl;  /**< Routing control between the CTDAC and CTB bloc
 749:Generated_Source\PSoC6\pdl\drivers\peripheral\ctb/cy_ctb.h **** }cy_stc_ctb_config_t;
 750:Generated_Source\PSoC6\pdl\drivers\peripheral\ctb/cy_ctb.h **** 
 751:Generated_Source\PSoC6\pdl\drivers\peripheral\ctb/cy_ctb.h **** /**
 752:Generated_Source\PSoC6\pdl\drivers\peripheral\ctb/cy_ctb.h **** * This configuration structure is used to initialize only one opamp of the CTB
 753:Generated_Source\PSoC6\pdl\drivers\peripheral\ctb/cy_ctb.h **** * without impacting analog routing. This structure is used with \ref Cy_CTB_OpampInit.
 754:Generated_Source\PSoC6\pdl\drivers\peripheral\ctb/cy_ctb.h **** */
 755:Generated_Source\PSoC6\pdl\drivers\peripheral\ctb/cy_ctb.h **** typedef struct {
 756:Generated_Source\PSoC6\pdl\drivers\peripheral\ctb/cy_ctb.h ****     cy_en_ctb_deep_sleep_t      deepSleep;      /**< Enable or disable the CTB during Deep Sleep */
 757:Generated_Source\PSoC6\pdl\drivers\peripheral\ctb/cy_ctb.h **** 
 758:Generated_Source\PSoC6\pdl\drivers\peripheral\ctb/cy_ctb.h ****     /* Opamp configuration */
 759:Generated_Source\PSoC6\pdl\drivers\peripheral\ctb/cy_ctb.h ****     cy_en_ctb_power_t           oaPower;        /**< Opamp power mode: off, low, medium, or high */
 760:Generated_Source\PSoC6\pdl\drivers\peripheral\ctb/cy_ctb.h ****     cy_en_ctb_mode_t            oaMode;         /**< Opamp usage mode: 1x drive, 10x drive, or as a
 761:Generated_Source\PSoC6\pdl\drivers\peripheral\ctb/cy_ctb.h ****     cy_en_ctb_pump_t            oaPump;         /**< Opamp charge pump: enable to increase input ra
 762:Generated_Source\PSoC6\pdl\drivers\peripheral\ctb/cy_ctb.h ****     cy_en_ctb_comp_edge_t       oaCompEdge;     /**< Opamp comparator edge detection: disable, risi
 763:Generated_Source\PSoC6\pdl\drivers\peripheral\ctb/cy_ctb.h ****     cy_en_ctb_comp_level_t      oaCompLevel;    /**< Opamp comparator DSI (trigger) output: pulse o
 764:Generated_Source\PSoC6\pdl\drivers\peripheral\ctb/cy_ctb.h ****     cy_en_ctb_comp_bypass_t     oaCompBypass;   /**< Opamp comparator DSI (trigger) output synchron
 765:Generated_Source\PSoC6\pdl\drivers\peripheral\ctb/cy_ctb.h ****     cy_en_ctb_comp_hyst_t       oaCompHyst;     /**< Opamp comparator hysteresis: enable for 10 mV 
 766:Generated_Source\PSoC6\pdl\drivers\peripheral\ctb/cy_ctb.h ****     bool                        oaCompIntrEn;   /**< Opamp comparator interrupt enable */
 767:Generated_Source\PSoC6\pdl\drivers\peripheral\ctb/cy_ctb.h **** }cy_stc_ctb_opamp_config_t;
 768:Generated_Source\PSoC6\pdl\drivers\peripheral\ctb/cy_ctb.h **** 
 769:Generated_Source\PSoC6\pdl\drivers\peripheral\ctb/cy_ctb.h **** /** This configuration structure is used to quickly initialize Opamp0 for the most commonly used co
 770:Generated_Source\PSoC6\pdl\drivers\peripheral\ctb/cy_ctb.h **** *
 771:Generated_Source\PSoC6\pdl\drivers\peripheral\ctb/cy_ctb.h **** * Other configuration options are set to:
 772:Generated_Source\PSoC6\pdl\drivers\peripheral\ctb/cy_ctb.h **** *   - .oa0Pump       = \ref CY_CTB_PUMP_ENABLE
 773:Generated_Source\PSoC6\pdl\drivers\peripheral\ctb/cy_ctb.h **** *   - .oa0CompEdge   = \ref CY_CTB_COMP_EDGE_BOTH
ARM GAS  C:\Users\gjl\AppData\Local\Temp\cckcOS93.s 			page 47


 774:Generated_Source\PSoC6\pdl\drivers\peripheral\ctb/cy_ctb.h **** *   - .oa0CompLevel  = \ref CY_CTB_COMP_DSI_TRIGGER_OUT_LEVEL
 775:Generated_Source\PSoC6\pdl\drivers\peripheral\ctb/cy_ctb.h **** *   - .oa0CompBypass = \ref CY_CTB_COMP_BYPASS_SYNC
 776:Generated_Source\PSoC6\pdl\drivers\peripheral\ctb/cy_ctb.h **** *   - .oa0CompHyst   = \ref CY_CTB_COMP_HYST_10MV
 777:Generated_Source\PSoC6\pdl\drivers\peripheral\ctb/cy_ctb.h **** *   - .oa0CompIntrEn = true
 778:Generated_Source\PSoC6\pdl\drivers\peripheral\ctb/cy_ctb.h **** */
 779:Generated_Source\PSoC6\pdl\drivers\peripheral\ctb/cy_ctb.h **** typedef struct
 780:Generated_Source\PSoC6\pdl\drivers\peripheral\ctb/cy_ctb.h **** {
 781:Generated_Source\PSoC6\pdl\drivers\peripheral\ctb/cy_ctb.h ****     cy_en_ctb_power_t   oa0Power;       /**< Opamp0 power mode: off, low, medium, or high */
 782:Generated_Source\PSoC6\pdl\drivers\peripheral\ctb/cy_ctb.h ****     cy_en_ctb_mode_t    oa0Mode;        /**< Opamp0 usage mode: 1x drive, 10x drive, or as a compar
 783:Generated_Source\PSoC6\pdl\drivers\peripheral\ctb/cy_ctb.h ****     uint32_t            oa0SwitchCtrl;  /**< Opamp0 routing control */
 784:Generated_Source\PSoC6\pdl\drivers\peripheral\ctb/cy_ctb.h ****     uint32_t            ctdSwitchCtrl;  /**< Routing control between the CTDAC and CTB blocks */
 785:Generated_Source\PSoC6\pdl\drivers\peripheral\ctb/cy_ctb.h **** }cy_stc_ctb_fast_config_oa0_t;
 786:Generated_Source\PSoC6\pdl\drivers\peripheral\ctb/cy_ctb.h **** 
 787:Generated_Source\PSoC6\pdl\drivers\peripheral\ctb/cy_ctb.h **** /** This configuration structure is used to quickly initialize Opamp1 for the most commonly used co
 788:Generated_Source\PSoC6\pdl\drivers\peripheral\ctb/cy_ctb.h **** *
 789:Generated_Source\PSoC6\pdl\drivers\peripheral\ctb/cy_ctb.h **** * Other configuration options are set to:
 790:Generated_Source\PSoC6\pdl\drivers\peripheral\ctb/cy_ctb.h **** *   - .oa1Pump       = \ref CY_CTB_PUMP_ENABLE
 791:Generated_Source\PSoC6\pdl\drivers\peripheral\ctb/cy_ctb.h **** *   - .oa1CompEdge   = \ref CY_CTB_COMP_EDGE_BOTH
 792:Generated_Source\PSoC6\pdl\drivers\peripheral\ctb/cy_ctb.h **** *   - .oa1CompLevel  = \ref CY_CTB_COMP_DSI_TRIGGER_OUT_LEVEL
 793:Generated_Source\PSoC6\pdl\drivers\peripheral\ctb/cy_ctb.h **** *   - .oa1CompBypass = \ref CY_CTB_COMP_BYPASS_SYNC
 794:Generated_Source\PSoC6\pdl\drivers\peripheral\ctb/cy_ctb.h **** *   - .oa1CompHyst   = \ref CY_CTB_COMP_HYST_10MV
 795:Generated_Source\PSoC6\pdl\drivers\peripheral\ctb/cy_ctb.h **** *   - .oa1CompIntrEn = true
 796:Generated_Source\PSoC6\pdl\drivers\peripheral\ctb/cy_ctb.h **** */
 797:Generated_Source\PSoC6\pdl\drivers\peripheral\ctb/cy_ctb.h **** typedef struct
 798:Generated_Source\PSoC6\pdl\drivers\peripheral\ctb/cy_ctb.h **** {
 799:Generated_Source\PSoC6\pdl\drivers\peripheral\ctb/cy_ctb.h ****     cy_en_ctb_power_t   oa1Power;       /**< Opamp1 power mode: off, low, medium, or high */
 800:Generated_Source\PSoC6\pdl\drivers\peripheral\ctb/cy_ctb.h ****     cy_en_ctb_mode_t    oa1Mode;        /**< Opamp1 usage mode: 1x drive, 10x drive, or as a compar
 801:Generated_Source\PSoC6\pdl\drivers\peripheral\ctb/cy_ctb.h ****     uint32_t            oa1SwitchCtrl;  /**< Opamp1 routing control */
 802:Generated_Source\PSoC6\pdl\drivers\peripheral\ctb/cy_ctb.h ****     uint32_t            ctdSwitchCtrl;  /**< Routing control between the CTDAC and CTB blocks */
 803:Generated_Source\PSoC6\pdl\drivers\peripheral\ctb/cy_ctb.h **** }cy_stc_ctb_fast_config_oa1_t;
 804:Generated_Source\PSoC6\pdl\drivers\peripheral\ctb/cy_ctb.h **** 
 805:Generated_Source\PSoC6\pdl\drivers\peripheral\ctb/cy_ctb.h **** /** \} group_ctb_data_structures */
 806:Generated_Source\PSoC6\pdl\drivers\peripheral\ctb/cy_ctb.h **** 
 807:Generated_Source\PSoC6\pdl\drivers\peripheral\ctb/cy_ctb.h **** 
 808:Generated_Source\PSoC6\pdl\drivers\peripheral\ctb/cy_ctb.h **** /** \addtogroup group_ctb_globals
 809:Generated_Source\PSoC6\pdl\drivers\peripheral\ctb/cy_ctb.h **** * \{
 810:Generated_Source\PSoC6\pdl\drivers\peripheral\ctb/cy_ctb.h **** */
 811:Generated_Source\PSoC6\pdl\drivers\peripheral\ctb/cy_ctb.h **** /***************************************
 812:Generated_Source\PSoC6\pdl\drivers\peripheral\ctb/cy_ctb.h **** *        Global Variables
 813:Generated_Source\PSoC6\pdl\drivers\peripheral\ctb/cy_ctb.h **** ***************************************/
 814:Generated_Source\PSoC6\pdl\drivers\peripheral\ctb/cy_ctb.h **** 
 815:Generated_Source\PSoC6\pdl\drivers\peripheral\ctb/cy_ctb.h **** /** Configure Opamp0 as unused - powered down. See \ref Cy_CTB_FastInit. */
 816:Generated_Source\PSoC6\pdl\drivers\peripheral\ctb/cy_ctb.h **** extern const cy_stc_ctb_fast_config_oa0_t Cy_CTB_Fast_Opamp0_Unused;
 817:Generated_Source\PSoC6\pdl\drivers\peripheral\ctb/cy_ctb.h **** 
 818:Generated_Source\PSoC6\pdl\drivers\peripheral\ctb/cy_ctb.h **** /** Configure Opamp0 as a comparator. No routing is configured.
 819:Generated_Source\PSoC6\pdl\drivers\peripheral\ctb/cy_ctb.h **** *
 820:Generated_Source\PSoC6\pdl\drivers\peripheral\ctb/cy_ctb.h **** * \image html ctb_fast_config_comp.png
 821:Generated_Source\PSoC6\pdl\drivers\peripheral\ctb/cy_ctb.h **** * \image latex ctb_fast_config_comp.png width=100px
 822:Generated_Source\PSoC6\pdl\drivers\peripheral\ctb/cy_ctb.h **** *
 823:Generated_Source\PSoC6\pdl\drivers\peripheral\ctb/cy_ctb.h **** * See \ref Cy_CTB_FastInit.
 824:Generated_Source\PSoC6\pdl\drivers\peripheral\ctb/cy_ctb.h **** */
 825:Generated_Source\PSoC6\pdl\drivers\peripheral\ctb/cy_ctb.h **** extern const cy_stc_ctb_fast_config_oa0_t Cy_CTB_Fast_Opamp0_Comp;
 826:Generated_Source\PSoC6\pdl\drivers\peripheral\ctb/cy_ctb.h **** 
 827:Generated_Source\PSoC6\pdl\drivers\peripheral\ctb/cy_ctb.h **** /** Configure Opamp0 as an opamp with 1x drive. No routing is configured.
 828:Generated_Source\PSoC6\pdl\drivers\peripheral\ctb/cy_ctb.h **** *
 829:Generated_Source\PSoC6\pdl\drivers\peripheral\ctb/cy_ctb.h **** * \image html ctb_fast_config_opamp1x.png
 830:Generated_Source\PSoC6\pdl\drivers\peripheral\ctb/cy_ctb.h **** * \image latex ctb_fast_config_opamp1x.png width=100px
ARM GAS  C:\Users\gjl\AppData\Local\Temp\cckcOS93.s 			page 48


 831:Generated_Source\PSoC6\pdl\drivers\peripheral\ctb/cy_ctb.h **** *
 832:Generated_Source\PSoC6\pdl\drivers\peripheral\ctb/cy_ctb.h **** * See \ref Cy_CTB_FastInit.
 833:Generated_Source\PSoC6\pdl\drivers\peripheral\ctb/cy_ctb.h **** */
 834:Generated_Source\PSoC6\pdl\drivers\peripheral\ctb/cy_ctb.h **** extern const cy_stc_ctb_fast_config_oa0_t Cy_CTB_Fast_Opamp0_Opamp1x;
 835:Generated_Source\PSoC6\pdl\drivers\peripheral\ctb/cy_ctb.h **** 
 836:Generated_Source\PSoC6\pdl\drivers\peripheral\ctb/cy_ctb.h **** /** Configure Opamp0 as an opamp with 10x drive. No routing is configured.
 837:Generated_Source\PSoC6\pdl\drivers\peripheral\ctb/cy_ctb.h **** *
 838:Generated_Source\PSoC6\pdl\drivers\peripheral\ctb/cy_ctb.h **** * \image html ctb_fast_config_opamp10x.png
 839:Generated_Source\PSoC6\pdl\drivers\peripheral\ctb/cy_ctb.h **** * \image latex ctb_fast_config_opamp10x.png width=100px
 840:Generated_Source\PSoC6\pdl\drivers\peripheral\ctb/cy_ctb.h **** *
 841:Generated_Source\PSoC6\pdl\drivers\peripheral\ctb/cy_ctb.h **** * See \ref Cy_CTB_FastInit.
 842:Generated_Source\PSoC6\pdl\drivers\peripheral\ctb/cy_ctb.h **** */
 843:Generated_Source\PSoC6\pdl\drivers\peripheral\ctb/cy_ctb.h **** extern const cy_stc_ctb_fast_config_oa0_t Cy_CTB_Fast_Opamp0_Opamp10x;
 844:Generated_Source\PSoC6\pdl\drivers\peripheral\ctb/cy_ctb.h **** 
 845:Generated_Source\PSoC6\pdl\drivers\peripheral\ctb/cy_ctb.h **** /** Configure Opamp0 as one stage of a differential amplifier.
 846:Generated_Source\PSoC6\pdl\drivers\peripheral\ctb/cy_ctb.h **** * The opamp is in 10x drive and the switches shown are closed.
 847:Generated_Source\PSoC6\pdl\drivers\peripheral\ctb/cy_ctb.h **** *
 848:Generated_Source\PSoC6\pdl\drivers\peripheral\ctb/cy_ctb.h **** * \image html ctb_fast_config_oa0_diffamp.png
 849:Generated_Source\PSoC6\pdl\drivers\peripheral\ctb/cy_ctb.h **** * \image latex ctb_fast_config_oa0_diffamp.png width=100px
 850:Generated_Source\PSoC6\pdl\drivers\peripheral\ctb/cy_ctb.h **** *
 851:Generated_Source\PSoC6\pdl\drivers\peripheral\ctb/cy_ctb.h **** * See the device datasheet for the dedicated CTB port.
 852:Generated_Source\PSoC6\pdl\drivers\peripheral\ctb/cy_ctb.h **** *
 853:Generated_Source\PSoC6\pdl\drivers\peripheral\ctb/cy_ctb.h **** * To be used with \ref Cy_CTB_FastInit and \ref Cy_CTB_Fast_Opamp1_Diffamp.
 854:Generated_Source\PSoC6\pdl\drivers\peripheral\ctb/cy_ctb.h **** */
 855:Generated_Source\PSoC6\pdl\drivers\peripheral\ctb/cy_ctb.h **** extern const cy_stc_ctb_fast_config_oa0_t Cy_CTB_Fast_Opamp0_Diffamp;
 856:Generated_Source\PSoC6\pdl\drivers\peripheral\ctb/cy_ctb.h **** 
 857:Generated_Source\PSoC6\pdl\drivers\peripheral\ctb/cy_ctb.h **** /** Configure Opamp0 as a buffer for the CTDAC output.
 858:Generated_Source\PSoC6\pdl\drivers\peripheral\ctb/cy_ctb.h **** * The buffer is in 10x drive and the switches shown are closed.
 859:Generated_Source\PSoC6\pdl\drivers\peripheral\ctb/cy_ctb.h **** * Configure the CTDAC for output buffer mode by calling \ref Cy_CTDAC_FastInit
 860:Generated_Source\PSoC6\pdl\drivers\peripheral\ctb/cy_ctb.h **** * with \ref Cy_CTDAC_Fast_VddaRef_BufferedOut or \ref Cy_CTDAC_Fast_OA1Ref_BufferedOut.
 861:Generated_Source\PSoC6\pdl\drivers\peripheral\ctb/cy_ctb.h **** *
 862:Generated_Source\PSoC6\pdl\drivers\peripheral\ctb/cy_ctb.h **** * \image html ctb_fast_config_vdac_output.png
 863:Generated_Source\PSoC6\pdl\drivers\peripheral\ctb/cy_ctb.h **** * \image latex ctb_fast_config_vdac_output.png
 864:Generated_Source\PSoC6\pdl\drivers\peripheral\ctb/cy_ctb.h **** *
 865:Generated_Source\PSoC6\pdl\drivers\peripheral\ctb/cy_ctb.h **** * See the device datasheet for the dedicated CTB port.
 866:Generated_Source\PSoC6\pdl\drivers\peripheral\ctb/cy_ctb.h **** *
 867:Generated_Source\PSoC6\pdl\drivers\peripheral\ctb/cy_ctb.h **** * See \ref Cy_CTB_FastInit.
 868:Generated_Source\PSoC6\pdl\drivers\peripheral\ctb/cy_ctb.h **** */
 869:Generated_Source\PSoC6\pdl\drivers\peripheral\ctb/cy_ctb.h **** extern const cy_stc_ctb_fast_config_oa0_t Cy_CTB_Fast_Opamp0_Vdac_Out;
 870:Generated_Source\PSoC6\pdl\drivers\peripheral\ctb/cy_ctb.h **** 
 871:Generated_Source\PSoC6\pdl\drivers\peripheral\ctb/cy_ctb.h **** /** Configure Opamp0 as a buffer for the CTDAC output with the sample and hold capacitor connected.
 872:Generated_Source\PSoC6\pdl\drivers\peripheral\ctb/cy_ctb.h **** * The buffer is in 10x drive and the switches shown are closed.
 873:Generated_Source\PSoC6\pdl\drivers\peripheral\ctb/cy_ctb.h **** * Configure the CTDAC for output buffer mode by calling \ref Cy_CTDAC_FastInit
 874:Generated_Source\PSoC6\pdl\drivers\peripheral\ctb/cy_ctb.h **** * with \ref Cy_CTDAC_Fast_VddaRef_BufferedOut or \ref Cy_CTDAC_Fast_OA1Ref_BufferedOut.
 875:Generated_Source\PSoC6\pdl\drivers\peripheral\ctb/cy_ctb.h **** 
 876:Generated_Source\PSoC6\pdl\drivers\peripheral\ctb/cy_ctb.h **** * \image html ctb_fast_config_vdac_sh.png
 877:Generated_Source\PSoC6\pdl\drivers\peripheral\ctb/cy_ctb.h **** * \image latex ctb_fast_config_vdac_sh.png
 878:Generated_Source\PSoC6\pdl\drivers\peripheral\ctb/cy_ctb.h **** *
 879:Generated_Source\PSoC6\pdl\drivers\peripheral\ctb/cy_ctb.h **** * See the device datasheet for the dedicated CTB port.
 880:Generated_Source\PSoC6\pdl\drivers\peripheral\ctb/cy_ctb.h **** *
 881:Generated_Source\PSoC6\pdl\drivers\peripheral\ctb/cy_ctb.h **** * See \ref Cy_CTB_FastInit.
 882:Generated_Source\PSoC6\pdl\drivers\peripheral\ctb/cy_ctb.h **** */
 883:Generated_Source\PSoC6\pdl\drivers\peripheral\ctb/cy_ctb.h **** extern const cy_stc_ctb_fast_config_oa0_t Cy_CTB_Fast_Opamp0_Vdac_Out_SH;
 884:Generated_Source\PSoC6\pdl\drivers\peripheral\ctb/cy_ctb.h **** 
 885:Generated_Source\PSoC6\pdl\drivers\peripheral\ctb/cy_ctb.h **** /** Configure Opamp1 as unused - powered down. See \ref Cy_CTB_FastInit.*/
 886:Generated_Source\PSoC6\pdl\drivers\peripheral\ctb/cy_ctb.h **** extern const cy_stc_ctb_fast_config_oa1_t Cy_CTB_Fast_Opamp1_Unused;
 887:Generated_Source\PSoC6\pdl\drivers\peripheral\ctb/cy_ctb.h **** 
ARM GAS  C:\Users\gjl\AppData\Local\Temp\cckcOS93.s 			page 49


 888:Generated_Source\PSoC6\pdl\drivers\peripheral\ctb/cy_ctb.h **** /** Configure Opamp1 as a comparator. No routing is configured.
 889:Generated_Source\PSoC6\pdl\drivers\peripheral\ctb/cy_ctb.h **** *
 890:Generated_Source\PSoC6\pdl\drivers\peripheral\ctb/cy_ctb.h **** * \image html ctb_fast_config_comp.png
 891:Generated_Source\PSoC6\pdl\drivers\peripheral\ctb/cy_ctb.h **** * \image latex ctb_fast_config_comp.png width=100px
 892:Generated_Source\PSoC6\pdl\drivers\peripheral\ctb/cy_ctb.h **** *
 893:Generated_Source\PSoC6\pdl\drivers\peripheral\ctb/cy_ctb.h **** * See \ref Cy_CTB_FastInit.
 894:Generated_Source\PSoC6\pdl\drivers\peripheral\ctb/cy_ctb.h **** */
 895:Generated_Source\PSoC6\pdl\drivers\peripheral\ctb/cy_ctb.h **** extern const cy_stc_ctb_fast_config_oa1_t Cy_CTB_Fast_Opamp1_Comp;
 896:Generated_Source\PSoC6\pdl\drivers\peripheral\ctb/cy_ctb.h **** 
 897:Generated_Source\PSoC6\pdl\drivers\peripheral\ctb/cy_ctb.h **** /** Configure Opamp1 as an opamp with 1x drive. No routing is configured.
 898:Generated_Source\PSoC6\pdl\drivers\peripheral\ctb/cy_ctb.h **** *
 899:Generated_Source\PSoC6\pdl\drivers\peripheral\ctb/cy_ctb.h **** * \image html ctb_fast_config_opamp1x.png
 900:Generated_Source\PSoC6\pdl\drivers\peripheral\ctb/cy_ctb.h **** * \image latex ctb_fast_config_opamp1x.png width=100px
 901:Generated_Source\PSoC6\pdl\drivers\peripheral\ctb/cy_ctb.h **** *
 902:Generated_Source\PSoC6\pdl\drivers\peripheral\ctb/cy_ctb.h **** * See \ref Cy_CTB_FastInit.
 903:Generated_Source\PSoC6\pdl\drivers\peripheral\ctb/cy_ctb.h **** */
 904:Generated_Source\PSoC6\pdl\drivers\peripheral\ctb/cy_ctb.h **** extern const cy_stc_ctb_fast_config_oa1_t Cy_CTB_Fast_Opamp1_Opamp1x;
 905:Generated_Source\PSoC6\pdl\drivers\peripheral\ctb/cy_ctb.h **** 
 906:Generated_Source\PSoC6\pdl\drivers\peripheral\ctb/cy_ctb.h **** /** Configure Opamp1 as an opamp with 10x drive. No routing is configured.
 907:Generated_Source\PSoC6\pdl\drivers\peripheral\ctb/cy_ctb.h **** *
 908:Generated_Source\PSoC6\pdl\drivers\peripheral\ctb/cy_ctb.h **** * \image html ctb_fast_config_opamp10x.png
 909:Generated_Source\PSoC6\pdl\drivers\peripheral\ctb/cy_ctb.h **** * \image latex ctb_fast_config_opamp10x.png width=100px
 910:Generated_Source\PSoC6\pdl\drivers\peripheral\ctb/cy_ctb.h **** *
 911:Generated_Source\PSoC6\pdl\drivers\peripheral\ctb/cy_ctb.h **** * See \ref Cy_CTB_FastInit.
 912:Generated_Source\PSoC6\pdl\drivers\peripheral\ctb/cy_ctb.h **** */
 913:Generated_Source\PSoC6\pdl\drivers\peripheral\ctb/cy_ctb.h **** extern const cy_stc_ctb_fast_config_oa1_t Cy_CTB_Fast_Opamp1_Opamp10x;
 914:Generated_Source\PSoC6\pdl\drivers\peripheral\ctb/cy_ctb.h **** 
 915:Generated_Source\PSoC6\pdl\drivers\peripheral\ctb/cy_ctb.h **** /** Configure Opamp1 as one stage of a differential amplifier.
 916:Generated_Source\PSoC6\pdl\drivers\peripheral\ctb/cy_ctb.h **** * The opamp is in 10x drive and the switches shown are closed.
 917:Generated_Source\PSoC6\pdl\drivers\peripheral\ctb/cy_ctb.h **** *
 918:Generated_Source\PSoC6\pdl\drivers\peripheral\ctb/cy_ctb.h **** * \image html ctb_fast_config_oa1_diffamp.png
 919:Generated_Source\PSoC6\pdl\drivers\peripheral\ctb/cy_ctb.h **** * \image latex ctb_fast_config_oa1_diffamp.png width=100px
 920:Generated_Source\PSoC6\pdl\drivers\peripheral\ctb/cy_ctb.h **** *
 921:Generated_Source\PSoC6\pdl\drivers\peripheral\ctb/cy_ctb.h **** * See the device datasheet for the dedicated CTB port.
 922:Generated_Source\PSoC6\pdl\drivers\peripheral\ctb/cy_ctb.h **** *
 923:Generated_Source\PSoC6\pdl\drivers\peripheral\ctb/cy_ctb.h **** * To be used with \ref Cy_CTB_FastInit and \ref Cy_CTB_Fast_Opamp0_Diffamp.
 924:Generated_Source\PSoC6\pdl\drivers\peripheral\ctb/cy_ctb.h **** *
 925:Generated_Source\PSoC6\pdl\drivers\peripheral\ctb/cy_ctb.h **** */
 926:Generated_Source\PSoC6\pdl\drivers\peripheral\ctb/cy_ctb.h **** extern const cy_stc_ctb_fast_config_oa1_t Cy_CTB_Fast_Opamp1_Diffamp;
 927:Generated_Source\PSoC6\pdl\drivers\peripheral\ctb/cy_ctb.h **** 
 928:Generated_Source\PSoC6\pdl\drivers\peripheral\ctb/cy_ctb.h **** /** Configure Opamp1 as a buffer for the CTDAC reference. The reference comes from the
 929:Generated_Source\PSoC6\pdl\drivers\peripheral\ctb/cy_ctb.h **** * internal analog reference block (AREF).
 930:Generated_Source\PSoC6\pdl\drivers\peripheral\ctb/cy_ctb.h **** * The buffer is in 1x drive and the switches shown are closed.
 931:Generated_Source\PSoC6\pdl\drivers\peripheral\ctb/cy_ctb.h **** * Configure the CTDAC to use the buffered reference by calling \ref Cy_CTDAC_FastInit
 932:Generated_Source\PSoC6\pdl\drivers\peripheral\ctb/cy_ctb.h **** * with \ref Cy_CTDAC_Fast_OA1Ref_UnbufferedOut or \ref Cy_CTDAC_Fast_OA1Ref_BufferedOut.
 933:Generated_Source\PSoC6\pdl\drivers\peripheral\ctb/cy_ctb.h **** *
 934:Generated_Source\PSoC6\pdl\drivers\peripheral\ctb/cy_ctb.h **** * \image html ctb_fast_config_vdac_aref.png
 935:Generated_Source\PSoC6\pdl\drivers\peripheral\ctb/cy_ctb.h **** * \image latex ctb_fast_config_vdac_aref.png
 936:Generated_Source\PSoC6\pdl\drivers\peripheral\ctb/cy_ctb.h **** *
 937:Generated_Source\PSoC6\pdl\drivers\peripheral\ctb/cy_ctb.h **** * See \ref Cy_CTB_FastInit.
 938:Generated_Source\PSoC6\pdl\drivers\peripheral\ctb/cy_ctb.h **** *
 939:Generated_Source\PSoC6\pdl\drivers\peripheral\ctb/cy_ctb.h **** * Note the AREF block needs to be configured using a separate driver.
 940:Generated_Source\PSoC6\pdl\drivers\peripheral\ctb/cy_ctb.h **** */
 941:Generated_Source\PSoC6\pdl\drivers\peripheral\ctb/cy_ctb.h **** extern const cy_stc_ctb_fast_config_oa1_t Cy_CTB_Fast_Opamp1_Vdac_Ref_Aref;
 942:Generated_Source\PSoC6\pdl\drivers\peripheral\ctb/cy_ctb.h **** 
 943:Generated_Source\PSoC6\pdl\drivers\peripheral\ctb/cy_ctb.h **** /** Configure Opamp1 as a buffer for the CTDAC reference. The reference comes from Pin 5.
 944:Generated_Source\PSoC6\pdl\drivers\peripheral\ctb/cy_ctb.h **** * The buffer is in 1x drive and the switches shown are closed.
ARM GAS  C:\Users\gjl\AppData\Local\Temp\cckcOS93.s 			page 50


 945:Generated_Source\PSoC6\pdl\drivers\peripheral\ctb/cy_ctb.h **** * Configure the CTDAC to use the buffered reference by calling \ref Cy_CTDAC_FastInit
 946:Generated_Source\PSoC6\pdl\drivers\peripheral\ctb/cy_ctb.h **** * with \ref Cy_CTDAC_Fast_OA1Ref_UnbufferedOut or \ref Cy_CTDAC_Fast_OA1Ref_BufferedOut.
 947:Generated_Source\PSoC6\pdl\drivers\peripheral\ctb/cy_ctb.h **** *
 948:Generated_Source\PSoC6\pdl\drivers\peripheral\ctb/cy_ctb.h **** * \image html ctb_fast_config_vdac_pin5.png
 949:Generated_Source\PSoC6\pdl\drivers\peripheral\ctb/cy_ctb.h **** * \image latex ctb_fast_config_vdac_pin5.png
 950:Generated_Source\PSoC6\pdl\drivers\peripheral\ctb/cy_ctb.h **** *
 951:Generated_Source\PSoC6\pdl\drivers\peripheral\ctb/cy_ctb.h **** * See the device datasheet for the dedicated CTB port.
 952:Generated_Source\PSoC6\pdl\drivers\peripheral\ctb/cy_ctb.h **** *
 953:Generated_Source\PSoC6\pdl\drivers\peripheral\ctb/cy_ctb.h **** * See \ref Cy_CTB_FastInit.
 954:Generated_Source\PSoC6\pdl\drivers\peripheral\ctb/cy_ctb.h **** */
 955:Generated_Source\PSoC6\pdl\drivers\peripheral\ctb/cy_ctb.h **** extern const cy_stc_ctb_fast_config_oa1_t Cy_CTB_Fast_Opamp1_Vdac_Ref_Pin5;
 956:Generated_Source\PSoC6\pdl\drivers\peripheral\ctb/cy_ctb.h **** 
 957:Generated_Source\PSoC6\pdl\drivers\peripheral\ctb/cy_ctb.h **** /** \} group_ctb_globals */
 958:Generated_Source\PSoC6\pdl\drivers\peripheral\ctb/cy_ctb.h **** 
 959:Generated_Source\PSoC6\pdl\drivers\peripheral\ctb/cy_ctb.h **** /***************************************
 960:Generated_Source\PSoC6\pdl\drivers\peripheral\ctb/cy_ctb.h **** *        Function Prototypes
 961:Generated_Source\PSoC6\pdl\drivers\peripheral\ctb/cy_ctb.h **** ***************************************/
 962:Generated_Source\PSoC6\pdl\drivers\peripheral\ctb/cy_ctb.h **** 
 963:Generated_Source\PSoC6\pdl\drivers\peripheral\ctb/cy_ctb.h **** /**
 964:Generated_Source\PSoC6\pdl\drivers\peripheral\ctb/cy_ctb.h **** * \addtogroup group_ctb_functions
 965:Generated_Source\PSoC6\pdl\drivers\peripheral\ctb/cy_ctb.h **** * \{
 966:Generated_Source\PSoC6\pdl\drivers\peripheral\ctb/cy_ctb.h **** */
 967:Generated_Source\PSoC6\pdl\drivers\peripheral\ctb/cy_ctb.h **** 
 968:Generated_Source\PSoC6\pdl\drivers\peripheral\ctb/cy_ctb.h **** /**
 969:Generated_Source\PSoC6\pdl\drivers\peripheral\ctb/cy_ctb.h **** * \addtogroup group_ctb_functions_init
 970:Generated_Source\PSoC6\pdl\drivers\peripheral\ctb/cy_ctb.h **** * This set of functions are for initializing, enabling, and disabling the CTB.
 971:Generated_Source\PSoC6\pdl\drivers\peripheral\ctb/cy_ctb.h **** * \{
 972:Generated_Source\PSoC6\pdl\drivers\peripheral\ctb/cy_ctb.h **** */
 973:Generated_Source\PSoC6\pdl\drivers\peripheral\ctb/cy_ctb.h **** cy_en_ctb_status_t Cy_CTB_Init(CTBM_Type *base, const cy_stc_ctb_config_t *config);
 974:Generated_Source\PSoC6\pdl\drivers\peripheral\ctb/cy_ctb.h **** cy_en_ctb_status_t Cy_CTB_OpampInit(CTBM_Type *base, cy_en_ctb_opamp_sel_t opampNum, const cy_stc_c
 975:Generated_Source\PSoC6\pdl\drivers\peripheral\ctb/cy_ctb.h **** cy_en_ctb_status_t Cy_CTB_DeInit(CTBM_Type *base, bool deInitRouting);
 976:Generated_Source\PSoC6\pdl\drivers\peripheral\ctb/cy_ctb.h **** cy_en_ctb_status_t Cy_CTB_FastInit(CTBM_Type *base, const cy_stc_ctb_fast_config_oa0_t *config0, co
 977:Generated_Source\PSoC6\pdl\drivers\peripheral\ctb/cy_ctb.h **** __STATIC_INLINE void Cy_CTB_Enable(CTBM_Type *base);
 978:Generated_Source\PSoC6\pdl\drivers\peripheral\ctb/cy_ctb.h **** __STATIC_INLINE void Cy_CTB_Disable(CTBM_Type *base);
 979:Generated_Source\PSoC6\pdl\drivers\peripheral\ctb/cy_ctb.h **** /** \} */
 980:Generated_Source\PSoC6\pdl\drivers\peripheral\ctb/cy_ctb.h **** 
 981:Generated_Source\PSoC6\pdl\drivers\peripheral\ctb/cy_ctb.h **** /**
 982:Generated_Source\PSoC6\pdl\drivers\peripheral\ctb/cy_ctb.h **** * \addtogroup group_ctb_functions_basic
 983:Generated_Source\PSoC6\pdl\drivers\peripheral\ctb/cy_ctb.h **** * This set of functions are for configuring basic usage of the CTB.
 984:Generated_Source\PSoC6\pdl\drivers\peripheral\ctb/cy_ctb.h **** * \{
 985:Generated_Source\PSoC6\pdl\drivers\peripheral\ctb/cy_ctb.h **** */
 986:Generated_Source\PSoC6\pdl\drivers\peripheral\ctb/cy_ctb.h **** void Cy_CTB_SetDeepSleepMode(CTBM_Type *base, cy_en_ctb_deep_sleep_t deepSleep);
 987:Generated_Source\PSoC6\pdl\drivers\peripheral\ctb/cy_ctb.h **** void Cy_CTB_SetOutputMode(CTBM_Type *base, cy_en_ctb_opamp_sel_t opampNum, cy_en_ctb_mode_t mode);
 988:Generated_Source\PSoC6\pdl\drivers\peripheral\ctb/cy_ctb.h **** void Cy_CTB_SetPower(CTBM_Type *base, cy_en_ctb_opamp_sel_t opampNum, cy_en_ctb_power_t power, cy_e
 989:Generated_Source\PSoC6\pdl\drivers\peripheral\ctb/cy_ctb.h **** /** \} */
 990:Generated_Source\PSoC6\pdl\drivers\peripheral\ctb/cy_ctb.h **** 
 991:Generated_Source\PSoC6\pdl\drivers\peripheral\ctb/cy_ctb.h **** /**
 992:Generated_Source\PSoC6\pdl\drivers\peripheral\ctb/cy_ctb.h **** * \addtogroup group_ctb_functions_sample_hold
 993:Generated_Source\PSoC6\pdl\drivers\peripheral\ctb/cy_ctb.h **** * This function enables sample and hold of the CTDAC output.
 994:Generated_Source\PSoC6\pdl\drivers\peripheral\ctb/cy_ctb.h **** * \{
 995:Generated_Source\PSoC6\pdl\drivers\peripheral\ctb/cy_ctb.h **** */
 996:Generated_Source\PSoC6\pdl\drivers\peripheral\ctb/cy_ctb.h **** void Cy_CTB_DACSampleAndHold(CTBM_Type *base, cy_en_ctb_sample_hold_mode_t mode);
 997:Generated_Source\PSoC6\pdl\drivers\peripheral\ctb/cy_ctb.h **** /** \} */
 998:Generated_Source\PSoC6\pdl\drivers\peripheral\ctb/cy_ctb.h **** 
 999:Generated_Source\PSoC6\pdl\drivers\peripheral\ctb/cy_ctb.h **** /**
1000:Generated_Source\PSoC6\pdl\drivers\peripheral\ctb/cy_ctb.h **** * \addtogroup group_ctb_functions_comparator
1001:Generated_Source\PSoC6\pdl\drivers\peripheral\ctb/cy_ctb.h **** * This set of functions are specific to the comparator mode
ARM GAS  C:\Users\gjl\AppData\Local\Temp\cckcOS93.s 			page 51


1002:Generated_Source\PSoC6\pdl\drivers\peripheral\ctb/cy_ctb.h **** * \{
1003:Generated_Source\PSoC6\pdl\drivers\peripheral\ctb/cy_ctb.h **** */
1004:Generated_Source\PSoC6\pdl\drivers\peripheral\ctb/cy_ctb.h **** void Cy_CTB_CompSetConfig(CTBM_Type *base, cy_en_ctb_opamp_sel_t compNum, cy_en_ctb_comp_level_t le
1005:Generated_Source\PSoC6\pdl\drivers\peripheral\ctb/cy_ctb.h **** uint32_t Cy_CTB_CompGetConfig(const CTBM_Type *base, cy_en_ctb_opamp_sel_t compNum);
1006:Generated_Source\PSoC6\pdl\drivers\peripheral\ctb/cy_ctb.h **** void Cy_CTB_CompSetInterruptEdgeType(CTBM_Type *base, cy_en_ctb_opamp_sel_t compNum, cy_en_ctb_comp
1007:Generated_Source\PSoC6\pdl\drivers\peripheral\ctb/cy_ctb.h **** uint32_t Cy_CTB_CompGetStatus(const CTBM_Type *base, cy_en_ctb_opamp_sel_t compNum);
1008:Generated_Source\PSoC6\pdl\drivers\peripheral\ctb/cy_ctb.h **** /** \} */
1009:Generated_Source\PSoC6\pdl\drivers\peripheral\ctb/cy_ctb.h **** 
1010:Generated_Source\PSoC6\pdl\drivers\peripheral\ctb/cy_ctb.h **** /**
1011:Generated_Source\PSoC6\pdl\drivers\peripheral\ctb/cy_ctb.h **** * \addtogroup group_ctb_functions_trim
1012:Generated_Source\PSoC6\pdl\drivers\peripheral\ctb/cy_ctb.h **** * These are advanced functions for trimming the offset and slope of the opamps.
1013:Generated_Source\PSoC6\pdl\drivers\peripheral\ctb/cy_ctb.h **** * Most users do not need to call these functions and can use the factory trimmed values.
1014:Generated_Source\PSoC6\pdl\drivers\peripheral\ctb/cy_ctb.h **** * \{
1015:Generated_Source\PSoC6\pdl\drivers\peripheral\ctb/cy_ctb.h **** */
1016:Generated_Source\PSoC6\pdl\drivers\peripheral\ctb/cy_ctb.h **** void Cy_CTB_OpampSetOffset(CTBM_Type *base, cy_en_ctb_opamp_sel_t opampNum, uint32_t trim);
1017:Generated_Source\PSoC6\pdl\drivers\peripheral\ctb/cy_ctb.h **** uint32_t Cy_CTB_OpampGetOffset(const CTBM_Type *base, cy_en_ctb_opamp_sel_t opampNum);
1018:Generated_Source\PSoC6\pdl\drivers\peripheral\ctb/cy_ctb.h **** void Cy_CTB_OpampSetSlope(CTBM_Type *base, cy_en_ctb_opamp_sel_t opampNum, uint32_t trim);
1019:Generated_Source\PSoC6\pdl\drivers\peripheral\ctb/cy_ctb.h **** uint32_t Cy_CTB_OpampGetSlope(const CTBM_Type *base, cy_en_ctb_opamp_sel_t opampNum);
1020:Generated_Source\PSoC6\pdl\drivers\peripheral\ctb/cy_ctb.h **** /** \} */
1021:Generated_Source\PSoC6\pdl\drivers\peripheral\ctb/cy_ctb.h **** 
1022:Generated_Source\PSoC6\pdl\drivers\peripheral\ctb/cy_ctb.h **** /**
1023:Generated_Source\PSoC6\pdl\drivers\peripheral\ctb/cy_ctb.h **** * \addtogroup group_ctb_functions_switches
1024:Generated_Source\PSoC6\pdl\drivers\peripheral\ctb/cy_ctb.h **** * This set of functions is for controlling routing switches.
1025:Generated_Source\PSoC6\pdl\drivers\peripheral\ctb/cy_ctb.h **** * \{
1026:Generated_Source\PSoC6\pdl\drivers\peripheral\ctb/cy_ctb.h **** */
1027:Generated_Source\PSoC6\pdl\drivers\peripheral\ctb/cy_ctb.h **** void Cy_CTB_SetAnalogSwitch(CTBM_Type *base, cy_en_ctb_switch_register_sel_t switchSelect, uint32_t
1028:Generated_Source\PSoC6\pdl\drivers\peripheral\ctb/cy_ctb.h **** uint32_t Cy_CTB_GetAnalogSwitch(const CTBM_Type *base, cy_en_ctb_switch_register_sel_t switchSelect
1029:Generated_Source\PSoC6\pdl\drivers\peripheral\ctb/cy_ctb.h **** __STATIC_INLINE void Cy_CTB_OpenAllSwitches(CTBM_Type *base);
1030:Generated_Source\PSoC6\pdl\drivers\peripheral\ctb/cy_ctb.h **** __STATIC_INLINE void Cy_CTB_EnableSarSeqCtrl(CTBM_Type *base, cy_en_ctb_switch_sar_seq_t switchMask
1031:Generated_Source\PSoC6\pdl\drivers\peripheral\ctb/cy_ctb.h **** __STATIC_INLINE void Cy_CTB_DisableSarSeqCtrl(CTBM_Type *base, cy_en_ctb_switch_sar_seq_t switchMas
1032:Generated_Source\PSoC6\pdl\drivers\peripheral\ctb/cy_ctb.h **** /** \} */
1033:Generated_Source\PSoC6\pdl\drivers\peripheral\ctb/cy_ctb.h **** 
1034:Generated_Source\PSoC6\pdl\drivers\peripheral\ctb/cy_ctb.h **** /**
1035:Generated_Source\PSoC6\pdl\drivers\peripheral\ctb/cy_ctb.h **** * \addtogroup group_ctb_functions_interrupts
1036:Generated_Source\PSoC6\pdl\drivers\peripheral\ctb/cy_ctb.h **** * This set of functions is related to the comparator interrupts.
1037:Generated_Source\PSoC6\pdl\drivers\peripheral\ctb/cy_ctb.h **** * \{
1038:Generated_Source\PSoC6\pdl\drivers\peripheral\ctb/cy_ctb.h **** */
1039:Generated_Source\PSoC6\pdl\drivers\peripheral\ctb/cy_ctb.h **** __STATIC_INLINE uint32_t Cy_CTB_GetInterruptStatus(const CTBM_Type *base, cy_en_ctb_opamp_sel_t com
1040:Generated_Source\PSoC6\pdl\drivers\peripheral\ctb/cy_ctb.h **** __STATIC_INLINE void Cy_CTB_ClearInterrupt(CTBM_Type *base, cy_en_ctb_opamp_sel_t compNum);
1041:Generated_Source\PSoC6\pdl\drivers\peripheral\ctb/cy_ctb.h **** __STATIC_INLINE void Cy_CTB_SetInterrupt(CTBM_Type *base, cy_en_ctb_opamp_sel_t compNum);
1042:Generated_Source\PSoC6\pdl\drivers\peripheral\ctb/cy_ctb.h **** __STATIC_INLINE void Cy_CTB_SetInterruptMask(CTBM_Type *base, cy_en_ctb_opamp_sel_t compNum);
1043:Generated_Source\PSoC6\pdl\drivers\peripheral\ctb/cy_ctb.h **** __STATIC_INLINE uint32_t Cy_CTB_GetInterruptMask(const CTBM_Type *base, cy_en_ctb_opamp_sel_t compN
1044:Generated_Source\PSoC6\pdl\drivers\peripheral\ctb/cy_ctb.h **** __STATIC_INLINE uint32_t Cy_CTB_GetInterruptStatusMasked(const CTBM_Type *base, cy_en_ctb_opamp_sel
1045:Generated_Source\PSoC6\pdl\drivers\peripheral\ctb/cy_ctb.h **** /** \} */
1046:Generated_Source\PSoC6\pdl\drivers\peripheral\ctb/cy_ctb.h **** 
1047:Generated_Source\PSoC6\pdl\drivers\peripheral\ctb/cy_ctb.h **** /**
1048:Generated_Source\PSoC6\pdl\drivers\peripheral\ctb/cy_ctb.h **** * \addtogroup group_ctb_functions_aref
1049:Generated_Source\PSoC6\pdl\drivers\peripheral\ctb/cy_ctb.h **** * This set of functions impacts all opamps on the chip.
1050:Generated_Source\PSoC6\pdl\drivers\peripheral\ctb/cy_ctb.h **** * Notice how some of these functions do not take a base address input.
1051:Generated_Source\PSoC6\pdl\drivers\peripheral\ctb/cy_ctb.h **** * When calling \ref Cy_CTB_SetCurrentMode for a CTB instance on the device,
1052:Generated_Source\PSoC6\pdl\drivers\peripheral\ctb/cy_ctb.h **** * it should be called for all other CTB instances as well. This is because
1053:Generated_Source\PSoC6\pdl\drivers\peripheral\ctb/cy_ctb.h **** * there is only one IPTAT level (1 uA or 100 nA) chip wide.
1054:Generated_Source\PSoC6\pdl\drivers\peripheral\ctb/cy_ctb.h **** * \{
1055:Generated_Source\PSoC6\pdl\drivers\peripheral\ctb/cy_ctb.h **** */
1056:Generated_Source\PSoC6\pdl\drivers\peripheral\ctb/cy_ctb.h **** void Cy_CTB_SetCurrentMode(CTBM_Type *base, cy_en_ctb_current_mode_t currentMode);
1057:Generated_Source\PSoC6\pdl\drivers\peripheral\ctb/cy_ctb.h **** __STATIC_INLINE void Cy_CTB_SetIptatLevel(cy_en_ctb_iptat_t iptat);
1058:Generated_Source\PSoC6\pdl\drivers\peripheral\ctb/cy_ctb.h **** __STATIC_INLINE void Cy_CTB_SetClkPumpSource(cy_en_ctb_clk_pump_source_t clkPump);
ARM GAS  C:\Users\gjl\AppData\Local\Temp\cckcOS93.s 			page 52


1059:Generated_Source\PSoC6\pdl\drivers\peripheral\ctb/cy_ctb.h **** __STATIC_INLINE void Cy_CTB_EnableRedirect(void);
1060:Generated_Source\PSoC6\pdl\drivers\peripheral\ctb/cy_ctb.h **** __STATIC_INLINE void Cy_CTB_DisableRedirect(void);
1061:Generated_Source\PSoC6\pdl\drivers\peripheral\ctb/cy_ctb.h **** /** \} */
1062:Generated_Source\PSoC6\pdl\drivers\peripheral\ctb/cy_ctb.h **** 
1063:Generated_Source\PSoC6\pdl\drivers\peripheral\ctb/cy_ctb.h **** /**
1064:Generated_Source\PSoC6\pdl\drivers\peripheral\ctb/cy_ctb.h **** * \addtogroup group_ctb_functions_init
1065:Generated_Source\PSoC6\pdl\drivers\peripheral\ctb/cy_ctb.h **** * \{
1066:Generated_Source\PSoC6\pdl\drivers\peripheral\ctb/cy_ctb.h **** */
1067:Generated_Source\PSoC6\pdl\drivers\peripheral\ctb/cy_ctb.h **** 
1068:Generated_Source\PSoC6\pdl\drivers\peripheral\ctb/cy_ctb.h **** /*******************************************************************************
1069:Generated_Source\PSoC6\pdl\drivers\peripheral\ctb/cy_ctb.h **** * Function Name: Cy_CTB_Enable
1070:Generated_Source\PSoC6\pdl\drivers\peripheral\ctb/cy_ctb.h **** ****************************************************************************//**
1071:Generated_Source\PSoC6\pdl\drivers\peripheral\ctb/cy_ctb.h **** *
1072:Generated_Source\PSoC6\pdl\drivers\peripheral\ctb/cy_ctb.h **** * Power up the CTB hardware block.
1073:Generated_Source\PSoC6\pdl\drivers\peripheral\ctb/cy_ctb.h **** *
1074:Generated_Source\PSoC6\pdl\drivers\peripheral\ctb/cy_ctb.h **** * \param base
1075:Generated_Source\PSoC6\pdl\drivers\peripheral\ctb/cy_ctb.h **** * Pointer to structure describing registers
1076:Generated_Source\PSoC6\pdl\drivers\peripheral\ctb/cy_ctb.h **** *
1077:Generated_Source\PSoC6\pdl\drivers\peripheral\ctb/cy_ctb.h **** * \return None
1078:Generated_Source\PSoC6\pdl\drivers\peripheral\ctb/cy_ctb.h **** *
1079:Generated_Source\PSoC6\pdl\drivers\peripheral\ctb/cy_ctb.h **** *******************************************************************************/
1080:Generated_Source\PSoC6\pdl\drivers\peripheral\ctb/cy_ctb.h **** __STATIC_INLINE void Cy_CTB_Enable(CTBM_Type *base)
1081:Generated_Source\PSoC6\pdl\drivers\peripheral\ctb/cy_ctb.h **** {
1082:Generated_Source\PSoC6\pdl\drivers\peripheral\ctb/cy_ctb.h ****     base->CTB_CTRL |= CTBM_CTB_CTRL_ENABLED_Msk;
1083:Generated_Source\PSoC6\pdl\drivers\peripheral\ctb/cy_ctb.h **** }
1084:Generated_Source\PSoC6\pdl\drivers\peripheral\ctb/cy_ctb.h **** 
1085:Generated_Source\PSoC6\pdl\drivers\peripheral\ctb/cy_ctb.h **** /*******************************************************************************
1086:Generated_Source\PSoC6\pdl\drivers\peripheral\ctb/cy_ctb.h **** * Function Name: Cy_CTB_Disable
1087:Generated_Source\PSoC6\pdl\drivers\peripheral\ctb/cy_ctb.h **** ****************************************************************************//**
1088:Generated_Source\PSoC6\pdl\drivers\peripheral\ctb/cy_ctb.h **** *
1089:Generated_Source\PSoC6\pdl\drivers\peripheral\ctb/cy_ctb.h **** * Power down the CTB hardware block.
1090:Generated_Source\PSoC6\pdl\drivers\peripheral\ctb/cy_ctb.h **** *
1091:Generated_Source\PSoC6\pdl\drivers\peripheral\ctb/cy_ctb.h **** * \param base
1092:Generated_Source\PSoC6\pdl\drivers\peripheral\ctb/cy_ctb.h **** * Pointer to structure describing registers
1093:Generated_Source\PSoC6\pdl\drivers\peripheral\ctb/cy_ctb.h **** *
1094:Generated_Source\PSoC6\pdl\drivers\peripheral\ctb/cy_ctb.h **** * \return None
1095:Generated_Source\PSoC6\pdl\drivers\peripheral\ctb/cy_ctb.h **** *
1096:Generated_Source\PSoC6\pdl\drivers\peripheral\ctb/cy_ctb.h **** *******************************************************************************/
1097:Generated_Source\PSoC6\pdl\drivers\peripheral\ctb/cy_ctb.h **** __STATIC_INLINE void Cy_CTB_Disable(CTBM_Type *base)
1098:Generated_Source\PSoC6\pdl\drivers\peripheral\ctb/cy_ctb.h **** {
1099:Generated_Source\PSoC6\pdl\drivers\peripheral\ctb/cy_ctb.h ****     base->CTB_CTRL &= (~CTBM_CTB_CTRL_ENABLED_Msk);
1100:Generated_Source\PSoC6\pdl\drivers\peripheral\ctb/cy_ctb.h **** }
1101:Generated_Source\PSoC6\pdl\drivers\peripheral\ctb/cy_ctb.h **** 
1102:Generated_Source\PSoC6\pdl\drivers\peripheral\ctb/cy_ctb.h **** /** \} */
1103:Generated_Source\PSoC6\pdl\drivers\peripheral\ctb/cy_ctb.h **** 
1104:Generated_Source\PSoC6\pdl\drivers\peripheral\ctb/cy_ctb.h **** /**
1105:Generated_Source\PSoC6\pdl\drivers\peripheral\ctb/cy_ctb.h **** * \addtogroup group_ctb_functions_switches
1106:Generated_Source\PSoC6\pdl\drivers\peripheral\ctb/cy_ctb.h **** * \{
1107:Generated_Source\PSoC6\pdl\drivers\peripheral\ctb/cy_ctb.h **** */
1108:Generated_Source\PSoC6\pdl\drivers\peripheral\ctb/cy_ctb.h **** 
1109:Generated_Source\PSoC6\pdl\drivers\peripheral\ctb/cy_ctb.h **** /*******************************************************************************
1110:Generated_Source\PSoC6\pdl\drivers\peripheral\ctb/cy_ctb.h **** * Function Name: Cy_CTB_OpenAllSwitches
1111:Generated_Source\PSoC6\pdl\drivers\peripheral\ctb/cy_ctb.h **** ****************************************************************************//**
1112:Generated_Source\PSoC6\pdl\drivers\peripheral\ctb/cy_ctb.h **** *
1113:Generated_Source\PSoC6\pdl\drivers\peripheral\ctb/cy_ctb.h **** * Open all the switches and disable all hardware (SAR Sequencer and DSI) control of the switches.
1114:Generated_Source\PSoC6\pdl\drivers\peripheral\ctb/cy_ctb.h **** * Primarily used as a quick method of re-configuring all analog connections
1115:Generated_Source\PSoC6\pdl\drivers\peripheral\ctb/cy_ctb.h **** * that are sparsely closed.
ARM GAS  C:\Users\gjl\AppData\Local\Temp\cckcOS93.s 			page 53


1116:Generated_Source\PSoC6\pdl\drivers\peripheral\ctb/cy_ctb.h **** *
1117:Generated_Source\PSoC6\pdl\drivers\peripheral\ctb/cy_ctb.h **** * \param base
1118:Generated_Source\PSoC6\pdl\drivers\peripheral\ctb/cy_ctb.h **** * Pointer to structure describing registers
1119:Generated_Source\PSoC6\pdl\drivers\peripheral\ctb/cy_ctb.h **** *
1120:Generated_Source\PSoC6\pdl\drivers\peripheral\ctb/cy_ctb.h **** * \return None
1121:Generated_Source\PSoC6\pdl\drivers\peripheral\ctb/cy_ctb.h **** *
1122:Generated_Source\PSoC6\pdl\drivers\peripheral\ctb/cy_ctb.h **** * \funcusage
1123:Generated_Source\PSoC6\pdl\drivers\peripheral\ctb/cy_ctb.h **** *
1124:Generated_Source\PSoC6\pdl\drivers\peripheral\ctb/cy_ctb.h **** * \snippet ctb_sut_01.cydsn/main_cm4.c CTB_SNIPPET_OPEN_ALL_SWITCHES
1125:Generated_Source\PSoC6\pdl\drivers\peripheral\ctb/cy_ctb.h **** *
1126:Generated_Source\PSoC6\pdl\drivers\peripheral\ctb/cy_ctb.h **** *******************************************************************************/
1127:Generated_Source\PSoC6\pdl\drivers\peripheral\ctb/cy_ctb.h **** __STATIC_INLINE void Cy_CTB_OpenAllSwitches(CTBM_Type *base)
1128:Generated_Source\PSoC6\pdl\drivers\peripheral\ctb/cy_ctb.h **** {
1129:Generated_Source\PSoC6\pdl\drivers\peripheral\ctb/cy_ctb.h ****     base->OA0_SW_CLEAR = CY_CTB_DEINIT_OA0_SW;
1130:Generated_Source\PSoC6\pdl\drivers\peripheral\ctb/cy_ctb.h ****     base->OA1_SW_CLEAR = CY_CTB_DEINIT_OA1_SW;
1131:Generated_Source\PSoC6\pdl\drivers\peripheral\ctb/cy_ctb.h ****     base->CTD_SW_CLEAR = CY_CTB_DEINIT_CTD_SW;
1132:Generated_Source\PSoC6\pdl\drivers\peripheral\ctb/cy_ctb.h ****     base->CTB_SW_DS_CTRL = CY_CTB_DEINIT;
1133:Generated_Source\PSoC6\pdl\drivers\peripheral\ctb/cy_ctb.h ****     base->CTB_SW_SQ_CTRL = CY_CTB_DEINIT;
1134:Generated_Source\PSoC6\pdl\drivers\peripheral\ctb/cy_ctb.h **** }
1135:Generated_Source\PSoC6\pdl\drivers\peripheral\ctb/cy_ctb.h **** 
1136:Generated_Source\PSoC6\pdl\drivers\peripheral\ctb/cy_ctb.h **** /*******************************************************************************
1137:Generated_Source\PSoC6\pdl\drivers\peripheral\ctb/cy_ctb.h **** * Function Name: Cy_CTB_EnableSarSeqCtrl
1138:Generated_Source\PSoC6\pdl\drivers\peripheral\ctb/cy_ctb.h **** ****************************************************************************//**
1139:Generated_Source\PSoC6\pdl\drivers\peripheral\ctb/cy_ctb.h **** *
1140:Generated_Source\PSoC6\pdl\drivers\peripheral\ctb/cy_ctb.h **** * Enable SAR sequencer control of specified switch(es).
1141:Generated_Source\PSoC6\pdl\drivers\peripheral\ctb/cy_ctb.h **** *
1142:Generated_Source\PSoC6\pdl\drivers\peripheral\ctb/cy_ctb.h **** * This allows the SAR ADC to use routes through the CTB when configuring its channels.
1143:Generated_Source\PSoC6\pdl\drivers\peripheral\ctb/cy_ctb.h **** *
1144:Generated_Source\PSoC6\pdl\drivers\peripheral\ctb/cy_ctb.h **** * There are three switches in the CTB that can be enabled by the SAR sequencer.
1145:Generated_Source\PSoC6\pdl\drivers\peripheral\ctb/cy_ctb.h **** * - D51: This switch connects the negative input of Opamp0 to the SARBUS0
1146:Generated_Source\PSoC6\pdl\drivers\peripheral\ctb/cy_ctb.h **** * - D52: This switch connects the positive input of Opamp1 to the SARBUS0
1147:Generated_Source\PSoC6\pdl\drivers\peripheral\ctb/cy_ctb.h **** * - D62: This switch connects the positive input of Opamp1 to the SARBUS1
1148:Generated_Source\PSoC6\pdl\drivers\peripheral\ctb/cy_ctb.h **** *
