ARM GAS  C:\Users\gjl\AppData\Local\Temp\cckcOS93.s 			page 1


   1              		.syntax unified
   2              		.cpu cortex-m4
   3              		.eabi_attribute 27, 1
   4              		.fpu fpv4-sp-d16
   5              		.eabi_attribute 20, 1
   6              		.eabi_attribute 21, 1
   7              		.eabi_attribute 23, 3
   8              		.eabi_attribute 24, 1
   9              		.eabi_attribute 25, 1
  10              		.eabi_attribute 26, 1
  11              		.eabi_attribute 30, 1
  12              		.eabi_attribute 34, 1
  13              		.eabi_attribute 18, 4
  14              		.thumb
  15              		.syntax unified
  16              		.file	"cy_ctb.c"
  17              		.text
  18              	.Ltext0:
  19              		.cfi_sections	.debug_frame
  20              		.section	.text.Cy_CTB_Init,"ax",%progbits
  21              		.align	2
  22              		.global	Cy_CTB_Init
  23              		.thumb
  24              		.thumb_func
  25              		.type	Cy_CTB_Init, %function
  26              	Cy_CTB_Init:
  27              	.LFB182:
  28              		.file 1 "Generated_Source\\PSoC6\\pdl\\drivers\\peripheral\\ctb\\cy_ctb.c"
   1:Generated_Source\PSoC6\pdl\drivers\peripheral\ctb/cy_ctb.c **** /***************************************************************************//**
   2:Generated_Source\PSoC6\pdl\drivers\peripheral\ctb/cy_ctb.c **** * \file cy_ctb.c
   3:Generated_Source\PSoC6\pdl\drivers\peripheral\ctb/cy_ctb.c **** * \version 1.0
   4:Generated_Source\PSoC6\pdl\drivers\peripheral\ctb/cy_ctb.c **** *
   5:Generated_Source\PSoC6\pdl\drivers\peripheral\ctb/cy_ctb.c **** * \brief
   6:Generated_Source\PSoC6\pdl\drivers\peripheral\ctb/cy_ctb.c **** * Provides the public functions for the CTB driver.
   7:Generated_Source\PSoC6\pdl\drivers\peripheral\ctb/cy_ctb.c **** *
   8:Generated_Source\PSoC6\pdl\drivers\peripheral\ctb/cy_ctb.c **** ********************************************************************************
   9:Generated_Source\PSoC6\pdl\drivers\peripheral\ctb/cy_ctb.c **** * \copyright
  10:Generated_Source\PSoC6\pdl\drivers\peripheral\ctb/cy_ctb.c **** * Copyright 2017-2018, Cypress Semiconductor Corporation. All rights reserved.
  11:Generated_Source\PSoC6\pdl\drivers\peripheral\ctb/cy_ctb.c **** * You may use this file only in accordance with the license, terms, conditions,
  12:Generated_Source\PSoC6\pdl\drivers\peripheral\ctb/cy_ctb.c **** * disclaimers, and limitations in the end user license agreement accompanying
  13:Generated_Source\PSoC6\pdl\drivers\peripheral\ctb/cy_ctb.c **** * the software package with which this file was provided.
  14:Generated_Source\PSoC6\pdl\drivers\peripheral\ctb/cy_ctb.c **** *******************************************************************************/
  15:Generated_Source\PSoC6\pdl\drivers\peripheral\ctb/cy_ctb.c **** 
  16:Generated_Source\PSoC6\pdl\drivers\peripheral\ctb/cy_ctb.c **** #include "ctb/cy_ctb.h"
  17:Generated_Source\PSoC6\pdl\drivers\peripheral\ctb/cy_ctb.c **** 
  18:Generated_Source\PSoC6\pdl\drivers\peripheral\ctb/cy_ctb.c **** #if defined(__cplusplus)
  19:Generated_Source\PSoC6\pdl\drivers\peripheral\ctb/cy_ctb.c **** extern "C" {
  20:Generated_Source\PSoC6\pdl\drivers\peripheral\ctb/cy_ctb.c **** #endif
  21:Generated_Source\PSoC6\pdl\drivers\peripheral\ctb/cy_ctb.c **** 
  22:Generated_Source\PSoC6\pdl\drivers\peripheral\ctb/cy_ctb.c **** /***************************************
  23:Generated_Source\PSoC6\pdl\drivers\peripheral\ctb/cy_ctb.c **** *       Fast Config Selections
  24:Generated_Source\PSoC6\pdl\drivers\peripheral\ctb/cy_ctb.c **** ***************************************/
  25:Generated_Source\PSoC6\pdl\drivers\peripheral\ctb/cy_ctb.c **** const cy_stc_ctb_fast_config_oa0_t Cy_CTB_Fast_Opamp0_Unused =
  26:Generated_Source\PSoC6\pdl\drivers\peripheral\ctb/cy_ctb.c **** {
  27:Generated_Source\PSoC6\pdl\drivers\peripheral\ctb/cy_ctb.c ****     /*.oa0Power        */ CY_CTB_POWER_OFF,
  28:Generated_Source\PSoC6\pdl\drivers\peripheral\ctb/cy_ctb.c ****     /*.oa0Mode         */ CY_CTB_MODE_OPAMP1X,
  29:Generated_Source\PSoC6\pdl\drivers\peripheral\ctb/cy_ctb.c ****     /*.oa0SwitchCtrl   */ CY_CTB_DEINIT,
ARM GAS  C:\Users\gjl\AppData\Local\Temp\cckcOS93.s 			page 2


  30:Generated_Source\PSoC6\pdl\drivers\peripheral\ctb/cy_ctb.c ****     /*.ctdSwitchCtrl   */ CY_CTB_DEINIT,
  31:Generated_Source\PSoC6\pdl\drivers\peripheral\ctb/cy_ctb.c **** };
  32:Generated_Source\PSoC6\pdl\drivers\peripheral\ctb/cy_ctb.c **** 
  33:Generated_Source\PSoC6\pdl\drivers\peripheral\ctb/cy_ctb.c **** const cy_stc_ctb_fast_config_oa0_t Cy_CTB_Fast_Opamp0_Comp =
  34:Generated_Source\PSoC6\pdl\drivers\peripheral\ctb/cy_ctb.c **** {
  35:Generated_Source\PSoC6\pdl\drivers\peripheral\ctb/cy_ctb.c ****     /*.oa0Power        */ CY_CTB_POWER_MEDIUM,
  36:Generated_Source\PSoC6\pdl\drivers\peripheral\ctb/cy_ctb.c ****     /*.oa0Mode         */ CY_CTB_MODE_COMP,
  37:Generated_Source\PSoC6\pdl\drivers\peripheral\ctb/cy_ctb.c ****     /*.oa0SwitchCtrl   */ CY_CTB_DEINIT,
  38:Generated_Source\PSoC6\pdl\drivers\peripheral\ctb/cy_ctb.c ****     /*.ctdSwitchCtrl   */ CY_CTB_DEINIT,
  39:Generated_Source\PSoC6\pdl\drivers\peripheral\ctb/cy_ctb.c **** };
  40:Generated_Source\PSoC6\pdl\drivers\peripheral\ctb/cy_ctb.c **** 
  41:Generated_Source\PSoC6\pdl\drivers\peripheral\ctb/cy_ctb.c **** const cy_stc_ctb_fast_config_oa0_t Cy_CTB_Fast_Opamp0_Opamp1x =
  42:Generated_Source\PSoC6\pdl\drivers\peripheral\ctb/cy_ctb.c **** {
  43:Generated_Source\PSoC6\pdl\drivers\peripheral\ctb/cy_ctb.c ****     /*.oa0Power        */ CY_CTB_POWER_MEDIUM,
  44:Generated_Source\PSoC6\pdl\drivers\peripheral\ctb/cy_ctb.c ****     /*.oa0Mode         */ CY_CTB_MODE_OPAMP1X,
  45:Generated_Source\PSoC6\pdl\drivers\peripheral\ctb/cy_ctb.c ****     /*.oa0SwitchCtrl   */ CY_CTB_DEINIT,
  46:Generated_Source\PSoC6\pdl\drivers\peripheral\ctb/cy_ctb.c ****     /*.ctdSwitchCtrl   */ CY_CTB_DEINIT,
  47:Generated_Source\PSoC6\pdl\drivers\peripheral\ctb/cy_ctb.c **** };
  48:Generated_Source\PSoC6\pdl\drivers\peripheral\ctb/cy_ctb.c **** 
  49:Generated_Source\PSoC6\pdl\drivers\peripheral\ctb/cy_ctb.c **** const cy_stc_ctb_fast_config_oa0_t Cy_CTB_Fast_Opamp0_Opamp10x =
  50:Generated_Source\PSoC6\pdl\drivers\peripheral\ctb/cy_ctb.c **** {
  51:Generated_Source\PSoC6\pdl\drivers\peripheral\ctb/cy_ctb.c ****     /*.oa0Power        */ CY_CTB_POWER_MEDIUM,
  52:Generated_Source\PSoC6\pdl\drivers\peripheral\ctb/cy_ctb.c ****     /*.oa0Mode         */ CY_CTB_MODE_OPAMP10X,
  53:Generated_Source\PSoC6\pdl\drivers\peripheral\ctb/cy_ctb.c ****     /*.oa0SwitchCtrl   */ CY_CTB_DEINIT,
  54:Generated_Source\PSoC6\pdl\drivers\peripheral\ctb/cy_ctb.c ****     /*.ctdSwitchCtrl   */ CY_CTB_DEINIT,
  55:Generated_Source\PSoC6\pdl\drivers\peripheral\ctb/cy_ctb.c **** };
  56:Generated_Source\PSoC6\pdl\drivers\peripheral\ctb/cy_ctb.c **** 
  57:Generated_Source\PSoC6\pdl\drivers\peripheral\ctb/cy_ctb.c **** const cy_stc_ctb_fast_config_oa0_t Cy_CTB_Fast_Opamp0_Diffamp =
  58:Generated_Source\PSoC6\pdl\drivers\peripheral\ctb/cy_ctb.c **** {
  59:Generated_Source\PSoC6\pdl\drivers\peripheral\ctb/cy_ctb.c ****     /*.oa0Power        */ CY_CTB_POWER_MEDIUM,
  60:Generated_Source\PSoC6\pdl\drivers\peripheral\ctb/cy_ctb.c ****     /*.oa0Mode         */ CY_CTB_MODE_OPAMP10X,
  61:Generated_Source\PSoC6\pdl\drivers\peripheral\ctb/cy_ctb.c ****     /*.oa0SwitchCtrl   */ (uint32_t) CY_CTB_SW_OA0_POS_PIN0_MASK | (uint32_t) CY_CTB_SW_OA0_NEG_PIN
  62:Generated_Source\PSoC6\pdl\drivers\peripheral\ctb/cy_ctb.c ****     /*.ctdSwitchCtrl   */ (uint32_t) CY_CTB_SW_CTD_CHOLD_OA0_POS_ISOLATE_MASK,
  63:Generated_Source\PSoC6\pdl\drivers\peripheral\ctb/cy_ctb.c **** };
  64:Generated_Source\PSoC6\pdl\drivers\peripheral\ctb/cy_ctb.c **** 
  65:Generated_Source\PSoC6\pdl\drivers\peripheral\ctb/cy_ctb.c **** const cy_stc_ctb_fast_config_oa0_t Cy_CTB_Fast_Opamp0_Vdac_Out =
  66:Generated_Source\PSoC6\pdl\drivers\peripheral\ctb/cy_ctb.c **** {
  67:Generated_Source\PSoC6\pdl\drivers\peripheral\ctb/cy_ctb.c ****     /*.oa0Power        */ CY_CTB_POWER_MEDIUM,
  68:Generated_Source\PSoC6\pdl\drivers\peripheral\ctb/cy_ctb.c ****     /*.oa0Mode         */ CY_CTB_MODE_OPAMP10X,
  69:Generated_Source\PSoC6\pdl\drivers\peripheral\ctb/cy_ctb.c ****     /*.oa0SwitchCtrl   */ (uint32_t) CY_CTB_SW_OA0_NEG_OUT_MASK | (uint32_t) CY_CTB_SW_OA0_OUT_SHOR
  70:Generated_Source\PSoC6\pdl\drivers\peripheral\ctb/cy_ctb.c ****     /*.ctdSwitchCtrl   */ (uint32_t) CY_CTB_SW_CTD_OUT_CHOLD_MASK | (uint32_t) CY_CTB_SW_CTD_CHOLD_
  71:Generated_Source\PSoC6\pdl\drivers\peripheral\ctb/cy_ctb.c **** };
  72:Generated_Source\PSoC6\pdl\drivers\peripheral\ctb/cy_ctb.c **** 
  73:Generated_Source\PSoC6\pdl\drivers\peripheral\ctb/cy_ctb.c **** const cy_stc_ctb_fast_config_oa0_t Cy_CTB_Fast_Opamp0_Vdac_Out_SH =
  74:Generated_Source\PSoC6\pdl\drivers\peripheral\ctb/cy_ctb.c **** {
  75:Generated_Source\PSoC6\pdl\drivers\peripheral\ctb/cy_ctb.c ****     /*.oa0Power        */ CY_CTB_POWER_MEDIUM,
  76:Generated_Source\PSoC6\pdl\drivers\peripheral\ctb/cy_ctb.c ****     /*.oa0Mode         */ CY_CTB_MODE_OPAMP10X,
  77:Generated_Source\PSoC6\pdl\drivers\peripheral\ctb/cy_ctb.c ****     /*.oa0SwitchCtrl   */ (uint32_t) CY_CTB_SW_OA0_NEG_OUT_MASK | (uint32_t) CY_CTB_SW_OA0_OUT_SHOR
  78:Generated_Source\PSoC6\pdl\drivers\peripheral\ctb/cy_ctb.c ****     /*.ctdSwitchCtrl   */ (uint32_t) CY_CTB_SW_CTD_OUT_CHOLD_MASK | (uint32_t) CY_CTB_SW_CTD_CHOLD_
  79:Generated_Source\PSoC6\pdl\drivers\peripheral\ctb/cy_ctb.c **** };
  80:Generated_Source\PSoC6\pdl\drivers\peripheral\ctb/cy_ctb.c **** 
  81:Generated_Source\PSoC6\pdl\drivers\peripheral\ctb/cy_ctb.c **** const cy_stc_ctb_fast_config_oa1_t Cy_CTB_Fast_Opamp1_Unused =
  82:Generated_Source\PSoC6\pdl\drivers\peripheral\ctb/cy_ctb.c **** {
  83:Generated_Source\PSoC6\pdl\drivers\peripheral\ctb/cy_ctb.c ****     /*.oa1Power        */ CY_CTB_POWER_OFF,
  84:Generated_Source\PSoC6\pdl\drivers\peripheral\ctb/cy_ctb.c ****     /*.oa1Mode         */ CY_CTB_MODE_OPAMP1X,
  85:Generated_Source\PSoC6\pdl\drivers\peripheral\ctb/cy_ctb.c ****     /*.oa1SwitchCtrl   */ CY_CTB_DEINIT,
  86:Generated_Source\PSoC6\pdl\drivers\peripheral\ctb/cy_ctb.c ****     /*.ctdSwitchCtrl   */ CY_CTB_DEINIT,
ARM GAS  C:\Users\gjl\AppData\Local\Temp\cckcOS93.s 			page 3


  87:Generated_Source\PSoC6\pdl\drivers\peripheral\ctb/cy_ctb.c **** };
  88:Generated_Source\PSoC6\pdl\drivers\peripheral\ctb/cy_ctb.c **** 
  89:Generated_Source\PSoC6\pdl\drivers\peripheral\ctb/cy_ctb.c **** const cy_stc_ctb_fast_config_oa1_t Cy_CTB_Fast_Opamp1_Comp =
  90:Generated_Source\PSoC6\pdl\drivers\peripheral\ctb/cy_ctb.c **** {
  91:Generated_Source\PSoC6\pdl\drivers\peripheral\ctb/cy_ctb.c ****     /*.oa1Power        */ CY_CTB_POWER_MEDIUM,
  92:Generated_Source\PSoC6\pdl\drivers\peripheral\ctb/cy_ctb.c ****     /*.oa1Mode         */ CY_CTB_MODE_COMP,
  93:Generated_Source\PSoC6\pdl\drivers\peripheral\ctb/cy_ctb.c ****     /*.oa1SwitchCtrl   */ CY_CTB_DEINIT,
  94:Generated_Source\PSoC6\pdl\drivers\peripheral\ctb/cy_ctb.c ****     /*.ctdSwitchCtrl   */ CY_CTB_DEINIT,
  95:Generated_Source\PSoC6\pdl\drivers\peripheral\ctb/cy_ctb.c **** };
  96:Generated_Source\PSoC6\pdl\drivers\peripheral\ctb/cy_ctb.c **** 
  97:Generated_Source\PSoC6\pdl\drivers\peripheral\ctb/cy_ctb.c **** const cy_stc_ctb_fast_config_oa1_t Cy_CTB_Fast_Opamp1_Opamp1x =
  98:Generated_Source\PSoC6\pdl\drivers\peripheral\ctb/cy_ctb.c **** {
  99:Generated_Source\PSoC6\pdl\drivers\peripheral\ctb/cy_ctb.c ****     /*.oa1Power        */ CY_CTB_POWER_MEDIUM,
 100:Generated_Source\PSoC6\pdl\drivers\peripheral\ctb/cy_ctb.c ****     /*.oa1Mode         */ CY_CTB_MODE_OPAMP1X,
 101:Generated_Source\PSoC6\pdl\drivers\peripheral\ctb/cy_ctb.c ****     /*.oa1SwitchCtrl   */ CY_CTB_DEINIT,
 102:Generated_Source\PSoC6\pdl\drivers\peripheral\ctb/cy_ctb.c ****     /*.ctdSwitchCtrl   */ CY_CTB_DEINIT,
 103:Generated_Source\PSoC6\pdl\drivers\peripheral\ctb/cy_ctb.c **** };
 104:Generated_Source\PSoC6\pdl\drivers\peripheral\ctb/cy_ctb.c **** 
 105:Generated_Source\PSoC6\pdl\drivers\peripheral\ctb/cy_ctb.c **** const cy_stc_ctb_fast_config_oa1_t Cy_CTB_Fast_Opamp1_Opamp10x =
 106:Generated_Source\PSoC6\pdl\drivers\peripheral\ctb/cy_ctb.c **** {
 107:Generated_Source\PSoC6\pdl\drivers\peripheral\ctb/cy_ctb.c ****     /*.oa1Power        */ CY_CTB_POWER_MEDIUM,
 108:Generated_Source\PSoC6\pdl\drivers\peripheral\ctb/cy_ctb.c ****     /*.oa1Mode         */ CY_CTB_MODE_OPAMP10X,
 109:Generated_Source\PSoC6\pdl\drivers\peripheral\ctb/cy_ctb.c ****     /*.oa1SwitchCtrl   */ CY_CTB_DEINIT,
 110:Generated_Source\PSoC6\pdl\drivers\peripheral\ctb/cy_ctb.c ****     /*.ctdSwitchCtrl   */ CY_CTB_DEINIT,
 111:Generated_Source\PSoC6\pdl\drivers\peripheral\ctb/cy_ctb.c **** };
 112:Generated_Source\PSoC6\pdl\drivers\peripheral\ctb/cy_ctb.c **** 
 113:Generated_Source\PSoC6\pdl\drivers\peripheral\ctb/cy_ctb.c **** const cy_stc_ctb_fast_config_oa1_t Cy_CTB_Fast_Opamp1_Diffamp =
 114:Generated_Source\PSoC6\pdl\drivers\peripheral\ctb/cy_ctb.c **** {
 115:Generated_Source\PSoC6\pdl\drivers\peripheral\ctb/cy_ctb.c ****     /*.oa1Power        */ CY_CTB_POWER_MEDIUM,
 116:Generated_Source\PSoC6\pdl\drivers\peripheral\ctb/cy_ctb.c ****     /*.oa1Mode         */ CY_CTB_MODE_OPAMP10X,
 117:Generated_Source\PSoC6\pdl\drivers\peripheral\ctb/cy_ctb.c ****     /*.oa1SwitchCtrl   */ (uint32_t) CY_CTB_SW_OA1_POS_PIN7_MASK | (uint32_t) CY_CTB_SW_OA1_NEG_PIN
 118:Generated_Source\PSoC6\pdl\drivers\peripheral\ctb/cy_ctb.c ****     /*.ctdSwitchCtrl   */ CY_CTB_DEINIT,
 119:Generated_Source\PSoC6\pdl\drivers\peripheral\ctb/cy_ctb.c **** };
 120:Generated_Source\PSoC6\pdl\drivers\peripheral\ctb/cy_ctb.c **** 
 121:Generated_Source\PSoC6\pdl\drivers\peripheral\ctb/cy_ctb.c **** const cy_stc_ctb_fast_config_oa1_t Cy_CTB_Fast_Opamp1_Vdac_Ref_Aref =
 122:Generated_Source\PSoC6\pdl\drivers\peripheral\ctb/cy_ctb.c **** {
 123:Generated_Source\PSoC6\pdl\drivers\peripheral\ctb/cy_ctb.c ****     /*.oa1Power        */ CY_CTB_POWER_MEDIUM,
 124:Generated_Source\PSoC6\pdl\drivers\peripheral\ctb/cy_ctb.c ****     /*.oa1Mode         */ CY_CTB_MODE_OPAMP1X,
 125:Generated_Source\PSoC6\pdl\drivers\peripheral\ctb/cy_ctb.c ****     /*.oa1SwitchCtrl   */ (uint32_t) CY_CTB_SW_OA1_NEG_OUT_MASK | (uint32_t) CY_CTB_SW_OA1_POS_AREF
 126:Generated_Source\PSoC6\pdl\drivers\peripheral\ctb/cy_ctb.c ****     /*.ctdSwitchCtrl   */ (uint32_t) CY_CTB_SW_CTD_REF_OA1_OUT_MASK,
 127:Generated_Source\PSoC6\pdl\drivers\peripheral\ctb/cy_ctb.c **** };
 128:Generated_Source\PSoC6\pdl\drivers\peripheral\ctb/cy_ctb.c **** 
 129:Generated_Source\PSoC6\pdl\drivers\peripheral\ctb/cy_ctb.c **** const cy_stc_ctb_fast_config_oa1_t Cy_CTB_Fast_Opamp1_Vdac_Ref_Pin5 =
 130:Generated_Source\PSoC6\pdl\drivers\peripheral\ctb/cy_ctb.c **** {
 131:Generated_Source\PSoC6\pdl\drivers\peripheral\ctb/cy_ctb.c ****     /*.oa1Power        */ CY_CTB_POWER_MEDIUM,
 132:Generated_Source\PSoC6\pdl\drivers\peripheral\ctb/cy_ctb.c ****     /*.oa1Mode         */ CY_CTB_MODE_OPAMP1X,
 133:Generated_Source\PSoC6\pdl\drivers\peripheral\ctb/cy_ctb.c ****     /*.oa1SwitchCtrl   */ (uint32_t) CY_CTB_SW_OA1_NEG_OUT_MASK | (uint32_t) CY_CTB_SW_OA1_POS_PIN5
 134:Generated_Source\PSoC6\pdl\drivers\peripheral\ctb/cy_ctb.c ****     /*.ctdSwitchCtrl   */ (uint32_t) CY_CTB_SW_CTD_REF_OA1_OUT_MASK,
 135:Generated_Source\PSoC6\pdl\drivers\peripheral\ctb/cy_ctb.c **** };
 136:Generated_Source\PSoC6\pdl\drivers\peripheral\ctb/cy_ctb.c **** 
 137:Generated_Source\PSoC6\pdl\drivers\peripheral\ctb/cy_ctb.c **** /*******************************************************************************
 138:Generated_Source\PSoC6\pdl\drivers\peripheral\ctb/cy_ctb.c **** * Function Name: Cy_CTB_Init
 139:Generated_Source\PSoC6\pdl\drivers\peripheral\ctb/cy_ctb.c **** ****************************************************************************//**
 140:Generated_Source\PSoC6\pdl\drivers\peripheral\ctb/cy_ctb.c **** *
 141:Generated_Source\PSoC6\pdl\drivers\peripheral\ctb/cy_ctb.c **** * Initialize or restore the CTB and both opamps according to the
 142:Generated_Source\PSoC6\pdl\drivers\peripheral\ctb/cy_ctb.c **** * provided settings. Parameters are usually set only once, at initialization.
 143:Generated_Source\PSoC6\pdl\drivers\peripheral\ctb/cy_ctb.c **** *
ARM GAS  C:\Users\gjl\AppData\Local\Temp\cckcOS93.s 			page 4


 144:Generated_Source\PSoC6\pdl\drivers\peripheral\ctb/cy_ctb.c **** * \param base
 145:Generated_Source\PSoC6\pdl\drivers\peripheral\ctb/cy_ctb.c **** * Pointer to structure describing registers
 146:Generated_Source\PSoC6\pdl\drivers\peripheral\ctb/cy_ctb.c **** *
 147:Generated_Source\PSoC6\pdl\drivers\peripheral\ctb/cy_ctb.c **** * \param config
 148:Generated_Source\PSoC6\pdl\drivers\peripheral\ctb/cy_ctb.c **** * Pointer to structure containing configuration data for entire CTB
 149:Generated_Source\PSoC6\pdl\drivers\peripheral\ctb/cy_ctb.c **** *
 150:Generated_Source\PSoC6\pdl\drivers\peripheral\ctb/cy_ctb.c **** * \return
 151:Generated_Source\PSoC6\pdl\drivers\peripheral\ctb/cy_ctb.c **** * Status of initialization, \ref CY_CTB_SUCCESS or \ref CY_CTB_BAD_PARAM
 152:Generated_Source\PSoC6\pdl\drivers\peripheral\ctb/cy_ctb.c **** *
 153:Generated_Source\PSoC6\pdl\drivers\peripheral\ctb/cy_ctb.c **** * \funcusage
 154:Generated_Source\PSoC6\pdl\drivers\peripheral\ctb/cy_ctb.c **** *
 155:Generated_Source\PSoC6\pdl\drivers\peripheral\ctb/cy_ctb.c **** * The following code snippet configures Opamp0 as a comparator
 156:Generated_Source\PSoC6\pdl\drivers\peripheral\ctb/cy_ctb.c **** * and Opamp1 as an opamp follower with 10x drive. The terminals
 157:Generated_Source\PSoC6\pdl\drivers\peripheral\ctb/cy_ctb.c **** * are routed to external pins by closing the switches shown.
 158:Generated_Source\PSoC6\pdl\drivers\peripheral\ctb/cy_ctb.c **** *
 159:Generated_Source\PSoC6\pdl\drivers\peripheral\ctb/cy_ctb.c **** * \image html ctb_init_funcusage.png
 160:Generated_Source\PSoC6\pdl\drivers\peripheral\ctb/cy_ctb.c **** * \image latex ctb_init_funcusage.png
 161:Generated_Source\PSoC6\pdl\drivers\peripheral\ctb/cy_ctb.c **** *
 162:Generated_Source\PSoC6\pdl\drivers\peripheral\ctb/cy_ctb.c **** * \snippet ctb_sut_01.cydsn/main_cm0p.c SNIPPET_CTBINIT
 163:Generated_Source\PSoC6\pdl\drivers\peripheral\ctb/cy_ctb.c **** *
 164:Generated_Source\PSoC6\pdl\drivers\peripheral\ctb/cy_ctb.c **** *******************************************************************************/
 165:Generated_Source\PSoC6\pdl\drivers\peripheral\ctb/cy_ctb.c **** cy_en_ctb_status_t Cy_CTB_Init(CTBM_Type *base, const cy_stc_ctb_config_t *config)
 166:Generated_Source\PSoC6\pdl\drivers\peripheral\ctb/cy_ctb.c **** {
  29              		.loc 1 166 0
  30              		.cfi_startproc
  31              		@ args = 0, pretend = 0, frame = 0
  32              		@ frame_needed = 0, uses_anonymous_args = 0
  33              	.LVL0:
  34 0000 38B5     		push	{r3, r4, r5, lr}
  35              		.cfi_def_cfa_offset 16
  36              		.cfi_offset 3, -16
  37              		.cfi_offset 4, -12
  38              		.cfi_offset 5, -8
  39              		.cfi_offset 14, -4
  40 0002 0C46     		mov	r4, r1
 167:Generated_Source\PSoC6\pdl\drivers\peripheral\ctb/cy_ctb.c ****     CY_ASSERT_L1(NULL != base);
  41              		.loc 1 167 0
  42 0004 0546     		mov	r5, r0
  43 0006 18B9     		cbnz	r0, .L2
  44              		.loc 1 167 0 is_stmt 0 discriminator 1
  45 0008 A721     		movs	r1, #167
  46              	.LVL1:
  47 000a 8648     		ldr	r0, .L39
  48              	.LVL2:
  49 000c FFF7FEFF 		bl	Cy_SysLib_AssertFailed
  50              	.LVL3:
  51              	.L2:
 168:Generated_Source\PSoC6\pdl\drivers\peripheral\ctb/cy_ctb.c ****     CY_ASSERT_L1(NULL != config);
  52              		.loc 1 168 0 is_stmt 1
  53 0010 1CB9     		cbnz	r4, .L3
  54              		.loc 1 168 0 is_stmt 0 discriminator 1
  55 0012 A821     		movs	r1, #168
  56 0014 8348     		ldr	r0, .L39
  57 0016 FFF7FEFF 		bl	Cy_SysLib_AssertFailed
  58              	.LVL4:
  59              	.L3:
 169:Generated_Source\PSoC6\pdl\drivers\peripheral\ctb/cy_ctb.c **** 
ARM GAS  C:\Users\gjl\AppData\Local\Temp\cckcOS93.s 			page 5


 170:Generated_Source\PSoC6\pdl\drivers\peripheral\ctb/cy_ctb.c ****     cy_en_ctb_status_t result;
 171:Generated_Source\PSoC6\pdl\drivers\peripheral\ctb/cy_ctb.c **** 
 172:Generated_Source\PSoC6\pdl\drivers\peripheral\ctb/cy_ctb.c ****     if ((NULL == base) || (NULL == config))
  60              		.loc 1 172 0 is_stmt 1
  61 001a 002D     		cmp	r5, #0
  62 001c 00F0FB80 		beq	.L29
  63              		.loc 1 172 0 is_stmt 0 discriminator 1
  64 0020 002C     		cmp	r4, #0
  65 0022 00F0FA80 		beq	.L30
 173:Generated_Source\PSoC6\pdl\drivers\peripheral\ctb/cy_ctb.c ****     {
 174:Generated_Source\PSoC6\pdl\drivers\peripheral\ctb/cy_ctb.c ****        result = CY_CTB_BAD_PARAM;
 175:Generated_Source\PSoC6\pdl\drivers\peripheral\ctb/cy_ctb.c ****     }
 176:Generated_Source\PSoC6\pdl\drivers\peripheral\ctb/cy_ctb.c ****     else
 177:Generated_Source\PSoC6\pdl\drivers\peripheral\ctb/cy_ctb.c ****     {
 178:Generated_Source\PSoC6\pdl\drivers\peripheral\ctb/cy_ctb.c ****         CY_ASSERT_L3(CY_CTB_DEEPSLEEP(config->deepSleep));
  66              		.loc 1 178 0 is_stmt 1
  67 0026 2368     		ldr	r3, [r4]
  68 0028 33B1     		cbz	r3, .L5
  69              		.loc 1 178 0 is_stmt 0 discriminator 1
  70 002a B3F1804F 		cmp	r3, #1073741824
  71 002e 03D0     		beq	.L5
  72              		.loc 1 178 0 discriminator 2
  73 0030 B221     		movs	r1, #178
  74 0032 7C48     		ldr	r0, .L39
  75 0034 FFF7FEFF 		bl	Cy_SysLib_AssertFailed
  76              	.LVL5:
  77              	.L5:
 179:Generated_Source\PSoC6\pdl\drivers\peripheral\ctb/cy_ctb.c **** 
 180:Generated_Source\PSoC6\pdl\drivers\peripheral\ctb/cy_ctb.c ****         /* Enum checks for Opamp0 config */
 181:Generated_Source\PSoC6\pdl\drivers\peripheral\ctb/cy_ctb.c ****         CY_ASSERT_L3(CY_CTB_OAPOWER(config->oa0Power));
  78              		.loc 1 181 0 is_stmt 1
  79 0038 2379     		ldrb	r3, [r4, #4]	@ zero_extendqisi2
  80 003a 032B     		cmp	r3, #3
  81 003c 03D9     		bls	.L6
  82              		.loc 1 181 0 is_stmt 0 discriminator 1
  83 003e B521     		movs	r1, #181
  84 0040 7848     		ldr	r0, .L39
  85 0042 FFF7FEFF 		bl	Cy_SysLib_AssertFailed
  86              	.LVL6:
  87              	.L6:
 182:Generated_Source\PSoC6\pdl\drivers\peripheral\ctb/cy_ctb.c ****         CY_ASSERT_L3(CY_CTB_OAMODE(config->oa0Mode));
  88              		.loc 1 182 0 is_stmt 1
  89 0046 6379     		ldrb	r3, [r4, #5]	@ zero_extendqisi2
  90 0048 3BB1     		cbz	r3, .L7
  91              		.loc 1 182 0 is_stmt 0 discriminator 1
  92 004a 082B     		cmp	r3, #8
  93 004c 05D0     		beq	.L7
  94              		.loc 1 182 0 discriminator 2
  95 004e 102B     		cmp	r3, #16
  96 0050 03D0     		beq	.L7
  97              		.loc 1 182 0 discriminator 3
  98 0052 B621     		movs	r1, #182
  99 0054 7348     		ldr	r0, .L39
 100 0056 FFF7FEFF 		bl	Cy_SysLib_AssertFailed
 101              	.LVL7:
 102              	.L7:
 183:Generated_Source\PSoC6\pdl\drivers\peripheral\ctb/cy_ctb.c ****         CY_ASSERT_L3(CY_CTB_OAPUMP(config->oa0Pump));
ARM GAS  C:\Users\gjl\AppData\Local\Temp\cckcOS93.s 			page 6


 103              		.loc 1 183 0 is_stmt 1
 104 005a E388     		ldrh	r3, [r4, #6]
 105 005c 33B1     		cbz	r3, .L8
 106              		.loc 1 183 0 is_stmt 0 discriminator 1
 107 005e B3F5006F 		cmp	r3, #2048
 108 0062 03D0     		beq	.L8
 109              		.loc 1 183 0 discriminator 2
 110 0064 B721     		movs	r1, #183
 111 0066 6F48     		ldr	r0, .L39
 112 0068 FFF7FEFF 		bl	Cy_SysLib_AssertFailed
 113              	.LVL8:
 114              	.L8:
 184:Generated_Source\PSoC6\pdl\drivers\peripheral\ctb/cy_ctb.c ****         CY_ASSERT_L3(CY_CTB_COMPEDGE(config->oa0CompEdge));
 115              		.loc 1 184 0 is_stmt 1
 116 006c 2389     		ldrh	r3, [r4, #8]
 117 006e 63B1     		cbz	r3, .L9
 118              		.loc 1 184 0 is_stmt 0 discriminator 1
 119 0070 B3F5807F 		cmp	r3, #256
 120 0074 09D0     		beq	.L9
 121              		.loc 1 184 0 discriminator 2
 122 0076 B3F5007F 		cmp	r3, #512
 123 007a 06D0     		beq	.L9
 124              		.loc 1 184 0 discriminator 3
 125 007c B3F5407F 		cmp	r3, #768
 126 0080 03D0     		beq	.L9
 127              		.loc 1 184 0 discriminator 4
 128 0082 B821     		movs	r1, #184
 129 0084 6748     		ldr	r0, .L39
 130 0086 FFF7FEFF 		bl	Cy_SysLib_AssertFailed
 131              	.LVL9:
 132              	.L9:
 185:Generated_Source\PSoC6\pdl\drivers\peripheral\ctb/cy_ctb.c ****         CY_ASSERT_L3(CY_CTB_COMPLEVEL(config->oa0CompLevel));
 133              		.loc 1 185 0 is_stmt 1
 134 008a A37A     		ldrb	r3, [r4, #10]	@ zero_extendqisi2
 135 008c 2BB1     		cbz	r3, .L10
 136              		.loc 1 185 0 is_stmt 0 discriminator 1
 137 008e 802B     		cmp	r3, #128
 138 0090 03D0     		beq	.L10
 139              		.loc 1 185 0 discriminator 2
 140 0092 B921     		movs	r1, #185
 141 0094 6348     		ldr	r0, .L39
 142 0096 FFF7FEFF 		bl	Cy_SysLib_AssertFailed
 143              	.LVL10:
 144              	.L10:
 186:Generated_Source\PSoC6\pdl\drivers\peripheral\ctb/cy_ctb.c ****         CY_ASSERT_L3(CY_CTB_COMPBYPASS(config->oa0CompBypass));
 145              		.loc 1 186 0 is_stmt 1
 146 009a E37A     		ldrb	r3, [r4, #11]	@ zero_extendqisi2
 147 009c 2BB1     		cbz	r3, .L11
 148              		.loc 1 186 0 is_stmt 0 discriminator 1
 149 009e 402B     		cmp	r3, #64
 150 00a0 03D0     		beq	.L11
 151              		.loc 1 186 0 discriminator 2
 152 00a2 BA21     		movs	r1, #186
 153 00a4 5F48     		ldr	r0, .L39
 154 00a6 FFF7FEFF 		bl	Cy_SysLib_AssertFailed
 155              	.LVL11:
 156              	.L11:
ARM GAS  C:\Users\gjl\AppData\Local\Temp\cckcOS93.s 			page 7


 187:Generated_Source\PSoC6\pdl\drivers\peripheral\ctb/cy_ctb.c ****         CY_ASSERT_L3(CY_CTB_COMPHYST(config->oa0CompHyst));
 157              		.loc 1 187 0 is_stmt 1
 158 00aa 237B     		ldrb	r3, [r4, #12]	@ zero_extendqisi2
 159 00ac 2BB1     		cbz	r3, .L12
 160              		.loc 1 187 0 is_stmt 0 discriminator 1
 161 00ae 202B     		cmp	r3, #32
 162 00b0 03D0     		beq	.L12
 163              		.loc 1 187 0 discriminator 2
 164 00b2 BB21     		movs	r1, #187
 165 00b4 5B48     		ldr	r0, .L39
 166 00b6 FFF7FEFF 		bl	Cy_SysLib_AssertFailed
 167              	.LVL12:
 168              	.L12:
 188:Generated_Source\PSoC6\pdl\drivers\peripheral\ctb/cy_ctb.c **** 
 189:Generated_Source\PSoC6\pdl\drivers\peripheral\ctb/cy_ctb.c ****         /* Enum checks for Opamp0 config */
 190:Generated_Source\PSoC6\pdl\drivers\peripheral\ctb/cy_ctb.c ****         CY_ASSERT_L3(CY_CTB_OAPOWER(config->oa1Power));
 169              		.loc 1 190 0 is_stmt 1
 170 00ba A37B     		ldrb	r3, [r4, #14]	@ zero_extendqisi2
 171 00bc 032B     		cmp	r3, #3
 172 00be 03D9     		bls	.L13
 173              		.loc 1 190 0 is_stmt 0 discriminator 1
 174 00c0 BE21     		movs	r1, #190
 175 00c2 5848     		ldr	r0, .L39
 176 00c4 FFF7FEFF 		bl	Cy_SysLib_AssertFailed
 177              	.LVL13:
 178              	.L13:
 191:Generated_Source\PSoC6\pdl\drivers\peripheral\ctb/cy_ctb.c ****         CY_ASSERT_L3(CY_CTB_OAMODE(config->oa1Mode));
 179              		.loc 1 191 0 is_stmt 1
 180 00c8 E37B     		ldrb	r3, [r4, #15]	@ zero_extendqisi2
 181 00ca 3BB1     		cbz	r3, .L14
 182              		.loc 1 191 0 is_stmt 0 discriminator 1
 183 00cc 082B     		cmp	r3, #8
 184 00ce 05D0     		beq	.L14
 185              		.loc 1 191 0 discriminator 2
 186 00d0 102B     		cmp	r3, #16
 187 00d2 03D0     		beq	.L14
 188              		.loc 1 191 0 discriminator 3
 189 00d4 BF21     		movs	r1, #191
 190 00d6 5348     		ldr	r0, .L39
 191 00d8 FFF7FEFF 		bl	Cy_SysLib_AssertFailed
 192              	.LVL14:
 193              	.L14:
 192:Generated_Source\PSoC6\pdl\drivers\peripheral\ctb/cy_ctb.c ****         CY_ASSERT_L3(CY_CTB_OAPUMP(config->oa1Pump));
 194              		.loc 1 192 0 is_stmt 1
 195 00dc 238A     		ldrh	r3, [r4, #16]
 196 00de 33B1     		cbz	r3, .L15
 197              		.loc 1 192 0 is_stmt 0 discriminator 1
 198 00e0 B3F5006F 		cmp	r3, #2048
 199 00e4 03D0     		beq	.L15
 200              		.loc 1 192 0 discriminator 2
 201 00e6 C021     		movs	r1, #192
 202 00e8 4E48     		ldr	r0, .L39
 203 00ea FFF7FEFF 		bl	Cy_SysLib_AssertFailed
 204              	.LVL15:
 205              	.L15:
 193:Generated_Source\PSoC6\pdl\drivers\peripheral\ctb/cy_ctb.c ****         CY_ASSERT_L3(CY_CTB_COMPEDGE(config->oa1CompEdge));
 206              		.loc 1 193 0 is_stmt 1
ARM GAS  C:\Users\gjl\AppData\Local\Temp\cckcOS93.s 			page 8


 207 00ee 638A     		ldrh	r3, [r4, #18]
 208 00f0 63B1     		cbz	r3, .L16
 209              		.loc 1 193 0 is_stmt 0 discriminator 1
 210 00f2 B3F5807F 		cmp	r3, #256
 211 00f6 09D0     		beq	.L16
 212              		.loc 1 193 0 discriminator 2
 213 00f8 B3F5007F 		cmp	r3, #512
 214 00fc 06D0     		beq	.L16
 215              		.loc 1 193 0 discriminator 3
 216 00fe B3F5407F 		cmp	r3, #768
 217 0102 03D0     		beq	.L16
 218              		.loc 1 193 0 discriminator 4
 219 0104 C121     		movs	r1, #193
 220 0106 4748     		ldr	r0, .L39
 221 0108 FFF7FEFF 		bl	Cy_SysLib_AssertFailed
 222              	.LVL16:
 223              	.L16:
 194:Generated_Source\PSoC6\pdl\drivers\peripheral\ctb/cy_ctb.c ****         CY_ASSERT_L3(CY_CTB_COMPLEVEL(config->oa1CompLevel));
 224              		.loc 1 194 0 is_stmt 1
 225 010c 237D     		ldrb	r3, [r4, #20]	@ zero_extendqisi2
 226 010e 2BB1     		cbz	r3, .L17
 227              		.loc 1 194 0 is_stmt 0 discriminator 1
 228 0110 802B     		cmp	r3, #128
 229 0112 03D0     		beq	.L17
 230              		.loc 1 194 0 discriminator 2
 231 0114 C221     		movs	r1, #194
 232 0116 4348     		ldr	r0, .L39
 233 0118 FFF7FEFF 		bl	Cy_SysLib_AssertFailed
 234              	.LVL17:
 235              	.L17:
 195:Generated_Source\PSoC6\pdl\drivers\peripheral\ctb/cy_ctb.c ****         CY_ASSERT_L3(CY_CTB_COMPBYPASS(config->oa1CompBypass));
 236              		.loc 1 195 0 is_stmt 1
 237 011c 637D     		ldrb	r3, [r4, #21]	@ zero_extendqisi2
 238 011e 2BB1     		cbz	r3, .L18
 239              		.loc 1 195 0 is_stmt 0 discriminator 1
 240 0120 402B     		cmp	r3, #64
 241 0122 03D0     		beq	.L18
 242              		.loc 1 195 0 discriminator 2
 243 0124 C321     		movs	r1, #195
 244 0126 3F48     		ldr	r0, .L39
 245 0128 FFF7FEFF 		bl	Cy_SysLib_AssertFailed
 246              	.LVL18:
 247              	.L18:
 196:Generated_Source\PSoC6\pdl\drivers\peripheral\ctb/cy_ctb.c ****         CY_ASSERT_L3(CY_CTB_COMPHYST(config->oa1CompHyst));
 248              		.loc 1 196 0 is_stmt 1
 249 012c A37D     		ldrb	r3, [r4, #22]	@ zero_extendqisi2
 250 012e 2BB1     		cbz	r3, .L19
 251              		.loc 1 196 0 is_stmt 0 discriminator 1
 252 0130 202B     		cmp	r3, #32
 253 0132 03D0     		beq	.L19
 254              		.loc 1 196 0 discriminator 2
 255 0134 C421     		movs	r1, #196
 256 0136 3B48     		ldr	r0, .L39
 257 0138 FFF7FEFF 		bl	Cy_SysLib_AssertFailed
 258              	.LVL19:
 259              	.L19:
 197:Generated_Source\PSoC6\pdl\drivers\peripheral\ctb/cy_ctb.c **** 
ARM GAS  C:\Users\gjl\AppData\Local\Temp\cckcOS93.s 			page 9


 198:Generated_Source\PSoC6\pdl\drivers\peripheral\ctb/cy_ctb.c ****         /* Boundary checks for analog routing switch masks */
 199:Generated_Source\PSoC6\pdl\drivers\peripheral\ctb/cy_ctb.c ****         CY_ASSERT_L2(CY_CTB_OA0SWITCH(config->oa0SwitchCtrl));
 260              		.loc 1 199 0 is_stmt 1
 261 013c E269     		ldr	r2, [r4, #28]
 262 013e 3A4B     		ldr	r3, .L39+4
 263 0140 1340     		ands	r3, r3, r2
 264 0142 1BB1     		cbz	r3, .L20
 265              		.loc 1 199 0 is_stmt 0 discriminator 1
 266 0144 C721     		movs	r1, #199
 267 0146 3748     		ldr	r0, .L39
 268 0148 FFF7FEFF 		bl	Cy_SysLib_AssertFailed
 269              	.LVL20:
 270              	.L20:
 200:Generated_Source\PSoC6\pdl\drivers\peripheral\ctb/cy_ctb.c ****         CY_ASSERT_L2(CY_CTB_OA1SWITCH(config->oa1SwitchCtrl));
 271              		.loc 1 200 0 is_stmt 1
 272 014c 226A     		ldr	r2, [r4, #32]
 273 014e 374B     		ldr	r3, .L39+8
 274 0150 1340     		ands	r3, r3, r2
 275 0152 1BB1     		cbz	r3, .L21
 276              		.loc 1 200 0 is_stmt 0 discriminator 1
 277 0154 C821     		movs	r1, #200
 278 0156 3348     		ldr	r0, .L39
 279 0158 FFF7FEFF 		bl	Cy_SysLib_AssertFailed
 280              	.LVL21:
 281              	.L21:
 201:Generated_Source\PSoC6\pdl\drivers\peripheral\ctb/cy_ctb.c ****         CY_ASSERT_L2(CY_CTB_CTDSWITCH(config->ctdSwitchCtrl));
 282              		.loc 1 201 0 is_stmt 1
 283 015c 636A     		ldr	r3, [r4, #36]
 284 015e 23F47743 		bic	r3, r3, #63232
 285 0162 23F03203 		bic	r3, r3, #50
 286 0166 1BB1     		cbz	r3, .L22
 287              		.loc 1 201 0 is_stmt 0 discriminator 1
 288 0168 C921     		movs	r1, #201
 289 016a 2E48     		ldr	r0, .L39
 290 016c FFF7FEFF 		bl	Cy_SysLib_AssertFailed
 291              	.LVL22:
 292              	.L22:
 202:Generated_Source\PSoC6\pdl\drivers\peripheral\ctb/cy_ctb.c **** 
 203:Generated_Source\PSoC6\pdl\drivers\peripheral\ctb/cy_ctb.c ****         base->CTB_CTRL = (uint32_t) config->deepSleep;
 293              		.loc 1 203 0 is_stmt 1
 294 0170 2368     		ldr	r3, [r4]
 295 0172 2B60     		str	r3, [r5]
 204:Generated_Source\PSoC6\pdl\drivers\peripheral\ctb/cy_ctb.c ****         base->OA_RES0_CTRL = (uint32_t) config->oa0Power \
 296              		.loc 1 204 0
 297 0174 2379     		ldrb	r3, [r4, #4]	@ zero_extendqisi2
 205:Generated_Source\PSoC6\pdl\drivers\peripheral\ctb/cy_ctb.c ****                              | (uint32_t) config->oa0Mode \
 298              		.loc 1 205 0
 299 0176 6179     		ldrb	r1, [r4, #5]	@ zero_extendqisi2
 300 0178 0B43     		orrs	r3, r3, r1
 206:Generated_Source\PSoC6\pdl\drivers\peripheral\ctb/cy_ctb.c ****                              | (uint32_t) config->oa0Pump \
 301              		.loc 1 206 0
 302 017a E288     		ldrh	r2, [r4, #6]
 303 017c 1343     		orrs	r3, r3, r2
 207:Generated_Source\PSoC6\pdl\drivers\peripheral\ctb/cy_ctb.c ****                              | (uint32_t) config->oa0CompEdge \
 304              		.loc 1 207 0
 305 017e 2289     		ldrh	r2, [r4, #8]
 306 0180 1343     		orrs	r3, r3, r2
ARM GAS  C:\Users\gjl\AppData\Local\Temp\cckcOS93.s 			page 10


 208:Generated_Source\PSoC6\pdl\drivers\peripheral\ctb/cy_ctb.c ****                              | (uint32_t) config->oa0CompLevel \
 307              		.loc 1 208 0
 308 0182 A27A     		ldrb	r2, [r4, #10]	@ zero_extendqisi2
 309 0184 1343     		orrs	r3, r3, r2
 209:Generated_Source\PSoC6\pdl\drivers\peripheral\ctb/cy_ctb.c ****                              | (uint32_t) config->oa0CompBypass \
 310              		.loc 1 209 0
 311 0186 E27A     		ldrb	r2, [r4, #11]	@ zero_extendqisi2
 312 0188 1343     		orrs	r3, r3, r2
 210:Generated_Source\PSoC6\pdl\drivers\peripheral\ctb/cy_ctb.c ****                              | (uint32_t) config->oa0CompHyst \
 313              		.loc 1 210 0
 314 018a 227B     		ldrb	r2, [r4, #12]	@ zero_extendqisi2
 315 018c 1343     		orrs	r3, r3, r2
 211:Generated_Source\PSoC6\pdl\drivers\peripheral\ctb/cy_ctb.c ****                              | ((CY_CTB_MODE_OPAMP1X == config->oa0Mode) ? CY_CTB_OPAMP_BOOST_ENABL
 316              		.loc 1 211 0
 317 018e 11B9     		cbnz	r1, .L31
 318 0190 4FF48052 		mov	r2, #4096
 319 0194 00E0     		b	.L23
 320              	.L31:
 321 0196 0022     		movs	r2, #0
 322              	.L23:
 323              		.loc 1 211 0 is_stmt 0 discriminator 4
 324 0198 1343     		orrs	r3, r3, r2
 204:Generated_Source\PSoC6\pdl\drivers\peripheral\ctb/cy_ctb.c ****                              | (uint32_t) config->oa0Mode \
 325              		.loc 1 204 0 is_stmt 1 discriminator 4
 326 019a 6B60     		str	r3, [r5, #4]
 212:Generated_Source\PSoC6\pdl\drivers\peripheral\ctb/cy_ctb.c **** 
 213:Generated_Source\PSoC6\pdl\drivers\peripheral\ctb/cy_ctb.c ****         base->OA_RES1_CTRL = (uint32_t) config->oa1Power \
 327              		.loc 1 213 0 discriminator 4
 328 019c A37B     		ldrb	r3, [r4, #14]	@ zero_extendqisi2
 214:Generated_Source\PSoC6\pdl\drivers\peripheral\ctb/cy_ctb.c ****                              | (uint32_t) config->oa1Mode \
 329              		.loc 1 214 0 discriminator 4
 330 019e E17B     		ldrb	r1, [r4, #15]	@ zero_extendqisi2
 331 01a0 0B43     		orrs	r3, r3, r1
 215:Generated_Source\PSoC6\pdl\drivers\peripheral\ctb/cy_ctb.c ****                              | (uint32_t) config->oa1Pump \
 332              		.loc 1 215 0 discriminator 4
 333 01a2 228A     		ldrh	r2, [r4, #16]
 334 01a4 1343     		orrs	r3, r3, r2
 216:Generated_Source\PSoC6\pdl\drivers\peripheral\ctb/cy_ctb.c ****                              | (uint32_t) config->oa1CompEdge \
 335              		.loc 1 216 0 discriminator 4
 336 01a6 628A     		ldrh	r2, [r4, #18]
 337 01a8 1343     		orrs	r3, r3, r2
 217:Generated_Source\PSoC6\pdl\drivers\peripheral\ctb/cy_ctb.c ****                              | (uint32_t) config->oa1CompLevel \
 338              		.loc 1 217 0 discriminator 4
 339 01aa 227D     		ldrb	r2, [r4, #20]	@ zero_extendqisi2
 340 01ac 1343     		orrs	r3, r3, r2
 218:Generated_Source\PSoC6\pdl\drivers\peripheral\ctb/cy_ctb.c ****                              | (uint32_t) config->oa1CompBypass \
 341              		.loc 1 218 0 discriminator 4
 342 01ae 627D     		ldrb	r2, [r4, #21]	@ zero_extendqisi2
 343 01b0 1343     		orrs	r3, r3, r2
 219:Generated_Source\PSoC6\pdl\drivers\peripheral\ctb/cy_ctb.c ****                              | (uint32_t) config->oa1CompHyst \
 344              		.loc 1 219 0 discriminator 4
 345 01b2 A27D     		ldrb	r2, [r4, #22]	@ zero_extendqisi2
 346 01b4 1343     		orrs	r3, r3, r2
 220:Generated_Source\PSoC6\pdl\drivers\peripheral\ctb/cy_ctb.c ****                              | ((CY_CTB_MODE_OPAMP1X == config->oa1Mode) ? CY_CTB_OPAMP_BOOST_ENABL
 347              		.loc 1 220 0 discriminator 4
 348 01b6 11B9     		cbnz	r1, .L32
 349              		.loc 1 220 0 is_stmt 0
ARM GAS  C:\Users\gjl\AppData\Local\Temp\cckcOS93.s 			page 11


 350 01b8 4FF48052 		mov	r2, #4096
 351 01bc 00E0     		b	.L24
 352              	.L32:
 353 01be 0022     		movs	r2, #0
 354              	.L24:
 355              		.loc 1 220 0 discriminator 4
 356 01c0 1343     		orrs	r3, r3, r2
 213:Generated_Source\PSoC6\pdl\drivers\peripheral\ctb/cy_ctb.c ****                              | (uint32_t) config->oa1Mode \
 357              		.loc 1 213 0 is_stmt 1 discriminator 4
 358 01c2 AB60     		str	r3, [r5, #8]
 221:Generated_Source\PSoC6\pdl\drivers\peripheral\ctb/cy_ctb.c **** 
 222:Generated_Source\PSoC6\pdl\drivers\peripheral\ctb/cy_ctb.c ****         base->INTR_MASK = (config->oa0CompIntrEn ? CTBM_INTR_MASK_COMP0_MASK_Msk : CY_CTB_DEINIT) \
 359              		.loc 1 222 0 discriminator 4
 360 01c4 637B     		ldrb	r3, [r4, #13]	@ zero_extendqisi2
 361 01c6 0BB1     		cbz	r3, .L33
 362              		.loc 1 222 0 is_stmt 0
 363 01c8 0122     		movs	r2, #1
 364 01ca 00E0     		b	.L25
 365              	.L33:
 366 01cc 0022     		movs	r2, #0
 367              	.L25:
 223:Generated_Source\PSoC6\pdl\drivers\peripheral\ctb/cy_ctb.c ****                           | (config->oa1CompIntrEn ? CTBM_INTR_MASK_COMP1_MASK_Msk : CY_CTB_DEINIT)
 368              		.loc 1 223 0 is_stmt 1
 369 01ce E37D     		ldrb	r3, [r4, #23]	@ zero_extendqisi2
 370 01d0 0BB1     		cbz	r3, .L34
 371 01d2 0223     		movs	r3, #2
 372 01d4 00E0     		b	.L26
 373              	.L34:
 374 01d6 0023     		movs	r3, #0
 375              	.L26:
 376              		.loc 1 223 0 is_stmt 0 discriminator 4
 377 01d8 1343     		orrs	r3, r3, r2
 222:Generated_Source\PSoC6\pdl\drivers\peripheral\ctb/cy_ctb.c ****                           | (config->oa1CompIntrEn ? CTBM_INTR_MASK_COMP1_MASK_Msk : CY_CTB_DEINIT)
 378              		.loc 1 222 0 is_stmt 1 discriminator 4
 379 01da AB62     		str	r3, [r5, #40]
 224:Generated_Source\PSoC6\pdl\drivers\peripheral\ctb/cy_ctb.c **** 
 225:Generated_Source\PSoC6\pdl\drivers\peripheral\ctb/cy_ctb.c ****         base->OA0_COMP_TRIM = (uint32_t) ((config->oa0Mode == CY_CTB_MODE_OPAMP10X) ? CY_CTB_OPAMP_
 380              		.loc 1 225 0 discriminator 4
 381 01dc 6379     		ldrb	r3, [r4, #5]	@ zero_extendqisi2
 382 01de 082B     		cmp	r3, #8
 383 01e0 01D1     		bne	.L35
 384              		.loc 1 225 0 is_stmt 0
 385 01e2 0323     		movs	r3, #3
 386 01e4 00E0     		b	.L27
 387              	.L35:
 388 01e6 0123     		movs	r3, #1
 389              	.L27:
 390              		.loc 1 225 0 discriminator 4
 391 01e8 C5F8083F 		str	r3, [r5, #3848]
 226:Generated_Source\PSoC6\pdl\drivers\peripheral\ctb/cy_ctb.c ****         base->OA1_COMP_TRIM = (uint32_t) ((config->oa1Mode == CY_CTB_MODE_OPAMP10X) ? CY_CTB_OPAMP_
 392              		.loc 1 226 0 is_stmt 1 discriminator 4
 393 01ec E37B     		ldrb	r3, [r4, #15]	@ zero_extendqisi2
 394 01ee 082B     		cmp	r3, #8
 395 01f0 01D1     		bne	.L36
 396              		.loc 1 226 0 is_stmt 0
 397 01f2 0323     		movs	r3, #3
 398 01f4 00E0     		b	.L28
ARM GAS  C:\Users\gjl\AppData\Local\Temp\cckcOS93.s 			page 12


 399              	.L36:
 400 01f6 0123     		movs	r3, #1
 401              	.L28:
 402              		.loc 1 226 0 discriminator 4
 403 01f8 C5F8143F 		str	r3, [r5, #3860]
 227:Generated_Source\PSoC6\pdl\drivers\peripheral\ctb/cy_ctb.c **** 
 228:Generated_Source\PSoC6\pdl\drivers\peripheral\ctb/cy_ctb.c ****         if (config->configRouting)
 404              		.loc 1 228 0 is_stmt 1 discriminator 4
 405 01fc 237E     		ldrb	r3, [r4, #24]	@ zero_extendqisi2
 406 01fe 73B1     		cbz	r3, .L37
 229:Generated_Source\PSoC6\pdl\drivers\peripheral\ctb/cy_ctb.c ****         {
 230:Generated_Source\PSoC6\pdl\drivers\peripheral\ctb/cy_ctb.c ****             base->OA0_SW = config->oa0SwitchCtrl;
 407              		.loc 1 230 0
 408 0200 E369     		ldr	r3, [r4, #28]
 409 0202 C5F88030 		str	r3, [r5, #128]
 231:Generated_Source\PSoC6\pdl\drivers\peripheral\ctb/cy_ctb.c ****             base->OA1_SW = config->oa1SwitchCtrl;
 410              		.loc 1 231 0
 411 0206 236A     		ldr	r3, [r4, #32]
 412 0208 C5F88830 		str	r3, [r5, #136]
 232:Generated_Source\PSoC6\pdl\drivers\peripheral\ctb/cy_ctb.c ****             base->CTD_SW = config->ctdSwitchCtrl;
 413              		.loc 1 232 0
 414 020c 636A     		ldr	r3, [r4, #36]
 415 020e C5F8A030 		str	r3, [r5, #160]
 233:Generated_Source\PSoC6\pdl\drivers\peripheral\ctb/cy_ctb.c ****         }
 234:Generated_Source\PSoC6\pdl\drivers\peripheral\ctb/cy_ctb.c **** 
 235:Generated_Source\PSoC6\pdl\drivers\peripheral\ctb/cy_ctb.c ****         result = CY_CTB_SUCCESS;
 416              		.loc 1 235 0
 417 0212 0020     		movs	r0, #0
 418 0214 38BD     		pop	{r3, r4, r5, pc}
 419              	.LVL23:
 420              	.L29:
 174:Generated_Source\PSoC6\pdl\drivers\peripheral\ctb/cy_ctb.c ****     }
 421              		.loc 1 174 0
 422 0216 0648     		ldr	r0, .L39+12
 423 0218 38BD     		pop	{r3, r4, r5, pc}
 424              	.LVL24:
 425              	.L30:
 426 021a 0548     		ldr	r0, .L39+12
 427 021c 38BD     		pop	{r3, r4, r5, pc}
 428              	.LVL25:
 429              	.L37:
 430              		.loc 1 235 0
 431 021e 0020     		movs	r0, #0
 432              	.LVL26:
 236:Generated_Source\PSoC6\pdl\drivers\peripheral\ctb/cy_ctb.c ****     }
 237:Generated_Source\PSoC6\pdl\drivers\peripheral\ctb/cy_ctb.c **** 
 238:Generated_Source\PSoC6\pdl\drivers\peripheral\ctb/cy_ctb.c ****     return result;
 239:Generated_Source\PSoC6\pdl\drivers\peripheral\ctb/cy_ctb.c **** }
 433              		.loc 1 239 0
 434 0220 38BD     		pop	{r3, r4, r5, pc}
 435              	.LVL27:
 436              	.L40:
 437 0222 00BF     		.align	2
 438              	.L39:
 439 0224 00000000 		.word	.LC0
 440 0228 F2BEDBFF 		.word	-2375950
 441 022c 6CBED3FF 		.word	-2900372
ARM GAS  C:\Users\gjl\AppData\Local\Temp\cckcOS93.s 			page 13


 442 0230 01002E00 		.word	3014657
 443              		.cfi_endproc
 444              	.LFE182:
 445              		.size	Cy_CTB_Init, .-Cy_CTB_Init
 446              		.section	.text.Cy_CTB_OpampInit,"ax",%progbits
 447              		.align	2
 448              		.global	Cy_CTB_OpampInit
 449              		.thumb
 450              		.thumb_func
 451              		.type	Cy_CTB_OpampInit, %function
 452              	Cy_CTB_OpampInit:
 453              	.LFB183:
 240:Generated_Source\PSoC6\pdl\drivers\peripheral\ctb/cy_ctb.c **** 
 241:Generated_Source\PSoC6\pdl\drivers\peripheral\ctb/cy_ctb.c **** /*******************************************************************************
 242:Generated_Source\PSoC6\pdl\drivers\peripheral\ctb/cy_ctb.c **** * Function Name: Cy_CTB_OpampInit
 243:Generated_Source\PSoC6\pdl\drivers\peripheral\ctb/cy_ctb.c **** ****************************************************************************//**
 244:Generated_Source\PSoC6\pdl\drivers\peripheral\ctb/cy_ctb.c **** *
 245:Generated_Source\PSoC6\pdl\drivers\peripheral\ctb/cy_ctb.c **** * Initialize each opamp separately without impacting analog routing.
 246:Generated_Source\PSoC6\pdl\drivers\peripheral\ctb/cy_ctb.c **** * Intended for use by automatic analog routing and configuration tools
 247:Generated_Source\PSoC6\pdl\drivers\peripheral\ctb/cy_ctb.c **** * to configure each opamp without having to integrate the settings with
 248:Generated_Source\PSoC6\pdl\drivers\peripheral\ctb/cy_ctb.c **** * those of the other opamp first.
 249:Generated_Source\PSoC6\pdl\drivers\peripheral\ctb/cy_ctb.c **** *
 250:Generated_Source\PSoC6\pdl\drivers\peripheral\ctb/cy_ctb.c **** * Can also be used to configure both opamps to have the same settings.
 251:Generated_Source\PSoC6\pdl\drivers\peripheral\ctb/cy_ctb.c **** *
 252:Generated_Source\PSoC6\pdl\drivers\peripheral\ctb/cy_ctb.c **** * \param base
 253:Generated_Source\PSoC6\pdl\drivers\peripheral\ctb/cy_ctb.c **** * Pointer to structure describing registers
 254:Generated_Source\PSoC6\pdl\drivers\peripheral\ctb/cy_ctb.c **** *
 255:Generated_Source\PSoC6\pdl\drivers\peripheral\ctb/cy_ctb.c **** * \param opampNum
 256:Generated_Source\PSoC6\pdl\drivers\peripheral\ctb/cy_ctb.c **** * \ref CY_CTB_OPAMP_0, \ref CY_CTB_OPAMP_1, or \ref CY_CTB_OPAMP_BOTH
 257:Generated_Source\PSoC6\pdl\drivers\peripheral\ctb/cy_ctb.c **** *
 258:Generated_Source\PSoC6\pdl\drivers\peripheral\ctb/cy_ctb.c **** * \param config
 259:Generated_Source\PSoC6\pdl\drivers\peripheral\ctb/cy_ctb.c **** * Pointer to structure containing configuration data
 260:Generated_Source\PSoC6\pdl\drivers\peripheral\ctb/cy_ctb.c **** *
 261:Generated_Source\PSoC6\pdl\drivers\peripheral\ctb/cy_ctb.c **** * \return
 262:Generated_Source\PSoC6\pdl\drivers\peripheral\ctb/cy_ctb.c **** * Status of initialization, \ref CY_CTB_SUCCESS or \ref CY_CTB_BAD_PARAM
 263:Generated_Source\PSoC6\pdl\drivers\peripheral\ctb/cy_ctb.c **** *
 264:Generated_Source\PSoC6\pdl\drivers\peripheral\ctb/cy_ctb.c **** * \funcusage
 265:Generated_Source\PSoC6\pdl\drivers\peripheral\ctb/cy_ctb.c **** *
 266:Generated_Source\PSoC6\pdl\drivers\peripheral\ctb/cy_ctb.c **** * \snippet ctb_sut_01.cydsn/main_cm0p.c SNIPPET_OPAMPINIT
 267:Generated_Source\PSoC6\pdl\drivers\peripheral\ctb/cy_ctb.c **** *
 268:Generated_Source\PSoC6\pdl\drivers\peripheral\ctb/cy_ctb.c **** *******************************************************************************/
 269:Generated_Source\PSoC6\pdl\drivers\peripheral\ctb/cy_ctb.c **** cy_en_ctb_status_t Cy_CTB_OpampInit(CTBM_Type *base, cy_en_ctb_opamp_sel_t opampNum, const cy_stc_c
 270:Generated_Source\PSoC6\pdl\drivers\peripheral\ctb/cy_ctb.c **** {
 454              		.loc 1 270 0
 455              		.cfi_startproc
 456              		@ args = 0, pretend = 0, frame = 0
 457              		@ frame_needed = 0, uses_anonymous_args = 0
 458              	.LVL28:
 459 0000 70B5     		push	{r4, r5, r6, lr}
 460              		.cfi_def_cfa_offset 16
 461              		.cfi_offset 4, -16
 462              		.cfi_offset 5, -12
 463              		.cfi_offset 6, -8
 464              		.cfi_offset 14, -4
 465 0002 0D46     		mov	r5, r1
 466 0004 1446     		mov	r4, r2
 271:Generated_Source\PSoC6\pdl\drivers\peripheral\ctb/cy_ctb.c ****     CY_ASSERT_L1(NULL != base);
ARM GAS  C:\Users\gjl\AppData\Local\Temp\cckcOS93.s 			page 14


 467              		.loc 1 271 0
 468 0006 0646     		mov	r6, r0
 469 0008 20B9     		cbnz	r0, .L42
 470              		.loc 1 271 0 is_stmt 0 discriminator 1
 471 000a 40F20F11 		movw	r1, #271
 472              	.LVL29:
 473 000e 5848     		ldr	r0, .L70
 474              	.LVL30:
 475 0010 FFF7FEFF 		bl	Cy_SysLib_AssertFailed
 476              	.LVL31:
 477              	.L42:
 272:Generated_Source\PSoC6\pdl\drivers\peripheral\ctb/cy_ctb.c ****     CY_ASSERT_L1(NULL != config);
 478              		.loc 1 272 0 is_stmt 1
 479 0014 24B9     		cbnz	r4, .L43
 480              		.loc 1 272 0 is_stmt 0 discriminator 1
 481 0016 4FF48871 		mov	r1, #272
 482 001a 5548     		ldr	r0, .L70
 483 001c FFF7FEFF 		bl	Cy_SysLib_AssertFailed
 484              	.LVL32:
 485              	.L43:
 273:Generated_Source\PSoC6\pdl\drivers\peripheral\ctb/cy_ctb.c **** 
 274:Generated_Source\PSoC6\pdl\drivers\peripheral\ctb/cy_ctb.c ****     cy_en_ctb_status_t result;
 275:Generated_Source\PSoC6\pdl\drivers\peripheral\ctb/cy_ctb.c ****     uint32_t oaResCtrl;
 276:Generated_Source\PSoC6\pdl\drivers\peripheral\ctb/cy_ctb.c **** 
 277:Generated_Source\PSoC6\pdl\drivers\peripheral\ctb/cy_ctb.c ****     if ((NULL == base) || (NULL == config))
 486              		.loc 1 277 0 is_stmt 1
 487 0020 002E     		cmp	r6, #0
 488 0022 00F09F80 		beq	.L61
 489              		.loc 1 277 0 is_stmt 0 discriminator 1
 490 0026 002C     		cmp	r4, #0
 491 0028 00F09E80 		beq	.L62
 278:Generated_Source\PSoC6\pdl\drivers\peripheral\ctb/cy_ctb.c ****     {
 279:Generated_Source\PSoC6\pdl\drivers\peripheral\ctb/cy_ctb.c ****        result = CY_CTB_BAD_PARAM;
 280:Generated_Source\PSoC6\pdl\drivers\peripheral\ctb/cy_ctb.c ****     }
 281:Generated_Source\PSoC6\pdl\drivers\peripheral\ctb/cy_ctb.c ****     else
 282:Generated_Source\PSoC6\pdl\drivers\peripheral\ctb/cy_ctb.c ****     {
 283:Generated_Source\PSoC6\pdl\drivers\peripheral\ctb/cy_ctb.c ****         CY_ASSERT_L3(CY_CTB_OPAMPNUM(opampNum));
 492              		.loc 1 283 0 is_stmt 1
 493 002c 6B1E     		subs	r3, r5, #1
 494 002e DBB2     		uxtb	r3, r3
 495 0030 022B     		cmp	r3, #2
 496 0032 04D9     		bls	.L45
 497              		.loc 1 283 0 is_stmt 0 discriminator 1
 498 0034 40F21B11 		movw	r1, #283
 499 0038 4D48     		ldr	r0, .L70
 500 003a FFF7FEFF 		bl	Cy_SysLib_AssertFailed
 501              	.LVL33:
 502              	.L45:
 284:Generated_Source\PSoC6\pdl\drivers\peripheral\ctb/cy_ctb.c ****         CY_ASSERT_L3(CY_CTB_DEEPSLEEP(config->deepSleep));
 503              		.loc 1 284 0 is_stmt 1
 504 003e 2368     		ldr	r3, [r4]
 505 0040 3BB1     		cbz	r3, .L46
 506              		.loc 1 284 0 is_stmt 0 discriminator 1
 507 0042 B3F1804F 		cmp	r3, #1073741824
 508 0046 04D0     		beq	.L46
 509              		.loc 1 284 0 discriminator 2
 510 0048 4FF48E71 		mov	r1, #284
ARM GAS  C:\Users\gjl\AppData\Local\Temp\cckcOS93.s 			page 15


 511 004c 4848     		ldr	r0, .L70
 512 004e FFF7FEFF 		bl	Cy_SysLib_AssertFailed
 513              	.LVL34:
 514              	.L46:
 285:Generated_Source\PSoC6\pdl\drivers\peripheral\ctb/cy_ctb.c ****         CY_ASSERT_L3(CY_CTB_OAPOWER(config->oaPower));
 515              		.loc 1 285 0 is_stmt 1
 516 0052 2379     		ldrb	r3, [r4, #4]	@ zero_extendqisi2
 517 0054 032B     		cmp	r3, #3
 518 0056 04D9     		bls	.L47
 519              		.loc 1 285 0 is_stmt 0 discriminator 1
 520 0058 40F21D11 		movw	r1, #285
 521 005c 4448     		ldr	r0, .L70
 522 005e FFF7FEFF 		bl	Cy_SysLib_AssertFailed
 523              	.LVL35:
 524              	.L47:
 286:Generated_Source\PSoC6\pdl\drivers\peripheral\ctb/cy_ctb.c ****         CY_ASSERT_L3(CY_CTB_OAMODE(config->oaMode));
 525              		.loc 1 286 0 is_stmt 1
 526 0062 6379     		ldrb	r3, [r4, #5]	@ zero_extendqisi2
 527 0064 43B1     		cbz	r3, .L48
 528              		.loc 1 286 0 is_stmt 0 discriminator 1
 529 0066 082B     		cmp	r3, #8
 530 0068 06D0     		beq	.L48
 531              		.loc 1 286 0 discriminator 2
 532 006a 102B     		cmp	r3, #16
 533 006c 04D0     		beq	.L48
 534              		.loc 1 286 0 discriminator 3
 535 006e 4FF48F71 		mov	r1, #286
 536 0072 3F48     		ldr	r0, .L70
 537 0074 FFF7FEFF 		bl	Cy_SysLib_AssertFailed
 538              	.LVL36:
 539              	.L48:
 287:Generated_Source\PSoC6\pdl\drivers\peripheral\ctb/cy_ctb.c ****         CY_ASSERT_L3(CY_CTB_OAPUMP(config->oaPump));
 540              		.loc 1 287 0 is_stmt 1
 541 0078 E388     		ldrh	r3, [r4, #6]
 542 007a 3BB1     		cbz	r3, .L49
 543              		.loc 1 287 0 is_stmt 0 discriminator 1
 544 007c B3F5006F 		cmp	r3, #2048
 545 0080 04D0     		beq	.L49
 546              		.loc 1 287 0 discriminator 2
 547 0082 40F21F11 		movw	r1, #287
 548 0086 3A48     		ldr	r0, .L70
 549 0088 FFF7FEFF 		bl	Cy_SysLib_AssertFailed
 550              	.LVL37:
 551              	.L49:
 288:Generated_Source\PSoC6\pdl\drivers\peripheral\ctb/cy_ctb.c ****         CY_ASSERT_L3(CY_CTB_COMPEDGE(config->oaCompEdge));
 552              		.loc 1 288 0 is_stmt 1
 553 008c 2389     		ldrh	r3, [r4, #8]
 554 008e 6BB1     		cbz	r3, .L50
 555              		.loc 1 288 0 is_stmt 0 discriminator 1
 556 0090 B3F5807F 		cmp	r3, #256
 557 0094 0AD0     		beq	.L50
 558              		.loc 1 288 0 discriminator 2
 559 0096 B3F5007F 		cmp	r3, #512
 560 009a 07D0     		beq	.L50
 561              		.loc 1 288 0 discriminator 3
 562 009c B3F5407F 		cmp	r3, #768
 563 00a0 04D0     		beq	.L50
ARM GAS  C:\Users\gjl\AppData\Local\Temp\cckcOS93.s 			page 16


 564              		.loc 1 288 0 discriminator 4
 565 00a2 4FF49071 		mov	r1, #288
 566 00a6 3248     		ldr	r0, .L70
 567 00a8 FFF7FEFF 		bl	Cy_SysLib_AssertFailed
 568              	.LVL38:
 569              	.L50:
 289:Generated_Source\PSoC6\pdl\drivers\peripheral\ctb/cy_ctb.c ****         CY_ASSERT_L3(CY_CTB_COMPLEVEL(config->oaCompLevel));
 570              		.loc 1 289 0 is_stmt 1
 571 00ac A37A     		ldrb	r3, [r4, #10]	@ zero_extendqisi2
 572 00ae 33B1     		cbz	r3, .L51
 573              		.loc 1 289 0 is_stmt 0 discriminator 1
 574 00b0 802B     		cmp	r3, #128
 575 00b2 04D0     		beq	.L51
 576              		.loc 1 289 0 discriminator 2
 577 00b4 40F22111 		movw	r1, #289
 578 00b8 2D48     		ldr	r0, .L70
 579 00ba FFF7FEFF 		bl	Cy_SysLib_AssertFailed
 580              	.LVL39:
 581              	.L51:
 290:Generated_Source\PSoC6\pdl\drivers\peripheral\ctb/cy_ctb.c ****         CY_ASSERT_L3(CY_CTB_COMPBYPASS(config->oaCompBypass));
 582              		.loc 1 290 0 is_stmt 1
 583 00be E37A     		ldrb	r3, [r4, #11]	@ zero_extendqisi2
 584 00c0 33B1     		cbz	r3, .L52
 585              		.loc 1 290 0 is_stmt 0 discriminator 1
 586 00c2 402B     		cmp	r3, #64
 587 00c4 04D0     		beq	.L52
 588              		.loc 1 290 0 discriminator 2
 589 00c6 4FF49171 		mov	r1, #290
 590 00ca 2948     		ldr	r0, .L70
 591 00cc FFF7FEFF 		bl	Cy_SysLib_AssertFailed
 592              	.LVL40:
 593              	.L52:
 291:Generated_Source\PSoC6\pdl\drivers\peripheral\ctb/cy_ctb.c ****         CY_ASSERT_L3(CY_CTB_COMPHYST(config->oaCompHyst));
 594              		.loc 1 291 0 is_stmt 1
 595 00d0 237B     		ldrb	r3, [r4, #12]	@ zero_extendqisi2
 596 00d2 33B1     		cbz	r3, .L53
 597              		.loc 1 291 0 is_stmt 0 discriminator 1
 598 00d4 202B     		cmp	r3, #32
 599 00d6 04D0     		beq	.L53
 600              		.loc 1 291 0 discriminator 2
 601 00d8 40F22311 		movw	r1, #291
 602 00dc 2448     		ldr	r0, .L70
 603 00de FFF7FEFF 		bl	Cy_SysLib_AssertFailed
 604              	.LVL41:
 605              	.L53:
 292:Generated_Source\PSoC6\pdl\drivers\peripheral\ctb/cy_ctb.c **** 
 293:Generated_Source\PSoC6\pdl\drivers\peripheral\ctb/cy_ctb.c ****         base->CTB_CTRL = (uint32_t) config->deepSleep;
 606              		.loc 1 293 0 is_stmt 1
 607 00e2 2368     		ldr	r3, [r4]
 608 00e4 3360     		str	r3, [r6]
 294:Generated_Source\PSoC6\pdl\drivers\peripheral\ctb/cy_ctb.c **** 
 295:Generated_Source\PSoC6\pdl\drivers\peripheral\ctb/cy_ctb.c ****         /* The two opamp control registers are symmetrical */
 296:Generated_Source\PSoC6\pdl\drivers\peripheral\ctb/cy_ctb.c ****         oaResCtrl = (uint32_t) config->oaPower \
 609              		.loc 1 296 0
 610 00e6 2279     		ldrb	r2, [r4, #4]	@ zero_extendqisi2
 297:Generated_Source\PSoC6\pdl\drivers\peripheral\ctb/cy_ctb.c ****                     | (uint32_t) config->oaMode \
 611              		.loc 1 297 0
ARM GAS  C:\Users\gjl\AppData\Local\Temp\cckcOS93.s 			page 17


 612 00e8 6179     		ldrb	r1, [r4, #5]	@ zero_extendqisi2
 613 00ea 0A43     		orrs	r2, r2, r1
 298:Generated_Source\PSoC6\pdl\drivers\peripheral\ctb/cy_ctb.c ****                     | (uint32_t) config->oaPump \
 614              		.loc 1 298 0
 615 00ec E388     		ldrh	r3, [r4, #6]
 616 00ee 1A43     		orrs	r2, r2, r3
 299:Generated_Source\PSoC6\pdl\drivers\peripheral\ctb/cy_ctb.c ****                     | (uint32_t) config->oaCompEdge \
 617              		.loc 1 299 0
 618 00f0 2389     		ldrh	r3, [r4, #8]
 619 00f2 1A43     		orrs	r2, r2, r3
 300:Generated_Source\PSoC6\pdl\drivers\peripheral\ctb/cy_ctb.c ****                     | (uint32_t) config->oaCompLevel \
 620              		.loc 1 300 0
 621 00f4 A37A     		ldrb	r3, [r4, #10]	@ zero_extendqisi2
 622 00f6 1A43     		orrs	r2, r2, r3
 301:Generated_Source\PSoC6\pdl\drivers\peripheral\ctb/cy_ctb.c ****                     | (uint32_t) config->oaCompBypass \
 623              		.loc 1 301 0
 624 00f8 E37A     		ldrb	r3, [r4, #11]	@ zero_extendqisi2
 625 00fa 1A43     		orrs	r2, r2, r3
 302:Generated_Source\PSoC6\pdl\drivers\peripheral\ctb/cy_ctb.c ****                     | (uint32_t) config->oaCompHyst \
 626              		.loc 1 302 0
 627 00fc 237B     		ldrb	r3, [r4, #12]	@ zero_extendqisi2
 628 00fe 1343     		orrs	r3, r3, r2
 303:Generated_Source\PSoC6\pdl\drivers\peripheral\ctb/cy_ctb.c ****                     | ((CY_CTB_MODE_OPAMP1X == config->oaMode) ? CY_CTB_OPAMP_BOOST_ENABLE : CY_CTB
 629              		.loc 1 303 0
 630 0100 11B9     		cbnz	r1, .L63
 631 0102 4FF48052 		mov	r2, #4096
 632 0106 00E0     		b	.L54
 633              	.L63:
 634 0108 0022     		movs	r2, #0
 635              	.L54:
 296:Generated_Source\PSoC6\pdl\drivers\peripheral\ctb/cy_ctb.c ****                     | (uint32_t) config->oaMode \
 636              		.loc 1 296 0
 637 010a 1343     		orrs	r3, r3, r2
 638              	.LVL42:
 304:Generated_Source\PSoC6\pdl\drivers\peripheral\ctb/cy_ctb.c **** 
 305:Generated_Source\PSoC6\pdl\drivers\peripheral\ctb/cy_ctb.c ****         if ((opampNum == CY_CTB_OPAMP_0) || (opampNum == CY_CTB_OPAMP_BOTH))
 639              		.loc 1 305 0
 640 010c 012D     		cmp	r5, #1
 641 010e 01D0     		beq	.L55
 642              		.loc 1 305 0 is_stmt 0 discriminator 1
 643 0110 032D     		cmp	r5, #3
 644 0112 10D1     		bne	.L56
 645              	.L55:
 306:Generated_Source\PSoC6\pdl\drivers\peripheral\ctb/cy_ctb.c ****         {
 307:Generated_Source\PSoC6\pdl\drivers\peripheral\ctb/cy_ctb.c ****             base->OA_RES0_CTRL = oaResCtrl;
 646              		.loc 1 307 0 is_stmt 1
 647 0114 7360     		str	r3, [r6, #4]
 308:Generated_Source\PSoC6\pdl\drivers\peripheral\ctb/cy_ctb.c ****             base->OA0_COMP_TRIM = (uint32_t) ((config->oaMode == CY_CTB_MODE_OPAMP10X) ? CY_CTB_OPA
 648              		.loc 1 308 0
 649 0116 6279     		ldrb	r2, [r4, #5]	@ zero_extendqisi2
 650 0118 082A     		cmp	r2, #8
 651 011a 01D1     		bne	.L64
 652 011c 0322     		movs	r2, #3
 653 011e 00E0     		b	.L57
 654              	.L64:
 655 0120 0122     		movs	r2, #1
 656              	.L57:
ARM GAS  C:\Users\gjl\AppData\Local\Temp\cckcOS93.s 			page 18


 657              		.loc 1 308 0 is_stmt 0 discriminator 4
 658 0122 C6F8082F 		str	r2, [r6, #3848]
 309:Generated_Source\PSoC6\pdl\drivers\peripheral\ctb/cy_ctb.c **** 
 310:Generated_Source\PSoC6\pdl\drivers\peripheral\ctb/cy_ctb.c ****             /* The INTR_MASK register is shared between the two opamps */
 311:Generated_Source\PSoC6\pdl\drivers\peripheral\ctb/cy_ctb.c ****             base->INTR_MASK |= (config->oaCompIntrEn ? CTBM_INTR_MASK_COMP0_MASK_Msk : CY_CTB_DEINI
 659              		.loc 1 311 0 is_stmt 1 discriminator 4
 660 0126 B26A     		ldr	r2, [r6, #40]
 661 0128 617B     		ldrb	r1, [r4, #13]	@ zero_extendqisi2
 662 012a 09B1     		cbz	r1, .L65
 663              		.loc 1 311 0 is_stmt 0
 664 012c 0121     		movs	r1, #1
 665 012e 00E0     		b	.L58
 666              	.L65:
 667 0130 0021     		movs	r1, #0
 668              	.L58:
 669              		.loc 1 311 0 discriminator 4
 670 0132 0A43     		orrs	r2, r2, r1
 671 0134 B262     		str	r2, [r6, #40]
 672              	.L56:
 312:Generated_Source\PSoC6\pdl\drivers\peripheral\ctb/cy_ctb.c ****         }
 313:Generated_Source\PSoC6\pdl\drivers\peripheral\ctb/cy_ctb.c **** 
 314:Generated_Source\PSoC6\pdl\drivers\peripheral\ctb/cy_ctb.c ****         if ((opampNum == CY_CTB_OPAMP_1) || (opampNum == CY_CTB_OPAMP_BOTH))
 673              		.loc 1 314 0 is_stmt 1
 674 0136 023D     		subs	r5, r5, #2
 675 0138 EDB2     		uxtb	r5, r5
 676 013a 012D     		cmp	r5, #1
 677 013c 16D8     		bhi	.L66
 315:Generated_Source\PSoC6\pdl\drivers\peripheral\ctb/cy_ctb.c ****         {
 316:Generated_Source\PSoC6\pdl\drivers\peripheral\ctb/cy_ctb.c ****             base->OA_RES1_CTRL = oaResCtrl;
 678              		.loc 1 316 0
 679 013e B360     		str	r3, [r6, #8]
 317:Generated_Source\PSoC6\pdl\drivers\peripheral\ctb/cy_ctb.c ****             base->OA1_COMP_TRIM = (uint32_t) ((config->oaMode == CY_CTB_MODE_OPAMP10X) ? CY_CTB_OPA
 680              		.loc 1 317 0
 681 0140 6379     		ldrb	r3, [r4, #5]	@ zero_extendqisi2
 682              	.LVL43:
 683 0142 082B     		cmp	r3, #8
 684 0144 01D1     		bne	.L67
 685 0146 0323     		movs	r3, #3
 686 0148 00E0     		b	.L59
 687              	.L67:
 688 014a 0123     		movs	r3, #1
 689              	.L59:
 690              		.loc 1 317 0 is_stmt 0 discriminator 4
 691 014c C6F8143F 		str	r3, [r6, #3860]
 692              	.LVL44:
 318:Generated_Source\PSoC6\pdl\drivers\peripheral\ctb/cy_ctb.c **** 
 319:Generated_Source\PSoC6\pdl\drivers\peripheral\ctb/cy_ctb.c ****             /* The INTR_MASK register is shared between the two opamps */
 320:Generated_Source\PSoC6\pdl\drivers\peripheral\ctb/cy_ctb.c ****             base->INTR_MASK |= (config->oaCompIntrEn ? CTBM_INTR_MASK_COMP1_MASK_Msk : CY_CTB_DEINI
 693              		.loc 1 320 0 is_stmt 1 discriminator 4
 694 0150 B36A     		ldr	r3, [r6, #40]
 695 0152 627B     		ldrb	r2, [r4, #13]	@ zero_extendqisi2
 696 0154 0AB1     		cbz	r2, .L68
 697              		.loc 1 320 0 is_stmt 0
 698 0156 0222     		movs	r2, #2
 699 0158 00E0     		b	.L60
 700              	.L68:
 701 015a 0022     		movs	r2, #0
ARM GAS  C:\Users\gjl\AppData\Local\Temp\cckcOS93.s 			page 19


 702              	.L60:
 703              		.loc 1 320 0 discriminator 4
 704 015c 1343     		orrs	r3, r3, r2
 705 015e B362     		str	r3, [r6, #40]
 321:Generated_Source\PSoC6\pdl\drivers\peripheral\ctb/cy_ctb.c ****         }
 322:Generated_Source\PSoC6\pdl\drivers\peripheral\ctb/cy_ctb.c **** 
 323:Generated_Source\PSoC6\pdl\drivers\peripheral\ctb/cy_ctb.c ****         result = CY_CTB_SUCCESS;
 706              		.loc 1 323 0 is_stmt 1 discriminator 4
 707 0160 0020     		movs	r0, #0
 708 0162 70BD     		pop	{r4, r5, r6, pc}
 709              	.LVL45:
 710              	.L61:
 279:Generated_Source\PSoC6\pdl\drivers\peripheral\ctb/cy_ctb.c ****     }
 711              		.loc 1 279 0
 712 0164 0348     		ldr	r0, .L70+4
 713 0166 70BD     		pop	{r4, r5, r6, pc}
 714              	.LVL46:
 715              	.L62:
 716 0168 0248     		ldr	r0, .L70+4
 717 016a 70BD     		pop	{r4, r5, r6, pc}
 718              	.LVL47:
 719              	.L66:
 720              		.loc 1 323 0
 721 016c 0020     		movs	r0, #0
 722              	.LVL48:
 324:Generated_Source\PSoC6\pdl\drivers\peripheral\ctb/cy_ctb.c ****     }
 325:Generated_Source\PSoC6\pdl\drivers\peripheral\ctb/cy_ctb.c **** 
 326:Generated_Source\PSoC6\pdl\drivers\peripheral\ctb/cy_ctb.c ****     return result;
 327:Generated_Source\PSoC6\pdl\drivers\peripheral\ctb/cy_ctb.c **** }
 723              		.loc 1 327 0
 724 016e 70BD     		pop	{r4, r5, r6, pc}
 725              	.LVL49:
 726              	.L71:
 727              		.align	2
 728              	.L70:
 729 0170 00000000 		.word	.LC0
 730 0174 01002E00 		.word	3014657
 731              		.cfi_endproc
 732              	.LFE183:
 733              		.size	Cy_CTB_OpampInit, .-Cy_CTB_OpampInit
 734              		.section	.text.Cy_CTB_DeInit,"ax",%progbits
 735              		.align	2
 736              		.global	Cy_CTB_DeInit
 737              		.thumb
 738              		.thumb_func
 739              		.type	Cy_CTB_DeInit, %function
 740              	Cy_CTB_DeInit:
 741              	.LFB184:
 328:Generated_Source\PSoC6\pdl\drivers\peripheral\ctb/cy_ctb.c **** 
 329:Generated_Source\PSoC6\pdl\drivers\peripheral\ctb/cy_ctb.c **** /*******************************************************************************
 330:Generated_Source\PSoC6\pdl\drivers\peripheral\ctb/cy_ctb.c **** * Function Name: Cy_CTB_DeInit
 331:Generated_Source\PSoC6\pdl\drivers\peripheral\ctb/cy_ctb.c **** ****************************************************************************//**
 332:Generated_Source\PSoC6\pdl\drivers\peripheral\ctb/cy_ctb.c **** *
 333:Generated_Source\PSoC6\pdl\drivers\peripheral\ctb/cy_ctb.c **** * Reset CTB registers back to power on reset defaults.
 334:Generated_Source\PSoC6\pdl\drivers\peripheral\ctb/cy_ctb.c **** *
 335:Generated_Source\PSoC6\pdl\drivers\peripheral\ctb/cy_ctb.c **** * \param base
 336:Generated_Source\PSoC6\pdl\drivers\peripheral\ctb/cy_ctb.c **** * Pointer to structure describing registers
ARM GAS  C:\Users\gjl\AppData\Local\Temp\cckcOS93.s 			page 20


 337:Generated_Source\PSoC6\pdl\drivers\peripheral\ctb/cy_ctb.c **** *
 338:Generated_Source\PSoC6\pdl\drivers\peripheral\ctb/cy_ctb.c **** * \param deInitRouting
 339:Generated_Source\PSoC6\pdl\drivers\peripheral\ctb/cy_ctb.c **** * If true, all analog routing switches are reset to their default state.
 340:Generated_Source\PSoC6\pdl\drivers\peripheral\ctb/cy_ctb.c **** * If false, analog switch registers are untouched.
 341:Generated_Source\PSoC6\pdl\drivers\peripheral\ctb/cy_ctb.c **** *
 342:Generated_Source\PSoC6\pdl\drivers\peripheral\ctb/cy_ctb.c **** * \return
 343:Generated_Source\PSoC6\pdl\drivers\peripheral\ctb/cy_ctb.c **** * Status of initialization, \ref CY_CTB_SUCCESS or \ref CY_CTB_BAD_PARAM
 344:Generated_Source\PSoC6\pdl\drivers\peripheral\ctb/cy_ctb.c **** *
 345:Generated_Source\PSoC6\pdl\drivers\peripheral\ctb/cy_ctb.c **** *******************************************************************************/
 346:Generated_Source\PSoC6\pdl\drivers\peripheral\ctb/cy_ctb.c **** cy_en_ctb_status_t Cy_CTB_DeInit(CTBM_Type *base, bool deInitRouting)
 347:Generated_Source\PSoC6\pdl\drivers\peripheral\ctb/cy_ctb.c **** {
 742              		.loc 1 347 0
 743              		.cfi_startproc
 744              		@ args = 0, pretend = 0, frame = 0
 745              		@ frame_needed = 0, uses_anonymous_args = 0
 746              	.LVL50:
 747 0000 38B5     		push	{r3, r4, r5, lr}
 748              		.cfi_def_cfa_offset 16
 749              		.cfi_offset 3, -16
 750              		.cfi_offset 4, -12
 751              		.cfi_offset 5, -8
 752              		.cfi_offset 14, -4
 753 0002 0D46     		mov	r5, r1
 348:Generated_Source\PSoC6\pdl\drivers\peripheral\ctb/cy_ctb.c ****     CY_ASSERT_L1(NULL != base);
 754              		.loc 1 348 0
 755 0004 0446     		mov	r4, r0
 756 0006 20B9     		cbnz	r0, .L73
 757              		.loc 1 348 0 is_stmt 0 discriminator 1
 758 0008 4FF4AE71 		mov	r1, #348
 759              	.LVL51:
 760 000c 0C48     		ldr	r0, .L78
 761              	.LVL52:
 762 000e FFF7FEFF 		bl	Cy_SysLib_AssertFailed
 763              	.LVL53:
 764              	.L73:
 349:Generated_Source\PSoC6\pdl\drivers\peripheral\ctb/cy_ctb.c **** 
 350:Generated_Source\PSoC6\pdl\drivers\peripheral\ctb/cy_ctb.c ****     cy_en_ctb_status_t result;
 351:Generated_Source\PSoC6\pdl\drivers\peripheral\ctb/cy_ctb.c **** 
 352:Generated_Source\PSoC6\pdl\drivers\peripheral\ctb/cy_ctb.c ****     if (NULL == base)
 765              		.loc 1 352 0 is_stmt 1
 766 0012 8CB1     		cbz	r4, .L75
 353:Generated_Source\PSoC6\pdl\drivers\peripheral\ctb/cy_ctb.c ****     {
 354:Generated_Source\PSoC6\pdl\drivers\peripheral\ctb/cy_ctb.c ****         result = CY_CTB_BAD_PARAM;
 355:Generated_Source\PSoC6\pdl\drivers\peripheral\ctb/cy_ctb.c ****     }
 356:Generated_Source\PSoC6\pdl\drivers\peripheral\ctb/cy_ctb.c ****     else
 357:Generated_Source\PSoC6\pdl\drivers\peripheral\ctb/cy_ctb.c ****     {
 358:Generated_Source\PSoC6\pdl\drivers\peripheral\ctb/cy_ctb.c ****         base->CTB_CTRL          = CY_CTB_DEINIT;
 767              		.loc 1 358 0
 768 0014 0023     		movs	r3, #0
 769 0016 2360     		str	r3, [r4]
 359:Generated_Source\PSoC6\pdl\drivers\peripheral\ctb/cy_ctb.c ****         base->OA_RES0_CTRL      = CY_CTB_DEINIT;
 770              		.loc 1 359 0
 771 0018 6360     		str	r3, [r4, #4]
 360:Generated_Source\PSoC6\pdl\drivers\peripheral\ctb/cy_ctb.c ****         base->OA_RES1_CTRL      = CY_CTB_DEINIT;
 772              		.loc 1 360 0
 773 001a A360     		str	r3, [r4, #8]
 361:Generated_Source\PSoC6\pdl\drivers\peripheral\ctb/cy_ctb.c ****         base->INTR_MASK         = CY_CTB_DEINIT;
ARM GAS  C:\Users\gjl\AppData\Local\Temp\cckcOS93.s 			page 21


 774              		.loc 1 361 0
 775 001c A362     		str	r3, [r4, #40]
 362:Generated_Source\PSoC6\pdl\drivers\peripheral\ctb/cy_ctb.c **** 
 363:Generated_Source\PSoC6\pdl\drivers\peripheral\ctb/cy_ctb.c ****         if (deInitRouting)
 776              		.loc 1 363 0
 777 001e 6DB1     		cbz	r5, .L76
 364:Generated_Source\PSoC6\pdl\drivers\peripheral\ctb/cy_ctb.c ****         {
 365:Generated_Source\PSoC6\pdl\drivers\peripheral\ctb/cy_ctb.c ****             base->OA0_SW_CLEAR   = CY_CTB_DEINIT_OA0_SW;
 778              		.loc 1 365 0
 779 0020 084B     		ldr	r3, .L78+4
 780 0022 C4F88430 		str	r3, [r4, #132]
 366:Generated_Source\PSoC6\pdl\drivers\peripheral\ctb/cy_ctb.c ****             base->OA1_SW_CLEAR   = CY_CTB_DEINIT_OA1_SW;
 781              		.loc 1 366 0
 782 0026 084B     		ldr	r3, .L78+8
 783 0028 C4F88C30 		str	r3, [r4, #140]
 367:Generated_Source\PSoC6\pdl\drivers\peripheral\ctb/cy_ctb.c ****             base->CTD_SW_CLEAR   = CY_CTB_DEINIT_CTD_SW;
 784              		.loc 1 367 0
 785 002c 4FF23273 		movw	r3, #63282
 786 0030 C4F8A430 		str	r3, [r4, #164]
 368:Generated_Source\PSoC6\pdl\drivers\peripheral\ctb/cy_ctb.c ****         }
 369:Generated_Source\PSoC6\pdl\drivers\peripheral\ctb/cy_ctb.c **** 
 370:Generated_Source\PSoC6\pdl\drivers\peripheral\ctb/cy_ctb.c ****         result                  = CY_CTB_SUCCESS;
 787              		.loc 1 370 0
 788 0034 0020     		movs	r0, #0
 789 0036 38BD     		pop	{r3, r4, r5, pc}
 790              	.LVL54:
 791              	.L75:
 354:Generated_Source\PSoC6\pdl\drivers\peripheral\ctb/cy_ctb.c ****     }
 792              		.loc 1 354 0
 793 0038 0448     		ldr	r0, .L78+12
 794 003a 38BD     		pop	{r3, r4, r5, pc}
 795              	.LVL55:
 796              	.L76:
 797              		.loc 1 370 0
 798 003c 0020     		movs	r0, #0
 799              	.LVL56:
 371:Generated_Source\PSoC6\pdl\drivers\peripheral\ctb/cy_ctb.c ****     }
 372:Generated_Source\PSoC6\pdl\drivers\peripheral\ctb/cy_ctb.c **** 
 373:Generated_Source\PSoC6\pdl\drivers\peripheral\ctb/cy_ctb.c ****     return result;
 374:Generated_Source\PSoC6\pdl\drivers\peripheral\ctb/cy_ctb.c **** }
 800              		.loc 1 374 0
 801 003e 38BD     		pop	{r3, r4, r5, pc}
 802              	.LVL57:
 803              	.L79:
 804              		.align	2
 805              	.L78:
 806 0040 00000000 		.word	.LC0
 807 0044 0D412400 		.word	2375949
 808 0048 93412C00 		.word	2900371
 809 004c 01002E00 		.word	3014657
 810              		.cfi_endproc
 811              	.LFE184:
 812              		.size	Cy_CTB_DeInit, .-Cy_CTB_DeInit
 813              		.section	.text.Cy_CTB_FastInit,"ax",%progbits
 814              		.align	2
 815              		.global	Cy_CTB_FastInit
 816              		.thumb
ARM GAS  C:\Users\gjl\AppData\Local\Temp\cckcOS93.s 			page 22


 817              		.thumb_func
 818              		.type	Cy_CTB_FastInit, %function
 819              	Cy_CTB_FastInit:
 820              	.LFB185:
 375:Generated_Source\PSoC6\pdl\drivers\peripheral\ctb/cy_ctb.c **** 
 376:Generated_Source\PSoC6\pdl\drivers\peripheral\ctb/cy_ctb.c **** /*******************************************************************************
 377:Generated_Source\PSoC6\pdl\drivers\peripheral\ctb/cy_ctb.c **** * Function Name: Cy_CTB_FastInit
 378:Generated_Source\PSoC6\pdl\drivers\peripheral\ctb/cy_ctb.c **** ****************************************************************************//**
 379:Generated_Source\PSoC6\pdl\drivers\peripheral\ctb/cy_ctb.c **** *
 380:Generated_Source\PSoC6\pdl\drivers\peripheral\ctb/cy_ctb.c **** * Initialize each opamp of the CTB to one of the common use modes.
 381:Generated_Source\PSoC6\pdl\drivers\peripheral\ctb/cy_ctb.c **** *
 382:Generated_Source\PSoC6\pdl\drivers\peripheral\ctb/cy_ctb.c **** * This function provides a quick and easy method of configuring the CTB
 383:Generated_Source\PSoC6\pdl\drivers\peripheral\ctb/cy_ctb.c **** * using pre-defined configurations.
 384:Generated_Source\PSoC6\pdl\drivers\peripheral\ctb/cy_ctb.c **** * Only routing switches required for the selected mode are configured, leaving final input and outp
 385:Generated_Source\PSoC6\pdl\drivers\peripheral\ctb/cy_ctb.c **** * to the user.
 386:Generated_Source\PSoC6\pdl\drivers\peripheral\ctb/cy_ctb.c **** * Additional use modes that relate to the \ref group_ctdac "CTDAC"
 387:Generated_Source\PSoC6\pdl\drivers\peripheral\ctb/cy_ctb.c **** * are provided to support easy configuration of the CTDAC output buffer and input
 388:Generated_Source\PSoC6\pdl\drivers\peripheral\ctb/cy_ctb.c **** * reference buffer.
 389:Generated_Source\PSoC6\pdl\drivers\peripheral\ctb/cy_ctb.c **** *
 390:Generated_Source\PSoC6\pdl\drivers\peripheral\ctb/cy_ctb.c **** * The fast configuration structures define the opamp power, mode, and routing.
 391:Generated_Source\PSoC6\pdl\drivers\peripheral\ctb/cy_ctb.c **** * This function sets the other configuration options of the CTB to:
 392:Generated_Source\PSoC6\pdl\drivers\peripheral\ctb/cy_ctb.c **** *   - .deepSleep    = CY_CTB_DEEPSLEEP_DISABLE
 393:Generated_Source\PSoC6\pdl\drivers\peripheral\ctb/cy_ctb.c **** *   - .oaPump       = \ref CY_CTB_PUMP_ENABLE
 394:Generated_Source\PSoC6\pdl\drivers\peripheral\ctb/cy_ctb.c **** *   - .oaCompEdge   = \ref CY_CTB_COMP_EDGE_BOTH
 395:Generated_Source\PSoC6\pdl\drivers\peripheral\ctb/cy_ctb.c **** *   - .oaCompLevel  = \ref CY_CTB_COMP_DSI_TRIGGER_OUT_LEVEL
 396:Generated_Source\PSoC6\pdl\drivers\peripheral\ctb/cy_ctb.c **** *   - .oaCompBypass = \ref CY_CTB_COMP_BYPASS_SYNC
 397:Generated_Source\PSoC6\pdl\drivers\peripheral\ctb/cy_ctb.c **** *   - .oaCompHyst   = \ref CY_CTB_COMP_HYST_10MV
 398:Generated_Source\PSoC6\pdl\drivers\peripheral\ctb/cy_ctb.c **** *   - .oaCompIntrEn = true
 399:Generated_Source\PSoC6\pdl\drivers\peripheral\ctb/cy_ctb.c **** 
 400:Generated_Source\PSoC6\pdl\drivers\peripheral\ctb/cy_ctb.c **** * \param base
 401:Generated_Source\PSoC6\pdl\drivers\peripheral\ctb/cy_ctb.c **** * Pointer to structure describing registers
 402:Generated_Source\PSoC6\pdl\drivers\peripheral\ctb/cy_ctb.c **** *
 403:Generated_Source\PSoC6\pdl\drivers\peripheral\ctb/cy_ctb.c **** * \param config0
 404:Generated_Source\PSoC6\pdl\drivers\peripheral\ctb/cy_ctb.c **** * Pointer to structure containing configuration data for quick initialization
 405:Generated_Source\PSoC6\pdl\drivers\peripheral\ctb/cy_ctb.c **** * of Opamp0. Defined your own or use one of the provided structures:
 406:Generated_Source\PSoC6\pdl\drivers\peripheral\ctb/cy_ctb.c **** * - \ref Cy_CTB_Fast_Opamp0_Unused
 407:Generated_Source\PSoC6\pdl\drivers\peripheral\ctb/cy_ctb.c **** * - \ref Cy_CTB_Fast_Opamp0_Comp
 408:Generated_Source\PSoC6\pdl\drivers\peripheral\ctb/cy_ctb.c **** * - \ref Cy_CTB_Fast_Opamp0_Opamp1x
 409:Generated_Source\PSoC6\pdl\drivers\peripheral\ctb/cy_ctb.c **** * - \ref Cy_CTB_Fast_Opamp0_Opamp10x
 410:Generated_Source\PSoC6\pdl\drivers\peripheral\ctb/cy_ctb.c **** * - \ref Cy_CTB_Fast_Opamp0_Diffamp
 411:Generated_Source\PSoC6\pdl\drivers\peripheral\ctb/cy_ctb.c **** * - \ref Cy_CTB_Fast_Opamp0_Vdac_Out
 412:Generated_Source\PSoC6\pdl\drivers\peripheral\ctb/cy_ctb.c **** * - \ref Cy_CTB_Fast_Opamp0_Vdac_Out_SH
 413:Generated_Source\PSoC6\pdl\drivers\peripheral\ctb/cy_ctb.c **** *
 414:Generated_Source\PSoC6\pdl\drivers\peripheral\ctb/cy_ctb.c **** * \param config1
 415:Generated_Source\PSoC6\pdl\drivers\peripheral\ctb/cy_ctb.c **** * Pointer to structure containing configuration data for quick initialization
 416:Generated_Source\PSoC6\pdl\drivers\peripheral\ctb/cy_ctb.c **** * of Opamp1. Defined your own or use one of the provided structures:
 417:Generated_Source\PSoC6\pdl\drivers\peripheral\ctb/cy_ctb.c **** * - \ref Cy_CTB_Fast_Opamp1_Unused
 418:Generated_Source\PSoC6\pdl\drivers\peripheral\ctb/cy_ctb.c **** * - \ref Cy_CTB_Fast_Opamp1_Comp
 419:Generated_Source\PSoC6\pdl\drivers\peripheral\ctb/cy_ctb.c **** * - \ref Cy_CTB_Fast_Opamp1_Opamp1x
 420:Generated_Source\PSoC6\pdl\drivers\peripheral\ctb/cy_ctb.c **** * - \ref Cy_CTB_Fast_Opamp1_Opamp10x
 421:Generated_Source\PSoC6\pdl\drivers\peripheral\ctb/cy_ctb.c **** * - \ref Cy_CTB_Fast_Opamp1_Diffamp
 422:Generated_Source\PSoC6\pdl\drivers\peripheral\ctb/cy_ctb.c **** * - \ref Cy_CTB_Fast_Opamp1_Vdac_Ref_Aref
 423:Generated_Source\PSoC6\pdl\drivers\peripheral\ctb/cy_ctb.c **** * - \ref Cy_CTB_Fast_Opamp1_Vdac_Ref_Pin5
 424:Generated_Source\PSoC6\pdl\drivers\peripheral\ctb/cy_ctb.c **** *
 425:Generated_Source\PSoC6\pdl\drivers\peripheral\ctb/cy_ctb.c **** * \return
 426:Generated_Source\PSoC6\pdl\drivers\peripheral\ctb/cy_ctb.c **** * Status of initialization, \ref CY_CTB_SUCCESS or \ref CY_CTB_BAD_PARAM
 427:Generated_Source\PSoC6\pdl\drivers\peripheral\ctb/cy_ctb.c **** *
ARM GAS  C:\Users\gjl\AppData\Local\Temp\cckcOS93.s 			page 23


 428:Generated_Source\PSoC6\pdl\drivers\peripheral\ctb/cy_ctb.c **** * \funcusage
 429:Generated_Source\PSoC6\pdl\drivers\peripheral\ctb/cy_ctb.c **** *
 430:Generated_Source\PSoC6\pdl\drivers\peripheral\ctb/cy_ctb.c **** * \snippet ctb_sut_01.cydsn/main_cm0p.c SNIPPET_FASTINIT
 431:Generated_Source\PSoC6\pdl\drivers\peripheral\ctb/cy_ctb.c **** *
 432:Generated_Source\PSoC6\pdl\drivers\peripheral\ctb/cy_ctb.c **** *******************************************************************************/
 433:Generated_Source\PSoC6\pdl\drivers\peripheral\ctb/cy_ctb.c **** cy_en_ctb_status_t Cy_CTB_FastInit(CTBM_Type *base, const cy_stc_ctb_fast_config_oa0_t *config0, co
 434:Generated_Source\PSoC6\pdl\drivers\peripheral\ctb/cy_ctb.c **** {
 821              		.loc 1 434 0
 822              		.cfi_startproc
 823              		@ args = 0, pretend = 0, frame = 0
 824              		@ frame_needed = 0, uses_anonymous_args = 0
 825              	.LVL58:
 826 0000 70B5     		push	{r4, r5, r6, lr}
 827              		.cfi_def_cfa_offset 16
 828              		.cfi_offset 4, -16
 829              		.cfi_offset 5, -12
 830              		.cfi_offset 6, -8
 831              		.cfi_offset 14, -4
 832 0002 0C46     		mov	r4, r1
 833 0004 1546     		mov	r5, r2
 435:Generated_Source\PSoC6\pdl\drivers\peripheral\ctb/cy_ctb.c ****     CY_ASSERT_L1(NULL != base);
 834              		.loc 1 435 0
 835 0006 0646     		mov	r6, r0
 836 0008 20B9     		cbnz	r0, .L81
 837              		.loc 1 435 0 is_stmt 0 discriminator 1
 838 000a 40F2B311 		movw	r1, #435
 839              	.LVL59:
 840 000e 5248     		ldr	r0, .L105
 841              	.LVL60:
 842 0010 FFF7FEFF 		bl	Cy_SysLib_AssertFailed
 843              	.LVL61:
 844              	.L81:
 436:Generated_Source\PSoC6\pdl\drivers\peripheral\ctb/cy_ctb.c ****     CY_ASSERT_L1(NULL != config0);
 845              		.loc 1 436 0 is_stmt 1
 846 0014 24B9     		cbnz	r4, .L82
 847              		.loc 1 436 0 is_stmt 0 discriminator 1
 848 0016 4FF4DA71 		mov	r1, #436
 849 001a 4F48     		ldr	r0, .L105
 850 001c FFF7FEFF 		bl	Cy_SysLib_AssertFailed
 851              	.LVL62:
 852              	.L82:
 437:Generated_Source\PSoC6\pdl\drivers\peripheral\ctb/cy_ctb.c ****     CY_ASSERT_L1(NULL != config1);
 853              		.loc 1 437 0 is_stmt 1
 854 0020 25B9     		cbnz	r5, .L83
 855              		.loc 1 437 0 is_stmt 0 discriminator 1
 856 0022 40F2B511 		movw	r1, #437
 857 0026 4C48     		ldr	r0, .L105
 858 0028 FFF7FEFF 		bl	Cy_SysLib_AssertFailed
 859              	.LVL63:
 860              	.L83:
 438:Generated_Source\PSoC6\pdl\drivers\peripheral\ctb/cy_ctb.c **** 
 439:Generated_Source\PSoC6\pdl\drivers\peripheral\ctb/cy_ctb.c ****     cy_en_ctb_status_t result;
 440:Generated_Source\PSoC6\pdl\drivers\peripheral\ctb/cy_ctb.c **** 
 441:Generated_Source\PSoC6\pdl\drivers\peripheral\ctb/cy_ctb.c ****     if ((NULL == base) || (NULL == config0) || (NULL == config1))
 861              		.loc 1 441 0 is_stmt 1
 862 002c 002E     		cmp	r6, #0
 863 002e 00F08D80 		beq	.L97
ARM GAS  C:\Users\gjl\AppData\Local\Temp\cckcOS93.s 			page 24


 864              		.loc 1 441 0 is_stmt 0 discriminator 1
 865 0032 002C     		cmp	r4, #0
 866 0034 00F08C80 		beq	.L98
 867              		.loc 1 441 0 discriminator 2
 868 0038 002D     		cmp	r5, #0
 869 003a 00F08B80 		beq	.L99
 442:Generated_Source\PSoC6\pdl\drivers\peripheral\ctb/cy_ctb.c ****     {
 443:Generated_Source\PSoC6\pdl\drivers\peripheral\ctb/cy_ctb.c ****         result = CY_CTB_BAD_PARAM;
 444:Generated_Source\PSoC6\pdl\drivers\peripheral\ctb/cy_ctb.c ****     }
 445:Generated_Source\PSoC6\pdl\drivers\peripheral\ctb/cy_ctb.c ****     else
 446:Generated_Source\PSoC6\pdl\drivers\peripheral\ctb/cy_ctb.c ****     {
 447:Generated_Source\PSoC6\pdl\drivers\peripheral\ctb/cy_ctb.c ****         /* Enum and boundary checks for config0 */
 448:Generated_Source\PSoC6\pdl\drivers\peripheral\ctb/cy_ctb.c ****         CY_ASSERT_L3(CY_CTB_OAPOWER(config0->oa0Power));
 870              		.loc 1 448 0 is_stmt 1
 871 003e 2378     		ldrb	r3, [r4]	@ zero_extendqisi2
 872 0040 032B     		cmp	r3, #3
 873 0042 04D9     		bls	.L85
 874              		.loc 1 448 0 is_stmt 0 discriminator 1
 875 0044 4FF4E071 		mov	r1, #448
 876 0048 4348     		ldr	r0, .L105
 877 004a FFF7FEFF 		bl	Cy_SysLib_AssertFailed
 878              	.LVL64:
 879              	.L85:
 449:Generated_Source\PSoC6\pdl\drivers\peripheral\ctb/cy_ctb.c ****         CY_ASSERT_L3(CY_CTB_OAMODE(config0->oa0Mode));
 880              		.loc 1 449 0 is_stmt 1
 881 004e 6378     		ldrb	r3, [r4, #1]	@ zero_extendqisi2
 882 0050 43B1     		cbz	r3, .L86
 883              		.loc 1 449 0 is_stmt 0 discriminator 1
 884 0052 082B     		cmp	r3, #8
 885 0054 06D0     		beq	.L86
 886              		.loc 1 449 0 discriminator 2
 887 0056 102B     		cmp	r3, #16
 888 0058 04D0     		beq	.L86
 889              		.loc 1 449 0 discriminator 3
 890 005a 40F2C111 		movw	r1, #449
 891 005e 3E48     		ldr	r0, .L105
 892 0060 FFF7FEFF 		bl	Cy_SysLib_AssertFailed
 893              	.LVL65:
 894              	.L86:
 450:Generated_Source\PSoC6\pdl\drivers\peripheral\ctb/cy_ctb.c ****         CY_ASSERT_L2(CY_CTB_OA0SWITCH(config0->oa0SwitchCtrl));
 895              		.loc 1 450 0 is_stmt 1
 896 0064 6268     		ldr	r2, [r4, #4]
 897 0066 3D4B     		ldr	r3, .L105+4
 898 0068 1340     		ands	r3, r3, r2
 899 006a 23B1     		cbz	r3, .L87
 900              		.loc 1 450 0 is_stmt 0 discriminator 1
 901 006c 4FF4E171 		mov	r1, #450
 902 0070 3948     		ldr	r0, .L105
 903 0072 FFF7FEFF 		bl	Cy_SysLib_AssertFailed
 904              	.LVL66:
 905              	.L87:
 451:Generated_Source\PSoC6\pdl\drivers\peripheral\ctb/cy_ctb.c ****         CY_ASSERT_L2(CY_CTB_CTDSWITCH(config0->ctdSwitchCtrl));
 906              		.loc 1 451 0 is_stmt 1
 907 0076 A368     		ldr	r3, [r4, #8]
 908 0078 23F47743 		bic	r3, r3, #63232
 909 007c 23F03203 		bic	r3, r3, #50
 910 0080 23B1     		cbz	r3, .L88
ARM GAS  C:\Users\gjl\AppData\Local\Temp\cckcOS93.s 			page 25


 911              		.loc 1 451 0 is_stmt 0 discriminator 1
 912 0082 40F2C311 		movw	r1, #451
 913 0086 3448     		ldr	r0, .L105
 914 0088 FFF7FEFF 		bl	Cy_SysLib_AssertFailed
 915              	.LVL67:
 916              	.L88:
 452:Generated_Source\PSoC6\pdl\drivers\peripheral\ctb/cy_ctb.c **** 
 453:Generated_Source\PSoC6\pdl\drivers\peripheral\ctb/cy_ctb.c ****         /* Enum and boundary checks for config1 */
 454:Generated_Source\PSoC6\pdl\drivers\peripheral\ctb/cy_ctb.c ****         CY_ASSERT_L3(CY_CTB_OAPOWER(config1->oa1Power));
 917              		.loc 1 454 0 is_stmt 1
 918 008c 2B78     		ldrb	r3, [r5]	@ zero_extendqisi2
 919 008e 032B     		cmp	r3, #3
 920 0090 04D9     		bls	.L89
 921              		.loc 1 454 0 is_stmt 0 discriminator 1
 922 0092 4FF4E371 		mov	r1, #454
 923 0096 3048     		ldr	r0, .L105
 924 0098 FFF7FEFF 		bl	Cy_SysLib_AssertFailed
 925              	.LVL68:
 926              	.L89:
 455:Generated_Source\PSoC6\pdl\drivers\peripheral\ctb/cy_ctb.c ****         CY_ASSERT_L3(CY_CTB_OAMODE(config1->oa1Mode));
 927              		.loc 1 455 0 is_stmt 1
 928 009c 6B78     		ldrb	r3, [r5, #1]	@ zero_extendqisi2
 929 009e 43B1     		cbz	r3, .L90
 930              		.loc 1 455 0 is_stmt 0 discriminator 1
 931 00a0 082B     		cmp	r3, #8
 932 00a2 06D0     		beq	.L90
 933              		.loc 1 455 0 discriminator 2
 934 00a4 102B     		cmp	r3, #16
 935 00a6 04D0     		beq	.L90
 936              		.loc 1 455 0 discriminator 3
 937 00a8 40F2C711 		movw	r1, #455
 938 00ac 2A48     		ldr	r0, .L105
 939 00ae FFF7FEFF 		bl	Cy_SysLib_AssertFailed
 940              	.LVL69:
 941              	.L90:
 456:Generated_Source\PSoC6\pdl\drivers\peripheral\ctb/cy_ctb.c ****         CY_ASSERT_L2(CY_CTB_OA1SWITCH(config1->oa1SwitchCtrl));
 942              		.loc 1 456 0 is_stmt 1
 943 00b2 6A68     		ldr	r2, [r5, #4]
 944 00b4 2A4B     		ldr	r3, .L105+8
 945 00b6 1340     		ands	r3, r3, r2
 946 00b8 23B1     		cbz	r3, .L91
 947              		.loc 1 456 0 is_stmt 0 discriminator 1
 948 00ba 4FF4E471 		mov	r1, #456
 949 00be 2648     		ldr	r0, .L105
 950 00c0 FFF7FEFF 		bl	Cy_SysLib_AssertFailed
 951              	.LVL70:
 952              	.L91:
 457:Generated_Source\PSoC6\pdl\drivers\peripheral\ctb/cy_ctb.c ****         CY_ASSERT_L2(CY_CTB_CTDSWITCH(config1->ctdSwitchCtrl));
 953              		.loc 1 457 0 is_stmt 1
 954 00c4 AB68     		ldr	r3, [r5, #8]
 955 00c6 23F47743 		bic	r3, r3, #63232
 956 00ca 23F03203 		bic	r3, r3, #50
 957 00ce 23B1     		cbz	r3, .L92
 958              		.loc 1 457 0 is_stmt 0 discriminator 1
 959 00d0 40F2C911 		movw	r1, #457
 960 00d4 2048     		ldr	r0, .L105
 961 00d6 FFF7FEFF 		bl	Cy_SysLib_AssertFailed
ARM GAS  C:\Users\gjl\AppData\Local\Temp\cckcOS93.s 			page 26


 962              	.LVL71:
 963              	.L92:
 458:Generated_Source\PSoC6\pdl\drivers\peripheral\ctb/cy_ctb.c **** 
 459:Generated_Source\PSoC6\pdl\drivers\peripheral\ctb/cy_ctb.c ****         base->CTB_CTRL = (uint32_t) CY_CTB_DEEPSLEEP_DISABLE;
 964              		.loc 1 459 0 is_stmt 1
 965 00da 0023     		movs	r3, #0
 966 00dc 3360     		str	r3, [r6]
 460:Generated_Source\PSoC6\pdl\drivers\peripheral\ctb/cy_ctb.c **** 
 461:Generated_Source\PSoC6\pdl\drivers\peripheral\ctb/cy_ctb.c ****         base->OA_RES0_CTRL = (uint32_t) config0->oa0Power \
 967              		.loc 1 461 0
 968 00de 2378     		ldrb	r3, [r4]	@ zero_extendqisi2
 462:Generated_Source\PSoC6\pdl\drivers\peripheral\ctb/cy_ctb.c ****                              | (uint32_t) config0->oa0Mode \
 969              		.loc 1 462 0
 970 00e0 6278     		ldrb	r2, [r4, #1]	@ zero_extendqisi2
 971 00e2 1343     		orrs	r3, r3, r2
 463:Generated_Source\PSoC6\pdl\drivers\peripheral\ctb/cy_ctb.c ****                              | (uint32_t) CY_CTB_PUMP_ENABLE \
 464:Generated_Source\PSoC6\pdl\drivers\peripheral\ctb/cy_ctb.c ****                              | (uint32_t) CY_CTB_COMP_EDGE_BOTH \
 465:Generated_Source\PSoC6\pdl\drivers\peripheral\ctb/cy_ctb.c ****                              | (uint32_t) CY_CTB_COMP_DSI_TRIGGER_OUT_LEVEL \
 466:Generated_Source\PSoC6\pdl\drivers\peripheral\ctb/cy_ctb.c ****                              | (uint32_t) CY_CTB_COMP_BYPASS_SYNC \
 467:Generated_Source\PSoC6\pdl\drivers\peripheral\ctb/cy_ctb.c ****                              | (uint32_t) CY_CTB_COMP_HYST_10MV \
 468:Generated_Source\PSoC6\pdl\drivers\peripheral\ctb/cy_ctb.c ****                              | ((CY_CTB_MODE_OPAMP1X == config0->oa0Mode) ? CY_CTB_OPAMP_BOOST_ENAB
 972              		.loc 1 468 0
 973 00e4 12B9     		cbnz	r2, .L100
 974 00e6 4FF48052 		mov	r2, #4096
 975 00ea 00E0     		b	.L93
 976              	.L100:
 977 00ec 0022     		movs	r2, #0
 978              	.L93:
 979              		.loc 1 468 0 is_stmt 0 discriminator 4
 980 00ee 1343     		orrs	r3, r3, r2
 981 00f0 43F43A63 		orr	r3, r3, #2976
 461:Generated_Source\PSoC6\pdl\drivers\peripheral\ctb/cy_ctb.c ****                              | (uint32_t) config0->oa0Mode \
 982              		.loc 1 461 0 is_stmt 1 discriminator 4
 983 00f4 7360     		str	r3, [r6, #4]
 469:Generated_Source\PSoC6\pdl\drivers\peripheral\ctb/cy_ctb.c **** 
 470:Generated_Source\PSoC6\pdl\drivers\peripheral\ctb/cy_ctb.c ****         base->OA_RES1_CTRL = (uint32_t) config1->oa1Power \
 984              		.loc 1 470 0 discriminator 4
 985 00f6 2B78     		ldrb	r3, [r5]	@ zero_extendqisi2
 471:Generated_Source\PSoC6\pdl\drivers\peripheral\ctb/cy_ctb.c ****                              | (uint32_t) config1->oa1Mode \
 986              		.loc 1 471 0 discriminator 4
 987 00f8 6A78     		ldrb	r2, [r5, #1]	@ zero_extendqisi2
 988 00fa 1343     		orrs	r3, r3, r2
 472:Generated_Source\PSoC6\pdl\drivers\peripheral\ctb/cy_ctb.c ****                              | (uint32_t) CY_CTB_PUMP_ENABLE \
 473:Generated_Source\PSoC6\pdl\drivers\peripheral\ctb/cy_ctb.c ****                              | (uint32_t) CY_CTB_COMP_EDGE_BOTH \
 474:Generated_Source\PSoC6\pdl\drivers\peripheral\ctb/cy_ctb.c ****                              | (uint32_t) CY_CTB_COMP_DSI_TRIGGER_OUT_LEVEL \
 475:Generated_Source\PSoC6\pdl\drivers\peripheral\ctb/cy_ctb.c ****                              | (uint32_t) CY_CTB_COMP_BYPASS_SYNC \
 476:Generated_Source\PSoC6\pdl\drivers\peripheral\ctb/cy_ctb.c ****                              | (uint32_t) CY_CTB_COMP_HYST_10MV \
 477:Generated_Source\PSoC6\pdl\drivers\peripheral\ctb/cy_ctb.c ****                              | ((CY_CTB_MODE_OPAMP1X == config1->oa1Mode) ? CY_CTB_OPAMP_BOOST_ENAB
 989              		.loc 1 477 0 discriminator 4
 990 00fc 12B9     		cbnz	r2, .L101
 991              		.loc 1 477 0 is_stmt 0
 992 00fe 4FF48052 		mov	r2, #4096
 993 0102 00E0     		b	.L94
 994              	.L101:
 995 0104 0022     		movs	r2, #0
 996              	.L94:
 997              		.loc 1 477 0 discriminator 4
ARM GAS  C:\Users\gjl\AppData\Local\Temp\cckcOS93.s 			page 27


 998 0106 1343     		orrs	r3, r3, r2
 999 0108 43F43A63 		orr	r3, r3, #2976
 470:Generated_Source\PSoC6\pdl\drivers\peripheral\ctb/cy_ctb.c ****                              | (uint32_t) config1->oa1Mode \
 1000              		.loc 1 470 0 is_stmt 1 discriminator 4
 1001 010c B360     		str	r3, [r6, #8]
 478:Generated_Source\PSoC6\pdl\drivers\peripheral\ctb/cy_ctb.c **** 
 479:Generated_Source\PSoC6\pdl\drivers\peripheral\ctb/cy_ctb.c ****         base->INTR_MASK = CTBM_INTR_MASK_COMP0_MASK_Msk | CTBM_INTR_MASK_COMP1_MASK_Msk;
 1002              		.loc 1 479 0 discriminator 4
 1003 010e 0323     		movs	r3, #3
 1004 0110 B362     		str	r3, [r6, #40]
 480:Generated_Source\PSoC6\pdl\drivers\peripheral\ctb/cy_ctb.c **** 
 481:Generated_Source\PSoC6\pdl\drivers\peripheral\ctb/cy_ctb.c ****         base->OA0_COMP_TRIM = (uint32_t) ((config0->oa0Mode == CY_CTB_MODE_OPAMP10X) ? CY_CTB_OPAMP
 1005              		.loc 1 481 0 discriminator 4
 1006 0112 6378     		ldrb	r3, [r4, #1]	@ zero_extendqisi2
 1007 0114 082B     		cmp	r3, #8
 1008 0116 01D1     		bne	.L102
 1009              		.loc 1 481 0 is_stmt 0
 1010 0118 0323     		movs	r3, #3
 1011 011a 00E0     		b	.L95
 1012              	.L102:
 1013 011c 0123     		movs	r3, #1
 1014              	.L95:
 1015              		.loc 1 481 0 discriminator 4
 1016 011e C6F8083F 		str	r3, [r6, #3848]
 482:Generated_Source\PSoC6\pdl\drivers\peripheral\ctb/cy_ctb.c ****         base->OA1_COMP_TRIM = (uint32_t) ((config1->oa1Mode == CY_CTB_MODE_OPAMP10X) ? CY_CTB_OPAMP
 1017              		.loc 1 482 0 is_stmt 1 discriminator 4
 1018 0122 6B78     		ldrb	r3, [r5, #1]	@ zero_extendqisi2
 1019 0124 082B     		cmp	r3, #8
 1020 0126 01D1     		bne	.L103
 1021              		.loc 1 482 0 is_stmt 0
 1022 0128 0323     		movs	r3, #3
 1023 012a 00E0     		b	.L96
 1024              	.L103:
 1025 012c 0123     		movs	r3, #1
 1026              	.L96:
 1027              		.loc 1 482 0 discriminator 4
 1028 012e C6F8143F 		str	r3, [r6, #3860]
 483:Generated_Source\PSoC6\pdl\drivers\peripheral\ctb/cy_ctb.c **** 
 484:Generated_Source\PSoC6\pdl\drivers\peripheral\ctb/cy_ctb.c ****         base->OA0_SW   = config0->oa0SwitchCtrl;
 1029              		.loc 1 484 0 is_stmt 1 discriminator 4
 1030 0132 6368     		ldr	r3, [r4, #4]
 1031 0134 C6F88030 		str	r3, [r6, #128]
 485:Generated_Source\PSoC6\pdl\drivers\peripheral\ctb/cy_ctb.c ****         base->OA1_SW   = config1->oa1SwitchCtrl;
 1032              		.loc 1 485 0 discriminator 4
 1033 0138 6B68     		ldr	r3, [r5, #4]
 1034 013a C6F88830 		str	r3, [r6, #136]
 486:Generated_Source\PSoC6\pdl\drivers\peripheral\ctb/cy_ctb.c ****         base->CTD_SW   = config0->ctdSwitchCtrl | config1->ctdSwitchCtrl;
 1035              		.loc 1 486 0 discriminator 4
 1036 013e A268     		ldr	r2, [r4, #8]
 1037 0140 AB68     		ldr	r3, [r5, #8]
 1038 0142 1343     		orrs	r3, r3, r2
 1039 0144 C6F8A030 		str	r3, [r6, #160]
 1040              	.LVL72:
 487:Generated_Source\PSoC6\pdl\drivers\peripheral\ctb/cy_ctb.c **** 
 488:Generated_Source\PSoC6\pdl\drivers\peripheral\ctb/cy_ctb.c ****         result = CY_CTB_SUCCESS;
 1041              		.loc 1 488 0 discriminator 4
 1042 0148 0020     		movs	r0, #0
ARM GAS  C:\Users\gjl\AppData\Local\Temp\cckcOS93.s 			page 28


 1043 014a 70BD     		pop	{r4, r5, r6, pc}
 1044              	.LVL73:
 1045              	.L97:
 443:Generated_Source\PSoC6\pdl\drivers\peripheral\ctb/cy_ctb.c ****     }
 1046              		.loc 1 443 0
 1047 014c 0548     		ldr	r0, .L105+12
 1048 014e 70BD     		pop	{r4, r5, r6, pc}
 1049              	.LVL74:
 1050              	.L98:
 1051 0150 0448     		ldr	r0, .L105+12
 1052 0152 70BD     		pop	{r4, r5, r6, pc}
 1053              	.LVL75:
 1054              	.L99:
 1055 0154 0348     		ldr	r0, .L105+12
 1056              	.LVL76:
 489:Generated_Source\PSoC6\pdl\drivers\peripheral\ctb/cy_ctb.c ****     }
 490:Generated_Source\PSoC6\pdl\drivers\peripheral\ctb/cy_ctb.c **** 
 491:Generated_Source\PSoC6\pdl\drivers\peripheral\ctb/cy_ctb.c ****     return result;
 492:Generated_Source\PSoC6\pdl\drivers\peripheral\ctb/cy_ctb.c **** }
 1057              		.loc 1 492 0
 1058 0156 70BD     		pop	{r4, r5, r6, pc}
 1059              	.LVL77:
 1060              	.L106:
 1061              		.align	2
 1062              	.L105:
 1063 0158 00000000 		.word	.LC0
 1064 015c F2BEDBFF 		.word	-2375950
 1065 0160 6CBED3FF 		.word	-2900372
 1066 0164 01002E00 		.word	3014657
 1067              		.cfi_endproc
 1068              	.LFE185:
 1069              		.size	Cy_CTB_FastInit, .-Cy_CTB_FastInit
 1070              		.section	.text.Cy_CTB_SetDeepSleepMode,"ax",%progbits
 1071              		.align	2
 1072              		.global	Cy_CTB_SetDeepSleepMode
 1073              		.thumb
 1074              		.thumb_func
 1075              		.type	Cy_CTB_SetDeepSleepMode, %function
 1076              	Cy_CTB_SetDeepSleepMode:
 1077              	.LFB187:
 493:Generated_Source\PSoC6\pdl\drivers\peripheral\ctb/cy_ctb.c **** 
 494:Generated_Source\PSoC6\pdl\drivers\peripheral\ctb/cy_ctb.c **** /*******************************************************************************
 495:Generated_Source\PSoC6\pdl\drivers\peripheral\ctb/cy_ctb.c **** * Function Name: Cy_CTB_SetCurrentMode
 496:Generated_Source\PSoC6\pdl\drivers\peripheral\ctb/cy_ctb.c **** ****************************************************************************//**
 497:Generated_Source\PSoC6\pdl\drivers\peripheral\ctb/cy_ctb.c **** *
 498:Generated_Source\PSoC6\pdl\drivers\peripheral\ctb/cy_ctb.c **** * High level function to configure the current modes of the opamps.
 499:Generated_Source\PSoC6\pdl\drivers\peripheral\ctb/cy_ctb.c **** * This function configures all opamps of the CTB to the same current mode.
 500:Generated_Source\PSoC6\pdl\drivers\peripheral\ctb/cy_ctb.c **** * These modes are differentiated by the reference current level, the opamp
 501:Generated_Source\PSoC6\pdl\drivers\peripheral\ctb/cy_ctb.c **** * input range, and the Deep Sleep mode operation.
 502:Generated_Source\PSoC6\pdl\drivers\peripheral\ctb/cy_ctb.c **** *
 503:Generated_Source\PSoC6\pdl\drivers\peripheral\ctb/cy_ctb.c **** *   - The reference current level is set using \ref Cy_CTB_SetIptatLevel
 504:Generated_Source\PSoC6\pdl\drivers\peripheral\ctb/cy_ctb.c **** *   - When 1 uA current level is used in Deep Sleep,
 505:Generated_Source\PSoC6\pdl\drivers\peripheral\ctb/cy_ctb.c **** *       - All generators in the AREF must be enabled in Deep Sleep. That is,
 506:Generated_Source\PSoC6\pdl\drivers\peripheral\ctb/cy_ctb.c **** *           \ref Cy_SysAnalog_SetDeepSleepMode is called with CY_SYSANALOG_DEEPSLEEP_IPTAT_IZTAT_VR
 507:Generated_Source\PSoC6\pdl\drivers\peripheral\ctb/cy_ctb.c **** *   - When 100 nA current level is used,
 508:Generated_Source\PSoC6\pdl\drivers\peripheral\ctb/cy_ctb.c **** *       - \ref Cy_CTB_EnableRedirect is called to route the AREF IPTAT reference
 509:Generated_Source\PSoC6\pdl\drivers\peripheral\ctb/cy_ctb.c **** *           to the opamp IZTAT and disable the opamps IPTAT.
ARM GAS  C:\Users\gjl\AppData\Local\Temp\cckcOS93.s 			page 29


 510:Generated_Source\PSoC6\pdl\drivers\peripheral\ctb/cy_ctb.c **** *       - The IPTAT generator is enabled in Deep Sleep. That is,
 511:Generated_Source\PSoC6\pdl\drivers\peripheral\ctb/cy_ctb.c **** *           \ref Cy_SysAnalog_SetDeepSleepMode is called with CY_SYSANALOG_DEEPSLEEP_IPTAT_2
 512:Generated_Source\PSoC6\pdl\drivers\peripheral\ctb/cy_ctb.c **** *           unless it is already configured for CY_SYSANALOG_DEEPSLEEP_IPTAT_IZTAT_VREF.
 513:Generated_Source\PSoC6\pdl\drivers\peripheral\ctb/cy_ctb.c **** *
 514:Generated_Source\PSoC6\pdl\drivers\peripheral\ctb/cy_ctb.c **** * \note
 515:Generated_Source\PSoC6\pdl\drivers\peripheral\ctb/cy_ctb.c **** * The IPTAT level is a chip wide configuration so multiple
 516:Generated_Source\PSoC6\pdl\drivers\peripheral\ctb/cy_ctb.c **** * opamps cannot operate at different IPTAT levels.
 517:Generated_Source\PSoC6\pdl\drivers\peripheral\ctb/cy_ctb.c **** * When calling \ref Cy_CTB_SetCurrentMode for a CTB instance on the device,
 518:Generated_Source\PSoC6\pdl\drivers\peripheral\ctb/cy_ctb.c **** * it should be called for all other CTB instances as well.
 519:Generated_Source\PSoC6\pdl\drivers\peripheral\ctb/cy_ctb.c **** *
 520:Generated_Source\PSoC6\pdl\drivers\peripheral\ctb/cy_ctb.c **** * <table class="doxtable">
 521:Generated_Source\PSoC6\pdl\drivers\peripheral\ctb/cy_ctb.c **** *   <tr>
 522:Generated_Source\PSoC6\pdl\drivers\peripheral\ctb/cy_ctb.c **** *     <th>Current Mode</th>
 523:Generated_Source\PSoC6\pdl\drivers\peripheral\ctb/cy_ctb.c **** *     <th>IPTAT Level</th>
 524:Generated_Source\PSoC6\pdl\drivers\peripheral\ctb/cy_ctb.c **** *     <th>Input Range</th>
 525:Generated_Source\PSoC6\pdl\drivers\peripheral\ctb/cy_ctb.c **** *     <th>Deep Sleep Operation</th>
 526:Generated_Source\PSoC6\pdl\drivers\peripheral\ctb/cy_ctb.c **** *   </tr>
 527:Generated_Source\PSoC6\pdl\drivers\peripheral\ctb/cy_ctb.c **** *   <tr>
 528:Generated_Source\PSoC6\pdl\drivers\peripheral\ctb/cy_ctb.c **** *     <td>\ref CY_CTB_CURRENT_HIGH_ACTIVE</td>
 529:Generated_Source\PSoC6\pdl\drivers\peripheral\ctb/cy_ctb.c **** *     <td>1 uA</td>
 530:Generated_Source\PSoC6\pdl\drivers\peripheral\ctb/cy_ctb.c **** *     <td>Rail-to-Rail (charge pump enabled)</td>
 531:Generated_Source\PSoC6\pdl\drivers\peripheral\ctb/cy_ctb.c **** *     <td>Disabled in Deep Sleep</td>
 532:Generated_Source\PSoC6\pdl\drivers\peripheral\ctb/cy_ctb.c **** *   </tr>
 533:Generated_Source\PSoC6\pdl\drivers\peripheral\ctb/cy_ctb.c **** *   <tr>
 534:Generated_Source\PSoC6\pdl\drivers\peripheral\ctb/cy_ctb.c **** *     <td>\ref CY_CTB_CURRENT_HIGH_ACTIVE_DEEPSLEEP</td>
 535:Generated_Source\PSoC6\pdl\drivers\peripheral\ctb/cy_ctb.c **** *     <td>1 uA</td>
 536:Generated_Source\PSoC6\pdl\drivers\peripheral\ctb/cy_ctb.c **** *     <td>0 - VDDA-1.5 V (charge pump disabled)</td>
 537:Generated_Source\PSoC6\pdl\drivers\peripheral\ctb/cy_ctb.c **** *     <td>Enabled in Deep Sleep</td>
 538:Generated_Source\PSoC6\pdl\drivers\peripheral\ctb/cy_ctb.c **** *   </tr>
 539:Generated_Source\PSoC6\pdl\drivers\peripheral\ctb/cy_ctb.c **** *   <tr>
 540:Generated_Source\PSoC6\pdl\drivers\peripheral\ctb/cy_ctb.c **** *     <td>\ref CY_CTB_CURRENT_LOW_ACTIVE_DEEPSLEEP</td>
 541:Generated_Source\PSoC6\pdl\drivers\peripheral\ctb/cy_ctb.c **** *     <td>100 nA</td>
 542:Generated_Source\PSoC6\pdl\drivers\peripheral\ctb/cy_ctb.c **** *     <td>0 - VDDA-1.5 V (charge pump disabled)</td>
 543:Generated_Source\PSoC6\pdl\drivers\peripheral\ctb/cy_ctb.c **** *     <td>Enabled in Deep Sleep</td>
 544:Generated_Source\PSoC6\pdl\drivers\peripheral\ctb/cy_ctb.c **** *   </tr>
 545:Generated_Source\PSoC6\pdl\drivers\peripheral\ctb/cy_ctb.c **** * </table>
 546:Generated_Source\PSoC6\pdl\drivers\peripheral\ctb/cy_ctb.c **** *
 547:Generated_Source\PSoC6\pdl\drivers\peripheral\ctb/cy_ctb.c **** * \note
 548:Generated_Source\PSoC6\pdl\drivers\peripheral\ctb/cy_ctb.c **** * The output range of the opamp is 0.2 V to VDDA - 0.2 V (depending on output load).
 549:Generated_Source\PSoC6\pdl\drivers\peripheral\ctb/cy_ctb.c **** *
 550:Generated_Source\PSoC6\pdl\drivers\peripheral\ctb/cy_ctb.c **** * \param base
 551:Generated_Source\PSoC6\pdl\drivers\peripheral\ctb/cy_ctb.c **** * Pointer to structure describing registers
 552:Generated_Source\PSoC6\pdl\drivers\peripheral\ctb/cy_ctb.c **** *
 553:Generated_Source\PSoC6\pdl\drivers\peripheral\ctb/cy_ctb.c **** * \param currentMode
 554:Generated_Source\PSoC6\pdl\drivers\peripheral\ctb/cy_ctb.c **** * Current mode selection
 555:Generated_Source\PSoC6\pdl\drivers\peripheral\ctb/cy_ctb.c **** *
 556:Generated_Source\PSoC6\pdl\drivers\peripheral\ctb/cy_ctb.c **** * \return None
 557:Generated_Source\PSoC6\pdl\drivers\peripheral\ctb/cy_ctb.c **** *
 558:Generated_Source\PSoC6\pdl\drivers\peripheral\ctb/cy_ctb.c **** * \funcusage
 559:Generated_Source\PSoC6\pdl\drivers\peripheral\ctb/cy_ctb.c **** *
 560:Generated_Source\PSoC6\pdl\drivers\peripheral\ctb/cy_ctb.c **** * \snippet ctb_sut_01.cydsn/main_cm4.c CTB_SNIPPET_SET_CURRENT_MODE
 561:Generated_Source\PSoC6\pdl\drivers\peripheral\ctb/cy_ctb.c **** *
 562:Generated_Source\PSoC6\pdl\drivers\peripheral\ctb/cy_ctb.c **** *******************************************************************************/
 563:Generated_Source\PSoC6\pdl\drivers\peripheral\ctb/cy_ctb.c **** void Cy_CTB_SetCurrentMode(CTBM_Type *base, cy_en_ctb_current_mode_t currentMode)
 564:Generated_Source\PSoC6\pdl\drivers\peripheral\ctb/cy_ctb.c **** {
 565:Generated_Source\PSoC6\pdl\drivers\peripheral\ctb/cy_ctb.c ****     CY_ASSERT_L3(CY_CTB_CURRENTMODE(currentMode));
 566:Generated_Source\PSoC6\pdl\drivers\peripheral\ctb/cy_ctb.c **** 
ARM GAS  C:\Users\gjl\AppData\Local\Temp\cckcOS93.s 			page 30


 567:Generated_Source\PSoC6\pdl\drivers\peripheral\ctb/cy_ctb.c ****     cy_en_sysanalog_deep_sleep_t arefDeepSleep;
 568:Generated_Source\PSoC6\pdl\drivers\peripheral\ctb/cy_ctb.c **** 
 569:Generated_Source\PSoC6\pdl\drivers\peripheral\ctb/cy_ctb.c ****     switch(currentMode)
 570:Generated_Source\PSoC6\pdl\drivers\peripheral\ctb/cy_ctb.c ****     {
 571:Generated_Source\PSoC6\pdl\drivers\peripheral\ctb/cy_ctb.c ****     case CY_CTB_CURRENT_HIGH_ACTIVE:
 572:Generated_Source\PSoC6\pdl\drivers\peripheral\ctb/cy_ctb.c **** 
 573:Generated_Source\PSoC6\pdl\drivers\peripheral\ctb/cy_ctb.c ****         /* Does not disable AREF for Deep Sleep in case the AREF is used by other blocks */
 574:Generated_Source\PSoC6\pdl\drivers\peripheral\ctb/cy_ctb.c **** 
 575:Generated_Source\PSoC6\pdl\drivers\peripheral\ctb/cy_ctb.c ****         /* Use a 1 uA IPTAT level and disable redirection */
 576:Generated_Source\PSoC6\pdl\drivers\peripheral\ctb/cy_ctb.c ****         Cy_CTB_SetIptatLevel(CY_CTB_IPTAT_NORMAL);
 577:Generated_Source\PSoC6\pdl\drivers\peripheral\ctb/cy_ctb.c ****         Cy_CTB_DisableRedirect();
 578:Generated_Source\PSoC6\pdl\drivers\peripheral\ctb/cy_ctb.c **** 
 579:Generated_Source\PSoC6\pdl\drivers\peripheral\ctb/cy_ctb.c ****         /* Disable Deep Sleep mode for the CTB - not opamp specific */
 580:Generated_Source\PSoC6\pdl\drivers\peripheral\ctb/cy_ctb.c ****         Cy_CTB_SetDeepSleepMode(base, CY_CTB_DEEPSLEEP_DISABLE);
 581:Generated_Source\PSoC6\pdl\drivers\peripheral\ctb/cy_ctb.c **** 
 582:Generated_Source\PSoC6\pdl\drivers\peripheral\ctb/cy_ctb.c ****         /* Enable Opamp0 pump */
 583:Generated_Source\PSoC6\pdl\drivers\peripheral\ctb/cy_ctb.c ****         base->OA_RES0_CTRL |= CTBM_OA_RES0_CTRL_OA0_PUMP_EN_Msk;
 584:Generated_Source\PSoC6\pdl\drivers\peripheral\ctb/cy_ctb.c **** 
 585:Generated_Source\PSoC6\pdl\drivers\peripheral\ctb/cy_ctb.c ****         /* Enable Opamp1 pump */
 586:Generated_Source\PSoC6\pdl\drivers\peripheral\ctb/cy_ctb.c ****         base->OA_RES1_CTRL |= CTBM_OA_RES1_CTRL_OA1_PUMP_EN_Msk;
 587:Generated_Source\PSoC6\pdl\drivers\peripheral\ctb/cy_ctb.c **** 
 588:Generated_Source\PSoC6\pdl\drivers\peripheral\ctb/cy_ctb.c ****         break;
 589:Generated_Source\PSoC6\pdl\drivers\peripheral\ctb/cy_ctb.c ****     case CY_CTB_CURRENT_HIGH_ACTIVE_DEEPSLEEP:
 590:Generated_Source\PSoC6\pdl\drivers\peripheral\ctb/cy_ctb.c **** 
 591:Generated_Source\PSoC6\pdl\drivers\peripheral\ctb/cy_ctb.c ****         /* All generators (IPTAT, IZTAT, and VREF) of the AREF block must be enabled for Deep Sleep
 592:Generated_Source\PSoC6\pdl\drivers\peripheral\ctb/cy_ctb.c ****         Cy_SysAnalog_SetDeepSleepMode(CY_SYSANALOG_DEEPSLEEP_IPTAT_IZTAT_VREF);
 593:Generated_Source\PSoC6\pdl\drivers\peripheral\ctb/cy_ctb.c **** 
 594:Generated_Source\PSoC6\pdl\drivers\peripheral\ctb/cy_ctb.c ****         /* Use a 1 uA IPTAT level and disable redirection */
 595:Generated_Source\PSoC6\pdl\drivers\peripheral\ctb/cy_ctb.c ****         Cy_CTB_SetIptatLevel(CY_CTB_IPTAT_NORMAL);
 596:Generated_Source\PSoC6\pdl\drivers\peripheral\ctb/cy_ctb.c ****         Cy_CTB_DisableRedirect();
 597:Generated_Source\PSoC6\pdl\drivers\peripheral\ctb/cy_ctb.c **** 
 598:Generated_Source\PSoC6\pdl\drivers\peripheral\ctb/cy_ctb.c ****         /* Enable Deep Sleep mode for the CTB - not opamp specific */
 599:Generated_Source\PSoC6\pdl\drivers\peripheral\ctb/cy_ctb.c ****         Cy_CTB_SetDeepSleepMode(base, CY_CTB_DEEPSLEEP_ENABLE);
 600:Generated_Source\PSoC6\pdl\drivers\peripheral\ctb/cy_ctb.c **** 
 601:Generated_Source\PSoC6\pdl\drivers\peripheral\ctb/cy_ctb.c ****         /* Disable Opamp0 pump */
 602:Generated_Source\PSoC6\pdl\drivers\peripheral\ctb/cy_ctb.c ****         base->OA_RES0_CTRL &= ~CTBM_OA_RES0_CTRL_OA0_PUMP_EN_Msk;
 603:Generated_Source\PSoC6\pdl\drivers\peripheral\ctb/cy_ctb.c **** 
 604:Generated_Source\PSoC6\pdl\drivers\peripheral\ctb/cy_ctb.c ****         /* Disable Opamp1 pump */
 605:Generated_Source\PSoC6\pdl\drivers\peripheral\ctb/cy_ctb.c ****         base->OA_RES1_CTRL &= ~CTBM_OA_RES1_CTRL_OA1_PUMP_EN_Msk;
 606:Generated_Source\PSoC6\pdl\drivers\peripheral\ctb/cy_ctb.c **** 
 607:Generated_Source\PSoC6\pdl\drivers\peripheral\ctb/cy_ctb.c ****         break;
 608:Generated_Source\PSoC6\pdl\drivers\peripheral\ctb/cy_ctb.c ****     case CY_CTB_CURRENT_LOW_ACTIVE_DEEPSLEEP:
 609:Generated_Source\PSoC6\pdl\drivers\peripheral\ctb/cy_ctb.c ****     default:
 610:Generated_Source\PSoC6\pdl\drivers\peripheral\ctb/cy_ctb.c **** 
 611:Generated_Source\PSoC6\pdl\drivers\peripheral\ctb/cy_ctb.c ****         /* The AREF IPTAT output for the opamps must be enabled in Deep Sleep.
 612:Generated_Source\PSoC6\pdl\drivers\peripheral\ctb/cy_ctb.c ****          * This means a minimum Deep Sleep mode setting of CY_SYSANALOG_DEEPSLEEP_IPTAT_2. */
 613:Generated_Source\PSoC6\pdl\drivers\peripheral\ctb/cy_ctb.c ****         arefDeepSleep = Cy_SysAnalog_GetDeepSleepMode();
 614:Generated_Source\PSoC6\pdl\drivers\peripheral\ctb/cy_ctb.c ****         if ((arefDeepSleep == CY_SYSANALOG_DEEPSLEEP_DISABLE) || (arefDeepSleep == CY_SYSANALOG_DEE
 615:Generated_Source\PSoC6\pdl\drivers\peripheral\ctb/cy_ctb.c ****         {
 616:Generated_Source\PSoC6\pdl\drivers\peripheral\ctb/cy_ctb.c ****             Cy_SysAnalog_SetDeepSleepMode(CY_SYSANALOG_DEEPSLEEP_IPTAT_2);
 617:Generated_Source\PSoC6\pdl\drivers\peripheral\ctb/cy_ctb.c ****         }
 618:Generated_Source\PSoC6\pdl\drivers\peripheral\ctb/cy_ctb.c **** 
 619:Generated_Source\PSoC6\pdl\drivers\peripheral\ctb/cy_ctb.c ****         /* Use a 100 nA IPTAT level and enable redirection */
 620:Generated_Source\PSoC6\pdl\drivers\peripheral\ctb/cy_ctb.c ****         Cy_CTB_SetIptatLevel(CY_CTB_IPTAT_LOW);
 621:Generated_Source\PSoC6\pdl\drivers\peripheral\ctb/cy_ctb.c ****         Cy_CTB_EnableRedirect();
 622:Generated_Source\PSoC6\pdl\drivers\peripheral\ctb/cy_ctb.c **** 
 623:Generated_Source\PSoC6\pdl\drivers\peripheral\ctb/cy_ctb.c ****         /* Enable Deep Sleep mode for the CTB - not opamp specific */
ARM GAS  C:\Users\gjl\AppData\Local\Temp\cckcOS93.s 			page 31


 624:Generated_Source\PSoC6\pdl\drivers\peripheral\ctb/cy_ctb.c ****         Cy_CTB_SetDeepSleepMode(base, CY_CTB_DEEPSLEEP_ENABLE);
 625:Generated_Source\PSoC6\pdl\drivers\peripheral\ctb/cy_ctb.c **** 
 626:Generated_Source\PSoC6\pdl\drivers\peripheral\ctb/cy_ctb.c ****         /* Disable Opamp0 pump */
 627:Generated_Source\PSoC6\pdl\drivers\peripheral\ctb/cy_ctb.c ****         base->OA_RES0_CTRL &= ~CTBM_OA_RES0_CTRL_OA0_PUMP_EN_Msk;
 628:Generated_Source\PSoC6\pdl\drivers\peripheral\ctb/cy_ctb.c **** 
 629:Generated_Source\PSoC6\pdl\drivers\peripheral\ctb/cy_ctb.c ****         /* Disable Opamp1 pump */
 630:Generated_Source\PSoC6\pdl\drivers\peripheral\ctb/cy_ctb.c ****         base->OA_RES1_CTRL &= ~CTBM_OA_RES1_CTRL_OA1_PUMP_EN_Msk;
 631:Generated_Source\PSoC6\pdl\drivers\peripheral\ctb/cy_ctb.c ****         break;
 632:Generated_Source\PSoC6\pdl\drivers\peripheral\ctb/cy_ctb.c ****     }
 633:Generated_Source\PSoC6\pdl\drivers\peripheral\ctb/cy_ctb.c **** }
 634:Generated_Source\PSoC6\pdl\drivers\peripheral\ctb/cy_ctb.c **** 
 635:Generated_Source\PSoC6\pdl\drivers\peripheral\ctb/cy_ctb.c **** /*******************************************************************************
 636:Generated_Source\PSoC6\pdl\drivers\peripheral\ctb/cy_ctb.c **** * Function Name: Cy_CTB_SetDeepSleepMode
 637:Generated_Source\PSoC6\pdl\drivers\peripheral\ctb/cy_ctb.c **** ****************************************************************************//**
 638:Generated_Source\PSoC6\pdl\drivers\peripheral\ctb/cy_ctb.c **** *
 639:Generated_Source\PSoC6\pdl\drivers\peripheral\ctb/cy_ctb.c **** * Enable or disable the entire CTB (not per opamp) in Deep Sleep mode.
 640:Generated_Source\PSoC6\pdl\drivers\peripheral\ctb/cy_ctb.c **** *
 641:Generated_Source\PSoC6\pdl\drivers\peripheral\ctb/cy_ctb.c **** * If enabled, the AREF block must also be enabled for Deep Sleep to provide
 642:Generated_Source\PSoC6\pdl\drivers\peripheral\ctb/cy_ctb.c **** * the needed reference currents to the opamps (see \ref Cy_SysAnalog_SetDeepSleepMode).
 643:Generated_Source\PSoC6\pdl\drivers\peripheral\ctb/cy_ctb.c **** * Additionally, ensure that only internal CTB switches are used for routing.
 644:Generated_Source\PSoC6\pdl\drivers\peripheral\ctb/cy_ctb.c **** * Switches on AMUXBUSA and AMUXBUSB are not enabled in Deep Sleep.
 645:Generated_Source\PSoC6\pdl\drivers\peripheral\ctb/cy_ctb.c **** * See the \ref group_ctb_dependencies section for more information.
 646:Generated_Source\PSoC6\pdl\drivers\peripheral\ctb/cy_ctb.c **** *
 647:Generated_Source\PSoC6\pdl\drivers\peripheral\ctb/cy_ctb.c **** * \note
 648:Generated_Source\PSoC6\pdl\drivers\peripheral\ctb/cy_ctb.c **** * In Deep Sleep mode, the charge pumps are disabled so the input
 649:Generated_Source\PSoC6\pdl\drivers\peripheral\ctb/cy_ctb.c **** * range of the opamps is reduced to 0 V to VDDA - 1.5 V.
 650:Generated_Source\PSoC6\pdl\drivers\peripheral\ctb/cy_ctb.c **** *
 651:Generated_Source\PSoC6\pdl\drivers\peripheral\ctb/cy_ctb.c **** * \param base
 652:Generated_Source\PSoC6\pdl\drivers\peripheral\ctb/cy_ctb.c **** * Pointer to structure describing registers
 653:Generated_Source\PSoC6\pdl\drivers\peripheral\ctb/cy_ctb.c **** *
 654:Generated_Source\PSoC6\pdl\drivers\peripheral\ctb/cy_ctb.c **** * \param deepSleep
 655:Generated_Source\PSoC6\pdl\drivers\peripheral\ctb/cy_ctb.c **** * \ref CY_CTB_DEEPSLEEP_DISABLE or \ref CY_CTB_DEEPSLEEP_ENABLE from
 656:Generated_Source\PSoC6\pdl\drivers\peripheral\ctb/cy_ctb.c **** * \ref cy_en_ctb_deep_sleep_t.
 657:Generated_Source\PSoC6\pdl\drivers\peripheral\ctb/cy_ctb.c **** *
 658:Generated_Source\PSoC6\pdl\drivers\peripheral\ctb/cy_ctb.c **** * \return None
 659:Generated_Source\PSoC6\pdl\drivers\peripheral\ctb/cy_ctb.c **** *
 660:Generated_Source\PSoC6\pdl\drivers\peripheral\ctb/cy_ctb.c **** * \funcusage
 661:Generated_Source\PSoC6\pdl\drivers\peripheral\ctb/cy_ctb.c **** *
 662:Generated_Source\PSoC6\pdl\drivers\peripheral\ctb/cy_ctb.c **** * \snippet ctb_sut_01.cydsn/main_cm4.c CTB_SNIPPET_SET_DEEPSLEEP_MODE
 663:Generated_Source\PSoC6\pdl\drivers\peripheral\ctb/cy_ctb.c **** *
 664:Generated_Source\PSoC6\pdl\drivers\peripheral\ctb/cy_ctb.c **** *******************************************************************************/
 665:Generated_Source\PSoC6\pdl\drivers\peripheral\ctb/cy_ctb.c **** void Cy_CTB_SetDeepSleepMode(CTBM_Type *base, cy_en_ctb_deep_sleep_t deepSleep)
 666:Generated_Source\PSoC6\pdl\drivers\peripheral\ctb/cy_ctb.c **** {
 1078              		.loc 1 666 0
 1079              		.cfi_startproc
 1080              		@ args = 0, pretend = 0, frame = 0
 1081              		@ frame_needed = 0, uses_anonymous_args = 0
 1082              	.LVL78:
 1083 0000 38B5     		push	{r3, r4, r5, lr}
 1084              		.cfi_def_cfa_offset 16
 1085              		.cfi_offset 3, -16
 1086              		.cfi_offset 4, -12
 1087              		.cfi_offset 5, -8
 1088              		.cfi_offset 14, -4
 1089 0002 0446     		mov	r4, r0
 667:Generated_Source\PSoC6\pdl\drivers\peripheral\ctb/cy_ctb.c ****     CY_ASSERT_L3(CY_CTB_DEEPSLEEP(deepSleep));
 1090              		.loc 1 667 0
ARM GAS  C:\Users\gjl\AppData\Local\Temp\cckcOS93.s 			page 32


 1091 0004 0D46     		mov	r5, r1
 1092 0006 39B1     		cbz	r1, .L108
 1093              		.loc 1 667 0 is_stmt 0 discriminator 1
 1094 0008 B1F1804F 		cmp	r1, #1073741824
 1095 000c 04D0     		beq	.L108
 1096              		.loc 1 667 0 discriminator 2
 1097 000e 40F29B21 		movw	r1, #667
 1098              	.LVL79:
 1099 0012 0448     		ldr	r0, .L110
 1100              	.LVL80:
 1101 0014 FFF7FEFF 		bl	Cy_SysLib_AssertFailed
 1102              	.LVL81:
 1103              	.L108:
 668:Generated_Source\PSoC6\pdl\drivers\peripheral\ctb/cy_ctb.c **** 
 669:Generated_Source\PSoC6\pdl\drivers\peripheral\ctb/cy_ctb.c ****     uint32_t ctbCtrl;
 670:Generated_Source\PSoC6\pdl\drivers\peripheral\ctb/cy_ctb.c **** 
 671:Generated_Source\PSoC6\pdl\drivers\peripheral\ctb/cy_ctb.c ****     ctbCtrl = base->CTB_CTRL & ~CTBM_CTB_CTRL_DEEPSLEEP_ON_Msk;
 1104              		.loc 1 671 0 is_stmt 1
 1105 0018 2168     		ldr	r1, [r4]
 1106 001a 21F08041 		bic	r1, r1, #1073741824
 1107              	.LVL82:
 672:Generated_Source\PSoC6\pdl\drivers\peripheral\ctb/cy_ctb.c **** 
 673:Generated_Source\PSoC6\pdl\drivers\peripheral\ctb/cy_ctb.c ****     base->CTB_CTRL = ctbCtrl | (uint32_t)deepSleep;
 1108              		.loc 1 673 0
 1109 001e 2943     		orrs	r1, r1, r5
 1110              	.LVL83:
 1111 0020 2160     		str	r1, [r4]
 1112 0022 38BD     		pop	{r3, r4, r5, pc}
 1113              	.LVL84:
 1114              	.L111:
 1115              		.align	2
 1116              	.L110:
 1117 0024 00000000 		.word	.LC0
 1118              		.cfi_endproc
 1119              	.LFE187:
 1120              		.size	Cy_CTB_SetDeepSleepMode, .-Cy_CTB_SetDeepSleepMode
 1121              		.section	.text.Cy_CTB_SetCurrentMode,"ax",%progbits
 1122              		.align	2
 1123              		.global	Cy_CTB_SetCurrentMode
 1124              		.thumb
 1125              		.thumb_func
 1126              		.type	Cy_CTB_SetCurrentMode, %function
 1127              	Cy_CTB_SetCurrentMode:
 1128              	.LFB186:
 564:Generated_Source\PSoC6\pdl\drivers\peripheral\ctb/cy_ctb.c ****     CY_ASSERT_L3(CY_CTB_CURRENTMODE(currentMode));
 1129              		.loc 1 564 0
 1130              		.cfi_startproc
 1131              		@ args = 0, pretend = 0, frame = 0
 1132              		@ frame_needed = 0, uses_anonymous_args = 0
 1133              	.LVL85:
 1134 0000 38B5     		push	{r3, r4, r5, lr}
 1135              		.cfi_def_cfa_offset 16
 1136              		.cfi_offset 3, -16
 1137              		.cfi_offset 4, -12
 1138              		.cfi_offset 5, -8
 1139              		.cfi_offset 14, -4
 1140 0002 0446     		mov	r4, r0
ARM GAS  C:\Users\gjl\AppData\Local\Temp\cckcOS93.s 			page 33


 1141 0004 0D46     		mov	r5, r1
 565:Generated_Source\PSoC6\pdl\drivers\peripheral\ctb/cy_ctb.c **** 
 1142              		.loc 1 565 0
 1143 0006 0229     		cmp	r1, #2
 1144 0008 04D9     		bls	.L113
 565:Generated_Source\PSoC6\pdl\drivers\peripheral\ctb/cy_ctb.c **** 
 1145              		.loc 1 565 0 is_stmt 0 discriminator 1
 1146 000a 40F23521 		movw	r1, #565
 1147              	.LVL86:
 1148 000e 2F48     		ldr	r0, .L122
 1149              	.LVL87:
 1150 0010 FFF7FEFF 		bl	Cy_SysLib_AssertFailed
 1151              	.LVL88:
 1152              	.L113:
 569:Generated_Source\PSoC6\pdl\drivers\peripheral\ctb/cy_ctb.c ****     {
 1153              		.loc 1 569 0 is_stmt 1
 1154 0014 15B1     		cbz	r5, .L115
 1155 0016 012D     		cmp	r5, #1
 1156 0018 16D0     		beq	.L116
 1157 001a 30E0     		b	.L120
 1158              	.L115:
 1159              	.LVL89:
 1160              	.LBB20:
 1161              	.LBB21:
 1162              		.file 2 "Generated_Source\\PSoC6\\pdl\\drivers/peripheral/ctb/cy_ctb.h"
   1:Generated_Source\PSoC6\pdl\drivers\peripheral\ctb/cy_ctb.h **** /***************************************************************************//**
   2:Generated_Source\PSoC6\pdl\drivers\peripheral\ctb/cy_ctb.h **** * \file cy_ctb.h
   3:Generated_Source\PSoC6\pdl\drivers\peripheral\ctb/cy_ctb.h **** * \version 1.0
   4:Generated_Source\PSoC6\pdl\drivers\peripheral\ctb/cy_ctb.h **** *
   5:Generated_Source\PSoC6\pdl\drivers\peripheral\ctb/cy_ctb.h **** * Header file for the CTB driver
   6:Generated_Source\PSoC6\pdl\drivers\peripheral\ctb/cy_ctb.h **** *
   7:Generated_Source\PSoC6\pdl\drivers\peripheral\ctb/cy_ctb.h **** ********************************************************************************
   8:Generated_Source\PSoC6\pdl\drivers\peripheral\ctb/cy_ctb.h **** * \copyright
   9:Generated_Source\PSoC6\pdl\drivers\peripheral\ctb/cy_ctb.h **** * Copyright 2017-2018, Cypress Semiconductor Corporation. All rights reserved.
  10:Generated_Source\PSoC6\pdl\drivers\peripheral\ctb/cy_ctb.h **** * You may use this file only in accordance with the license, terms, conditions,
  11:Generated_Source\PSoC6\pdl\drivers\peripheral\ctb/cy_ctb.h **** * disclaimers, and limitations in the end user license agreement accompanying
  12:Generated_Source\PSoC6\pdl\drivers\peripheral\ctb/cy_ctb.h **** * the software package with which this file was provided.
  13:Generated_Source\PSoC6\pdl\drivers\peripheral\ctb/cy_ctb.h **** *******************************************************************************/
  14:Generated_Source\PSoC6\pdl\drivers\peripheral\ctb/cy_ctb.h **** 
  15:Generated_Source\PSoC6\pdl\drivers\peripheral\ctb/cy_ctb.h **** /**
  16:Generated_Source\PSoC6\pdl\drivers\peripheral\ctb/cy_ctb.h **** * \defgroup group_ctb Continuous Time Block (CTB)
  17:Generated_Source\PSoC6\pdl\drivers\peripheral\ctb/cy_ctb.h **** * \{
  18:Generated_Source\PSoC6\pdl\drivers\peripheral\ctb/cy_ctb.h **** * This driver provides API functions to configure and use the analog CTB.
  19:Generated_Source\PSoC6\pdl\drivers\peripheral\ctb/cy_ctb.h **** * The CTB comprises two identical opamps, a switch routing matrix,
  20:Generated_Source\PSoC6\pdl\drivers\peripheral\ctb/cy_ctb.h **** * and a sample and hold (SH) circuit. The high level features are:
  21:Generated_Source\PSoC6\pdl\drivers\peripheral\ctb/cy_ctb.h **** *
  22:Generated_Source\PSoC6\pdl\drivers\peripheral\ctb/cy_ctb.h **** *   - Two highly configurable opamps
  23:Generated_Source\PSoC6\pdl\drivers\peripheral\ctb/cy_ctb.h **** *       - Each opamp has programmable power and output drive strength
  24:Generated_Source\PSoC6\pdl\drivers\peripheral\ctb/cy_ctb.h **** *       - Each opamp can be configured as a voltage follower using internal routing
  25:Generated_Source\PSoC6\pdl\drivers\peripheral\ctb/cy_ctb.h **** *       - Each opamp can be configured as a comparator with optional 10 mV hysteresis
  26:Generated_Source\PSoC6\pdl\drivers\peripheral\ctb/cy_ctb.h **** *   - Flexible input and output routing
  27:Generated_Source\PSoC6\pdl\drivers\peripheral\ctb/cy_ctb.h **** *   - Works as a buffer or amplifier for SAR ADC inputs
  28:Generated_Source\PSoC6\pdl\drivers\peripheral\ctb/cy_ctb.h **** *   - Works as a buffer, amplifier, or sample and hold (SH) for the CTDAC output
  29:Generated_Source\PSoC6\pdl\drivers\peripheral\ctb/cy_ctb.h **** *   - Can operate in Deep Sleep power mode
  30:Generated_Source\PSoC6\pdl\drivers\peripheral\ctb/cy_ctb.h **** *
  31:Generated_Source\PSoC6\pdl\drivers\peripheral\ctb/cy_ctb.h **** * Each opamp, marked OA0 and OA1, has one input and three output stages,
  32:Generated_Source\PSoC6\pdl\drivers\peripheral\ctb/cy_ctb.h **** * all of which share the common input stage.
ARM GAS  C:\Users\gjl\AppData\Local\Temp\cckcOS93.s 			page 34


  33:Generated_Source\PSoC6\pdl\drivers\peripheral\ctb/cy_ctb.h **** * Note that only one output stage can be selected at a time.
  34:Generated_Source\PSoC6\pdl\drivers\peripheral\ctb/cy_ctb.h **** * The output stage can operate as a low-drive strength opamp for internal connections (1X), a high-
  35:Generated_Source\PSoC6\pdl\drivers\peripheral\ctb/cy_ctb.h **** * opamp for driving a device pin (10X), or a comparator.
  36:Generated_Source\PSoC6\pdl\drivers\peripheral\ctb/cy_ctb.h **** *
  37:Generated_Source\PSoC6\pdl\drivers\peripheral\ctb/cy_ctb.h **** * Using the switching matrix, the opamp inputs and outputs
  38:Generated_Source\PSoC6\pdl\drivers\peripheral\ctb/cy_ctb.h **** * can be connected to dedicated general-purpose I/Os or other internal analog
  39:Generated_Source\PSoC6\pdl\drivers\peripheral\ctb/cy_ctb.h **** * blocks. See the device datasheet for the dedicated CTB port.
  40:Generated_Source\PSoC6\pdl\drivers\peripheral\ctb/cy_ctb.h **** *
  41:Generated_Source\PSoC6\pdl\drivers\peripheral\ctb/cy_ctb.h **** * \image html ctb_block_diagram.png "CTB Switch Diagram" width=1000px
  42:Generated_Source\PSoC6\pdl\drivers\peripheral\ctb/cy_ctb.h **** * \image latex ctb_block_diagram.png
  43:Generated_Source\PSoC6\pdl\drivers\peripheral\ctb/cy_ctb.h **** *
  44:Generated_Source\PSoC6\pdl\drivers\peripheral\ctb/cy_ctb.h **** * \section group_ctb_init Initialization and Enable
  45:Generated_Source\PSoC6\pdl\drivers\peripheral\ctb/cy_ctb.h **** *
  46:Generated_Source\PSoC6\pdl\drivers\peripheral\ctb/cy_ctb.h **** * Before enabling the CTB, set up any external components (such as resistors)
  47:Generated_Source\PSoC6\pdl\drivers\peripheral\ctb/cy_ctb.h **** * that are needed for the design. To configure the entire hardware block, call \ref Cy_CTB_Init.
  48:Generated_Source\PSoC6\pdl\drivers\peripheral\ctb/cy_ctb.h **** * The base address of the CTB hardware can be found in the device specific header file.
  49:Generated_Source\PSoC6\pdl\drivers\peripheral\ctb/cy_ctb.h **** * Alternatively, to configure only one opamp without any routing, call \ref Cy_CTB_OpampInit.
  50:Generated_Source\PSoC6\pdl\drivers\peripheral\ctb/cy_ctb.h **** * The driver also provides a \ref Cy_CTB_FastInit function for fast and easy initialization of the 
  51:Generated_Source\PSoC6\pdl\drivers\peripheral\ctb/cy_ctb.h **** * based on commonly used configurations. They are pre-defined in the driver as:
  52:Generated_Source\PSoC6\pdl\drivers\peripheral\ctb/cy_ctb.h **** *
  53:Generated_Source\PSoC6\pdl\drivers\peripheral\ctb/cy_ctb.h **** * <b> Opamp0 </b>
  54:Generated_Source\PSoC6\pdl\drivers\peripheral\ctb/cy_ctb.h **** * - \ref Cy_CTB_Fast_Opamp0_Unused
  55:Generated_Source\PSoC6\pdl\drivers\peripheral\ctb/cy_ctb.h **** * - \ref Cy_CTB_Fast_Opamp0_Comp
  56:Generated_Source\PSoC6\pdl\drivers\peripheral\ctb/cy_ctb.h **** * - \ref Cy_CTB_Fast_Opamp0_Opamp1x
  57:Generated_Source\PSoC6\pdl\drivers\peripheral\ctb/cy_ctb.h **** * - \ref Cy_CTB_Fast_Opamp0_Opamp10x
  58:Generated_Source\PSoC6\pdl\drivers\peripheral\ctb/cy_ctb.h **** * - \ref Cy_CTB_Fast_Opamp0_Diffamp
  59:Generated_Source\PSoC6\pdl\drivers\peripheral\ctb/cy_ctb.h **** * - \ref Cy_CTB_Fast_Opamp0_Vdac_Out
  60:Generated_Source\PSoC6\pdl\drivers\peripheral\ctb/cy_ctb.h **** * - \ref Cy_CTB_Fast_Opamp0_Vdac_Out_SH
  61:Generated_Source\PSoC6\pdl\drivers\peripheral\ctb/cy_ctb.h **** *
  62:Generated_Source\PSoC6\pdl\drivers\peripheral\ctb/cy_ctb.h **** * <b> Opamp1 </b>
  63:Generated_Source\PSoC6\pdl\drivers\peripheral\ctb/cy_ctb.h **** * - \ref Cy_CTB_Fast_Opamp1_Unused
  64:Generated_Source\PSoC6\pdl\drivers\peripheral\ctb/cy_ctb.h **** * - \ref Cy_CTB_Fast_Opamp1_Comp
  65:Generated_Source\PSoC6\pdl\drivers\peripheral\ctb/cy_ctb.h **** * - \ref Cy_CTB_Fast_Opamp1_Opamp1x
  66:Generated_Source\PSoC6\pdl\drivers\peripheral\ctb/cy_ctb.h **** * - \ref Cy_CTB_Fast_Opamp1_Opamp10x
  67:Generated_Source\PSoC6\pdl\drivers\peripheral\ctb/cy_ctb.h **** * - \ref Cy_CTB_Fast_Opamp1_Diffamp
  68:Generated_Source\PSoC6\pdl\drivers\peripheral\ctb/cy_ctb.h **** * - \ref Cy_CTB_Fast_Opamp1_Vdac_Ref_Aref
  69:Generated_Source\PSoC6\pdl\drivers\peripheral\ctb/cy_ctb.h **** * - \ref Cy_CTB_Fast_Opamp1_Vdac_Ref_Pin5
  70:Generated_Source\PSoC6\pdl\drivers\peripheral\ctb/cy_ctb.h **** *
  71:Generated_Source\PSoC6\pdl\drivers\peripheral\ctb/cy_ctb.h **** * After initialization, call \ref Cy_CTB_Enable to enable the hardware.
  72:Generated_Source\PSoC6\pdl\drivers\peripheral\ctb/cy_ctb.h **** *
  73:Generated_Source\PSoC6\pdl\drivers\peripheral\ctb/cy_ctb.h **** * \section group_ctb_io_connections Input/Output Connections
  74:Generated_Source\PSoC6\pdl\drivers\peripheral\ctb/cy_ctb.h **** *
  75:Generated_Source\PSoC6\pdl\drivers\peripheral\ctb/cy_ctb.h **** * The CTB has internal switches to support flexible input and output routing. If these switches
  76:Generated_Source\PSoC6\pdl\drivers\peripheral\ctb/cy_ctb.h **** * have not been configured during initialization, call \ref Cy_CTB_SetAnalogSwitch to
  77:Generated_Source\PSoC6\pdl\drivers\peripheral\ctb/cy_ctb.h **** * make the input and output connections.
  78:Generated_Source\PSoC6\pdl\drivers\peripheral\ctb/cy_ctb.h **** *
  79:Generated_Source\PSoC6\pdl\drivers\peripheral\ctb/cy_ctb.h **** * \snippet ctb_sut_01.cydsn/main_cm4.c CTB_SNIPPET_SET_ANALOG_SWITCH
  80:Generated_Source\PSoC6\pdl\drivers\peripheral\ctb/cy_ctb.h **** *
  81:Generated_Source\PSoC6\pdl\drivers\peripheral\ctb/cy_ctb.h **** * As shown in the CTB switch diagram, the 10x output of OA0 and OA1 have dedicated
  82:Generated_Source\PSoC6\pdl\drivers\peripheral\ctb/cy_ctb.h **** * connections to Pin 2 and Pin 3, respectively, of the CTB port. If different output
  83:Generated_Source\PSoC6\pdl\drivers\peripheral\ctb/cy_ctb.h **** * connections are required, the other CTB switches and/or AMUXBUX A/B switches can be used.
  84:Generated_Source\PSoC6\pdl\drivers\peripheral\ctb/cy_ctb.h **** *
  85:Generated_Source\PSoC6\pdl\drivers\peripheral\ctb/cy_ctb.h **** * \section group_ctb_comparator Comparator Mode
  86:Generated_Source\PSoC6\pdl\drivers\peripheral\ctb/cy_ctb.h **** *
  87:Generated_Source\PSoC6\pdl\drivers\peripheral\ctb/cy_ctb.h **** * Each opamp can be configured as a comparator. Note that when used as a
  88:Generated_Source\PSoC6\pdl\drivers\peripheral\ctb/cy_ctb.h **** * comparator, the hardware shuts down the 1X and 10X output drivers.
  89:Generated_Source\PSoC6\pdl\drivers\peripheral\ctb/cy_ctb.h **** * Specific to the comparator mode, there is an optional 10 mV input hysteresis
ARM GAS  C:\Users\gjl\AppData\Local\Temp\cckcOS93.s 			page 35


  90:Generated_Source\PSoC6\pdl\drivers\peripheral\ctb/cy_ctb.h **** * and configurable edge detection interrupt handling.
  91:Generated_Source\PSoC6\pdl\drivers\peripheral\ctb/cy_ctb.h **** *
  92:Generated_Source\PSoC6\pdl\drivers\peripheral\ctb/cy_ctb.h **** * - Negative input terminal: This input is usually connected to the reference voltage.
  93:Generated_Source\PSoC6\pdl\drivers\peripheral\ctb/cy_ctb.h **** * - Positive input terminal: This input is usually connected to the voltage that is being compared.
  94:Generated_Source\PSoC6\pdl\drivers\peripheral\ctb/cy_ctb.h **** * - Comparator digital output: This output goes high when the positive input voltage
  95:Generated_Source\PSoC6\pdl\drivers\peripheral\ctb/cy_ctb.h **** *   is greater than the negative input voltage.
  96:Generated_Source\PSoC6\pdl\drivers\peripheral\ctb/cy_ctb.h **** *
  97:Generated_Source\PSoC6\pdl\drivers\peripheral\ctb/cy_ctb.h **** * The comparator output can be routed to a pin or other components using HSIOM or trigger muxes.
  98:Generated_Source\PSoC6\pdl\drivers\peripheral\ctb/cy_ctb.h **** *
  99:Generated_Source\PSoC6\pdl\drivers\peripheral\ctb/cy_ctb.h **** * \snippet ctb_sut_01.cydsn/main_cm0p.c SNIPPET_COMP_OUT_ROUTING
 100:Generated_Source\PSoC6\pdl\drivers\peripheral\ctb/cy_ctb.h **** *
 101:Generated_Source\PSoC6\pdl\drivers\peripheral\ctb/cy_ctb.h **** * \subsection group_ctb_comparator_handling_interrupts Handling interrupts
 102:Generated_Source\PSoC6\pdl\drivers\peripheral\ctb/cy_ctb.h **** *
 103:Generated_Source\PSoC6\pdl\drivers\peripheral\ctb/cy_ctb.h **** * The comparator output is connected to an edge detector
 104:Generated_Source\PSoC6\pdl\drivers\peripheral\ctb/cy_ctb.h **** * block, which is used to detect the edge (rising, falling, both, or disabled)
 105:Generated_Source\PSoC6\pdl\drivers\peripheral\ctb/cy_ctb.h **** * for interrupt generation.
 106:Generated_Source\PSoC6\pdl\drivers\peripheral\ctb/cy_ctb.h **** *
 107:Generated_Source\PSoC6\pdl\drivers\peripheral\ctb/cy_ctb.h **** * The following code snippet demonstrates how to implement a routine to handle the interrupt.
 108:Generated_Source\PSoC6\pdl\drivers\peripheral\ctb/cy_ctb.h **** * The routine gets called when any comparator on the device generates an interrupt.
 109:Generated_Source\PSoC6\pdl\drivers\peripheral\ctb/cy_ctb.h **** *
 110:Generated_Source\PSoC6\pdl\drivers\peripheral\ctb/cy_ctb.h **** * \snippet ctb_sut_01.cydsn/main_cm0p.c SNIPPET_COMP_ISR
 111:Generated_Source\PSoC6\pdl\drivers\peripheral\ctb/cy_ctb.h **** *
 112:Generated_Source\PSoC6\pdl\drivers\peripheral\ctb/cy_ctb.h **** * The following code snippet demonstrates how to configure and enable the interrupt.
 113:Generated_Source\PSoC6\pdl\drivers\peripheral\ctb/cy_ctb.h **** *
 114:Generated_Source\PSoC6\pdl\drivers\peripheral\ctb/cy_ctb.h **** * \snippet ctb_sut_01.cydsn/main_cm0p.c SNIPPET_COMP_INTR_SETUP
 115:Generated_Source\PSoC6\pdl\drivers\peripheral\ctb/cy_ctb.h **** *
 116:Generated_Source\PSoC6\pdl\drivers\peripheral\ctb/cy_ctb.h **** * \section group_ctb_opamp_range Opamp Input and Output Range
 117:Generated_Source\PSoC6\pdl\drivers\peripheral\ctb/cy_ctb.h **** *
 118:Generated_Source\PSoC6\pdl\drivers\peripheral\ctb/cy_ctb.h **** * The input range of the opamp can be rail-to-rail if the charge pump is enabled.
 119:Generated_Source\PSoC6\pdl\drivers\peripheral\ctb/cy_ctb.h **** * Without the charge pump, the input range is 0 V to VDDA - 1.5 V. The output range
 120:Generated_Source\PSoC6\pdl\drivers\peripheral\ctb/cy_ctb.h **** * of the opamp is typically 0.2 V to VDDA - 0.2 V and will depend on the load. See the
 121:Generated_Source\PSoC6\pdl\drivers\peripheral\ctb/cy_ctb.h **** * device datasheet for more detail.
 122:Generated_Source\PSoC6\pdl\drivers\peripheral\ctb/cy_ctb.h **** *
 123:Generated_Source\PSoC6\pdl\drivers\peripheral\ctb/cy_ctb.h **** * <table class="doxtable">
 124:Generated_Source\PSoC6\pdl\drivers\peripheral\ctb/cy_ctb.h **** *   <tr>
 125:Generated_Source\PSoC6\pdl\drivers\peripheral\ctb/cy_ctb.h **** *     <th>Charge Pump</th>
 126:Generated_Source\PSoC6\pdl\drivers\peripheral\ctb/cy_ctb.h **** *     <th>Input Range</th></tr>
 127:Generated_Source\PSoC6\pdl\drivers\peripheral\ctb/cy_ctb.h **** *     <th>Output Range</th></tr>
 128:Generated_Source\PSoC6\pdl\drivers\peripheral\ctb/cy_ctb.h **** *   <tr>
 129:Generated_Source\PSoC6\pdl\drivers\peripheral\ctb/cy_ctb.h **** *     <td>Enabled</td>
 130:Generated_Source\PSoC6\pdl\drivers\peripheral\ctb/cy_ctb.h **** *     <td>0 V to VDDA</td>
 131:Generated_Source\PSoC6\pdl\drivers\peripheral\ctb/cy_ctb.h **** *     <td>0.2 V to VDDA - 0.2 V</td>
 132:Generated_Source\PSoC6\pdl\drivers\peripheral\ctb/cy_ctb.h **** *   </tr>
 133:Generated_Source\PSoC6\pdl\drivers\peripheral\ctb/cy_ctb.h **** *   <tr>
 134:Generated_Source\PSoC6\pdl\drivers\peripheral\ctb/cy_ctb.h **** *     <td>Disabled</td>
 135:Generated_Source\PSoC6\pdl\drivers\peripheral\ctb/cy_ctb.h **** *     <td>0 V to VDDA - 1.5 V</td>
 136:Generated_Source\PSoC6\pdl\drivers\peripheral\ctb/cy_ctb.h **** *     <td>0.2 V to VDDA - 0.2 V</td>
 137:Generated_Source\PSoC6\pdl\drivers\peripheral\ctb/cy_ctb.h **** *   </tr>
 138:Generated_Source\PSoC6\pdl\drivers\peripheral\ctb/cy_ctb.h **** * </table>
 139:Generated_Source\PSoC6\pdl\drivers\peripheral\ctb/cy_ctb.h **** *
 140:Generated_Source\PSoC6\pdl\drivers\peripheral\ctb/cy_ctb.h **** * \section group_ctb_sample_hold Sample and Hold Mode
 141:Generated_Source\PSoC6\pdl\drivers\peripheral\ctb/cy_ctb.h **** *
 142:Generated_Source\PSoC6\pdl\drivers\peripheral\ctb/cy_ctb.h **** * The CTB has a sample and hold (SH) circuit at the non-inverting input of Opamp0.
 143:Generated_Source\PSoC6\pdl\drivers\peripheral\ctb/cy_ctb.h **** * The circuit includes a hold capacitor, Chold, with a firmware controlled switch, CHD.
 144:Generated_Source\PSoC6\pdl\drivers\peripheral\ctb/cy_ctb.h **** * Sampling and holding the source voltage is performed
 145:Generated_Source\PSoC6\pdl\drivers\peripheral\ctb/cy_ctb.h **** * by closing and opening appropriate switches in the CTB using firmware.
 146:Generated_Source\PSoC6\pdl\drivers\peripheral\ctb/cy_ctb.h **** * If the SH circuit is used for the CTDAC, the \ref Cy_CTB_DACSampleAndHold function
ARM GAS  C:\Users\gjl\AppData\Local\Temp\cckcOS93.s 			page 36


 147:Generated_Source\PSoC6\pdl\drivers\peripheral\ctb/cy_ctb.h **** * should be called.
 148:Generated_Source\PSoC6\pdl\drivers\peripheral\ctb/cy_ctb.h **** *
 149:Generated_Source\PSoC6\pdl\drivers\peripheral\ctb/cy_ctb.h **** * \image html ctb_fast_config_vdac_sh.png
 150:Generated_Source\PSoC6\pdl\drivers\peripheral\ctb/cy_ctb.h **** * \image latex ctb_fast_config_vdac_sh.png
 151:Generated_Source\PSoC6\pdl\drivers\peripheral\ctb/cy_ctb.h **** *
 152:Generated_Source\PSoC6\pdl\drivers\peripheral\ctb/cy_ctb.h **** * \section group_ctb_dependencies Configuration Dependencies
 153:Generated_Source\PSoC6\pdl\drivers\peripheral\ctb/cy_ctb.h **** *
 154:Generated_Source\PSoC6\pdl\drivers\peripheral\ctb/cy_ctb.h **** * The CTB relies on other blocks to function properly. The dependencies
 155:Generated_Source\PSoC6\pdl\drivers\peripheral\ctb/cy_ctb.h **** * are documented here.
 156:Generated_Source\PSoC6\pdl\drivers\peripheral\ctb/cy_ctb.h **** *
 157:Generated_Source\PSoC6\pdl\drivers\peripheral\ctb/cy_ctb.h **** * \subsection group_ctb_dependencies_charge_pump Charge Pump Configuration
 158:Generated_Source\PSoC6\pdl\drivers\peripheral\ctb/cy_ctb.h **** *
 159:Generated_Source\PSoC6\pdl\drivers\peripheral\ctb/cy_ctb.h **** * Each opamp of the CTB has a charge pump that when enabled increases the
 160:Generated_Source\PSoC6\pdl\drivers\peripheral\ctb/cy_ctb.h **** * input range to the supply rails. When disabled, the opamp input range is 0 - VDDA - 1.5 V.
 161:Generated_Source\PSoC6\pdl\drivers\peripheral\ctb/cy_ctb.h **** * When enabled, the pump requires a clock.
 162:Generated_Source\PSoC6\pdl\drivers\peripheral\ctb/cy_ctb.h **** * Call the \ref Cy_CTB_SetClkPumpSource function in the \ref group_sysanalog driver to
 163:Generated_Source\PSoC6\pdl\drivers\peripheral\ctb/cy_ctb.h **** * set the clock source for all CTBs. This clock can come from one of two sources:
 164:Generated_Source\PSoC6\pdl\drivers\peripheral\ctb/cy_ctb.h **** *
 165:Generated_Source\PSoC6\pdl\drivers\peripheral\ctb/cy_ctb.h **** *   -# A dedicated clock divider from one of the CLK_PATH in the SRSS
 166:Generated_Source\PSoC6\pdl\drivers\peripheral\ctb/cy_ctb.h **** *
 167:Generated_Source\PSoC6\pdl\drivers\peripheral\ctb/cy_ctb.h **** *      Call the following functions to configure the pump clock from the SRSS:
 168:Generated_Source\PSoC6\pdl\drivers\peripheral\ctb/cy_ctb.h **** *       - \ref Cy_SysClk_ClkPumpSetSource
 169:Generated_Source\PSoC6\pdl\drivers\peripheral\ctb/cy_ctb.h **** *       - \ref Cy_SysClk_ClkPumpSetDivider
 170:Generated_Source\PSoC6\pdl\drivers\peripheral\ctb/cy_ctb.h **** *       - \ref Cy_SysClk_ClkPumpEnable
 171:Generated_Source\PSoC6\pdl\drivers\peripheral\ctb/cy_ctb.h **** *
 172:Generated_Source\PSoC6\pdl\drivers\peripheral\ctb/cy_ctb.h **** *      \snippet ctb_sut_01.cydsn/main_cm4.c CTB_SNIPPET_SET_CLK_PUMP_SOURCE_SRSS
 173:Generated_Source\PSoC6\pdl\drivers\peripheral\ctb/cy_ctb.h **** *
 174:Generated_Source\PSoC6\pdl\drivers\peripheral\ctb/cy_ctb.h **** *   -# One of the Peri Clock dividers
 175:Generated_Source\PSoC6\pdl\drivers\peripheral\ctb/cy_ctb.h **** *
 176:Generated_Source\PSoC6\pdl\drivers\peripheral\ctb/cy_ctb.h **** *      Call the following functions to configure a Peri Clock divider as the
 177:Generated_Source\PSoC6\pdl\drivers\peripheral\ctb/cy_ctb.h **** *      pump clock:
 178:Generated_Source\PSoC6\pdl\drivers\peripheral\ctb/cy_ctb.h **** *       - \ref Cy_SysClk_PeriphAssignDivider with the IP block set to PCLK_PASS_CLOCK_PUMP_PERI
 179:Generated_Source\PSoC6\pdl\drivers\peripheral\ctb/cy_ctb.h **** *       - \ref Cy_SysClk_PeriphSetDivider
 180:Generated_Source\PSoC6\pdl\drivers\peripheral\ctb/cy_ctb.h **** *       - \ref Cy_SysClk_PeriphEnableDivider
 181:Generated_Source\PSoC6\pdl\drivers\peripheral\ctb/cy_ctb.h **** *
 182:Generated_Source\PSoC6\pdl\drivers\peripheral\ctb/cy_ctb.h **** *      \snippet ctb_sut_01.cydsn/main_cm4.c CTB_SNIPPET_SET_CLK_PUMP_SOURCE_PERI
 183:Generated_Source\PSoC6\pdl\drivers\peripheral\ctb/cy_ctb.h **** *
 184:Generated_Source\PSoC6\pdl\drivers\peripheral\ctb/cy_ctb.h **** * When the charge pump is enabled, the clock frequency should be set as follows:
 185:Generated_Source\PSoC6\pdl\drivers\peripheral\ctb/cy_ctb.h **** *
 186:Generated_Source\PSoC6\pdl\drivers\peripheral\ctb/cy_ctb.h **** * <table class="doxtable">
 187:Generated_Source\PSoC6\pdl\drivers\peripheral\ctb/cy_ctb.h **** *   <tr><th>Opamp Power Level</th><th>Pump Clock Freq</th></tr>
 188:Generated_Source\PSoC6\pdl\drivers\peripheral\ctb/cy_ctb.h **** *   <tr>
 189:Generated_Source\PSoC6\pdl\drivers\peripheral\ctb/cy_ctb.h **** *     <td>Low or Medium</td>
 190:Generated_Source\PSoC6\pdl\drivers\peripheral\ctb/cy_ctb.h **** *     <td>8 - 24 MHz</td>
 191:Generated_Source\PSoC6\pdl\drivers\peripheral\ctb/cy_ctb.h **** *   </tr>
 192:Generated_Source\PSoC6\pdl\drivers\peripheral\ctb/cy_ctb.h **** *   <tr>
 193:Generated_Source\PSoC6\pdl\drivers\peripheral\ctb/cy_ctb.h **** *     <td>High</td>
 194:Generated_Source\PSoC6\pdl\drivers\peripheral\ctb/cy_ctb.h **** *     <td>24 MHz</td>
 195:Generated_Source\PSoC6\pdl\drivers\peripheral\ctb/cy_ctb.h **** *   </tr>
 196:Generated_Source\PSoC6\pdl\drivers\peripheral\ctb/cy_ctb.h **** * </table>
 197:Generated_Source\PSoC6\pdl\drivers\peripheral\ctb/cy_ctb.h **** *
 198:Generated_Source\PSoC6\pdl\drivers\peripheral\ctb/cy_ctb.h **** * The High power level of the opamp requires a 24 MHz pump clock.
 199:Generated_Source\PSoC6\pdl\drivers\peripheral\ctb/cy_ctb.h **** * In Deep Sleep mode, all high frequency clocks are
 200:Generated_Source\PSoC6\pdl\drivers\peripheral\ctb/cy_ctb.h **** * disabled and the charge pump will be disabled.
 201:Generated_Source\PSoC6\pdl\drivers\peripheral\ctb/cy_ctb.h **** *
 202:Generated_Source\PSoC6\pdl\drivers\peripheral\ctb/cy_ctb.h **** * \note
 203:Generated_Source\PSoC6\pdl\drivers\peripheral\ctb/cy_ctb.h **** * The same pump clock is used by all opamps on the device. Be aware of this
ARM GAS  C:\Users\gjl\AppData\Local\Temp\cckcOS93.s 			page 37


 204:Generated_Source\PSoC6\pdl\drivers\peripheral\ctb/cy_ctb.h **** * when configuring different opamps to different power levels.
 205:Generated_Source\PSoC6\pdl\drivers\peripheral\ctb/cy_ctb.h **** *
 206:Generated_Source\PSoC6\pdl\drivers\peripheral\ctb/cy_ctb.h **** * \subsection group_ctb_dependencies_reference_current Reference Current Configurations
 207:Generated_Source\PSoC6\pdl\drivers\peripheral\ctb/cy_ctb.h **** *
 208:Generated_Source\PSoC6\pdl\drivers\peripheral\ctb/cy_ctb.h **** * The CTB uses two reference current generators, IPTAT and IZTAT, from
 209:Generated_Source\PSoC6\pdl\drivers\peripheral\ctb/cy_ctb.h **** * the AREF block (see \ref group_sysanalog driver). The IPTAT current is
 210:Generated_Source\PSoC6\pdl\drivers\peripheral\ctb/cy_ctb.h **** * used to trim the slope of the opamp offset across temperature.
 211:Generated_Source\PSoC6\pdl\drivers\peripheral\ctb/cy_ctb.h **** * The AREF must be initialized and enabled for the CTB to function properly.
 212:Generated_Source\PSoC6\pdl\drivers\peripheral\ctb/cy_ctb.h **** *
 213:Generated_Source\PSoC6\pdl\drivers\peripheral\ctb/cy_ctb.h **** * If the CTB is configured to operate in Deep Sleep mode,
 214:Generated_Source\PSoC6\pdl\drivers\peripheral\ctb/cy_ctb.h **** * the appropriate reference current generators from the AREF block must be enabled in Deep Sleep.
 215:Generated_Source\PSoC6\pdl\drivers\peripheral\ctb/cy_ctb.h **** * When waking up from Deep Sleep,
 216:Generated_Source\PSoC6\pdl\drivers\peripheral\ctb/cy_ctb.h **** * the AREF block has a wakeup time that must be
 217:Generated_Source\PSoC6\pdl\drivers\peripheral\ctb/cy_ctb.h **** * considered. Note that configurations in the AREF block
 218:Generated_Source\PSoC6\pdl\drivers\peripheral\ctb/cy_ctb.h **** * are chip wide and affect all CTBs on the device.
 219:Generated_Source\PSoC6\pdl\drivers\peripheral\ctb/cy_ctb.h **** *
 220:Generated_Source\PSoC6\pdl\drivers\peripheral\ctb/cy_ctb.h **** * The following reference current configurations are supported:
 221:Generated_Source\PSoC6\pdl\drivers\peripheral\ctb/cy_ctb.h **** *
 222:Generated_Source\PSoC6\pdl\drivers\peripheral\ctb/cy_ctb.h **** * <table class="doxtable">
 223:Generated_Source\PSoC6\pdl\drivers\peripheral\ctb/cy_ctb.h **** *   <tr><th>Reference Current Level</th><th>Supported Mode</th><th>Input Range</th></tr>
 224:Generated_Source\PSoC6\pdl\drivers\peripheral\ctb/cy_ctb.h **** *   <tr>
 225:Generated_Source\PSoC6\pdl\drivers\peripheral\ctb/cy_ctb.h **** *     <td>1 uA</td>
 226:Generated_Source\PSoC6\pdl\drivers\peripheral\ctb/cy_ctb.h **** *     <td>Active/Low Power</td>
 227:Generated_Source\PSoC6\pdl\drivers\peripheral\ctb/cy_ctb.h **** *     <td>Rail-to-Rail (charge pump enabled)</td>
 228:Generated_Source\PSoC6\pdl\drivers\peripheral\ctb/cy_ctb.h **** *   </tr>
 229:Generated_Source\PSoC6\pdl\drivers\peripheral\ctb/cy_ctb.h **** *   <tr>
 230:Generated_Source\PSoC6\pdl\drivers\peripheral\ctb/cy_ctb.h **** *     <td>1 uA</td>
 231:Generated_Source\PSoC6\pdl\drivers\peripheral\ctb/cy_ctb.h **** *     <td>Active/Low Power/Deep Sleep</td>
 232:Generated_Source\PSoC6\pdl\drivers\peripheral\ctb/cy_ctb.h **** *     <td>0 - VDDA-1.5 V (charge pump disabled)</td>
 233:Generated_Source\PSoC6\pdl\drivers\peripheral\ctb/cy_ctb.h **** *   </tr>
 234:Generated_Source\PSoC6\pdl\drivers\peripheral\ctb/cy_ctb.h **** *   <tr>
 235:Generated_Source\PSoC6\pdl\drivers\peripheral\ctb/cy_ctb.h **** *     <td>100 nA</td>
 236:Generated_Source\PSoC6\pdl\drivers\peripheral\ctb/cy_ctb.h **** *     <td>Active/Low Power/Deep Sleep</td>
 237:Generated_Source\PSoC6\pdl\drivers\peripheral\ctb/cy_ctb.h **** *     <td>0 - VDDA-1.5 V (charge pump disabled)</td>
 238:Generated_Source\PSoC6\pdl\drivers\peripheral\ctb/cy_ctb.h **** *   </tr>
 239:Generated_Source\PSoC6\pdl\drivers\peripheral\ctb/cy_ctb.h **** * </table>
 240:Generated_Source\PSoC6\pdl\drivers\peripheral\ctb/cy_ctb.h **** *
 241:Generated_Source\PSoC6\pdl\drivers\peripheral\ctb/cy_ctb.h **** * The first configuration provides low offset and drift with maximum input range
 242:Generated_Source\PSoC6\pdl\drivers\peripheral\ctb/cy_ctb.h **** * while consuming the most current.
 243:Generated_Source\PSoC6\pdl\drivers\peripheral\ctb/cy_ctb.h **** * For Deep Sleep operation, use the other two configurations with the charge pump disabled.
 244:Generated_Source\PSoC6\pdl\drivers\peripheral\ctb/cy_ctb.h **** * For ultra low power, use the 100 nA current level.
 245:Generated_Source\PSoC6\pdl\drivers\peripheral\ctb/cy_ctb.h **** * To configure the opamps to operate in one of these options, call \ref Cy_CTB_SetCurrentMode.
 246:Generated_Source\PSoC6\pdl\drivers\peripheral\ctb/cy_ctb.h **** *
 247:Generated_Source\PSoC6\pdl\drivers\peripheral\ctb/cy_ctb.h **** * \subsection group_ctb_dependencies_sample_hold Sample and Hold Switch Control
 248:Generated_Source\PSoC6\pdl\drivers\peripheral\ctb/cy_ctb.h **** *
 249:Generated_Source\PSoC6\pdl\drivers\peripheral\ctb/cy_ctb.h **** * If you are using rev-08 of the CY8CKIT-062, the following eight switches
 250:Generated_Source\PSoC6\pdl\drivers\peripheral\ctb/cy_ctb.h **** * in the CTB are enabled by the CTDAC IP block:
 251:Generated_Source\PSoC6\pdl\drivers\peripheral\ctb/cy_ctb.h **** *
 252:Generated_Source\PSoC6\pdl\drivers\peripheral\ctb/cy_ctb.h **** *   - COS, CA0, CHD, CH6, COB, COR, CRS, and CRD
 253:Generated_Source\PSoC6\pdl\drivers\peripheral\ctb/cy_ctb.h **** *
 254:Generated_Source\PSoC6\pdl\drivers\peripheral\ctb/cy_ctb.h **** * On the rev-08 board, if any of the above switches are used, you must call \ref Cy_CTDAC_Enable
 255:Generated_Source\PSoC6\pdl\drivers\peripheral\ctb/cy_ctb.h **** * to enable these switches.
 256:Generated_Source\PSoC6\pdl\drivers\peripheral\ctb/cy_ctb.h **** *
 257:Generated_Source\PSoC6\pdl\drivers\peripheral\ctb/cy_ctb.h **** * Additionally, on the rev-08 board, if any of the switches are used in Deep Sleep mode,
 258:Generated_Source\PSoC6\pdl\drivers\peripheral\ctb/cy_ctb.h **** * the CTDAC must also be configured to operate in Deep Sleep (see \ref Cy_CTDAC_SetDeepSleepMode).
 259:Generated_Source\PSoC6\pdl\drivers\peripheral\ctb/cy_ctb.h **** *
 260:Generated_Source\PSoC6\pdl\drivers\peripheral\ctb/cy_ctb.h **** * In later revisions of the board, the switches are enabled by the CTB block so
ARM GAS  C:\Users\gjl\AppData\Local\Temp\cckcOS93.s 			page 38


 261:Generated_Source\PSoC6\pdl\drivers\peripheral\ctb/cy_ctb.h **** * calls to the CTDAC IP block are not necessary.
 262:Generated_Source\PSoC6\pdl\drivers\peripheral\ctb/cy_ctb.h **** *
 263:Generated_Source\PSoC6\pdl\drivers\peripheral\ctb/cy_ctb.h **** * \section group_ctb_more_information More Information
 264:Generated_Source\PSoC6\pdl\drivers\peripheral\ctb/cy_ctb.h **** *
 265:Generated_Source\PSoC6\pdl\drivers\peripheral\ctb/cy_ctb.h **** * Refer to technical reference manual (TRM) and the device datasheet.
 266:Generated_Source\PSoC6\pdl\drivers\peripheral\ctb/cy_ctb.h **** *
 267:Generated_Source\PSoC6\pdl\drivers\peripheral\ctb/cy_ctb.h **** * \section group_ctb_MISRA MISRA-C Compliance]
 268:Generated_Source\PSoC6\pdl\drivers\peripheral\ctb/cy_ctb.h **** *
 269:Generated_Source\PSoC6\pdl\drivers\peripheral\ctb/cy_ctb.h **** * This driver does not have any specific deviations.
 270:Generated_Source\PSoC6\pdl\drivers\peripheral\ctb/cy_ctb.h **** *
 271:Generated_Source\PSoC6\pdl\drivers\peripheral\ctb/cy_ctb.h **** * \section group_ctb_changelog Changelog
 272:Generated_Source\PSoC6\pdl\drivers\peripheral\ctb/cy_ctb.h **** * <table class="doxtable">
 273:Generated_Source\PSoC6\pdl\drivers\peripheral\ctb/cy_ctb.h **** *   <tr><th>Version</th><th>Changes</th><th>Reason for Change</th></tr>
 274:Generated_Source\PSoC6\pdl\drivers\peripheral\ctb/cy_ctb.h **** *   <tr>
 275:Generated_Source\PSoC6\pdl\drivers\peripheral\ctb/cy_ctb.h **** *     <td>1.0</td>
 276:Generated_Source\PSoC6\pdl\drivers\peripheral\ctb/cy_ctb.h **** *     <td>Initial version</td>
 277:Generated_Source\PSoC6\pdl\drivers\peripheral\ctb/cy_ctb.h **** *     <td></td>
 278:Generated_Source\PSoC6\pdl\drivers\peripheral\ctb/cy_ctb.h **** *   </tr>
 279:Generated_Source\PSoC6\pdl\drivers\peripheral\ctb/cy_ctb.h **** * </table>
 280:Generated_Source\PSoC6\pdl\drivers\peripheral\ctb/cy_ctb.h **** *
 281:Generated_Source\PSoC6\pdl\drivers\peripheral\ctb/cy_ctb.h **** * \defgroup group_ctb_macros Macros
 282:Generated_Source\PSoC6\pdl\drivers\peripheral\ctb/cy_ctb.h **** * \defgroup group_ctb_functions Functions
 283:Generated_Source\PSoC6\pdl\drivers\peripheral\ctb/cy_ctb.h **** *   \{
 284:Generated_Source\PSoC6\pdl\drivers\peripheral\ctb/cy_ctb.h **** *       \defgroup group_ctb_functions_init          Initialization Functions
 285:Generated_Source\PSoC6\pdl\drivers\peripheral\ctb/cy_ctb.h **** *       \defgroup group_ctb_functions_basic         Basic Configuration Functions
 286:Generated_Source\PSoC6\pdl\drivers\peripheral\ctb/cy_ctb.h **** *       \defgroup group_ctb_functions_comparator    Comparator Functions
 287:Generated_Source\PSoC6\pdl\drivers\peripheral\ctb/cy_ctb.h **** *       \defgroup group_ctb_functions_sample_hold   Sample and Hold Functions
 288:Generated_Source\PSoC6\pdl\drivers\peripheral\ctb/cy_ctb.h **** *       \defgroup group_ctb_functions_interrupts    Interrupt Functions
 289:Generated_Source\PSoC6\pdl\drivers\peripheral\ctb/cy_ctb.h **** *       \defgroup group_ctb_functions_switches      Switch Control Functions
 290:Generated_Source\PSoC6\pdl\drivers\peripheral\ctb/cy_ctb.h **** *       \defgroup group_ctb_functions_trim          Offset and Slope Trim Functions
 291:Generated_Source\PSoC6\pdl\drivers\peripheral\ctb/cy_ctb.h **** *       \defgroup group_ctb_functions_aref          Reference Current Mode Functions
 292:Generated_Source\PSoC6\pdl\drivers\peripheral\ctb/cy_ctb.h **** *   \}
 293:Generated_Source\PSoC6\pdl\drivers\peripheral\ctb/cy_ctb.h **** * \defgroup group_ctb_globals Global Variables
 294:Generated_Source\PSoC6\pdl\drivers\peripheral\ctb/cy_ctb.h **** * \defgroup group_ctb_data_structures Data Structures
 295:Generated_Source\PSoC6\pdl\drivers\peripheral\ctb/cy_ctb.h **** * \defgroup group_ctb_enums Enumerated Types
 296:Generated_Source\PSoC6\pdl\drivers\peripheral\ctb/cy_ctb.h **** */
 297:Generated_Source\PSoC6\pdl\drivers\peripheral\ctb/cy_ctb.h **** 
 298:Generated_Source\PSoC6\pdl\drivers\peripheral\ctb/cy_ctb.h **** #if !defined(CY_CTB_H)
 299:Generated_Source\PSoC6\pdl\drivers\peripheral\ctb/cy_ctb.h **** #define CY_CTB_H
 300:Generated_Source\PSoC6\pdl\drivers\peripheral\ctb/cy_ctb.h **** 
 301:Generated_Source\PSoC6\pdl\drivers\peripheral\ctb/cy_ctb.h **** #include <stdint.h>
 302:Generated_Source\PSoC6\pdl\drivers\peripheral\ctb/cy_ctb.h **** #include <stdbool.h>
 303:Generated_Source\PSoC6\pdl\drivers\peripheral\ctb/cy_ctb.h **** #include <stddef.h>
 304:Generated_Source\PSoC6\pdl\drivers\peripheral\ctb/cy_ctb.h **** #include "cy_device_headers.h"
 305:Generated_Source\PSoC6\pdl\drivers\peripheral\ctb/cy_ctb.h **** #include "syslib/cy_syslib.h"
 306:Generated_Source\PSoC6\pdl\drivers\peripheral\ctb/cy_ctb.h **** #include "sysanalog/cy_sysanalog.h"
 307:Generated_Source\PSoC6\pdl\drivers\peripheral\ctb/cy_ctb.h **** 
 308:Generated_Source\PSoC6\pdl\drivers\peripheral\ctb/cy_ctb.h **** #ifndef CY_IP_MXS40PASS_CTB
 309:Generated_Source\PSoC6\pdl\drivers\peripheral\ctb/cy_ctb.h ****     #error "The CTB driver is not supported on this device"
 310:Generated_Source\PSoC6\pdl\drivers\peripheral\ctb/cy_ctb.h **** #endif
 311:Generated_Source\PSoC6\pdl\drivers\peripheral\ctb/cy_ctb.h **** 
 312:Generated_Source\PSoC6\pdl\drivers\peripheral\ctb/cy_ctb.h **** #if defined(__cplusplus)
 313:Generated_Source\PSoC6\pdl\drivers\peripheral\ctb/cy_ctb.h **** extern "C" {
 314:Generated_Source\PSoC6\pdl\drivers\peripheral\ctb/cy_ctb.h **** #endif
 315:Generated_Source\PSoC6\pdl\drivers\peripheral\ctb/cy_ctb.h **** 
 316:Generated_Source\PSoC6\pdl\drivers\peripheral\ctb/cy_ctb.h **** /** \addtogroup group_ctb_macros
 317:Generated_Source\PSoC6\pdl\drivers\peripheral\ctb/cy_ctb.h **** * \{
ARM GAS  C:\Users\gjl\AppData\Local\Temp\cckcOS93.s 			page 39


 318:Generated_Source\PSoC6\pdl\drivers\peripheral\ctb/cy_ctb.h **** */
 319:Generated_Source\PSoC6\pdl\drivers\peripheral\ctb/cy_ctb.h **** 
 320:Generated_Source\PSoC6\pdl\drivers\peripheral\ctb/cy_ctb.h **** /** Driver major version */
 321:Generated_Source\PSoC6\pdl\drivers\peripheral\ctb/cy_ctb.h **** #define CY_CTB_DRV_VERSION_MAJOR            1
 322:Generated_Source\PSoC6\pdl\drivers\peripheral\ctb/cy_ctb.h **** 
 323:Generated_Source\PSoC6\pdl\drivers\peripheral\ctb/cy_ctb.h **** /** Driver minor version */
 324:Generated_Source\PSoC6\pdl\drivers\peripheral\ctb/cy_ctb.h **** #define CY_CTB_DRV_VERSION_MINOR            0
 325:Generated_Source\PSoC6\pdl\drivers\peripheral\ctb/cy_ctb.h **** 
 326:Generated_Source\PSoC6\pdl\drivers\peripheral\ctb/cy_ctb.h **** /** CTB driver identifier*/
 327:Generated_Source\PSoC6\pdl\drivers\peripheral\ctb/cy_ctb.h **** #define CY_CTB_ID                           CY_PDL_DRV_ID(0x0Bu)
 328:Generated_Source\PSoC6\pdl\drivers\peripheral\ctb/cy_ctb.h **** 
 329:Generated_Source\PSoC6\pdl\drivers\peripheral\ctb/cy_ctb.h **** /** \cond INTERNAL */
 330:Generated_Source\PSoC6\pdl\drivers\peripheral\ctb/cy_ctb.h **** 
 331:Generated_Source\PSoC6\pdl\drivers\peripheral\ctb/cy_ctb.h **** /**< De-init value for most CTB registers */
 332:Generated_Source\PSoC6\pdl\drivers\peripheral\ctb/cy_ctb.h **** #define CY_CTB_DEINIT                       (0uL)
 333:Generated_Source\PSoC6\pdl\drivers\peripheral\ctb/cy_ctb.h **** 
 334:Generated_Source\PSoC6\pdl\drivers\peripheral\ctb/cy_ctb.h **** /**< De-init value for the opamp0 switch control register */
 335:Generated_Source\PSoC6\pdl\drivers\peripheral\ctb/cy_ctb.h **** #define CY_CTB_DEINIT_OA0_SW                (CTBM_OA0_SW_CLEAR_OA0P_A00_Msk \
 336:Generated_Source\PSoC6\pdl\drivers\peripheral\ctb/cy_ctb.h ****                                             | CTBM_OA0_SW_CLEAR_OA0P_A20_Msk \
 337:Generated_Source\PSoC6\pdl\drivers\peripheral\ctb/cy_ctb.h ****                                             | CTBM_OA0_SW_CLEAR_OA0P_A30_Msk \
 338:Generated_Source\PSoC6\pdl\drivers\peripheral\ctb/cy_ctb.h ****                                             | CTBM_OA0_SW_CLEAR_OA0M_A11_Msk \
 339:Generated_Source\PSoC6\pdl\drivers\peripheral\ctb/cy_ctb.h ****                                             | CTBM_OA0_SW_CLEAR_OA0M_A81_Msk \
 340:Generated_Source\PSoC6\pdl\drivers\peripheral\ctb/cy_ctb.h ****                                             | CTBM_OA0_SW_CLEAR_OA0O_D51_Msk \
 341:Generated_Source\PSoC6\pdl\drivers\peripheral\ctb/cy_ctb.h ****                                             | CTBM_OA0_SW_CLEAR_OA0O_D81_Msk)
 342:Generated_Source\PSoC6\pdl\drivers\peripheral\ctb/cy_ctb.h **** 
 343:Generated_Source\PSoC6\pdl\drivers\peripheral\ctb/cy_ctb.h **** /**< De-init value for the opamp1 switch control register */
 344:Generated_Source\PSoC6\pdl\drivers\peripheral\ctb/cy_ctb.h **** #define CY_CTB_DEINIT_OA1_SW                (CTBM_OA1_SW_CLEAR_OA1P_A03_Msk \
 345:Generated_Source\PSoC6\pdl\drivers\peripheral\ctb/cy_ctb.h ****                                             | CTBM_OA1_SW_CLEAR_OA1P_A13_Msk \
 346:Generated_Source\PSoC6\pdl\drivers\peripheral\ctb/cy_ctb.h ****                                             | CTBM_OA1_SW_CLEAR_OA1P_A43_Msk \
 347:Generated_Source\PSoC6\pdl\drivers\peripheral\ctb/cy_ctb.h ****                                             | CTBM_OA1_SW_CLEAR_OA1P_A73_Msk \
 348:Generated_Source\PSoC6\pdl\drivers\peripheral\ctb/cy_ctb.h ****                                             | CTBM_OA1_SW_CLEAR_OA1M_A22_Msk \
 349:Generated_Source\PSoC6\pdl\drivers\peripheral\ctb/cy_ctb.h ****                                             | CTBM_OA1_SW_CLEAR_OA1M_A82_Msk \
 350:Generated_Source\PSoC6\pdl\drivers\peripheral\ctb/cy_ctb.h ****                                             | CTBM_OA1_SW_CLEAR_OA1O_D52_Msk \
 351:Generated_Source\PSoC6\pdl\drivers\peripheral\ctb/cy_ctb.h ****                                             | CTBM_OA1_SW_CLEAR_OA1O_D62_Msk \
 352:Generated_Source\PSoC6\pdl\drivers\peripheral\ctb/cy_ctb.h ****                                             | CTBM_OA1_SW_CLEAR_OA1O_D82_Msk)
 353:Generated_Source\PSoC6\pdl\drivers\peripheral\ctb/cy_ctb.h **** 
 354:Generated_Source\PSoC6\pdl\drivers\peripheral\ctb/cy_ctb.h **** /**< De-init value for the CTDAC switch control register */
 355:Generated_Source\PSoC6\pdl\drivers\peripheral\ctb/cy_ctb.h **** #define CY_CTB_DEINIT_CTD_SW                (CTBM_CTD_SW_CLEAR_CTDD_CRD_Msk \
 356:Generated_Source\PSoC6\pdl\drivers\peripheral\ctb/cy_ctb.h ****                                             | CTBM_CTD_SW_CLEAR_CTDS_CRS_Msk \
 357:Generated_Source\PSoC6\pdl\drivers\peripheral\ctb/cy_ctb.h ****                                             | CTBM_CTD_SW_CLEAR_CTDS_COR_Msk \
 358:Generated_Source\PSoC6\pdl\drivers\peripheral\ctb/cy_ctb.h ****                                             | CTBM_CTD_SW_CLEAR_CTDO_C6H_Msk \
 359:Generated_Source\PSoC6\pdl\drivers\peripheral\ctb/cy_ctb.h ****                                             | CTBM_CTD_SW_CLEAR_CTDO_COS_Msk \
 360:Generated_Source\PSoC6\pdl\drivers\peripheral\ctb/cy_ctb.h ****                                             | CTBM_CTD_SW_CLEAR_CTDH_COB_Msk \
 361:Generated_Source\PSoC6\pdl\drivers\peripheral\ctb/cy_ctb.h ****                                             | CTBM_CTD_SW_CLEAR_CTDH_CHD_Msk \
 362:Generated_Source\PSoC6\pdl\drivers\peripheral\ctb/cy_ctb.h ****                                             | CTBM_CTD_SW_CLEAR_CTDH_CA0_Msk \
 363:Generated_Source\PSoC6\pdl\drivers\peripheral\ctb/cy_ctb.h ****                                             | CTBM_CTD_SW_CLEAR_CTDH_CIS_Msk \
 364:Generated_Source\PSoC6\pdl\drivers\peripheral\ctb/cy_ctb.h ****                                             | CTBM_CTD_SW_CLEAR_CTDH_ILR_Msk)
 365:Generated_Source\PSoC6\pdl\drivers\peripheral\ctb/cy_ctb.h **** 
 366:Generated_Source\PSoC6\pdl\drivers\peripheral\ctb/cy_ctb.h **** #define CY_CTB_TRIM_VALUE_MAX               (63uL)
 367:Generated_Source\PSoC6\pdl\drivers\peripheral\ctb/cy_ctb.h **** 
 368:Generated_Source\PSoC6\pdl\drivers\peripheral\ctb/cy_ctb.h **** /**< Macros for conditions used by CY_ASSERT calls */
 369:Generated_Source\PSoC6\pdl\drivers\peripheral\ctb/cy_ctb.h **** 
 370:Generated_Source\PSoC6\pdl\drivers\peripheral\ctb/cy_ctb.h **** #define CY_CTB_OPAMPNUM(num)                (((num) == CY_CTB_OPAMP_0) || ((num) == CY_CTB_OPAMP_1)
 371:Generated_Source\PSoC6\pdl\drivers\peripheral\ctb/cy_ctb.h **** #define CY_CTB_OPAMPNUM_0_1(num)            (((num) == CY_CTB_OPAMP_0) || ((num) == CY_CTB_OPAMP_1)
 372:Generated_Source\PSoC6\pdl\drivers\peripheral\ctb/cy_ctb.h **** #define CY_CTB_OPAMPNUM_ALL(num)            (((num) == CY_CTB_OPAMP_NONE) \
 373:Generated_Source\PSoC6\pdl\drivers\peripheral\ctb/cy_ctb.h ****                                             || ((num) == CY_CTB_OPAMP_0) \
 374:Generated_Source\PSoC6\pdl\drivers\peripheral\ctb/cy_ctb.h ****                                             || ((num) == CY_CTB_OPAMP_1) \
ARM GAS  C:\Users\gjl\AppData\Local\Temp\cckcOS93.s 			page 40


 375:Generated_Source\PSoC6\pdl\drivers\peripheral\ctb/cy_ctb.h ****                                             || ((num) == CY_CTB_OPAMP_BOTH))
 376:Generated_Source\PSoC6\pdl\drivers\peripheral\ctb/cy_ctb.h **** #define CY_CTB_IPTAT(iptat)                 (((iptat) == CY_CTB_IPTAT_NORMAL) || ((iptat) == CY_CTB
 377:Generated_Source\PSoC6\pdl\drivers\peripheral\ctb/cy_ctb.h **** #define CY_CTB_CLKPUMP(clkPump)             (((clkPump) == CY_CTB_CLK_PUMP_SRSS) || ((clkPump) == C
 378:Generated_Source\PSoC6\pdl\drivers\peripheral\ctb/cy_ctb.h **** #define CY_CTB_DEEPSLEEP(deepSleep)         (((deepSleep) == CY_CTB_DEEPSLEEP_DISABLE) || ((deepSle
 379:Generated_Source\PSoC6\pdl\drivers\peripheral\ctb/cy_ctb.h **** #define CY_CTB_OAPOWER(power)               ((power) <= CY_CTB_POWER_HIGH)
 380:Generated_Source\PSoC6\pdl\drivers\peripheral\ctb/cy_ctb.h **** #define CY_CTB_OAMODE(mode)                 (((mode) == CY_CTB_MODE_OPAMP1X) \
 381:Generated_Source\PSoC6\pdl\drivers\peripheral\ctb/cy_ctb.h ****                                             || ((mode) == CY_CTB_MODE_OPAMP10X) \
 382:Generated_Source\PSoC6\pdl\drivers\peripheral\ctb/cy_ctb.h ****                                             || ((mode) == CY_CTB_MODE_COMP))
 383:Generated_Source\PSoC6\pdl\drivers\peripheral\ctb/cy_ctb.h **** #define CY_CTB_OAPUMP(pump)                 (((pump) == CY_CTB_PUMP_DISABLE) || ((pump) == CY_CTB_P
 384:Generated_Source\PSoC6\pdl\drivers\peripheral\ctb/cy_ctb.h **** #define CY_CTB_COMPEDGE(edge)               (((edge) == CY_CTB_COMP_EDGE_DISABLE) \
 385:Generated_Source\PSoC6\pdl\drivers\peripheral\ctb/cy_ctb.h ****                                             || ((edge) == CY_CTB_COMP_EDGE_RISING) \
 386:Generated_Source\PSoC6\pdl\drivers\peripheral\ctb/cy_ctb.h ****                                             || ((edge) == CY_CTB_COMP_EDGE_FALLING) \
 387:Generated_Source\PSoC6\pdl\drivers\peripheral\ctb/cy_ctb.h ****                                             || ((edge) == CY_CTB_COMP_EDGE_BOTH))
 388:Generated_Source\PSoC6\pdl\drivers\peripheral\ctb/cy_ctb.h **** #define CY_CTB_COMPLEVEL(level)             (((level) == CY_CTB_COMP_DSI_TRIGGER_OUT_PULSE) || ((le
 389:Generated_Source\PSoC6\pdl\drivers\peripheral\ctb/cy_ctb.h **** #define CY_CTB_COMPBYPASS(bypass)           (((bypass) == CY_CTB_COMP_BYPASS_SYNC) || ((bypass) == 
 390:Generated_Source\PSoC6\pdl\drivers\peripheral\ctb/cy_ctb.h **** #define CY_CTB_COMPHYST(hyst)               (((hyst) == CY_CTB_COMP_HYST_DISABLE) || ((hyst) == CY_
 391:Generated_Source\PSoC6\pdl\drivers\peripheral\ctb/cy_ctb.h **** #define CY_CTB_CURRENTMODE(mode)            (((mode) == CY_CTB_CURRENT_HIGH_ACTIVE) \
 392:Generated_Source\PSoC6\pdl\drivers\peripheral\ctb/cy_ctb.h ****                                             || ((mode) == CY_CTB_CURRENT_HIGH_ACTIVE_DEEPSLEEP) \
 393:Generated_Source\PSoC6\pdl\drivers\peripheral\ctb/cy_ctb.h ****                                             || ((mode) == CY_CTB_CURRENT_LOW_ACTIVE_DEEPSLEEP))
 394:Generated_Source\PSoC6\pdl\drivers\peripheral\ctb/cy_ctb.h **** #define CY_CTB_SAMPLEHOLD(mode)             ((mode) <= CY_CTB_SH_HOLD)
 395:Generated_Source\PSoC6\pdl\drivers\peripheral\ctb/cy_ctb.h **** #define CY_CTB_TRIM(trim)                   ((trim) <= CY_CTB_TRIM_VALUE_MAX)
 396:Generated_Source\PSoC6\pdl\drivers\peripheral\ctb/cy_ctb.h **** #define CY_CTB_SWITCHSELECT(select)         (((select) == CY_CTB_SWITCH_OA0_SW) \
 397:Generated_Source\PSoC6\pdl\drivers\peripheral\ctb/cy_ctb.h ****                                             || ((select) == CY_CTB_SWITCH_OA1_SW) \
 398:Generated_Source\PSoC6\pdl\drivers\peripheral\ctb/cy_ctb.h ****                                             || ((select) == CY_CTB_SWITCH_CTD_SW))
 399:Generated_Source\PSoC6\pdl\drivers\peripheral\ctb/cy_ctb.h **** #define CY_CTB_SWITCHSTATE(state)           (((state) == CY_CTB_SWITCH_OPEN) || ((state) == CY_CTB_
 400:Generated_Source\PSoC6\pdl\drivers\peripheral\ctb/cy_ctb.h **** #define CY_CTB_OA0SWITCH(mask)              (((mask) & (~CY_CTB_DEINIT_OA0_SW)) == 0uL)
 401:Generated_Source\PSoC6\pdl\drivers\peripheral\ctb/cy_ctb.h **** #define CY_CTB_OA1SWITCH(mask)              (((mask) & (~CY_CTB_DEINIT_OA1_SW)) == 0uL)
 402:Generated_Source\PSoC6\pdl\drivers\peripheral\ctb/cy_ctb.h **** #define CY_CTB_CTDSWITCH(mask)              (((mask) & (~CY_CTB_DEINIT_CTD_SW)) == 0uL)
 403:Generated_Source\PSoC6\pdl\drivers\peripheral\ctb/cy_ctb.h **** #define CY_CTB_SWITCHMASK(select,mask)      (((select) == CY_CTB_SWITCH_OA0_SW) ? (((mask) & (~CY_C
 404:Generated_Source\PSoC6\pdl\drivers\peripheral\ctb/cy_ctb.h ****                                             (((select) == CY_CTB_SWITCH_OA1_SW) ? (((mask) & (~CY_C
 405:Generated_Source\PSoC6\pdl\drivers\peripheral\ctb/cy_ctb.h ****                                             (((mask) & (~CY_CTB_DEINIT_CTD_SW)) == 0uL)))
 406:Generated_Source\PSoC6\pdl\drivers\peripheral\ctb/cy_ctb.h **** #define CY_CTB_SARSEQCTRL(mask)             (((mask) == CY_CTB_SW_SEQ_CTRL_D51_MASK) \
 407:Generated_Source\PSoC6\pdl\drivers\peripheral\ctb/cy_ctb.h ****                                             || ((mask) == CY_CTB_SW_SEQ_CTRL_D52_D62_MASK) \
 408:Generated_Source\PSoC6\pdl\drivers\peripheral\ctb/cy_ctb.h ****                                             || ((mask) == CY_CTB_SW_SEQ_CTRL_D51_D52_D62_MASK))
 409:Generated_Source\PSoC6\pdl\drivers\peripheral\ctb/cy_ctb.h **** 
 410:Generated_Source\PSoC6\pdl\drivers\peripheral\ctb/cy_ctb.h **** /** \endcond */
 411:Generated_Source\PSoC6\pdl\drivers\peripheral\ctb/cy_ctb.h **** 
 412:Generated_Source\PSoC6\pdl\drivers\peripheral\ctb/cy_ctb.h **** /** \} group_ctb_macros */
 413:Generated_Source\PSoC6\pdl\drivers\peripheral\ctb/cy_ctb.h **** 
 414:Generated_Source\PSoC6\pdl\drivers\peripheral\ctb/cy_ctb.h **** /***************************************
 415:Generated_Source\PSoC6\pdl\drivers\peripheral\ctb/cy_ctb.h **** *       Enumerated Types
 416:Generated_Source\PSoC6\pdl\drivers\peripheral\ctb/cy_ctb.h **** ***************************************/
 417:Generated_Source\PSoC6\pdl\drivers\peripheral\ctb/cy_ctb.h **** 
 418:Generated_Source\PSoC6\pdl\drivers\peripheral\ctb/cy_ctb.h **** /**
 419:Generated_Source\PSoC6\pdl\drivers\peripheral\ctb/cy_ctb.h **** * \addtogroup group_ctb_enums
 420:Generated_Source\PSoC6\pdl\drivers\peripheral\ctb/cy_ctb.h **** * \{
 421:Generated_Source\PSoC6\pdl\drivers\peripheral\ctb/cy_ctb.h **** */
 422:Generated_Source\PSoC6\pdl\drivers\peripheral\ctb/cy_ctb.h **** 
 423:Generated_Source\PSoC6\pdl\drivers\peripheral\ctb/cy_ctb.h **** /**
 424:Generated_Source\PSoC6\pdl\drivers\peripheral\ctb/cy_ctb.h **** * Most functions allow you to configure a single opamp or both opamps at once.
 425:Generated_Source\PSoC6\pdl\drivers\peripheral\ctb/cy_ctb.h **** * The \ref Cy_CTB_SetInterruptMask function can be called with \ref CY_CTB_OPAMP_NONE
 426:Generated_Source\PSoC6\pdl\drivers\peripheral\ctb/cy_ctb.h **** * and interrupts will be disabled.
 427:Generated_Source\PSoC6\pdl\drivers\peripheral\ctb/cy_ctb.h **** */
 428:Generated_Source\PSoC6\pdl\drivers\peripheral\ctb/cy_ctb.h **** typedef enum{
 429:Generated_Source\PSoC6\pdl\drivers\peripheral\ctb/cy_ctb.h ****     CY_CTB_OPAMP_NONE    = 0,                                          /**< For disabling interrupt
 430:Generated_Source\PSoC6\pdl\drivers\peripheral\ctb/cy_ctb.h ****     CY_CTB_OPAMP_0       = CTBM_INTR_COMP0_Msk,                        /**< For configuring Opamp0 
 431:Generated_Source\PSoC6\pdl\drivers\peripheral\ctb/cy_ctb.h ****     CY_CTB_OPAMP_1       = CTBM_INTR_COMP1_Msk,                        /**< For configuring Opamp1 
ARM GAS  C:\Users\gjl\AppData\Local\Temp\cckcOS93.s 			page 41


 432:Generated_Source\PSoC6\pdl\drivers\peripheral\ctb/cy_ctb.h ****     CY_CTB_OPAMP_BOTH    = CTBM_INTR_COMP0_Msk | CTBM_INTR_COMP1_Msk,  /**< For configuring both Op
 433:Generated_Source\PSoC6\pdl\drivers\peripheral\ctb/cy_ctb.h **** }cy_en_ctb_opamp_sel_t;
 434:Generated_Source\PSoC6\pdl\drivers\peripheral\ctb/cy_ctb.h **** 
 435:Generated_Source\PSoC6\pdl\drivers\peripheral\ctb/cy_ctb.h **** /** Enable or disable CTB while in Deep Sleep mode.
 436:Generated_Source\PSoC6\pdl\drivers\peripheral\ctb/cy_ctb.h **** */
 437:Generated_Source\PSoC6\pdl\drivers\peripheral\ctb/cy_ctb.h **** typedef enum {
 438:Generated_Source\PSoC6\pdl\drivers\peripheral\ctb/cy_ctb.h ****     CY_CTB_DEEPSLEEP_DISABLE   = 0u,                               /**< CTB is disabled during Deep
 439:Generated_Source\PSoC6\pdl\drivers\peripheral\ctb/cy_ctb.h ****     CY_CTB_DEEPSLEEP_ENABLE    = CTBM_CTB_CTRL_DEEPSLEEP_ON_Msk,   /**< CTB remains enabled during 
 440:Generated_Source\PSoC6\pdl\drivers\peripheral\ctb/cy_ctb.h **** }cy_en_ctb_deep_sleep_t;
 441:Generated_Source\PSoC6\pdl\drivers\peripheral\ctb/cy_ctb.h **** 
 442:Generated_Source\PSoC6\pdl\drivers\peripheral\ctb/cy_ctb.h **** /**
 443:Generated_Source\PSoC6\pdl\drivers\peripheral\ctb/cy_ctb.h **** * Configure the power mode of each opamp. Each power setting
 444:Generated_Source\PSoC6\pdl\drivers\peripheral\ctb/cy_ctb.h **** * consumes different levels of current and supports a different
 445:Generated_Source\PSoC6\pdl\drivers\peripheral\ctb/cy_ctb.h **** * input range and gain bandwidth.
 446:Generated_Source\PSoC6\pdl\drivers\peripheral\ctb/cy_ctb.h **** *
 447:Generated_Source\PSoC6\pdl\drivers\peripheral\ctb/cy_ctb.h **** * <table class="doxtable">
 448:Generated_Source\PSoC6\pdl\drivers\peripheral\ctb/cy_ctb.h **** *   <tr><th>Opamp Power</th><th>IDD</th><th>Gain bandwidth</th></tr>
 449:Generated_Source\PSoC6\pdl\drivers\peripheral\ctb/cy_ctb.h **** *   <tr>
 450:Generated_Source\PSoC6\pdl\drivers\peripheral\ctb/cy_ctb.h **** *     <td>OFF</td>
 451:Generated_Source\PSoC6\pdl\drivers\peripheral\ctb/cy_ctb.h **** *     <td>0</td>
 452:Generated_Source\PSoC6\pdl\drivers\peripheral\ctb/cy_ctb.h **** *     <td>NA</td>
 453:Generated_Source\PSoC6\pdl\drivers\peripheral\ctb/cy_ctb.h **** *   </tr>
 454:Generated_Source\PSoC6\pdl\drivers\peripheral\ctb/cy_ctb.h **** *   <tr>
 455:Generated_Source\PSoC6\pdl\drivers\peripheral\ctb/cy_ctb.h **** *     <td>LOW</td>
 456:Generated_Source\PSoC6\pdl\drivers\peripheral\ctb/cy_ctb.h **** *     <td>350 uA</td>
 457:Generated_Source\PSoC6\pdl\drivers\peripheral\ctb/cy_ctb.h **** *     <td>1 MHz</td>
 458:Generated_Source\PSoC6\pdl\drivers\peripheral\ctb/cy_ctb.h **** *   </tr>
 459:Generated_Source\PSoC6\pdl\drivers\peripheral\ctb/cy_ctb.h **** *   <tr>
 460:Generated_Source\PSoC6\pdl\drivers\peripheral\ctb/cy_ctb.h **** *     <td>MEDIUM</td>
 461:Generated_Source\PSoC6\pdl\drivers\peripheral\ctb/cy_ctb.h **** *     <td>600 uA</td>
 462:Generated_Source\PSoC6\pdl\drivers\peripheral\ctb/cy_ctb.h **** *     <td>3 MHz for 1X, 2.5 MHz for 10x</td>
 463:Generated_Source\PSoC6\pdl\drivers\peripheral\ctb/cy_ctb.h **** *   </tr>
 464:Generated_Source\PSoC6\pdl\drivers\peripheral\ctb/cy_ctb.h **** *   <tr>
 465:Generated_Source\PSoC6\pdl\drivers\peripheral\ctb/cy_ctb.h **** *     <td>HIGH</td>
 466:Generated_Source\PSoC6\pdl\drivers\peripheral\ctb/cy_ctb.h **** *     <td>1.5 mA</td>
 467:Generated_Source\PSoC6\pdl\drivers\peripheral\ctb/cy_ctb.h **** *     <td>8 MHz for 1X, 6 MHz for 10x</td>
 468:Generated_Source\PSoC6\pdl\drivers\peripheral\ctb/cy_ctb.h **** *   </tr>
 469:Generated_Source\PSoC6\pdl\drivers\peripheral\ctb/cy_ctb.h **** * </table>
 470:Generated_Source\PSoC6\pdl\drivers\peripheral\ctb/cy_ctb.h **** *
 471:Generated_Source\PSoC6\pdl\drivers\peripheral\ctb/cy_ctb.h **** */
 472:Generated_Source\PSoC6\pdl\drivers\peripheral\ctb/cy_ctb.h **** typedef enum {
 473:Generated_Source\PSoC6\pdl\drivers\peripheral\ctb/cy_ctb.h ****     CY_CTB_POWER_OFF       = 0u,     /**< Opamp is off */
 474:Generated_Source\PSoC6\pdl\drivers\peripheral\ctb/cy_ctb.h ****     CY_CTB_POWER_LOW       = 1u,     /**< Low power: IDD = 350 uA, GBW = 1 MHz for both 1x and 10x 
 475:Generated_Source\PSoC6\pdl\drivers\peripheral\ctb/cy_ctb.h ****     CY_CTB_POWER_MEDIUM    = 2u,     /**< Medium power: IDD = 600 uA, GBW = 3 MHz for 1x and 2.5 MH
 476:Generated_Source\PSoC6\pdl\drivers\peripheral\ctb/cy_ctb.h ****     CY_CTB_POWER_HIGH      = 3u,     /**< High power: IDD = 1500 uA, GBW = 8 MHz for 1x and 6 MHz f
 477:Generated_Source\PSoC6\pdl\drivers\peripheral\ctb/cy_ctb.h **** }cy_en_ctb_power_t;
 478:Generated_Source\PSoC6\pdl\drivers\peripheral\ctb/cy_ctb.h **** 
 479:Generated_Source\PSoC6\pdl\drivers\peripheral\ctb/cy_ctb.h **** /**
 480:Generated_Source\PSoC6\pdl\drivers\peripheral\ctb/cy_ctb.h **** * The output stage of each opamp can be configured for low-drive strength (1X) to drive internal ci
 481:Generated_Source\PSoC6\pdl\drivers\peripheral\ctb/cy_ctb.h **** * for high-drive strength (10X) to drive external circuits, or as a comparator.
 482:Generated_Source\PSoC6\pdl\drivers\peripheral\ctb/cy_ctb.h **** */
 483:Generated_Source\PSoC6\pdl\drivers\peripheral\ctb/cy_ctb.h **** typedef enum {
 484:Generated_Source\PSoC6\pdl\drivers\peripheral\ctb/cy_ctb.h ****     CY_CTB_MODE_OPAMP1X    = 0u,                                               /**< Configure opamp
 485:Generated_Source\PSoC6\pdl\drivers\peripheral\ctb/cy_ctb.h ****     CY_CTB_MODE_OPAMP10X   = 1u << CTBM_OA_RES0_CTRL_OA0_DRIVE_STR_SEL_Pos,    /**< Configure opamp
 486:Generated_Source\PSoC6\pdl\drivers\peripheral\ctb/cy_ctb.h ****     CY_CTB_MODE_COMP       = 1u << CTBM_OA_RES0_CTRL_OA0_COMP_EN_Pos,          /**< Configure opamp
 487:Generated_Source\PSoC6\pdl\drivers\peripheral\ctb/cy_ctb.h **** }cy_en_ctb_mode_t;
 488:Generated_Source\PSoC6\pdl\drivers\peripheral\ctb/cy_ctb.h **** 
ARM GAS  C:\Users\gjl\AppData\Local\Temp\cckcOS93.s 			page 42


 489:Generated_Source\PSoC6\pdl\drivers\peripheral\ctb/cy_ctb.h **** /**
 490:Generated_Source\PSoC6\pdl\drivers\peripheral\ctb/cy_ctb.h **** * Each opamp has a charge pump to increase the input range to the rails.
 491:Generated_Source\PSoC6\pdl\drivers\peripheral\ctb/cy_ctb.h **** * When the charge pump is enabled, the input range is 0 to VDDA.
 492:Generated_Source\PSoC6\pdl\drivers\peripheral\ctb/cy_ctb.h **** * When disabled, the input range is 0 to VDDA - 1.5 V.
 493:Generated_Source\PSoC6\pdl\drivers\peripheral\ctb/cy_ctb.h **** *
 494:Generated_Source\PSoC6\pdl\drivers\peripheral\ctb/cy_ctb.h **** ** <table class="doxtable">
 495:Generated_Source\PSoC6\pdl\drivers\peripheral\ctb/cy_ctb.h **** *   <tr><th>Charge Pump</th><th>Input Range (V)</th></tr>
 496:Generated_Source\PSoC6\pdl\drivers\peripheral\ctb/cy_ctb.h **** *   <tr>
 497:Generated_Source\PSoC6\pdl\drivers\peripheral\ctb/cy_ctb.h **** *     <td>OFF</td>
 498:Generated_Source\PSoC6\pdl\drivers\peripheral\ctb/cy_ctb.h **** *     <td>0 to VDDA-1.5</td>
 499:Generated_Source\PSoC6\pdl\drivers\peripheral\ctb/cy_ctb.h **** *   </tr>
 500:Generated_Source\PSoC6\pdl\drivers\peripheral\ctb/cy_ctb.h **** *   <tr>
 501:Generated_Source\PSoC6\pdl\drivers\peripheral\ctb/cy_ctb.h **** *     <td>ON</td>
 502:Generated_Source\PSoC6\pdl\drivers\peripheral\ctb/cy_ctb.h **** *     <td>0 to VDDA</td>
 503:Generated_Source\PSoC6\pdl\drivers\peripheral\ctb/cy_ctb.h **** *   </tr>
 504:Generated_Source\PSoC6\pdl\drivers\peripheral\ctb/cy_ctb.h **** * </table>
 505:Generated_Source\PSoC6\pdl\drivers\peripheral\ctb/cy_ctb.h **** *
 506:Generated_Source\PSoC6\pdl\drivers\peripheral\ctb/cy_ctb.h **** * Note that in Deep Sleep mode, the charge pump is disabled so the input
 507:Generated_Source\PSoC6\pdl\drivers\peripheral\ctb/cy_ctb.h **** * range is reduced.
 508:Generated_Source\PSoC6\pdl\drivers\peripheral\ctb/cy_ctb.h **** */
 509:Generated_Source\PSoC6\pdl\drivers\peripheral\ctb/cy_ctb.h **** typedef enum{
 510:Generated_Source\PSoC6\pdl\drivers\peripheral\ctb/cy_ctb.h ****     CY_CTB_PUMP_DISABLE   = 0u,                                           /**< Charge pump is disab
 511:Generated_Source\PSoC6\pdl\drivers\peripheral\ctb/cy_ctb.h ****     CY_CTB_PUMP_ENABLE    = CTBM_OA_RES0_CTRL_OA0_PUMP_EN_Msk,            /**< Charge pump is enabl
 512:Generated_Source\PSoC6\pdl\drivers\peripheral\ctb/cy_ctb.h **** }cy_en_ctb_pump_t;
 513:Generated_Source\PSoC6\pdl\drivers\peripheral\ctb/cy_ctb.h **** 
 514:Generated_Source\PSoC6\pdl\drivers\peripheral\ctb/cy_ctb.h **** /**
 515:Generated_Source\PSoC6\pdl\drivers\peripheral\ctb/cy_ctb.h **** * Configure the type of edge that will trigger a comparator interrupt or
 516:Generated_Source\PSoC6\pdl\drivers\peripheral\ctb/cy_ctb.h **** * disable the interrupt entirely.
 517:Generated_Source\PSoC6\pdl\drivers\peripheral\ctb/cy_ctb.h **** */
 518:Generated_Source\PSoC6\pdl\drivers\peripheral\ctb/cy_ctb.h **** typedef enum
 519:Generated_Source\PSoC6\pdl\drivers\peripheral\ctb/cy_ctb.h **** {
 520:Generated_Source\PSoC6\pdl\drivers\peripheral\ctb/cy_ctb.h ****     CY_CTB_COMP_EDGE_DISABLE       = 0u,                                       /**< Disabled, no in
 521:Generated_Source\PSoC6\pdl\drivers\peripheral\ctb/cy_ctb.h ****     CY_CTB_COMP_EDGE_RISING        = 1u << CTBM_OA_RES0_CTRL_OA0_COMPINT_Pos,  /**< Rising edge gen
 522:Generated_Source\PSoC6\pdl\drivers\peripheral\ctb/cy_ctb.h ****     CY_CTB_COMP_EDGE_FALLING       = 2u << CTBM_OA_RES0_CTRL_OA0_COMPINT_Pos,  /**< Falling edge ge
 523:Generated_Source\PSoC6\pdl\drivers\peripheral\ctb/cy_ctb.h ****     CY_CTB_COMP_EDGE_BOTH          = 3u << CTBM_OA_RES0_CTRL_OA0_COMPINT_Pos,  /**< Both edges gene
 524:Generated_Source\PSoC6\pdl\drivers\peripheral\ctb/cy_ctb.h **** }cy_en_ctb_comp_edge_t;
 525:Generated_Source\PSoC6\pdl\drivers\peripheral\ctb/cy_ctb.h **** 
 526:Generated_Source\PSoC6\pdl\drivers\peripheral\ctb/cy_ctb.h **** /** Configure the comparator DSI trigger output level when output is synchronized. */
 527:Generated_Source\PSoC6\pdl\drivers\peripheral\ctb/cy_ctb.h **** typedef enum
 528:Generated_Source\PSoC6\pdl\drivers\peripheral\ctb/cy_ctb.h **** {
 529:Generated_Source\PSoC6\pdl\drivers\peripheral\ctb/cy_ctb.h ****     CY_CTB_COMP_DSI_TRIGGER_OUT_PULSE    = 0u,                                        /**< Send pul
 530:Generated_Source\PSoC6\pdl\drivers\peripheral\ctb/cy_ctb.h ****     CY_CTB_COMP_DSI_TRIGGER_OUT_LEVEL    = CTBM_OA_RES0_CTRL_OA0_DSI_LEVEL_Msk,       /**< DSI outp
 531:Generated_Source\PSoC6\pdl\drivers\peripheral\ctb/cy_ctb.h **** }cy_en_ctb_comp_level_t;
 532:Generated_Source\PSoC6\pdl\drivers\peripheral\ctb/cy_ctb.h **** 
 533:Generated_Source\PSoC6\pdl\drivers\peripheral\ctb/cy_ctb.h **** /** Bypass the comparator output synchronization for DSI trigger. */
 534:Generated_Source\PSoC6\pdl\drivers\peripheral\ctb/cy_ctb.h **** typedef enum
 535:Generated_Source\PSoC6\pdl\drivers\peripheral\ctb/cy_ctb.h **** {
 536:Generated_Source\PSoC6\pdl\drivers\peripheral\ctb/cy_ctb.h ****     CY_CTB_COMP_BYPASS_SYNC          = 0u,                                          /**< Comparator
 537:Generated_Source\PSoC6\pdl\drivers\peripheral\ctb/cy_ctb.h ****     CY_CTB_COMP_BYPASS_NO_SYNC       = CTBM_OA_RES0_CTRL_OA0_BYPASS_DSI_SYNC_Msk,   /**< Comparator
 538:Generated_Source\PSoC6\pdl\drivers\peripheral\ctb/cy_ctb.h **** }cy_en_ctb_comp_bypass_t;
 539:Generated_Source\PSoC6\pdl\drivers\peripheral\ctb/cy_ctb.h **** 
 540:Generated_Source\PSoC6\pdl\drivers\peripheral\ctb/cy_ctb.h **** /** Disable or enable the 10 mV hysteresis for the comparator. */
 541:Generated_Source\PSoC6\pdl\drivers\peripheral\ctb/cy_ctb.h **** typedef enum
 542:Generated_Source\PSoC6\pdl\drivers\peripheral\ctb/cy_ctb.h **** {
 543:Generated_Source\PSoC6\pdl\drivers\peripheral\ctb/cy_ctb.h ****     CY_CTB_COMP_HYST_DISABLE      = 0u,                                    /**< Disable hysteresis 
 544:Generated_Source\PSoC6\pdl\drivers\peripheral\ctb/cy_ctb.h ****     CY_CTB_COMP_HYST_10MV         = CTBM_OA_RES0_CTRL_OA0_HYST_EN_Msk,     /**< Enable the 10 mV hy
 545:Generated_Source\PSoC6\pdl\drivers\peripheral\ctb/cy_ctb.h **** }cy_en_ctb_comp_hyst_t;
ARM GAS  C:\Users\gjl\AppData\Local\Temp\cckcOS93.s 			page 43


 546:Generated_Source\PSoC6\pdl\drivers\peripheral\ctb/cy_ctb.h **** 
 547:Generated_Source\PSoC6\pdl\drivers\peripheral\ctb/cy_ctb.h **** /** Switch state, either open or closed, to be used in \ref Cy_CTB_SetAnalogSwitch. */
 548:Generated_Source\PSoC6\pdl\drivers\peripheral\ctb/cy_ctb.h **** typedef enum
 549:Generated_Source\PSoC6\pdl\drivers\peripheral\ctb/cy_ctb.h **** {
 550:Generated_Source\PSoC6\pdl\drivers\peripheral\ctb/cy_ctb.h ****     CY_CTB_SWITCH_OPEN      = 0uL,    /**< Open the switch */
 551:Generated_Source\PSoC6\pdl\drivers\peripheral\ctb/cy_ctb.h ****     CY_CTB_SWITCH_CLOSE     = 1uL     /**< Close the switch */
 552:Generated_Source\PSoC6\pdl\drivers\peripheral\ctb/cy_ctb.h **** }cy_en_ctb_switch_state_t;
 553:Generated_Source\PSoC6\pdl\drivers\peripheral\ctb/cy_ctb.h **** 
 554:Generated_Source\PSoC6\pdl\drivers\peripheral\ctb/cy_ctb.h **** /**
 555:Generated_Source\PSoC6\pdl\drivers\peripheral\ctb/cy_ctb.h **** * The switch register to be used in \ref Cy_CTB_SetAnalogSwitch.
 556:Generated_Source\PSoC6\pdl\drivers\peripheral\ctb/cy_ctb.h **** * The CTB has three registers for configuring the switch routing matrix.
 557:Generated_Source\PSoC6\pdl\drivers\peripheral\ctb/cy_ctb.h **** * */
 558:Generated_Source\PSoC6\pdl\drivers\peripheral\ctb/cy_ctb.h **** typedef enum
 559:Generated_Source\PSoC6\pdl\drivers\peripheral\ctb/cy_ctb.h **** {
 560:Generated_Source\PSoC6\pdl\drivers\peripheral\ctb/cy_ctb.h ****     CY_CTB_SWITCH_OA0_SW     = 0u,     /**< Switch register for Opamp0 */
 561:Generated_Source\PSoC6\pdl\drivers\peripheral\ctb/cy_ctb.h ****     CY_CTB_SWITCH_OA1_SW     = 1u,     /**< Switch register for Opamp1 */
 562:Generated_Source\PSoC6\pdl\drivers\peripheral\ctb/cy_ctb.h ****     CY_CTB_SWITCH_CTD_SW     = 2u,     /**< Switch register for CTDAC routing */
 563:Generated_Source\PSoC6\pdl\drivers\peripheral\ctb/cy_ctb.h **** }cy_en_ctb_switch_register_sel_t;
 564:Generated_Source\PSoC6\pdl\drivers\peripheral\ctb/cy_ctb.h **** 
 565:Generated_Source\PSoC6\pdl\drivers\peripheral\ctb/cy_ctb.h **** /**
 566:Generated_Source\PSoC6\pdl\drivers\peripheral\ctb/cy_ctb.h **** * Switch masks for Opamp0 to be used in \ref Cy_CTB_SetAnalogSwitch.
 567:Generated_Source\PSoC6\pdl\drivers\peripheral\ctb/cy_ctb.h **** */
 568:Generated_Source\PSoC6\pdl\drivers\peripheral\ctb/cy_ctb.h **** typedef enum
 569:Generated_Source\PSoC6\pdl\drivers\peripheral\ctb/cy_ctb.h **** {
 570:Generated_Source\PSoC6\pdl\drivers\peripheral\ctb/cy_ctb.h ****     CY_CTB_SW_OA0_POS_AMUXBUSA_MASK     = CTBM_OA0_SW_OA0P_A00_Msk,       /**< Switch A00: Opamp0 n
 571:Generated_Source\PSoC6\pdl\drivers\peripheral\ctb/cy_ctb.h ****     CY_CTB_SW_OA0_POS_PIN0_MASK         = CTBM_OA0_SW_OA0P_A20_Msk,       /**< Switch A20: Opamp0 n
 572:Generated_Source\PSoC6\pdl\drivers\peripheral\ctb/cy_ctb.h ****     CY_CTB_SW_OA0_POS_PIN6_MASK         = CTBM_OA0_SW_OA0P_A30_Msk,       /**< Switch A30: Opamp0 n
 573:Generated_Source\PSoC6\pdl\drivers\peripheral\ctb/cy_ctb.h ****     CY_CTB_SW_OA0_NEG_PIN1_MASK         = CTBM_OA0_SW_OA0M_A11_Msk,       /**< Switch A11: Opamp0 i
 574:Generated_Source\PSoC6\pdl\drivers\peripheral\ctb/cy_ctb.h ****     CY_CTB_SW_OA0_NEG_OUT_MASK          = CTBM_OA0_SW_OA0M_A81_Msk,       /**< Switch A81: Opamp0 i
 575:Generated_Source\PSoC6\pdl\drivers\peripheral\ctb/cy_ctb.h ****     CY_CTB_SW_OA0_OUT_SARBUS0_MASK      = CTBM_OA0_SW_OA0O_D51_Msk,       /**< Switch D51: Opamp0 o
 576:Generated_Source\PSoC6\pdl\drivers\peripheral\ctb/cy_ctb.h ****     CY_CTB_SW_OA0_OUT_SHORT_1X_10X_MASK = CTBM_OA0_SW_OA0O_D81_Msk,       /**< Switch D81: Short Op
 577:Generated_Source\PSoC6\pdl\drivers\peripheral\ctb/cy_ctb.h **** }cy_en_ctb_oa0_switches_t;
 578:Generated_Source\PSoC6\pdl\drivers\peripheral\ctb/cy_ctb.h **** 
 579:Generated_Source\PSoC6\pdl\drivers\peripheral\ctb/cy_ctb.h **** /**
 580:Generated_Source\PSoC6\pdl\drivers\peripheral\ctb/cy_ctb.h **** * Switch masks for Opamp1 to be used in \ref Cy_CTB_SetAnalogSwitch.
 581:Generated_Source\PSoC6\pdl\drivers\peripheral\ctb/cy_ctb.h **** */
 582:Generated_Source\PSoC6\pdl\drivers\peripheral\ctb/cy_ctb.h **** typedef enum
 583:Generated_Source\PSoC6\pdl\drivers\peripheral\ctb/cy_ctb.h **** {
 584:Generated_Source\PSoC6\pdl\drivers\peripheral\ctb/cy_ctb.h ****     CY_CTB_SW_OA1_POS_AMUXBUSB_MASK     = CTBM_OA1_SW_OA1P_A03_Msk,       /**< Switch A03: Opamp1 n
 585:Generated_Source\PSoC6\pdl\drivers\peripheral\ctb/cy_ctb.h ****     CY_CTB_SW_OA1_POS_PIN5_MASK         = CTBM_OA1_SW_OA1P_A13_Msk,       /**< Switch A13: Opamp1 n
 586:Generated_Source\PSoC6\pdl\drivers\peripheral\ctb/cy_ctb.h ****     CY_CTB_SW_OA1_POS_PIN7_MASK         = CTBM_OA1_SW_OA1P_A43_Msk,       /**< Switch A43: Opamp1 n
 587:Generated_Source\PSoC6\pdl\drivers\peripheral\ctb/cy_ctb.h ****     CY_CTB_SW_OA1_POS_AREF_MASK         = CTBM_OA1_SW_OA1P_A73_Msk,       /**< Switch A73: Opamp1 n
 588:Generated_Source\PSoC6\pdl\drivers\peripheral\ctb/cy_ctb.h ****     CY_CTB_SW_OA1_NEG_PIN4_MASK         = CTBM_OA1_SW_OA1M_A22_Msk,       /**< Switch A22: Opamp1 i
 589:Generated_Source\PSoC6\pdl\drivers\peripheral\ctb/cy_ctb.h ****     CY_CTB_SW_OA1_NEG_OUT_MASK          = CTBM_OA1_SW_OA1M_A82_Msk,       /**< switch A82: Opamp1 i
 590:Generated_Source\PSoC6\pdl\drivers\peripheral\ctb/cy_ctb.h ****     CY_CTB_SW_OA1_OUT_SARBUS0_MASK      = CTBM_OA1_SW_OA1O_D52_Msk,       /**< Switch D52: Opamp1 o
 591:Generated_Source\PSoC6\pdl\drivers\peripheral\ctb/cy_ctb.h ****     CY_CTB_SW_OA1_OUT_SARBUS1_MASK      = CTBM_OA1_SW_OA1O_D62_Msk,       /**< Switch D62: Opamp1 o
 592:Generated_Source\PSoC6\pdl\drivers\peripheral\ctb/cy_ctb.h ****     CY_CTB_SW_OA1_OUT_SHORT_1X_10X_MASK = CTBM_OA1_SW_OA1O_D82_Msk,       /**< Switch D82: Short Op
 593:Generated_Source\PSoC6\pdl\drivers\peripheral\ctb/cy_ctb.h **** }cy_en_ctb_oa1_switches_t;
 594:Generated_Source\PSoC6\pdl\drivers\peripheral\ctb/cy_ctb.h **** 
 595:Generated_Source\PSoC6\pdl\drivers\peripheral\ctb/cy_ctb.h **** /**
 596:Generated_Source\PSoC6\pdl\drivers\peripheral\ctb/cy_ctb.h **** * Switch masks for CTDAC to CTB routing to be used in \ref Cy_CTB_SetAnalogSwitch.
 597:Generated_Source\PSoC6\pdl\drivers\peripheral\ctb/cy_ctb.h **** */
 598:Generated_Source\PSoC6\pdl\drivers\peripheral\ctb/cy_ctb.h **** typedef enum
 599:Generated_Source\PSoC6\pdl\drivers\peripheral\ctb/cy_ctb.h **** {
 600:Generated_Source\PSoC6\pdl\drivers\peripheral\ctb/cy_ctb.h ****     CY_CTB_SW_CTD_REF_OA1_OUT_MASK              = CTBM_CTD_SW_CTDD_CRD_Msk,       /**< Switch CRD: 
 601:Generated_Source\PSoC6\pdl\drivers\peripheral\ctb/cy_ctb.h ****     CY_CTB_SW_CTD_REFSENSE_OA1_NEG_MASK         = CTBM_CTD_SW_CTDS_CRS_Msk,       /**< Switch CRS: 
 602:Generated_Source\PSoC6\pdl\drivers\peripheral\ctb/cy_ctb.h ****     CY_CTB_SW_CTD_OUT_OA1_NEG_MASK              = CTBM_CTD_SW_CTDS_COR_Msk,       /**< Switch COR: 
ARM GAS  C:\Users\gjl\AppData\Local\Temp\cckcOS93.s 			page 44


 603:Generated_Source\PSoC6\pdl\drivers\peripheral\ctb/cy_ctb.h ****     CY_CTB_SW_CTD_OUT_PIN6_MASK                 = CTBM_CTD_SW_CTDO_C6H_Msk,       /**< Switch C6H: 
 604:Generated_Source\PSoC6\pdl\drivers\peripheral\ctb/cy_ctb.h ****     CY_CTB_SW_CTD_OUT_CHOLD_MASK                = CTBM_CTD_SW_CTDO_COS_Msk,       /**< Switch COS: 
 605:Generated_Source\PSoC6\pdl\drivers\peripheral\ctb/cy_ctb.h ****     CY_CTB_SW_CTD_OUT_OA0_1X_OUT_MASK           = CTBM_CTD_SW_CTDH_COB_Msk,       /**< Switch COB: 
 606:Generated_Source\PSoC6\pdl\drivers\peripheral\ctb/cy_ctb.h ****     CY_CTB_SW_CTD_CHOLD_CONNECT_MASK            = CTBM_CTD_SW_CTDH_CHD_Msk,       /**< Switch CHD: 
 607:Generated_Source\PSoC6\pdl\drivers\peripheral\ctb/cy_ctb.h ****     CY_CTB_SW_CTD_CHOLD_OA0_POS_MASK            = CTBM_CTD_SW_CTDH_CA0_Msk,       /**< Switch CA0: 
 608:Generated_Source\PSoC6\pdl\drivers\peripheral\ctb/cy_ctb.h ****     CY_CTB_SW_CTD_CHOLD_OA0_POS_ISOLATE_MASK    = CTBM_CTD_SW_CTDH_CIS_Msk,       /**< Switch CIS: 
 609:Generated_Source\PSoC6\pdl\drivers\peripheral\ctb/cy_ctb.h ****     CY_CTB_SW_CTD_CHOLD_LEAKAGE_REDUCTION_MASK  = CTBM_CTD_SW_CTDH_ILR_Msk,       /**< Switch ILR: 
 610:Generated_Source\PSoC6\pdl\drivers\peripheral\ctb/cy_ctb.h **** }cy_en_ctb_ctd_switches_t;
 611:Generated_Source\PSoC6\pdl\drivers\peripheral\ctb/cy_ctb.h **** 
 612:Generated_Source\PSoC6\pdl\drivers\peripheral\ctb/cy_ctb.h **** 
 613:Generated_Source\PSoC6\pdl\drivers\peripheral\ctb/cy_ctb.h **** /**
 614:Generated_Source\PSoC6\pdl\drivers\peripheral\ctb/cy_ctb.h **** * Masks for CTB switches that can be controlled by the SAR sequencer.
 615:Generated_Source\PSoC6\pdl\drivers\peripheral\ctb/cy_ctb.h **** * These masks are used in \ref Cy_CTB_EnableSarSeqCtrl and \ref Cy_CTB_DisableSarSeqCtrl.
 616:Generated_Source\PSoC6\pdl\drivers\peripheral\ctb/cy_ctb.h **** *
 617:Generated_Source\PSoC6\pdl\drivers\peripheral\ctb/cy_ctb.h **** * The SAR ADC subsystem supports analog routes through three CTB switches on SARBUS0 and SARBUS1.
 618:Generated_Source\PSoC6\pdl\drivers\peripheral\ctb/cy_ctb.h **** * This control allows for pins on the CTB dedicated port to route to the SAR ADC input channels:
 619:Generated_Source\PSoC6\pdl\drivers\peripheral\ctb/cy_ctb.h **** *
 620:Generated_Source\PSoC6\pdl\drivers\peripheral\ctb/cy_ctb.h **** *   - D51: Connects the inverting terminal of OA0 to SARBUS0
 621:Generated_Source\PSoC6\pdl\drivers\peripheral\ctb/cy_ctb.h **** *   - D52: Connects the inverting terminal of OA1 to SARBUS0
 622:Generated_Source\PSoC6\pdl\drivers\peripheral\ctb/cy_ctb.h **** *   - D62: Connects the inverting terminal of OA1 to SARBUS1
 623:Generated_Source\PSoC6\pdl\drivers\peripheral\ctb/cy_ctb.h **** */
 624:Generated_Source\PSoC6\pdl\drivers\peripheral\ctb/cy_ctb.h **** typedef enum
 625:Generated_Source\PSoC6\pdl\drivers\peripheral\ctb/cy_ctb.h **** {
 626:Generated_Source\PSoC6\pdl\drivers\peripheral\ctb/cy_ctb.h ****     CY_CTB_SW_SEQ_CTRL_D51_MASK            = CTBM_CTB_SW_SQ_CTRL_P2_SQ_CTRL23_Msk,  /**< Enable SAR
 627:Generated_Source\PSoC6\pdl\drivers\peripheral\ctb/cy_ctb.h ****     CY_CTB_SW_SEQ_CTRL_D52_D62_MASK        = CTBM_CTB_SW_SQ_CTRL_P3_SQ_CTRL23_Msk,  /**< Enable SAR
 628:Generated_Source\PSoC6\pdl\drivers\peripheral\ctb/cy_ctb.h ****     CY_CTB_SW_SEQ_CTRL_D51_D52_D62_MASK    = CTBM_CTB_SW_SQ_CTRL_P2_SQ_CTRL23_Msk | CTBM_CTB_SW_SQ_
 629:Generated_Source\PSoC6\pdl\drivers\peripheral\ctb/cy_ctb.h **** }cy_en_ctb_switch_sar_seq_t;
 630:Generated_Source\PSoC6\pdl\drivers\peripheral\ctb/cy_ctb.h **** 
 631:Generated_Source\PSoC6\pdl\drivers\peripheral\ctb/cy_ctb.h **** /**
 632:Generated_Source\PSoC6\pdl\drivers\peripheral\ctb/cy_ctb.h **** * Each opamp also has a programmable compensation capacitor block,
 633:Generated_Source\PSoC6\pdl\drivers\peripheral\ctb/cy_ctb.h **** * that optimizes the stability of the opamp performance based on output load.
 634:Generated_Source\PSoC6\pdl\drivers\peripheral\ctb/cy_ctb.h **** * The compensation cap will be set by the driver based on the opamp drive strength (1x or 10x) sele
 635:Generated_Source\PSoC6\pdl\drivers\peripheral\ctb/cy_ctb.h **** */
 636:Generated_Source\PSoC6\pdl\drivers\peripheral\ctb/cy_ctb.h **** typedef enum
 637:Generated_Source\PSoC6\pdl\drivers\peripheral\ctb/cy_ctb.h **** {
 638:Generated_Source\PSoC6\pdl\drivers\peripheral\ctb/cy_ctb.h ****     CY_CTB_OPAMP_COMPENSATION_CAP_OFF      = 0u,       /**< No compensation */
 639:Generated_Source\PSoC6\pdl\drivers\peripheral\ctb/cy_ctb.h ****     CY_CTB_OPAMP_COMPENSATION_CAP_MIN      = 1u,       /**< Minimum compensation - for 1x drive*/
 640:Generated_Source\PSoC6\pdl\drivers\peripheral\ctb/cy_ctb.h ****     CY_CTB_OPAMP_COMPENSATION_CAP_MED      = 2u,       /**< Medium compensation */
 641:Generated_Source\PSoC6\pdl\drivers\peripheral\ctb/cy_ctb.h ****     CY_CTB_OPAMP_COMPENSATION_CAP_MAX      = 3u,       /**< Maximum compensation - for 10x drive */
 642:Generated_Source\PSoC6\pdl\drivers\peripheral\ctb/cy_ctb.h **** }cy_en_ctb_compensation_cap_t;
 643:Generated_Source\PSoC6\pdl\drivers\peripheral\ctb/cy_ctb.h **** 
 644:Generated_Source\PSoC6\pdl\drivers\peripheral\ctb/cy_ctb.h **** /** Enable or disable the gain booster.
 645:Generated_Source\PSoC6\pdl\drivers\peripheral\ctb/cy_ctb.h **** * The gain booster will be set by the driver based on the opamp drive strength (1x or 10x) selectio
 646:Generated_Source\PSoC6\pdl\drivers\peripheral\ctb/cy_ctb.h **** */
 647:Generated_Source\PSoC6\pdl\drivers\peripheral\ctb/cy_ctb.h **** typedef enum
 648:Generated_Source\PSoC6\pdl\drivers\peripheral\ctb/cy_ctb.h **** {
 649:Generated_Source\PSoC6\pdl\drivers\peripheral\ctb/cy_ctb.h ****     CY_CTB_OPAMP_BOOST_DISABLE = 0u,                                   /**< Disable gain booster - 
 650:Generated_Source\PSoC6\pdl\drivers\peripheral\ctb/cy_ctb.h ****     CY_CTB_OPAMP_BOOST_ENABLE  = CTBM_OA_RES0_CTRL_OA0_BOOST_EN_Msk,   /**< Enable gain booster - f
 651:Generated_Source\PSoC6\pdl\drivers\peripheral\ctb/cy_ctb.h **** }cy_en_ctb_boost_en_t;
 652:Generated_Source\PSoC6\pdl\drivers\peripheral\ctb/cy_ctb.h **** 
 653:Generated_Source\PSoC6\pdl\drivers\peripheral\ctb/cy_ctb.h **** /** Sample and hold modes for firmware sampling of the CTDAC output.
 654:Generated_Source\PSoC6\pdl\drivers\peripheral\ctb/cy_ctb.h **** *
 655:Generated_Source\PSoC6\pdl\drivers\peripheral\ctb/cy_ctb.h **** * To perform a sample or a hold, a preparation step must first be executed to
 656:Generated_Source\PSoC6\pdl\drivers\peripheral\ctb/cy_ctb.h **** * open the required switches.
 657:Generated_Source\PSoC6\pdl\drivers\peripheral\ctb/cy_ctb.h **** *
 658:Generated_Source\PSoC6\pdl\drivers\peripheral\ctb/cy_ctb.h **** * -# Call \ref Cy_CTB_DACSampleAndHold with \ref CY_CTB_SH_PREPARE_SAMPLE or \ref CY_CTB_SH_PREPARE
 659:Generated_Source\PSoC6\pdl\drivers\peripheral\ctb/cy_ctb.h **** * -# Enable or disable CTDAC output
ARM GAS  C:\Users\gjl\AppData\Local\Temp\cckcOS93.s 			page 45


 660:Generated_Source\PSoC6\pdl\drivers\peripheral\ctb/cy_ctb.h **** * -# Call \ref Cy_CTB_DACSampleAndHold with \ref CY_CTB_SH_SAMPLE or \ref CY_CTB_SH_HOLD
 661:Generated_Source\PSoC6\pdl\drivers\peripheral\ctb/cy_ctb.h **** */
 662:Generated_Source\PSoC6\pdl\drivers\peripheral\ctb/cy_ctb.h **** typedef enum
 663:Generated_Source\PSoC6\pdl\drivers\peripheral\ctb/cy_ctb.h **** {
 664:Generated_Source\PSoC6\pdl\drivers\peripheral\ctb/cy_ctb.h ****     CY_CTB_SH_DISABLE           = 0u,   /**< The hold capacitor is not connected - this disables sa
 665:Generated_Source\PSoC6\pdl\drivers\peripheral\ctb/cy_ctb.h ****     CY_CTB_SH_PREPARE_SAMPLE    = 1u,   /**< Prepares the required switches for a following sample 
 666:Generated_Source\PSoC6\pdl\drivers\peripheral\ctb/cy_ctb.h ****     CY_CTB_SH_SAMPLE            = 2u,   /**< Performs a sample of the voltage */
 667:Generated_Source\PSoC6\pdl\drivers\peripheral\ctb/cy_ctb.h ****     CY_CTB_SH_PREPARE_HOLD      = 3u,   /**< Prepares the required switches for a following hold */
 668:Generated_Source\PSoC6\pdl\drivers\peripheral\ctb/cy_ctb.h ****     CY_CTB_SH_HOLD              = 4u,   /**< Performs a hold of the previously sampled voltage */
 669:Generated_Source\PSoC6\pdl\drivers\peripheral\ctb/cy_ctb.h **** }cy_en_ctb_sample_hold_mode_t;
 670:Generated_Source\PSoC6\pdl\drivers\peripheral\ctb/cy_ctb.h **** 
 671:Generated_Source\PSoC6\pdl\drivers\peripheral\ctb/cy_ctb.h **** /** AREF IPTAT bias current output for the CTB
 672:Generated_Source\PSoC6\pdl\drivers\peripheral\ctb/cy_ctb.h **** *
 673:Generated_Source\PSoC6\pdl\drivers\peripheral\ctb/cy_ctb.h **** * The CTB bias current can be 1 uA (normal) or 100 nA (low current).
 674:Generated_Source\PSoC6\pdl\drivers\peripheral\ctb/cy_ctb.h **** */
 675:Generated_Source\PSoC6\pdl\drivers\peripheral\ctb/cy_ctb.h **** typedef enum
 676:Generated_Source\PSoC6\pdl\drivers\peripheral\ctb/cy_ctb.h **** {
 677:Generated_Source\PSoC6\pdl\drivers\peripheral\ctb/cy_ctb.h ****     CY_CTB_IPTAT_NORMAL       = 0u,                                               /**< 1 uA bias cu
 678:Generated_Source\PSoC6\pdl\drivers\peripheral\ctb/cy_ctb.h ****     CY_CTB_IPTAT_LOW          = 1u << PASS_AREF_AREF_CTRL_CTB_IPTAT_SCALE_Pos,    /**< 100 nA bias 
 679:Generated_Source\PSoC6\pdl\drivers\peripheral\ctb/cy_ctb.h **** }cy_en_ctb_iptat_t;
 680:Generated_Source\PSoC6\pdl\drivers\peripheral\ctb/cy_ctb.h **** 
 681:Generated_Source\PSoC6\pdl\drivers\peripheral\ctb/cy_ctb.h **** /** CTB charge pump clock sources
 682:Generated_Source\PSoC6\pdl\drivers\peripheral\ctb/cy_ctb.h **** *
 683:Generated_Source\PSoC6\pdl\drivers\peripheral\ctb/cy_ctb.h **** * The CTB pump clock can come from:
 684:Generated_Source\PSoC6\pdl\drivers\peripheral\ctb/cy_ctb.h **** *   - a dedicated divider clock in the SRSS
 685:Generated_Source\PSoC6\pdl\drivers\peripheral\ctb/cy_ctb.h **** *   - one of the CLK_PERI dividers
 686:Generated_Source\PSoC6\pdl\drivers\peripheral\ctb/cy_ctb.h **** */
 687:Generated_Source\PSoC6\pdl\drivers\peripheral\ctb/cy_ctb.h **** typedef enum
 688:Generated_Source\PSoC6\pdl\drivers\peripheral\ctb/cy_ctb.h **** {
 689:Generated_Source\PSoC6\pdl\drivers\peripheral\ctb/cy_ctb.h ****     CY_CTB_CLK_PUMP_SRSS       = 0u,                                                   /**< Use the
 690:Generated_Source\PSoC6\pdl\drivers\peripheral\ctb/cy_ctb.h ****     CY_CTB_CLK_PUMP_PERI       = 1u << PASS_AREF_AREF_CTRL_CLOCK_PUMP_PERI_SEL_Pos,    /**< Use one
 691:Generated_Source\PSoC6\pdl\drivers\peripheral\ctb/cy_ctb.h **** }cy_en_ctb_clk_pump_source_t;
 692:Generated_Source\PSoC6\pdl\drivers\peripheral\ctb/cy_ctb.h **** 
 693:Generated_Source\PSoC6\pdl\drivers\peripheral\ctb/cy_ctb.h **** /** High level opamp current modes */
 694:Generated_Source\PSoC6\pdl\drivers\peripheral\ctb/cy_ctb.h **** typedef enum
 695:Generated_Source\PSoC6\pdl\drivers\peripheral\ctb/cy_ctb.h **** {
 696:Generated_Source\PSoC6\pdl\drivers\peripheral\ctb/cy_ctb.h ****     CY_CTB_CURRENT_HIGH_ACTIVE             = 0u,    /**< Uses 1 uA reference current with charge pu
 697:Generated_Source\PSoC6\pdl\drivers\peripheral\ctb/cy_ctb.h ****     CY_CTB_CURRENT_HIGH_ACTIVE_DEEPSLEEP   = 1u,    /**< Uses 1 uA reference current with charge pu
 698:Generated_Source\PSoC6\pdl\drivers\peripheral\ctb/cy_ctb.h ****     CY_CTB_CURRENT_LOW_ACTIVE_DEEPSLEEP    = 2u,    /**< Uses 100 nA reference current with charge 
 699:Generated_Source\PSoC6\pdl\drivers\peripheral\ctb/cy_ctb.h **** }cy_en_ctb_current_mode_t;
 700:Generated_Source\PSoC6\pdl\drivers\peripheral\ctb/cy_ctb.h **** 
 701:Generated_Source\PSoC6\pdl\drivers\peripheral\ctb/cy_ctb.h **** /** Return states for \ref Cy_CTB_Init, \ref Cy_CTB_OpampInit, \ref Cy_CTB_DeInit, and \ref Cy_CTB_
 702:Generated_Source\PSoC6\pdl\drivers\peripheral\ctb/cy_ctb.h **** typedef enum {
 703:Generated_Source\PSoC6\pdl\drivers\peripheral\ctb/cy_ctb.h ****     CY_CTB_SUCCESS    = 0x00uL,                                      /**< Initialization completed 
 704:Generated_Source\PSoC6\pdl\drivers\peripheral\ctb/cy_ctb.h ****     CY_CTB_BAD_PARAM  = CY_CTB_ID | CY_PDL_STATUS_ERROR | 0x01uL,    /**< Input pointers were NULL 
 705:Generated_Source\PSoC6\pdl\drivers\peripheral\ctb/cy_ctb.h **** }cy_en_ctb_status_t;
 706:Generated_Source\PSoC6\pdl\drivers\peripheral\ctb/cy_ctb.h **** 
 707:Generated_Source\PSoC6\pdl\drivers\peripheral\ctb/cy_ctb.h **** /** \} group_ctb_enums */
 708:Generated_Source\PSoC6\pdl\drivers\peripheral\ctb/cy_ctb.h **** 
 709:Generated_Source\PSoC6\pdl\drivers\peripheral\ctb/cy_ctb.h **** /***************************************
 710:Generated_Source\PSoC6\pdl\drivers\peripheral\ctb/cy_ctb.h **** *       Configuration Structures
 711:Generated_Source\PSoC6\pdl\drivers\peripheral\ctb/cy_ctb.h **** ***************************************/
 712:Generated_Source\PSoC6\pdl\drivers\peripheral\ctb/cy_ctb.h **** 
 713:Generated_Source\PSoC6\pdl\drivers\peripheral\ctb/cy_ctb.h **** /**
 714:Generated_Source\PSoC6\pdl\drivers\peripheral\ctb/cy_ctb.h **** * \addtogroup group_ctb_data_structures
 715:Generated_Source\PSoC6\pdl\drivers\peripheral\ctb/cy_ctb.h **** * \{
 716:Generated_Source\PSoC6\pdl\drivers\peripheral\ctb/cy_ctb.h **** */
ARM GAS  C:\Users\gjl\AppData\Local\Temp\cckcOS93.s 			page 46


 717:Generated_Source\PSoC6\pdl\drivers\peripheral\ctb/cy_ctb.h **** 
 718:Generated_Source\PSoC6\pdl\drivers\peripheral\ctb/cy_ctb.h **** /**
 719:Generated_Source\PSoC6\pdl\drivers\peripheral\ctb/cy_ctb.h **** * Configuration structure to set up the entire CTB to be used with \ref Cy_CTB_Init.
 720:Generated_Source\PSoC6\pdl\drivers\peripheral\ctb/cy_ctb.h **** */
 721:Generated_Source\PSoC6\pdl\drivers\peripheral\ctb/cy_ctb.h **** typedef struct {
 722:Generated_Source\PSoC6\pdl\drivers\peripheral\ctb/cy_ctb.h ****     cy_en_ctb_deep_sleep_t      deepSleep;      /**< Enable or disable the CTB during Deep Sleep */
 723:Generated_Source\PSoC6\pdl\drivers\peripheral\ctb/cy_ctb.h **** 
 724:Generated_Source\PSoC6\pdl\drivers\peripheral\ctb/cy_ctb.h ****     /* Opamp0 configuration */
 725:Generated_Source\PSoC6\pdl\drivers\peripheral\ctb/cy_ctb.h ****     cy_en_ctb_power_t           oa0Power;       /**< Opamp0 power mode: off, low, medium, or high *
 726:Generated_Source\PSoC6\pdl\drivers\peripheral\ctb/cy_ctb.h ****     cy_en_ctb_mode_t            oa0Mode;        /**< Opamp0 usage mode: 1x drive, 10x drive, or as 
 727:Generated_Source\PSoC6\pdl\drivers\peripheral\ctb/cy_ctb.h ****     cy_en_ctb_pump_t            oa0Pump;        /**< Opamp0 charge pump: enable to increase input r
 728:Generated_Source\PSoC6\pdl\drivers\peripheral\ctb/cy_ctb.h ****     cy_en_ctb_comp_edge_t       oa0CompEdge;    /**< Opamp0 comparator edge detection: disable, ris
 729:Generated_Source\PSoC6\pdl\drivers\peripheral\ctb/cy_ctb.h ****     cy_en_ctb_comp_level_t      oa0CompLevel;   /**< Opamp0 comparator DSI (trigger) output: pulse 
 730:Generated_Source\PSoC6\pdl\drivers\peripheral\ctb/cy_ctb.h ****     cy_en_ctb_comp_bypass_t     oa0CompBypass;  /**< Opamp0 comparator DSI (trigger) output synchro
 731:Generated_Source\PSoC6\pdl\drivers\peripheral\ctb/cy_ctb.h ****     cy_en_ctb_comp_hyst_t       oa0CompHyst;    /**< Opamp0 comparator hysteresis: enable for 10 mV
 732:Generated_Source\PSoC6\pdl\drivers\peripheral\ctb/cy_ctb.h ****     bool                        oa0CompIntrEn;  /**< Opamp0 comparator interrupt enable */
 733:Generated_Source\PSoC6\pdl\drivers\peripheral\ctb/cy_ctb.h **** 
 734:Generated_Source\PSoC6\pdl\drivers\peripheral\ctb/cy_ctb.h ****     /* Opamp1 configuration */
 735:Generated_Source\PSoC6\pdl\drivers\peripheral\ctb/cy_ctb.h ****     cy_en_ctb_power_t           oa1Power;       /**< Opamp1 power mode: off, low, medium, or high *
 736:Generated_Source\PSoC6\pdl\drivers\peripheral\ctb/cy_ctb.h ****     cy_en_ctb_mode_t            oa1Mode;        /**< Opamp1 usage mode: 1x drive, 10x drive, or as 
 737:Generated_Source\PSoC6\pdl\drivers\peripheral\ctb/cy_ctb.h ****     cy_en_ctb_pump_t            oa1Pump;        /**< Opamp1 charge pump: enable to increase input r
 738:Generated_Source\PSoC6\pdl\drivers\peripheral\ctb/cy_ctb.h ****     cy_en_ctb_comp_edge_t       oa1CompEdge;    /**< Opamp1 comparator edge detection: disable, ris
 739:Generated_Source\PSoC6\pdl\drivers\peripheral\ctb/cy_ctb.h ****     cy_en_ctb_comp_level_t      oa1CompLevel;   /**< Opamp1 comparator DSI (trigger) output: pulse 
 740:Generated_Source\PSoC6\pdl\drivers\peripheral\ctb/cy_ctb.h ****     cy_en_ctb_comp_bypass_t     oa1CompBypass;  /**< Opamp1 comparator DSI (trigger) output synchro
 741:Generated_Source\PSoC6\pdl\drivers\peripheral\ctb/cy_ctb.h ****     cy_en_ctb_comp_hyst_t       oa1CompHyst;    /**< Opamp1 comparator hysteresis: enable for 10 mV
 742:Generated_Source\PSoC6\pdl\drivers\peripheral\ctb/cy_ctb.h ****     bool                        oa1CompIntrEn;  /**< Opamp1 comparator interrupt enable */
 743:Generated_Source\PSoC6\pdl\drivers\peripheral\ctb/cy_ctb.h **** 
 744:Generated_Source\PSoC6\pdl\drivers\peripheral\ctb/cy_ctb.h ****     /* Switch analog routing configuration */
 745:Generated_Source\PSoC6\pdl\drivers\peripheral\ctb/cy_ctb.h ****     bool                        configRouting;  /**< Configure or ignore routing related registers 
 746:Generated_Source\PSoC6\pdl\drivers\peripheral\ctb/cy_ctb.h ****     uint32_t                    oa0SwitchCtrl;  /**< Opamp0 routing control */
 747:Generated_Source\PSoC6\pdl\drivers\peripheral\ctb/cy_ctb.h ****     uint32_t                    oa1SwitchCtrl;  /**< Opamp1 routing control */
 748:Generated_Source\PSoC6\pdl\drivers\peripheral\ctb/cy_ctb.h ****     uint32_t                    ctdSwitchCtrl;  /**< Routing control between the CTDAC and CTB bloc
 749:Generated_Source\PSoC6\pdl\drivers\peripheral\ctb/cy_ctb.h **** }cy_stc_ctb_config_t;
 750:Generated_Source\PSoC6\pdl\drivers\peripheral\ctb/cy_ctb.h **** 
 751:Generated_Source\PSoC6\pdl\drivers\peripheral\ctb/cy_ctb.h **** /**
 752:Generated_Source\PSoC6\pdl\drivers\peripheral\ctb/cy_ctb.h **** * This configuration structure is used to initialize only one opamp of the CTB
 753:Generated_Source\PSoC6\pdl\drivers\peripheral\ctb/cy_ctb.h **** * without impacting analog routing. This structure is used with \ref Cy_CTB_OpampInit.
 754:Generated_Source\PSoC6\pdl\drivers\peripheral\ctb/cy_ctb.h **** */
 755:Generated_Source\PSoC6\pdl\drivers\peripheral\ctb/cy_ctb.h **** typedef struct {
 756:Generated_Source\PSoC6\pdl\drivers\peripheral\ctb/cy_ctb.h ****     cy_en_ctb_deep_sleep_t      deepSleep;      /**< Enable or disable the CTB during Deep Sleep */
 757:Generated_Source\PSoC6\pdl\drivers\peripheral\ctb/cy_ctb.h **** 
 758:Generated_Source\PSoC6\pdl\drivers\peripheral\ctb/cy_ctb.h ****     /* Opamp configuration */
 759:Generated_Source\PSoC6\pdl\drivers\peripheral\ctb/cy_ctb.h ****     cy_en_ctb_power_t           oaPower;        /**< Opamp power mode: off, low, medium, or high */
 760:Generated_Source\PSoC6\pdl\drivers\peripheral\ctb/cy_ctb.h ****     cy_en_ctb_mode_t            oaMode;         /**< Opamp usage mode: 1x drive, 10x drive, or as a
 761:Generated_Source\PSoC6\pdl\drivers\peripheral\ctb/cy_ctb.h ****     cy_en_ctb_pump_t            oaPump;         /**< Opamp charge pump: enable to increase input ra
 762:Generated_Source\PSoC6\pdl\drivers\peripheral\ctb/cy_ctb.h ****     cy_en_ctb_comp_edge_t       oaCompEdge;     /**< Opamp comparator edge detection: disable, risi
 763:Generated_Source\PSoC6\pdl\drivers\peripheral\ctb/cy_ctb.h ****     cy_en_ctb_comp_level_t      oaCompLevel;    /**< Opamp comparator DSI (trigger) output: pulse o
 764:Generated_Source\PSoC6\pdl\drivers\peripheral\ctb/cy_ctb.h ****     cy_en_ctb_comp_bypass_t     oaCompBypass;   /**< Opamp comparator DSI (trigger) output synchron
 765:Generated_Source\PSoC6\pdl\drivers\peripheral\ctb/cy_ctb.h ****     cy_en_ctb_comp_hyst_t       oaCompHyst;     /**< Opamp comparator hysteresis: enable for 10 mV 
 766:Generated_Source\PSoC6\pdl\drivers\peripheral\ctb/cy_ctb.h ****     bool                        oaCompIntrEn;   /**< Opamp comparator interrupt enable */
 767:Generated_Source\PSoC6\pdl\drivers\peripheral\ctb/cy_ctb.h **** }cy_stc_ctb_opamp_config_t;
 768:Generated_Source\PSoC6\pdl\drivers\peripheral\ctb/cy_ctb.h **** 
 769:Generated_Source\PSoC6\pdl\drivers\peripheral\ctb/cy_ctb.h **** /** This configuration structure is used to quickly initialize Opamp0 for the most commonly used co
 770:Generated_Source\PSoC6\pdl\drivers\peripheral\ctb/cy_ctb.h **** *
 771:Generated_Source\PSoC6\pdl\drivers\peripheral\ctb/cy_ctb.h **** * Other configuration options are set to:
 772:Generated_Source\PSoC6\pdl\drivers\peripheral\ctb/cy_ctb.h **** *   - .oa0Pump       = \ref CY_CTB_PUMP_ENABLE
 773:Generated_Source\PSoC6\pdl\drivers\peripheral\ctb/cy_ctb.h **** *   - .oa0CompEdge   = \ref CY_CTB_COMP_EDGE_BOTH
ARM GAS  C:\Users\gjl\AppData\Local\Temp\cckcOS93.s 			page 47


 774:Generated_Source\PSoC6\pdl\drivers\peripheral\ctb/cy_ctb.h **** *   - .oa0CompLevel  = \ref CY_CTB_COMP_DSI_TRIGGER_OUT_LEVEL
 775:Generated_Source\PSoC6\pdl\drivers\peripheral\ctb/cy_ctb.h **** *   - .oa0CompBypass = \ref CY_CTB_COMP_BYPASS_SYNC
 776:Generated_Source\PSoC6\pdl\drivers\peripheral\ctb/cy_ctb.h **** *   - .oa0CompHyst   = \ref CY_CTB_COMP_HYST_10MV
 777:Generated_Source\PSoC6\pdl\drivers\peripheral\ctb/cy_ctb.h **** *   - .oa0CompIntrEn = true
 778:Generated_Source\PSoC6\pdl\drivers\peripheral\ctb/cy_ctb.h **** */
 779:Generated_Source\PSoC6\pdl\drivers\peripheral\ctb/cy_ctb.h **** typedef struct
 780:Generated_Source\PSoC6\pdl\drivers\peripheral\ctb/cy_ctb.h **** {
 781:Generated_Source\PSoC6\pdl\drivers\peripheral\ctb/cy_ctb.h ****     cy_en_ctb_power_t   oa0Power;       /**< Opamp0 power mode: off, low, medium, or high */
 782:Generated_Source\PSoC6\pdl\drivers\peripheral\ctb/cy_ctb.h ****     cy_en_ctb_mode_t    oa0Mode;        /**< Opamp0 usage mode: 1x drive, 10x drive, or as a compar
 783:Generated_Source\PSoC6\pdl\drivers\peripheral\ctb/cy_ctb.h ****     uint32_t            oa0SwitchCtrl;  /**< Opamp0 routing control */
 784:Generated_Source\PSoC6\pdl\drivers\peripheral\ctb/cy_ctb.h ****     uint32_t            ctdSwitchCtrl;  /**< Routing control between the CTDAC and CTB blocks */
 785:Generated_Source\PSoC6\pdl\drivers\peripheral\ctb/cy_ctb.h **** }cy_stc_ctb_fast_config_oa0_t;
 786:Generated_Source\PSoC6\pdl\drivers\peripheral\ctb/cy_ctb.h **** 
 787:Generated_Source\PSoC6\pdl\drivers\peripheral\ctb/cy_ctb.h **** /** This configuration structure is used to quickly initialize Opamp1 for the most commonly used co
 788:Generated_Source\PSoC6\pdl\drivers\peripheral\ctb/cy_ctb.h **** *
 789:Generated_Source\PSoC6\pdl\drivers\peripheral\ctb/cy_ctb.h **** * Other configuration options are set to:
 790:Generated_Source\PSoC6\pdl\drivers\peripheral\ctb/cy_ctb.h **** *   - .oa1Pump       = \ref CY_CTB_PUMP_ENABLE
 791:Generated_Source\PSoC6\pdl\drivers\peripheral\ctb/cy_ctb.h **** *   - .oa1CompEdge   = \ref CY_CTB_COMP_EDGE_BOTH
 792:Generated_Source\PSoC6\pdl\drivers\peripheral\ctb/cy_ctb.h **** *   - .oa1CompLevel  = \ref CY_CTB_COMP_DSI_TRIGGER_OUT_LEVEL
 793:Generated_Source\PSoC6\pdl\drivers\peripheral\ctb/cy_ctb.h **** *   - .oa1CompBypass = \ref CY_CTB_COMP_BYPASS_SYNC
 794:Generated_Source\PSoC6\pdl\drivers\peripheral\ctb/cy_ctb.h **** *   - .oa1CompHyst   = \ref CY_CTB_COMP_HYST_10MV
 795:Generated_Source\PSoC6\pdl\drivers\peripheral\ctb/cy_ctb.h **** *   - .oa1CompIntrEn = true
 796:Generated_Source\PSoC6\pdl\drivers\peripheral\ctb/cy_ctb.h **** */
 797:Generated_Source\PSoC6\pdl\drivers\peripheral\ctb/cy_ctb.h **** typedef struct
 798:Generated_Source\PSoC6\pdl\drivers\peripheral\ctb/cy_ctb.h **** {
 799:Generated_Source\PSoC6\pdl\drivers\peripheral\ctb/cy_ctb.h ****     cy_en_ctb_power_t   oa1Power;       /**< Opamp1 power mode: off, low, medium, or high */
 800:Generated_Source\PSoC6\pdl\drivers\peripheral\ctb/cy_ctb.h ****     cy_en_ctb_mode_t    oa1Mode;        /**< Opamp1 usage mode: 1x drive, 10x drive, or as a compar
 801:Generated_Source\PSoC6\pdl\drivers\peripheral\ctb/cy_ctb.h ****     uint32_t            oa1SwitchCtrl;  /**< Opamp1 routing control */
 802:Generated_Source\PSoC6\pdl\drivers\peripheral\ctb/cy_ctb.h ****     uint32_t            ctdSwitchCtrl;  /**< Routing control between the CTDAC and CTB blocks */
 803:Generated_Source\PSoC6\pdl\drivers\peripheral\ctb/cy_ctb.h **** }cy_stc_ctb_fast_config_oa1_t;
 804:Generated_Source\PSoC6\pdl\drivers\peripheral\ctb/cy_ctb.h **** 
 805:Generated_Source\PSoC6\pdl\drivers\peripheral\ctb/cy_ctb.h **** /** \} group_ctb_data_structures */
 806:Generated_Source\PSoC6\pdl\drivers\peripheral\ctb/cy_ctb.h **** 
 807:Generated_Source\PSoC6\pdl\drivers\peripheral\ctb/cy_ctb.h **** 
 808:Generated_Source\PSoC6\pdl\drivers\peripheral\ctb/cy_ctb.h **** /** \addtogroup group_ctb_globals
 809:Generated_Source\PSoC6\pdl\drivers\peripheral\ctb/cy_ctb.h **** * \{
 810:Generated_Source\PSoC6\pdl\drivers\peripheral\ctb/cy_ctb.h **** */
 811:Generated_Source\PSoC6\pdl\drivers\peripheral\ctb/cy_ctb.h **** /***************************************
 812:Generated_Source\PSoC6\pdl\drivers\peripheral\ctb/cy_ctb.h **** *        Global Variables
 813:Generated_Source\PSoC6\pdl\drivers\peripheral\ctb/cy_ctb.h **** ***************************************/
 814:Generated_Source\PSoC6\pdl\drivers\peripheral\ctb/cy_ctb.h **** 
 815:Generated_Source\PSoC6\pdl\drivers\peripheral\ctb/cy_ctb.h **** /** Configure Opamp0 as unused - powered down. See \ref Cy_CTB_FastInit. */
 816:Generated_Source\PSoC6\pdl\drivers\peripheral\ctb/cy_ctb.h **** extern const cy_stc_ctb_fast_config_oa0_t Cy_CTB_Fast_Opamp0_Unused;
 817:Generated_Source\PSoC6\pdl\drivers\peripheral\ctb/cy_ctb.h **** 
 818:Generated_Source\PSoC6\pdl\drivers\peripheral\ctb/cy_ctb.h **** /** Configure Opamp0 as a comparator. No routing is configured.
 819:Generated_Source\PSoC6\pdl\drivers\peripheral\ctb/cy_ctb.h **** *
 820:Generated_Source\PSoC6\pdl\drivers\peripheral\ctb/cy_ctb.h **** * \image html ctb_fast_config_comp.png
 821:Generated_Source\PSoC6\pdl\drivers\peripheral\ctb/cy_ctb.h **** * \image latex ctb_fast_config_comp.png width=100px
 822:Generated_Source\PSoC6\pdl\drivers\peripheral\ctb/cy_ctb.h **** *
 823:Generated_Source\PSoC6\pdl\drivers\peripheral\ctb/cy_ctb.h **** * See \ref Cy_CTB_FastInit.
 824:Generated_Source\PSoC6\pdl\drivers\peripheral\ctb/cy_ctb.h **** */
 825:Generated_Source\PSoC6\pdl\drivers\peripheral\ctb/cy_ctb.h **** extern const cy_stc_ctb_fast_config_oa0_t Cy_CTB_Fast_Opamp0_Comp;
 826:Generated_Source\PSoC6\pdl\drivers\peripheral\ctb/cy_ctb.h **** 
 827:Generated_Source\PSoC6\pdl\drivers\peripheral\ctb/cy_ctb.h **** /** Configure Opamp0 as an opamp with 1x drive. No routing is configured.
 828:Generated_Source\PSoC6\pdl\drivers\peripheral\ctb/cy_ctb.h **** *
 829:Generated_Source\PSoC6\pdl\drivers\peripheral\ctb/cy_ctb.h **** * \image html ctb_fast_config_opamp1x.png
 830:Generated_Source\PSoC6\pdl\drivers\peripheral\ctb/cy_ctb.h **** * \image latex ctb_fast_config_opamp1x.png width=100px
ARM GAS  C:\Users\gjl\AppData\Local\Temp\cckcOS93.s 			page 48


 831:Generated_Source\PSoC6\pdl\drivers\peripheral\ctb/cy_ctb.h **** *
 832:Generated_Source\PSoC6\pdl\drivers\peripheral\ctb/cy_ctb.h **** * See \ref Cy_CTB_FastInit.
 833:Generated_Source\PSoC6\pdl\drivers\peripheral\ctb/cy_ctb.h **** */
 834:Generated_Source\PSoC6\pdl\drivers\peripheral\ctb/cy_ctb.h **** extern const cy_stc_ctb_fast_config_oa0_t Cy_CTB_Fast_Opamp0_Opamp1x;
 835:Generated_Source\PSoC6\pdl\drivers\peripheral\ctb/cy_ctb.h **** 
 836:Generated_Source\PSoC6\pdl\drivers\peripheral\ctb/cy_ctb.h **** /** Configure Opamp0 as an opamp with 10x drive. No routing is configured.
 837:Generated_Source\PSoC6\pdl\drivers\peripheral\ctb/cy_ctb.h **** *
 838:Generated_Source\PSoC6\pdl\drivers\peripheral\ctb/cy_ctb.h **** * \image html ctb_fast_config_opamp10x.png
 839:Generated_Source\PSoC6\pdl\drivers\peripheral\ctb/cy_ctb.h **** * \image latex ctb_fast_config_opamp10x.png width=100px
 840:Generated_Source\PSoC6\pdl\drivers\peripheral\ctb/cy_ctb.h **** *
 841:Generated_Source\PSoC6\pdl\drivers\peripheral\ctb/cy_ctb.h **** * See \ref Cy_CTB_FastInit.
 842:Generated_Source\PSoC6\pdl\drivers\peripheral\ctb/cy_ctb.h **** */
 843:Generated_Source\PSoC6\pdl\drivers\peripheral\ctb/cy_ctb.h **** extern const cy_stc_ctb_fast_config_oa0_t Cy_CTB_Fast_Opamp0_Opamp10x;
 844:Generated_Source\PSoC6\pdl\drivers\peripheral\ctb/cy_ctb.h **** 
 845:Generated_Source\PSoC6\pdl\drivers\peripheral\ctb/cy_ctb.h **** /** Configure Opamp0 as one stage of a differential amplifier.
 846:Generated_Source\PSoC6\pdl\drivers\peripheral\ctb/cy_ctb.h **** * The opamp is in 10x drive and the switches shown are closed.
 847:Generated_Source\PSoC6\pdl\drivers\peripheral\ctb/cy_ctb.h **** *
 848:Generated_Source\PSoC6\pdl\drivers\peripheral\ctb/cy_ctb.h **** * \image html ctb_fast_config_oa0_diffamp.png
 849:Generated_Source\PSoC6\pdl\drivers\peripheral\ctb/cy_ctb.h **** * \image latex ctb_fast_config_oa0_diffamp.png width=100px
 850:Generated_Source\PSoC6\pdl\drivers\peripheral\ctb/cy_ctb.h **** *
 851:Generated_Source\PSoC6\pdl\drivers\peripheral\ctb/cy_ctb.h **** * See the device datasheet for the dedicated CTB port.
 852:Generated_Source\PSoC6\pdl\drivers\peripheral\ctb/cy_ctb.h **** *
 853:Generated_Source\PSoC6\pdl\drivers\peripheral\ctb/cy_ctb.h **** * To be used with \ref Cy_CTB_FastInit and \ref Cy_CTB_Fast_Opamp1_Diffamp.
 854:Generated_Source\PSoC6\pdl\drivers\peripheral\ctb/cy_ctb.h **** */
 855:Generated_Source\PSoC6\pdl\drivers\peripheral\ctb/cy_ctb.h **** extern const cy_stc_ctb_fast_config_oa0_t Cy_CTB_Fast_Opamp0_Diffamp;
 856:Generated_Source\PSoC6\pdl\drivers\peripheral\ctb/cy_ctb.h **** 
 857:Generated_Source\PSoC6\pdl\drivers\peripheral\ctb/cy_ctb.h **** /** Configure Opamp0 as a buffer for the CTDAC output.
 858:Generated_Source\PSoC6\pdl\drivers\peripheral\ctb/cy_ctb.h **** * The buffer is in 10x drive and the switches shown are closed.
 859:Generated_Source\PSoC6\pdl\drivers\peripheral\ctb/cy_ctb.h **** * Configure the CTDAC for output buffer mode by calling \ref Cy_CTDAC_FastInit
 860:Generated_Source\PSoC6\pdl\drivers\peripheral\ctb/cy_ctb.h **** * with \ref Cy_CTDAC_Fast_VddaRef_BufferedOut or \ref Cy_CTDAC_Fast_OA1Ref_BufferedOut.
 861:Generated_Source\PSoC6\pdl\drivers\peripheral\ctb/cy_ctb.h **** *
 862:Generated_Source\PSoC6\pdl\drivers\peripheral\ctb/cy_ctb.h **** * \image html ctb_fast_config_vdac_output.png
 863:Generated_Source\PSoC6\pdl\drivers\peripheral\ctb/cy_ctb.h **** * \image latex ctb_fast_config_vdac_output.png
 864:Generated_Source\PSoC6\pdl\drivers\peripheral\ctb/cy_ctb.h **** *
 865:Generated_Source\PSoC6\pdl\drivers\peripheral\ctb/cy_ctb.h **** * See the device datasheet for the dedicated CTB port.
 866:Generated_Source\PSoC6\pdl\drivers\peripheral\ctb/cy_ctb.h **** *
 867:Generated_Source\PSoC6\pdl\drivers\peripheral\ctb/cy_ctb.h **** * See \ref Cy_CTB_FastInit.
 868:Generated_Source\PSoC6\pdl\drivers\peripheral\ctb/cy_ctb.h **** */
 869:Generated_Source\PSoC6\pdl\drivers\peripheral\ctb/cy_ctb.h **** extern const cy_stc_ctb_fast_config_oa0_t Cy_CTB_Fast_Opamp0_Vdac_Out;
 870:Generated_Source\PSoC6\pdl\drivers\peripheral\ctb/cy_ctb.h **** 
 871:Generated_Source\PSoC6\pdl\drivers\peripheral\ctb/cy_ctb.h **** /** Configure Opamp0 as a buffer for the CTDAC output with the sample and hold capacitor connected.
 872:Generated_Source\PSoC6\pdl\drivers\peripheral\ctb/cy_ctb.h **** * The buffer is in 10x drive and the switches shown are closed.
 873:Generated_Source\PSoC6\pdl\drivers\peripheral\ctb/cy_ctb.h **** * Configure the CTDAC for output buffer mode by calling \ref Cy_CTDAC_FastInit
 874:Generated_Source\PSoC6\pdl\drivers\peripheral\ctb/cy_ctb.h **** * with \ref Cy_CTDAC_Fast_VddaRef_BufferedOut or \ref Cy_CTDAC_Fast_OA1Ref_BufferedOut.
 875:Generated_Source\PSoC6\pdl\drivers\peripheral\ctb/cy_ctb.h **** 
 876:Generated_Source\PSoC6\pdl\drivers\peripheral\ctb/cy_ctb.h **** * \image html ctb_fast_config_vdac_sh.png
 877:Generated_Source\PSoC6\pdl\drivers\peripheral\ctb/cy_ctb.h **** * \image latex ctb_fast_config_vdac_sh.png
 878:Generated_Source\PSoC6\pdl\drivers\peripheral\ctb/cy_ctb.h **** *
 879:Generated_Source\PSoC6\pdl\drivers\peripheral\ctb/cy_ctb.h **** * See the device datasheet for the dedicated CTB port.
 880:Generated_Source\PSoC6\pdl\drivers\peripheral\ctb/cy_ctb.h **** *
 881:Generated_Source\PSoC6\pdl\drivers\peripheral\ctb/cy_ctb.h **** * See \ref Cy_CTB_FastInit.
 882:Generated_Source\PSoC6\pdl\drivers\peripheral\ctb/cy_ctb.h **** */
 883:Generated_Source\PSoC6\pdl\drivers\peripheral\ctb/cy_ctb.h **** extern const cy_stc_ctb_fast_config_oa0_t Cy_CTB_Fast_Opamp0_Vdac_Out_SH;
 884:Generated_Source\PSoC6\pdl\drivers\peripheral\ctb/cy_ctb.h **** 
 885:Generated_Source\PSoC6\pdl\drivers\peripheral\ctb/cy_ctb.h **** /** Configure Opamp1 as unused - powered down. See \ref Cy_CTB_FastInit.*/
 886:Generated_Source\PSoC6\pdl\drivers\peripheral\ctb/cy_ctb.h **** extern const cy_stc_ctb_fast_config_oa1_t Cy_CTB_Fast_Opamp1_Unused;
 887:Generated_Source\PSoC6\pdl\drivers\peripheral\ctb/cy_ctb.h **** 
ARM GAS  C:\Users\gjl\AppData\Local\Temp\cckcOS93.s 			page 49


 888:Generated_Source\PSoC6\pdl\drivers\peripheral\ctb/cy_ctb.h **** /** Configure Opamp1 as a comparator. No routing is configured.
 889:Generated_Source\PSoC6\pdl\drivers\peripheral\ctb/cy_ctb.h **** *
 890:Generated_Source\PSoC6\pdl\drivers\peripheral\ctb/cy_ctb.h **** * \image html ctb_fast_config_comp.png
 891:Generated_Source\PSoC6\pdl\drivers\peripheral\ctb/cy_ctb.h **** * \image latex ctb_fast_config_comp.png width=100px
 892:Generated_Source\PSoC6\pdl\drivers\peripheral\ctb/cy_ctb.h **** *
 893:Generated_Source\PSoC6\pdl\drivers\peripheral\ctb/cy_ctb.h **** * See \ref Cy_CTB_FastInit.
 894:Generated_Source\PSoC6\pdl\drivers\peripheral\ctb/cy_ctb.h **** */
 895:Generated_Source\PSoC6\pdl\drivers\peripheral\ctb/cy_ctb.h **** extern const cy_stc_ctb_fast_config_oa1_t Cy_CTB_Fast_Opamp1_Comp;
 896:Generated_Source\PSoC6\pdl\drivers\peripheral\ctb/cy_ctb.h **** 
 897:Generated_Source\PSoC6\pdl\drivers\peripheral\ctb/cy_ctb.h **** /** Configure Opamp1 as an opamp with 1x drive. No routing is configured.
 898:Generated_Source\PSoC6\pdl\drivers\peripheral\ctb/cy_ctb.h **** *
 899:Generated_Source\PSoC6\pdl\drivers\peripheral\ctb/cy_ctb.h **** * \image html ctb_fast_config_opamp1x.png
 900:Generated_Source\PSoC6\pdl\drivers\peripheral\ctb/cy_ctb.h **** * \image latex ctb_fast_config_opamp1x.png width=100px
 901:Generated_Source\PSoC6\pdl\drivers\peripheral\ctb/cy_ctb.h **** *
 902:Generated_Source\PSoC6\pdl\drivers\peripheral\ctb/cy_ctb.h **** * See \ref Cy_CTB_FastInit.
 903:Generated_Source\PSoC6\pdl\drivers\peripheral\ctb/cy_ctb.h **** */
 904:Generated_Source\PSoC6\pdl\drivers\peripheral\ctb/cy_ctb.h **** extern const cy_stc_ctb_fast_config_oa1_t Cy_CTB_Fast_Opamp1_Opamp1x;
 905:Generated_Source\PSoC6\pdl\drivers\peripheral\ctb/cy_ctb.h **** 
 906:Generated_Source\PSoC6\pdl\drivers\peripheral\ctb/cy_ctb.h **** /** Configure Opamp1 as an opamp with 10x drive. No routing is configured.
 907:Generated_Source\PSoC6\pdl\drivers\peripheral\ctb/cy_ctb.h **** *
 908:Generated_Source\PSoC6\pdl\drivers\peripheral\ctb/cy_ctb.h **** * \image html ctb_fast_config_opamp10x.png
 909:Generated_Source\PSoC6\pdl\drivers\peripheral\ctb/cy_ctb.h **** * \image latex ctb_fast_config_opamp10x.png width=100px
 910:Generated_Source\PSoC6\pdl\drivers\peripheral\ctb/cy_ctb.h **** *
 911:Generated_Source\PSoC6\pdl\drivers\peripheral\ctb/cy_ctb.h **** * See \ref Cy_CTB_FastInit.
 912:Generated_Source\PSoC6\pdl\drivers\peripheral\ctb/cy_ctb.h **** */
 913:Generated_Source\PSoC6\pdl\drivers\peripheral\ctb/cy_ctb.h **** extern const cy_stc_ctb_fast_config_oa1_t Cy_CTB_Fast_Opamp1_Opamp10x;
 914:Generated_Source\PSoC6\pdl\drivers\peripheral\ctb/cy_ctb.h **** 
 915:Generated_Source\PSoC6\pdl\drivers\peripheral\ctb/cy_ctb.h **** /** Configure Opamp1 as one stage of a differential amplifier.
 916:Generated_Source\PSoC6\pdl\drivers\peripheral\ctb/cy_ctb.h **** * The opamp is in 10x drive and the switches shown are closed.
 917:Generated_Source\PSoC6\pdl\drivers\peripheral\ctb/cy_ctb.h **** *
 918:Generated_Source\PSoC6\pdl\drivers\peripheral\ctb/cy_ctb.h **** * \image html ctb_fast_config_oa1_diffamp.png
 919:Generated_Source\PSoC6\pdl\drivers\peripheral\ctb/cy_ctb.h **** * \image latex ctb_fast_config_oa1_diffamp.png width=100px
 920:Generated_Source\PSoC6\pdl\drivers\peripheral\ctb/cy_ctb.h **** *
 921:Generated_Source\PSoC6\pdl\drivers\peripheral\ctb/cy_ctb.h **** * See the device datasheet for the dedicated CTB port.
 922:Generated_Source\PSoC6\pdl\drivers\peripheral\ctb/cy_ctb.h **** *
 923:Generated_Source\PSoC6\pdl\drivers\peripheral\ctb/cy_ctb.h **** * To be used with \ref Cy_CTB_FastInit and \ref Cy_CTB_Fast_Opamp0_Diffamp.
 924:Generated_Source\PSoC6\pdl\drivers\peripheral\ctb/cy_ctb.h **** *
 925:Generated_Source\PSoC6\pdl\drivers\peripheral\ctb/cy_ctb.h **** */
 926:Generated_Source\PSoC6\pdl\drivers\peripheral\ctb/cy_ctb.h **** extern const cy_stc_ctb_fast_config_oa1_t Cy_CTB_Fast_Opamp1_Diffamp;
 927:Generated_Source\PSoC6\pdl\drivers\peripheral\ctb/cy_ctb.h **** 
 928:Generated_Source\PSoC6\pdl\drivers\peripheral\ctb/cy_ctb.h **** /** Configure Opamp1 as a buffer for the CTDAC reference. The reference comes from the
 929:Generated_Source\PSoC6\pdl\drivers\peripheral\ctb/cy_ctb.h **** * internal analog reference block (AREF).
 930:Generated_Source\PSoC6\pdl\drivers\peripheral\ctb/cy_ctb.h **** * The buffer is in 1x drive and the switches shown are closed.
 931:Generated_Source\PSoC6\pdl\drivers\peripheral\ctb/cy_ctb.h **** * Configure the CTDAC to use the buffered reference by calling \ref Cy_CTDAC_FastInit
 932:Generated_Source\PSoC6\pdl\drivers\peripheral\ctb/cy_ctb.h **** * with \ref Cy_CTDAC_Fast_OA1Ref_UnbufferedOut or \ref Cy_CTDAC_Fast_OA1Ref_BufferedOut.
 933:Generated_Source\PSoC6\pdl\drivers\peripheral\ctb/cy_ctb.h **** *
 934:Generated_Source\PSoC6\pdl\drivers\peripheral\ctb/cy_ctb.h **** * \image html ctb_fast_config_vdac_aref.png
 935:Generated_Source\PSoC6\pdl\drivers\peripheral\ctb/cy_ctb.h **** * \image latex ctb_fast_config_vdac_aref.png
 936:Generated_Source\PSoC6\pdl\drivers\peripheral\ctb/cy_ctb.h **** *
 937:Generated_Source\PSoC6\pdl\drivers\peripheral\ctb/cy_ctb.h **** * See \ref Cy_CTB_FastInit.
 938:Generated_Source\PSoC6\pdl\drivers\peripheral\ctb/cy_ctb.h **** *
 939:Generated_Source\PSoC6\pdl\drivers\peripheral\ctb/cy_ctb.h **** * Note the AREF block needs to be configured using a separate driver.
 940:Generated_Source\PSoC6\pdl\drivers\peripheral\ctb/cy_ctb.h **** */
 941:Generated_Source\PSoC6\pdl\drivers\peripheral\ctb/cy_ctb.h **** extern const cy_stc_ctb_fast_config_oa1_t Cy_CTB_Fast_Opamp1_Vdac_Ref_Aref;
 942:Generated_Source\PSoC6\pdl\drivers\peripheral\ctb/cy_ctb.h **** 
 943:Generated_Source\PSoC6\pdl\drivers\peripheral\ctb/cy_ctb.h **** /** Configure Opamp1 as a buffer for the CTDAC reference. The reference comes from Pin 5.
 944:Generated_Source\PSoC6\pdl\drivers\peripheral\ctb/cy_ctb.h **** * The buffer is in 1x drive and the switches shown are closed.
ARM GAS  C:\Users\gjl\AppData\Local\Temp\cckcOS93.s 			page 50


 945:Generated_Source\PSoC6\pdl\drivers\peripheral\ctb/cy_ctb.h **** * Configure the CTDAC to use the buffered reference by calling \ref Cy_CTDAC_FastInit
 946:Generated_Source\PSoC6\pdl\drivers\peripheral\ctb/cy_ctb.h **** * with \ref Cy_CTDAC_Fast_OA1Ref_UnbufferedOut or \ref Cy_CTDAC_Fast_OA1Ref_BufferedOut.
 947:Generated_Source\PSoC6\pdl\drivers\peripheral\ctb/cy_ctb.h **** *
 948:Generated_Source\PSoC6\pdl\drivers\peripheral\ctb/cy_ctb.h **** * \image html ctb_fast_config_vdac_pin5.png
 949:Generated_Source\PSoC6\pdl\drivers\peripheral\ctb/cy_ctb.h **** * \image latex ctb_fast_config_vdac_pin5.png
 950:Generated_Source\PSoC6\pdl\drivers\peripheral\ctb/cy_ctb.h **** *
 951:Generated_Source\PSoC6\pdl\drivers\peripheral\ctb/cy_ctb.h **** * See the device datasheet for the dedicated CTB port.
 952:Generated_Source\PSoC6\pdl\drivers\peripheral\ctb/cy_ctb.h **** *
 953:Generated_Source\PSoC6\pdl\drivers\peripheral\ctb/cy_ctb.h **** * See \ref Cy_CTB_FastInit.
 954:Generated_Source\PSoC6\pdl\drivers\peripheral\ctb/cy_ctb.h **** */
 955:Generated_Source\PSoC6\pdl\drivers\peripheral\ctb/cy_ctb.h **** extern const cy_stc_ctb_fast_config_oa1_t Cy_CTB_Fast_Opamp1_Vdac_Ref_Pin5;
 956:Generated_Source\PSoC6\pdl\drivers\peripheral\ctb/cy_ctb.h **** 
 957:Generated_Source\PSoC6\pdl\drivers\peripheral\ctb/cy_ctb.h **** /** \} group_ctb_globals */
 958:Generated_Source\PSoC6\pdl\drivers\peripheral\ctb/cy_ctb.h **** 
 959:Generated_Source\PSoC6\pdl\drivers\peripheral\ctb/cy_ctb.h **** /***************************************
 960:Generated_Source\PSoC6\pdl\drivers\peripheral\ctb/cy_ctb.h **** *        Function Prototypes
 961:Generated_Source\PSoC6\pdl\drivers\peripheral\ctb/cy_ctb.h **** ***************************************/
 962:Generated_Source\PSoC6\pdl\drivers\peripheral\ctb/cy_ctb.h **** 
 963:Generated_Source\PSoC6\pdl\drivers\peripheral\ctb/cy_ctb.h **** /**
 964:Generated_Source\PSoC6\pdl\drivers\peripheral\ctb/cy_ctb.h **** * \addtogroup group_ctb_functions
 965:Generated_Source\PSoC6\pdl\drivers\peripheral\ctb/cy_ctb.h **** * \{
 966:Generated_Source\PSoC6\pdl\drivers\peripheral\ctb/cy_ctb.h **** */
 967:Generated_Source\PSoC6\pdl\drivers\peripheral\ctb/cy_ctb.h **** 
 968:Generated_Source\PSoC6\pdl\drivers\peripheral\ctb/cy_ctb.h **** /**
 969:Generated_Source\PSoC6\pdl\drivers\peripheral\ctb/cy_ctb.h **** * \addtogroup group_ctb_functions_init
 970:Generated_Source\PSoC6\pdl\drivers\peripheral\ctb/cy_ctb.h **** * This set of functions are for initializing, enabling, and disabling the CTB.
 971:Generated_Source\PSoC6\pdl\drivers\peripheral\ctb/cy_ctb.h **** * \{
 972:Generated_Source\PSoC6\pdl\drivers\peripheral\ctb/cy_ctb.h **** */
 973:Generated_Source\PSoC6\pdl\drivers\peripheral\ctb/cy_ctb.h **** cy_en_ctb_status_t Cy_CTB_Init(CTBM_Type *base, const cy_stc_ctb_config_t *config);
 974:Generated_Source\PSoC6\pdl\drivers\peripheral\ctb/cy_ctb.h **** cy_en_ctb_status_t Cy_CTB_OpampInit(CTBM_Type *base, cy_en_ctb_opamp_sel_t opampNum, const cy_stc_c
 975:Generated_Source\PSoC6\pdl\drivers\peripheral\ctb/cy_ctb.h **** cy_en_ctb_status_t Cy_CTB_DeInit(CTBM_Type *base, bool deInitRouting);
 976:Generated_Source\PSoC6\pdl\drivers\peripheral\ctb/cy_ctb.h **** cy_en_ctb_status_t Cy_CTB_FastInit(CTBM_Type *base, const cy_stc_ctb_fast_config_oa0_t *config0, co
 977:Generated_Source\PSoC6\pdl\drivers\peripheral\ctb/cy_ctb.h **** __STATIC_INLINE void Cy_CTB_Enable(CTBM_Type *base);
 978:Generated_Source\PSoC6\pdl\drivers\peripheral\ctb/cy_ctb.h **** __STATIC_INLINE void Cy_CTB_Disable(CTBM_Type *base);
 979:Generated_Source\PSoC6\pdl\drivers\peripheral\ctb/cy_ctb.h **** /** \} */
 980:Generated_Source\PSoC6\pdl\drivers\peripheral\ctb/cy_ctb.h **** 
 981:Generated_Source\PSoC6\pdl\drivers\peripheral\ctb/cy_ctb.h **** /**
 982:Generated_Source\PSoC6\pdl\drivers\peripheral\ctb/cy_ctb.h **** * \addtogroup group_ctb_functions_basic
 983:Generated_Source\PSoC6\pdl\drivers\peripheral\ctb/cy_ctb.h **** * This set of functions are for configuring basic usage of the CTB.
 984:Generated_Source\PSoC6\pdl\drivers\peripheral\ctb/cy_ctb.h **** * \{
 985:Generated_Source\PSoC6\pdl\drivers\peripheral\ctb/cy_ctb.h **** */
 986:Generated_Source\PSoC6\pdl\drivers\peripheral\ctb/cy_ctb.h **** void Cy_CTB_SetDeepSleepMode(CTBM_Type *base, cy_en_ctb_deep_sleep_t deepSleep);
 987:Generated_Source\PSoC6\pdl\drivers\peripheral\ctb/cy_ctb.h **** void Cy_CTB_SetOutputMode(CTBM_Type *base, cy_en_ctb_opamp_sel_t opampNum, cy_en_ctb_mode_t mode);
 988:Generated_Source\PSoC6\pdl\drivers\peripheral\ctb/cy_ctb.h **** void Cy_CTB_SetPower(CTBM_Type *base, cy_en_ctb_opamp_sel_t opampNum, cy_en_ctb_power_t power, cy_e
 989:Generated_Source\PSoC6\pdl\drivers\peripheral\ctb/cy_ctb.h **** /** \} */
 990:Generated_Source\PSoC6\pdl\drivers\peripheral\ctb/cy_ctb.h **** 
 991:Generated_Source\PSoC6\pdl\drivers\peripheral\ctb/cy_ctb.h **** /**
 992:Generated_Source\PSoC6\pdl\drivers\peripheral\ctb/cy_ctb.h **** * \addtogroup group_ctb_functions_sample_hold
 993:Generated_Source\PSoC6\pdl\drivers\peripheral\ctb/cy_ctb.h **** * This function enables sample and hold of the CTDAC output.
 994:Generated_Source\PSoC6\pdl\drivers\peripheral\ctb/cy_ctb.h **** * \{
 995:Generated_Source\PSoC6\pdl\drivers\peripheral\ctb/cy_ctb.h **** */
 996:Generated_Source\PSoC6\pdl\drivers\peripheral\ctb/cy_ctb.h **** void Cy_CTB_DACSampleAndHold(CTBM_Type *base, cy_en_ctb_sample_hold_mode_t mode);
 997:Generated_Source\PSoC6\pdl\drivers\peripheral\ctb/cy_ctb.h **** /** \} */
 998:Generated_Source\PSoC6\pdl\drivers\peripheral\ctb/cy_ctb.h **** 
 999:Generated_Source\PSoC6\pdl\drivers\peripheral\ctb/cy_ctb.h **** /**
1000:Generated_Source\PSoC6\pdl\drivers\peripheral\ctb/cy_ctb.h **** * \addtogroup group_ctb_functions_comparator
1001:Generated_Source\PSoC6\pdl\drivers\peripheral\ctb/cy_ctb.h **** * This set of functions are specific to the comparator mode
ARM GAS  C:\Users\gjl\AppData\Local\Temp\cckcOS93.s 			page 51


1002:Generated_Source\PSoC6\pdl\drivers\peripheral\ctb/cy_ctb.h **** * \{
1003:Generated_Source\PSoC6\pdl\drivers\peripheral\ctb/cy_ctb.h **** */
1004:Generated_Source\PSoC6\pdl\drivers\peripheral\ctb/cy_ctb.h **** void Cy_CTB_CompSetConfig(CTBM_Type *base, cy_en_ctb_opamp_sel_t compNum, cy_en_ctb_comp_level_t le
1005:Generated_Source\PSoC6\pdl\drivers\peripheral\ctb/cy_ctb.h **** uint32_t Cy_CTB_CompGetConfig(const CTBM_Type *base, cy_en_ctb_opamp_sel_t compNum);
1006:Generated_Source\PSoC6\pdl\drivers\peripheral\ctb/cy_ctb.h **** void Cy_CTB_CompSetInterruptEdgeType(CTBM_Type *base, cy_en_ctb_opamp_sel_t compNum, cy_en_ctb_comp
1007:Generated_Source\PSoC6\pdl\drivers\peripheral\ctb/cy_ctb.h **** uint32_t Cy_CTB_CompGetStatus(const CTBM_Type *base, cy_en_ctb_opamp_sel_t compNum);
1008:Generated_Source\PSoC6\pdl\drivers\peripheral\ctb/cy_ctb.h **** /** \} */
1009:Generated_Source\PSoC6\pdl\drivers\peripheral\ctb/cy_ctb.h **** 
1010:Generated_Source\PSoC6\pdl\drivers\peripheral\ctb/cy_ctb.h **** /**
1011:Generated_Source\PSoC6\pdl\drivers\peripheral\ctb/cy_ctb.h **** * \addtogroup group_ctb_functions_trim
1012:Generated_Source\PSoC6\pdl\drivers\peripheral\ctb/cy_ctb.h **** * These are advanced functions for trimming the offset and slope of the opamps.
1013:Generated_Source\PSoC6\pdl\drivers\peripheral\ctb/cy_ctb.h **** * Most users do not need to call these functions and can use the factory trimmed values.
1014:Generated_Source\PSoC6\pdl\drivers\peripheral\ctb/cy_ctb.h **** * \{
1015:Generated_Source\PSoC6\pdl\drivers\peripheral\ctb/cy_ctb.h **** */
1016:Generated_Source\PSoC6\pdl\drivers\peripheral\ctb/cy_ctb.h **** void Cy_CTB_OpampSetOffset(CTBM_Type *base, cy_en_ctb_opamp_sel_t opampNum, uint32_t trim);
1017:Generated_Source\PSoC6\pdl\drivers\peripheral\ctb/cy_ctb.h **** uint32_t Cy_CTB_OpampGetOffset(const CTBM_Type *base, cy_en_ctb_opamp_sel_t opampNum);
1018:Generated_Source\PSoC6\pdl\drivers\peripheral\ctb/cy_ctb.h **** void Cy_CTB_OpampSetSlope(CTBM_Type *base, cy_en_ctb_opamp_sel_t opampNum, uint32_t trim);
1019:Generated_Source\PSoC6\pdl\drivers\peripheral\ctb/cy_ctb.h **** uint32_t Cy_CTB_OpampGetSlope(const CTBM_Type *base, cy_en_ctb_opamp_sel_t opampNum);
1020:Generated_Source\PSoC6\pdl\drivers\peripheral\ctb/cy_ctb.h **** /** \} */
1021:Generated_Source\PSoC6\pdl\drivers\peripheral\ctb/cy_ctb.h **** 
1022:Generated_Source\PSoC6\pdl\drivers\peripheral\ctb/cy_ctb.h **** /**
1023:Generated_Source\PSoC6\pdl\drivers\peripheral\ctb/cy_ctb.h **** * \addtogroup group_ctb_functions_switches
1024:Generated_Source\PSoC6\pdl\drivers\peripheral\ctb/cy_ctb.h **** * This set of functions is for controlling routing switches.
1025:Generated_Source\PSoC6\pdl\drivers\peripheral\ctb/cy_ctb.h **** * \{
1026:Generated_Source\PSoC6\pdl\drivers\peripheral\ctb/cy_ctb.h **** */
1027:Generated_Source\PSoC6\pdl\drivers\peripheral\ctb/cy_ctb.h **** void Cy_CTB_SetAnalogSwitch(CTBM_Type *base, cy_en_ctb_switch_register_sel_t switchSelect, uint32_t
1028:Generated_Source\PSoC6\pdl\drivers\peripheral\ctb/cy_ctb.h **** uint32_t Cy_CTB_GetAnalogSwitch(const CTBM_Type *base, cy_en_ctb_switch_register_sel_t switchSelect
1029:Generated_Source\PSoC6\pdl\drivers\peripheral\ctb/cy_ctb.h **** __STATIC_INLINE void Cy_CTB_OpenAllSwitches(CTBM_Type *base);
1030:Generated_Source\PSoC6\pdl\drivers\peripheral\ctb/cy_ctb.h **** __STATIC_INLINE void Cy_CTB_EnableSarSeqCtrl(CTBM_Type *base, cy_en_ctb_switch_sar_seq_t switchMask
1031:Generated_Source\PSoC6\pdl\drivers\peripheral\ctb/cy_ctb.h **** __STATIC_INLINE void Cy_CTB_DisableSarSeqCtrl(CTBM_Type *base, cy_en_ctb_switch_sar_seq_t switchMas
1032:Generated_Source\PSoC6\pdl\drivers\peripheral\ctb/cy_ctb.h **** /** \} */
1033:Generated_Source\PSoC6\pdl\drivers\peripheral\ctb/cy_ctb.h **** 
1034:Generated_Source\PSoC6\pdl\drivers\peripheral\ctb/cy_ctb.h **** /**
1035:Generated_Source\PSoC6\pdl\drivers\peripheral\ctb/cy_ctb.h **** * \addtogroup group_ctb_functions_interrupts
1036:Generated_Source\PSoC6\pdl\drivers\peripheral\ctb/cy_ctb.h **** * This set of functions is related to the comparator interrupts.
1037:Generated_Source\PSoC6\pdl\drivers\peripheral\ctb/cy_ctb.h **** * \{
1038:Generated_Source\PSoC6\pdl\drivers\peripheral\ctb/cy_ctb.h **** */
1039:Generated_Source\PSoC6\pdl\drivers\peripheral\ctb/cy_ctb.h **** __STATIC_INLINE uint32_t Cy_CTB_GetInterruptStatus(const CTBM_Type *base, cy_en_ctb_opamp_sel_t com
1040:Generated_Source\PSoC6\pdl\drivers\peripheral\ctb/cy_ctb.h **** __STATIC_INLINE void Cy_CTB_ClearInterrupt(CTBM_Type *base, cy_en_ctb_opamp_sel_t compNum);
1041:Generated_Source\PSoC6\pdl\drivers\peripheral\ctb/cy_ctb.h **** __STATIC_INLINE void Cy_CTB_SetInterrupt(CTBM_Type *base, cy_en_ctb_opamp_sel_t compNum);
1042:Generated_Source\PSoC6\pdl\drivers\peripheral\ctb/cy_ctb.h **** __STATIC_INLINE void Cy_CTB_SetInterruptMask(CTBM_Type *base, cy_en_ctb_opamp_sel_t compNum);
1043:Generated_Source\PSoC6\pdl\drivers\peripheral\ctb/cy_ctb.h **** __STATIC_INLINE uint32_t Cy_CTB_GetInterruptMask(const CTBM_Type *base, cy_en_ctb_opamp_sel_t compN
1044:Generated_Source\PSoC6\pdl\drivers\peripheral\ctb/cy_ctb.h **** __STATIC_INLINE uint32_t Cy_CTB_GetInterruptStatusMasked(const CTBM_Type *base, cy_en_ctb_opamp_sel
1045:Generated_Source\PSoC6\pdl\drivers\peripheral\ctb/cy_ctb.h **** /** \} */
1046:Generated_Source\PSoC6\pdl\drivers\peripheral\ctb/cy_ctb.h **** 
1047:Generated_Source\PSoC6\pdl\drivers\peripheral\ctb/cy_ctb.h **** /**
1048:Generated_Source\PSoC6\pdl\drivers\peripheral\ctb/cy_ctb.h **** * \addtogroup group_ctb_functions_aref
1049:Generated_Source\PSoC6\pdl\drivers\peripheral\ctb/cy_ctb.h **** * This set of functions impacts all opamps on the chip.
1050:Generated_Source\PSoC6\pdl\drivers\peripheral\ctb/cy_ctb.h **** * Notice how some of these functions do not take a base address input.
1051:Generated_Source\PSoC6\pdl\drivers\peripheral\ctb/cy_ctb.h **** * When calling \ref Cy_CTB_SetCurrentMode for a CTB instance on the device,
1052:Generated_Source\PSoC6\pdl\drivers\peripheral\ctb/cy_ctb.h **** * it should be called for all other CTB instances as well. This is because
1053:Generated_Source\PSoC6\pdl\drivers\peripheral\ctb/cy_ctb.h **** * there is only one IPTAT level (1 uA or 100 nA) chip wide.
1054:Generated_Source\PSoC6\pdl\drivers\peripheral\ctb/cy_ctb.h **** * \{
1055:Generated_Source\PSoC6\pdl\drivers\peripheral\ctb/cy_ctb.h **** */
1056:Generated_Source\PSoC6\pdl\drivers\peripheral\ctb/cy_ctb.h **** void Cy_CTB_SetCurrentMode(CTBM_Type *base, cy_en_ctb_current_mode_t currentMode);
1057:Generated_Source\PSoC6\pdl\drivers\peripheral\ctb/cy_ctb.h **** __STATIC_INLINE void Cy_CTB_SetIptatLevel(cy_en_ctb_iptat_t iptat);
1058:Generated_Source\PSoC6\pdl\drivers\peripheral\ctb/cy_ctb.h **** __STATIC_INLINE void Cy_CTB_SetClkPumpSource(cy_en_ctb_clk_pump_source_t clkPump);
ARM GAS  C:\Users\gjl\AppData\Local\Temp\cckcOS93.s 			page 52


1059:Generated_Source\PSoC6\pdl\drivers\peripheral\ctb/cy_ctb.h **** __STATIC_INLINE void Cy_CTB_EnableRedirect(void);
1060:Generated_Source\PSoC6\pdl\drivers\peripheral\ctb/cy_ctb.h **** __STATIC_INLINE void Cy_CTB_DisableRedirect(void);
1061:Generated_Source\PSoC6\pdl\drivers\peripheral\ctb/cy_ctb.h **** /** \} */
1062:Generated_Source\PSoC6\pdl\drivers\peripheral\ctb/cy_ctb.h **** 
1063:Generated_Source\PSoC6\pdl\drivers\peripheral\ctb/cy_ctb.h **** /**
1064:Generated_Source\PSoC6\pdl\drivers\peripheral\ctb/cy_ctb.h **** * \addtogroup group_ctb_functions_init
1065:Generated_Source\PSoC6\pdl\drivers\peripheral\ctb/cy_ctb.h **** * \{
1066:Generated_Source\PSoC6\pdl\drivers\peripheral\ctb/cy_ctb.h **** */
1067:Generated_Source\PSoC6\pdl\drivers\peripheral\ctb/cy_ctb.h **** 
1068:Generated_Source\PSoC6\pdl\drivers\peripheral\ctb/cy_ctb.h **** /*******************************************************************************
1069:Generated_Source\PSoC6\pdl\drivers\peripheral\ctb/cy_ctb.h **** * Function Name: Cy_CTB_Enable
1070:Generated_Source\PSoC6\pdl\drivers\peripheral\ctb/cy_ctb.h **** ****************************************************************************//**
1071:Generated_Source\PSoC6\pdl\drivers\peripheral\ctb/cy_ctb.h **** *
1072:Generated_Source\PSoC6\pdl\drivers\peripheral\ctb/cy_ctb.h **** * Power up the CTB hardware block.
1073:Generated_Source\PSoC6\pdl\drivers\peripheral\ctb/cy_ctb.h **** *
1074:Generated_Source\PSoC6\pdl\drivers\peripheral\ctb/cy_ctb.h **** * \param base
1075:Generated_Source\PSoC6\pdl\drivers\peripheral\ctb/cy_ctb.h **** * Pointer to structure describing registers
1076:Generated_Source\PSoC6\pdl\drivers\peripheral\ctb/cy_ctb.h **** *
1077:Generated_Source\PSoC6\pdl\drivers\peripheral\ctb/cy_ctb.h **** * \return None
1078:Generated_Source\PSoC6\pdl\drivers\peripheral\ctb/cy_ctb.h **** *
1079:Generated_Source\PSoC6\pdl\drivers\peripheral\ctb/cy_ctb.h **** *******************************************************************************/
1080:Generated_Source\PSoC6\pdl\drivers\peripheral\ctb/cy_ctb.h **** __STATIC_INLINE void Cy_CTB_Enable(CTBM_Type *base)
1081:Generated_Source\PSoC6\pdl\drivers\peripheral\ctb/cy_ctb.h **** {
1082:Generated_Source\PSoC6\pdl\drivers\peripheral\ctb/cy_ctb.h ****     base->CTB_CTRL |= CTBM_CTB_CTRL_ENABLED_Msk;
1083:Generated_Source\PSoC6\pdl\drivers\peripheral\ctb/cy_ctb.h **** }
1084:Generated_Source\PSoC6\pdl\drivers\peripheral\ctb/cy_ctb.h **** 
1085:Generated_Source\PSoC6\pdl\drivers\peripheral\ctb/cy_ctb.h **** /*******************************************************************************
1086:Generated_Source\PSoC6\pdl\drivers\peripheral\ctb/cy_ctb.h **** * Function Name: Cy_CTB_Disable
1087:Generated_Source\PSoC6\pdl\drivers\peripheral\ctb/cy_ctb.h **** ****************************************************************************//**
1088:Generated_Source\PSoC6\pdl\drivers\peripheral\ctb/cy_ctb.h **** *
1089:Generated_Source\PSoC6\pdl\drivers\peripheral\ctb/cy_ctb.h **** * Power down the CTB hardware block.
1090:Generated_Source\PSoC6\pdl\drivers\peripheral\ctb/cy_ctb.h **** *
1091:Generated_Source\PSoC6\pdl\drivers\peripheral\ctb/cy_ctb.h **** * \param base
1092:Generated_Source\PSoC6\pdl\drivers\peripheral\ctb/cy_ctb.h **** * Pointer to structure describing registers
1093:Generated_Source\PSoC6\pdl\drivers\peripheral\ctb/cy_ctb.h **** *
1094:Generated_Source\PSoC6\pdl\drivers\peripheral\ctb/cy_ctb.h **** * \return None
1095:Generated_Source\PSoC6\pdl\drivers\peripheral\ctb/cy_ctb.h **** *
1096:Generated_Source\PSoC6\pdl\drivers\peripheral\ctb/cy_ctb.h **** *******************************************************************************/
1097:Generated_Source\PSoC6\pdl\drivers\peripheral\ctb/cy_ctb.h **** __STATIC_INLINE void Cy_CTB_Disable(CTBM_Type *base)
1098:Generated_Source\PSoC6\pdl\drivers\peripheral\ctb/cy_ctb.h **** {
1099:Generated_Source\PSoC6\pdl\drivers\peripheral\ctb/cy_ctb.h ****     base->CTB_CTRL &= (~CTBM_CTB_CTRL_ENABLED_Msk);
1100:Generated_Source\PSoC6\pdl\drivers\peripheral\ctb/cy_ctb.h **** }
1101:Generated_Source\PSoC6\pdl\drivers\peripheral\ctb/cy_ctb.h **** 
1102:Generated_Source\PSoC6\pdl\drivers\peripheral\ctb/cy_ctb.h **** /** \} */
1103:Generated_Source\PSoC6\pdl\drivers\peripheral\ctb/cy_ctb.h **** 
1104:Generated_Source\PSoC6\pdl\drivers\peripheral\ctb/cy_ctb.h **** /**
1105:Generated_Source\PSoC6\pdl\drivers\peripheral\ctb/cy_ctb.h **** * \addtogroup group_ctb_functions_switches
1106:Generated_Source\PSoC6\pdl\drivers\peripheral\ctb/cy_ctb.h **** * \{
1107:Generated_Source\PSoC6\pdl\drivers\peripheral\ctb/cy_ctb.h **** */
1108:Generated_Source\PSoC6\pdl\drivers\peripheral\ctb/cy_ctb.h **** 
1109:Generated_Source\PSoC6\pdl\drivers\peripheral\ctb/cy_ctb.h **** /*******************************************************************************
1110:Generated_Source\PSoC6\pdl\drivers\peripheral\ctb/cy_ctb.h **** * Function Name: Cy_CTB_OpenAllSwitches
1111:Generated_Source\PSoC6\pdl\drivers\peripheral\ctb/cy_ctb.h **** ****************************************************************************//**
1112:Generated_Source\PSoC6\pdl\drivers\peripheral\ctb/cy_ctb.h **** *
1113:Generated_Source\PSoC6\pdl\drivers\peripheral\ctb/cy_ctb.h **** * Open all the switches and disable all hardware (SAR Sequencer and DSI) control of the switches.
1114:Generated_Source\PSoC6\pdl\drivers\peripheral\ctb/cy_ctb.h **** * Primarily used as a quick method of re-configuring all analog connections
1115:Generated_Source\PSoC6\pdl\drivers\peripheral\ctb/cy_ctb.h **** * that are sparsely closed.
ARM GAS  C:\Users\gjl\AppData\Local\Temp\cckcOS93.s 			page 53


1116:Generated_Source\PSoC6\pdl\drivers\peripheral\ctb/cy_ctb.h **** *
1117:Generated_Source\PSoC6\pdl\drivers\peripheral\ctb/cy_ctb.h **** * \param base
1118:Generated_Source\PSoC6\pdl\drivers\peripheral\ctb/cy_ctb.h **** * Pointer to structure describing registers
1119:Generated_Source\PSoC6\pdl\drivers\peripheral\ctb/cy_ctb.h **** *
1120:Generated_Source\PSoC6\pdl\drivers\peripheral\ctb/cy_ctb.h **** * \return None
1121:Generated_Source\PSoC6\pdl\drivers\peripheral\ctb/cy_ctb.h **** *
1122:Generated_Source\PSoC6\pdl\drivers\peripheral\ctb/cy_ctb.h **** * \funcusage
1123:Generated_Source\PSoC6\pdl\drivers\peripheral\ctb/cy_ctb.h **** *
1124:Generated_Source\PSoC6\pdl\drivers\peripheral\ctb/cy_ctb.h **** * \snippet ctb_sut_01.cydsn/main_cm4.c CTB_SNIPPET_OPEN_ALL_SWITCHES
1125:Generated_Source\PSoC6\pdl\drivers\peripheral\ctb/cy_ctb.h **** *
1126:Generated_Source\PSoC6\pdl\drivers\peripheral\ctb/cy_ctb.h **** *******************************************************************************/
1127:Generated_Source\PSoC6\pdl\drivers\peripheral\ctb/cy_ctb.h **** __STATIC_INLINE void Cy_CTB_OpenAllSwitches(CTBM_Type *base)
1128:Generated_Source\PSoC6\pdl\drivers\peripheral\ctb/cy_ctb.h **** {
1129:Generated_Source\PSoC6\pdl\drivers\peripheral\ctb/cy_ctb.h ****     base->OA0_SW_CLEAR = CY_CTB_DEINIT_OA0_SW;
1130:Generated_Source\PSoC6\pdl\drivers\peripheral\ctb/cy_ctb.h ****     base->OA1_SW_CLEAR = CY_CTB_DEINIT_OA1_SW;
1131:Generated_Source\PSoC6\pdl\drivers\peripheral\ctb/cy_ctb.h ****     base->CTD_SW_CLEAR = CY_CTB_DEINIT_CTD_SW;
1132:Generated_Source\PSoC6\pdl\drivers\peripheral\ctb/cy_ctb.h ****     base->CTB_SW_DS_CTRL = CY_CTB_DEINIT;
1133:Generated_Source\PSoC6\pdl\drivers\peripheral\ctb/cy_ctb.h ****     base->CTB_SW_SQ_CTRL = CY_CTB_DEINIT;
1134:Generated_Source\PSoC6\pdl\drivers\peripheral\ctb/cy_ctb.h **** }
1135:Generated_Source\PSoC6\pdl\drivers\peripheral\ctb/cy_ctb.h **** 
1136:Generated_Source\PSoC6\pdl\drivers\peripheral\ctb/cy_ctb.h **** /*******************************************************************************
1137:Generated_Source\PSoC6\pdl\drivers\peripheral\ctb/cy_ctb.h **** * Function Name: Cy_CTB_EnableSarSeqCtrl
1138:Generated_Source\PSoC6\pdl\drivers\peripheral\ctb/cy_ctb.h **** ****************************************************************************//**
1139:Generated_Source\PSoC6\pdl\drivers\peripheral\ctb/cy_ctb.h **** *
1140:Generated_Source\PSoC6\pdl\drivers\peripheral\ctb/cy_ctb.h **** * Enable SAR sequencer control of specified switch(es).
1141:Generated_Source\PSoC6\pdl\drivers\peripheral\ctb/cy_ctb.h **** *
1142:Generated_Source\PSoC6\pdl\drivers\peripheral\ctb/cy_ctb.h **** * This allows the SAR ADC to use routes through the CTB when configuring its channels.
1143:Generated_Source\PSoC6\pdl\drivers\peripheral\ctb/cy_ctb.h **** *
1144:Generated_Source\PSoC6\pdl\drivers\peripheral\ctb/cy_ctb.h **** * There are three switches in the CTB that can be enabled by the SAR sequencer.
1145:Generated_Source\PSoC6\pdl\drivers\peripheral\ctb/cy_ctb.h **** * - D51: This switch connects the negative input of Opamp0 to the SARBUS0
1146:Generated_Source\PSoC6\pdl\drivers\peripheral\ctb/cy_ctb.h **** * - D52: This switch connects the positive input of Opamp1 to the SARBUS0
1147:Generated_Source\PSoC6\pdl\drivers\peripheral\ctb/cy_ctb.h **** * - D62: This switch connects the positive input of Opamp1 to the SARBUS1
1148:Generated_Source\PSoC6\pdl\drivers\peripheral\ctb/cy_ctb.h **** *
1149:Generated_Source\PSoC6\pdl\drivers\peripheral\ctb/cy_ctb.h **** * \param base
1150:Generated_Source\PSoC6\pdl\drivers\peripheral\ctb/cy_ctb.h **** * Pointer to structure describing registers
1151:Generated_Source\PSoC6\pdl\drivers\peripheral\ctb/cy_ctb.h **** *
1152:Generated_Source\PSoC6\pdl\drivers\peripheral\ctb/cy_ctb.h **** * \param switchMask
1153:Generated_Source\PSoC6\pdl\drivers\peripheral\ctb/cy_ctb.h **** * The switch or switches in which to enable SAR sequencer control.
1154:Generated_Source\PSoC6\pdl\drivers\peripheral\ctb/cy_ctb.h **** * Use an enumerated value from \ref cy_en_ctb_switch_sar_seq_t.
1155:Generated_Source\PSoC6\pdl\drivers\peripheral\ctb/cy_ctb.h **** *
1156:Generated_Source\PSoC6\pdl\drivers\peripheral\ctb/cy_ctb.h **** * \return None
1157:Generated_Source\PSoC6\pdl\drivers\peripheral\ctb/cy_ctb.h **** *
1158:Generated_Source\PSoC6\pdl\drivers\peripheral\ctb/cy_ctb.h **** * \funcusage
1159:Generated_Source\PSoC6\pdl\drivers\peripheral\ctb/cy_ctb.h **** *
1160:Generated_Source\PSoC6\pdl\drivers\peripheral\ctb/cy_ctb.h **** * \snippet ctb_sut_01.cydsn/main_cm4.c CTB_SNIPPET_ENABLE_SAR_SEQ_CTRL
1161:Generated_Source\PSoC6\pdl\drivers\peripheral\ctb/cy_ctb.h **** *
1162:Generated_Source\PSoC6\pdl\drivers\peripheral\ctb/cy_ctb.h **** *******************************************************************************/
1163:Generated_Source\PSoC6\pdl\drivers\peripheral\ctb/cy_ctb.h **** __STATIC_INLINE void Cy_CTB_EnableSarSeqCtrl(CTBM_Type *base, cy_en_ctb_switch_sar_seq_t switchMask
1164:Generated_Source\PSoC6\pdl\drivers\peripheral\ctb/cy_ctb.h **** {
1165:Generated_Source\PSoC6\pdl\drivers\peripheral\ctb/cy_ctb.h ****     CY_ASSERT_L3(CY_CTB_SARSEQCTRL(switchMask));
1166:Generated_Source\PSoC6\pdl\drivers\peripheral\ctb/cy_ctb.h **** 
1167:Generated_Source\PSoC6\pdl\drivers\peripheral\ctb/cy_ctb.h ****     base->CTB_SW_SQ_CTRL |= (uint32_t) switchMask;
1168:Generated_Source\PSoC6\pdl\drivers\peripheral\ctb/cy_ctb.h **** }
1169:Generated_Source\PSoC6\pdl\drivers\peripheral\ctb/cy_ctb.h **** 
1170:Generated_Source\PSoC6\pdl\drivers\peripheral\ctb/cy_ctb.h **** /*******************************************************************************
1171:Generated_Source\PSoC6\pdl\drivers\peripheral\ctb/cy_ctb.h **** * Function Name: Cy_CTB_DisableSarSeqCtrl
1172:Generated_Source\PSoC6\pdl\drivers\peripheral\ctb/cy_ctb.h **** ****************************************************************************//**
ARM GAS  C:\Users\gjl\AppData\Local\Temp\cckcOS93.s 			page 54


1173:Generated_Source\PSoC6\pdl\drivers\peripheral\ctb/cy_ctb.h **** *
1174:Generated_Source\PSoC6\pdl\drivers\peripheral\ctb/cy_ctb.h **** * Disable SAR sequencer control of specified switch(es).
1175:Generated_Source\PSoC6\pdl\drivers\peripheral\ctb/cy_ctb.h **** *
1176:Generated_Source\PSoC6\pdl\drivers\peripheral\ctb/cy_ctb.h **** * \param base
1177:Generated_Source\PSoC6\pdl\drivers\peripheral\ctb/cy_ctb.h **** * Pointer to structure describing registers
1178:Generated_Source\PSoC6\pdl\drivers\peripheral\ctb/cy_ctb.h **** *
1179:Generated_Source\PSoC6\pdl\drivers\peripheral\ctb/cy_ctb.h **** * \param switchMask
1180:Generated_Source\PSoC6\pdl\drivers\peripheral\ctb/cy_ctb.h **** * The switch or switches in which to disable SAR sequencer control.
1181:Generated_Source\PSoC6\pdl\drivers\peripheral\ctb/cy_ctb.h **** * Use an enumerated value from \ref cy_en_ctb_switch_sar_seq_t.
1182:Generated_Source\PSoC6\pdl\drivers\peripheral\ctb/cy_ctb.h **** *
1183:Generated_Source\PSoC6\pdl\drivers\peripheral\ctb/cy_ctb.h **** * \return None
1184:Generated_Source\PSoC6\pdl\drivers\peripheral\ctb/cy_ctb.h **** *
1185:Generated_Source\PSoC6\pdl\drivers\peripheral\ctb/cy_ctb.h **** * \funcusage
1186:Generated_Source\PSoC6\pdl\drivers\peripheral\ctb/cy_ctb.h **** *
1187:Generated_Source\PSoC6\pdl\drivers\peripheral\ctb/cy_ctb.h **** * \snippet ctb_sut_01.cydsn/main_cm4.c CTB_SNIPPET_DISABLE_SAR_SEQ_CTRL
1188:Generated_Source\PSoC6\pdl\drivers\peripheral\ctb/cy_ctb.h **** *
1189:Generated_Source\PSoC6\pdl\drivers\peripheral\ctb/cy_ctb.h **** *******************************************************************************/
1190:Generated_Source\PSoC6\pdl\drivers\peripheral\ctb/cy_ctb.h **** __STATIC_INLINE void Cy_CTB_DisableSarSeqCtrl(CTBM_Type *base, cy_en_ctb_switch_sar_seq_t switchMas
1191:Generated_Source\PSoC6\pdl\drivers\peripheral\ctb/cy_ctb.h **** {
1192:Generated_Source\PSoC6\pdl\drivers\peripheral\ctb/cy_ctb.h ****     CY_ASSERT_L3(CY_CTB_SARSEQCTRL(switchMask));
1193:Generated_Source\PSoC6\pdl\drivers\peripheral\ctb/cy_ctb.h **** 
1194:Generated_Source\PSoC6\pdl\drivers\peripheral\ctb/cy_ctb.h ****     base->CTB_SW_SQ_CTRL &= ~((uint32_t) switchMask);
1195:Generated_Source\PSoC6\pdl\drivers\peripheral\ctb/cy_ctb.h **** }
1196:Generated_Source\PSoC6\pdl\drivers\peripheral\ctb/cy_ctb.h **** /** \} */
1197:Generated_Source\PSoC6\pdl\drivers\peripheral\ctb/cy_ctb.h **** 
1198:Generated_Source\PSoC6\pdl\drivers\peripheral\ctb/cy_ctb.h **** /**
1199:Generated_Source\PSoC6\pdl\drivers\peripheral\ctb/cy_ctb.h **** * \addtogroup group_ctb_functions_interrupts
1200:Generated_Source\PSoC6\pdl\drivers\peripheral\ctb/cy_ctb.h **** * \{
1201:Generated_Source\PSoC6\pdl\drivers\peripheral\ctb/cy_ctb.h **** */
1202:Generated_Source\PSoC6\pdl\drivers\peripheral\ctb/cy_ctb.h **** 
1203:Generated_Source\PSoC6\pdl\drivers\peripheral\ctb/cy_ctb.h **** /*******************************************************************************
1204:Generated_Source\PSoC6\pdl\drivers\peripheral\ctb/cy_ctb.h **** * Function Name: Cy_CTB_GetInterruptStatus
1205:Generated_Source\PSoC6\pdl\drivers\peripheral\ctb/cy_ctb.h **** ****************************************************************************//**
1206:Generated_Source\PSoC6\pdl\drivers\peripheral\ctb/cy_ctb.h **** *
1207:Generated_Source\PSoC6\pdl\drivers\peripheral\ctb/cy_ctb.h **** * Return the status of the interrupt when the configured comparator
1208:Generated_Source\PSoC6\pdl\drivers\peripheral\ctb/cy_ctb.h **** * edge is detected.
1209:Generated_Source\PSoC6\pdl\drivers\peripheral\ctb/cy_ctb.h **** *
1210:Generated_Source\PSoC6\pdl\drivers\peripheral\ctb/cy_ctb.h **** * \param base
1211:Generated_Source\PSoC6\pdl\drivers\peripheral\ctb/cy_ctb.h **** * Pointer to structure describing registers
1212:Generated_Source\PSoC6\pdl\drivers\peripheral\ctb/cy_ctb.h **** *
1213:Generated_Source\PSoC6\pdl\drivers\peripheral\ctb/cy_ctb.h **** * \param compNum
1214:Generated_Source\PSoC6\pdl\drivers\peripheral\ctb/cy_ctb.h **** * \ref CY_CTB_OPAMP_0, \ref CY_CTB_OPAMP_1, or \ref CY_CTB_OPAMP_BOTH
1215:Generated_Source\PSoC6\pdl\drivers\peripheral\ctb/cy_ctb.h **** *
1216:Generated_Source\PSoC6\pdl\drivers\peripheral\ctb/cy_ctb.h **** * \return
1217:Generated_Source\PSoC6\pdl\drivers\peripheral\ctb/cy_ctb.h **** * The interrupt status.
1218:Generated_Source\PSoC6\pdl\drivers\peripheral\ctb/cy_ctb.h **** * If compNum is \ref CY_CTB_OPAMP_BOTH, cast the returned status
1219:Generated_Source\PSoC6\pdl\drivers\peripheral\ctb/cy_ctb.h **** * to \ref cy_en_ctb_opamp_sel_t to determine which comparator edge (or both)
1220:Generated_Source\PSoC6\pdl\drivers\peripheral\ctb/cy_ctb.h **** * was detected.
1221:Generated_Source\PSoC6\pdl\drivers\peripheral\ctb/cy_ctb.h **** * - 0: Edge was not detected
1222:Generated_Source\PSoC6\pdl\drivers\peripheral\ctb/cy_ctb.h **** * - Non-zero: Configured edge type was detected
1223:Generated_Source\PSoC6\pdl\drivers\peripheral\ctb/cy_ctb.h **** *
1224:Generated_Source\PSoC6\pdl\drivers\peripheral\ctb/cy_ctb.h **** * \funcusage
1225:Generated_Source\PSoC6\pdl\drivers\peripheral\ctb/cy_ctb.h **** *
1226:Generated_Source\PSoC6\pdl\drivers\peripheral\ctb/cy_ctb.h **** * \snippet ctb_sut_01.cydsn/main_cm0p.c SNIPPET_COMP_GETINTERRUPTSTATUS
1227:Generated_Source\PSoC6\pdl\drivers\peripheral\ctb/cy_ctb.h **** *
1228:Generated_Source\PSoC6\pdl\drivers\peripheral\ctb/cy_ctb.h **** *******************************************************************************/
1229:Generated_Source\PSoC6\pdl\drivers\peripheral\ctb/cy_ctb.h **** __STATIC_INLINE uint32_t Cy_CTB_GetInterruptStatus(const CTBM_Type *base, cy_en_ctb_opamp_sel_t com
ARM GAS  C:\Users\gjl\AppData\Local\Temp\cckcOS93.s 			page 55


1230:Generated_Source\PSoC6\pdl\drivers\peripheral\ctb/cy_ctb.h **** {
1231:Generated_Source\PSoC6\pdl\drivers\peripheral\ctb/cy_ctb.h ****     CY_ASSERT_L3(CY_CTB_OPAMPNUM(compNum));
1232:Generated_Source\PSoC6\pdl\drivers\peripheral\ctb/cy_ctb.h **** 
1233:Generated_Source\PSoC6\pdl\drivers\peripheral\ctb/cy_ctb.h ****     return base->INTR & (uint32_t) compNum;
1234:Generated_Source\PSoC6\pdl\drivers\peripheral\ctb/cy_ctb.h **** }
1235:Generated_Source\PSoC6\pdl\drivers\peripheral\ctb/cy_ctb.h **** 
1236:Generated_Source\PSoC6\pdl\drivers\peripheral\ctb/cy_ctb.h **** /*******************************************************************************
1237:Generated_Source\PSoC6\pdl\drivers\peripheral\ctb/cy_ctb.h **** * Function Name: Cy_CTB_ClearInterrupt
1238:Generated_Source\PSoC6\pdl\drivers\peripheral\ctb/cy_ctb.h **** ****************************************************************************//**
1239:Generated_Source\PSoC6\pdl\drivers\peripheral\ctb/cy_ctb.h **** *
1240:Generated_Source\PSoC6\pdl\drivers\peripheral\ctb/cy_ctb.h **** * Clear the CTB comparator triggered interrupt.
1241:Generated_Source\PSoC6\pdl\drivers\peripheral\ctb/cy_ctb.h **** * The interrupt must be cleared with this function so that the hardware
1242:Generated_Source\PSoC6\pdl\drivers\peripheral\ctb/cy_ctb.h **** * can set subsequent interrupts and those interrupts can be forwarded
1243:Generated_Source\PSoC6\pdl\drivers\peripheral\ctb/cy_ctb.h **** * to the interrupt controller, if enabled.
1244:Generated_Source\PSoC6\pdl\drivers\peripheral\ctb/cy_ctb.h **** *
1245:Generated_Source\PSoC6\pdl\drivers\peripheral\ctb/cy_ctb.h **** * \param base
1246:Generated_Source\PSoC6\pdl\drivers\peripheral\ctb/cy_ctb.h **** * Pointer to structure describing registers
1247:Generated_Source\PSoC6\pdl\drivers\peripheral\ctb/cy_ctb.h **** *
1248:Generated_Source\PSoC6\pdl\drivers\peripheral\ctb/cy_ctb.h **** * \param compNum
1249:Generated_Source\PSoC6\pdl\drivers\peripheral\ctb/cy_ctb.h **** * \ref CY_CTB_OPAMP_0, \ref CY_CTB_OPAMP_1, or \ref CY_CTB_OPAMP_BOTH
1250:Generated_Source\PSoC6\pdl\drivers\peripheral\ctb/cy_ctb.h **** *
1251:Generated_Source\PSoC6\pdl\drivers\peripheral\ctb/cy_ctb.h **** * \return None
1252:Generated_Source\PSoC6\pdl\drivers\peripheral\ctb/cy_ctb.h **** *
1253:Generated_Source\PSoC6\pdl\drivers\peripheral\ctb/cy_ctb.h **** *******************************************************************************/
1254:Generated_Source\PSoC6\pdl\drivers\peripheral\ctb/cy_ctb.h **** __STATIC_INLINE void Cy_CTB_ClearInterrupt(CTBM_Type *base, cy_en_ctb_opamp_sel_t compNum)
1255:Generated_Source\PSoC6\pdl\drivers\peripheral\ctb/cy_ctb.h **** {
1256:Generated_Source\PSoC6\pdl\drivers\peripheral\ctb/cy_ctb.h ****     CY_ASSERT_L3(CY_CTB_OPAMPNUM(compNum));
1257:Generated_Source\PSoC6\pdl\drivers\peripheral\ctb/cy_ctb.h **** 
1258:Generated_Source\PSoC6\pdl\drivers\peripheral\ctb/cy_ctb.h ****     base->INTR = (uint32_t) compNum;
1259:Generated_Source\PSoC6\pdl\drivers\peripheral\ctb/cy_ctb.h **** 
1260:Generated_Source\PSoC6\pdl\drivers\peripheral\ctb/cy_ctb.h ****     /* Dummy read for buffered writes. */
1261:Generated_Source\PSoC6\pdl\drivers\peripheral\ctb/cy_ctb.h ****     (void) base->INTR;
1262:Generated_Source\PSoC6\pdl\drivers\peripheral\ctb/cy_ctb.h **** }
1263:Generated_Source\PSoC6\pdl\drivers\peripheral\ctb/cy_ctb.h **** 
1264:Generated_Source\PSoC6\pdl\drivers\peripheral\ctb/cy_ctb.h **** /*******************************************************************************
1265:Generated_Source\PSoC6\pdl\drivers\peripheral\ctb/cy_ctb.h **** * Function Name: Cy_CTB_SetInterrupt
1266:Generated_Source\PSoC6\pdl\drivers\peripheral\ctb/cy_ctb.h **** ****************************************************************************//**
1267:Generated_Source\PSoC6\pdl\drivers\peripheral\ctb/cy_ctb.h **** *
1268:Generated_Source\PSoC6\pdl\drivers\peripheral\ctb/cy_ctb.h **** * Force the CTB interrupt to trigger using software.
1269:Generated_Source\PSoC6\pdl\drivers\peripheral\ctb/cy_ctb.h **** *
1270:Generated_Source\PSoC6\pdl\drivers\peripheral\ctb/cy_ctb.h **** * \param base
1271:Generated_Source\PSoC6\pdl\drivers\peripheral\ctb/cy_ctb.h **** * Pointer to structure describing registers
1272:Generated_Source\PSoC6\pdl\drivers\peripheral\ctb/cy_ctb.h **** *
1273:Generated_Source\PSoC6\pdl\drivers\peripheral\ctb/cy_ctb.h **** * \param compNum
1274:Generated_Source\PSoC6\pdl\drivers\peripheral\ctb/cy_ctb.h **** * \ref CY_CTB_OPAMP_0, \ref CY_CTB_OPAMP_1, or \ref CY_CTB_OPAMP_BOTH
1275:Generated_Source\PSoC6\pdl\drivers\peripheral\ctb/cy_ctb.h **** *
1276:Generated_Source\PSoC6\pdl\drivers\peripheral\ctb/cy_ctb.h **** * \return None
1277:Generated_Source\PSoC6\pdl\drivers\peripheral\ctb/cy_ctb.h **** *
1278:Generated_Source\PSoC6\pdl\drivers\peripheral\ctb/cy_ctb.h **** *******************************************************************************/
1279:Generated_Source\PSoC6\pdl\drivers\peripheral\ctb/cy_ctb.h **** __STATIC_INLINE void Cy_CTB_SetInterrupt(CTBM_Type *base, cy_en_ctb_opamp_sel_t compNum)
1280:Generated_Source\PSoC6\pdl\drivers\peripheral\ctb/cy_ctb.h **** {
1281:Generated_Source\PSoC6\pdl\drivers\peripheral\ctb/cy_ctb.h ****     CY_ASSERT_L3(CY_CTB_OPAMPNUM(compNum));
1282:Generated_Source\PSoC6\pdl\drivers\peripheral\ctb/cy_ctb.h **** 
1283:Generated_Source\PSoC6\pdl\drivers\peripheral\ctb/cy_ctb.h ****     base->INTR_SET = (uint32_t) compNum;
1284:Generated_Source\PSoC6\pdl\drivers\peripheral\ctb/cy_ctb.h **** }
1285:Generated_Source\PSoC6\pdl\drivers\peripheral\ctb/cy_ctb.h **** 
1286:Generated_Source\PSoC6\pdl\drivers\peripheral\ctb/cy_ctb.h **** /*******************************************************************************
ARM GAS  C:\Users\gjl\AppData\Local\Temp\cckcOS93.s 			page 56


1287:Generated_Source\PSoC6\pdl\drivers\peripheral\ctb/cy_ctb.h **** * Function Name: Cy_CTB_SetInterruptMask
1288:Generated_Source\PSoC6\pdl\drivers\peripheral\ctb/cy_ctb.h **** ****************************************************************************//**
1289:Generated_Source\PSoC6\pdl\drivers\peripheral\ctb/cy_ctb.h **** *
1290:Generated_Source\PSoC6\pdl\drivers\peripheral\ctb/cy_ctb.h **** * Configure the CTB comparator edge interrupt to be forwarded to the
1291:Generated_Source\PSoC6\pdl\drivers\peripheral\ctb/cy_ctb.h **** * CPU interrupt controller.
1292:Generated_Source\PSoC6\pdl\drivers\peripheral\ctb/cy_ctb.h **** *
1293:Generated_Source\PSoC6\pdl\drivers\peripheral\ctb/cy_ctb.h **** * \param base
1294:Generated_Source\PSoC6\pdl\drivers\peripheral\ctb/cy_ctb.h **** * Pointer to structure describing registers
1295:Generated_Source\PSoC6\pdl\drivers\peripheral\ctb/cy_ctb.h **** *
1296:Generated_Source\PSoC6\pdl\drivers\peripheral\ctb/cy_ctb.h **** * \param compNum
1297:Generated_Source\PSoC6\pdl\drivers\peripheral\ctb/cy_ctb.h **** * \ref CY_CTB_OPAMP_NONE, \ref CY_CTB_OPAMP_0, \ref CY_CTB_OPAMP_1, or \ref CY_CTB_OPAMP_BOTH.
1298:Generated_Source\PSoC6\pdl\drivers\peripheral\ctb/cy_ctb.h **** * Calling this function with CY_CTB_OPAMP_NONE will disable all interrupt requests.
1299:Generated_Source\PSoC6\pdl\drivers\peripheral\ctb/cy_ctb.h **** *
1300:Generated_Source\PSoC6\pdl\drivers\peripheral\ctb/cy_ctb.h **** * \return None
1301:Generated_Source\PSoC6\pdl\drivers\peripheral\ctb/cy_ctb.h **** *
1302:Generated_Source\PSoC6\pdl\drivers\peripheral\ctb/cy_ctb.h **** * \funcusage
1303:Generated_Source\PSoC6\pdl\drivers\peripheral\ctb/cy_ctb.h **** *
1304:Generated_Source\PSoC6\pdl\drivers\peripheral\ctb/cy_ctb.h **** * \snippet ctb_sut_01.cydsn/main_cm4.c CTB_SNIPPET_SET_INTERRUPT_MASK
1305:Generated_Source\PSoC6\pdl\drivers\peripheral\ctb/cy_ctb.h **** *
1306:Generated_Source\PSoC6\pdl\drivers\peripheral\ctb/cy_ctb.h **** *******************************************************************************/
1307:Generated_Source\PSoC6\pdl\drivers\peripheral\ctb/cy_ctb.h **** __STATIC_INLINE void Cy_CTB_SetInterruptMask(CTBM_Type *base, cy_en_ctb_opamp_sel_t compNum)
1308:Generated_Source\PSoC6\pdl\drivers\peripheral\ctb/cy_ctb.h **** {
1309:Generated_Source\PSoC6\pdl\drivers\peripheral\ctb/cy_ctb.h ****     CY_ASSERT_L3(CY_CTB_OPAMPNUM_ALL(compNum));
1310:Generated_Source\PSoC6\pdl\drivers\peripheral\ctb/cy_ctb.h **** 
1311:Generated_Source\PSoC6\pdl\drivers\peripheral\ctb/cy_ctb.h ****     base->INTR_MASK = (uint32_t) compNum;
1312:Generated_Source\PSoC6\pdl\drivers\peripheral\ctb/cy_ctb.h **** }
1313:Generated_Source\PSoC6\pdl\drivers\peripheral\ctb/cy_ctb.h **** 
1314:Generated_Source\PSoC6\pdl\drivers\peripheral\ctb/cy_ctb.h **** /*******************************************************************************
1315:Generated_Source\PSoC6\pdl\drivers\peripheral\ctb/cy_ctb.h **** * Function Name: Cy_CTB_GetInterruptMask
1316:Generated_Source\PSoC6\pdl\drivers\peripheral\ctb/cy_ctb.h **** ****************************************************************************//**
1317:Generated_Source\PSoC6\pdl\drivers\peripheral\ctb/cy_ctb.h **** *
1318:Generated_Source\PSoC6\pdl\drivers\peripheral\ctb/cy_ctb.h **** * Return whether the CTB comparator edge interrupt output is
1319:Generated_Source\PSoC6\pdl\drivers\peripheral\ctb/cy_ctb.h **** * forwarded to the CPU interrupt controller as configured by
1320:Generated_Source\PSoC6\pdl\drivers\peripheral\ctb/cy_ctb.h **** * \ref Cy_CTB_SetInterruptMask.
1321:Generated_Source\PSoC6\pdl\drivers\peripheral\ctb/cy_ctb.h **** *
1322:Generated_Source\PSoC6\pdl\drivers\peripheral\ctb/cy_ctb.h **** * \param base
1323:Generated_Source\PSoC6\pdl\drivers\peripheral\ctb/cy_ctb.h **** * Pointer to structure describing registers
1324:Generated_Source\PSoC6\pdl\drivers\peripheral\ctb/cy_ctb.h **** *
1325:Generated_Source\PSoC6\pdl\drivers\peripheral\ctb/cy_ctb.h **** * \param compNum
1326:Generated_Source\PSoC6\pdl\drivers\peripheral\ctb/cy_ctb.h **** * \ref CY_CTB_OPAMP_0, \ref CY_CTB_OPAMP_1, or \ref CY_CTB_OPAMP_BOTH
1327:Generated_Source\PSoC6\pdl\drivers\peripheral\ctb/cy_ctb.h **** *
1328:Generated_Source\PSoC6\pdl\drivers\peripheral\ctb/cy_ctb.h **** * \return
1329:Generated_Source\PSoC6\pdl\drivers\peripheral\ctb/cy_ctb.h **** * The interrupt mask.
1330:Generated_Source\PSoC6\pdl\drivers\peripheral\ctb/cy_ctb.h **** * If compNum is \ref CY_CTB_OPAMP_BOTH, cast the returned mask
1331:Generated_Source\PSoC6\pdl\drivers\peripheral\ctb/cy_ctb.h **** * to \ref cy_en_ctb_opamp_sel_t to determine which comparator interrupt
1332:Generated_Source\PSoC6\pdl\drivers\peripheral\ctb/cy_ctb.h **** * output (or both) is forwarded.
1333:Generated_Source\PSoC6\pdl\drivers\peripheral\ctb/cy_ctb.h **** * - 0: Interrupt output not forwarded to interrupt controller
1334:Generated_Source\PSoC6\pdl\drivers\peripheral\ctb/cy_ctb.h **** * - Non-zero: Interrupt output forwarded to interrupt controller
1335:Generated_Source\PSoC6\pdl\drivers\peripheral\ctb/cy_ctb.h **** *
1336:Generated_Source\PSoC6\pdl\drivers\peripheral\ctb/cy_ctb.h **** * \funcusage
1337:Generated_Source\PSoC6\pdl\drivers\peripheral\ctb/cy_ctb.h **** *
1338:Generated_Source\PSoC6\pdl\drivers\peripheral\ctb/cy_ctb.h **** * \snippet ctb_sut_01.cydsn/main_cm4.c CTB_SNIPPET_GET_INTERRUPT_MASK
1339:Generated_Source\PSoC6\pdl\drivers\peripheral\ctb/cy_ctb.h **** *
1340:Generated_Source\PSoC6\pdl\drivers\peripheral\ctb/cy_ctb.h **** *******************************************************************************/
1341:Generated_Source\PSoC6\pdl\drivers\peripheral\ctb/cy_ctb.h **** __STATIC_INLINE uint32_t Cy_CTB_GetInterruptMask(const CTBM_Type *base, cy_en_ctb_opamp_sel_t compN
1342:Generated_Source\PSoC6\pdl\drivers\peripheral\ctb/cy_ctb.h **** {
1343:Generated_Source\PSoC6\pdl\drivers\peripheral\ctb/cy_ctb.h ****     CY_ASSERT_L3(CY_CTB_OPAMPNUM(compNum));
ARM GAS  C:\Users\gjl\AppData\Local\Temp\cckcOS93.s 			page 57


1344:Generated_Source\PSoC6\pdl\drivers\peripheral\ctb/cy_ctb.h **** 
1345:Generated_Source\PSoC6\pdl\drivers\peripheral\ctb/cy_ctb.h ****     return base->INTR_MASK  & (uint32_t) compNum;
1346:Generated_Source\PSoC6\pdl\drivers\peripheral\ctb/cy_ctb.h **** }
1347:Generated_Source\PSoC6\pdl\drivers\peripheral\ctb/cy_ctb.h **** 
1348:Generated_Source\PSoC6\pdl\drivers\peripheral\ctb/cy_ctb.h **** /*******************************************************************************
1349:Generated_Source\PSoC6\pdl\drivers\peripheral\ctb/cy_ctb.h **** * Function Name: Cy_CTB_GetInterruptStatusMasked
1350:Generated_Source\PSoC6\pdl\drivers\peripheral\ctb/cy_ctb.h **** ****************************************************************************//**
1351:Generated_Source\PSoC6\pdl\drivers\peripheral\ctb/cy_ctb.h **** *
1352:Generated_Source\PSoC6\pdl\drivers\peripheral\ctb/cy_ctb.h **** * Return the CTB comparator edge output interrupt state after being masked.
1353:Generated_Source\PSoC6\pdl\drivers\peripheral\ctb/cy_ctb.h **** * This is the bitwise AND of \ref Cy_CTB_GetInterruptStatus and \ref Cy_CTB_GetInterruptMask.
1354:Generated_Source\PSoC6\pdl\drivers\peripheral\ctb/cy_ctb.h **** *
1355:Generated_Source\PSoC6\pdl\drivers\peripheral\ctb/cy_ctb.h **** * \param base
1356:Generated_Source\PSoC6\pdl\drivers\peripheral\ctb/cy_ctb.h **** * Pointer to structure describing registers
1357:Generated_Source\PSoC6\pdl\drivers\peripheral\ctb/cy_ctb.h **** *
1358:Generated_Source\PSoC6\pdl\drivers\peripheral\ctb/cy_ctb.h **** * \param compNum
1359:Generated_Source\PSoC6\pdl\drivers\peripheral\ctb/cy_ctb.h **** * \ref CY_CTB_OPAMP_0, \ref CY_CTB_OPAMP_1, or \ref CY_CTB_OPAMP_BOTH
1360:Generated_Source\PSoC6\pdl\drivers\peripheral\ctb/cy_ctb.h **** *
1361:Generated_Source\PSoC6\pdl\drivers\peripheral\ctb/cy_ctb.h **** * \return
1362:Generated_Source\PSoC6\pdl\drivers\peripheral\ctb/cy_ctb.h **** * If compNum is \ref CY_CTB_OPAMP_BOTH, cast the returned value
1363:Generated_Source\PSoC6\pdl\drivers\peripheral\ctb/cy_ctb.h **** * to \ref cy_en_ctb_opamp_sel_t to determine which comparator interrupt
1364:Generated_Source\PSoC6\pdl\drivers\peripheral\ctb/cy_ctb.h **** * output (or both) is detected and masked.
1365:Generated_Source\PSoC6\pdl\drivers\peripheral\ctb/cy_ctb.h **** * - 0: Configured edge not detected or not masked
1366:Generated_Source\PSoC6\pdl\drivers\peripheral\ctb/cy_ctb.h **** * - Non-zero: Configured edge type detected and masked
1367:Generated_Source\PSoC6\pdl\drivers\peripheral\ctb/cy_ctb.h **** *
1368:Generated_Source\PSoC6\pdl\drivers\peripheral\ctb/cy_ctb.h **** *******************************************************************************/
1369:Generated_Source\PSoC6\pdl\drivers\peripheral\ctb/cy_ctb.h **** __STATIC_INLINE uint32_t Cy_CTB_GetInterruptStatusMasked(const CTBM_Type *base, cy_en_ctb_opamp_sel
1370:Generated_Source\PSoC6\pdl\drivers\peripheral\ctb/cy_ctb.h **** {
1371:Generated_Source\PSoC6\pdl\drivers\peripheral\ctb/cy_ctb.h ****     CY_ASSERT_L3(CY_CTB_OPAMPNUM(compNum));
1372:Generated_Source\PSoC6\pdl\drivers\peripheral\ctb/cy_ctb.h **** 
1373:Generated_Source\PSoC6\pdl\drivers\peripheral\ctb/cy_ctb.h ****     return base->INTR_MASKED & (uint32_t) compNum;
1374:Generated_Source\PSoC6\pdl\drivers\peripheral\ctb/cy_ctb.h **** }
1375:Generated_Source\PSoC6\pdl\drivers\peripheral\ctb/cy_ctb.h **** /** \} */
1376:Generated_Source\PSoC6\pdl\drivers\peripheral\ctb/cy_ctb.h **** 
1377:Generated_Source\PSoC6\pdl\drivers\peripheral\ctb/cy_ctb.h **** /**
1378:Generated_Source\PSoC6\pdl\drivers\peripheral\ctb/cy_ctb.h **** * \addtogroup group_ctb_functions_aref
1379:Generated_Source\PSoC6\pdl\drivers\peripheral\ctb/cy_ctb.h **** * \{
1380:Generated_Source\PSoC6\pdl\drivers\peripheral\ctb/cy_ctb.h **** */
1381:Generated_Source\PSoC6\pdl\drivers\peripheral\ctb/cy_ctb.h **** 
1382:Generated_Source\PSoC6\pdl\drivers\peripheral\ctb/cy_ctb.h **** /*******************************************************************************
1383:Generated_Source\PSoC6\pdl\drivers\peripheral\ctb/cy_ctb.h **** * Function Name: Cy_CTB_SetIptatLevel
1384:Generated_Source\PSoC6\pdl\drivers\peripheral\ctb/cy_ctb.h **** ****************************************************************************//**
1385:Generated_Source\PSoC6\pdl\drivers\peripheral\ctb/cy_ctb.h **** *
1386:Generated_Source\PSoC6\pdl\drivers\peripheral\ctb/cy_ctb.h **** * Set the IPTAT reference level to 1 uA or 100 nA. The IPTAT generator is used by the CTB
1387:Generated_Source\PSoC6\pdl\drivers\peripheral\ctb/cy_ctb.h **** * for slope offset drift.
1388:Generated_Source\PSoC6\pdl\drivers\peripheral\ctb/cy_ctb.h **** *
1389:Generated_Source\PSoC6\pdl\drivers\peripheral\ctb/cy_ctb.h **** * \param iptat
1390:Generated_Source\PSoC6\pdl\drivers\peripheral\ctb/cy_ctb.h **** * Value from enum \ref cy_en_ctb_iptat_t
1391:Generated_Source\PSoC6\pdl\drivers\peripheral\ctb/cy_ctb.h **** *
1392:Generated_Source\PSoC6\pdl\drivers\peripheral\ctb/cy_ctb.h **** * \return None
1393:Generated_Source\PSoC6\pdl\drivers\peripheral\ctb/cy_ctb.h **** *
1394:Generated_Source\PSoC6\pdl\drivers\peripheral\ctb/cy_ctb.h **** * \funcusage
1395:Generated_Source\PSoC6\pdl\drivers\peripheral\ctb/cy_ctb.h **** *
1396:Generated_Source\PSoC6\pdl\drivers\peripheral\ctb/cy_ctb.h **** * \snippet ctb_sut_01.cydsn/main_cm4.c CTB_SNIPPET_SET_IPTAT_LEVEL
1397:Generated_Source\PSoC6\pdl\drivers\peripheral\ctb/cy_ctb.h **** *
1398:Generated_Source\PSoC6\pdl\drivers\peripheral\ctb/cy_ctb.h **** *******************************************************************************/
1399:Generated_Source\PSoC6\pdl\drivers\peripheral\ctb/cy_ctb.h **** __STATIC_INLINE void Cy_CTB_SetIptatLevel(cy_en_ctb_iptat_t iptat)
1400:Generated_Source\PSoC6\pdl\drivers\peripheral\ctb/cy_ctb.h **** {
ARM GAS  C:\Users\gjl\AppData\Local\Temp\cckcOS93.s 			page 58


1401:Generated_Source\PSoC6\pdl\drivers\peripheral\ctb/cy_ctb.h ****     CY_ASSERT_L3(CY_CTB_IPTAT(iptat));
1402:Generated_Source\PSoC6\pdl\drivers\peripheral\ctb/cy_ctb.h **** 
1403:Generated_Source\PSoC6\pdl\drivers\peripheral\ctb/cy_ctb.h ****     PASS_AREF->AREF_CTRL = (PASS_AREF->AREF_CTRL & ~PASS_AREF_AREF_CTRL_CTB_IPTAT_SCALE_Msk) | (uin
 1163              		.loc 2 1403 0
 1164 001c 2C4B     		ldr	r3, .L122+4
 1165 001e 1A68     		ldr	r2, [r3]
 1166 0020 22F08002 		bic	r2, r2, #128
 1167 0024 1A60     		str	r2, [r3]
 1168              	.LVL90:
 1169              	.LBE21:
 1170              	.LBE20:
 1171              	.LBB22:
 1172              	.LBB23:
1404:Generated_Source\PSoC6\pdl\drivers\peripheral\ctb/cy_ctb.h **** }
1405:Generated_Source\PSoC6\pdl\drivers\peripheral\ctb/cy_ctb.h **** 
1406:Generated_Source\PSoC6\pdl\drivers\peripheral\ctb/cy_ctb.h **** /*******************************************************************************
1407:Generated_Source\PSoC6\pdl\drivers\peripheral\ctb/cy_ctb.h **** * Function Name: Cy_CTB_SetClkPumpSource
1408:Generated_Source\PSoC6\pdl\drivers\peripheral\ctb/cy_ctb.h **** ****************************************************************************//**
1409:Generated_Source\PSoC6\pdl\drivers\peripheral\ctb/cy_ctb.h **** *
1410:Generated_Source\PSoC6\pdl\drivers\peripheral\ctb/cy_ctb.h **** * Set the clock source for both charge pumps in the CTB. Recall that each opamp
1411:Generated_Source\PSoC6\pdl\drivers\peripheral\ctb/cy_ctb.h **** * has its own charge pump. The clock can come from:
1412:Generated_Source\PSoC6\pdl\drivers\peripheral\ctb/cy_ctb.h **** *
1413:Generated_Source\PSoC6\pdl\drivers\peripheral\ctb/cy_ctb.h **** *   - A dedicated divider off of one of the CLK_PATH in the SRSS.
1414:Generated_Source\PSoC6\pdl\drivers\peripheral\ctb/cy_ctb.h **** *     Call the following functions to configure the pump clock from the SRSS:
1415:Generated_Source\PSoC6\pdl\drivers\peripheral\ctb/cy_ctb.h **** *       - \ref Cy_SysClk_ClkPumpSetSource
1416:Generated_Source\PSoC6\pdl\drivers\peripheral\ctb/cy_ctb.h **** *       - \ref Cy_SysClk_ClkPumpSetDivider
1417:Generated_Source\PSoC6\pdl\drivers\peripheral\ctb/cy_ctb.h **** *       - \ref Cy_SysClk_ClkPumpEnable
1418:Generated_Source\PSoC6\pdl\drivers\peripheral\ctb/cy_ctb.h **** *   - One of the Peri Clock dividers.
1419:Generated_Source\PSoC6\pdl\drivers\peripheral\ctb/cy_ctb.h **** *     Call the following functions to configure a Peri Clock divider as the
1420:Generated_Source\PSoC6\pdl\drivers\peripheral\ctb/cy_ctb.h **** *     pump clock:
1421:Generated_Source\PSoC6\pdl\drivers\peripheral\ctb/cy_ctb.h **** *       - \ref Cy_SysClk_PeriphAssignDivider with the IP block set to PCLK_PASS_CLOCK_PUMP_PERI
1422:Generated_Source\PSoC6\pdl\drivers\peripheral\ctb/cy_ctb.h **** *       - \ref Cy_SysClk_PeriphSetDivider
1423:Generated_Source\PSoC6\pdl\drivers\peripheral\ctb/cy_ctb.h **** *       - \ref Cy_SysClk_PeriphEnableDivider
1424:Generated_Source\PSoC6\pdl\drivers\peripheral\ctb/cy_ctb.h **** *
1425:Generated_Source\PSoC6\pdl\drivers\peripheral\ctb/cy_ctb.h **** * \param clkPump
1426:Generated_Source\PSoC6\pdl\drivers\peripheral\ctb/cy_ctb.h **** * Clock source selection (SRSS or PeriClk) for the pump. Select a value from
1427:Generated_Source\PSoC6\pdl\drivers\peripheral\ctb/cy_ctb.h **** * \ref cy_en_ctb_clk_pump_source_t
1428:Generated_Source\PSoC6\pdl\drivers\peripheral\ctb/cy_ctb.h **** *
1429:Generated_Source\PSoC6\pdl\drivers\peripheral\ctb/cy_ctb.h **** * \return None
1430:Generated_Source\PSoC6\pdl\drivers\peripheral\ctb/cy_ctb.h **** *
1431:Generated_Source\PSoC6\pdl\drivers\peripheral\ctb/cy_ctb.h **** * \funcusage
1432:Generated_Source\PSoC6\pdl\drivers\peripheral\ctb/cy_ctb.h **** *
1433:Generated_Source\PSoC6\pdl\drivers\peripheral\ctb/cy_ctb.h **** * \snippet ctb_sut_01.cydsn/main_cm4.c CTB_SNIPPET_SET_CLK_PUMP_SOURCE_SRSS
1434:Generated_Source\PSoC6\pdl\drivers\peripheral\ctb/cy_ctb.h **** *
1435:Generated_Source\PSoC6\pdl\drivers\peripheral\ctb/cy_ctb.h **** * \funcusage
1436:Generated_Source\PSoC6\pdl\drivers\peripheral\ctb/cy_ctb.h **** *
1437:Generated_Source\PSoC6\pdl\drivers\peripheral\ctb/cy_ctb.h **** * \snippet ctb_sut_01.cydsn/main_cm4.c CTB_SNIPPET_SET_CLK_PUMP_SOURCE_PERI
1438:Generated_Source\PSoC6\pdl\drivers\peripheral\ctb/cy_ctb.h **** *
1439:Generated_Source\PSoC6\pdl\drivers\peripheral\ctb/cy_ctb.h **** *******************************************************************************/
1440:Generated_Source\PSoC6\pdl\drivers\peripheral\ctb/cy_ctb.h **** __STATIC_INLINE void Cy_CTB_SetClkPumpSource(cy_en_ctb_clk_pump_source_t clkPump)
1441:Generated_Source\PSoC6\pdl\drivers\peripheral\ctb/cy_ctb.h **** {
1442:Generated_Source\PSoC6\pdl\drivers\peripheral\ctb/cy_ctb.h ****     CY_ASSERT_L3(CY_CTB_CLKPUMP(clkPump));
1443:Generated_Source\PSoC6\pdl\drivers\peripheral\ctb/cy_ctb.h **** 
1444:Generated_Source\PSoC6\pdl\drivers\peripheral\ctb/cy_ctb.h ****     PASS_AREF->AREF_CTRL = (PASS_AREF->AREF_CTRL & ~PASS_AREF_AREF_CTRL_CLOCK_PUMP_PERI_SEL_Msk) | 
1445:Generated_Source\PSoC6\pdl\drivers\peripheral\ctb/cy_ctb.h **** }
1446:Generated_Source\PSoC6\pdl\drivers\peripheral\ctb/cy_ctb.h **** 
1447:Generated_Source\PSoC6\pdl\drivers\peripheral\ctb/cy_ctb.h **** /*******************************************************************************
ARM GAS  C:\Users\gjl\AppData\Local\Temp\cckcOS93.s 			page 59


1448:Generated_Source\PSoC6\pdl\drivers\peripheral\ctb/cy_ctb.h **** * Function Name: Cy_CTB_EnableRedirect
1449:Generated_Source\PSoC6\pdl\drivers\peripheral\ctb/cy_ctb.h **** ****************************************************************************//**
1450:Generated_Source\PSoC6\pdl\drivers\peripheral\ctb/cy_ctb.h **** *
1451:Generated_Source\PSoC6\pdl\drivers\peripheral\ctb/cy_ctb.h **** * Normally, the AREF IZTAT is routed to the CTB IZTAT and the AREF IPTAT
1452:Generated_Source\PSoC6\pdl\drivers\peripheral\ctb/cy_ctb.h **** * is routed to the CTB IPTAT:
1453:Generated_Source\PSoC6\pdl\drivers\peripheral\ctb/cy_ctb.h **** *
1454:Generated_Source\PSoC6\pdl\drivers\peripheral\ctb/cy_ctb.h **** *   - CTB.IZTAT = AREF.IZTAT
1455:Generated_Source\PSoC6\pdl\drivers\peripheral\ctb/cy_ctb.h **** *   - CTB.IPTAT = AREF.IPTAT
1456:Generated_Source\PSoC6\pdl\drivers\peripheral\ctb/cy_ctb.h **** *
1457:Generated_Source\PSoC6\pdl\drivers\peripheral\ctb/cy_ctb.h **** * However, the AREF IPTAT can be redirected to the CTB IZTAT and the CTB IPTAT
1458:Generated_Source\PSoC6\pdl\drivers\peripheral\ctb/cy_ctb.h **** * is off.
1459:Generated_Source\PSoC6\pdl\drivers\peripheral\ctb/cy_ctb.h **** *
1460:Generated_Source\PSoC6\pdl\drivers\peripheral\ctb/cy_ctb.h **** *   - CTB.IZTAT = AREF.IPTAT
1461:Generated_Source\PSoC6\pdl\drivers\peripheral\ctb/cy_ctb.h **** *   - CTB.IPTAT = HiZ
1462:Generated_Source\PSoC6\pdl\drivers\peripheral\ctb/cy_ctb.h **** *
1463:Generated_Source\PSoC6\pdl\drivers\peripheral\ctb/cy_ctb.h **** * The redirection applies to all opamps on the device and
1464:Generated_Source\PSoC6\pdl\drivers\peripheral\ctb/cy_ctb.h **** * should be used when the IPTAT bias level is set to 100 nA
1465:Generated_Source\PSoC6\pdl\drivers\peripheral\ctb/cy_ctb.h **** * (see \ref Cy_CTB_SetIptatLevel).
1466:Generated_Source\PSoC6\pdl\drivers\peripheral\ctb/cy_ctb.h **** *
1467:Generated_Source\PSoC6\pdl\drivers\peripheral\ctb/cy_ctb.h **** * When the CTB.IPTAT is HiZ, the CTB cannot compensate for the slope of
1468:Generated_Source\PSoC6\pdl\drivers\peripheral\ctb/cy_ctb.h **** * the offset across temperature.
1469:Generated_Source\PSoC6\pdl\drivers\peripheral\ctb/cy_ctb.h **** *
1470:Generated_Source\PSoC6\pdl\drivers\peripheral\ctb/cy_ctb.h **** * \return None
1471:Generated_Source\PSoC6\pdl\drivers\peripheral\ctb/cy_ctb.h **** *
1472:Generated_Source\PSoC6\pdl\drivers\peripheral\ctb/cy_ctb.h **** * \funcusage
1473:Generated_Source\PSoC6\pdl\drivers\peripheral\ctb/cy_ctb.h **** *
1474:Generated_Source\PSoC6\pdl\drivers\peripheral\ctb/cy_ctb.h **** * \snippet ctb_sut_01.cydsn/main_cm4.c CTB_SNIPPET_ENABLE_REDIRECT
1475:Generated_Source\PSoC6\pdl\drivers\peripheral\ctb/cy_ctb.h **** *
1476:Generated_Source\PSoC6\pdl\drivers\peripheral\ctb/cy_ctb.h **** *******************************************************************************/
1477:Generated_Source\PSoC6\pdl\drivers\peripheral\ctb/cy_ctb.h **** __STATIC_INLINE void Cy_CTB_EnableRedirect(void)
1478:Generated_Source\PSoC6\pdl\drivers\peripheral\ctb/cy_ctb.h **** {
1479:Generated_Source\PSoC6\pdl\drivers\peripheral\ctb/cy_ctb.h ****     PASS_AREF->AREF_CTRL |= PASS_AREF_AREF_CTRL_CTB_IPTAT_REDIRECT_Msk;
1480:Generated_Source\PSoC6\pdl\drivers\peripheral\ctb/cy_ctb.h **** }
1481:Generated_Source\PSoC6\pdl\drivers\peripheral\ctb/cy_ctb.h **** 
1482:Generated_Source\PSoC6\pdl\drivers\peripheral\ctb/cy_ctb.h **** /*******************************************************************************
1483:Generated_Source\PSoC6\pdl\drivers\peripheral\ctb/cy_ctb.h **** * Function Name: Cy_CTB_DisableRedirect
1484:Generated_Source\PSoC6\pdl\drivers\peripheral\ctb/cy_ctb.h **** ****************************************************************************//**
1485:Generated_Source\PSoC6\pdl\drivers\peripheral\ctb/cy_ctb.h **** *
1486:Generated_Source\PSoC6\pdl\drivers\peripheral\ctb/cy_ctb.h **** * Disable the redirection of the AREF IPTAT to the CTB IZTAT for all opamps
1487:Generated_Source\PSoC6\pdl\drivers\peripheral\ctb/cy_ctb.h **** * on the device as enabled by \ref Cy_CTB_EnableRedirect.
1488:Generated_Source\PSoC6\pdl\drivers\peripheral\ctb/cy_ctb.h **** *
1489:Generated_Source\PSoC6\pdl\drivers\peripheral\ctb/cy_ctb.h **** * \return None
1490:Generated_Source\PSoC6\pdl\drivers\peripheral\ctb/cy_ctb.h **** *
1491:Generated_Source\PSoC6\pdl\drivers\peripheral\ctb/cy_ctb.h **** *******************************************************************************/
1492:Generated_Source\PSoC6\pdl\drivers\peripheral\ctb/cy_ctb.h **** __STATIC_INLINE void Cy_CTB_DisableRedirect(void)
1493:Generated_Source\PSoC6\pdl\drivers\peripheral\ctb/cy_ctb.h **** {
1494:Generated_Source\PSoC6\pdl\drivers\peripheral\ctb/cy_ctb.h ****     PASS_AREF->AREF_CTRL &= ~(PASS_AREF_AREF_CTRL_CTB_IPTAT_REDIRECT_Msk);
 1173              		.loc 2 1494 0
 1174 0026 1A68     		ldr	r2, [r3]
 1175 0028 22F47F42 		bic	r2, r2, #65280
 1176 002c 1A60     		str	r2, [r3]
 1177              	.LBE23:
 1178              	.LBE22:
 580:Generated_Source\PSoC6\pdl\drivers\peripheral\ctb/cy_ctb.c **** 
 1179              		.loc 1 580 0
 1180 002e 0021     		movs	r1, #0
 1181 0030 2046     		mov	r0, r4
ARM GAS  C:\Users\gjl\AppData\Local\Temp\cckcOS93.s 			page 60


 1182 0032 FFF7FEFF 		bl	Cy_CTB_SetDeepSleepMode
 1183              	.LVL91:
 583:Generated_Source\PSoC6\pdl\drivers\peripheral\ctb/cy_ctb.c **** 
 1184              		.loc 1 583 0
 1185 0036 6368     		ldr	r3, [r4, #4]
 1186 0038 43F40063 		orr	r3, r3, #2048
 1187 003c 6360     		str	r3, [r4, #4]
 586:Generated_Source\PSoC6\pdl\drivers\peripheral\ctb/cy_ctb.c **** 
 1188              		.loc 1 586 0
 1189 003e A368     		ldr	r3, [r4, #8]
 1190 0040 43F40063 		orr	r3, r3, #2048
 1191 0044 A360     		str	r3, [r4, #8]
 588:Generated_Source\PSoC6\pdl\drivers\peripheral\ctb/cy_ctb.c ****     case CY_CTB_CURRENT_HIGH_ACTIVE_DEEPSLEEP:
 1192              		.loc 1 588 0
 1193 0046 38BD     		pop	{r3, r4, r5, pc}
 1194              	.LVL92:
 1195              	.L116:
 1196              	.LBB24:
 1197              	.LBB25:
 1198              		.file 3 "Generated_Source\\PSoC6\\pdl\\drivers/peripheral/sysanalog/cy_sysanalog.h"
   1:Generated_Source\PSoC6\pdl\drivers/peripheral/sysanalog/cy_sysanalog.h **** /***************************************************************************//**
   2:Generated_Source\PSoC6\pdl\drivers/peripheral/sysanalog/cy_sysanalog.h **** * \file cy_sysanalog.h
   3:Generated_Source\PSoC6\pdl\drivers/peripheral/sysanalog/cy_sysanalog.h **** * \version 1.0
   4:Generated_Source\PSoC6\pdl\drivers/peripheral/sysanalog/cy_sysanalog.h **** *
   5:Generated_Source\PSoC6\pdl\drivers/peripheral/sysanalog/cy_sysanalog.h **** * Header file for the system level analog reference driver.
   6:Generated_Source\PSoC6\pdl\drivers/peripheral/sysanalog/cy_sysanalog.h **** *
   7:Generated_Source\PSoC6\pdl\drivers/peripheral/sysanalog/cy_sysanalog.h **** ********************************************************************************
   8:Generated_Source\PSoC6\pdl\drivers/peripheral/sysanalog/cy_sysanalog.h **** * \copyright
   9:Generated_Source\PSoC6\pdl\drivers/peripheral/sysanalog/cy_sysanalog.h **** * Copyright 2017-2018, Cypress Semiconductor Corporation. All rights reserved.
  10:Generated_Source\PSoC6\pdl\drivers/peripheral/sysanalog/cy_sysanalog.h **** * You may use this file only in accordance with the license, terms, conditions,
  11:Generated_Source\PSoC6\pdl\drivers/peripheral/sysanalog/cy_sysanalog.h **** * disclaimers, and limitations in the end user license agreement accompanying
  12:Generated_Source\PSoC6\pdl\drivers/peripheral/sysanalog/cy_sysanalog.h **** * the software package with which this file was provided.
  13:Generated_Source\PSoC6\pdl\drivers/peripheral/sysanalog/cy_sysanalog.h **** *******************************************************************************/
  14:Generated_Source\PSoC6\pdl\drivers/peripheral/sysanalog/cy_sysanalog.h **** 
  15:Generated_Source\PSoC6\pdl\drivers/peripheral/sysanalog/cy_sysanalog.h **** /**
  16:Generated_Source\PSoC6\pdl\drivers/peripheral/sysanalog/cy_sysanalog.h **** * \defgroup group_sysanalog System Analog Reference Block (SysAnalog)
  17:Generated_Source\PSoC6\pdl\drivers/peripheral/sysanalog/cy_sysanalog.h **** * \{
  18:Generated_Source\PSoC6\pdl\drivers/peripheral/sysanalog/cy_sysanalog.h **** *
  19:Generated_Source\PSoC6\pdl\drivers/peripheral/sysanalog/cy_sysanalog.h **** * This driver provides an interface for configuring the Analog Reference (AREF) block
  20:Generated_Source\PSoC6\pdl\drivers/peripheral/sysanalog/cy_sysanalog.h **** * and querying the INTR_CAUSE register of the PASS.
  21:Generated_Source\PSoC6\pdl\drivers/peripheral/sysanalog/cy_sysanalog.h **** *
  22:Generated_Source\PSoC6\pdl\drivers/peripheral/sysanalog/cy_sysanalog.h **** * The AREF block has the following features:
  23:Generated_Source\PSoC6\pdl\drivers/peripheral/sysanalog/cy_sysanalog.h **** *
  24:Generated_Source\PSoC6\pdl\drivers/peripheral/sysanalog/cy_sysanalog.h **** *   - Generates a voltage reference (VREF) from one of three sources:
  25:Generated_Source\PSoC6\pdl\drivers/peripheral/sysanalog/cy_sysanalog.h **** *       - Local 1.2 V reference (<b>low noise, optimized for analog performance</b>)
  26:Generated_Source\PSoC6\pdl\drivers/peripheral/sysanalog/cy_sysanalog.h **** *       - Reference from the SRSS (high noise, not recommended for analog performance)
  27:Generated_Source\PSoC6\pdl\drivers/peripheral/sysanalog/cy_sysanalog.h **** *       - An external pin
  28:Generated_Source\PSoC6\pdl\drivers/peripheral/sysanalog/cy_sysanalog.h **** *   - Generates a 1 uA "zero dependency to absolute temperature" (IZTAT) current reference
  29:Generated_Source\PSoC6\pdl\drivers/peripheral/sysanalog/cy_sysanalog.h **** *     that is independent of temperature variations. It can come from one of two sources:
  30:Generated_Source\PSoC6\pdl\drivers/peripheral/sysanalog/cy_sysanalog.h **** *       - Local reference (<b>low noise, optimized for analog performance</b>)
  31:Generated_Source\PSoC6\pdl\drivers/peripheral/sysanalog/cy_sysanalog.h **** *       - Reference from the SRSS (high noise, not recommended for analog performance)
  32:Generated_Source\PSoC6\pdl\drivers/peripheral/sysanalog/cy_sysanalog.h **** *   - Generates a "proportional to absolute temperature" (IPTAT) current reference
  33:Generated_Source\PSoC6\pdl\drivers/peripheral/sysanalog/cy_sysanalog.h **** *   - Option to enable local references in Deep Sleep mode
  34:Generated_Source\PSoC6\pdl\drivers/peripheral/sysanalog/cy_sysanalog.h **** *
  35:Generated_Source\PSoC6\pdl\drivers/peripheral/sysanalog/cy_sysanalog.h **** * The locally generated references are the recommended sources for blocks in the PASS because
  36:Generated_Source\PSoC6\pdl\drivers/peripheral/sysanalog/cy_sysanalog.h **** * they have tighter accuracy, temperature stability, and lower noise than the SRSS references.
  37:Generated_Source\PSoC6\pdl\drivers/peripheral/sysanalog/cy_sysanalog.h **** * The SRSS references can be used to save power if the low accuracy and higher noise can be tolerat
ARM GAS  C:\Users\gjl\AppData\Local\Temp\cckcOS93.s 			page 61


  38:Generated_Source\PSoC6\pdl\drivers/peripheral/sysanalog/cy_sysanalog.h **** *
  39:Generated_Source\PSoC6\pdl\drivers/peripheral/sysanalog/cy_sysanalog.h **** * \image html aref_block_diagram.png
  40:Generated_Source\PSoC6\pdl\drivers/peripheral/sysanalog/cy_sysanalog.h **** * \image latex aref_block_diagram.png
  41:Generated_Source\PSoC6\pdl\drivers/peripheral/sysanalog/cy_sysanalog.h **** *
  42:Generated_Source\PSoC6\pdl\drivers/peripheral/sysanalog/cy_sysanalog.h **** * The outputs of the AREF are consumed by multiple blocks in the PASS and by the CapSense (CSDv2) b
  43:Generated_Source\PSoC6\pdl\drivers/peripheral/sysanalog/cy_sysanalog.h **** * In some cases, these blocks have the option of using the references from the AREF. This selection
  44:Generated_Source\PSoC6\pdl\drivers/peripheral/sysanalog/cy_sysanalog.h **** * in the respective drivers for these blocks. In some cases, these blocks require the references fr
  45:Generated_Source\PSoC6\pdl\drivers/peripheral/sysanalog/cy_sysanalog.h **** * AREF to function.
  46:Generated_Source\PSoC6\pdl\drivers/peripheral/sysanalog/cy_sysanalog.h **** *
  47:Generated_Source\PSoC6\pdl\drivers/peripheral/sysanalog/cy_sysanalog.h **** * <table class="doxtable">
  48:Generated_Source\PSoC6\pdl\drivers/peripheral/sysanalog/cy_sysanalog.h **** *   <tr><th>AREF Output</th><th>\ref group_sar "SAR"</th><th>\ref group_ctdac "CTDAC"</th><th>\ref 
  49:Generated_Source\PSoC6\pdl\drivers/peripheral/sysanalog/cy_sysanalog.h **** *   <tr>
  50:Generated_Source\PSoC6\pdl\drivers/peripheral/sysanalog/cy_sysanalog.h **** *     <td>VREF</td>
  51:Generated_Source\PSoC6\pdl\drivers/peripheral/sysanalog/cy_sysanalog.h **** *     <td>optional</td>
  52:Generated_Source\PSoC6\pdl\drivers/peripheral/sysanalog/cy_sysanalog.h **** *     <td>optional</td>
  53:Generated_Source\PSoC6\pdl\drivers/peripheral/sysanalog/cy_sysanalog.h **** *     <td>--</td>
  54:Generated_Source\PSoC6\pdl\drivers/peripheral/sysanalog/cy_sysanalog.h **** *     <td>optional</td>
  55:Generated_Source\PSoC6\pdl\drivers/peripheral/sysanalog/cy_sysanalog.h **** *   </tr>
  56:Generated_Source\PSoC6\pdl\drivers/peripheral/sysanalog/cy_sysanalog.h **** *   <tr>
  57:Generated_Source\PSoC6\pdl\drivers/peripheral/sysanalog/cy_sysanalog.h **** *     <td>IZTAT</td>
  58:Generated_Source\PSoC6\pdl\drivers/peripheral/sysanalog/cy_sysanalog.h **** *     <td><b>required</b></td>
  59:Generated_Source\PSoC6\pdl\drivers/peripheral/sysanalog/cy_sysanalog.h **** *     <td>--</td>
  60:Generated_Source\PSoC6\pdl\drivers/peripheral/sysanalog/cy_sysanalog.h **** *     <td>optional</td>
  61:Generated_Source\PSoC6\pdl\drivers/peripheral/sysanalog/cy_sysanalog.h **** *     <td>optional</td>
  62:Generated_Source\PSoC6\pdl\drivers/peripheral/sysanalog/cy_sysanalog.h **** *   </tr>
  63:Generated_Source\PSoC6\pdl\drivers/peripheral/sysanalog/cy_sysanalog.h **** *   <tr>
  64:Generated_Source\PSoC6\pdl\drivers/peripheral/sysanalog/cy_sysanalog.h **** *     <td>IPTAT</td>
  65:Generated_Source\PSoC6\pdl\drivers/peripheral/sysanalog/cy_sysanalog.h **** *     <td>--</td>
  66:Generated_Source\PSoC6\pdl\drivers/peripheral/sysanalog/cy_sysanalog.h **** *     <td>--</td>
  67:Generated_Source\PSoC6\pdl\drivers/peripheral/sysanalog/cy_sysanalog.h **** *     <td><b>required</b></td>
  68:Generated_Source\PSoC6\pdl\drivers/peripheral/sysanalog/cy_sysanalog.h **** *     <td>--</td>
  69:Generated_Source\PSoC6\pdl\drivers/peripheral/sysanalog/cy_sysanalog.h **** *   </tr>
  70:Generated_Source\PSoC6\pdl\drivers/peripheral/sysanalog/cy_sysanalog.h **** * </table>
  71:Generated_Source\PSoC6\pdl\drivers/peripheral/sysanalog/cy_sysanalog.h **** *
  72:Generated_Source\PSoC6\pdl\drivers/peripheral/sysanalog/cy_sysanalog.h **** * This driver provides a function to query the INTR_CAUSE register of the PASS.
  73:Generated_Source\PSoC6\pdl\drivers/peripheral/sysanalog/cy_sysanalog.h **** * There are two interrupts in the PASS:
  74:Generated_Source\PSoC6\pdl\drivers/peripheral/sysanalog/cy_sysanalog.h **** *
  75:Generated_Source\PSoC6\pdl\drivers/peripheral/sysanalog/cy_sysanalog.h **** *   -# one global interrupt for all CTBs (up to 4)
  76:Generated_Source\PSoC6\pdl\drivers/peripheral/sysanalog/cy_sysanalog.h **** *   -# one global interrupt for all CTDACs (up to 4)
  77:Generated_Source\PSoC6\pdl\drivers/peripheral/sysanalog/cy_sysanalog.h **** *
  78:Generated_Source\PSoC6\pdl\drivers/peripheral/sysanalog/cy_sysanalog.h **** * Because the interrupts are global, the INTR_CAUSE register is needed to query which hardware inst
  79:Generated_Source\PSoC6\pdl\drivers/peripheral/sysanalog/cy_sysanalog.h **** * triggered the interrupt.
  80:Generated_Source\PSoC6\pdl\drivers/peripheral/sysanalog/cy_sysanalog.h **** *
  81:Generated_Source\PSoC6\pdl\drivers/peripheral/sysanalog/cy_sysanalog.h **** * \section group_sysanalog_usage Usage
  82:Generated_Source\PSoC6\pdl\drivers/peripheral/sysanalog/cy_sysanalog.h **** *
  83:Generated_Source\PSoC6\pdl\drivers/peripheral/sysanalog/cy_sysanalog.h **** * \subsection group_sysanalog_usage_init Initialization
  84:Generated_Source\PSoC6\pdl\drivers/peripheral/sysanalog/cy_sysanalog.h **** *
  85:Generated_Source\PSoC6\pdl\drivers/peripheral/sysanalog/cy_sysanalog.h **** * To configure the AREF, call \ref Cy_SysAnalog_Init and provide a pointer
  86:Generated_Source\PSoC6\pdl\drivers/peripheral/sysanalog/cy_sysanalog.h **** * to the configuration structure, \ref cy_stc_sysanalog_config_t. Three predefined structures
  87:Generated_Source\PSoC6\pdl\drivers/peripheral/sysanalog/cy_sysanalog.h **** * are provided in this driver to cover a majority of use cases:
  88:Generated_Source\PSoC6\pdl\drivers/peripheral/sysanalog/cy_sysanalog.h **** *
  89:Generated_Source\PSoC6\pdl\drivers/peripheral/sysanalog/cy_sysanalog.h **** *   - \ref Cy_SysAnalog_Fast_Local <b>(recommended for analog performance)</b>
  90:Generated_Source\PSoC6\pdl\drivers/peripheral/sysanalog/cy_sysanalog.h **** *   - \ref Cy_SysAnalog_Fast_SRSS
  91:Generated_Source\PSoC6\pdl\drivers/peripheral/sysanalog/cy_sysanalog.h **** *   - \ref Cy_SysAnalog_Fast_External
  92:Generated_Source\PSoC6\pdl\drivers/peripheral/sysanalog/cy_sysanalog.h **** *
  93:Generated_Source\PSoC6\pdl\drivers/peripheral/sysanalog/cy_sysanalog.h **** * After initialization, call \ref Cy_SysAnalog_Enable to enable the hardware.
  94:Generated_Source\PSoC6\pdl\drivers/peripheral/sysanalog/cy_sysanalog.h **** *
ARM GAS  C:\Users\gjl\AppData\Local\Temp\cckcOS93.s 			page 62


  95:Generated_Source\PSoC6\pdl\drivers/peripheral/sysanalog/cy_sysanalog.h **** * \subsection group_sysanalog_usage_dsop Deep Sleep Operation
  96:Generated_Source\PSoC6\pdl\drivers/peripheral/sysanalog/cy_sysanalog.h **** *
  97:Generated_Source\PSoC6\pdl\drivers/peripheral/sysanalog/cy_sysanalog.h **** * The AREF current and voltage references can be enabled to operate in Deep Sleep mode
  98:Generated_Source\PSoC6\pdl\drivers/peripheral/sysanalog/cy_sysanalog.h **** * with \ref Cy_SysAnalog_SetDeepSleepMode. There are four options for Deep Sleep operation:
  99:Generated_Source\PSoC6\pdl\drivers/peripheral/sysanalog/cy_sysanalog.h **** *
 100:Generated_Source\PSoC6\pdl\drivers/peripheral/sysanalog/cy_sysanalog.h **** *   - \ref CY_SYSANALOG_DEEPSLEEP_DISABLE : Disable AREF IP block
 101:Generated_Source\PSoC6\pdl\drivers/peripheral/sysanalog/cy_sysanalog.h **** *   - \ref CY_SYSANALOG_DEEPSLEEP_IPTAT_1 : Enable IPTAT generator for fast wakeup from Deep Sleep 
 102:Generated_Source\PSoC6\pdl\drivers/peripheral/sysanalog/cy_sysanalog.h **** *   - \ref CY_SYSANALOG_DEEPSLEEP_IPTAT_2 : Enable IPTAT generator and IPTAT outputs for CTB
 103:Generated_Source\PSoC6\pdl\drivers/peripheral/sysanalog/cy_sysanalog.h **** *   - \ref CY_SYSANALOG_DEEPSLEEP_IPTAT_IZTAT_VREF : Enable all generators and outputs: IPTAT, IZTA
 104:Generated_Source\PSoC6\pdl\drivers/peripheral/sysanalog/cy_sysanalog.h **** *
 105:Generated_Source\PSoC6\pdl\drivers/peripheral/sysanalog/cy_sysanalog.h **** * Recall that the CTB requires the IPTAT reference. For the CTB to operate at the 1 uA current mode
 106:Generated_Source\PSoC6\pdl\drivers/peripheral/sysanalog/cy_sysanalog.h **** * the AREF must be enabled for \ref CY_SYSANALOG_DEEPSLEEP_IPTAT_IZTAT_VREF. For the CTB to operate
 107:Generated_Source\PSoC6\pdl\drivers/peripheral/sysanalog/cy_sysanalog.h **** * current mode in Deep Sleep mode, the AREF must be enabled for \ref CY_SYSANALOG_DEEPSLEEP_IPTAT_2
 108:Generated_Source\PSoC6\pdl\drivers/peripheral/sysanalog/cy_sysanalog.h **** * lower current mode, the AREF IPTAT must be redirected to the CTB IZTAT. See the high level functi
 109:Generated_Source\PSoC6\pdl\drivers/peripheral/sysanalog/cy_sysanalog.h **** * Cy_CTB_SetCurrentMode in the CTB PDL driver.
 110:Generated_Source\PSoC6\pdl\drivers/peripheral/sysanalog/cy_sysanalog.h **** *
 111:Generated_Source\PSoC6\pdl\drivers/peripheral/sysanalog/cy_sysanalog.h **** * If the CTDAC is configured to use the VREF in Deep Sleep mode, the AREF must be enabled for \ref 
 112:Generated_Source\PSoC6\pdl\drivers/peripheral/sysanalog/cy_sysanalog.h **** *
 113:Generated_Source\PSoC6\pdl\drivers/peripheral/sysanalog/cy_sysanalog.h **** * \note
 114:Generated_Source\PSoC6\pdl\drivers/peripheral/sysanalog/cy_sysanalog.h **** * The SRSS references are not available to the AREF in Deep Sleep mode. When operating
 115:Generated_Source\PSoC6\pdl\drivers/peripheral/sysanalog/cy_sysanalog.h **** * in Deep Sleep mode, the local or external references must be selected.
 116:Generated_Source\PSoC6\pdl\drivers/peripheral/sysanalog/cy_sysanalog.h **** *
 117:Generated_Source\PSoC6\pdl\drivers/peripheral/sysanalog/cy_sysanalog.h **** * \section group_sysanalog_more_information More Information
 118:Generated_Source\PSoC6\pdl\drivers/peripheral/sysanalog/cy_sysanalog.h **** *
 119:Generated_Source\PSoC6\pdl\drivers/peripheral/sysanalog/cy_sysanalog.h **** * For more information on the AREF, refer to the technical reference manual (TRM).
 120:Generated_Source\PSoC6\pdl\drivers/peripheral/sysanalog/cy_sysanalog.h **** *
 121:Generated_Source\PSoC6\pdl\drivers/peripheral/sysanalog/cy_sysanalog.h **** * \section group_sysanalog_MISRA MISRA-C Compliance]
 122:Generated_Source\PSoC6\pdl\drivers/peripheral/sysanalog/cy_sysanalog.h **** *
 123:Generated_Source\PSoC6\pdl\drivers/peripheral/sysanalog/cy_sysanalog.h **** * This driver does not have any specific deviations.
 124:Generated_Source\PSoC6\pdl\drivers/peripheral/sysanalog/cy_sysanalog.h **** *
 125:Generated_Source\PSoC6\pdl\drivers/peripheral/sysanalog/cy_sysanalog.h **** * \section group_sysanalog_changelog Changelog
 126:Generated_Source\PSoC6\pdl\drivers/peripheral/sysanalog/cy_sysanalog.h **** * <table class="doxtable">
 127:Generated_Source\PSoC6\pdl\drivers/peripheral/sysanalog/cy_sysanalog.h **** *   <tr><th>Version</th><th>Changes</th><th>Reason for Change</th></tr>
 128:Generated_Source\PSoC6\pdl\drivers/peripheral/sysanalog/cy_sysanalog.h **** *   <tr>
 129:Generated_Source\PSoC6\pdl\drivers/peripheral/sysanalog/cy_sysanalog.h **** *     <td>1.0</td>
 130:Generated_Source\PSoC6\pdl\drivers/peripheral/sysanalog/cy_sysanalog.h **** *     <td>Initial version</td>
 131:Generated_Source\PSoC6\pdl\drivers/peripheral/sysanalog/cy_sysanalog.h **** *     <td></td>
 132:Generated_Source\PSoC6\pdl\drivers/peripheral/sysanalog/cy_sysanalog.h **** *   </tr>
 133:Generated_Source\PSoC6\pdl\drivers/peripheral/sysanalog/cy_sysanalog.h **** * </table>
 134:Generated_Source\PSoC6\pdl\drivers/peripheral/sysanalog/cy_sysanalog.h **** *
 135:Generated_Source\PSoC6\pdl\drivers/peripheral/sysanalog/cy_sysanalog.h **** * \defgroup group_sysanalog_macros Macros
 136:Generated_Source\PSoC6\pdl\drivers/peripheral/sysanalog/cy_sysanalog.h **** * \defgroup group_sysanalog_functions Functions
 137:Generated_Source\PSoC6\pdl\drivers/peripheral/sysanalog/cy_sysanalog.h **** * \defgroup group_sysanalog_globals Global Variables
 138:Generated_Source\PSoC6\pdl\drivers/peripheral/sysanalog/cy_sysanalog.h **** * \defgroup group_sysanalog_data_structures Data Structures
 139:Generated_Source\PSoC6\pdl\drivers/peripheral/sysanalog/cy_sysanalog.h **** * \defgroup group_sysanalog_enums Enumerated Types
 140:Generated_Source\PSoC6\pdl\drivers/peripheral/sysanalog/cy_sysanalog.h **** */
 141:Generated_Source\PSoC6\pdl\drivers/peripheral/sysanalog/cy_sysanalog.h **** 
 142:Generated_Source\PSoC6\pdl\drivers/peripheral/sysanalog/cy_sysanalog.h **** #if !defined(CY_SYSANALOG_H)
 143:Generated_Source\PSoC6\pdl\drivers/peripheral/sysanalog/cy_sysanalog.h **** #define CY_SYSANALOG_H
 144:Generated_Source\PSoC6\pdl\drivers/peripheral/sysanalog/cy_sysanalog.h **** 
 145:Generated_Source\PSoC6\pdl\drivers/peripheral/sysanalog/cy_sysanalog.h **** #include <stdint.h>
 146:Generated_Source\PSoC6\pdl\drivers/peripheral/sysanalog/cy_sysanalog.h **** #include <stdbool.h>
 147:Generated_Source\PSoC6\pdl\drivers/peripheral/sysanalog/cy_sysanalog.h **** #include <stddef.h>
 148:Generated_Source\PSoC6\pdl\drivers/peripheral/sysanalog/cy_sysanalog.h **** #include "cy_device_headers.h"
 149:Generated_Source\PSoC6\pdl\drivers/peripheral/sysanalog/cy_sysanalog.h **** #include "syslib/cy_syslib.h"
 150:Generated_Source\PSoC6\pdl\drivers/peripheral/sysanalog/cy_sysanalog.h **** #include "syspm/cy_syspm.h"
 151:Generated_Source\PSoC6\pdl\drivers/peripheral/sysanalog/cy_sysanalog.h **** 
ARM GAS  C:\Users\gjl\AppData\Local\Temp\cckcOS93.s 			page 63


 152:Generated_Source\PSoC6\pdl\drivers/peripheral/sysanalog/cy_sysanalog.h **** #ifndef CY_IP_MXS40PASS
 153:Generated_Source\PSoC6\pdl\drivers/peripheral/sysanalog/cy_sysanalog.h ****     #error "The SysAnalog driver is not supported on this device"
 154:Generated_Source\PSoC6\pdl\drivers/peripheral/sysanalog/cy_sysanalog.h **** #endif
 155:Generated_Source\PSoC6\pdl\drivers/peripheral/sysanalog/cy_sysanalog.h **** 
 156:Generated_Source\PSoC6\pdl\drivers/peripheral/sysanalog/cy_sysanalog.h **** #if defined(__cplusplus)
 157:Generated_Source\PSoC6\pdl\drivers/peripheral/sysanalog/cy_sysanalog.h **** extern "C" {
 158:Generated_Source\PSoC6\pdl\drivers/peripheral/sysanalog/cy_sysanalog.h **** #endif
 159:Generated_Source\PSoC6\pdl\drivers/peripheral/sysanalog/cy_sysanalog.h **** 
 160:Generated_Source\PSoC6\pdl\drivers/peripheral/sysanalog/cy_sysanalog.h **** 
 161:Generated_Source\PSoC6\pdl\drivers/peripheral/sysanalog/cy_sysanalog.h **** /** \addtogroup group_sysanalog_macros
 162:Generated_Source\PSoC6\pdl\drivers/peripheral/sysanalog/cy_sysanalog.h **** * \{
 163:Generated_Source\PSoC6\pdl\drivers/peripheral/sysanalog/cy_sysanalog.h **** */
 164:Generated_Source\PSoC6\pdl\drivers/peripheral/sysanalog/cy_sysanalog.h **** 
 165:Generated_Source\PSoC6\pdl\drivers/peripheral/sysanalog/cy_sysanalog.h **** /** Driver major version */
 166:Generated_Source\PSoC6\pdl\drivers/peripheral/sysanalog/cy_sysanalog.h **** #define CY_SYSANALOG_DRV_VERSION_MAJOR          1
 167:Generated_Source\PSoC6\pdl\drivers/peripheral/sysanalog/cy_sysanalog.h **** 
 168:Generated_Source\PSoC6\pdl\drivers/peripheral/sysanalog/cy_sysanalog.h **** /** Driver minor version */
 169:Generated_Source\PSoC6\pdl\drivers/peripheral/sysanalog/cy_sysanalog.h **** #define CY_SYSANALOG_DRV_VERSION_MINOR          0
 170:Generated_Source\PSoC6\pdl\drivers/peripheral/sysanalog/cy_sysanalog.h **** 
 171:Generated_Source\PSoC6\pdl\drivers/peripheral/sysanalog/cy_sysanalog.h **** /** PASS driver identifier */
 172:Generated_Source\PSoC6\pdl\drivers/peripheral/sysanalog/cy_sysanalog.h **** #define CY_SYSANALOG_ID                         CY_PDL_DRV_ID(0x17u)
 173:Generated_Source\PSoC6\pdl\drivers/peripheral/sysanalog/cy_sysanalog.h **** 
 174:Generated_Source\PSoC6\pdl\drivers/peripheral/sysanalog/cy_sysanalog.h **** /** \cond INTERNAL */
 175:Generated_Source\PSoC6\pdl\drivers/peripheral/sysanalog/cy_sysanalog.h **** #define CY_SYSANALOG_DEINIT                     (0uL)   /**< De-init value for PASS register */
 176:Generated_Source\PSoC6\pdl\drivers/peripheral/sysanalog/cy_sysanalog.h **** #define CY_SYSANALOG_DEFAULT_BIAS_SCALE         (1uL << PASS_AREF_AREF_CTRL_AREF_BIAS_SCALE_Pos)   
 177:Generated_Source\PSoC6\pdl\drivers/peripheral/sysanalog/cy_sysanalog.h **** 
 178:Generated_Source\PSoC6\pdl\drivers/peripheral/sysanalog/cy_sysanalog.h **** /**< Macros for conditions used in CY_ASSERT calls */
 179:Generated_Source\PSoC6\pdl\drivers/peripheral/sysanalog/cy_sysanalog.h **** #define CY_SYSANALOG_STARTUP(startup)           (((startup) == CY_SYSANALOG_STARTUP_NORMAL) || ((st
 180:Generated_Source\PSoC6\pdl\drivers/peripheral/sysanalog/cy_sysanalog.h **** #define CY_SYSANALOG_DEEPSLEEP(deepSleep)       (((deepSleep) == CY_SYSANALOG_DEEPSLEEP_DISABLE) \
 181:Generated_Source\PSoC6\pdl\drivers/peripheral/sysanalog/cy_sysanalog.h ****                                                 || ((deepSleep) == CY_SYSANALOG_DEEPSLEEP_IPTAT_1) 
 182:Generated_Source\PSoC6\pdl\drivers/peripheral/sysanalog/cy_sysanalog.h ****                                                 || ((deepSleep) == CY_SYSANALOG_DEEPSLEEP_IPTAT_2) 
 183:Generated_Source\PSoC6\pdl\drivers/peripheral/sysanalog/cy_sysanalog.h ****                                                 || ((deepSleep) == CY_SYSANALOG_DEEPSLEEP_IPTAT_IZT
 184:Generated_Source\PSoC6\pdl\drivers/peripheral/sysanalog/cy_sysanalog.h **** #define CY_SYSANALOG_VREF(vref)                 (((vref) == CY_SYSANALOG_VREF_SOURCE_SRSS) \
 185:Generated_Source\PSoC6\pdl\drivers/peripheral/sysanalog/cy_sysanalog.h ****                                                 || ((vref) == CY_SYSANALOG_VREF_SOURCE_LOCAL_1_2V) 
 186:Generated_Source\PSoC6\pdl\drivers/peripheral/sysanalog/cy_sysanalog.h ****                                                 || ((vref) == CY_SYSANALOG_VREF_SOURCE_EXTERNAL))
 187:Generated_Source\PSoC6\pdl\drivers/peripheral/sysanalog/cy_sysanalog.h **** #define CY_SYSANALOG_IZTAT(iztat)               (((iztat) == CY_SYSANALOG_IZTAT_SOURCE_SRSS) || ((i
 188:Generated_Source\PSoC6\pdl\drivers/peripheral/sysanalog/cy_sysanalog.h **** 
 189:Generated_Source\PSoC6\pdl\drivers/peripheral/sysanalog/cy_sysanalog.h **** /** \endcond */
 190:Generated_Source\PSoC6\pdl\drivers/peripheral/sysanalog/cy_sysanalog.h **** 
 191:Generated_Source\PSoC6\pdl\drivers/peripheral/sysanalog/cy_sysanalog.h **** /** \} group_sysanalog_macros */
 192:Generated_Source\PSoC6\pdl\drivers/peripheral/sysanalog/cy_sysanalog.h **** 
 193:Generated_Source\PSoC6\pdl\drivers/peripheral/sysanalog/cy_sysanalog.h **** /** \addtogroup group_sysanalog_enums
 194:Generated_Source\PSoC6\pdl\drivers/peripheral/sysanalog/cy_sysanalog.h **** * \{
 195:Generated_Source\PSoC6\pdl\drivers/peripheral/sysanalog/cy_sysanalog.h **** */
 196:Generated_Source\PSoC6\pdl\drivers/peripheral/sysanalog/cy_sysanalog.h **** 
 197:Generated_Source\PSoC6\pdl\drivers/peripheral/sysanalog/cy_sysanalog.h **** /******************************************************************************
 198:Generated_Source\PSoC6\pdl\drivers/peripheral/sysanalog/cy_sysanalog.h ****  * Enumerations
 199:Generated_Source\PSoC6\pdl\drivers/peripheral/sysanalog/cy_sysanalog.h ****  *****************************************************************************/
 200:Generated_Source\PSoC6\pdl\drivers/peripheral/sysanalog/cy_sysanalog.h **** 
 201:Generated_Source\PSoC6\pdl\drivers/peripheral/sysanalog/cy_sysanalog.h **** /** The AREF status/error code definitions */
 202:Generated_Source\PSoC6\pdl\drivers/peripheral/sysanalog/cy_sysanalog.h **** typedef enum
 203:Generated_Source\PSoC6\pdl\drivers/peripheral/sysanalog/cy_sysanalog.h **** {
 204:Generated_Source\PSoC6\pdl\drivers/peripheral/sysanalog/cy_sysanalog.h ****     CY_SYSANALOG_SUCCESS    = 0x00uL,                                           /**< Successful */
 205:Generated_Source\PSoC6\pdl\drivers/peripheral/sysanalog/cy_sysanalog.h ****     CY_SYSANALOG_BAD_PARAM  = CY_SYSANALOG_ID | CY_PDL_STATUS_ERROR | 0x01uL    /**< Invalid input 
 206:Generated_Source\PSoC6\pdl\drivers/peripheral/sysanalog/cy_sysanalog.h **** }cy_en_sysanalog_status_t;
 207:Generated_Source\PSoC6\pdl\drivers/peripheral/sysanalog/cy_sysanalog.h **** 
 208:Generated_Source\PSoC6\pdl\drivers/peripheral/sysanalog/cy_sysanalog.h **** /** Aref startup mode from power on reset and from Deep Sleep wakeup
ARM GAS  C:\Users\gjl\AppData\Local\Temp\cckcOS93.s 			page 64


 209:Generated_Source\PSoC6\pdl\drivers/peripheral/sysanalog/cy_sysanalog.h **** *
 210:Generated_Source\PSoC6\pdl\drivers/peripheral/sysanalog/cy_sysanalog.h **** * To achieve the fast startup time (10 us) from Deep Sleep wakeup, the IPTAT generators must be
 211:Generated_Source\PSoC6\pdl\drivers/peripheral/sysanalog/cy_sysanalog.h **** * enabled in Deep Sleep mode (see \ref cy_en_sysanalog_deep_sleep_t).
 212:Generated_Source\PSoC6\pdl\drivers/peripheral/sysanalog/cy_sysanalog.h **** *
 213:Generated_Source\PSoC6\pdl\drivers/peripheral/sysanalog/cy_sysanalog.h **** * The fast startup is the recommended mode.
 214:Generated_Source\PSoC6\pdl\drivers/peripheral/sysanalog/cy_sysanalog.h **** */
 215:Generated_Source\PSoC6\pdl\drivers/peripheral/sysanalog/cy_sysanalog.h **** typedef enum
 216:Generated_Source\PSoC6\pdl\drivers/peripheral/sysanalog/cy_sysanalog.h **** {
 217:Generated_Source\PSoC6\pdl\drivers/peripheral/sysanalog/cy_sysanalog.h ****     CY_SYSANALOG_STARTUP_NORMAL     = 0u,                                           /**< Normal sta
 218:Generated_Source\PSoC6\pdl\drivers/peripheral/sysanalog/cy_sysanalog.h ****     CY_SYSANALOG_STARTUP_FAST       = 1u << PASS_AREF_AREF_CTRL_AREF_MODE_Pos       /**< Fast start
 219:Generated_Source\PSoC6\pdl\drivers/peripheral/sysanalog/cy_sysanalog.h **** }cy_en_sysanalog_startup_t;
 220:Generated_Source\PSoC6\pdl\drivers/peripheral/sysanalog/cy_sysanalog.h **** 
 221:Generated_Source\PSoC6\pdl\drivers/peripheral/sysanalog/cy_sysanalog.h **** /** AREF voltage reference sources
 222:Generated_Source\PSoC6\pdl\drivers/peripheral/sysanalog/cy_sysanalog.h **** *
 223:Generated_Source\PSoC6\pdl\drivers/peripheral/sysanalog/cy_sysanalog.h **** * The voltage reference can come from three sources:
 224:Generated_Source\PSoC6\pdl\drivers/peripheral/sysanalog/cy_sysanalog.h **** *   - the locally generated 1.2 V reference
 225:Generated_Source\PSoC6\pdl\drivers/peripheral/sysanalog/cy_sysanalog.h **** *   - the SRSS which provides a 0.8 V reference (not available in Deep Sleep mode)
 226:Generated_Source\PSoC6\pdl\drivers/peripheral/sysanalog/cy_sysanalog.h **** *   - an external device pin
 227:Generated_Source\PSoC6\pdl\drivers/peripheral/sysanalog/cy_sysanalog.h **** */
 228:Generated_Source\PSoC6\pdl\drivers/peripheral/sysanalog/cy_sysanalog.h **** typedef enum
 229:Generated_Source\PSoC6\pdl\drivers/peripheral/sysanalog/cy_sysanalog.h **** {
 230:Generated_Source\PSoC6\pdl\drivers/peripheral/sysanalog/cy_sysanalog.h ****     CY_SYSANALOG_VREF_SOURCE_SRSS        = 0u,                                         /**< Use 0.8
 231:Generated_Source\PSoC6\pdl\drivers/peripheral/sysanalog/cy_sysanalog.h ****     CY_SYSANALOG_VREF_SOURCE_LOCAL_1_2V  = 1u << PASS_AREF_AREF_CTRL_VREF_SEL_Pos,     /**< Use loc
 232:Generated_Source\PSoC6\pdl\drivers/peripheral/sysanalog/cy_sysanalog.h ****     CY_SYSANALOG_VREF_SOURCE_EXTERNAL    = 2u << PASS_AREF_AREF_CTRL_VREF_SEL_Pos      /**< Use ext
 233:Generated_Source\PSoC6\pdl\drivers/peripheral/sysanalog/cy_sysanalog.h **** }cy_en_sysanalog_vref_source_t;
 234:Generated_Source\PSoC6\pdl\drivers/peripheral/sysanalog/cy_sysanalog.h **** 
 235:Generated_Source\PSoC6\pdl\drivers/peripheral/sysanalog/cy_sysanalog.h **** 
 236:Generated_Source\PSoC6\pdl\drivers/peripheral/sysanalog/cy_sysanalog.h **** /** AREF IZTAT sources
 237:Generated_Source\PSoC6\pdl\drivers/peripheral/sysanalog/cy_sysanalog.h **** *
 238:Generated_Source\PSoC6\pdl\drivers/peripheral/sysanalog/cy_sysanalog.h **** * The AREF generates a 1 uA "Zero dependency To Absolute Temperature" (IZTAT) current reference
 239:Generated_Source\PSoC6\pdl\drivers/peripheral/sysanalog/cy_sysanalog.h **** * that is independent of temperature variations. It can come from one of two sources:
 240:Generated_Source\PSoC6\pdl\drivers/peripheral/sysanalog/cy_sysanalog.h **** *   - Local reference (1 uA)
 241:Generated_Source\PSoC6\pdl\drivers/peripheral/sysanalog/cy_sysanalog.h **** *   - Reference from the SRSS (250 nA that is gained by 4. Not available in Deep Sleep mode)
 242:Generated_Source\PSoC6\pdl\drivers/peripheral/sysanalog/cy_sysanalog.h **** */
 243:Generated_Source\PSoC6\pdl\drivers/peripheral/sysanalog/cy_sysanalog.h **** typedef enum
 244:Generated_Source\PSoC6\pdl\drivers/peripheral/sysanalog/cy_sysanalog.h **** {
 245:Generated_Source\PSoC6\pdl\drivers/peripheral/sysanalog/cy_sysanalog.h ****     CY_SYSANALOG_IZTAT_SOURCE_SRSS       = 0u,                                         /**< Use 250
 246:Generated_Source\PSoC6\pdl\drivers/peripheral/sysanalog/cy_sysanalog.h ****     CY_SYSANALOG_IZTAT_SOURCE_LOCAL      = 1u << PASS_AREF_AREF_CTRL_IZTAT_SEL_Pos     /**< Use loc
 247:Generated_Source\PSoC6\pdl\drivers/peripheral/sysanalog/cy_sysanalog.h **** }cy_en_sysanalog_iztat_source_t;
 248:Generated_Source\PSoC6\pdl\drivers/peripheral/sysanalog/cy_sysanalog.h **** 
 249:Generated_Source\PSoC6\pdl\drivers/peripheral/sysanalog/cy_sysanalog.h **** /** AREF Deep Sleep mode
 250:Generated_Source\PSoC6\pdl\drivers/peripheral/sysanalog/cy_sysanalog.h **** *
 251:Generated_Source\PSoC6\pdl\drivers/peripheral/sysanalog/cy_sysanalog.h **** * Configure what part of the AREF block is enabled in Deep Sleep mode.
 252:Generated_Source\PSoC6\pdl\drivers/peripheral/sysanalog/cy_sysanalog.h **** *   - Disable AREF IP block
 253:Generated_Source\PSoC6\pdl\drivers/peripheral/sysanalog/cy_sysanalog.h **** *   - Enable IPTAT generator for fast wakeup from Deep Sleep mode.
 254:Generated_Source\PSoC6\pdl\drivers/peripheral/sysanalog/cy_sysanalog.h **** *     IPTAT outputs for CTBs are disabled.
 255:Generated_Source\PSoC6\pdl\drivers/peripheral/sysanalog/cy_sysanalog.h **** *   - Enable IPTAT generator and IPTAT outputs for CTB
 256:Generated_Source\PSoC6\pdl\drivers/peripheral/sysanalog/cy_sysanalog.h **** *   - Enable all generators and outputs: IPTAT, IZTAT, and VREF
 257:Generated_Source\PSoC6\pdl\drivers/peripheral/sysanalog/cy_sysanalog.h **** */
 258:Generated_Source\PSoC6\pdl\drivers/peripheral/sysanalog/cy_sysanalog.h **** typedef enum
 259:Generated_Source\PSoC6\pdl\drivers/peripheral/sysanalog/cy_sysanalog.h **** {
 260:Generated_Source\PSoC6\pdl\drivers/peripheral/sysanalog/cy_sysanalog.h ****     CY_SYSANALOG_DEEPSLEEP_DISABLE             = 0u,                                               
 261:Generated_Source\PSoC6\pdl\drivers/peripheral/sysanalog/cy_sysanalog.h ****     CY_SYSANALOG_DEEPSLEEP_IPTAT_1             = PASS_AREF_AREF_CTRL_DEEPSLEEP_ON_Msk | \
 262:Generated_Source\PSoC6\pdl\drivers/peripheral/sysanalog/cy_sysanalog.h ****                                                  (1uL << PASS_AREF_AREF_CTRL_DEEPSLEEP_MODE_Pos),  
 263:Generated_Source\PSoC6\pdl\drivers/peripheral/sysanalog/cy_sysanalog.h ****                                                                                                    
 264:Generated_Source\PSoC6\pdl\drivers/peripheral/sysanalog/cy_sysanalog.h ****     CY_SYSANALOG_DEEPSLEEP_IPTAT_2             = PASS_AREF_AREF_CTRL_DEEPSLEEP_ON_Msk | \
 265:Generated_Source\PSoC6\pdl\drivers/peripheral/sysanalog/cy_sysanalog.h ****                                                  (2uL << PASS_AREF_AREF_CTRL_DEEPSLEEP_MODE_Pos),  
ARM GAS  C:\Users\gjl\AppData\Local\Temp\cckcOS93.s 			page 65


 266:Generated_Source\PSoC6\pdl\drivers/peripheral/sysanalog/cy_sysanalog.h ****     CY_SYSANALOG_DEEPSLEEP_IPTAT_IZTAT_VREF    = PASS_AREF_AREF_CTRL_DEEPSLEEP_ON_Msk | \
 267:Generated_Source\PSoC6\pdl\drivers/peripheral/sysanalog/cy_sysanalog.h ****                                                  (3uL << PASS_AREF_AREF_CTRL_DEEPSLEEP_MODE_Pos)   
 268:Generated_Source\PSoC6\pdl\drivers/peripheral/sysanalog/cy_sysanalog.h **** }cy_en_sysanalog_deep_sleep_t;
 269:Generated_Source\PSoC6\pdl\drivers/peripheral/sysanalog/cy_sysanalog.h **** 
 270:Generated_Source\PSoC6\pdl\drivers/peripheral/sysanalog/cy_sysanalog.h **** /** Interrupt cause sources
 271:Generated_Source\PSoC6\pdl\drivers/peripheral/sysanalog/cy_sysanalog.h **** *
 272:Generated_Source\PSoC6\pdl\drivers/peripheral/sysanalog/cy_sysanalog.h **** * There are two interrupts in the PASS:
 273:Generated_Source\PSoC6\pdl\drivers/peripheral/sysanalog/cy_sysanalog.h **** *   -# one global interrupt for all CTBs
 274:Generated_Source\PSoC6\pdl\drivers/peripheral/sysanalog/cy_sysanalog.h **** *   -# one global interrupt for all CTDACs
 275:Generated_Source\PSoC6\pdl\drivers/peripheral/sysanalog/cy_sysanalog.h **** *
 276:Generated_Source\PSoC6\pdl\drivers/peripheral/sysanalog/cy_sysanalog.h **** * A device could potentially have more than one instance of each IP block,
 277:Generated_Source\PSoC6\pdl\drivers/peripheral/sysanalog/cy_sysanalog.h **** * CTB or CTDAC. To find out which instance
 278:Generated_Source\PSoC6\pdl\drivers/peripheral/sysanalog/cy_sysanalog.h **** * caused the interrupt, call \ref Cy_SysAnalog_GetIntrCause and compare the returned
 279:Generated_Source\PSoC6\pdl\drivers/peripheral/sysanalog/cy_sysanalog.h **** * result with one of these enum values.
 280:Generated_Source\PSoC6\pdl\drivers/peripheral/sysanalog/cy_sysanalog.h **** */
 281:Generated_Source\PSoC6\pdl\drivers/peripheral/sysanalog/cy_sysanalog.h **** typedef enum
 282:Generated_Source\PSoC6\pdl\drivers/peripheral/sysanalog/cy_sysanalog.h **** {
 283:Generated_Source\PSoC6\pdl\drivers/peripheral/sysanalog/cy_sysanalog.h ****     CY_SYSANALOG_INTR_CAUSE_CTB0         = PASS_INTR_CAUSE_CTB0_INT_Msk,         /**< Interrupt cau
 284:Generated_Source\PSoC6\pdl\drivers/peripheral/sysanalog/cy_sysanalog.h ****     CY_SYSANALOG_INTR_CAUSE_CTB1         = PASS_INTR_CAUSE_CTB1_INT_Msk,         /**< Interrupt cau
 285:Generated_Source\PSoC6\pdl\drivers/peripheral/sysanalog/cy_sysanalog.h ****     CY_SYSANALOG_INTR_CAUSE_CTB2         = PASS_INTR_CAUSE_CTB2_INT_Msk,         /**< Interrupt cau
 286:Generated_Source\PSoC6\pdl\drivers/peripheral/sysanalog/cy_sysanalog.h ****     CY_SYSANALOG_INTR_CAUSE_CTB3         = PASS_INTR_CAUSE_CTB3_INT_Msk,         /**< Interrupt cau
 287:Generated_Source\PSoC6\pdl\drivers/peripheral/sysanalog/cy_sysanalog.h ****     CY_SYSANALOG_INTR_CAUSE_CTDAC0       = PASS_INTR_CAUSE_CTDAC0_INT_Msk,       /**< Interrupt cau
 288:Generated_Source\PSoC6\pdl\drivers/peripheral/sysanalog/cy_sysanalog.h ****     CY_SYSANALOG_INTR_CAUSE_CTDAC1       = PASS_INTR_CAUSE_CTDAC1_INT_Msk,       /**< Interrupt cau
 289:Generated_Source\PSoC6\pdl\drivers/peripheral/sysanalog/cy_sysanalog.h ****     CY_SYSANALOG_INTR_CAUSE_CTDAC2       = PASS_INTR_CAUSE_CTDAC2_INT_Msk,       /**< Interrupt cau
 290:Generated_Source\PSoC6\pdl\drivers/peripheral/sysanalog/cy_sysanalog.h ****     CY_SYSANALOG_INTR_CAUSE_CTDAC3       = PASS_INTR_CAUSE_CTDAC3_INT_Msk        /**< Interrupt cau
 291:Generated_Source\PSoC6\pdl\drivers/peripheral/sysanalog/cy_sysanalog.h **** }cy_en_sysanalog_intr_cause_t;
 292:Generated_Source\PSoC6\pdl\drivers/peripheral/sysanalog/cy_sysanalog.h **** 
 293:Generated_Source\PSoC6\pdl\drivers/peripheral/sysanalog/cy_sysanalog.h **** /** \} group_sysanalog_enums */
 294:Generated_Source\PSoC6\pdl\drivers/peripheral/sysanalog/cy_sysanalog.h **** 
 295:Generated_Source\PSoC6\pdl\drivers/peripheral/sysanalog/cy_sysanalog.h **** /** \addtogroup group_sysanalog_data_structures
 296:Generated_Source\PSoC6\pdl\drivers/peripheral/sysanalog/cy_sysanalog.h **** * \{
 297:Generated_Source\PSoC6\pdl\drivers/peripheral/sysanalog/cy_sysanalog.h **** */
 298:Generated_Source\PSoC6\pdl\drivers/peripheral/sysanalog/cy_sysanalog.h **** 
 299:Generated_Source\PSoC6\pdl\drivers/peripheral/sysanalog/cy_sysanalog.h **** /***************************************
 300:Generated_Source\PSoC6\pdl\drivers/peripheral/sysanalog/cy_sysanalog.h **** *       Configuration Structures
 301:Generated_Source\PSoC6\pdl\drivers/peripheral/sysanalog/cy_sysanalog.h **** ***************************************/
 302:Generated_Source\PSoC6\pdl\drivers/peripheral/sysanalog/cy_sysanalog.h **** 
 303:Generated_Source\PSoC6\pdl\drivers/peripheral/sysanalog/cy_sysanalog.h **** /** Structure to configure the entire AREF block */
 304:Generated_Source\PSoC6\pdl\drivers/peripheral/sysanalog/cy_sysanalog.h **** typedef struct
 305:Generated_Source\PSoC6\pdl\drivers/peripheral/sysanalog/cy_sysanalog.h **** {
 306:Generated_Source\PSoC6\pdl\drivers/peripheral/sysanalog/cy_sysanalog.h ****     cy_en_sysanalog_startup_t               startup;   /**< AREF normal or fast start */
 307:Generated_Source\PSoC6\pdl\drivers/peripheral/sysanalog/cy_sysanalog.h ****     cy_en_sysanalog_iztat_source_t          iztat;     /**< AREF 1uA IZTAT source: Local or SRSS */
 308:Generated_Source\PSoC6\pdl\drivers/peripheral/sysanalog/cy_sysanalog.h ****     cy_en_sysanalog_vref_source_t           vref;      /**< AREF Vref: Local, SRSS, or external pin
 309:Generated_Source\PSoC6\pdl\drivers/peripheral/sysanalog/cy_sysanalog.h ****     cy_en_sysanalog_deep_sleep_t            deepSleep; /**< AREF Deep Sleep mode */
 310:Generated_Source\PSoC6\pdl\drivers/peripheral/sysanalog/cy_sysanalog.h **** }cy_stc_sysanalog_config_t;
 311:Generated_Source\PSoC6\pdl\drivers/peripheral/sysanalog/cy_sysanalog.h **** 
 312:Generated_Source\PSoC6\pdl\drivers/peripheral/sysanalog/cy_sysanalog.h **** /** \} group_sysanalog_data_structures */
 313:Generated_Source\PSoC6\pdl\drivers/peripheral/sysanalog/cy_sysanalog.h **** 
 314:Generated_Source\PSoC6\pdl\drivers/peripheral/sysanalog/cy_sysanalog.h **** /** \addtogroup group_sysanalog_globals
 315:Generated_Source\PSoC6\pdl\drivers/peripheral/sysanalog/cy_sysanalog.h **** * \{
 316:Generated_Source\PSoC6\pdl\drivers/peripheral/sysanalog/cy_sysanalog.h **** */
 317:Generated_Source\PSoC6\pdl\drivers/peripheral/sysanalog/cy_sysanalog.h **** /***************************************
 318:Generated_Source\PSoC6\pdl\drivers/peripheral/sysanalog/cy_sysanalog.h **** *        Global Constants
 319:Generated_Source\PSoC6\pdl\drivers/peripheral/sysanalog/cy_sysanalog.h **** ***************************************/
 320:Generated_Source\PSoC6\pdl\drivers/peripheral/sysanalog/cy_sysanalog.h **** 
 321:Generated_Source\PSoC6\pdl\drivers/peripheral/sysanalog/cy_sysanalog.h **** /** Configure the AREF to use the local Vref and local IZTAT. Can be used with \ref Cy_SysAnalog_In
 322:Generated_Source\PSoC6\pdl\drivers/peripheral/sysanalog/cy_sysanalog.h **** * Other configuration options are set to:
ARM GAS  C:\Users\gjl\AppData\Local\Temp\cckcOS93.s 			page 66


 323:Generated_Source\PSoC6\pdl\drivers/peripheral/sysanalog/cy_sysanalog.h **** *   - .startup          = CY_PASS_AREF_MODE_FAST
 324:Generated_Source\PSoC6\pdl\drivers/peripheral/sysanalog/cy_sysanalog.h **** *   - .deepSleep        = CY_PASS_AREF_DEEPSLEEP_DISABLE
 325:Generated_Source\PSoC6\pdl\drivers/peripheral/sysanalog/cy_sysanalog.h **** */
 326:Generated_Source\PSoC6\pdl\drivers/peripheral/sysanalog/cy_sysanalog.h **** extern const cy_stc_sysanalog_config_t Cy_SysAnalog_Fast_Local;
 327:Generated_Source\PSoC6\pdl\drivers/peripheral/sysanalog/cy_sysanalog.h **** 
 328:Generated_Source\PSoC6\pdl\drivers/peripheral/sysanalog/cy_sysanalog.h **** /** Configure the AREF to use the SRSS Vref and SRSS IZTAT. Can be used with \ref Cy_SysAnalog_Init
 329:Generated_Source\PSoC6\pdl\drivers/peripheral/sysanalog/cy_sysanalog.h **** * Other configuration options are set to:
 330:Generated_Source\PSoC6\pdl\drivers/peripheral/sysanalog/cy_sysanalog.h **** *   - .startup          = CY_PASS_AREF_MODE_FAST
 331:Generated_Source\PSoC6\pdl\drivers/peripheral/sysanalog/cy_sysanalog.h **** *   - .deepSleep        = CY_PASS_AREF_DEEPSLEEP_DISABLE
 332:Generated_Source\PSoC6\pdl\drivers/peripheral/sysanalog/cy_sysanalog.h **** */
 333:Generated_Source\PSoC6\pdl\drivers/peripheral/sysanalog/cy_sysanalog.h **** extern const cy_stc_sysanalog_config_t Cy_SysAnalog_Fast_SRSS;
 334:Generated_Source\PSoC6\pdl\drivers/peripheral/sysanalog/cy_sysanalog.h **** 
 335:Generated_Source\PSoC6\pdl\drivers/peripheral/sysanalog/cy_sysanalog.h **** /** Configure the AREF to use the external Vref and local IZTAT. Can be used with \ref Cy_SysAnalog
 336:Generated_Source\PSoC6\pdl\drivers/peripheral/sysanalog/cy_sysanalog.h **** * Other configuration options are set to:
 337:Generated_Source\PSoC6\pdl\drivers/peripheral/sysanalog/cy_sysanalog.h **** *   - .startup          = CY_PASS_AREF_MODE_FAST
 338:Generated_Source\PSoC6\pdl\drivers/peripheral/sysanalog/cy_sysanalog.h **** *   - .deepSleep        = CY_PASS_AREF_DEEPSLEEP_DISABLE
 339:Generated_Source\PSoC6\pdl\drivers/peripheral/sysanalog/cy_sysanalog.h **** */
 340:Generated_Source\PSoC6\pdl\drivers/peripheral/sysanalog/cy_sysanalog.h **** extern const cy_stc_sysanalog_config_t Cy_SysAnalog_Fast_External;
 341:Generated_Source\PSoC6\pdl\drivers/peripheral/sysanalog/cy_sysanalog.h **** 
 342:Generated_Source\PSoC6\pdl\drivers/peripheral/sysanalog/cy_sysanalog.h **** /** \} group_sysanalog_globals */
 343:Generated_Source\PSoC6\pdl\drivers/peripheral/sysanalog/cy_sysanalog.h **** 
 344:Generated_Source\PSoC6\pdl\drivers/peripheral/sysanalog/cy_sysanalog.h **** /** \addtogroup group_sysanalog_functions
 345:Generated_Source\PSoC6\pdl\drivers/peripheral/sysanalog/cy_sysanalog.h **** * \{
 346:Generated_Source\PSoC6\pdl\drivers/peripheral/sysanalog/cy_sysanalog.h **** */
 347:Generated_Source\PSoC6\pdl\drivers/peripheral/sysanalog/cy_sysanalog.h **** 
 348:Generated_Source\PSoC6\pdl\drivers/peripheral/sysanalog/cy_sysanalog.h **** /***************************************
 349:Generated_Source\PSoC6\pdl\drivers/peripheral/sysanalog/cy_sysanalog.h **** *        Function Prototypes
 350:Generated_Source\PSoC6\pdl\drivers/peripheral/sysanalog/cy_sysanalog.h **** ***************************************/
 351:Generated_Source\PSoC6\pdl\drivers/peripheral/sysanalog/cy_sysanalog.h **** 
 352:Generated_Source\PSoC6\pdl\drivers/peripheral/sysanalog/cy_sysanalog.h **** cy_en_sysanalog_status_t Cy_SysAnalog_Init(const cy_stc_sysanalog_config_t *config);
 353:Generated_Source\PSoC6\pdl\drivers/peripheral/sysanalog/cy_sysanalog.h **** __STATIC_INLINE void Cy_SysAnalog_DeInit(void);
 354:Generated_Source\PSoC6\pdl\drivers/peripheral/sysanalog/cy_sysanalog.h **** __STATIC_INLINE uint32_t Cy_SysAnalog_GetIntrCause(void);
 355:Generated_Source\PSoC6\pdl\drivers/peripheral/sysanalog/cy_sysanalog.h **** __STATIC_INLINE void Cy_SysAnalog_SetDeepSleepMode(cy_en_sysanalog_deep_sleep_t deepSleep);
 356:Generated_Source\PSoC6\pdl\drivers/peripheral/sysanalog/cy_sysanalog.h **** __STATIC_INLINE cy_en_sysanalog_deep_sleep_t Cy_SysAnalog_GetDeepSleepMode(void);
 357:Generated_Source\PSoC6\pdl\drivers/peripheral/sysanalog/cy_sysanalog.h **** __STATIC_INLINE void Cy_SysAnalog_Enable(void);
 358:Generated_Source\PSoC6\pdl\drivers/peripheral/sysanalog/cy_sysanalog.h **** __STATIC_INLINE void Cy_SysAnalog_Disable(void);
 359:Generated_Source\PSoC6\pdl\drivers/peripheral/sysanalog/cy_sysanalog.h **** __STATIC_INLINE void Cy_SysAnalog_SetArefMode(cy_en_sysanalog_startup_t startup);
 360:Generated_Source\PSoC6\pdl\drivers/peripheral/sysanalog/cy_sysanalog.h **** __STATIC_INLINE void Cy_SysAnalog_VrefSelect(cy_en_sysanalog_vref_source_t vref);
 361:Generated_Source\PSoC6\pdl\drivers/peripheral/sysanalog/cy_sysanalog.h **** __STATIC_INLINE void Cy_SysAnalog_IztatSelect(cy_en_sysanalog_iztat_source_t iztat);
 362:Generated_Source\PSoC6\pdl\drivers/peripheral/sysanalog/cy_sysanalog.h **** 
 363:Generated_Source\PSoC6\pdl\drivers/peripheral/sysanalog/cy_sysanalog.h **** /*******************************************************************************
 364:Generated_Source\PSoC6\pdl\drivers/peripheral/sysanalog/cy_sysanalog.h **** * Function Name: Cy_SysAnalog_DeInit
 365:Generated_Source\PSoC6\pdl\drivers/peripheral/sysanalog/cy_sysanalog.h **** ****************************************************************************//**
 366:Generated_Source\PSoC6\pdl\drivers/peripheral/sysanalog/cy_sysanalog.h **** *
 367:Generated_Source\PSoC6\pdl\drivers/peripheral/sysanalog/cy_sysanalog.h **** * Reset AREF configuration back to power on reset defaults.
 368:Generated_Source\PSoC6\pdl\drivers/peripheral/sysanalog/cy_sysanalog.h **** *
 369:Generated_Source\PSoC6\pdl\drivers/peripheral/sysanalog/cy_sysanalog.h **** * \return None
 370:Generated_Source\PSoC6\pdl\drivers/peripheral/sysanalog/cy_sysanalog.h **** *
 371:Generated_Source\PSoC6\pdl\drivers/peripheral/sysanalog/cy_sysanalog.h **** * \funcusage
 372:Generated_Source\PSoC6\pdl\drivers/peripheral/sysanalog/cy_sysanalog.h **** *
 373:Generated_Source\PSoC6\pdl\drivers/peripheral/sysanalog/cy_sysanalog.h **** * \snippet sysanalog_sut_01.cydsn/main_cm0p.c SYSANA_SNIPPET_DEINIT
 374:Generated_Source\PSoC6\pdl\drivers/peripheral/sysanalog/cy_sysanalog.h **** *
 375:Generated_Source\PSoC6\pdl\drivers/peripheral/sysanalog/cy_sysanalog.h **** *******************************************************************************/
 376:Generated_Source\PSoC6\pdl\drivers/peripheral/sysanalog/cy_sysanalog.h **** __STATIC_INLINE void Cy_SysAnalog_DeInit(void)
 377:Generated_Source\PSoC6\pdl\drivers/peripheral/sysanalog/cy_sysanalog.h **** {
 378:Generated_Source\PSoC6\pdl\drivers/peripheral/sysanalog/cy_sysanalog.h ****     PASS_AREF->AREF_CTRL = CY_SYSANALOG_DEINIT;
 379:Generated_Source\PSoC6\pdl\drivers/peripheral/sysanalog/cy_sysanalog.h **** }
ARM GAS  C:\Users\gjl\AppData\Local\Temp\cckcOS93.s 			page 67


 380:Generated_Source\PSoC6\pdl\drivers/peripheral/sysanalog/cy_sysanalog.h **** 
 381:Generated_Source\PSoC6\pdl\drivers/peripheral/sysanalog/cy_sysanalog.h **** /*******************************************************************************
 382:Generated_Source\PSoC6\pdl\drivers/peripheral/sysanalog/cy_sysanalog.h **** * Function Name: Cy_SysAnalog_GetIntrCause
 383:Generated_Source\PSoC6\pdl\drivers/peripheral/sysanalog/cy_sysanalog.h **** ****************************************************************************//**
 384:Generated_Source\PSoC6\pdl\drivers/peripheral/sysanalog/cy_sysanalog.h **** *
 385:Generated_Source\PSoC6\pdl\drivers/peripheral/sysanalog/cy_sysanalog.h **** * Return the PASS interrupt cause register value.
 386:Generated_Source\PSoC6\pdl\drivers/peripheral/sysanalog/cy_sysanalog.h **** *
 387:Generated_Source\PSoC6\pdl\drivers/peripheral/sysanalog/cy_sysanalog.h **** * There are two interrupts in the PASS:
 388:Generated_Source\PSoC6\pdl\drivers/peripheral/sysanalog/cy_sysanalog.h **** *   -# A global interrupt for all CTBs (up to 4)
 389:Generated_Source\PSoC6\pdl\drivers/peripheral/sysanalog/cy_sysanalog.h **** *   -# A global interrupt for all CTDACs (up to 4)
 390:Generated_Source\PSoC6\pdl\drivers/peripheral/sysanalog/cy_sysanalog.h **** *
 391:Generated_Source\PSoC6\pdl\drivers/peripheral/sysanalog/cy_sysanalog.h **** * Compare this returned value with the enum values in \ref cy_en_sysanalog_intr_cause_t
 392:Generated_Source\PSoC6\pdl\drivers/peripheral/sysanalog/cy_sysanalog.h **** * to determine which block caused/triggered the interrupt.
 393:Generated_Source\PSoC6\pdl\drivers/peripheral/sysanalog/cy_sysanalog.h **** *
 394:Generated_Source\PSoC6\pdl\drivers/peripheral/sysanalog/cy_sysanalog.h **** * \return uint32_t
 395:Generated_Source\PSoC6\pdl\drivers/peripheral/sysanalog/cy_sysanalog.h **** * Interrupt cause register value.
 396:Generated_Source\PSoC6\pdl\drivers/peripheral/sysanalog/cy_sysanalog.h **** *
 397:Generated_Source\PSoC6\pdl\drivers/peripheral/sysanalog/cy_sysanalog.h **** * \funcusage
 398:Generated_Source\PSoC6\pdl\drivers/peripheral/sysanalog/cy_sysanalog.h **** *
 399:Generated_Source\PSoC6\pdl\drivers/peripheral/sysanalog/cy_sysanalog.h **** * \snippet sysanalog_sut_01.cydsn/main_cm0p.c SYSANA_SNIPPET_GET_INTR_CAUSE
 400:Generated_Source\PSoC6\pdl\drivers/peripheral/sysanalog/cy_sysanalog.h **** *
 401:Generated_Source\PSoC6\pdl\drivers/peripheral/sysanalog/cy_sysanalog.h **** *******************************************************************************/
 402:Generated_Source\PSoC6\pdl\drivers/peripheral/sysanalog/cy_sysanalog.h **** __STATIC_INLINE uint32_t Cy_SysAnalog_GetIntrCause(void)
 403:Generated_Source\PSoC6\pdl\drivers/peripheral/sysanalog/cy_sysanalog.h **** {
 404:Generated_Source\PSoC6\pdl\drivers/peripheral/sysanalog/cy_sysanalog.h ****     return PASS->INTR_CAUSE;
 405:Generated_Source\PSoC6\pdl\drivers/peripheral/sysanalog/cy_sysanalog.h **** }
 406:Generated_Source\PSoC6\pdl\drivers/peripheral/sysanalog/cy_sysanalog.h **** 
 407:Generated_Source\PSoC6\pdl\drivers/peripheral/sysanalog/cy_sysanalog.h **** /*******************************************************************************
 408:Generated_Source\PSoC6\pdl\drivers/peripheral/sysanalog/cy_sysanalog.h **** * Function Name: Cy_SysAnalog_SetDeepSleepMode
 409:Generated_Source\PSoC6\pdl\drivers/peripheral/sysanalog/cy_sysanalog.h **** ****************************************************************************//**
 410:Generated_Source\PSoC6\pdl\drivers/peripheral/sysanalog/cy_sysanalog.h **** *
 411:Generated_Source\PSoC6\pdl\drivers/peripheral/sysanalog/cy_sysanalog.h **** * Set what parts of the AREF are enabled in Deep Sleep mode.
 412:Generated_Source\PSoC6\pdl\drivers/peripheral/sysanalog/cy_sysanalog.h **** *   - Disable AREF IP block
 413:Generated_Source\PSoC6\pdl\drivers/peripheral/sysanalog/cy_sysanalog.h **** *   - Enable IPTAT generator for fast wakeup from Deep Sleep mode.
 414:Generated_Source\PSoC6\pdl\drivers/peripheral/sysanalog/cy_sysanalog.h **** *     IPTAT outputs for CTBs are disabled.
 415:Generated_Source\PSoC6\pdl\drivers/peripheral/sysanalog/cy_sysanalog.h **** *   - Enable IPTAT generator and IPTAT outputs for CTB
 416:Generated_Source\PSoC6\pdl\drivers/peripheral/sysanalog/cy_sysanalog.h **** *   - Enable all generators and outputs: IPTAT, IZTAT, and VREF
 417:Generated_Source\PSoC6\pdl\drivers/peripheral/sysanalog/cy_sysanalog.h **** *
 418:Generated_Source\PSoC6\pdl\drivers/peripheral/sysanalog/cy_sysanalog.h **** * \note
 419:Generated_Source\PSoC6\pdl\drivers/peripheral/sysanalog/cy_sysanalog.h **** * The SRSS references are not available to the AREF in Deep Sleep mode. When operating
 420:Generated_Source\PSoC6\pdl\drivers/peripheral/sysanalog/cy_sysanalog.h **** * in Deep Sleep mode, the local or external references must be selected.
 421:Generated_Source\PSoC6\pdl\drivers/peripheral/sysanalog/cy_sysanalog.h **** *
 422:Generated_Source\PSoC6\pdl\drivers/peripheral/sysanalog/cy_sysanalog.h **** * \param deepSleep
 423:Generated_Source\PSoC6\pdl\drivers/peripheral/sysanalog/cy_sysanalog.h **** * Select a value from \ref cy_en_sysanalog_deep_sleep_t
 424:Generated_Source\PSoC6\pdl\drivers/peripheral/sysanalog/cy_sysanalog.h **** *
 425:Generated_Source\PSoC6\pdl\drivers/peripheral/sysanalog/cy_sysanalog.h **** * \return None
 426:Generated_Source\PSoC6\pdl\drivers/peripheral/sysanalog/cy_sysanalog.h **** *
 427:Generated_Source\PSoC6\pdl\drivers/peripheral/sysanalog/cy_sysanalog.h **** * \funcusage
 428:Generated_Source\PSoC6\pdl\drivers/peripheral/sysanalog/cy_sysanalog.h **** *
 429:Generated_Source\PSoC6\pdl\drivers/peripheral/sysanalog/cy_sysanalog.h **** * \snippet sysanalog_sut_01.cydsn/main_cm0p.c SYSANA_SNIPPET_SET_DEEPSLEEP_MODE
 430:Generated_Source\PSoC6\pdl\drivers/peripheral/sysanalog/cy_sysanalog.h **** *
 431:Generated_Source\PSoC6\pdl\drivers/peripheral/sysanalog/cy_sysanalog.h **** *******************************************************************************/
 432:Generated_Source\PSoC6\pdl\drivers/peripheral/sysanalog/cy_sysanalog.h **** __STATIC_INLINE void Cy_SysAnalog_SetDeepSleepMode(cy_en_sysanalog_deep_sleep_t deepSleep)
 433:Generated_Source\PSoC6\pdl\drivers/peripheral/sysanalog/cy_sysanalog.h **** {
 434:Generated_Source\PSoC6\pdl\drivers/peripheral/sysanalog/cy_sysanalog.h ****     CY_ASSERT_L3(CY_SYSANALOG_DEEPSLEEP(deepSleep));
 435:Generated_Source\PSoC6\pdl\drivers/peripheral/sysanalog/cy_sysanalog.h **** 
 436:Generated_Source\PSoC6\pdl\drivers/peripheral/sysanalog/cy_sysanalog.h ****     PASS_AREF->AREF_CTRL = (PASS_AREF->AREF_CTRL & ~(PASS_AREF_AREF_CTRL_DEEPSLEEP_ON_Msk | PASS_AR
ARM GAS  C:\Users\gjl\AppData\Local\Temp\cckcOS93.s 			page 68


 1199              		.loc 3 436 0
 1200 0048 214B     		ldr	r3, .L122+4
 1201 004a 1A68     		ldr	r2, [r3]
 1202 004c 42F0E042 		orr	r2, r2, #1879048192
 1203 0050 1A60     		str	r2, [r3]
 1204              	.LVL93:
 1205              	.LBE25:
 1206              	.LBE24:
 1207              	.LBB26:
 1208              	.LBB27:
1403:Generated_Source\PSoC6\pdl\drivers\peripheral\ctb/cy_ctb.h **** }
 1209              		.loc 2 1403 0
 1210 0052 1A68     		ldr	r2, [r3]
 1211 0054 22F08002 		bic	r2, r2, #128
 1212 0058 1A60     		str	r2, [r3]
 1213              	.LVL94:
 1214              	.LBE27:
 1215              	.LBE26:
 1216              	.LBB28:
 1217              	.LBB29:
 1218              		.loc 2 1494 0
 1219 005a 1A68     		ldr	r2, [r3]
 1220 005c 22F47F42 		bic	r2, r2, #65280
 1221 0060 1A60     		str	r2, [r3]
 1222              	.LBE29:
 1223              	.LBE28:
 599:Generated_Source\PSoC6\pdl\drivers\peripheral\ctb/cy_ctb.c **** 
 1224              		.loc 1 599 0
 1225 0062 4FF08041 		mov	r1, #1073741824
 1226 0066 2046     		mov	r0, r4
 1227 0068 FFF7FEFF 		bl	Cy_CTB_SetDeepSleepMode
 1228              	.LVL95:
 602:Generated_Source\PSoC6\pdl\drivers\peripheral\ctb/cy_ctb.c **** 
 1229              		.loc 1 602 0
 1230 006c 6368     		ldr	r3, [r4, #4]
 1231 006e 23F40063 		bic	r3, r3, #2048
 1232 0072 6360     		str	r3, [r4, #4]
 605:Generated_Source\PSoC6\pdl\drivers\peripheral\ctb/cy_ctb.c **** 
 1233              		.loc 1 605 0
 1234 0074 A368     		ldr	r3, [r4, #8]
 1235 0076 23F40063 		bic	r3, r3, #2048
 1236 007a A360     		str	r3, [r4, #8]
 607:Generated_Source\PSoC6\pdl\drivers\peripheral\ctb/cy_ctb.c ****     case CY_CTB_CURRENT_LOW_ACTIVE_DEEPSLEEP:
 1237              		.loc 1 607 0
 1238 007c 38BD     		pop	{r3, r4, r5, pc}
 1239              	.LVL96:
 1240              	.L120:
 1241              	.LBB30:
 1242              	.LBB31:
 437:Generated_Source\PSoC6\pdl\drivers/peripheral/sysanalog/cy_sysanalog.h ****                       (uint32_t) deepSleep;
 438:Generated_Source\PSoC6\pdl\drivers/peripheral/sysanalog/cy_sysanalog.h **** }
 439:Generated_Source\PSoC6\pdl\drivers/peripheral/sysanalog/cy_sysanalog.h **** 
 440:Generated_Source\PSoC6\pdl\drivers/peripheral/sysanalog/cy_sysanalog.h **** /*******************************************************************************
 441:Generated_Source\PSoC6\pdl\drivers/peripheral/sysanalog/cy_sysanalog.h **** * Function Name: Cy_SysAnalog_GetDeepSleepMode
 442:Generated_Source\PSoC6\pdl\drivers/peripheral/sysanalog/cy_sysanalog.h **** ****************************************************************************//**
 443:Generated_Source\PSoC6\pdl\drivers/peripheral/sysanalog/cy_sysanalog.h **** *
 444:Generated_Source\PSoC6\pdl\drivers/peripheral/sysanalog/cy_sysanalog.h **** * Return Deep Sleep mode configuration as set by \ref Cy_SysAnalog_SetDeepSleepMode
ARM GAS  C:\Users\gjl\AppData\Local\Temp\cckcOS93.s 			page 69


 445:Generated_Source\PSoC6\pdl\drivers/peripheral/sysanalog/cy_sysanalog.h **** *
 446:Generated_Source\PSoC6\pdl\drivers/peripheral/sysanalog/cy_sysanalog.h **** * \return
 447:Generated_Source\PSoC6\pdl\drivers/peripheral/sysanalog/cy_sysanalog.h **** * A value from \ref cy_en_sysanalog_deep_sleep_t
 448:Generated_Source\PSoC6\pdl\drivers/peripheral/sysanalog/cy_sysanalog.h **** *
 449:Generated_Source\PSoC6\pdl\drivers/peripheral/sysanalog/cy_sysanalog.h **** * \funcusage
 450:Generated_Source\PSoC6\pdl\drivers/peripheral/sysanalog/cy_sysanalog.h **** *
 451:Generated_Source\PSoC6\pdl\drivers/peripheral/sysanalog/cy_sysanalog.h **** * \snippet sysanalog_sut_01.cydsn/main_cm0p.c SYSANA_SNIPPET_GET_DEEPSLEEP_MODE
 452:Generated_Source\PSoC6\pdl\drivers/peripheral/sysanalog/cy_sysanalog.h **** *
 453:Generated_Source\PSoC6\pdl\drivers/peripheral/sysanalog/cy_sysanalog.h **** *******************************************************************************/
 454:Generated_Source\PSoC6\pdl\drivers/peripheral/sysanalog/cy_sysanalog.h **** __STATIC_INLINE cy_en_sysanalog_deep_sleep_t Cy_SysAnalog_GetDeepSleepMode(void)
 455:Generated_Source\PSoC6\pdl\drivers/peripheral/sysanalog/cy_sysanalog.h **** {
 456:Generated_Source\PSoC6\pdl\drivers/peripheral/sysanalog/cy_sysanalog.h ****     return (cy_en_sysanalog_deep_sleep_t) (uint32_t) (PASS_AREF->AREF_CTRL & (PASS_AREF_AREF_CTRL_D
 1243              		.loc 3 456 0
 1244 007e 144B     		ldr	r3, .L122+4
 1245 0080 1B68     		ldr	r3, [r3]
 1246              	.LBE31:
 1247              	.LBE30:
 614:Generated_Source\PSoC6\pdl\drivers\peripheral\ctb/cy_ctb.c ****         {
 1248              		.loc 1 614 0
 1249 0082 13F0E043 		ands	r3, r3, #1879048192
 1250 0086 02D0     		beq	.L118
 614:Generated_Source\PSoC6\pdl\drivers\peripheral\ctb/cy_ctb.c ****         {
 1251              		.loc 1 614 0 is_stmt 0 discriminator 1
 1252 0088 B3F1A04F 		cmp	r3, #1342177280
 1253 008c 06D1     		bne	.L119
 1254              	.L118:
 1255              	.LVL97:
 1256              	.LBB32:
 1257              	.LBB33:
 436:Generated_Source\PSoC6\pdl\drivers/peripheral/sysanalog/cy_sysanalog.h ****                       (uint32_t) deepSleep;
 1258              		.loc 3 436 0 is_stmt 1
 1259 008e 104A     		ldr	r2, .L122+4
 1260 0090 1368     		ldr	r3, [r2]
 1261 0092 23F0E043 		bic	r3, r3, #1879048192
 1262 0096 43F0C043 		orr	r3, r3, #1610612736
 1263 009a 1360     		str	r3, [r2]
 1264              	.LVL98:
 1265              	.L119:
 1266              	.LBE33:
 1267              	.LBE32:
 1268              	.LBB34:
 1269              	.LBB35:
1403:Generated_Source\PSoC6\pdl\drivers\peripheral\ctb/cy_ctb.h **** }
 1270              		.loc 2 1403 0
 1271 009c 0C4B     		ldr	r3, .L122+4
 1272 009e 1A68     		ldr	r2, [r3]
 1273 00a0 42F08002 		orr	r2, r2, #128
 1274 00a4 1A60     		str	r2, [r3]
 1275              	.LVL99:
 1276              	.LBE35:
 1277              	.LBE34:
 1278              	.LBB36:
 1279              	.LBB37:
1479:Generated_Source\PSoC6\pdl\drivers\peripheral\ctb/cy_ctb.h **** }
 1280              		.loc 2 1479 0
 1281 00a6 1A68     		ldr	r2, [r3]
 1282 00a8 42F47F42 		orr	r2, r2, #65280
ARM GAS  C:\Users\gjl\AppData\Local\Temp\cckcOS93.s 			page 70


 1283 00ac 1A60     		str	r2, [r3]
 1284              	.LBE37:
 1285              	.LBE36:
 624:Generated_Source\PSoC6\pdl\drivers\peripheral\ctb/cy_ctb.c **** 
 1286              		.loc 1 624 0
 1287 00ae 4FF08041 		mov	r1, #1073741824
 1288 00b2 2046     		mov	r0, r4
 1289 00b4 FFF7FEFF 		bl	Cy_CTB_SetDeepSleepMode
 1290              	.LVL100:
 627:Generated_Source\PSoC6\pdl\drivers\peripheral\ctb/cy_ctb.c **** 
 1291              		.loc 1 627 0
 1292 00b8 6368     		ldr	r3, [r4, #4]
 1293 00ba 23F40063 		bic	r3, r3, #2048
 1294 00be 6360     		str	r3, [r4, #4]
 630:Generated_Source\PSoC6\pdl\drivers\peripheral\ctb/cy_ctb.c ****         break;
 1295              		.loc 1 630 0
 1296 00c0 A368     		ldr	r3, [r4, #8]
 1297 00c2 23F40063 		bic	r3, r3, #2048
 1298 00c6 A360     		str	r3, [r4, #8]
 1299 00c8 38BD     		pop	{r3, r4, r5, pc}
 1300              	.LVL101:
 1301              	.L123:
 1302 00ca 00BF     		.align	2
 1303              	.L122:
 1304 00cc 00000000 		.word	.LC0
 1305 00d0 000E1F41 		.word	1092554240
 1306              		.cfi_endproc
 1307              	.LFE186:
 1308              		.size	Cy_CTB_SetCurrentMode, .-Cy_CTB_SetCurrentMode
 1309              		.section	.text.Cy_CTB_SetOutputMode,"ax",%progbits
 1310              		.align	2
 1311              		.global	Cy_CTB_SetOutputMode
 1312              		.thumb
 1313              		.thumb_func
 1314              		.type	Cy_CTB_SetOutputMode, %function
 1315              	Cy_CTB_SetOutputMode:
 1316              	.LFB188:
 674:Generated_Source\PSoC6\pdl\drivers\peripheral\ctb/cy_ctb.c **** }
 675:Generated_Source\PSoC6\pdl\drivers\peripheral\ctb/cy_ctb.c **** 
 676:Generated_Source\PSoC6\pdl\drivers\peripheral\ctb/cy_ctb.c **** /*******************************************************************************
 677:Generated_Source\PSoC6\pdl\drivers\peripheral\ctb/cy_ctb.c **** * Function Name: Cy_CTB_SetOutputMode
 678:Generated_Source\PSoC6\pdl\drivers\peripheral\ctb/cy_ctb.c **** ****************************************************************************//**
 679:Generated_Source\PSoC6\pdl\drivers\peripheral\ctb/cy_ctb.c **** *
 680:Generated_Source\PSoC6\pdl\drivers\peripheral\ctb/cy_ctb.c **** * Set the opamp output mode to 1x drive, 10x drive, or comparator mode.
 681:Generated_Source\PSoC6\pdl\drivers\peripheral\ctb/cy_ctb.c **** *
 682:Generated_Source\PSoC6\pdl\drivers\peripheral\ctb/cy_ctb.c **** * \param base
 683:Generated_Source\PSoC6\pdl\drivers\peripheral\ctb/cy_ctb.c **** * Pointer to structure describing registers
 684:Generated_Source\PSoC6\pdl\drivers\peripheral\ctb/cy_ctb.c **** *
 685:Generated_Source\PSoC6\pdl\drivers\peripheral\ctb/cy_ctb.c **** * \param opampNum
 686:Generated_Source\PSoC6\pdl\drivers\peripheral\ctb/cy_ctb.c **** * \ref CY_CTB_OPAMP_0, \ref CY_CTB_OPAMP_1, or \ref CY_CTB_OPAMP_BOTH
 687:Generated_Source\PSoC6\pdl\drivers\peripheral\ctb/cy_ctb.c **** *
 688:Generated_Source\PSoC6\pdl\drivers\peripheral\ctb/cy_ctb.c **** * \param mode
 689:Generated_Source\PSoC6\pdl\drivers\peripheral\ctb/cy_ctb.c **** * Opamp mode selection. Select a value from \ref cy_en_ctb_mode_t.
 690:Generated_Source\PSoC6\pdl\drivers\peripheral\ctb/cy_ctb.c **** *
 691:Generated_Source\PSoC6\pdl\drivers\peripheral\ctb/cy_ctb.c **** * \return None
 692:Generated_Source\PSoC6\pdl\drivers\peripheral\ctb/cy_ctb.c **** *
 693:Generated_Source\PSoC6\pdl\drivers\peripheral\ctb/cy_ctb.c **** * \funcusage
ARM GAS  C:\Users\gjl\AppData\Local\Temp\cckcOS93.s 			page 71


 694:Generated_Source\PSoC6\pdl\drivers\peripheral\ctb/cy_ctb.c **** *
 695:Generated_Source\PSoC6\pdl\drivers\peripheral\ctb/cy_ctb.c **** * \snippet ctb_sut_01.cydsn/main_cm4.c CTB_SNIPPET_SET_OUTPUT_MODE
 696:Generated_Source\PSoC6\pdl\drivers\peripheral\ctb/cy_ctb.c **** *
 697:Generated_Source\PSoC6\pdl\drivers\peripheral\ctb/cy_ctb.c **** *******************************************************************************/
 698:Generated_Source\PSoC6\pdl\drivers\peripheral\ctb/cy_ctb.c **** void Cy_CTB_SetOutputMode(CTBM_Type *base, cy_en_ctb_opamp_sel_t opampNum, cy_en_ctb_mode_t mode)
 699:Generated_Source\PSoC6\pdl\drivers\peripheral\ctb/cy_ctb.c **** {
 1317              		.loc 1 699 0
 1318              		.cfi_startproc
 1319              		@ args = 0, pretend = 0, frame = 0
 1320              		@ frame_needed = 0, uses_anonymous_args = 0
 1321              	.LVL102:
 1322 0000 70B5     		push	{r4, r5, r6, lr}
 1323              		.cfi_def_cfa_offset 16
 1324              		.cfi_offset 4, -16
 1325              		.cfi_offset 5, -12
 1326              		.cfi_offset 6, -8
 1327              		.cfi_offset 14, -4
 1328 0002 0646     		mov	r6, r0
 1329 0004 0C46     		mov	r4, r1
 1330 0006 1546     		mov	r5, r2
 700:Generated_Source\PSoC6\pdl\drivers\peripheral\ctb/cy_ctb.c ****     CY_ASSERT_L3(CY_CTB_OPAMPNUM(opampNum));
 1331              		.loc 1 700 0
 1332 0008 4B1E     		subs	r3, r1, #1
 1333 000a DBB2     		uxtb	r3, r3
 1334 000c 022B     		cmp	r3, #2
 1335 000e 04D9     		bls	.L125
 1336              		.loc 1 700 0 is_stmt 0 discriminator 1
 1337 0010 4FF42F71 		mov	r1, #700
 1338              	.LVL103:
 1339 0014 1F48     		ldr	r0, .L139
 1340              	.LVL104:
 1341 0016 FFF7FEFF 		bl	Cy_SysLib_AssertFailed
 1342              	.LVL105:
 1343              	.L125:
 701:Generated_Source\PSoC6\pdl\drivers\peripheral\ctb/cy_ctb.c ****     CY_ASSERT_L3(CY_CTB_OAMODE(mode));
 1344              		.loc 1 701 0 is_stmt 1
 1345 001a 45B1     		cbz	r5, .L126
 1346              		.loc 1 701 0 is_stmt 0 discriminator 1
 1347 001c 082D     		cmp	r5, #8
 1348 001e 06D0     		beq	.L126
 1349              		.loc 1 701 0 discriminator 2
 1350 0020 102D     		cmp	r5, #16
 1351 0022 04D0     		beq	.L126
 1352              		.loc 1 701 0 discriminator 3
 1353 0024 40F2BD21 		movw	r1, #701
 1354 0028 1A48     		ldr	r0, .L139
 1355 002a FFF7FEFF 		bl	Cy_SysLib_AssertFailed
 1356              	.LVL106:
 1357              	.L126:
 702:Generated_Source\PSoC6\pdl\drivers\peripheral\ctb/cy_ctb.c **** 
 703:Generated_Source\PSoC6\pdl\drivers\peripheral\ctb/cy_ctb.c ****     uint32_t oaCtrlReg;
 704:Generated_Source\PSoC6\pdl\drivers\peripheral\ctb/cy_ctb.c **** 
 705:Generated_Source\PSoC6\pdl\drivers\peripheral\ctb/cy_ctb.c ****     if ((opampNum == CY_CTB_OPAMP_0) || (opampNum == CY_CTB_OPAMP_BOTH))
 1358              		.loc 1 705 0 is_stmt 1
 1359 002e 012C     		cmp	r4, #1
 1360 0030 01D0     		beq	.L127
 1361              		.loc 1 705 0 is_stmt 0 discriminator 1
ARM GAS  C:\Users\gjl\AppData\Local\Temp\cckcOS93.s 			page 72


 1362 0032 032C     		cmp	r4, #3
 1363 0034 14D1     		bne	.L128
 1364              	.L127:
 706:Generated_Source\PSoC6\pdl\drivers\peripheral\ctb/cy_ctb.c ****     {
 707:Generated_Source\PSoC6\pdl\drivers\peripheral\ctb/cy_ctb.c **** 
 708:Generated_Source\PSoC6\pdl\drivers\peripheral\ctb/cy_ctb.c ****         /* Clear the three affected bits before setting them */
 709:Generated_Source\PSoC6\pdl\drivers\peripheral\ctb/cy_ctb.c ****         oaCtrlReg = base->OA_RES0_CTRL & ~(CTBM_OA_RES0_CTRL_OA0_DRIVE_STR_SEL_Msk | CTBM_OA_RES0_C
 1365              		.loc 1 709 0 is_stmt 1
 1366 0036 7368     		ldr	r3, [r6, #4]
 1367 0038 23F48053 		bic	r3, r3, #4096
 1368 003c 23F01803 		bic	r3, r3, #24
 1369              	.LVL107:
 710:Generated_Source\PSoC6\pdl\drivers\peripheral\ctb/cy_ctb.c ****         base->OA_RES0_CTRL = oaCtrlReg | (uint32_t) mode | ((mode == CY_CTB_MODE_OPAMP10X) ? CY_CTB
 1370              		.loc 1 710 0
 1371 0040 2B43     		orrs	r3, r3, r5
 1372              	.LVL108:
 1373 0042 082D     		cmp	r5, #8
 1374 0044 01D1     		bne	.L134
 1375 0046 0022     		movs	r2, #0
 1376 0048 01E0     		b	.L129
 1377              	.L134:
 1378 004a 4FF48052 		mov	r2, #4096
 1379              	.L129:
 1380              		.loc 1 710 0 is_stmt 0 discriminator 4
 1381 004e 1343     		orrs	r3, r3, r2
 1382 0050 7360     		str	r3, [r6, #4]
 711:Generated_Source\PSoC6\pdl\drivers\peripheral\ctb/cy_ctb.c ****         base->OA0_COMP_TRIM = (uint32_t) ((mode == CY_CTB_MODE_OPAMP10X) ? CY_CTB_OPAMP_COMPENSATIO
 1383              		.loc 1 711 0 is_stmt 1 discriminator 4
 1384 0052 082D     		cmp	r5, #8
 1385 0054 01D1     		bne	.L135
 1386              		.loc 1 711 0 is_stmt 0
 1387 0056 0323     		movs	r3, #3
 1388 0058 00E0     		b	.L130
 1389              	.L135:
 1390 005a 0123     		movs	r3, #1
 1391              	.L130:
 1392              		.loc 1 711 0 discriminator 4
 1393 005c C6F8083F 		str	r3, [r6, #3848]
 1394              	.L128:
 712:Generated_Source\PSoC6\pdl\drivers\peripheral\ctb/cy_ctb.c ****     }
 713:Generated_Source\PSoC6\pdl\drivers\peripheral\ctb/cy_ctb.c **** 
 714:Generated_Source\PSoC6\pdl\drivers\peripheral\ctb/cy_ctb.c ****     if ((opampNum == CY_CTB_OPAMP_1) || (opampNum == CY_CTB_OPAMP_BOTH))
 1395              		.loc 1 714 0 is_stmt 1
 1396 0060 023C     		subs	r4, r4, #2
 1397 0062 E4B2     		uxtb	r4, r4
 1398 0064 012C     		cmp	r4, #1
 1399 0066 14D8     		bhi	.L124
 715:Generated_Source\PSoC6\pdl\drivers\peripheral\ctb/cy_ctb.c ****     {
 716:Generated_Source\PSoC6\pdl\drivers\peripheral\ctb/cy_ctb.c ****         oaCtrlReg = base->OA_RES1_CTRL & ~(CTBM_OA_RES1_CTRL_OA1_DRIVE_STR_SEL_Msk | CTBM_OA_RES1_C
 1400              		.loc 1 716 0
 1401 0068 B368     		ldr	r3, [r6, #8]
 1402 006a 23F48053 		bic	r3, r3, #4096
 1403 006e 23F01803 		bic	r3, r3, #24
 1404              	.LVL109:
 717:Generated_Source\PSoC6\pdl\drivers\peripheral\ctb/cy_ctb.c ****         base->OA_RES1_CTRL = oaCtrlReg | (uint32_t) mode | ((mode == CY_CTB_MODE_OPAMP10X) ? CY_CTB
 1405              		.loc 1 717 0
 1406 0072 2B43     		orrs	r3, r3, r5
ARM GAS  C:\Users\gjl\AppData\Local\Temp\cckcOS93.s 			page 73


 1407              	.LVL110:
 1408 0074 082D     		cmp	r5, #8
 1409 0076 01D1     		bne	.L136
 1410 0078 0022     		movs	r2, #0
 1411 007a 01E0     		b	.L132
 1412              	.L136:
 1413 007c 4FF48052 		mov	r2, #4096
 1414              	.L132:
 1415              		.loc 1 717 0 is_stmt 0 discriminator 4
 1416 0080 1343     		orrs	r3, r3, r2
 1417 0082 B360     		str	r3, [r6, #8]
 718:Generated_Source\PSoC6\pdl\drivers\peripheral\ctb/cy_ctb.c ****         base->OA1_COMP_TRIM = (uint32_t) ((mode == CY_CTB_MODE_OPAMP10X) ? CY_CTB_OPAMP_COMPENSATIO
 1418              		.loc 1 718 0 is_stmt 1 discriminator 4
 1419 0084 082D     		cmp	r5, #8
 1420 0086 01D1     		bne	.L137
 1421              		.loc 1 718 0 is_stmt 0
 1422 0088 0323     		movs	r3, #3
 1423 008a 00E0     		b	.L133
 1424              	.L137:
 1425 008c 0123     		movs	r3, #1
 1426              	.L133:
 1427              		.loc 1 718 0 discriminator 4
 1428 008e C6F8143F 		str	r3, [r6, #3860]
 1429              	.L124:
 1430 0092 70BD     		pop	{r4, r5, r6, pc}
 1431              	.LVL111:
 1432              	.L140:
 1433              		.align	2
 1434              	.L139:
 1435 0094 00000000 		.word	.LC0
 1436              		.cfi_endproc
 1437              	.LFE188:
 1438              		.size	Cy_CTB_SetOutputMode, .-Cy_CTB_SetOutputMode
 1439              		.section	.text.Cy_CTB_SetPower,"ax",%progbits
 1440              		.align	2
 1441              		.global	Cy_CTB_SetPower
 1442              		.thumb
 1443              		.thumb_func
 1444              		.type	Cy_CTB_SetPower, %function
 1445              	Cy_CTB_SetPower:
 1446              	.LFB189:
 719:Generated_Source\PSoC6\pdl\drivers\peripheral\ctb/cy_ctb.c ****     }
 720:Generated_Source\PSoC6\pdl\drivers\peripheral\ctb/cy_ctb.c **** }
 721:Generated_Source\PSoC6\pdl\drivers\peripheral\ctb/cy_ctb.c **** 
 722:Generated_Source\PSoC6\pdl\drivers\peripheral\ctb/cy_ctb.c **** /*******************************************************************************
 723:Generated_Source\PSoC6\pdl\drivers\peripheral\ctb/cy_ctb.c **** * Function Name: Cy_CTB_SetPower
 724:Generated_Source\PSoC6\pdl\drivers\peripheral\ctb/cy_ctb.c **** ****************************************************************************//**
 725:Generated_Source\PSoC6\pdl\drivers\peripheral\ctb/cy_ctb.c **** *
 726:Generated_Source\PSoC6\pdl\drivers\peripheral\ctb/cy_ctb.c **** * Configure the power level and charge pump for a specific opamp.
 727:Generated_Source\PSoC6\pdl\drivers\peripheral\ctb/cy_ctb.c **** *
 728:Generated_Source\PSoC6\pdl\drivers\peripheral\ctb/cy_ctb.c **** * At higher power levels, the opamp consumes more current but provides more
 729:Generated_Source\PSoC6\pdl\drivers\peripheral\ctb/cy_ctb.c **** * gain bandwidth.
 730:Generated_Source\PSoC6\pdl\drivers\peripheral\ctb/cy_ctb.c **** * Enabling the charge pump increases current but provides
 731:Generated_Source\PSoC6\pdl\drivers\peripheral\ctb/cy_ctb.c **** * rail-to-rail input range. Disabling the charge pump limits the input range to
 732:Generated_Source\PSoC6\pdl\drivers\peripheral\ctb/cy_ctb.c **** * VDDA - 1.5 V.
 733:Generated_Source\PSoC6\pdl\drivers\peripheral\ctb/cy_ctb.c **** * See the device datasheet for performance specifications.
 734:Generated_Source\PSoC6\pdl\drivers\peripheral\ctb/cy_ctb.c **** *
ARM GAS  C:\Users\gjl\AppData\Local\Temp\cckcOS93.s 			page 74


 735:Generated_Source\PSoC6\pdl\drivers\peripheral\ctb/cy_ctb.c **** * \param base
 736:Generated_Source\PSoC6\pdl\drivers\peripheral\ctb/cy_ctb.c **** * Pointer to structure describing registers
 737:Generated_Source\PSoC6\pdl\drivers\peripheral\ctb/cy_ctb.c **** *
 738:Generated_Source\PSoC6\pdl\drivers\peripheral\ctb/cy_ctb.c **** * \param opampNum
 739:Generated_Source\PSoC6\pdl\drivers\peripheral\ctb/cy_ctb.c **** * \ref CY_CTB_OPAMP_0, \ref CY_CTB_OPAMP_1, or \ref CY_CTB_OPAMP_BOTH
 740:Generated_Source\PSoC6\pdl\drivers\peripheral\ctb/cy_ctb.c **** *
 741:Generated_Source\PSoC6\pdl\drivers\peripheral\ctb/cy_ctb.c **** * \param power
 742:Generated_Source\PSoC6\pdl\drivers\peripheral\ctb/cy_ctb.c **** * Power mode selection. Select a value from \ref cy_en_ctb_power_t.
 743:Generated_Source\PSoC6\pdl\drivers\peripheral\ctb/cy_ctb.c **** *
 744:Generated_Source\PSoC6\pdl\drivers\peripheral\ctb/cy_ctb.c **** * \param pump
 745:Generated_Source\PSoC6\pdl\drivers\peripheral\ctb/cy_ctb.c **** * Enable or disable the charge pump. Select a value from \ref cy_en_ctb_pump_t.
 746:Generated_Source\PSoC6\pdl\drivers\peripheral\ctb/cy_ctb.c **** *
 747:Generated_Source\PSoC6\pdl\drivers\peripheral\ctb/cy_ctb.c **** * \return None
 748:Generated_Source\PSoC6\pdl\drivers\peripheral\ctb/cy_ctb.c **** *
 749:Generated_Source\PSoC6\pdl\drivers\peripheral\ctb/cy_ctb.c **** * \funcusage
 750:Generated_Source\PSoC6\pdl\drivers\peripheral\ctb/cy_ctb.c **** *
 751:Generated_Source\PSoC6\pdl\drivers\peripheral\ctb/cy_ctb.c **** * \snippet ctb_sut_01.cydsn/main_cm4.c CTB_SNIPPET_SET_POWER
 752:Generated_Source\PSoC6\pdl\drivers\peripheral\ctb/cy_ctb.c **** *
 753:Generated_Source\PSoC6\pdl\drivers\peripheral\ctb/cy_ctb.c **** *******************************************************************************/
 754:Generated_Source\PSoC6\pdl\drivers\peripheral\ctb/cy_ctb.c **** void Cy_CTB_SetPower(CTBM_Type *base, cy_en_ctb_opamp_sel_t opampNum, cy_en_ctb_power_t power, cy_e
 755:Generated_Source\PSoC6\pdl\drivers\peripheral\ctb/cy_ctb.c **** {
 1447              		.loc 1 755 0 is_stmt 1
 1448              		.cfi_startproc
 1449              		@ args = 0, pretend = 0, frame = 0
 1450              		@ frame_needed = 0, uses_anonymous_args = 0
 1451              	.LVL112:
 1452 0000 F8B5     		push	{r3, r4, r5, r6, r7, lr}
 1453              		.cfi_def_cfa_offset 24
 1454              		.cfi_offset 3, -24
 1455              		.cfi_offset 4, -20
 1456              		.cfi_offset 5, -16
 1457              		.cfi_offset 6, -12
 1458              		.cfi_offset 7, -8
 1459              		.cfi_offset 14, -4
 1460 0002 0746     		mov	r7, r0
 1461 0004 0C46     		mov	r4, r1
 1462 0006 1646     		mov	r6, r2
 1463 0008 1D46     		mov	r5, r3
 756:Generated_Source\PSoC6\pdl\drivers\peripheral\ctb/cy_ctb.c ****     CY_ASSERT_L3(CY_CTB_OPAMPNUM(opampNum));
 1464              		.loc 1 756 0
 1465 000a 4B1E     		subs	r3, r1, #1
 1466              	.LVL113:
 1467 000c DBB2     		uxtb	r3, r3
 1468 000e 022B     		cmp	r3, #2
 1469 0010 04D9     		bls	.L142
 1470              		.loc 1 756 0 is_stmt 0 discriminator 1
 1471 0012 4FF43D71 		mov	r1, #756
 1472              	.LVL114:
 1473 0016 1648     		ldr	r0, .L149
 1474              	.LVL115:
 1475 0018 FFF7FEFF 		bl	Cy_SysLib_AssertFailed
 1476              	.LVL116:
 1477              	.L142:
 757:Generated_Source\PSoC6\pdl\drivers\peripheral\ctb/cy_ctb.c ****     CY_ASSERT_L3(CY_CTB_OAPOWER(power));
 1478              		.loc 1 757 0 is_stmt 1
 1479 001c 032E     		cmp	r6, #3
 1480 001e 04D9     		bls	.L143
ARM GAS  C:\Users\gjl\AppData\Local\Temp\cckcOS93.s 			page 75


 1481              		.loc 1 757 0 is_stmt 0 discriminator 1
 1482 0020 40F2F521 		movw	r1, #757
 1483 0024 1248     		ldr	r0, .L149
 1484 0026 FFF7FEFF 		bl	Cy_SysLib_AssertFailed
 1485              	.LVL117:
 1486              	.L143:
 758:Generated_Source\PSoC6\pdl\drivers\peripheral\ctb/cy_ctb.c ****     CY_ASSERT_L3(CY_CTB_OAPUMP(pump));
 1487              		.loc 1 758 0 is_stmt 1
 1488 002a 3DB1     		cbz	r5, .L144
 1489              		.loc 1 758 0 is_stmt 0 discriminator 1
 1490 002c B5F5006F 		cmp	r5, #2048
 1491 0030 04D0     		beq	.L144
 1492              		.loc 1 758 0 discriminator 2
 1493 0032 40F2F621 		movw	r1, #758
 1494 0036 0E48     		ldr	r0, .L149
 1495 0038 FFF7FEFF 		bl	Cy_SysLib_AssertFailed
 1496              	.LVL118:
 1497              	.L144:
 759:Generated_Source\PSoC6\pdl\drivers\peripheral\ctb/cy_ctb.c **** 
 760:Generated_Source\PSoC6\pdl\drivers\peripheral\ctb/cy_ctb.c ****     uint32_t oaCtrlReg;
 761:Generated_Source\PSoC6\pdl\drivers\peripheral\ctb/cy_ctb.c **** 
 762:Generated_Source\PSoC6\pdl\drivers\peripheral\ctb/cy_ctb.c ****     if ((opampNum == CY_CTB_OPAMP_0) || (opampNum == CY_CTB_OPAMP_BOTH))
 1498              		.loc 1 762 0 is_stmt 1
 1499 003c 012C     		cmp	r4, #1
 1500 003e 01D0     		beq	.L145
 1501              		.loc 1 762 0 is_stmt 0 discriminator 1
 1502 0040 032C     		cmp	r4, #3
 1503 0042 07D1     		bne	.L146
 1504              	.L145:
 763:Generated_Source\PSoC6\pdl\drivers\peripheral\ctb/cy_ctb.c ****     {
 764:Generated_Source\PSoC6\pdl\drivers\peripheral\ctb/cy_ctb.c **** 
 765:Generated_Source\PSoC6\pdl\drivers\peripheral\ctb/cy_ctb.c ****         /* Clear the two affected bits before setting them */
 766:Generated_Source\PSoC6\pdl\drivers\peripheral\ctb/cy_ctb.c ****         oaCtrlReg = base->OA_RES0_CTRL & ~(CTBM_OA_RES0_CTRL_OA0_PWR_MODE_Msk | CTBM_OA_RES0_CTRL_O
 1505              		.loc 1 766 0 is_stmt 1
 1506 0044 7B68     		ldr	r3, [r7, #4]
 1507 0046 23F40063 		bic	r3, r3, #2048
 1508 004a 23F00703 		bic	r3, r3, #7
 1509              	.LVL119:
 767:Generated_Source\PSoC6\pdl\drivers\peripheral\ctb/cy_ctb.c ****         base->OA_RES0_CTRL = oaCtrlReg | (uint32_t) power | (uint32_t) pump;
 1510              		.loc 1 767 0
 1511 004e 3343     		orrs	r3, r3, r6
 1512              	.LVL120:
 1513 0050 2B43     		orrs	r3, r3, r5
 1514 0052 7B60     		str	r3, [r7, #4]
 1515              	.L146:
 768:Generated_Source\PSoC6\pdl\drivers\peripheral\ctb/cy_ctb.c ****     }
 769:Generated_Source\PSoC6\pdl\drivers\peripheral\ctb/cy_ctb.c **** 
 770:Generated_Source\PSoC6\pdl\drivers\peripheral\ctb/cy_ctb.c ****     if ((opampNum == CY_CTB_OPAMP_1) || (opampNum == CY_CTB_OPAMP_BOTH))
 1516              		.loc 1 770 0
 1517 0054 023C     		subs	r4, r4, #2
 1518 0056 E4B2     		uxtb	r4, r4
 1519 0058 012C     		cmp	r4, #1
 1520 005a 07D8     		bhi	.L141
 771:Generated_Source\PSoC6\pdl\drivers\peripheral\ctb/cy_ctb.c ****     {
 772:Generated_Source\PSoC6\pdl\drivers\peripheral\ctb/cy_ctb.c ****         oaCtrlReg = base->OA_RES1_CTRL & ~(CTBM_OA_RES1_CTRL_OA1_PWR_MODE_Msk | CTBM_OA_RES1_CTRL_O
 1521              		.loc 1 772 0
 1522 005c BB68     		ldr	r3, [r7, #8]
ARM GAS  C:\Users\gjl\AppData\Local\Temp\cckcOS93.s 			page 76


 1523 005e 23F40063 		bic	r3, r3, #2048
 1524 0062 23F00703 		bic	r3, r3, #7
 1525              	.LVL121:
 773:Generated_Source\PSoC6\pdl\drivers\peripheral\ctb/cy_ctb.c ****         base->OA_RES1_CTRL = oaCtrlReg | (uint32_t) power | (uint32_t) pump;
 1526              		.loc 1 773 0
 1527 0066 1E43     		orrs	r6, r6, r3
 1528 0068 3543     		orrs	r5, r5, r6
 1529 006a BD60     		str	r5, [r7, #8]
 1530              	.LVL122:
 1531              	.L141:
 1532 006c F8BD     		pop	{r3, r4, r5, r6, r7, pc}
 1533              	.LVL123:
 1534              	.L150:
 1535 006e 00BF     		.align	2
 1536              	.L149:
 1537 0070 00000000 		.word	.LC0
 1538              		.cfi_endproc
 1539              	.LFE189:
 1540              		.size	Cy_CTB_SetPower, .-Cy_CTB_SetPower
 1541              		.section	.text.Cy_CTB_DACSampleAndHold,"ax",%progbits
 1542              		.align	2
 1543              		.global	Cy_CTB_DACSampleAndHold
 1544              		.thumb
 1545              		.thumb_func
 1546              		.type	Cy_CTB_DACSampleAndHold, %function
 1547              	Cy_CTB_DACSampleAndHold:
 1548              	.LFB190:
 774:Generated_Source\PSoC6\pdl\drivers\peripheral\ctb/cy_ctb.c ****     }
 775:Generated_Source\PSoC6\pdl\drivers\peripheral\ctb/cy_ctb.c **** }
 776:Generated_Source\PSoC6\pdl\drivers\peripheral\ctb/cy_ctb.c **** 
 777:Generated_Source\PSoC6\pdl\drivers\peripheral\ctb/cy_ctb.c **** /*******************************************************************************
 778:Generated_Source\PSoC6\pdl\drivers\peripheral\ctb/cy_ctb.c **** * Function Name: Cy_CTB_DACSampleAndHold
 779:Generated_Source\PSoC6\pdl\drivers\peripheral\ctb/cy_ctb.c **** ****************************************************************************//**
 780:Generated_Source\PSoC6\pdl\drivers\peripheral\ctb/cy_ctb.c **** *
 781:Generated_Source\PSoC6\pdl\drivers\peripheral\ctb/cy_ctb.c **** * Perform sampling and holding of the CTDAC output.
 782:Generated_Source\PSoC6\pdl\drivers\peripheral\ctb/cy_ctb.c **** * To perform a sample or a hold, a preparation step must first be executed to
 783:Generated_Source\PSoC6\pdl\drivers\peripheral\ctb/cy_ctb.c **** * open the required switches. Because of this, each sample or hold
 784:Generated_Source\PSoC6\pdl\drivers\peripheral\ctb/cy_ctb.c **** * requires three function calls:
 785:Generated_Source\PSoC6\pdl\drivers\peripheral\ctb/cy_ctb.c **** *
 786:Generated_Source\PSoC6\pdl\drivers\peripheral\ctb/cy_ctb.c **** * -# Call this function to prepare for a sample or hold
 787:Generated_Source\PSoC6\pdl\drivers\peripheral\ctb/cy_ctb.c **** * -# Enable or disable the CTDAC output
 788:Generated_Source\PSoC6\pdl\drivers\peripheral\ctb/cy_ctb.c **** * -# Call this function again to perform a sample or hold
 789:Generated_Source\PSoC6\pdl\drivers\peripheral\ctb/cy_ctb.c **** *
 790:Generated_Source\PSoC6\pdl\drivers\peripheral\ctb/cy_ctb.c **** * It takes 10 us to perform a sample of the CTDAC output to provide
 791:Generated_Source\PSoC6\pdl\drivers\peripheral\ctb/cy_ctb.c **** * time for the capacitor to settle to the new value.
 792:Generated_Source\PSoC6\pdl\drivers\peripheral\ctb/cy_ctb.c **** *
 793:Generated_Source\PSoC6\pdl\drivers\peripheral\ctb/cy_ctb.c **** * \param base
 794:Generated_Source\PSoC6\pdl\drivers\peripheral\ctb/cy_ctb.c **** * Pointer to structure describing registers
 795:Generated_Source\PSoC6\pdl\drivers\peripheral\ctb/cy_ctb.c **** *
 796:Generated_Source\PSoC6\pdl\drivers\peripheral\ctb/cy_ctb.c **** * \param mode
 797:Generated_Source\PSoC6\pdl\drivers\peripheral\ctb/cy_ctb.c **** * Mode to prepare or perform a sample or hold, or disable the ability
 798:Generated_Source\PSoC6\pdl\drivers\peripheral\ctb/cy_ctb.c **** *
 799:Generated_Source\PSoC6\pdl\drivers\peripheral\ctb/cy_ctb.c **** * \return None
 800:Generated_Source\PSoC6\pdl\drivers\peripheral\ctb/cy_ctb.c **** *
 801:Generated_Source\PSoC6\pdl\drivers\peripheral\ctb/cy_ctb.c **** * \funcusage
 802:Generated_Source\PSoC6\pdl\drivers\peripheral\ctb/cy_ctb.c **** *
 803:Generated_Source\PSoC6\pdl\drivers\peripheral\ctb/cy_ctb.c **** * \snippet ctb_sut_01.cydsn/main_cm4.c CTB_SAMPLE_CODE_SNIPPET
ARM GAS  C:\Users\gjl\AppData\Local\Temp\cckcOS93.s 			page 77


 804:Generated_Source\PSoC6\pdl\drivers\peripheral\ctb/cy_ctb.c **** *
 805:Generated_Source\PSoC6\pdl\drivers\peripheral\ctb/cy_ctb.c **** * \funcusage
 806:Generated_Source\PSoC6\pdl\drivers\peripheral\ctb/cy_ctb.c **** *
 807:Generated_Source\PSoC6\pdl\drivers\peripheral\ctb/cy_ctb.c **** * \snippet ctb_sut_01.cydsn/main_cm4.c CTB_HOLD_CODE_SNIPPET
 808:Generated_Source\PSoC6\pdl\drivers\peripheral\ctb/cy_ctb.c **** *
 809:Generated_Source\PSoC6\pdl\drivers\peripheral\ctb/cy_ctb.c **** *******************************************************************************/
 810:Generated_Source\PSoC6\pdl\drivers\peripheral\ctb/cy_ctb.c **** void Cy_CTB_DACSampleAndHold(CTBM_Type *base, cy_en_ctb_sample_hold_mode_t mode)
 811:Generated_Source\PSoC6\pdl\drivers\peripheral\ctb/cy_ctb.c **** {
 1549              		.loc 1 811 0
 1550              		.cfi_startproc
 1551              		@ args = 0, pretend = 0, frame = 0
 1552              		@ frame_needed = 0, uses_anonymous_args = 0
 1553              	.LVL124:
 1554 0000 38B5     		push	{r3, r4, r5, lr}
 1555              		.cfi_def_cfa_offset 16
 1556              		.cfi_offset 3, -16
 1557              		.cfi_offset 4, -12
 1558              		.cfi_offset 5, -8
 1559              		.cfi_offset 14, -4
 1560 0002 0546     		mov	r5, r0
 1561 0004 0C46     		mov	r4, r1
 812:Generated_Source\PSoC6\pdl\drivers\peripheral\ctb/cy_ctb.c ****     CY_ASSERT_L3(CY_CTB_SAMPLEHOLD(mode));
 1562              		.loc 1 812 0
 1563 0006 0429     		cmp	r1, #4
 1564 0008 04D9     		bls	.L152
 1565              		.loc 1 812 0 is_stmt 0 discriminator 1
 1566 000a 4FF44B71 		mov	r1, #812
 1567              	.LVL125:
 1568 000e 1548     		ldr	r0, .L161
 1569              	.LVL126:
 1570 0010 FFF7FEFF 		bl	Cy_SysLib_AssertFailed
 1571              	.LVL127:
 1572              	.L152:
 813:Generated_Source\PSoC6\pdl\drivers\peripheral\ctb/cy_ctb.c **** 
 814:Generated_Source\PSoC6\pdl\drivers\peripheral\ctb/cy_ctb.c ****     switch(mode)
 1573              		.loc 1 814 0 is_stmt 1
 1574 0014 032C     		cmp	r4, #3
 1575 0016 1FD8     		bhi	.L153
 1576 0018 DFE804F0 		tbb	[pc, r4]
 1577              	.L155:
 1578 001c 02       		.byte	(.L154-.L155)/2
 1579 001d 0B       		.byte	(.L156-.L155)/2
 1580 001e 14       		.byte	(.L157-.L155)/2
 1581 001f 19       		.byte	(.L158-.L155)/2
 1582              		.p2align 1
 1583              	.L154:
 815:Generated_Source\PSoC6\pdl\drivers\peripheral\ctb/cy_ctb.c ****     {
 816:Generated_Source\PSoC6\pdl\drivers\peripheral\ctb/cy_ctb.c ****     case CY_CTB_SH_DISABLE:
 817:Generated_Source\PSoC6\pdl\drivers\peripheral\ctb/cy_ctb.c ****         base->CTD_SW_CLEAR = (uint32_t) CY_CTB_SW_CTD_OUT_OA0_1X_OUT_MASK               /* Open COB
 1584              		.loc 1 817 0
 1585 0020 4FF45443 		mov	r3, #54272
 1586 0024 C5F8A430 		str	r3, [r5, #164]
 818:Generated_Source\PSoC6\pdl\drivers\peripheral\ctb/cy_ctb.c ****                              | (uint32_t) CY_CTB_SW_CTD_CHOLD_OA0_POS_ISOLATE_MASK      /* Open CIS
 819:Generated_Source\PSoC6\pdl\drivers\peripheral\ctb/cy_ctb.c ****                              | (uint32_t) CY_CTB_SW_CTD_CHOLD_LEAKAGE_REDUCTION_MASK    /* Open ILR
 820:Generated_Source\PSoC6\pdl\drivers\peripheral\ctb/cy_ctb.c ****                              | (uint32_t) CY_CTB_SW_CTD_CHOLD_CONNECT_MASK;             /* Open CHD
 821:Generated_Source\PSoC6\pdl\drivers\peripheral\ctb/cy_ctb.c ****         base->CTD_SW       = (uint32_t) CY_CTB_SW_CTD_OUT_CHOLD_MASK;                   /* Close CO
 1587              		.loc 1 821 0
ARM GAS  C:\Users\gjl\AppData\Local\Temp\cckcOS93.s 			page 78


 1588 0028 4FF40073 		mov	r3, #512
 1589 002c C5F8A030 		str	r3, [r5, #160]
 822:Generated_Source\PSoC6\pdl\drivers\peripheral\ctb/cy_ctb.c ****         break;
 1590              		.loc 1 822 0
 1591 0030 38BD     		pop	{r3, r4, r5, pc}
 1592              	.LVL128:
 1593              	.L156:
 823:Generated_Source\PSoC6\pdl\drivers\peripheral\ctb/cy_ctb.c ****     case CY_CTB_SH_PREPARE_SAMPLE:
 824:Generated_Source\PSoC6\pdl\drivers\peripheral\ctb/cy_ctb.c ****         base->CTD_SW_CLEAR = (uint32_t) CY_CTB_SW_CTD_OUT_OA0_1X_OUT_MASK               /* Open COB
 1594              		.loc 1 824 0
 1595 0032 4FF44443 		mov	r3, #50176
 1596 0036 C5F8A430 		str	r3, [r5, #164]
 825:Generated_Source\PSoC6\pdl\drivers\peripheral\ctb/cy_ctb.c ****                              | (uint32_t) CY_CTB_SW_CTD_CHOLD_OA0_POS_ISOLATE_MASK      /* Open CIS
 826:Generated_Source\PSoC6\pdl\drivers\peripheral\ctb/cy_ctb.c ****                              | (uint32_t) CY_CTB_SW_CTD_CHOLD_LEAKAGE_REDUCTION_MASK;   /* Open ILR
 827:Generated_Source\PSoC6\pdl\drivers\peripheral\ctb/cy_ctb.c ****         base->CTD_SW       = (uint32_t) CY_CTB_SW_CTD_CHOLD_CONNECT_MASK;               /* Close CH
 1597              		.loc 1 827 0
 1598 003a 4FF48053 		mov	r3, #4096
 1599 003e C5F8A030 		str	r3, [r5, #160]
 828:Generated_Source\PSoC6\pdl\drivers\peripheral\ctb/cy_ctb.c ****         break;
 1600              		.loc 1 828 0
 1601 0042 38BD     		pop	{r3, r4, r5, pc}
 1602              	.LVL129:
 1603              	.L157:
 829:Generated_Source\PSoC6\pdl\drivers\peripheral\ctb/cy_ctb.c ****     case CY_CTB_SH_SAMPLE:
 830:Generated_Source\PSoC6\pdl\drivers\peripheral\ctb/cy_ctb.c ****         base->CTD_SW       = (uint32_t) CY_CTB_SW_CTD_OUT_CHOLD_MASK;                   /* Close CO
 1604              		.loc 1 830 0
 1605 0044 4FF40073 		mov	r3, #512
 1606 0048 C5F8A030 		str	r3, [r5, #160]
 831:Generated_Source\PSoC6\pdl\drivers\peripheral\ctb/cy_ctb.c ****         break;
 1607              		.loc 1 831 0
 1608 004c 38BD     		pop	{r3, r4, r5, pc}
 1609              	.LVL130:
 1610              	.L158:
 832:Generated_Source\PSoC6\pdl\drivers\peripheral\ctb/cy_ctb.c ****     case CY_CTB_SH_PREPARE_HOLD:
 833:Generated_Source\PSoC6\pdl\drivers\peripheral\ctb/cy_ctb.c ****         base->CTD_SW_CLEAR = (uint32_t) CY_CTB_SW_CTD_OUT_CHOLD_MASK                    /* Open COS
 1611              		.loc 1 833 0
 1612 004e 4FF48443 		mov	r3, #16896
 1613 0052 C5F8A430 		str	r3, [r5, #164]
 834:Generated_Source\PSoC6\pdl\drivers\peripheral\ctb/cy_ctb.c ****                              | (uint32_t) CY_CTB_SW_CTD_CHOLD_OA0_POS_ISOLATE_MASK;     /* Open CIS
 835:Generated_Source\PSoC6\pdl\drivers\peripheral\ctb/cy_ctb.c ****         break;
 1614              		.loc 1 835 0
 1615 0056 38BD     		pop	{r3, r4, r5, pc}
 1616              	.LVL131:
 1617              	.L153:
 836:Generated_Source\PSoC6\pdl\drivers\peripheral\ctb/cy_ctb.c ****     case CY_CTB_SH_HOLD:
 837:Generated_Source\PSoC6\pdl\drivers\peripheral\ctb/cy_ctb.c ****     default:
 838:Generated_Source\PSoC6\pdl\drivers\peripheral\ctb/cy_ctb.c ****         base->CTD_SW       = (uint32_t) CY_CTB_SW_CTD_OUT_OA0_1X_OUT_MASK               /* Close CO
 1618              		.loc 1 838 0
 1619 0058 4FF40443 		mov	r3, #33792
 1620 005c C5F8A030 		str	r3, [r5, #160]
 1621 0060 38BD     		pop	{r3, r4, r5, pc}
 1622              	.LVL132:
 1623              	.L162:
 1624 0062 00BF     		.align	2
 1625              	.L161:
 1626 0064 00000000 		.word	.LC0
 1627              		.cfi_endproc
ARM GAS  C:\Users\gjl\AppData\Local\Temp\cckcOS93.s 			page 79


 1628              	.LFE190:
 1629              		.size	Cy_CTB_DACSampleAndHold, .-Cy_CTB_DACSampleAndHold
 1630              		.section	.text.Cy_CTB_OpampSetOffset,"ax",%progbits
 1631              		.align	2
 1632              		.global	Cy_CTB_OpampSetOffset
 1633              		.thumb
 1634              		.thumb_func
 1635              		.type	Cy_CTB_OpampSetOffset, %function
 1636              	Cy_CTB_OpampSetOffset:
 1637              	.LFB191:
 839:Generated_Source\PSoC6\pdl\drivers\peripheral\ctb/cy_ctb.c ****                              | (uint32_t) CY_CTB_SW_CTD_CHOLD_LEAKAGE_REDUCTION_MASK;   /* Close IL
 840:Generated_Source\PSoC6\pdl\drivers\peripheral\ctb/cy_ctb.c ****         break;
 841:Generated_Source\PSoC6\pdl\drivers\peripheral\ctb/cy_ctb.c ****     }
 842:Generated_Source\PSoC6\pdl\drivers\peripheral\ctb/cy_ctb.c **** }
 843:Generated_Source\PSoC6\pdl\drivers\peripheral\ctb/cy_ctb.c **** 
 844:Generated_Source\PSoC6\pdl\drivers\peripheral\ctb/cy_ctb.c **** /*******************************************************************************
 845:Generated_Source\PSoC6\pdl\drivers\peripheral\ctb/cy_ctb.c **** * Function Name: Cy_CTB_OpampSetOffset
 846:Generated_Source\PSoC6\pdl\drivers\peripheral\ctb/cy_ctb.c **** ****************************************************************************//**
 847:Generated_Source\PSoC6\pdl\drivers\peripheral\ctb/cy_ctb.c **** *
 848:Generated_Source\PSoC6\pdl\drivers\peripheral\ctb/cy_ctb.c **** * Override the CTB opamp offset factory trim.
 849:Generated_Source\PSoC6\pdl\drivers\peripheral\ctb/cy_ctb.c **** * The trim is a six bit value and the MSB is a direction bit.
 850:Generated_Source\PSoC6\pdl\drivers\peripheral\ctb/cy_ctb.c **** *
 851:Generated_Source\PSoC6\pdl\drivers\peripheral\ctb/cy_ctb.c **** * <table class="doxtable">
 852:Generated_Source\PSoC6\pdl\drivers\peripheral\ctb/cy_ctb.c **** *   <tr>
 853:Generated_Source\PSoC6\pdl\drivers\peripheral\ctb/cy_ctb.c **** *     <th>Bit 5</th>
 854:Generated_Source\PSoC6\pdl\drivers\peripheral\ctb/cy_ctb.c **** *     <th>Bits 4:0</th>
 855:Generated_Source\PSoC6\pdl\drivers\peripheral\ctb/cy_ctb.c **** *     <th>Note</th>
 856:Generated_Source\PSoC6\pdl\drivers\peripheral\ctb/cy_ctb.c **** *   </tr>
 857:Generated_Source\PSoC6\pdl\drivers\peripheral\ctb/cy_ctb.c **** *   <tr>
 858:Generated_Source\PSoC6\pdl\drivers\peripheral\ctb/cy_ctb.c **** *     <td>0</td>
 859:Generated_Source\PSoC6\pdl\drivers\peripheral\ctb/cy_ctb.c **** *     <td>00000</td>
 860:Generated_Source\PSoC6\pdl\drivers\peripheral\ctb/cy_ctb.c **** *     <td>Negative trim direction - minimum setting</td>
 861:Generated_Source\PSoC6\pdl\drivers\peripheral\ctb/cy_ctb.c **** *   </tr>
 862:Generated_Source\PSoC6\pdl\drivers\peripheral\ctb/cy_ctb.c **** *   <tr>
 863:Generated_Source\PSoC6\pdl\drivers\peripheral\ctb/cy_ctb.c **** *     <td>0</td>
 864:Generated_Source\PSoC6\pdl\drivers\peripheral\ctb/cy_ctb.c **** *     <td>11111</td>
 865:Generated_Source\PSoC6\pdl\drivers\peripheral\ctb/cy_ctb.c **** *     <td>Negative trim direction - maximum setting</td>
 866:Generated_Source\PSoC6\pdl\drivers\peripheral\ctb/cy_ctb.c **** *   </tr>
 867:Generated_Source\PSoC6\pdl\drivers\peripheral\ctb/cy_ctb.c **** *   <tr>
 868:Generated_Source\PSoC6\pdl\drivers\peripheral\ctb/cy_ctb.c **** *     <td>1</td>
 869:Generated_Source\PSoC6\pdl\drivers\peripheral\ctb/cy_ctb.c **** *     <td>00000</td>
 870:Generated_Source\PSoC6\pdl\drivers\peripheral\ctb/cy_ctb.c **** *     <td>Positive trim direction - minimum setting</td>
 871:Generated_Source\PSoC6\pdl\drivers\peripheral\ctb/cy_ctb.c **** *   </tr>
 872:Generated_Source\PSoC6\pdl\drivers\peripheral\ctb/cy_ctb.c **** *   <tr>
 873:Generated_Source\PSoC6\pdl\drivers\peripheral\ctb/cy_ctb.c **** *     <td>1</td>
 874:Generated_Source\PSoC6\pdl\drivers\peripheral\ctb/cy_ctb.c **** *     <td>11111</td>
 875:Generated_Source\PSoC6\pdl\drivers\peripheral\ctb/cy_ctb.c **** *     <td>Positive trim direction - maximum setting</td>
 876:Generated_Source\PSoC6\pdl\drivers\peripheral\ctb/cy_ctb.c **** *   </tr>
 877:Generated_Source\PSoC6\pdl\drivers\peripheral\ctb/cy_ctb.c **** * </table>
 878:Generated_Source\PSoC6\pdl\drivers\peripheral\ctb/cy_ctb.c **** *
 879:Generated_Source\PSoC6\pdl\drivers\peripheral\ctb/cy_ctb.c **** * \param base
 880:Generated_Source\PSoC6\pdl\drivers\peripheral\ctb/cy_ctb.c **** * Pointer to structure describing registers
 881:Generated_Source\PSoC6\pdl\drivers\peripheral\ctb/cy_ctb.c **** *
 882:Generated_Source\PSoC6\pdl\drivers\peripheral\ctb/cy_ctb.c **** * \param opampNum
 883:Generated_Source\PSoC6\pdl\drivers\peripheral\ctb/cy_ctb.c **** * \ref CY_CTB_OPAMP_0, \ref CY_CTB_OPAMP_1, or \ref CY_CTB_OPAMP_BOTH
 884:Generated_Source\PSoC6\pdl\drivers\peripheral\ctb/cy_ctb.c **** *
 885:Generated_Source\PSoC6\pdl\drivers\peripheral\ctb/cy_ctb.c **** * \param trim
ARM GAS  C:\Users\gjl\AppData\Local\Temp\cckcOS93.s 			page 80


 886:Generated_Source\PSoC6\pdl\drivers\peripheral\ctb/cy_ctb.c **** * Trim value from 0 to 63
 887:Generated_Source\PSoC6\pdl\drivers\peripheral\ctb/cy_ctb.c **** *
 888:Generated_Source\PSoC6\pdl\drivers\peripheral\ctb/cy_ctb.c **** * \return None
 889:Generated_Source\PSoC6\pdl\drivers\peripheral\ctb/cy_ctb.c **** *
 890:Generated_Source\PSoC6\pdl\drivers\peripheral\ctb/cy_ctb.c **** * \funcusage
 891:Generated_Source\PSoC6\pdl\drivers\peripheral\ctb/cy_ctb.c **** *
 892:Generated_Source\PSoC6\pdl\drivers\peripheral\ctb/cy_ctb.c **** * \snippet ctb_sut_01.cydsn/main_cm4.c CTB_SNIPPET_SET_OFFSET_TRIM
 893:Generated_Source\PSoC6\pdl\drivers\peripheral\ctb/cy_ctb.c **** *
 894:Generated_Source\PSoC6\pdl\drivers\peripheral\ctb/cy_ctb.c **** *******************************************************************************/
 895:Generated_Source\PSoC6\pdl\drivers\peripheral\ctb/cy_ctb.c **** void Cy_CTB_OpampSetOffset(CTBM_Type *base, cy_en_ctb_opamp_sel_t opampNum, uint32_t trim)
 896:Generated_Source\PSoC6\pdl\drivers\peripheral\ctb/cy_ctb.c **** {
 1638              		.loc 1 896 0
 1639              		.cfi_startproc
 1640              		@ args = 0, pretend = 0, frame = 0
 1641              		@ frame_needed = 0, uses_anonymous_args = 0
 1642              	.LVL133:
 1643 0000 70B5     		push	{r4, r5, r6, lr}
 1644              		.cfi_def_cfa_offset 16
 1645              		.cfi_offset 4, -16
 1646              		.cfi_offset 5, -12
 1647              		.cfi_offset 6, -8
 1648              		.cfi_offset 14, -4
 1649 0002 0646     		mov	r6, r0
 1650 0004 0C46     		mov	r4, r1
 1651 0006 1546     		mov	r5, r2
 897:Generated_Source\PSoC6\pdl\drivers\peripheral\ctb/cy_ctb.c ****     CY_ASSERT_L3(CY_CTB_OPAMPNUM(opampNum));
 1652              		.loc 1 897 0
 1653 0008 4B1E     		subs	r3, r1, #1
 1654 000a DBB2     		uxtb	r3, r3
 1655 000c 022B     		cmp	r3, #2
 1656 000e 04D9     		bls	.L164
 1657              		.loc 1 897 0 is_stmt 0 discriminator 1
 1658 0010 40F28131 		movw	r1, #897
 1659              	.LVL134:
 1660 0014 0D48     		ldr	r0, .L170
 1661              	.LVL135:
 1662 0016 FFF7FEFF 		bl	Cy_SysLib_AssertFailed
 1663              	.LVL136:
 1664              	.L164:
 898:Generated_Source\PSoC6\pdl\drivers\peripheral\ctb/cy_ctb.c ****     CY_ASSERT_L2(CY_CTB_TRIM(trim));
 1665              		.loc 1 898 0 is_stmt 1
 1666 001a 3F2D     		cmp	r5, #63
 1667 001c 04D9     		bls	.L165
 1668              		.loc 1 898 0 is_stmt 0 discriminator 1
 1669 001e 40F28231 		movw	r1, #898
 1670 0022 0A48     		ldr	r0, .L170
 1671 0024 FFF7FEFF 		bl	Cy_SysLib_AssertFailed
 1672              	.LVL137:
 1673              	.L165:
 899:Generated_Source\PSoC6\pdl\drivers\peripheral\ctb/cy_ctb.c **** 
 900:Generated_Source\PSoC6\pdl\drivers\peripheral\ctb/cy_ctb.c ****     if ((opampNum == CY_CTB_OPAMP_0) || (opampNum == CY_CTB_OPAMP_BOTH))
 1674              		.loc 1 900 0 is_stmt 1
 1675 0028 012C     		cmp	r4, #1
 1676 002a 01D0     		beq	.L166
 1677              		.loc 1 900 0 is_stmt 0 discriminator 1
 1678 002c 032C     		cmp	r4, #3
 1679 002e 03D1     		bne	.L167
ARM GAS  C:\Users\gjl\AppData\Local\Temp\cckcOS93.s 			page 81


 1680              	.L166:
 901:Generated_Source\PSoC6\pdl\drivers\peripheral\ctb/cy_ctb.c ****     {
 902:Generated_Source\PSoC6\pdl\drivers\peripheral\ctb/cy_ctb.c ****         base->OA0_OFFSET_TRIM = (trim << CTBM_OA0_OFFSET_TRIM_OA0_OFFSET_TRIM_Pos) & CTBM_OA0_OFFSE
 1681              		.loc 1 902 0 is_stmt 1
 1682 0030 05F03F03 		and	r3, r5, #63
 1683 0034 C6F8003F 		str	r3, [r6, #3840]
 1684              	.L167:
 903:Generated_Source\PSoC6\pdl\drivers\peripheral\ctb/cy_ctb.c ****     }
 904:Generated_Source\PSoC6\pdl\drivers\peripheral\ctb/cy_ctb.c **** 
 905:Generated_Source\PSoC6\pdl\drivers\peripheral\ctb/cy_ctb.c ****     if ((opampNum == CY_CTB_OPAMP_1) || (opampNum == CY_CTB_OPAMP_BOTH))
 1685              		.loc 1 905 0
 1686 0038 023C     		subs	r4, r4, #2
 1687 003a E4B2     		uxtb	r4, r4
 1688 003c 012C     		cmp	r4, #1
 1689 003e 03D8     		bhi	.L163
 906:Generated_Source\PSoC6\pdl\drivers\peripheral\ctb/cy_ctb.c ****     {
 907:Generated_Source\PSoC6\pdl\drivers\peripheral\ctb/cy_ctb.c ****         base->OA1_OFFSET_TRIM = (trim << CTBM_OA1_OFFSET_TRIM_OA1_OFFSET_TRIM_Pos) & CTBM_OA1_OFFSE
 1690              		.loc 1 907 0
 1691 0040 05F03F05 		and	r5, r5, #63
 1692              	.LVL138:
 1693 0044 C6F80C5F 		str	r5, [r6, #3852]
 1694              	.L163:
 1695 0048 70BD     		pop	{r4, r5, r6, pc}
 1696              	.LVL139:
 1697              	.L171:
 1698 004a 00BF     		.align	2
 1699              	.L170:
 1700 004c 00000000 		.word	.LC0
 1701              		.cfi_endproc
 1702              	.LFE191:
 1703              		.size	Cy_CTB_OpampSetOffset, .-Cy_CTB_OpampSetOffset
 1704              		.section	.text.Cy_CTB_OpampGetOffset,"ax",%progbits
 1705              		.align	2
 1706              		.global	Cy_CTB_OpampGetOffset
 1707              		.thumb
 1708              		.thumb_func
 1709              		.type	Cy_CTB_OpampGetOffset, %function
 1710              	Cy_CTB_OpampGetOffset:
 1711              	.LFB192:
 908:Generated_Source\PSoC6\pdl\drivers\peripheral\ctb/cy_ctb.c ****     }
 909:Generated_Source\PSoC6\pdl\drivers\peripheral\ctb/cy_ctb.c **** }
 910:Generated_Source\PSoC6\pdl\drivers\peripheral\ctb/cy_ctb.c **** 
 911:Generated_Source\PSoC6\pdl\drivers\peripheral\ctb/cy_ctb.c **** /*******************************************************************************
 912:Generated_Source\PSoC6\pdl\drivers\peripheral\ctb/cy_ctb.c **** * Function Name: Cy_CTB_OpampGetOffset
 913:Generated_Source\PSoC6\pdl\drivers\peripheral\ctb/cy_ctb.c **** ****************************************************************************//**
 914:Generated_Source\PSoC6\pdl\drivers\peripheral\ctb/cy_ctb.c **** *
 915:Generated_Source\PSoC6\pdl\drivers\peripheral\ctb/cy_ctb.c **** * Return the current CTB opamp offset trim value.
 916:Generated_Source\PSoC6\pdl\drivers\peripheral\ctb/cy_ctb.c **** *
 917:Generated_Source\PSoC6\pdl\drivers\peripheral\ctb/cy_ctb.c **** * \param base
 918:Generated_Source\PSoC6\pdl\drivers\peripheral\ctb/cy_ctb.c **** * Pointer to structure describing registers
 919:Generated_Source\PSoC6\pdl\drivers\peripheral\ctb/cy_ctb.c **** *
 920:Generated_Source\PSoC6\pdl\drivers\peripheral\ctb/cy_ctb.c **** * \param opampNum
 921:Generated_Source\PSoC6\pdl\drivers\peripheral\ctb/cy_ctb.c **** * \ref CY_CTB_OPAMP_0 or \ref CY_CTB_OPAMP_1
 922:Generated_Source\PSoC6\pdl\drivers\peripheral\ctb/cy_ctb.c **** *
 923:Generated_Source\PSoC6\pdl\drivers\peripheral\ctb/cy_ctb.c **** * \return Offset trim value
 924:Generated_Source\PSoC6\pdl\drivers\peripheral\ctb/cy_ctb.c **** *
 925:Generated_Source\PSoC6\pdl\drivers\peripheral\ctb/cy_ctb.c **** * \funcusage
ARM GAS  C:\Users\gjl\AppData\Local\Temp\cckcOS93.s 			page 82


 926:Generated_Source\PSoC6\pdl\drivers\peripheral\ctb/cy_ctb.c **** *
 927:Generated_Source\PSoC6\pdl\drivers\peripheral\ctb/cy_ctb.c **** * \snippet ctb_sut_01.cydsn/main_cm4.c CTB_SNIPPET_GET_OFFSET_TRIM
 928:Generated_Source\PSoC6\pdl\drivers\peripheral\ctb/cy_ctb.c **** *
 929:Generated_Source\PSoC6\pdl\drivers\peripheral\ctb/cy_ctb.c **** *******************************************************************************/
 930:Generated_Source\PSoC6\pdl\drivers\peripheral\ctb/cy_ctb.c **** uint32_t Cy_CTB_OpampGetOffset(const CTBM_Type *base, cy_en_ctb_opamp_sel_t opampNum)
 931:Generated_Source\PSoC6\pdl\drivers\peripheral\ctb/cy_ctb.c **** {
 1712              		.loc 1 931 0
 1713              		.cfi_startproc
 1714              		@ args = 0, pretend = 0, frame = 0
 1715              		@ frame_needed = 0, uses_anonymous_args = 0
 1716              	.LVL140:
 1717 0000 38B5     		push	{r3, r4, r5, lr}
 1718              		.cfi_def_cfa_offset 16
 1719              		.cfi_offset 3, -16
 1720              		.cfi_offset 4, -12
 1721              		.cfi_offset 5, -8
 1722              		.cfi_offset 14, -4
 1723 0002 0546     		mov	r5, r0
 1724 0004 0C46     		mov	r4, r1
 932:Generated_Source\PSoC6\pdl\drivers\peripheral\ctb/cy_ctb.c ****     CY_ASSERT_L3(CY_CTB_OPAMPNUM_0_1(opampNum));
 1725              		.loc 1 932 0
 1726 0006 4B1E     		subs	r3, r1, #1
 1727 0008 DBB2     		uxtb	r3, r3
 1728 000a 012B     		cmp	r3, #1
 1729 000c 04D9     		bls	.L173
 1730              		.loc 1 932 0 is_stmt 0 discriminator 1
 1731 000e 4FF46971 		mov	r1, #932
 1732              	.LVL141:
 1733 0012 0548     		ldr	r0, .L177
 1734              	.LVL142:
 1735 0014 FFF7FEFF 		bl	Cy_SysLib_AssertFailed
 1736              	.LVL143:
 1737              	.L173:
 933:Generated_Source\PSoC6\pdl\drivers\peripheral\ctb/cy_ctb.c **** 
 934:Generated_Source\PSoC6\pdl\drivers\peripheral\ctb/cy_ctb.c ****     uint32_t trimReg;
 935:Generated_Source\PSoC6\pdl\drivers\peripheral\ctb/cy_ctb.c **** 
 936:Generated_Source\PSoC6\pdl\drivers\peripheral\ctb/cy_ctb.c ****     if (opampNum == CY_CTB_OPAMP_0)
 1738              		.loc 1 936 0 is_stmt 1
 1739 0018 012C     		cmp	r4, #1
 1740 001a 02D1     		bne	.L174
 937:Generated_Source\PSoC6\pdl\drivers\peripheral\ctb/cy_ctb.c ****     {
 938:Generated_Source\PSoC6\pdl\drivers\peripheral\ctb/cy_ctb.c ****         trimReg = base->OA0_OFFSET_TRIM;
 1741              		.loc 1 938 0
 1742 001c D5F8000F 		ldr	r0, [r5, #3840]
 1743              	.LVL144:
 1744 0020 38BD     		pop	{r3, r4, r5, pc}
 1745              	.LVL145:
 1746              	.L174:
 939:Generated_Source\PSoC6\pdl\drivers\peripheral\ctb/cy_ctb.c ****     }
 940:Generated_Source\PSoC6\pdl\drivers\peripheral\ctb/cy_ctb.c ****     else
 941:Generated_Source\PSoC6\pdl\drivers\peripheral\ctb/cy_ctb.c ****     {
 942:Generated_Source\PSoC6\pdl\drivers\peripheral\ctb/cy_ctb.c ****         trimReg = base->OA1_OFFSET_TRIM;
 1747              		.loc 1 942 0
 1748 0022 D5F80C0F 		ldr	r0, [r5, #3852]
 1749              	.LVL146:
 943:Generated_Source\PSoC6\pdl\drivers\peripheral\ctb/cy_ctb.c ****     }
 944:Generated_Source\PSoC6\pdl\drivers\peripheral\ctb/cy_ctb.c **** 
ARM GAS  C:\Users\gjl\AppData\Local\Temp\cckcOS93.s 			page 83


 945:Generated_Source\PSoC6\pdl\drivers\peripheral\ctb/cy_ctb.c ****     return trimReg;
 946:Generated_Source\PSoC6\pdl\drivers\peripheral\ctb/cy_ctb.c **** }
 1750              		.loc 1 946 0
 1751 0026 38BD     		pop	{r3, r4, r5, pc}
 1752              	.LVL147:
 1753              	.L178:
 1754              		.align	2
 1755              	.L177:
 1756 0028 00000000 		.word	.LC0
 1757              		.cfi_endproc
 1758              	.LFE192:
 1759              		.size	Cy_CTB_OpampGetOffset, .-Cy_CTB_OpampGetOffset
 1760              		.section	.text.Cy_CTB_OpampSetSlope,"ax",%progbits
 1761              		.align	2
 1762              		.global	Cy_CTB_OpampSetSlope
 1763              		.thumb
 1764              		.thumb_func
 1765              		.type	Cy_CTB_OpampSetSlope, %function
 1766              	Cy_CTB_OpampSetSlope:
 1767              	.LFB193:
 947:Generated_Source\PSoC6\pdl\drivers\peripheral\ctb/cy_ctb.c **** 
 948:Generated_Source\PSoC6\pdl\drivers\peripheral\ctb/cy_ctb.c **** /*******************************************************************************
 949:Generated_Source\PSoC6\pdl\drivers\peripheral\ctb/cy_ctb.c **** * Function Name: Cy_CTB_OpampSetSlope
 950:Generated_Source\PSoC6\pdl\drivers\peripheral\ctb/cy_ctb.c **** ****************************************************************************//**
 951:Generated_Source\PSoC6\pdl\drivers\peripheral\ctb/cy_ctb.c **** *
 952:Generated_Source\PSoC6\pdl\drivers\peripheral\ctb/cy_ctb.c **** * Override the CTB opamp slope factory trim.
 953:Generated_Source\PSoC6\pdl\drivers\peripheral\ctb/cy_ctb.c **** * The offset of the opamp will vary across temperature.
 954:Generated_Source\PSoC6\pdl\drivers\peripheral\ctb/cy_ctb.c **** * This trim compensates for the slope of the offset across temperature.
 955:Generated_Source\PSoC6\pdl\drivers\peripheral\ctb/cy_ctb.c **** * This compensation uses a bias current from the Analaog Reference block.
 956:Generated_Source\PSoC6\pdl\drivers\peripheral\ctb/cy_ctb.c **** * To disable it, set the trim to 0.
 957:Generated_Source\PSoC6\pdl\drivers\peripheral\ctb/cy_ctb.c **** *
 958:Generated_Source\PSoC6\pdl\drivers\peripheral\ctb/cy_ctb.c **** * The trim is a six bit value and the MSB is a direction bit.
 959:Generated_Source\PSoC6\pdl\drivers\peripheral\ctb/cy_ctb.c **** *
 960:Generated_Source\PSoC6\pdl\drivers\peripheral\ctb/cy_ctb.c **** * <table class="doxtable">
 961:Generated_Source\PSoC6\pdl\drivers\peripheral\ctb/cy_ctb.c **** *   <tr>
 962:Generated_Source\PSoC6\pdl\drivers\peripheral\ctb/cy_ctb.c **** *     <th>Bit 5</th>
 963:Generated_Source\PSoC6\pdl\drivers\peripheral\ctb/cy_ctb.c **** *     <th>Bits 4:0</th>
 964:Generated_Source\PSoC6\pdl\drivers\peripheral\ctb/cy_ctb.c **** *     <th>Note</th>
 965:Generated_Source\PSoC6\pdl\drivers\peripheral\ctb/cy_ctb.c **** *   </tr>
 966:Generated_Source\PSoC6\pdl\drivers\peripheral\ctb/cy_ctb.c **** *   <tr>
 967:Generated_Source\PSoC6\pdl\drivers\peripheral\ctb/cy_ctb.c **** *     <td>0</td>
 968:Generated_Source\PSoC6\pdl\drivers\peripheral\ctb/cy_ctb.c **** *     <td>00000</td>
 969:Generated_Source\PSoC6\pdl\drivers\peripheral\ctb/cy_ctb.c **** *     <td>Negative trim direction - minimum setting</td>
 970:Generated_Source\PSoC6\pdl\drivers\peripheral\ctb/cy_ctb.c **** *   </tr>
 971:Generated_Source\PSoC6\pdl\drivers\peripheral\ctb/cy_ctb.c **** *   <tr>
 972:Generated_Source\PSoC6\pdl\drivers\peripheral\ctb/cy_ctb.c **** *     <td>0</td>
 973:Generated_Source\PSoC6\pdl\drivers\peripheral\ctb/cy_ctb.c **** *     <td>11111</td>
 974:Generated_Source\PSoC6\pdl\drivers\peripheral\ctb/cy_ctb.c **** *     <td>Negative trim direction - maximum setting</td>
 975:Generated_Source\PSoC6\pdl\drivers\peripheral\ctb/cy_ctb.c **** *   </tr>
 976:Generated_Source\PSoC6\pdl\drivers\peripheral\ctb/cy_ctb.c **** *   <tr>
 977:Generated_Source\PSoC6\pdl\drivers\peripheral\ctb/cy_ctb.c **** *     <td>1</td>
 978:Generated_Source\PSoC6\pdl\drivers\peripheral\ctb/cy_ctb.c **** *     <td>00000</td>
 979:Generated_Source\PSoC6\pdl\drivers\peripheral\ctb/cy_ctb.c **** *     <td>Positive trim direction - minimum setting</td>
 980:Generated_Source\PSoC6\pdl\drivers\peripheral\ctb/cy_ctb.c **** *   </tr>
 981:Generated_Source\PSoC6\pdl\drivers\peripheral\ctb/cy_ctb.c **** *   <tr>
 982:Generated_Source\PSoC6\pdl\drivers\peripheral\ctb/cy_ctb.c **** *     <td>1</td>
 983:Generated_Source\PSoC6\pdl\drivers\peripheral\ctb/cy_ctb.c **** *     <td>11111</td>
ARM GAS  C:\Users\gjl\AppData\Local\Temp\cckcOS93.s 			page 84


 984:Generated_Source\PSoC6\pdl\drivers\peripheral\ctb/cy_ctb.c **** *     <td>Positive trim direction - maximum setting</td>
 985:Generated_Source\PSoC6\pdl\drivers\peripheral\ctb/cy_ctb.c **** *   </tr>
 986:Generated_Source\PSoC6\pdl\drivers\peripheral\ctb/cy_ctb.c **** * </table>
 987:Generated_Source\PSoC6\pdl\drivers\peripheral\ctb/cy_ctb.c **** *
 988:Generated_Source\PSoC6\pdl\drivers\peripheral\ctb/cy_ctb.c **** * \param base
 989:Generated_Source\PSoC6\pdl\drivers\peripheral\ctb/cy_ctb.c **** * Pointer to structure describing registers
 990:Generated_Source\PSoC6\pdl\drivers\peripheral\ctb/cy_ctb.c **** *
 991:Generated_Source\PSoC6\pdl\drivers\peripheral\ctb/cy_ctb.c **** * \param opampNum
 992:Generated_Source\PSoC6\pdl\drivers\peripheral\ctb/cy_ctb.c **** * \ref CY_CTB_OPAMP_0, \ref CY_CTB_OPAMP_1, or \ref CY_CTB_OPAMP_BOTH
 993:Generated_Source\PSoC6\pdl\drivers\peripheral\ctb/cy_ctb.c **** *
 994:Generated_Source\PSoC6\pdl\drivers\peripheral\ctb/cy_ctb.c **** * \param trim
 995:Generated_Source\PSoC6\pdl\drivers\peripheral\ctb/cy_ctb.c **** * Trim value from 0 to 63
 996:Generated_Source\PSoC6\pdl\drivers\peripheral\ctb/cy_ctb.c **** *
 997:Generated_Source\PSoC6\pdl\drivers\peripheral\ctb/cy_ctb.c **** * \return None
 998:Generated_Source\PSoC6\pdl\drivers\peripheral\ctb/cy_ctb.c **** *
 999:Generated_Source\PSoC6\pdl\drivers\peripheral\ctb/cy_ctb.c **** * \funcusage
1000:Generated_Source\PSoC6\pdl\drivers\peripheral\ctb/cy_ctb.c **** *
1001:Generated_Source\PSoC6\pdl\drivers\peripheral\ctb/cy_ctb.c **** * \snippet ctb_sut_01.cydsn/main_cm4.c CTB_SNIPPET_SET_SLOPE_TRIM
1002:Generated_Source\PSoC6\pdl\drivers\peripheral\ctb/cy_ctb.c **** *
1003:Generated_Source\PSoC6\pdl\drivers\peripheral\ctb/cy_ctb.c **** *******************************************************************************/
1004:Generated_Source\PSoC6\pdl\drivers\peripheral\ctb/cy_ctb.c **** void Cy_CTB_OpampSetSlope(CTBM_Type *base, cy_en_ctb_opamp_sel_t opampNum, uint32_t trim)
1005:Generated_Source\PSoC6\pdl\drivers\peripheral\ctb/cy_ctb.c **** {
 1768              		.loc 1 1005 0
 1769              		.cfi_startproc
 1770              		@ args = 0, pretend = 0, frame = 0
 1771              		@ frame_needed = 0, uses_anonymous_args = 0
 1772              	.LVL148:
 1773 0000 70B5     		push	{r4, r5, r6, lr}
 1774              		.cfi_def_cfa_offset 16
 1775              		.cfi_offset 4, -16
 1776              		.cfi_offset 5, -12
 1777              		.cfi_offset 6, -8
 1778              		.cfi_offset 14, -4
 1779 0002 0646     		mov	r6, r0
 1780 0004 0C46     		mov	r4, r1
 1781 0006 1546     		mov	r5, r2
1006:Generated_Source\PSoC6\pdl\drivers\peripheral\ctb/cy_ctb.c ****     CY_ASSERT_L3(CY_CTB_OPAMPNUM(opampNum));
 1782              		.loc 1 1006 0
 1783 0008 4B1E     		subs	r3, r1, #1
 1784 000a DBB2     		uxtb	r3, r3
 1785 000c 022B     		cmp	r3, #2
 1786 000e 04D9     		bls	.L180
 1787              		.loc 1 1006 0 is_stmt 0 discriminator 1
 1788 0010 40F2EE31 		movw	r1, #1006
 1789              	.LVL149:
 1790 0014 0D48     		ldr	r0, .L186
 1791              	.LVL150:
 1792 0016 FFF7FEFF 		bl	Cy_SysLib_AssertFailed
 1793              	.LVL151:
 1794              	.L180:
1007:Generated_Source\PSoC6\pdl\drivers\peripheral\ctb/cy_ctb.c ****     CY_ASSERT_L2(CY_CTB_TRIM(trim));
 1795              		.loc 1 1007 0 is_stmt 1
 1796 001a 3F2D     		cmp	r5, #63
 1797 001c 04D9     		bls	.L181
 1798              		.loc 1 1007 0 is_stmt 0 discriminator 1
 1799 001e 40F2EF31 		movw	r1, #1007
 1800 0022 0A48     		ldr	r0, .L186
ARM GAS  C:\Users\gjl\AppData\Local\Temp\cckcOS93.s 			page 85


 1801 0024 FFF7FEFF 		bl	Cy_SysLib_AssertFailed
 1802              	.LVL152:
 1803              	.L181:
1008:Generated_Source\PSoC6\pdl\drivers\peripheral\ctb/cy_ctb.c **** 
1009:Generated_Source\PSoC6\pdl\drivers\peripheral\ctb/cy_ctb.c ****     if ((opampNum == CY_CTB_OPAMP_0) || (opampNum == CY_CTB_OPAMP_BOTH))
 1804              		.loc 1 1009 0 is_stmt 1
 1805 0028 012C     		cmp	r4, #1
 1806 002a 01D0     		beq	.L182
 1807              		.loc 1 1009 0 is_stmt 0 discriminator 1
 1808 002c 032C     		cmp	r4, #3
 1809 002e 03D1     		bne	.L183
 1810              	.L182:
1010:Generated_Source\PSoC6\pdl\drivers\peripheral\ctb/cy_ctb.c ****     {
1011:Generated_Source\PSoC6\pdl\drivers\peripheral\ctb/cy_ctb.c ****         base->OA0_SLOPE_OFFSET_TRIM = (trim << CTBM_OA0_SLOPE_OFFSET_TRIM_OA0_SLOPE_OFFSET_TRIM_Pos
 1811              		.loc 1 1011 0 is_stmt 1
 1812 0030 05F03F03 		and	r3, r5, #63
 1813 0034 C6F8043F 		str	r3, [r6, #3844]
 1814              	.L183:
1012:Generated_Source\PSoC6\pdl\drivers\peripheral\ctb/cy_ctb.c ****     }
1013:Generated_Source\PSoC6\pdl\drivers\peripheral\ctb/cy_ctb.c **** 
1014:Generated_Source\PSoC6\pdl\drivers\peripheral\ctb/cy_ctb.c ****     if ((opampNum == CY_CTB_OPAMP_1) || (opampNum == CY_CTB_OPAMP_BOTH))
 1815              		.loc 1 1014 0
 1816 0038 023C     		subs	r4, r4, #2
 1817 003a E4B2     		uxtb	r4, r4
 1818 003c 012C     		cmp	r4, #1
 1819 003e 03D8     		bhi	.L179
1015:Generated_Source\PSoC6\pdl\drivers\peripheral\ctb/cy_ctb.c ****     {
1016:Generated_Source\PSoC6\pdl\drivers\peripheral\ctb/cy_ctb.c ****         base->OA1_SLOPE_OFFSET_TRIM = (trim << CTBM_OA1_SLOPE_OFFSET_TRIM_OA1_SLOPE_OFFSET_TRIM_Pos
 1820              		.loc 1 1016 0
 1821 0040 05F03F05 		and	r5, r5, #63
 1822              	.LVL153:
 1823 0044 C6F8105F 		str	r5, [r6, #3856]
 1824              	.L179:
 1825 0048 70BD     		pop	{r4, r5, r6, pc}
 1826              	.LVL154:
 1827              	.L187:
 1828 004a 00BF     		.align	2
 1829              	.L186:
 1830 004c 00000000 		.word	.LC0
 1831              		.cfi_endproc
 1832              	.LFE193:
 1833              		.size	Cy_CTB_OpampSetSlope, .-Cy_CTB_OpampSetSlope
 1834              		.section	.text.Cy_CTB_OpampGetSlope,"ax",%progbits
 1835              		.align	2
 1836              		.global	Cy_CTB_OpampGetSlope
 1837              		.thumb
 1838              		.thumb_func
 1839              		.type	Cy_CTB_OpampGetSlope, %function
 1840              	Cy_CTB_OpampGetSlope:
 1841              	.LFB194:
1017:Generated_Source\PSoC6\pdl\drivers\peripheral\ctb/cy_ctb.c ****     }
1018:Generated_Source\PSoC6\pdl\drivers\peripheral\ctb/cy_ctb.c **** }
1019:Generated_Source\PSoC6\pdl\drivers\peripheral\ctb/cy_ctb.c **** 
1020:Generated_Source\PSoC6\pdl\drivers\peripheral\ctb/cy_ctb.c **** /*******************************************************************************
1021:Generated_Source\PSoC6\pdl\drivers\peripheral\ctb/cy_ctb.c **** * Function Name: Cy_CTB_OpampGetSlope
1022:Generated_Source\PSoC6\pdl\drivers\peripheral\ctb/cy_ctb.c **** ****************************************************************************//**
1023:Generated_Source\PSoC6\pdl\drivers\peripheral\ctb/cy_ctb.c **** *
ARM GAS  C:\Users\gjl\AppData\Local\Temp\cckcOS93.s 			page 86


1024:Generated_Source\PSoC6\pdl\drivers\peripheral\ctb/cy_ctb.c **** * Return the CTB opamp slope trim value.
1025:Generated_Source\PSoC6\pdl\drivers\peripheral\ctb/cy_ctb.c **** *
1026:Generated_Source\PSoC6\pdl\drivers\peripheral\ctb/cy_ctb.c **** * \param base
1027:Generated_Source\PSoC6\pdl\drivers\peripheral\ctb/cy_ctb.c **** * Pointer to structure describing registers
1028:Generated_Source\PSoC6\pdl\drivers\peripheral\ctb/cy_ctb.c **** *
1029:Generated_Source\PSoC6\pdl\drivers\peripheral\ctb/cy_ctb.c **** * \param opampNum
1030:Generated_Source\PSoC6\pdl\drivers\peripheral\ctb/cy_ctb.c **** * \ref CY_CTB_OPAMP_0 or \ref CY_CTB_OPAMP_1
1031:Generated_Source\PSoC6\pdl\drivers\peripheral\ctb/cy_ctb.c **** *
1032:Generated_Source\PSoC6\pdl\drivers\peripheral\ctb/cy_ctb.c **** * \return Slope trim value
1033:Generated_Source\PSoC6\pdl\drivers\peripheral\ctb/cy_ctb.c **** *
1034:Generated_Source\PSoC6\pdl\drivers\peripheral\ctb/cy_ctb.c **** * \funcusage
1035:Generated_Source\PSoC6\pdl\drivers\peripheral\ctb/cy_ctb.c **** *
1036:Generated_Source\PSoC6\pdl\drivers\peripheral\ctb/cy_ctb.c **** * \snippet ctb_sut_01.cydsn/main_cm4.c CTB_SNIPPET_GET_SLOPE_TRIM
1037:Generated_Source\PSoC6\pdl\drivers\peripheral\ctb/cy_ctb.c **** *
1038:Generated_Source\PSoC6\pdl\drivers\peripheral\ctb/cy_ctb.c **** *******************************************************************************/
1039:Generated_Source\PSoC6\pdl\drivers\peripheral\ctb/cy_ctb.c **** uint32_t Cy_CTB_OpampGetSlope(const CTBM_Type *base, cy_en_ctb_opamp_sel_t opampNum)
1040:Generated_Source\PSoC6\pdl\drivers\peripheral\ctb/cy_ctb.c **** {
 1842              		.loc 1 1040 0
 1843              		.cfi_startproc
 1844              		@ args = 0, pretend = 0, frame = 0
 1845              		@ frame_needed = 0, uses_anonymous_args = 0
 1846              	.LVL155:
 1847 0000 38B5     		push	{r3, r4, r5, lr}
 1848              		.cfi_def_cfa_offset 16
 1849              		.cfi_offset 3, -16
 1850              		.cfi_offset 4, -12
 1851              		.cfi_offset 5, -8
 1852              		.cfi_offset 14, -4
 1853 0002 0546     		mov	r5, r0
 1854 0004 0C46     		mov	r4, r1
1041:Generated_Source\PSoC6\pdl\drivers\peripheral\ctb/cy_ctb.c ****     CY_ASSERT_L3(CY_CTB_OPAMPNUM_0_1(opampNum));
 1855              		.loc 1 1041 0
 1856 0006 4B1E     		subs	r3, r1, #1
 1857 0008 DBB2     		uxtb	r3, r3
 1858 000a 012B     		cmp	r3, #1
 1859 000c 04D9     		bls	.L189
 1860              		.loc 1 1041 0 is_stmt 0 discriminator 1
 1861 000e 40F21141 		movw	r1, #1041
 1862              	.LVL156:
 1863 0012 0548     		ldr	r0, .L193
 1864              	.LVL157:
 1865 0014 FFF7FEFF 		bl	Cy_SysLib_AssertFailed
 1866              	.LVL158:
 1867              	.L189:
1042:Generated_Source\PSoC6\pdl\drivers\peripheral\ctb/cy_ctb.c **** 
1043:Generated_Source\PSoC6\pdl\drivers\peripheral\ctb/cy_ctb.c ****     uint32_t trimReg;
1044:Generated_Source\PSoC6\pdl\drivers\peripheral\ctb/cy_ctb.c **** 
1045:Generated_Source\PSoC6\pdl\drivers\peripheral\ctb/cy_ctb.c ****     if (opampNum == CY_CTB_OPAMP_0)
 1868              		.loc 1 1045 0 is_stmt 1
 1869 0018 012C     		cmp	r4, #1
 1870 001a 02D1     		bne	.L190
1046:Generated_Source\PSoC6\pdl\drivers\peripheral\ctb/cy_ctb.c ****     {
1047:Generated_Source\PSoC6\pdl\drivers\peripheral\ctb/cy_ctb.c ****         trimReg = base->OA0_SLOPE_OFFSET_TRIM;
 1871              		.loc 1 1047 0
 1872 001c D5F8040F 		ldr	r0, [r5, #3844]
 1873              	.LVL159:
 1874 0020 38BD     		pop	{r3, r4, r5, pc}
ARM GAS  C:\Users\gjl\AppData\Local\Temp\cckcOS93.s 			page 87


 1875              	.LVL160:
 1876              	.L190:
1048:Generated_Source\PSoC6\pdl\drivers\peripheral\ctb/cy_ctb.c ****     }
1049:Generated_Source\PSoC6\pdl\drivers\peripheral\ctb/cy_ctb.c ****     else
1050:Generated_Source\PSoC6\pdl\drivers\peripheral\ctb/cy_ctb.c ****     {
1051:Generated_Source\PSoC6\pdl\drivers\peripheral\ctb/cy_ctb.c ****         trimReg = base->OA1_SLOPE_OFFSET_TRIM;
 1877              		.loc 1 1051 0
 1878 0022 D5F8100F 		ldr	r0, [r5, #3856]
 1879              	.LVL161:
1052:Generated_Source\PSoC6\pdl\drivers\peripheral\ctb/cy_ctb.c ****     }
1053:Generated_Source\PSoC6\pdl\drivers\peripheral\ctb/cy_ctb.c **** 
1054:Generated_Source\PSoC6\pdl\drivers\peripheral\ctb/cy_ctb.c ****     return trimReg;
1055:Generated_Source\PSoC6\pdl\drivers\peripheral\ctb/cy_ctb.c **** }
 1880              		.loc 1 1055 0
 1881 0026 38BD     		pop	{r3, r4, r5, pc}
 1882              	.LVL162:
 1883              	.L194:
 1884              		.align	2
 1885              	.L193:
 1886 0028 00000000 		.word	.LC0
 1887              		.cfi_endproc
 1888              	.LFE194:
 1889              		.size	Cy_CTB_OpampGetSlope, .-Cy_CTB_OpampGetSlope
 1890              		.section	.text.Cy_CTB_SetAnalogSwitch,"ax",%progbits
 1891              		.align	2
 1892              		.global	Cy_CTB_SetAnalogSwitch
 1893              		.thumb
 1894              		.thumb_func
 1895              		.type	Cy_CTB_SetAnalogSwitch, %function
 1896              	Cy_CTB_SetAnalogSwitch:
 1897              	.LFB195:
1056:Generated_Source\PSoC6\pdl\drivers\peripheral\ctb/cy_ctb.c **** 
1057:Generated_Source\PSoC6\pdl\drivers\peripheral\ctb/cy_ctb.c **** /*******************************************************************************
1058:Generated_Source\PSoC6\pdl\drivers\peripheral\ctb/cy_ctb.c **** * Function Name: Cy_CTB_SetAnalogSwitch
1059:Generated_Source\PSoC6\pdl\drivers\peripheral\ctb/cy_ctb.c **** ****************************************************************************//**
1060:Generated_Source\PSoC6\pdl\drivers\peripheral\ctb/cy_ctb.c **** *
1061:Generated_Source\PSoC6\pdl\drivers\peripheral\ctb/cy_ctb.c **** * Provide firmware control of the CTB switches. Each call to this function
1062:Generated_Source\PSoC6\pdl\drivers\peripheral\ctb/cy_ctb.c **** * can open a set of switches or close a set of switches in one register.
1063:Generated_Source\PSoC6\pdl\drivers\peripheral\ctb/cy_ctb.c **** *
1064:Generated_Source\PSoC6\pdl\drivers\peripheral\ctb/cy_ctb.c **** * \param base
1065:Generated_Source\PSoC6\pdl\drivers\peripheral\ctb/cy_ctb.c **** * Pointer to structure describing registers
1066:Generated_Source\PSoC6\pdl\drivers\peripheral\ctb/cy_ctb.c **** *
1067:Generated_Source\PSoC6\pdl\drivers\peripheral\ctb/cy_ctb.c **** * \param switchSelect
1068:Generated_Source\PSoC6\pdl\drivers\peripheral\ctb/cy_ctb.c **** * A value of the enum \ref cy_en_ctb_switch_register_sel_t to select the switch
1069:Generated_Source\PSoC6\pdl\drivers\peripheral\ctb/cy_ctb.c **** * register
1070:Generated_Source\PSoC6\pdl\drivers\peripheral\ctb/cy_ctb.c **** *
1071:Generated_Source\PSoC6\pdl\drivers\peripheral\ctb/cy_ctb.c **** * \param switchMask
1072:Generated_Source\PSoC6\pdl\drivers\peripheral\ctb/cy_ctb.c **** * The mask of the switches to either open or close.
1073:Generated_Source\PSoC6\pdl\drivers\peripheral\ctb/cy_ctb.c **** * The switch masks can be found in the following enums: \ref cy_en_ctb_oa0_switches_t,
1074:Generated_Source\PSoC6\pdl\drivers\peripheral\ctb/cy_ctb.c **** * \ref cy_en_ctb_oa1_switches_t, and \ref cy_en_ctb_ctd_switches_t.
1075:Generated_Source\PSoC6\pdl\drivers\peripheral\ctb/cy_ctb.c **** * Use the enum that is consistent with the provided register.
1076:Generated_Source\PSoC6\pdl\drivers\peripheral\ctb/cy_ctb.c **** *
1077:Generated_Source\PSoC6\pdl\drivers\peripheral\ctb/cy_ctb.c **** * \param state
1078:Generated_Source\PSoC6\pdl\drivers\peripheral\ctb/cy_ctb.c **** * \ref CY_CTB_SWITCH_OPEN or \ref CY_CTB_SWITCH_CLOSE
1079:Generated_Source\PSoC6\pdl\drivers\peripheral\ctb/cy_ctb.c **** *
1080:Generated_Source\PSoC6\pdl\drivers\peripheral\ctb/cy_ctb.c **** * \return None
1081:Generated_Source\PSoC6\pdl\drivers\peripheral\ctb/cy_ctb.c **** *
ARM GAS  C:\Users\gjl\AppData\Local\Temp\cckcOS93.s 			page 88


1082:Generated_Source\PSoC6\pdl\drivers\peripheral\ctb/cy_ctb.c **** * \funcusage
1083:Generated_Source\PSoC6\pdl\drivers\peripheral\ctb/cy_ctb.c **** *
1084:Generated_Source\PSoC6\pdl\drivers\peripheral\ctb/cy_ctb.c **** * \snippet ctb_sut_01.cydsn/main_cm4.c CTB_SNIPPET_SET_ANALOG_SWITCH
1085:Generated_Source\PSoC6\pdl\drivers\peripheral\ctb/cy_ctb.c **** *
1086:Generated_Source\PSoC6\pdl\drivers\peripheral\ctb/cy_ctb.c **** *******************************************************************************/
1087:Generated_Source\PSoC6\pdl\drivers\peripheral\ctb/cy_ctb.c **** void Cy_CTB_SetAnalogSwitch(CTBM_Type *base, cy_en_ctb_switch_register_sel_t switchSelect, uint32_t
1088:Generated_Source\PSoC6\pdl\drivers\peripheral\ctb/cy_ctb.c **** {
 1898              		.loc 1 1088 0
 1899              		.cfi_startproc
 1900              		@ args = 0, pretend = 0, frame = 0
 1901              		@ frame_needed = 0, uses_anonymous_args = 0
 1902              	.LVL163:
 1903 0000 F8B5     		push	{r3, r4, r5, r6, r7, lr}
 1904              		.cfi_def_cfa_offset 24
 1905              		.cfi_offset 3, -24
 1906              		.cfi_offset 4, -20
 1907              		.cfi_offset 5, -16
 1908              		.cfi_offset 6, -12
 1909              		.cfi_offset 7, -8
 1910              		.cfi_offset 14, -4
 1911 0002 0546     		mov	r5, r0
 1912 0004 0C46     		mov	r4, r1
 1913 0006 1646     		mov	r6, r2
 1914 0008 1F46     		mov	r7, r3
1089:Generated_Source\PSoC6\pdl\drivers\peripheral\ctb/cy_ctb.c ****     CY_ASSERT_L3(CY_CTB_SWITCHSELECT(switchSelect));
 1915              		.loc 1 1089 0
 1916 000a 0229     		cmp	r1, #2
 1917 000c 04D9     		bls	.L196
 1918              		.loc 1 1089 0 is_stmt 0 discriminator 1
 1919 000e 40F24141 		movw	r1, #1089
 1920              	.LVL164:
 1921 0012 1D48     		ldr	r0, .L212
 1922              	.LVL165:
 1923 0014 FFF7FEFF 		bl	Cy_SysLib_AssertFailed
 1924              	.LVL166:
 1925              	.L196:
1090:Generated_Source\PSoC6\pdl\drivers\peripheral\ctb/cy_ctb.c ****     CY_ASSERT_L2(CY_CTB_SWITCHMASK(switchSelect, switchMask));
 1926              		.loc 1 1090 0 is_stmt 1
 1927 0018 2CB9     		cbnz	r4, .L197
 1928              		.loc 1 1090 0 is_stmt 0 discriminator 1
 1929 001a 1C4B     		ldr	r3, .L212+4
 1930 001c 3340     		ands	r3, r3, r6
 1931 001e 0033     		adds	r3, r3, #0
 1932 0020 18BF     		it	ne
 1933 0022 0123     		movne	r3, #1
 1934 0024 0EE0     		b	.L198
 1935              	.L197:
 1936              		.loc 1 1090 0 discriminator 2
 1937 0026 012C     		cmp	r4, #1
 1938 0028 05D1     		bne	.L199
 1939              		.loc 1 1090 0 discriminator 4
 1940 002a 194B     		ldr	r3, .L212+8
 1941 002c 3340     		ands	r3, r3, r6
 1942 002e 0033     		adds	r3, r3, #0
 1943 0030 18BF     		it	ne
 1944 0032 0123     		movne	r3, #1
 1945 0034 06E0     		b	.L198
ARM GAS  C:\Users\gjl\AppData\Local\Temp\cckcOS93.s 			page 89


 1946              	.L199:
 1947              		.loc 1 1090 0 discriminator 5
 1948 0036 26F47743 		bic	r3, r6, #63232
 1949 003a 23F03203 		bic	r3, r3, #50
 1950 003e 0033     		adds	r3, r3, #0
 1951 0040 18BF     		it	ne
 1952 0042 0123     		movne	r3, #1
 1953              	.L198:
 1954              		.loc 1 1090 0 discriminator 8
 1955 0044 23B1     		cbz	r3, .L200
 1956              		.loc 1 1090 0 discriminator 9
 1957 0046 40F24241 		movw	r1, #1090
 1958 004a 0F48     		ldr	r0, .L212
 1959 004c FFF7FEFF 		bl	Cy_SysLib_AssertFailed
 1960              	.LVL167:
 1961              	.L200:
1091:Generated_Source\PSoC6\pdl\drivers\peripheral\ctb/cy_ctb.c ****     CY_ASSERT_L3(CY_CTB_SWITCHSTATE(state));
 1962              		.loc 1 1091 0 is_stmt 1
 1963 0050 012F     		cmp	r7, #1
 1964 0052 04D9     		bls	.L201
 1965              		.loc 1 1091 0 is_stmt 0 discriminator 1
 1966 0054 40F24341 		movw	r1, #1091
 1967 0058 0B48     		ldr	r0, .L212
 1968 005a FFF7FEFF 		bl	Cy_SysLib_AssertFailed
 1969              	.LVL168:
 1970              	.L201:
1092:Generated_Source\PSoC6\pdl\drivers\peripheral\ctb/cy_ctb.c **** 
1093:Generated_Source\PSoC6\pdl\drivers\peripheral\ctb/cy_ctb.c ****     __IOM uint32_t *switchReg;
1094:Generated_Source\PSoC6\pdl\drivers\peripheral\ctb/cy_ctb.c ****     __IOM uint32_t *switchClearReg;
1095:Generated_Source\PSoC6\pdl\drivers\peripheral\ctb/cy_ctb.c **** 
1096:Generated_Source\PSoC6\pdl\drivers\peripheral\ctb/cy_ctb.c ****     switch(switchSelect)
 1971              		.loc 1 1096 0 is_stmt 1
 1972 005e 14B1     		cbz	r4, .L203
 1973 0060 012C     		cmp	r4, #1
 1974 0062 04D0     		beq	.L204
 1975 0064 07E0     		b	.L209
 1976              	.L203:
1097:Generated_Source\PSoC6\pdl\drivers\peripheral\ctb/cy_ctb.c ****     {
1098:Generated_Source\PSoC6\pdl\drivers\peripheral\ctb/cy_ctb.c ****     case CY_CTB_SWITCH_OA0_SW:
1099:Generated_Source\PSoC6\pdl\drivers\peripheral\ctb/cy_ctb.c ****         switchReg = &base->OA0_SW;
 1977              		.loc 1 1099 0
 1978 0066 05F18003 		add	r3, r5, #128
 1979              	.LVL169:
1100:Generated_Source\PSoC6\pdl\drivers\peripheral\ctb/cy_ctb.c ****         switchClearReg = &base->OA0_SW_CLEAR;
 1980              		.loc 1 1100 0
 1981 006a 8435     		adds	r5, r5, #132
 1982              	.LVL170:
1101:Generated_Source\PSoC6\pdl\drivers\peripheral\ctb/cy_ctb.c ****         break;
 1983              		.loc 1 1101 0
 1984 006c 06E0     		b	.L205
 1985              	.LVL171:
 1986              	.L204:
1102:Generated_Source\PSoC6\pdl\drivers\peripheral\ctb/cy_ctb.c ****     case CY_CTB_SWITCH_OA1_SW:
1103:Generated_Source\PSoC6\pdl\drivers\peripheral\ctb/cy_ctb.c ****         switchReg = &base->OA1_SW;
 1987              		.loc 1 1103 0
 1988 006e 05F18803 		add	r3, r5, #136
 1989              	.LVL172:
ARM GAS  C:\Users\gjl\AppData\Local\Temp\cckcOS93.s 			page 90


1104:Generated_Source\PSoC6\pdl\drivers\peripheral\ctb/cy_ctb.c ****         switchClearReg = &base->OA1_SW_CLEAR;
 1990              		.loc 1 1104 0
 1991 0072 8C35     		adds	r5, r5, #140
 1992              	.LVL173:
1105:Generated_Source\PSoC6\pdl\drivers\peripheral\ctb/cy_ctb.c ****         break;
 1993              		.loc 1 1105 0
 1994 0074 02E0     		b	.L205
 1995              	.LVL174:
 1996              	.L209:
1106:Generated_Source\PSoC6\pdl\drivers\peripheral\ctb/cy_ctb.c ****     case CY_CTB_SWITCH_CTD_SW:
1107:Generated_Source\PSoC6\pdl\drivers\peripheral\ctb/cy_ctb.c ****     default:
1108:Generated_Source\PSoC6\pdl\drivers\peripheral\ctb/cy_ctb.c ****         switchReg = &base->CTD_SW;
 1997              		.loc 1 1108 0
 1998 0076 05F1A003 		add	r3, r5, #160
 1999              	.LVL175:
1109:Generated_Source\PSoC6\pdl\drivers\peripheral\ctb/cy_ctb.c ****         switchClearReg = &base->CTD_SW_CLEAR;
 2000              		.loc 1 1109 0
 2001 007a A435     		adds	r5, r5, #164
 2002              	.LVL176:
 2003              	.L205:
1110:Generated_Source\PSoC6\pdl\drivers\peripheral\ctb/cy_ctb.c ****         break;
1111:Generated_Source\PSoC6\pdl\drivers\peripheral\ctb/cy_ctb.c ****     }
1112:Generated_Source\PSoC6\pdl\drivers\peripheral\ctb/cy_ctb.c **** 
1113:Generated_Source\PSoC6\pdl\drivers\peripheral\ctb/cy_ctb.c ****     switch(state)
 2004              		.loc 1 1113 0
 2005 007c 012F     		cmp	r7, #1
 2006 007e 01D1     		bne	.L210
1114:Generated_Source\PSoC6\pdl\drivers\peripheral\ctb/cy_ctb.c ****     {
1115:Generated_Source\PSoC6\pdl\drivers\peripheral\ctb/cy_ctb.c ****     case CY_CTB_SWITCH_CLOSE:
1116:Generated_Source\PSoC6\pdl\drivers\peripheral\ctb/cy_ctb.c ****         *switchReg = switchMask;
 2007              		.loc 1 1116 0
 2008 0080 1E60     		str	r6, [r3]
1117:Generated_Source\PSoC6\pdl\drivers\peripheral\ctb/cy_ctb.c ****         break;
 2009              		.loc 1 1117 0
 2010 0082 F8BD     		pop	{r3, r4, r5, r6, r7, pc}
 2011              	.LVL177:
 2012              	.L210:
1118:Generated_Source\PSoC6\pdl\drivers\peripheral\ctb/cy_ctb.c ****     case CY_CTB_SWITCH_OPEN:
1119:Generated_Source\PSoC6\pdl\drivers\peripheral\ctb/cy_ctb.c ****     default:
1120:Generated_Source\PSoC6\pdl\drivers\peripheral\ctb/cy_ctb.c ****         *switchClearReg = switchMask;
 2013              		.loc 1 1120 0
 2014 0084 2E60     		str	r6, [r5]
 2015 0086 F8BD     		pop	{r3, r4, r5, r6, r7, pc}
 2016              	.LVL178:
 2017              	.L213:
 2018              		.align	2
 2019              	.L212:
 2020 0088 00000000 		.word	.LC0
 2021 008c F2BEDBFF 		.word	-2375950
 2022 0090 6CBED3FF 		.word	-2900372
 2023              		.cfi_endproc
 2024              	.LFE195:
 2025              		.size	Cy_CTB_SetAnalogSwitch, .-Cy_CTB_SetAnalogSwitch
 2026              		.section	.text.Cy_CTB_GetAnalogSwitch,"ax",%progbits
 2027              		.align	2
 2028              		.global	Cy_CTB_GetAnalogSwitch
 2029              		.thumb
ARM GAS  C:\Users\gjl\AppData\Local\Temp\cckcOS93.s 			page 91


 2030              		.thumb_func
 2031              		.type	Cy_CTB_GetAnalogSwitch, %function
 2032              	Cy_CTB_GetAnalogSwitch:
 2033              	.LFB196:
1121:Generated_Source\PSoC6\pdl\drivers\peripheral\ctb/cy_ctb.c ****         break;
1122:Generated_Source\PSoC6\pdl\drivers\peripheral\ctb/cy_ctb.c ****     }
1123:Generated_Source\PSoC6\pdl\drivers\peripheral\ctb/cy_ctb.c **** }
1124:Generated_Source\PSoC6\pdl\drivers\peripheral\ctb/cy_ctb.c **** 
1125:Generated_Source\PSoC6\pdl\drivers\peripheral\ctb/cy_ctb.c **** /*******************************************************************************
1126:Generated_Source\PSoC6\pdl\drivers\peripheral\ctb/cy_ctb.c **** * Function Name: Cy_CTB_GetAnalogSwitch
1127:Generated_Source\PSoC6\pdl\drivers\peripheral\ctb/cy_ctb.c **** ****************************************************************************//**
1128:Generated_Source\PSoC6\pdl\drivers\peripheral\ctb/cy_ctb.c **** *
1129:Generated_Source\PSoC6\pdl\drivers\peripheral\ctb/cy_ctb.c **** * Return the open or closed state of the specified analog switch.
1130:Generated_Source\PSoC6\pdl\drivers\peripheral\ctb/cy_ctb.c **** *
1131:Generated_Source\PSoC6\pdl\drivers\peripheral\ctb/cy_ctb.c **** * \param base
1132:Generated_Source\PSoC6\pdl\drivers\peripheral\ctb/cy_ctb.c **** * Pointer to structure describing registers
1133:Generated_Source\PSoC6\pdl\drivers\peripheral\ctb/cy_ctb.c **** *
1134:Generated_Source\PSoC6\pdl\drivers\peripheral\ctb/cy_ctb.c **** * \param switchSelect
1135:Generated_Source\PSoC6\pdl\drivers\peripheral\ctb/cy_ctb.c **** * A value of the enum \ref cy_en_ctb_switch_register_sel_t to select the switch
1136:Generated_Source\PSoC6\pdl\drivers\peripheral\ctb/cy_ctb.c **** * register
1137:Generated_Source\PSoC6\pdl\drivers\peripheral\ctb/cy_ctb.c **** *
1138:Generated_Source\PSoC6\pdl\drivers\peripheral\ctb/cy_ctb.c **** * \return
1139:Generated_Source\PSoC6\pdl\drivers\peripheral\ctb/cy_ctb.c **** * The state of the switches in the provided register.
1140:Generated_Source\PSoC6\pdl\drivers\peripheral\ctb/cy_ctb.c **** * Compare this value to the switch masks in the following enums:
1141:Generated_Source\PSoC6\pdl\drivers\peripheral\ctb/cy_ctb.c **** * \ref cy_en_ctb_oa0_switches_t, \ref cy_en_ctb_oa1_switches_t, and \ref cy_en_ctb_ctd_switches_t.
1142:Generated_Source\PSoC6\pdl\drivers\peripheral\ctb/cy_ctb.c **** *
1143:Generated_Source\PSoC6\pdl\drivers\peripheral\ctb/cy_ctb.c **** * \funcusage
1144:Generated_Source\PSoC6\pdl\drivers\peripheral\ctb/cy_ctb.c **** *
1145:Generated_Source\PSoC6\pdl\drivers\peripheral\ctb/cy_ctb.c **** * \snippet ctb_sut_01.cydsn/main_cm4.c CTB_SNIPPET_GET_ANALOG_SWITCH
1146:Generated_Source\PSoC6\pdl\drivers\peripheral\ctb/cy_ctb.c **** *
1147:Generated_Source\PSoC6\pdl\drivers\peripheral\ctb/cy_ctb.c **** *******************************************************************************/
1148:Generated_Source\PSoC6\pdl\drivers\peripheral\ctb/cy_ctb.c **** uint32_t Cy_CTB_GetAnalogSwitch(const CTBM_Type *base, cy_en_ctb_switch_register_sel_t switchSelect
1149:Generated_Source\PSoC6\pdl\drivers\peripheral\ctb/cy_ctb.c **** {
 2034              		.loc 1 1149 0
 2035              		.cfi_startproc
 2036              		@ args = 0, pretend = 0, frame = 0
 2037              		@ frame_needed = 0, uses_anonymous_args = 0
 2038              	.LVL179:
 2039 0000 38B5     		push	{r3, r4, r5, lr}
 2040              		.cfi_def_cfa_offset 16
 2041              		.cfi_offset 3, -16
 2042              		.cfi_offset 4, -12
 2043              		.cfi_offset 5, -8
 2044              		.cfi_offset 14, -4
 2045 0002 0546     		mov	r5, r0
 2046 0004 0C46     		mov	r4, r1
1150:Generated_Source\PSoC6\pdl\drivers\peripheral\ctb/cy_ctb.c ****     CY_ASSERT_L3(CY_CTB_SWITCHSELECT(switchSelect));
 2047              		.loc 1 1150 0
 2048 0006 0229     		cmp	r1, #2
 2049 0008 04D9     		bls	.L215
 2050              		.loc 1 1150 0 is_stmt 0 discriminator 1
 2051 000a 40F27E41 		movw	r1, #1150
 2052              	.LVL180:
 2053 000e 0848     		ldr	r0, .L222
 2054              	.LVL181:
 2055 0010 FFF7FEFF 		bl	Cy_SysLib_AssertFailed
 2056              	.LVL182:
ARM GAS  C:\Users\gjl\AppData\Local\Temp\cckcOS93.s 			page 92


 2057              	.L215:
1151:Generated_Source\PSoC6\pdl\drivers\peripheral\ctb/cy_ctb.c **** 
1152:Generated_Source\PSoC6\pdl\drivers\peripheral\ctb/cy_ctb.c ****     uint32_t switchRegValue;
1153:Generated_Source\PSoC6\pdl\drivers\peripheral\ctb/cy_ctb.c **** 
1154:Generated_Source\PSoC6\pdl\drivers\peripheral\ctb/cy_ctb.c ****     switch(switchSelect)
 2058              		.loc 1 1154 0 is_stmt 1
 2059 0014 14B1     		cbz	r4, .L217
 2060 0016 012C     		cmp	r4, #1
 2061 0018 03D0     		beq	.L218
 2062 001a 05E0     		b	.L220
 2063              	.L217:
1155:Generated_Source\PSoC6\pdl\drivers\peripheral\ctb/cy_ctb.c ****     {
1156:Generated_Source\PSoC6\pdl\drivers\peripheral\ctb/cy_ctb.c ****     case CY_CTB_SWITCH_OA0_SW:
1157:Generated_Source\PSoC6\pdl\drivers\peripheral\ctb/cy_ctb.c ****         switchRegValue = base->OA0_SW;
 2064              		.loc 1 1157 0
 2065 001c D5F88000 		ldr	r0, [r5, #128]
 2066              	.LVL183:
1158:Generated_Source\PSoC6\pdl\drivers\peripheral\ctb/cy_ctb.c ****         break;
 2067              		.loc 1 1158 0
 2068 0020 38BD     		pop	{r3, r4, r5, pc}
 2069              	.LVL184:
 2070              	.L218:
1159:Generated_Source\PSoC6\pdl\drivers\peripheral\ctb/cy_ctb.c ****     case CY_CTB_SWITCH_OA1_SW:
1160:Generated_Source\PSoC6\pdl\drivers\peripheral\ctb/cy_ctb.c ****         switchRegValue = base->OA1_SW;
 2071              		.loc 1 1160 0
 2072 0022 D5F88800 		ldr	r0, [r5, #136]
 2073              	.LVL185:
1161:Generated_Source\PSoC6\pdl\drivers\peripheral\ctb/cy_ctb.c ****         break;
 2074              		.loc 1 1161 0
 2075 0026 38BD     		pop	{r3, r4, r5, pc}
 2076              	.LVL186:
 2077              	.L220:
1162:Generated_Source\PSoC6\pdl\drivers\peripheral\ctb/cy_ctb.c ****     case CY_CTB_SWITCH_CTD_SW:
1163:Generated_Source\PSoC6\pdl\drivers\peripheral\ctb/cy_ctb.c ****     default:
1164:Generated_Source\PSoC6\pdl\drivers\peripheral\ctb/cy_ctb.c ****         switchRegValue = base->CTD_SW;
 2078              		.loc 1 1164 0
 2079 0028 D5F8A000 		ldr	r0, [r5, #160]
 2080              	.LVL187:
1165:Generated_Source\PSoC6\pdl\drivers\peripheral\ctb/cy_ctb.c ****         break;
1166:Generated_Source\PSoC6\pdl\drivers\peripheral\ctb/cy_ctb.c ****     }
1167:Generated_Source\PSoC6\pdl\drivers\peripheral\ctb/cy_ctb.c **** 
1168:Generated_Source\PSoC6\pdl\drivers\peripheral\ctb/cy_ctb.c ****     return switchRegValue;
1169:Generated_Source\PSoC6\pdl\drivers\peripheral\ctb/cy_ctb.c **** }
 2081              		.loc 1 1169 0
 2082 002c 38BD     		pop	{r3, r4, r5, pc}
 2083              	.LVL188:
 2084              	.L223:
 2085 002e 00BF     		.align	2
 2086              	.L222:
 2087 0030 00000000 		.word	.LC0
 2088              		.cfi_endproc
 2089              	.LFE196:
 2090              		.size	Cy_CTB_GetAnalogSwitch, .-Cy_CTB_GetAnalogSwitch
 2091              		.section	.text.Cy_CTB_CompSetConfig,"ax",%progbits
 2092              		.align	2
 2093              		.global	Cy_CTB_CompSetConfig
 2094              		.thumb
ARM GAS  C:\Users\gjl\AppData\Local\Temp\cckcOS93.s 			page 93


 2095              		.thumb_func
 2096              		.type	Cy_CTB_CompSetConfig, %function
 2097              	Cy_CTB_CompSetConfig:
 2098              	.LFB197:
1170:Generated_Source\PSoC6\pdl\drivers\peripheral\ctb/cy_ctb.c **** 
1171:Generated_Source\PSoC6\pdl\drivers\peripheral\ctb/cy_ctb.c **** /*******************************************************************************
1172:Generated_Source\PSoC6\pdl\drivers\peripheral\ctb/cy_ctb.c **** * Function Name: Cy_CTB_CompSetConfig
1173:Generated_Source\PSoC6\pdl\drivers\peripheral\ctb/cy_ctb.c **** ****************************************************************************//**
1174:Generated_Source\PSoC6\pdl\drivers\peripheral\ctb/cy_ctb.c **** *
1175:Generated_Source\PSoC6\pdl\drivers\peripheral\ctb/cy_ctb.c **** * Configure the CTB comparator for pulse or level output, to bypass clock
1176:Generated_Source\PSoC6\pdl\drivers\peripheral\ctb/cy_ctb.c **** * synchronization, and to enable hysteresis.
1177:Generated_Source\PSoC6\pdl\drivers\peripheral\ctb/cy_ctb.c **** *
1178:Generated_Source\PSoC6\pdl\drivers\peripheral\ctb/cy_ctb.c **** * \param base
1179:Generated_Source\PSoC6\pdl\drivers\peripheral\ctb/cy_ctb.c **** * Pointer to structure describing registers
1180:Generated_Source\PSoC6\pdl\drivers\peripheral\ctb/cy_ctb.c **** *
1181:Generated_Source\PSoC6\pdl\drivers\peripheral\ctb/cy_ctb.c **** * \param compNum
1182:Generated_Source\PSoC6\pdl\drivers\peripheral\ctb/cy_ctb.c **** * \ref CY_CTB_OPAMP_0, \ref CY_CTB_OPAMP_1, or \ref CY_CTB_OPAMP_BOTH
1183:Generated_Source\PSoC6\pdl\drivers\peripheral\ctb/cy_ctb.c **** *
1184:Generated_Source\PSoC6\pdl\drivers\peripheral\ctb/cy_ctb.c **** * \param level
1185:Generated_Source\PSoC6\pdl\drivers\peripheral\ctb/cy_ctb.c **** * Configure output to produce a pulse or level output signal
1186:Generated_Source\PSoC6\pdl\drivers\peripheral\ctb/cy_ctb.c **** 
1187:Generated_Source\PSoC6\pdl\drivers\peripheral\ctb/cy_ctb.c **** * \param bypass
1188:Generated_Source\PSoC6\pdl\drivers\peripheral\ctb/cy_ctb.c **** * Configure output to be clock synchronized or unsynchronized
1189:Generated_Source\PSoC6\pdl\drivers\peripheral\ctb/cy_ctb.c **** 
1190:Generated_Source\PSoC6\pdl\drivers\peripheral\ctb/cy_ctb.c **** * \param hyst
1191:Generated_Source\PSoC6\pdl\drivers\peripheral\ctb/cy_ctb.c **** * Enable or disable input hysteresis
1192:Generated_Source\PSoC6\pdl\drivers\peripheral\ctb/cy_ctb.c **** 
1193:Generated_Source\PSoC6\pdl\drivers\peripheral\ctb/cy_ctb.c **** * \return None
1194:Generated_Source\PSoC6\pdl\drivers\peripheral\ctb/cy_ctb.c **** *
1195:Generated_Source\PSoC6\pdl\drivers\peripheral\ctb/cy_ctb.c **** * \funcusage
1196:Generated_Source\PSoC6\pdl\drivers\peripheral\ctb/cy_ctb.c **** *
1197:Generated_Source\PSoC6\pdl\drivers\peripheral\ctb/cy_ctb.c **** * \snippet ctb_sut_01.cydsn/main_cm4.c CTB_SNIPPET_COMP_SET_CONFIG
1198:Generated_Source\PSoC6\pdl\drivers\peripheral\ctb/cy_ctb.c **** *
1199:Generated_Source\PSoC6\pdl\drivers\peripheral\ctb/cy_ctb.c **** *******************************************************************************/
1200:Generated_Source\PSoC6\pdl\drivers\peripheral\ctb/cy_ctb.c **** void Cy_CTB_CompSetConfig(CTBM_Type *base, cy_en_ctb_opamp_sel_t compNum, cy_en_ctb_comp_level_t le
1201:Generated_Source\PSoC6\pdl\drivers\peripheral\ctb/cy_ctb.c **** {
 2099              		.loc 1 1201 0
 2100              		.cfi_startproc
 2101              		@ args = 4, pretend = 0, frame = 0
 2102              		@ frame_needed = 0, uses_anonymous_args = 0
 2103              	.LVL189:
 2104 0000 2DE9F041 		push	{r4, r5, r6, r7, r8, lr}
 2105              		.cfi_def_cfa_offset 24
 2106              		.cfi_offset 4, -24
 2107              		.cfi_offset 5, -20
 2108              		.cfi_offset 6, -16
 2109              		.cfi_offset 7, -12
 2110              		.cfi_offset 8, -8
 2111              		.cfi_offset 14, -4
 2112 0004 8046     		mov	r8, r0
 2113 0006 0C46     		mov	r4, r1
 2114 0008 1746     		mov	r7, r2
 2115 000a 1E46     		mov	r6, r3
 2116 000c 9DF81850 		ldrb	r5, [sp, #24]	@ zero_extendqisi2
1202:Generated_Source\PSoC6\pdl\drivers\peripheral\ctb/cy_ctb.c ****     CY_ASSERT_L3(CY_CTB_OPAMPNUM(compNum));
 2117              		.loc 1 1202 0
 2118 0010 4B1E     		subs	r3, r1, #1
ARM GAS  C:\Users\gjl\AppData\Local\Temp\cckcOS93.s 			page 94


 2119              	.LVL190:
 2120 0012 DBB2     		uxtb	r3, r3
 2121 0014 022B     		cmp	r3, #2
 2122 0016 04D9     		bls	.L225
 2123              		.loc 1 1202 0 is_stmt 0 discriminator 1
 2124 0018 40F2B241 		movw	r1, #1202
 2125              	.LVL191:
 2126 001c 1B48     		ldr	r0, .L233
 2127              	.LVL192:
 2128 001e FFF7FEFF 		bl	Cy_SysLib_AssertFailed
 2129              	.LVL193:
 2130              	.L225:
1203:Generated_Source\PSoC6\pdl\drivers\peripheral\ctb/cy_ctb.c ****     CY_ASSERT_L3(CY_CTB_COMPLEVEL(level));
 2131              		.loc 1 1203 0 is_stmt 1
 2132 0022 37B1     		cbz	r7, .L226
 2133              		.loc 1 1203 0 is_stmt 0 discriminator 1
 2134 0024 802F     		cmp	r7, #128
 2135 0026 04D0     		beq	.L226
 2136              		.loc 1 1203 0 discriminator 2
 2137 0028 40F2B341 		movw	r1, #1203
 2138 002c 1748     		ldr	r0, .L233
 2139 002e FFF7FEFF 		bl	Cy_SysLib_AssertFailed
 2140              	.LVL194:
 2141              	.L226:
1204:Generated_Source\PSoC6\pdl\drivers\peripheral\ctb/cy_ctb.c ****     CY_ASSERT_L3(CY_CTB_COMPBYPASS(bypass));
 2142              		.loc 1 1204 0 is_stmt 1
 2143 0032 36B1     		cbz	r6, .L227
 2144              		.loc 1 1204 0 is_stmt 0 discriminator 1
 2145 0034 402E     		cmp	r6, #64
 2146 0036 04D0     		beq	.L227
 2147              		.loc 1 1204 0 discriminator 2
 2148 0038 40F2B441 		movw	r1, #1204
 2149 003c 1348     		ldr	r0, .L233
 2150 003e FFF7FEFF 		bl	Cy_SysLib_AssertFailed
 2151              	.LVL195:
 2152              	.L227:
1205:Generated_Source\PSoC6\pdl\drivers\peripheral\ctb/cy_ctb.c ****     CY_ASSERT_L3(CY_CTB_COMPHYST(hyst));
 2153              		.loc 1 1205 0 is_stmt 1
 2154 0042 35B1     		cbz	r5, .L228
 2155              		.loc 1 1205 0 is_stmt 0 discriminator 1
 2156 0044 202D     		cmp	r5, #32
 2157 0046 04D0     		beq	.L228
 2158              		.loc 1 1205 0 discriminator 2
 2159 0048 40F2B541 		movw	r1, #1205
 2160 004c 0F48     		ldr	r0, .L233
 2161 004e FFF7FEFF 		bl	Cy_SysLib_AssertFailed
 2162              	.LVL196:
 2163              	.L228:
1206:Generated_Source\PSoC6\pdl\drivers\peripheral\ctb/cy_ctb.c **** 
1207:Generated_Source\PSoC6\pdl\drivers\peripheral\ctb/cy_ctb.c ****     uint32_t opampCtrlReg;
1208:Generated_Source\PSoC6\pdl\drivers\peripheral\ctb/cy_ctb.c **** 
1209:Generated_Source\PSoC6\pdl\drivers\peripheral\ctb/cy_ctb.c ****     if ((compNum == CY_CTB_OPAMP_0) || (compNum == CY_CTB_OPAMP_BOTH))
 2164              		.loc 1 1209 0 is_stmt 1
 2165 0052 012C     		cmp	r4, #1
 2166 0054 01D0     		beq	.L229
 2167              		.loc 1 1209 0 is_stmt 0 discriminator 1
 2168 0056 032C     		cmp	r4, #3
ARM GAS  C:\Users\gjl\AppData\Local\Temp\cckcOS93.s 			page 95


 2169 0058 08D1     		bne	.L230
 2170              	.L229:
1210:Generated_Source\PSoC6\pdl\drivers\peripheral\ctb/cy_ctb.c ****     {
1211:Generated_Source\PSoC6\pdl\drivers\peripheral\ctb/cy_ctb.c ****         opampCtrlReg = base->OA_RES0_CTRL & ~(CTBM_OA_RES0_CTRL_OA0_HYST_EN_Msk | CTBM_OA_RES0_CTRL
 2171              		.loc 1 1211 0 is_stmt 1
 2172 005a D8F80430 		ldr	r3, [r8, #4]
 2173 005e 23F0E003 		bic	r3, r3, #224
 2174              	.LVL197:
1212:Generated_Source\PSoC6\pdl\drivers\peripheral\ctb/cy_ctb.c ****         base->OA_RES0_CTRL = opampCtrlReg | (uint32_t) level |(uint32_t) bypass | (uint32_t) hyst;
 2175              		.loc 1 1212 0
 2176 0062 3B43     		orrs	r3, r3, r7
 2177              	.LVL198:
 2178 0064 3343     		orrs	r3, r3, r6
 2179 0066 2B43     		orrs	r3, r3, r5
 2180 0068 C8F80430 		str	r3, [r8, #4]
 2181              	.L230:
1213:Generated_Source\PSoC6\pdl\drivers\peripheral\ctb/cy_ctb.c ****     }
1214:Generated_Source\PSoC6\pdl\drivers\peripheral\ctb/cy_ctb.c **** 
1215:Generated_Source\PSoC6\pdl\drivers\peripheral\ctb/cy_ctb.c ****     if ((compNum == CY_CTB_OPAMP_1) || (compNum == CY_CTB_OPAMP_BOTH))
 2182              		.loc 1 1215 0
 2183 006c 023C     		subs	r4, r4, #2
 2184 006e E4B2     		uxtb	r4, r4
 2185 0070 012C     		cmp	r4, #1
 2186 0072 08D8     		bhi	.L224
1216:Generated_Source\PSoC6\pdl\drivers\peripheral\ctb/cy_ctb.c ****     {
1217:Generated_Source\PSoC6\pdl\drivers\peripheral\ctb/cy_ctb.c ****         opampCtrlReg = base->OA_RES1_CTRL & ~(CTBM_OA_RES1_CTRL_OA1_HYST_EN_Msk | CTBM_OA_RES1_CTRL
 2187              		.loc 1 1217 0
 2188 0074 D8F80830 		ldr	r3, [r8, #8]
 2189 0078 23F0E003 		bic	r3, r3, #224
 2190              	.LVL199:
1218:Generated_Source\PSoC6\pdl\drivers\peripheral\ctb/cy_ctb.c ****         base->OA_RES1_CTRL = opampCtrlReg | (uint32_t) level |(uint32_t) bypass | (uint32_t) hyst;
 2191              		.loc 1 1218 0
 2192 007c 1F43     		orrs	r7, r7, r3
 2193 007e 3E43     		orrs	r6, r6, r7
 2194 0080 3543     		orrs	r5, r5, r6
 2195 0082 C8F80850 		str	r5, [r8, #8]
 2196              	.LVL200:
 2197              	.L224:
 2198 0086 BDE8F081 		pop	{r4, r5, r6, r7, r8, pc}
 2199              	.LVL201:
 2200              	.L234:
 2201 008a 00BF     		.align	2
 2202              	.L233:
 2203 008c 00000000 		.word	.LC0
 2204              		.cfi_endproc
 2205              	.LFE197:
 2206              		.size	Cy_CTB_CompSetConfig, .-Cy_CTB_CompSetConfig
 2207              		.section	.text.Cy_CTB_CompGetConfig,"ax",%progbits
 2208              		.align	2
 2209              		.global	Cy_CTB_CompGetConfig
 2210              		.thumb
 2211              		.thumb_func
 2212              		.type	Cy_CTB_CompGetConfig, %function
 2213              	Cy_CTB_CompGetConfig:
 2214              	.LFB198:
1219:Generated_Source\PSoC6\pdl\drivers\peripheral\ctb/cy_ctb.c ****     }
1220:Generated_Source\PSoC6\pdl\drivers\peripheral\ctb/cy_ctb.c **** }
ARM GAS  C:\Users\gjl\AppData\Local\Temp\cckcOS93.s 			page 96


1221:Generated_Source\PSoC6\pdl\drivers\peripheral\ctb/cy_ctb.c **** 
1222:Generated_Source\PSoC6\pdl\drivers\peripheral\ctb/cy_ctb.c **** /*******************************************************************************
1223:Generated_Source\PSoC6\pdl\drivers\peripheral\ctb/cy_ctb.c **** * Function Name: Cy_CTB_CompGetConfig
1224:Generated_Source\PSoC6\pdl\drivers\peripheral\ctb/cy_ctb.c **** ****************************************************************************//**
1225:Generated_Source\PSoC6\pdl\drivers\peripheral\ctb/cy_ctb.c **** *
1226:Generated_Source\PSoC6\pdl\drivers\peripheral\ctb/cy_ctb.c **** * Return the CTB comparator operating configuration as set by \ref Cy_CTB_CompSetConfig.
1227:Generated_Source\PSoC6\pdl\drivers\peripheral\ctb/cy_ctb.c **** *
1228:Generated_Source\PSoC6\pdl\drivers\peripheral\ctb/cy_ctb.c **** * \param base
1229:Generated_Source\PSoC6\pdl\drivers\peripheral\ctb/cy_ctb.c **** * Pointer to structure describing registers
1230:Generated_Source\PSoC6\pdl\drivers\peripheral\ctb/cy_ctb.c **** *
1231:Generated_Source\PSoC6\pdl\drivers\peripheral\ctb/cy_ctb.c **** * \param compNum
1232:Generated_Source\PSoC6\pdl\drivers\peripheral\ctb/cy_ctb.c **** * \ref CY_CTB_OPAMP_0 or \ref CY_CTB_OPAMP_1
1233:Generated_Source\PSoC6\pdl\drivers\peripheral\ctb/cy_ctb.c **** *
1234:Generated_Source\PSoC6\pdl\drivers\peripheral\ctb/cy_ctb.c **** * \return
1235:Generated_Source\PSoC6\pdl\drivers\peripheral\ctb/cy_ctb.c **** * The comparator configuration.
1236:Generated_Source\PSoC6\pdl\drivers\peripheral\ctb/cy_ctb.c **** * Compare the register value with the masks in \ref cy_en_ctb_comp_level_t,
1237:Generated_Source\PSoC6\pdl\drivers\peripheral\ctb/cy_ctb.c **** * \ref cy_en_ctb_comp_bypass_t, and \ref cy_en_ctb_comp_hyst_t.
1238:Generated_Source\PSoC6\pdl\drivers\peripheral\ctb/cy_ctb.c **** *
1239:Generated_Source\PSoC6\pdl\drivers\peripheral\ctb/cy_ctb.c **** * \funcusage
1240:Generated_Source\PSoC6\pdl\drivers\peripheral\ctb/cy_ctb.c **** *
1241:Generated_Source\PSoC6\pdl\drivers\peripheral\ctb/cy_ctb.c **** * \snippet ctb_sut_01.cydsn/main_cm4.c CTB_SNIPPET_COMP_GET_CONFIG
1242:Generated_Source\PSoC6\pdl\drivers\peripheral\ctb/cy_ctb.c **** *
1243:Generated_Source\PSoC6\pdl\drivers\peripheral\ctb/cy_ctb.c **** *******************************************************************************/
1244:Generated_Source\PSoC6\pdl\drivers\peripheral\ctb/cy_ctb.c **** uint32_t Cy_CTB_CompGetConfig(const CTBM_Type *base, cy_en_ctb_opamp_sel_t compNum)
1245:Generated_Source\PSoC6\pdl\drivers\peripheral\ctb/cy_ctb.c **** {
 2215              		.loc 1 1245 0
 2216              		.cfi_startproc
 2217              		@ args = 0, pretend = 0, frame = 0
 2218              		@ frame_needed = 0, uses_anonymous_args = 0
 2219              	.LVL202:
 2220 0000 38B5     		push	{r3, r4, r5, lr}
 2221              		.cfi_def_cfa_offset 16
 2222              		.cfi_offset 3, -16
 2223              		.cfi_offset 4, -12
 2224              		.cfi_offset 5, -8
 2225              		.cfi_offset 14, -4
 2226 0002 0546     		mov	r5, r0
 2227 0004 0C46     		mov	r4, r1
1246:Generated_Source\PSoC6\pdl\drivers\peripheral\ctb/cy_ctb.c ****     CY_ASSERT_L3(CY_CTB_OPAMPNUM_0_1(compNum));
 2228              		.loc 1 1246 0
 2229 0006 4B1E     		subs	r3, r1, #1
 2230 0008 DBB2     		uxtb	r3, r3
 2231 000a 012B     		cmp	r3, #1
 2232 000c 04D9     		bls	.L236
 2233              		.loc 1 1246 0 is_stmt 0 discriminator 1
 2234 000e 40F2DE41 		movw	r1, #1246
 2235              	.LVL203:
 2236 0012 0648     		ldr	r0, .L240
 2237              	.LVL204:
 2238 0014 FFF7FEFF 		bl	Cy_SysLib_AssertFailed
 2239              	.LVL205:
 2240              	.L236:
1247:Generated_Source\PSoC6\pdl\drivers\peripheral\ctb/cy_ctb.c **** 
1248:Generated_Source\PSoC6\pdl\drivers\peripheral\ctb/cy_ctb.c ****     uint32_t config;
1249:Generated_Source\PSoC6\pdl\drivers\peripheral\ctb/cy_ctb.c **** 
1250:Generated_Source\PSoC6\pdl\drivers\peripheral\ctb/cy_ctb.c ****     if (compNum == CY_CTB_OPAMP_0)
 2241              		.loc 1 1250 0 is_stmt 1
ARM GAS  C:\Users\gjl\AppData\Local\Temp\cckcOS93.s 			page 97


 2242 0018 012C     		cmp	r4, #1
 2243 001a 03D1     		bne	.L237
1251:Generated_Source\PSoC6\pdl\drivers\peripheral\ctb/cy_ctb.c ****     {
1252:Generated_Source\PSoC6\pdl\drivers\peripheral\ctb/cy_ctb.c ****         config = base->OA_RES0_CTRL & (CTBM_OA_RES0_CTRL_OA0_HYST_EN_Msk | CTBM_OA_RES0_CTRL_OA0_BY
 2244              		.loc 1 1252 0
 2245 001c 6868     		ldr	r0, [r5, #4]
 2246 001e 00F0E000 		and	r0, r0, #224
 2247              	.LVL206:
 2248 0022 38BD     		pop	{r3, r4, r5, pc}
 2249              	.LVL207:
 2250              	.L237:
1253:Generated_Source\PSoC6\pdl\drivers\peripheral\ctb/cy_ctb.c ****     }
1254:Generated_Source\PSoC6\pdl\drivers\peripheral\ctb/cy_ctb.c ****     else
1255:Generated_Source\PSoC6\pdl\drivers\peripheral\ctb/cy_ctb.c ****     {
1256:Generated_Source\PSoC6\pdl\drivers\peripheral\ctb/cy_ctb.c ****         config = base->OA_RES1_CTRL & (CTBM_OA_RES1_CTRL_OA1_HYST_EN_Msk | CTBM_OA_RES1_CTRL_OA1_BY
 2251              		.loc 1 1256 0
 2252 0024 A868     		ldr	r0, [r5, #8]
 2253 0026 00F0E000 		and	r0, r0, #224
 2254              	.LVL208:
1257:Generated_Source\PSoC6\pdl\drivers\peripheral\ctb/cy_ctb.c ****     }
1258:Generated_Source\PSoC6\pdl\drivers\peripheral\ctb/cy_ctb.c **** 
1259:Generated_Source\PSoC6\pdl\drivers\peripheral\ctb/cy_ctb.c ****     return config;
1260:Generated_Source\PSoC6\pdl\drivers\peripheral\ctb/cy_ctb.c **** }
 2255              		.loc 1 1260 0
 2256 002a 38BD     		pop	{r3, r4, r5, pc}
 2257              	.LVL209:
 2258              	.L241:
 2259              		.align	2
 2260              	.L240:
 2261 002c 00000000 		.word	.LC0
 2262              		.cfi_endproc
 2263              	.LFE198:
 2264              		.size	Cy_CTB_CompGetConfig, .-Cy_CTB_CompGetConfig
 2265              		.section	.text.Cy_CTB_CompSetInterruptEdgeType,"ax",%progbits
 2266              		.align	2
 2267              		.global	Cy_CTB_CompSetInterruptEdgeType
 2268              		.thumb
 2269              		.thumb_func
 2270              		.type	Cy_CTB_CompSetInterruptEdgeType, %function
 2271              	Cy_CTB_CompSetInterruptEdgeType:
 2272              	.LFB199:
1261:Generated_Source\PSoC6\pdl\drivers\peripheral\ctb/cy_ctb.c **** 
1262:Generated_Source\PSoC6\pdl\drivers\peripheral\ctb/cy_ctb.c **** /*******************************************************************************
1263:Generated_Source\PSoC6\pdl\drivers\peripheral\ctb/cy_ctb.c **** * Function Name: Cy_CTB_CompSetInterruptEdgeType
1264:Generated_Source\PSoC6\pdl\drivers\peripheral\ctb/cy_ctb.c **** ****************************************************************************//**
1265:Generated_Source\PSoC6\pdl\drivers\peripheral\ctb/cy_ctb.c **** *
1266:Generated_Source\PSoC6\pdl\drivers\peripheral\ctb/cy_ctb.c **** * Configure the type of edge that will trigger a comparator interrupt.
1267:Generated_Source\PSoC6\pdl\drivers\peripheral\ctb/cy_ctb.c **** *
1268:Generated_Source\PSoC6\pdl\drivers\peripheral\ctb/cy_ctb.c **** * \param base
1269:Generated_Source\PSoC6\pdl\drivers\peripheral\ctb/cy_ctb.c **** * Pointer to structure describing registers
1270:Generated_Source\PSoC6\pdl\drivers\peripheral\ctb/cy_ctb.c **** *
1271:Generated_Source\PSoC6\pdl\drivers\peripheral\ctb/cy_ctb.c **** * \param compNum
1272:Generated_Source\PSoC6\pdl\drivers\peripheral\ctb/cy_ctb.c **** * \ref CY_CTB_OPAMP_0, \ref CY_CTB_OPAMP_1, or \ref CY_CTB_OPAMP_BOTH
1273:Generated_Source\PSoC6\pdl\drivers\peripheral\ctb/cy_ctb.c **** *
1274:Generated_Source\PSoC6\pdl\drivers\peripheral\ctb/cy_ctb.c **** * \param edge
1275:Generated_Source\PSoC6\pdl\drivers\peripheral\ctb/cy_ctb.c **** * Edge type that will trigger an interrupt. Select a value from \ref cy_en_ctb_comp_edge_t.
1276:Generated_Source\PSoC6\pdl\drivers\peripheral\ctb/cy_ctb.c **** *
ARM GAS  C:\Users\gjl\AppData\Local\Temp\cckcOS93.s 			page 98


1277:Generated_Source\PSoC6\pdl\drivers\peripheral\ctb/cy_ctb.c **** * \return None
1278:Generated_Source\PSoC6\pdl\drivers\peripheral\ctb/cy_ctb.c **** *
1279:Generated_Source\PSoC6\pdl\drivers\peripheral\ctb/cy_ctb.c **** * \funcusage
1280:Generated_Source\PSoC6\pdl\drivers\peripheral\ctb/cy_ctb.c **** *
1281:Generated_Source\PSoC6\pdl\drivers\peripheral\ctb/cy_ctb.c **** * \snippet ctb_sut_01.cydsn/main_cm4.c CTB_SNIPPET_COMP_SET_INTERRUPT_EDGE_TYPE
1282:Generated_Source\PSoC6\pdl\drivers\peripheral\ctb/cy_ctb.c **** *
1283:Generated_Source\PSoC6\pdl\drivers\peripheral\ctb/cy_ctb.c **** *******************************************************************************/
1284:Generated_Source\PSoC6\pdl\drivers\peripheral\ctb/cy_ctb.c **** void Cy_CTB_CompSetInterruptEdgeType(CTBM_Type *base, cy_en_ctb_opamp_sel_t compNum, cy_en_ctb_comp
1285:Generated_Source\PSoC6\pdl\drivers\peripheral\ctb/cy_ctb.c **** {
 2273              		.loc 1 1285 0
 2274              		.cfi_startproc
 2275              		@ args = 0, pretend = 0, frame = 0
 2276              		@ frame_needed = 0, uses_anonymous_args = 0
 2277              	.LVL210:
 2278 0000 70B5     		push	{r4, r5, r6, lr}
 2279              		.cfi_def_cfa_offset 16
 2280              		.cfi_offset 4, -16
 2281              		.cfi_offset 5, -12
 2282              		.cfi_offset 6, -8
 2283              		.cfi_offset 14, -4
 2284 0002 0646     		mov	r6, r0
 2285 0004 0C46     		mov	r4, r1
 2286 0006 1546     		mov	r5, r2
1286:Generated_Source\PSoC6\pdl\drivers\peripheral\ctb/cy_ctb.c ****     CY_ASSERT_L3(CY_CTB_OPAMPNUM(compNum));
 2287              		.loc 1 1286 0
 2288 0008 4B1E     		subs	r3, r1, #1
 2289 000a DBB2     		uxtb	r3, r3
 2290 000c 022B     		cmp	r3, #2
 2291 000e 04D9     		bls	.L243
 2292              		.loc 1 1286 0 is_stmt 0 discriminator 1
 2293 0010 40F20651 		movw	r1, #1286
 2294              	.LVL211:
 2295 0014 1248     		ldr	r0, .L249
 2296              	.LVL212:
 2297 0016 FFF7FEFF 		bl	Cy_SysLib_AssertFailed
 2298              	.LVL213:
 2299              	.L243:
1287:Generated_Source\PSoC6\pdl\drivers\peripheral\ctb/cy_ctb.c ****     CY_ASSERT_L3(CY_CTB_COMPEDGE(edge));
 2300              		.loc 1 1287 0 is_stmt 1
 2301 001a 6DB1     		cbz	r5, .L244
 2302              		.loc 1 1287 0 is_stmt 0 discriminator 1
 2303 001c B5F5807F 		cmp	r5, #256
 2304 0020 0AD0     		beq	.L244
 2305              		.loc 1 1287 0 discriminator 2
 2306 0022 B5F5007F 		cmp	r5, #512
 2307 0026 07D0     		beq	.L244
 2308              		.loc 1 1287 0 discriminator 3
 2309 0028 B5F5407F 		cmp	r5, #768
 2310 002c 04D0     		beq	.L244
 2311              		.loc 1 1287 0 discriminator 4
 2312 002e 40F20751 		movw	r1, #1287
 2313 0032 0B48     		ldr	r0, .L249
 2314 0034 FFF7FEFF 		bl	Cy_SysLib_AssertFailed
 2315              	.LVL214:
 2316              	.L244:
1288:Generated_Source\PSoC6\pdl\drivers\peripheral\ctb/cy_ctb.c **** 
1289:Generated_Source\PSoC6\pdl\drivers\peripheral\ctb/cy_ctb.c ****     uint32_t opampCtrlReg;
ARM GAS  C:\Users\gjl\AppData\Local\Temp\cckcOS93.s 			page 99


1290:Generated_Source\PSoC6\pdl\drivers\peripheral\ctb/cy_ctb.c **** 
1291:Generated_Source\PSoC6\pdl\drivers\peripheral\ctb/cy_ctb.c ****     if ((compNum == CY_CTB_OPAMP_0) || (compNum == CY_CTB_OPAMP_BOTH))
 2317              		.loc 1 1291 0 is_stmt 1
 2318 0038 012C     		cmp	r4, #1
 2319 003a 01D0     		beq	.L245
 2320              		.loc 1 1291 0 is_stmt 0 discriminator 1
 2321 003c 032C     		cmp	r4, #3
 2322 003e 04D1     		bne	.L246
 2323              	.L245:
1292:Generated_Source\PSoC6\pdl\drivers\peripheral\ctb/cy_ctb.c ****     {
1293:Generated_Source\PSoC6\pdl\drivers\peripheral\ctb/cy_ctb.c ****         opampCtrlReg = base->OA_RES0_CTRL & ~(CTBM_OA_RES0_CTRL_OA0_COMPINT_Msk);
 2324              		.loc 1 1293 0 is_stmt 1
 2325 0040 7368     		ldr	r3, [r6, #4]
 2326 0042 23F44073 		bic	r3, r3, #768
 2327              	.LVL215:
1294:Generated_Source\PSoC6\pdl\drivers\peripheral\ctb/cy_ctb.c ****         base->OA_RES0_CTRL = opampCtrlReg | (uint32_t) edge;
 2328              		.loc 1 1294 0
 2329 0046 2B43     		orrs	r3, r3, r5
 2330              	.LVL216:
 2331 0048 7360     		str	r3, [r6, #4]
 2332              	.L246:
1295:Generated_Source\PSoC6\pdl\drivers\peripheral\ctb/cy_ctb.c ****     }
1296:Generated_Source\PSoC6\pdl\drivers\peripheral\ctb/cy_ctb.c **** 
1297:Generated_Source\PSoC6\pdl\drivers\peripheral\ctb/cy_ctb.c ****     if ((compNum == CY_CTB_OPAMP_1) || (compNum == CY_CTB_OPAMP_BOTH))
 2333              		.loc 1 1297 0
 2334 004a 023C     		subs	r4, r4, #2
 2335 004c E4B2     		uxtb	r4, r4
 2336 004e 012C     		cmp	r4, #1
 2337 0050 04D8     		bhi	.L242
1298:Generated_Source\PSoC6\pdl\drivers\peripheral\ctb/cy_ctb.c ****     {
1299:Generated_Source\PSoC6\pdl\drivers\peripheral\ctb/cy_ctb.c ****         opampCtrlReg = base->OA_RES1_CTRL & ~(CTBM_OA_RES1_CTRL_OA1_COMPINT_Msk);
 2338              		.loc 1 1299 0
 2339 0052 B368     		ldr	r3, [r6, #8]
 2340 0054 23F44073 		bic	r3, r3, #768
 2341              	.LVL217:
1300:Generated_Source\PSoC6\pdl\drivers\peripheral\ctb/cy_ctb.c ****         base->OA_RES1_CTRL = opampCtrlReg | (uint32_t) edge;
 2342              		.loc 1 1300 0
 2343 0058 1D43     		orrs	r5, r5, r3
 2344 005a B560     		str	r5, [r6, #8]
 2345              	.LVL218:
 2346              	.L242:
 2347 005c 70BD     		pop	{r4, r5, r6, pc}
 2348              	.LVL219:
 2349              	.L250:
 2350 005e 00BF     		.align	2
 2351              	.L249:
 2352 0060 00000000 		.word	.LC0
 2353              		.cfi_endproc
 2354              	.LFE199:
 2355              		.size	Cy_CTB_CompSetInterruptEdgeType, .-Cy_CTB_CompSetInterruptEdgeType
 2356              		.section	.text.Cy_CTB_CompGetStatus,"ax",%progbits
 2357              		.align	2
 2358              		.global	Cy_CTB_CompGetStatus
 2359              		.thumb
 2360              		.thumb_func
 2361              		.type	Cy_CTB_CompGetStatus, %function
 2362              	Cy_CTB_CompGetStatus:
ARM GAS  C:\Users\gjl\AppData\Local\Temp\cckcOS93.s 			page 100


 2363              	.LFB200:
1301:Generated_Source\PSoC6\pdl\drivers\peripheral\ctb/cy_ctb.c ****     }
1302:Generated_Source\PSoC6\pdl\drivers\peripheral\ctb/cy_ctb.c **** }
1303:Generated_Source\PSoC6\pdl\drivers\peripheral\ctb/cy_ctb.c **** 
1304:Generated_Source\PSoC6\pdl\drivers\peripheral\ctb/cy_ctb.c **** /*******************************************************************************
1305:Generated_Source\PSoC6\pdl\drivers\peripheral\ctb/cy_ctb.c **** * Function Name: Cy_CTB_CompGetStatus
1306:Generated_Source\PSoC6\pdl\drivers\peripheral\ctb/cy_ctb.c **** ****************************************************************************//**
1307:Generated_Source\PSoC6\pdl\drivers\peripheral\ctb/cy_ctb.c **** *
1308:Generated_Source\PSoC6\pdl\drivers\peripheral\ctb/cy_ctb.c **** * Return the comparator output status.
1309:Generated_Source\PSoC6\pdl\drivers\peripheral\ctb/cy_ctb.c **** * When the positive input voltage is greater than the negative input voltage,
1310:Generated_Source\PSoC6\pdl\drivers\peripheral\ctb/cy_ctb.c **** * the comparator status is high. Otherwise, the status is low.
1311:Generated_Source\PSoC6\pdl\drivers\peripheral\ctb/cy_ctb.c **** *
1312:Generated_Source\PSoC6\pdl\drivers\peripheral\ctb/cy_ctb.c **** * \param base
1313:Generated_Source\PSoC6\pdl\drivers\peripheral\ctb/cy_ctb.c **** * Pointer to structure describing registers
1314:Generated_Source\PSoC6\pdl\drivers\peripheral\ctb/cy_ctb.c **** *
1315:Generated_Source\PSoC6\pdl\drivers\peripheral\ctb/cy_ctb.c **** * \param compNum
1316:Generated_Source\PSoC6\pdl\drivers\peripheral\ctb/cy_ctb.c **** * \ref CY_CTB_OPAMP_0 or \ref CY_CTB_OPAMP_1.
1317:Generated_Source\PSoC6\pdl\drivers\peripheral\ctb/cy_ctb.c **** * \ref CY_CTB_OPAMP_NONE and \ref CY_CTB_OPAMP_BOTH are invalid options.
1318:Generated_Source\PSoC6\pdl\drivers\peripheral\ctb/cy_ctb.c **** *
1319:Generated_Source\PSoC6\pdl\drivers\peripheral\ctb/cy_ctb.c **** * \return
1320:Generated_Source\PSoC6\pdl\drivers\peripheral\ctb/cy_ctb.c **** * The comparator status.
1321:Generated_Source\PSoC6\pdl\drivers\peripheral\ctb/cy_ctb.c **** * A value of 0 is returned if compNum is invalid.
1322:Generated_Source\PSoC6\pdl\drivers\peripheral\ctb/cy_ctb.c **** * - 0: Status is low
1323:Generated_Source\PSoC6\pdl\drivers\peripheral\ctb/cy_ctb.c **** * - 1: Status is high
1324:Generated_Source\PSoC6\pdl\drivers\peripheral\ctb/cy_ctb.c **** *
1325:Generated_Source\PSoC6\pdl\drivers\peripheral\ctb/cy_ctb.c **** * \funcusage
1326:Generated_Source\PSoC6\pdl\drivers\peripheral\ctb/cy_ctb.c **** *
1327:Generated_Source\PSoC6\pdl\drivers\peripheral\ctb/cy_ctb.c **** * \snippet ctb_sut_01.cydsn/main_cm4.c CTB_SNIPPET_COMP_GET_STATUS
1328:Generated_Source\PSoC6\pdl\drivers\peripheral\ctb/cy_ctb.c **** *
1329:Generated_Source\PSoC6\pdl\drivers\peripheral\ctb/cy_ctb.c **** *******************************************************************************/
1330:Generated_Source\PSoC6\pdl\drivers\peripheral\ctb/cy_ctb.c **** uint32_t Cy_CTB_CompGetStatus(const CTBM_Type *base, cy_en_ctb_opamp_sel_t compNum)
1331:Generated_Source\PSoC6\pdl\drivers\peripheral\ctb/cy_ctb.c **** {
 2364              		.loc 1 1331 0
 2365              		.cfi_startproc
 2366              		@ args = 0, pretend = 0, frame = 0
 2367              		@ frame_needed = 0, uses_anonymous_args = 0
 2368              	.LVL220:
 2369 0000 38B5     		push	{r3, r4, r5, lr}
 2370              		.cfi_def_cfa_offset 16
 2371              		.cfi_offset 3, -16
 2372              		.cfi_offset 4, -12
 2373              		.cfi_offset 5, -8
 2374              		.cfi_offset 14, -4
 2375 0002 0546     		mov	r5, r0
 2376 0004 0C46     		mov	r4, r1
1332:Generated_Source\PSoC6\pdl\drivers\peripheral\ctb/cy_ctb.c ****     CY_ASSERT_L3(CY_CTB_OPAMPNUM_0_1(compNum));
 2377              		.loc 1 1332 0
 2378 0006 4B1E     		subs	r3, r1, #1
 2379 0008 DBB2     		uxtb	r3, r3
 2380 000a 012B     		cmp	r3, #1
 2381 000c 04D9     		bls	.L252
 2382              		.loc 1 1332 0 is_stmt 0 discriminator 1
 2383 000e 40F23451 		movw	r1, #1332
 2384              	.LVL221:
 2385 0012 0848     		ldr	r0, .L257
 2386              	.LVL222:
 2387 0014 FFF7FEFF 		bl	Cy_SysLib_AssertFailed
ARM GAS  C:\Users\gjl\AppData\Local\Temp\cckcOS93.s 			page 101


 2388              	.LVL223:
 2389              	.L252:
1333:Generated_Source\PSoC6\pdl\drivers\peripheral\ctb/cy_ctb.c **** 
1334:Generated_Source\PSoC6\pdl\drivers\peripheral\ctb/cy_ctb.c ****     uint32_t compStatusResult;
1335:Generated_Source\PSoC6\pdl\drivers\peripheral\ctb/cy_ctb.c **** 
1336:Generated_Source\PSoC6\pdl\drivers\peripheral\ctb/cy_ctb.c ****     if (CY_CTB_OPAMP_0 == compNum)
 2390              		.loc 1 1336 0 is_stmt 1
 2391 0018 012C     		cmp	r4, #1
 2392 001a 03D1     		bne	.L253
1337:Generated_Source\PSoC6\pdl\drivers\peripheral\ctb/cy_ctb.c ****     {
1338:Generated_Source\PSoC6\pdl\drivers\peripheral\ctb/cy_ctb.c ****         compStatusResult = (base->COMP_STAT & CTBM_COMP_STAT_OA0_COMP_Msk) >> CTBM_COMP_STAT_OA0_CO
 2393              		.loc 1 1338 0
 2394 001c E868     		ldr	r0, [r5, #12]
 2395 001e 00F00100 		and	r0, r0, #1
 2396              	.LVL224:
 2397 0022 38BD     		pop	{r3, r4, r5, pc}
 2398              	.LVL225:
 2399              	.L253:
1339:Generated_Source\PSoC6\pdl\drivers\peripheral\ctb/cy_ctb.c ****     }
1340:Generated_Source\PSoC6\pdl\drivers\peripheral\ctb/cy_ctb.c ****     else if (CY_CTB_OPAMP_1 == compNum)
 2400              		.loc 1 1340 0
 2401 0024 022C     		cmp	r4, #2
 2402 0026 03D1     		bne	.L255
1341:Generated_Source\PSoC6\pdl\drivers\peripheral\ctb/cy_ctb.c ****     {
1342:Generated_Source\PSoC6\pdl\drivers\peripheral\ctb/cy_ctb.c ****         compStatusResult = (base->COMP_STAT & CTBM_COMP_STAT_OA1_COMP_Msk) >> CTBM_COMP_STAT_OA1_CO
 2403              		.loc 1 1342 0
 2404 0028 E868     		ldr	r0, [r5, #12]
 2405 002a C0F30040 		ubfx	r0, r0, #16, #1
 2406              	.LVL226:
 2407 002e 38BD     		pop	{r3, r4, r5, pc}
 2408              	.LVL227:
 2409              	.L255:
1343:Generated_Source\PSoC6\pdl\drivers\peripheral\ctb/cy_ctb.c ****     }
1344:Generated_Source\PSoC6\pdl\drivers\peripheral\ctb/cy_ctb.c ****     else
1345:Generated_Source\PSoC6\pdl\drivers\peripheral\ctb/cy_ctb.c ****     {
1346:Generated_Source\PSoC6\pdl\drivers\peripheral\ctb/cy_ctb.c ****         compStatusResult = 0uL;
 2410              		.loc 1 1346 0
 2411 0030 0020     		movs	r0, #0
 2412              	.LVL228:
1347:Generated_Source\PSoC6\pdl\drivers\peripheral\ctb/cy_ctb.c ****     }
1348:Generated_Source\PSoC6\pdl\drivers\peripheral\ctb/cy_ctb.c **** 
1349:Generated_Source\PSoC6\pdl\drivers\peripheral\ctb/cy_ctb.c ****     return compStatusResult;
1350:Generated_Source\PSoC6\pdl\drivers\peripheral\ctb/cy_ctb.c **** }
 2413              		.loc 1 1350 0
 2414 0032 38BD     		pop	{r3, r4, r5, pc}
 2415              	.LVL229:
 2416              	.L258:
 2417              		.align	2
 2418              	.L257:
 2419 0034 00000000 		.word	.LC0
 2420              		.cfi_endproc
 2421              	.LFE200:
 2422              		.size	Cy_CTB_CompGetStatus, .-Cy_CTB_CompGetStatus
 2423              		.global	Cy_CTB_Fast_Opamp1_Vdac_Ref_Pin5
 2424              		.global	Cy_CTB_Fast_Opamp1_Vdac_Ref_Aref
 2425              		.global	Cy_CTB_Fast_Opamp1_Diffamp
 2426              		.global	Cy_CTB_Fast_Opamp1_Opamp10x
ARM GAS  C:\Users\gjl\AppData\Local\Temp\cckcOS93.s 			page 102


 2427              		.global	Cy_CTB_Fast_Opamp1_Opamp1x
 2428              		.global	Cy_CTB_Fast_Opamp1_Comp
 2429              		.global	Cy_CTB_Fast_Opamp1_Unused
 2430              		.global	Cy_CTB_Fast_Opamp0_Vdac_Out_SH
 2431              		.global	Cy_CTB_Fast_Opamp0_Vdac_Out
 2432              		.global	Cy_CTB_Fast_Opamp0_Diffamp
 2433              		.global	Cy_CTB_Fast_Opamp0_Opamp10x
 2434              		.global	Cy_CTB_Fast_Opamp0_Opamp1x
 2435              		.global	Cy_CTB_Fast_Opamp0_Comp
 2436              		.global	Cy_CTB_Fast_Opamp0_Unused
 2437              		.section	.rodata
 2438              		.align	2
 2439              		.type	Cy_CTB_Fast_Opamp1_Vdac_Ref_Pin5, %object
 2440              		.size	Cy_CTB_Fast_Opamp1_Vdac_Ref_Pin5, 12
 2441              	Cy_CTB_Fast_Opamp1_Vdac_Ref_Pin5:
 2442 0000 02       		.byte	2
 2443 0001 00       		.byte	0
 2444 0002 0000     		.space	2
 2445 0004 02400000 		.word	16386
 2446 0008 02000000 		.word	2
 2447              		.type	Cy_CTB_Fast_Opamp1_Vdac_Ref_Aref, %object
 2448              		.size	Cy_CTB_Fast_Opamp1_Vdac_Ref_Aref, 12
 2449              	Cy_CTB_Fast_Opamp1_Vdac_Ref_Aref:
 2450 000c 02       		.byte	2
 2451 000d 00       		.byte	0
 2452 000e 0000     		.space	2
 2453 0010 80400000 		.word	16512
 2454 0014 02000000 		.word	2
 2455              		.type	Cy_CTB_Fast_Opamp1_Diffamp, %object
 2456              		.size	Cy_CTB_Fast_Opamp1_Diffamp, 12
 2457              	Cy_CTB_Fast_Opamp1_Diffamp:
 2458 0018 02       		.byte	2
 2459 0019 08       		.byte	8
 2460 001a 0000     		.space	2
 2461 001c 10010000 		.word	272
 2462 0020 00000000 		.word	0
 2463              		.type	Cy_CTB_Fast_Opamp1_Opamp10x, %object
 2464              		.size	Cy_CTB_Fast_Opamp1_Opamp10x, 12
 2465              	Cy_CTB_Fast_Opamp1_Opamp10x:
 2466 0024 02       		.byte	2
 2467 0025 08       		.byte	8
 2468 0026 0000     		.space	2
 2469 0028 00000000 		.word	0
 2470 002c 00000000 		.word	0
 2471              		.type	Cy_CTB_Fast_Opamp1_Opamp1x, %object
 2472              		.size	Cy_CTB_Fast_Opamp1_Opamp1x, 12
 2473              	Cy_CTB_Fast_Opamp1_Opamp1x:
 2474 0030 02       		.byte	2
 2475 0031 00       		.byte	0
 2476 0032 0000     		.space	2
 2477 0034 00000000 		.word	0
 2478 0038 00000000 		.word	0
 2479              		.type	Cy_CTB_Fast_Opamp1_Comp, %object
 2480              		.size	Cy_CTB_Fast_Opamp1_Comp, 12
 2481              	Cy_CTB_Fast_Opamp1_Comp:
 2482 003c 02       		.byte	2
 2483 003d 10       		.byte	16
ARM GAS  C:\Users\gjl\AppData\Local\Temp\cckcOS93.s 			page 103


 2484 003e 0000     		.space	2
 2485 0040 00000000 		.word	0
 2486 0044 00000000 		.word	0
 2487              		.type	Cy_CTB_Fast_Opamp1_Unused, %object
 2488              		.size	Cy_CTB_Fast_Opamp1_Unused, 12
 2489              	Cy_CTB_Fast_Opamp1_Unused:
 2490 0048 00000000 		.space	12
 2490      00000000 
 2490      00000000 
 2491              		.type	Cy_CTB_Fast_Opamp0_Vdac_Out_SH, %object
 2492              		.size	Cy_CTB_Fast_Opamp0_Vdac_Out_SH, 12
 2493              	Cy_CTB_Fast_Opamp0_Vdac_Out_SH:
 2494 0054 02       		.byte	2
 2495 0055 08       		.byte	8
 2496 0056 0000     		.space	2
 2497 0058 00402000 		.word	2113536
 2498 005c 00320000 		.word	12800
 2499              		.type	Cy_CTB_Fast_Opamp0_Vdac_Out, %object
 2500              		.size	Cy_CTB_Fast_Opamp0_Vdac_Out, 12
 2501              	Cy_CTB_Fast_Opamp0_Vdac_Out:
 2502 0060 02       		.byte	2
 2503 0061 08       		.byte	8
 2504 0062 0000     		.space	2
 2505 0064 00402000 		.word	2113536
 2506 0068 00220000 		.word	8704
 2507              		.type	Cy_CTB_Fast_Opamp0_Diffamp, %object
 2508              		.size	Cy_CTB_Fast_Opamp0_Diffamp, 12
 2509              	Cy_CTB_Fast_Opamp0_Diffamp:
 2510 006c 02       		.byte	2
 2511 006d 08       		.byte	8
 2512 006e 0000     		.space	2
 2513 0070 04010000 		.word	260
 2514 0074 00400000 		.word	16384
 2515              		.type	Cy_CTB_Fast_Opamp0_Opamp10x, %object
 2516              		.size	Cy_CTB_Fast_Opamp0_Opamp10x, 12
 2517              	Cy_CTB_Fast_Opamp0_Opamp10x:
 2518 0078 02       		.byte	2
 2519 0079 08       		.byte	8
 2520 007a 0000     		.space	2
 2521 007c 00000000 		.word	0
 2522 0080 00000000 		.word	0
 2523              		.type	Cy_CTB_Fast_Opamp0_Opamp1x, %object
 2524              		.size	Cy_CTB_Fast_Opamp0_Opamp1x, 12
 2525              	Cy_CTB_Fast_Opamp0_Opamp1x:
 2526 0084 02       		.byte	2
 2527 0085 00       		.byte	0
 2528 0086 0000     		.space	2
 2529 0088 00000000 		.word	0
 2530 008c 00000000 		.word	0
 2531              		.type	Cy_CTB_Fast_Opamp0_Comp, %object
 2532              		.size	Cy_CTB_Fast_Opamp0_Comp, 12
 2533              	Cy_CTB_Fast_Opamp0_Comp:
 2534 0090 02       		.byte	2
 2535 0091 10       		.byte	16
 2536 0092 0000     		.space	2
 2537 0094 00000000 		.word	0
 2538 0098 00000000 		.word	0
ARM GAS  C:\Users\gjl\AppData\Local\Temp\cckcOS93.s 			page 104


 2539              		.type	Cy_CTB_Fast_Opamp0_Unused, %object
 2540              		.size	Cy_CTB_Fast_Opamp0_Unused, 12
 2541              	Cy_CTB_Fast_Opamp0_Unused:
 2542 009c 00000000 		.space	12
 2542      00000000 
 2542      00000000 
 2543              		.section	.rodata.str1.4,"aMS",%progbits,1
 2544              		.align	2
 2545              	.LC0:
 2546 0000 47656E65 		.ascii	"Generated_Source\\PSoC6\\pdl\\drivers\\peripheral\\"
 2546      72617465 
 2546      645F536F 
 2546      75726365 
 2546      5C50536F 
 2547 002e 6374625C 		.ascii	"ctb\\cy_ctb.c\000"
 2547      63795F63 
 2547      74622E63 
 2547      00
 2548              		.text
 2549              	.Letext0:
 2550              		.file 4 "c:\\program files (x86)\\cypress\\psoc creator\\4.2\\psoc creator\\import\\gnu\\arm\\5.4.
 2551              		.file 5 "c:\\program files (x86)\\cypress\\psoc creator\\4.2\\psoc creator\\import\\gnu\\arm\\5.4.
 2552              		.file 6 "Generated_Source\\PSoC6\\pdl\\devices/psoc6/ip/cyip_ctbm.h"
 2553              		.file 7 "Generated_Source\\PSoC6\\pdl\\devices/psoc6/ip/cyip_pass.h"
 2554              		.file 8 "Generated_Source\\PSoC6\\pdl\\drivers/peripheral/syslib/cy_syslib.h"
 2555              		.file 9 "Generated_Source\\PSoC6\\pdl\\cmsis/include/core_cm4.h"
 2556              		.section	.debug_info,"",%progbits
 2557              	.Ldebug_info0:
 2558 0000 7B1A0000 		.4byte	0x1a7b
 2559 0004 0400     		.2byte	0x4
 2560 0006 00000000 		.4byte	.Ldebug_abbrev0
 2561 000a 04       		.byte	0x4
 2562 000b 01       		.uleb128 0x1
 2563 000c 28030000 		.4byte	.LASF257
 2564 0010 0C       		.byte	0xc
 2565 0011 D0060000 		.4byte	.LASF258
 2566 0015 2B020000 		.4byte	.LASF259
 2567 0019 00000000 		.4byte	.Ldebug_ranges0+0
 2568 001d 00000000 		.4byte	0
 2569 0021 00000000 		.4byte	.Ldebug_line0
 2570 0025 02       		.uleb128 0x2
 2571 0026 01       		.byte	0x1
 2572 0027 06       		.byte	0x6
 2573 0028 58120000 		.4byte	.LASF0
 2574 002c 02       		.uleb128 0x2
 2575 002d 01       		.byte	0x1
 2576 002e 08       		.byte	0x8
 2577 002f 3F110000 		.4byte	.LASF1
 2578 0033 02       		.uleb128 0x2
 2579 0034 02       		.byte	0x2
 2580 0035 05       		.byte	0x5
 2581 0036 8F0D0000 		.4byte	.LASF2
 2582 003a 02       		.uleb128 0x2
 2583 003b 02       		.byte	0x2
 2584 003c 07       		.byte	0x7
 2585 003d 7A120000 		.4byte	.LASF3
 2586 0041 03       		.uleb128 0x3
ARM GAS  C:\Users\gjl\AppData\Local\Temp\cckcOS93.s 			page 105


 2587 0042 C4010000 		.4byte	.LASF5
 2588 0046 04       		.byte	0x4
 2589 0047 3F       		.byte	0x3f
 2590 0048 4C000000 		.4byte	0x4c
 2591 004c 02       		.uleb128 0x2
 2592 004d 04       		.byte	0x4
 2593 004e 05       		.byte	0x5
 2594 004f F20D0000 		.4byte	.LASF4
 2595 0053 03       		.uleb128 0x3
 2596 0054 E50C0000 		.4byte	.LASF6
 2597 0058 04       		.byte	0x4
 2598 0059 41       		.byte	0x41
 2599 005a 5E000000 		.4byte	0x5e
 2600 005e 02       		.uleb128 0x2
 2601 005f 04       		.byte	0x4
 2602 0060 07       		.byte	0x7
 2603 0061 3D100000 		.4byte	.LASF7
 2604 0065 02       		.uleb128 0x2
 2605 0066 08       		.byte	0x8
 2606 0067 05       		.byte	0x5
 2607 0068 860A0000 		.4byte	.LASF8
 2608 006c 02       		.uleb128 0x2
 2609 006d 08       		.byte	0x8
 2610 006e 07       		.byte	0x7
 2611 006f 79050000 		.4byte	.LASF9
 2612 0073 04       		.uleb128 0x4
 2613 0074 04       		.byte	0x4
 2614 0075 05       		.byte	0x5
 2615 0076 696E7400 		.ascii	"int\000"
 2616 007a 02       		.uleb128 0x2
 2617 007b 04       		.byte	0x4
 2618 007c 07       		.byte	0x7
 2619 007d 8E090000 		.4byte	.LASF10
 2620 0081 03       		.uleb128 0x3
 2621 0082 A9100000 		.4byte	.LASF11
 2622 0086 05       		.byte	0x5
 2623 0087 2C       		.byte	0x2c
 2624 0088 41000000 		.4byte	0x41
 2625 008c 03       		.uleb128 0x3
 2626 008d 5C040000 		.4byte	.LASF12
 2627 0091 05       		.byte	0x5
 2628 0092 30       		.byte	0x30
 2629 0093 53000000 		.4byte	0x53
 2630 0097 02       		.uleb128 0x2
 2631 0098 08       		.byte	0x8
 2632 0099 04       		.byte	0x4
 2633 009a A70C0000 		.4byte	.LASF13
 2634 009e 02       		.uleb128 0x2
 2635 009f 04       		.byte	0x4
 2636 00a0 07       		.byte	0x7
 2637 00a1 34100000 		.4byte	.LASF14
 2638 00a5 05       		.uleb128 0x5
 2639 00a6 8C000000 		.4byte	0x8c
 2640 00aa 06       		.uleb128 0x6
 2641 00ab A5000000 		.4byte	0xa5
 2642 00af 07       		.uleb128 0x7
 2643 00b0 AA000000 		.4byte	0xaa
ARM GAS  C:\Users\gjl\AppData\Local\Temp\cckcOS93.s 			page 106


 2644 00b4 BF000000 		.4byte	0xbf
 2645 00b8 08       		.uleb128 0x8
 2646 00b9 9E000000 		.4byte	0x9e
 2647 00bd 03       		.byte	0x3
 2648 00be 00       		.byte	0
 2649 00bf 07       		.uleb128 0x7
 2650 00c0 AA000000 		.4byte	0xaa
 2651 00c4 CF000000 		.4byte	0xcf
 2652 00c8 08       		.uleb128 0x8
 2653 00c9 9E000000 		.4byte	0x9e
 2654 00cd 05       		.byte	0x5
 2655 00ce 00       		.byte	0
 2656 00cf 07       		.uleb128 0x7
 2657 00d0 AA000000 		.4byte	0xaa
 2658 00d4 DF000000 		.4byte	0xdf
 2659 00d8 08       		.uleb128 0x8
 2660 00d9 9E000000 		.4byte	0x9e
 2661 00dd 3E       		.byte	0x3e
 2662 00de 00       		.byte	0
 2663 00df 07       		.uleb128 0x7
 2664 00e0 AA000000 		.4byte	0xaa
 2665 00e4 EF000000 		.4byte	0xef
 2666 00e8 08       		.uleb128 0x8
 2667 00e9 9E000000 		.4byte	0x9e
 2668 00ed 13       		.byte	0x13
 2669 00ee 00       		.byte	0
 2670 00ef 09       		.uleb128 0x9
 2671 00f0 180F     		.2byte	0xf18
 2672 00f2 06       		.byte	0x6
 2673 00f3 21       		.byte	0x21
 2674 00f4 4F020000 		.4byte	0x24f
 2675 00f8 0A       		.uleb128 0xa
 2676 00f9 56130000 		.4byte	.LASF15
 2677 00fd 06       		.byte	0x6
 2678 00fe 22       		.byte	0x22
 2679 00ff A5000000 		.4byte	0xa5
 2680 0103 00       		.byte	0
 2681 0104 0A       		.uleb128 0xa
 2682 0105 33120000 		.4byte	.LASF16
 2683 0109 06       		.byte	0x6
 2684 010a 23       		.byte	0x23
 2685 010b A5000000 		.4byte	0xa5
 2686 010f 04       		.byte	0x4
 2687 0110 0A       		.uleb128 0xa
 2688 0111 17010000 		.4byte	.LASF17
 2689 0115 06       		.byte	0x6
 2690 0116 24       		.byte	0x24
 2691 0117 A5000000 		.4byte	0xa5
 2692 011b 08       		.byte	0x8
 2693 011c 0A       		.uleb128 0xa
 2694 011d 8E0F0000 		.4byte	.LASF18
 2695 0121 06       		.byte	0x6
 2696 0122 25       		.byte	0x25
 2697 0123 AA000000 		.4byte	0xaa
 2698 0127 0C       		.byte	0xc
 2699 0128 0A       		.uleb128 0xa
 2700 0129 00000000 		.4byte	.LASF19
ARM GAS  C:\Users\gjl\AppData\Local\Temp\cckcOS93.s 			page 107


 2701 012d 06       		.byte	0x6
 2702 012e 26       		.byte	0x26
 2703 012f 54020000 		.4byte	0x254
 2704 0133 10       		.byte	0x10
 2705 0134 0A       		.uleb128 0xa
 2706 0135 D6040000 		.4byte	.LASF20
 2707 0139 06       		.byte	0x6
 2708 013a 27       		.byte	0x27
 2709 013b A5000000 		.4byte	0xa5
 2710 013f 20       		.byte	0x20
 2711 0140 0A       		.uleb128 0xa
 2712 0141 EE020000 		.4byte	.LASF21
 2713 0145 06       		.byte	0x6
 2714 0146 28       		.byte	0x28
 2715 0147 A5000000 		.4byte	0xa5
 2716 014b 24       		.byte	0x24
 2717 014c 0A       		.uleb128 0xa
 2718 014d F0070000 		.4byte	.LASF22
 2719 0151 06       		.byte	0x6
 2720 0152 29       		.byte	0x29
 2721 0153 A5000000 		.4byte	0xa5
 2722 0157 28       		.byte	0x28
 2723 0158 0A       		.uleb128 0xa
 2724 0159 E80F0000 		.4byte	.LASF23
 2725 015d 06       		.byte	0x6
 2726 015e 2A       		.byte	0x2a
 2727 015f AA000000 		.4byte	0xaa
 2728 0163 2C       		.byte	0x2c
 2729 0164 0A       		.uleb128 0xa
 2730 0165 670D0000 		.4byte	.LASF24
 2731 0169 06       		.byte	0x6
 2732 016a 2B       		.byte	0x2b
 2733 016b 5E020000 		.4byte	0x25e
 2734 016f 30       		.byte	0x30
 2735 0170 0A       		.uleb128 0xa
 2736 0171 EE0B0000 		.4byte	.LASF25
 2737 0175 06       		.byte	0x6
 2738 0176 2C       		.byte	0x2c
 2739 0177 A5000000 		.4byte	0xa5
 2740 017b 80       		.byte	0x80
 2741 017c 0A       		.uleb128 0xa
 2742 017d F40F0000 		.4byte	.LASF26
 2743 0181 06       		.byte	0x6
 2744 0182 2D       		.byte	0x2d
 2745 0183 A5000000 		.4byte	0xa5
 2746 0187 84       		.byte	0x84
 2747 0188 0A       		.uleb128 0xa
 2748 0189 FA070000 		.4byte	.LASF27
 2749 018d 06       		.byte	0x6
 2750 018e 2E       		.byte	0x2e
 2751 018f A5000000 		.4byte	0xa5
 2752 0193 88       		.byte	0x88
 2753 0194 0A       		.uleb128 0xa
 2754 0195 E7130000 		.4byte	.LASF28
 2755 0199 06       		.byte	0x6
 2756 019a 2F       		.byte	0x2f
 2757 019b A5000000 		.4byte	0xa5
ARM GAS  C:\Users\gjl\AppData\Local\Temp\cckcOS93.s 			page 108


 2758 019f 8C       		.byte	0x8c
 2759 01a0 0A       		.uleb128 0xa
 2760 01a1 710D0000 		.4byte	.LASF29
 2761 01a5 06       		.byte	0x6
 2762 01a6 30       		.byte	0x30
 2763 01a7 68020000 		.4byte	0x268
 2764 01ab 90       		.byte	0x90
 2765 01ac 0A       		.uleb128 0xa
 2766 01ad 6B090000 		.4byte	.LASF30
 2767 01b1 06       		.byte	0x6
 2768 01b2 31       		.byte	0x31
 2769 01b3 A5000000 		.4byte	0xa5
 2770 01b7 A0       		.byte	0xa0
 2771 01b8 0A       		.uleb128 0xa
 2772 01b9 F6120000 		.4byte	.LASF31
 2773 01bd 06       		.byte	0x6
 2774 01be 32       		.byte	0x32
 2775 01bf A5000000 		.4byte	0xa5
 2776 01c3 A4       		.byte	0xa4
 2777 01c4 0A       		.uleb128 0xa
 2778 01c5 7B0D0000 		.4byte	.LASF32
 2779 01c9 06       		.byte	0x6
 2780 01ca 33       		.byte	0x33
 2781 01cb 72020000 		.4byte	0x272
 2782 01cf A8       		.byte	0xa8
 2783 01d0 0A       		.uleb128 0xa
 2784 01d1 19130000 		.4byte	.LASF33
 2785 01d5 06       		.byte	0x6
 2786 01d6 34       		.byte	0x34
 2787 01d7 A5000000 		.4byte	0xa5
 2788 01db C0       		.byte	0xc0
 2789 01dc 0A       		.uleb128 0xa
 2790 01dd B2090000 		.4byte	.LASF34
 2791 01e1 06       		.byte	0x6
 2792 01e2 35       		.byte	0x35
 2793 01e3 A5000000 		.4byte	0xa5
 2794 01e7 C4       		.byte	0xc4
 2795 01e8 0A       		.uleb128 0xa
 2796 01e9 5C000000 		.4byte	.LASF35
 2797 01ed 06       		.byte	0x6
 2798 01ee 36       		.byte	0x36
 2799 01ef AA000000 		.4byte	0xaa
 2800 01f3 C8       		.byte	0xc8
 2801 01f4 0A       		.uleb128 0xa
 2802 01f5 850D0000 		.4byte	.LASF36
 2803 01f9 06       		.byte	0x6
 2804 01fa 37       		.byte	0x37
 2805 01fb 8D020000 		.4byte	0x28d
 2806 01ff CC       		.byte	0xcc
 2807 0200 0B       		.uleb128 0xb
 2808 0201 50080000 		.4byte	.LASF37
 2809 0205 06       		.byte	0x6
 2810 0206 38       		.byte	0x38
 2811 0207 A5000000 		.4byte	0xa5
 2812 020b 000F     		.2byte	0xf00
 2813 020d 0B       		.uleb128 0xb
 2814 020e 5F130000 		.4byte	.LASF38
ARM GAS  C:\Users\gjl\AppData\Local\Temp\cckcOS93.s 			page 109


 2815 0212 06       		.byte	0x6
 2816 0213 39       		.byte	0x39
 2817 0214 A5000000 		.4byte	0xa5
 2818 0218 040F     		.2byte	0xf04
 2819 021a 0B       		.uleb128 0xb
 2820 021b 820B0000 		.4byte	.LASF39
 2821 021f 06       		.byte	0x6
 2822 0220 3A       		.byte	0x3a
 2823 0221 A5000000 		.4byte	0xa5
 2824 0225 080F     		.2byte	0xf08
 2825 0227 0B       		.uleb128 0xb
 2826 0228 98120000 		.4byte	.LASF40
 2827 022c 06       		.byte	0x6
 2828 022d 3B       		.byte	0x3b
 2829 022e A5000000 		.4byte	0xa5
 2830 0232 0C0F     		.2byte	0xf0c
 2831 0234 0B       		.uleb128 0xb
 2832 0235 29110000 		.4byte	.LASF41
 2833 0239 06       		.byte	0x6
 2834 023a 3C       		.byte	0x3c
 2835 023b A5000000 		.4byte	0xa5
 2836 023f 100F     		.2byte	0xf10
 2837 0241 0B       		.uleb128 0xb
 2838 0242 21080000 		.4byte	.LASF42
 2839 0246 06       		.byte	0x6
 2840 0247 3D       		.byte	0x3d
 2841 0248 A5000000 		.4byte	0xa5
 2842 024c 140F     		.2byte	0xf14
 2843 024e 00       		.byte	0
 2844 024f 05       		.uleb128 0x5
 2845 0250 AF000000 		.4byte	0xaf
 2846 0254 06       		.uleb128 0x6
 2847 0255 4F020000 		.4byte	0x24f
 2848 0259 05       		.uleb128 0x5
 2849 025a DF000000 		.4byte	0xdf
 2850 025e 06       		.uleb128 0x6
 2851 025f 59020000 		.4byte	0x259
 2852 0263 05       		.uleb128 0x5
 2853 0264 AF000000 		.4byte	0xaf
 2854 0268 06       		.uleb128 0x6
 2855 0269 63020000 		.4byte	0x263
 2856 026d 05       		.uleb128 0x5
 2857 026e BF000000 		.4byte	0xbf
 2858 0272 06       		.uleb128 0x6
 2859 0273 6D020000 		.4byte	0x26d
 2860 0277 07       		.uleb128 0x7
 2861 0278 AA000000 		.4byte	0xaa
 2862 027c 88020000 		.4byte	0x288
 2863 0280 0C       		.uleb128 0xc
 2864 0281 9E000000 		.4byte	0x9e
 2865 0285 8C03     		.2byte	0x38c
 2866 0287 00       		.byte	0
 2867 0288 05       		.uleb128 0x5
 2868 0289 77020000 		.4byte	0x277
 2869 028d 06       		.uleb128 0x6
 2870 028e 88020000 		.4byte	0x288
 2871 0292 03       		.uleb128 0x3
ARM GAS  C:\Users\gjl\AppData\Local\Temp\cckcOS93.s 			page 110


 2872 0293 30130000 		.4byte	.LASF43
 2873 0297 06       		.byte	0x6
 2874 0298 3E       		.byte	0x3e
 2875 0299 EF000000 		.4byte	0xef
 2876 029d 09       		.uleb128 0x9
 2877 029e 0001     		.2byte	0x100
 2878 02a0 07       		.byte	0x7
 2879 02a1 22       		.byte	0x22
 2880 02a2 BF020000 		.4byte	0x2bf
 2881 02a6 0A       		.uleb128 0xa
 2882 02a7 520C0000 		.4byte	.LASF44
 2883 02ab 07       		.byte	0x7
 2884 02ac 23       		.byte	0x23
 2885 02ad A5000000 		.4byte	0xa5
 2886 02b1 00       		.byte	0
 2887 02b2 0A       		.uleb128 0xa
 2888 02b3 00000000 		.4byte	.LASF19
 2889 02b7 07       		.byte	0x7
 2890 02b8 24       		.byte	0x24
 2891 02b9 C4020000 		.4byte	0x2c4
 2892 02bd 04       		.byte	0x4
 2893 02be 00       		.byte	0
 2894 02bf 05       		.uleb128 0x5
 2895 02c0 CF000000 		.4byte	0xcf
 2896 02c4 06       		.uleb128 0x6
 2897 02c5 BF020000 		.4byte	0x2bf
 2898 02c9 03       		.uleb128 0x3
 2899 02ca 82080000 		.4byte	.LASF45
 2900 02ce 07       		.byte	0x7
 2901 02cf 25       		.byte	0x25
 2902 02d0 9D020000 		.4byte	0x29d
 2903 02d4 09       		.uleb128 0x9
 2904 02d5 200F     		.2byte	0xf20
 2905 02d7 07       		.byte	0x7
 2906 02d8 2A       		.byte	0x2a
 2907 02d9 6B030000 		.4byte	0x36b
 2908 02dd 0A       		.uleb128 0xa
 2909 02de 67010000 		.4byte	.LASF46
 2910 02e2 07       		.byte	0x7
 2911 02e3 2B       		.byte	0x2b
 2912 02e4 AA000000 		.4byte	0xaa
 2913 02e8 00       		.byte	0
 2914 02e9 0A       		.uleb128 0xa
 2915 02ea 00000000 		.4byte	.LASF19
 2916 02ee 07       		.byte	0x7
 2917 02ef 2C       		.byte	0x2c
 2918 02f0 81030000 		.4byte	0x381
 2919 02f4 04       		.byte	0x4
 2920 02f5 0B       		.uleb128 0xb
 2921 02f6 42040000 		.4byte	.LASF47
 2922 02fa 07       		.byte	0x7
 2923 02fb 2D       		.byte	0x2d
 2924 02fc C9020000 		.4byte	0x2c9
 2925 0300 000E     		.2byte	0xe00
 2926 0302 0B       		.uleb128 0xb
 2927 0303 64120000 		.4byte	.LASF48
 2928 0307 07       		.byte	0x7
ARM GAS  C:\Users\gjl\AppData\Local\Temp\cckcOS93.s 			page 111


 2929 0308 2E       		.byte	0x2e
 2930 0309 A5000000 		.4byte	0xa5
 2931 030d 000F     		.2byte	0xf00
 2932 030f 0B       		.uleb128 0xb
 2933 0310 6F120000 		.4byte	.LASF49
 2934 0314 07       		.byte	0x7
 2935 0315 2F       		.byte	0x2f
 2936 0316 A5000000 		.4byte	0xa5
 2937 031a 040F     		.2byte	0xf04
 2938 031c 0B       		.uleb128 0xb
 2939 031d 3C090000 		.4byte	.LASF50
 2940 0321 07       		.byte	0x7
 2941 0322 30       		.byte	0x30
 2942 0323 A5000000 		.4byte	0xa5
 2943 0327 080F     		.2byte	0xf08
 2944 0329 0B       		.uleb128 0xb
 2945 032a 8D120000 		.4byte	.LASF51
 2946 032e 07       		.byte	0x7
 2947 032f 31       		.byte	0x31
 2948 0330 A5000000 		.4byte	0xa5
 2949 0334 0C0F     		.2byte	0xf0c
 2950 0336 0B       		.uleb128 0xb
 2951 0337 4F100000 		.4byte	.LASF52
 2952 033b 07       		.byte	0x7
 2953 033c 32       		.byte	0x32
 2954 033d A5000000 		.4byte	0xa5
 2955 0341 100F     		.2byte	0xf10
 2956 0343 0B       		.uleb128 0xb
 2957 0344 AF050000 		.4byte	.LASF53
 2958 0348 07       		.byte	0x7
 2959 0349 33       		.byte	0x33
 2960 034a A5000000 		.4byte	0xa5
 2961 034e 140F     		.2byte	0xf14
 2962 0350 0B       		.uleb128 0xb
 2963 0351 19070000 		.4byte	.LASF54
 2964 0355 07       		.byte	0x7
 2965 0356 34       		.byte	0x34
 2966 0357 A5000000 		.4byte	0xa5
 2967 035b 180F     		.2byte	0xf18
 2968 035d 0B       		.uleb128 0xb
 2969 035e 11060000 		.4byte	.LASF55
 2970 0362 07       		.byte	0x7
 2971 0363 35       		.byte	0x35
 2972 0364 A5000000 		.4byte	0xa5
 2973 0368 1C0F     		.2byte	0xf1c
 2974 036a 00       		.byte	0
 2975 036b 07       		.uleb128 0x7
 2976 036c AA000000 		.4byte	0xaa
 2977 0370 7C030000 		.4byte	0x37c
 2978 0374 0C       		.uleb128 0xc
 2979 0375 9E000000 		.4byte	0x9e
 2980 0379 7E03     		.2byte	0x37e
 2981 037b 00       		.byte	0
 2982 037c 05       		.uleb128 0x5
 2983 037d 6B030000 		.4byte	0x36b
 2984 0381 06       		.uleb128 0x6
 2985 0382 7C030000 		.4byte	0x37c
ARM GAS  C:\Users\gjl\AppData\Local\Temp\cckcOS93.s 			page 112


 2986 0386 03       		.uleb128 0x3
 2987 0387 120F0000 		.4byte	.LASF56
 2988 038b 07       		.byte	0x7
 2989 038c 36       		.byte	0x36
 2990 038d D4020000 		.4byte	0x2d4
 2991 0391 0D       		.uleb128 0xd
 2992 0392 40120000 		.4byte	.LASF57
 2993 0396 08       		.byte	0x8
 2994 0397 C401     		.2byte	0x1c4
 2995 0399 9D030000 		.4byte	0x39d
 2996 039d 02       		.uleb128 0x2
 2997 039e 01       		.byte	0x1
 2998 039f 08       		.byte	0x8
 2999 03a0 B9080000 		.4byte	.LASF58
 3000 03a4 02       		.uleb128 0x2
 3001 03a5 04       		.byte	0x4
 3002 03a6 04       		.byte	0x4
 3003 03a7 DB040000 		.4byte	.LASF59
 3004 03ab 02       		.uleb128 0x2
 3005 03ac 08       		.byte	0x8
 3006 03ad 04       		.byte	0x4
 3007 03ae 40070000 		.4byte	.LASF60
 3008 03b2 0E       		.uleb128 0xe
 3009 03b3 04       		.byte	0x4
 3010 03b4 7A000000 		.4byte	0x7a
 3011 03b8 03       		.byte	0x3
 3012 03b9 0301     		.2byte	0x103
 3013 03bb E1030000 		.4byte	0x3e1
 3014 03bf 0F       		.uleb128 0xf
 3015 03c0 730E0000 		.4byte	.LASF61
 3016 03c4 00       		.byte	0
 3017 03c5 10       		.uleb128 0x10
 3018 03c6 2B0E0000 		.4byte	.LASF62
 3019 03ca 00000050 		.4byte	0x50000000
 3020 03ce 10       		.uleb128 0x10
 3021 03cf 4A0E0000 		.4byte	.LASF63
 3022 03d3 00000060 		.4byte	0x60000000
 3023 03d7 10       		.uleb128 0x10
 3024 03d8 D5100000 		.4byte	.LASF64
 3025 03dc 00000070 		.4byte	0x70000000
 3026 03e0 00       		.byte	0
 3027 03e1 0D       		.uleb128 0xd
 3028 03e2 F00C0000 		.4byte	.LASF65
 3029 03e6 03       		.byte	0x3
 3030 03e7 0C01     		.2byte	0x10c
 3031 03e9 B2030000 		.4byte	0x3b2
 3032 03ed 0E       		.uleb128 0xe
 3033 03ee 01       		.byte	0x1
 3034 03ef 2C000000 		.4byte	0x2c
 3035 03f3 02       		.byte	0x2
 3036 03f4 AC01     		.2byte	0x1ac
 3037 03f6 13040000 		.4byte	0x413
 3038 03fa 0F       		.uleb128 0xf
 3039 03fb 3C010000 		.4byte	.LASF66
 3040 03ff 00       		.byte	0
 3041 0400 0F       		.uleb128 0xf
 3042 0401 900B0000 		.4byte	.LASF67
ARM GAS  C:\Users\gjl\AppData\Local\Temp\cckcOS93.s 			page 113


 3043 0405 01       		.byte	0x1
 3044 0406 0F       		.uleb128 0xf
 3045 0407 9F0B0000 		.4byte	.LASF68
 3046 040b 02       		.byte	0x2
 3047 040c 0F       		.uleb128 0xf
 3048 040d 830C0000 		.4byte	.LASF69
 3049 0411 03       		.byte	0x3
 3050 0412 00       		.byte	0
 3051 0413 0D       		.uleb128 0xd
 3052 0414 CB000000 		.4byte	.LASF70
 3053 0418 02       		.byte	0x2
 3054 0419 B101     		.2byte	0x1b1
 3055 041b ED030000 		.4byte	0x3ed
 3056 041f 0E       		.uleb128 0xe
 3057 0420 04       		.byte	0x4
 3058 0421 7A000000 		.4byte	0x7a
 3059 0425 02       		.byte	0x2
 3060 0426 B501     		.2byte	0x1b5
 3061 0428 3C040000 		.4byte	0x43c
 3062 042c 0F       		.uleb128 0xf
 3063 042d 60050000 		.4byte	.LASF71
 3064 0431 00       		.byte	0
 3065 0432 10       		.uleb128 0x10
 3066 0433 AE0E0000 		.4byte	.LASF72
 3067 0437 00000040 		.4byte	0x40000000
 3068 043b 00       		.byte	0
 3069 043c 0D       		.uleb128 0xd
 3070 043d BB050000 		.4byte	.LASF73
 3071 0441 02       		.byte	0x2
 3072 0442 B801     		.2byte	0x1b8
 3073 0444 1F040000 		.4byte	0x41f
 3074 0448 0E       		.uleb128 0xe
 3075 0449 01       		.byte	0x1
 3076 044a 2C000000 		.4byte	0x2c
 3077 044e 02       		.byte	0x2
 3078 044f D801     		.2byte	0x1d8
 3079 0451 6E040000 		.4byte	0x46e
 3080 0455 0F       		.uleb128 0xf
 3081 0456 C4100000 		.4byte	.LASF74
 3082 045a 00       		.byte	0
 3083 045b 0F       		.uleb128 0xf
 3084 045c F7040000 		.4byte	.LASF75
 3085 0460 01       		.byte	0x1
 3086 0461 0F       		.uleb128 0xf
 3087 0462 47070000 		.4byte	.LASF76
 3088 0466 02       		.byte	0x2
 3089 0467 0F       		.uleb128 0xf
 3090 0468 1D0A0000 		.4byte	.LASF77
 3091 046c 03       		.byte	0x3
 3092 046d 00       		.byte	0
 3093 046e 0D       		.uleb128 0xd
 3094 046f 950C0000 		.4byte	.LASF78
 3095 0473 02       		.byte	0x2
 3096 0474 DD01     		.2byte	0x1dd
 3097 0476 48040000 		.4byte	0x448
 3098 047a 0E       		.uleb128 0xe
 3099 047b 01       		.byte	0x1
ARM GAS  C:\Users\gjl\AppData\Local\Temp\cckcOS93.s 			page 114


 3100 047c 2C000000 		.4byte	0x2c
 3101 0480 02       		.byte	0x2
 3102 0481 E301     		.2byte	0x1e3
 3103 0483 9A040000 		.4byte	0x49a
 3104 0487 0F       		.uleb128 0xf
 3105 0488 720A0000 		.4byte	.LASF79
 3106 048c 00       		.byte	0
 3107 048d 0F       		.uleb128 0xf
 3108 048e A7110000 		.4byte	.LASF80
 3109 0492 08       		.byte	0x8
 3110 0493 0F       		.uleb128 0xf
 3111 0494 84020000 		.4byte	.LASF81
 3112 0498 10       		.byte	0x10
 3113 0499 00       		.byte	0
 3114 049a 0D       		.uleb128 0xd
 3115 049b 080C0000 		.4byte	.LASF82
 3116 049f 02       		.byte	0x2
 3117 04a0 E701     		.2byte	0x1e7
 3118 04a2 7A040000 		.4byte	0x47a
 3119 04a6 0E       		.uleb128 0xe
 3120 04a7 02       		.byte	0x2
 3121 04a8 3A000000 		.4byte	0x3a
 3122 04ac 02       		.byte	0x2
 3123 04ad FD01     		.2byte	0x1fd
 3124 04af C1040000 		.4byte	0x4c1
 3125 04b3 0F       		.uleb128 0xf
 3126 04b4 A7070000 		.4byte	.LASF83
 3127 04b8 00       		.byte	0
 3128 04b9 11       		.uleb128 0x11
 3129 04ba B1100000 		.4byte	.LASF84
 3130 04be 0008     		.2byte	0x800
 3131 04c0 00       		.byte	0
 3132 04c1 0D       		.uleb128 0xd
 3133 04c2 4D110000 		.4byte	.LASF85
 3134 04c6 02       		.byte	0x2
 3135 04c7 0002     		.2byte	0x200
 3136 04c9 A6040000 		.4byte	0x4a6
 3137 04cd 0E       		.uleb128 0xe
 3138 04ce 02       		.byte	0x2
 3139 04cf 3A000000 		.4byte	0x3a
 3140 04d3 02       		.byte	0x2
 3141 04d4 0702     		.2byte	0x207
 3142 04d6 F6040000 		.4byte	0x4f6
 3143 04da 0F       		.uleb128 0xf
 3144 04db 89110000 		.4byte	.LASF86
 3145 04df 00       		.byte	0
 3146 04e0 11       		.uleb128 0x11
 3147 04e1 79100000 		.4byte	.LASF87
 3148 04e5 0001     		.2byte	0x100
 3149 04e7 11       		.uleb128 0x11
 3150 04e8 E1110000 		.4byte	.LASF88
 3151 04ec 0002     		.2byte	0x200
 3152 04ee 11       		.uleb128 0x11
 3153 04ef BA060000 		.4byte	.LASF89
 3154 04f3 0003     		.2byte	0x300
 3155 04f5 00       		.byte	0
 3156 04f6 0D       		.uleb128 0xd
ARM GAS  C:\Users\gjl\AppData\Local\Temp\cckcOS93.s 			page 115


 3157 04f7 3C0C0000 		.4byte	.LASF90
 3158 04fb 02       		.byte	0x2
 3159 04fc 0C02     		.2byte	0x20c
 3160 04fe CD040000 		.4byte	0x4cd
 3161 0502 0E       		.uleb128 0xe
 3162 0503 01       		.byte	0x1
 3163 0504 2C000000 		.4byte	0x2c
 3164 0508 02       		.byte	0x2
 3165 0509 1002     		.2byte	0x210
 3166 050b 1C050000 		.4byte	0x51c
 3167 050f 0F       		.uleb128 0xf
 3168 0510 01100000 		.4byte	.LASF91
 3169 0514 00       		.byte	0
 3170 0515 0F       		.uleb128 0xf
 3171 0516 9A130000 		.4byte	.LASF92
 3172 051a 80       		.byte	0x80
 3173 051b 00       		.byte	0
 3174 051c 0D       		.uleb128 0xd
 3175 051d 91080000 		.4byte	.LASF93
 3176 0521 02       		.byte	0x2
 3177 0522 1302     		.2byte	0x213
 3178 0524 02050000 		.4byte	0x502
 3179 0528 0E       		.uleb128 0xe
 3180 0529 01       		.byte	0x1
 3181 052a 2C000000 		.4byte	0x2c
 3182 052e 02       		.byte	0x2
 3183 052f 1702     		.2byte	0x217
 3184 0531 42050000 		.4byte	0x542
 3185 0535 0F       		.uleb128 0xf
 3186 0536 E1000000 		.4byte	.LASF94
 3187 053a 00       		.byte	0
 3188 053b 0F       		.uleb128 0xf
 3189 053c 120B0000 		.4byte	.LASF95
 3190 0540 40       		.byte	0x40
 3191 0541 00       		.byte	0
 3192 0542 0D       		.uleb128 0xd
 3193 0543 D00F0000 		.4byte	.LASF96
 3194 0547 02       		.byte	0x2
 3195 0548 1A02     		.2byte	0x21a
 3196 054a 28050000 		.4byte	0x528
 3197 054e 0E       		.uleb128 0xe
 3198 054f 01       		.byte	0x1
 3199 0550 2C000000 		.4byte	0x2c
 3200 0554 02       		.byte	0x2
 3201 0555 1E02     		.2byte	0x21e
 3202 0557 68050000 		.4byte	0x568
 3203 055b 0F       		.uleb128 0xf
 3204 055c BB070000 		.4byte	.LASF97
 3205 0560 00       		.byte	0
 3206 0561 0F       		.uleb128 0xf
 3207 0562 BC130000 		.4byte	.LASF98
 3208 0566 20       		.byte	0x20
 3209 0567 00       		.byte	0
 3210 0568 0D       		.uleb128 0xd
 3211 0569 03130000 		.4byte	.LASF99
 3212 056d 02       		.byte	0x2
 3213 056e 2102     		.2byte	0x221
ARM GAS  C:\Users\gjl\AppData\Local\Temp\cckcOS93.s 			page 116


 3214 0570 4E050000 		.4byte	0x54e
 3215 0574 0E       		.uleb128 0xe
 3216 0575 01       		.byte	0x1
 3217 0576 2C000000 		.4byte	0x2c
 3218 057a 02       		.byte	0x2
 3219 057b 2502     		.2byte	0x225
 3220 057d 8E050000 		.4byte	0x58e
 3221 0581 0F       		.uleb128 0xf
 3222 0582 F50B0000 		.4byte	.LASF100
 3223 0586 00       		.byte	0
 3224 0587 0F       		.uleb128 0xf
 3225 0588 45050000 		.4byte	.LASF101
 3226 058c 01       		.byte	0x1
 3227 058d 00       		.byte	0
 3228 058e 0D       		.uleb128 0xd
 3229 058f 95020000 		.4byte	.LASF102
 3230 0593 02       		.byte	0x2
 3231 0594 2802     		.2byte	0x228
 3232 0596 74050000 		.4byte	0x574
 3233 059a 0E       		.uleb128 0xe
 3234 059b 01       		.byte	0x1
 3235 059c 2C000000 		.4byte	0x2c
 3236 05a0 02       		.byte	0x2
 3237 05a1 2F02     		.2byte	0x22f
 3238 05a3 BA050000 		.4byte	0x5ba
 3239 05a7 0F       		.uleb128 0xf
 3240 05a8 270C0000 		.4byte	.LASF103
 3241 05ac 00       		.byte	0
 3242 05ad 0F       		.uleb128 0xf
 3243 05ae 27090000 		.4byte	.LASF104
 3244 05b2 01       		.byte	0x1
 3245 05b3 0F       		.uleb128 0xf
 3246 05b4 F5080000 		.4byte	.LASF105
 3247 05b8 02       		.byte	0x2
 3248 05b9 00       		.byte	0
 3249 05ba 0D       		.uleb128 0xd
 3250 05bb 470D0000 		.4byte	.LASF106
 3251 05bf 02       		.byte	0x2
 3252 05c0 3302     		.2byte	0x233
 3253 05c2 9A050000 		.4byte	0x59a
 3254 05c6 0E       		.uleb128 0xe
 3255 05c7 04       		.byte	0x4
 3256 05c8 7A000000 		.4byte	0x7a
 3257 05cc 02       		.byte	0x2
 3258 05cd 3902     		.2byte	0x239
 3259 05cf 06060000 		.4byte	0x606
 3260 05d3 0F       		.uleb128 0xf
 3261 05d4 01080000 		.4byte	.LASF107
 3262 05d8 01       		.byte	0x1
 3263 05d9 0F       		.uleb128 0xf
 3264 05da EE0E0000 		.4byte	.LASF108
 3265 05de 04       		.byte	0x4
 3266 05df 0F       		.uleb128 0xf
 3267 05e0 72090000 		.4byte	.LASF109
 3268 05e4 08       		.byte	0x8
 3269 05e5 11       		.uleb128 0x11
 3270 05e6 40000000 		.4byte	.LASF110
ARM GAS  C:\Users\gjl\AppData\Local\Temp\cckcOS93.s 			page 117


 3271 05ea 0001     		.2byte	0x100
 3272 05ec 11       		.uleb128 0x11
 3273 05ed 670B0000 		.4byte	.LASF111
 3274 05f1 0040     		.2byte	0x4000
 3275 05f3 10       		.uleb128 0x10
 3276 05f4 2F0A0000 		.4byte	.LASF112
 3277 05f8 00000400 		.4byte	0x40000
 3278 05fc 10       		.uleb128 0x10
 3279 05fd BA0B0000 		.4byte	.LASF113
 3280 0601 00002000 		.4byte	0x200000
 3281 0605 00       		.byte	0
 3282 0606 0E       		.uleb128 0xe
 3283 0607 04       		.byte	0x4
 3284 0608 7A000000 		.4byte	0x7a
 3285 060c 02       		.byte	0x2
 3286 060d 4702     		.2byte	0x247
 3287 060f 55060000 		.4byte	0x655
 3288 0613 0F       		.uleb128 0xf
 3289 0614 FA110000 		.4byte	.LASF114
 3290 0618 01       		.byte	0x1
 3291 0619 0F       		.uleb128 0xf
 3292 061a FB0D0000 		.4byte	.LASF115
 3293 061e 02       		.byte	0x2
 3294 061f 0F       		.uleb128 0xf
 3295 0620 3A130000 		.4byte	.LASF116
 3296 0624 10       		.byte	0x10
 3297 0625 0F       		.uleb128 0xf
 3298 0626 24000000 		.4byte	.LASF117
 3299 062a 80       		.byte	0x80
 3300 062b 11       		.uleb128 0x11
 3301 062c 920E0000 		.4byte	.LASF118
 3302 0630 0001     		.2byte	0x100
 3303 0632 11       		.uleb128 0x11
 3304 0633 940A0000 		.4byte	.LASF119
 3305 0637 0040     		.2byte	0x4000
 3306 0639 10       		.uleb128 0x10
 3307 063a D7090000 		.4byte	.LASF120
 3308 063e 00000400 		.4byte	0x40000
 3309 0642 10       		.uleb128 0x10
 3310 0643 BC110000 		.4byte	.LASF121
 3311 0647 00000800 		.4byte	0x80000
 3312 064b 10       		.uleb128 0x10
 3313 064c 47090000 		.4byte	.LASF122
 3314 0650 00002000 		.4byte	0x200000
 3315 0654 00       		.byte	0
 3316 0655 0E       		.uleb128 0xe
 3317 0656 02       		.byte	0x2
 3318 0657 3A000000 		.4byte	0x3a
 3319 065b 02       		.byte	0x2
 3320 065c 5702     		.2byte	0x257
 3321 065e A6060000 		.4byte	0x6a6
 3322 0662 0F       		.uleb128 0xf
 3323 0663 10050000 		.4byte	.LASF123
 3324 0667 02       		.byte	0x2
 3325 0668 0F       		.uleb128 0xf
 3326 0669 07020000 		.4byte	.LASF124
 3327 066d 10       		.byte	0x10
ARM GAS  C:\Users\gjl\AppData\Local\Temp\cckcOS93.s 			page 118


 3328 066e 0F       		.uleb128 0xf
 3329 066f 90050000 		.4byte	.LASF125
 3330 0673 20       		.byte	0x20
 3331 0674 11       		.uleb128 0x11
 3332 0675 4E060000 		.4byte	.LASF126
 3333 0679 0001     		.2byte	0x100
 3334 067b 11       		.uleb128 0x11
 3335 067c D2050000 		.4byte	.LASF127
 3336 0680 0002     		.2byte	0x200
 3337 0682 11       		.uleb128 0x11
 3338 0683 2C060000 		.4byte	.LASF128
 3339 0687 0004     		.2byte	0x400
 3340 0689 11       		.uleb128 0x11
 3341 068a FC090000 		.4byte	.LASF129
 3342 068e 0010     		.2byte	0x1000
 3343 0690 11       		.uleb128 0x11
 3344 0691 74040000 		.4byte	.LASF130
 3345 0695 0020     		.2byte	0x2000
 3346 0697 11       		.uleb128 0x11
 3347 0698 F3030000 		.4byte	.LASF131
 3348 069c 0040     		.2byte	0x4000
 3349 069e 11       		.uleb128 0x11
 3350 069f 290F0000 		.4byte	.LASF132
 3351 06a3 0080     		.2byte	0x8000
 3352 06a5 00       		.byte	0
 3353 06a6 0E       		.uleb128 0xe
 3354 06a7 01       		.byte	0x1
 3355 06a8 2C000000 		.4byte	0x2c
 3356 06ac 02       		.byte	0x2
 3357 06ad 7D02     		.2byte	0x27d
 3358 06af CC060000 		.4byte	0x6cc
 3359 06b3 0F       		.uleb128 0xf
 3360 06b4 EF050000 		.4byte	.LASF133
 3361 06b8 00       		.byte	0
 3362 06b9 0F       		.uleb128 0xf
 3363 06ba 990D0000 		.4byte	.LASF134
 3364 06be 01       		.byte	0x1
 3365 06bf 0F       		.uleb128 0xf
 3366 06c0 60080000 		.4byte	.LASF135
 3367 06c4 02       		.byte	0x2
 3368 06c5 0F       		.uleb128 0xf
 3369 06c6 A2010000 		.4byte	.LASF136
 3370 06ca 03       		.byte	0x3
 3371 06cb 00       		.byte	0
 3372 06cc 0E       		.uleb128 0xe
 3373 06cd 02       		.byte	0x2
 3374 06ce 3A000000 		.4byte	0x3a
 3375 06d2 02       		.byte	0x2
 3376 06d3 8802     		.2byte	0x288
 3377 06d5 E7060000 		.4byte	0x6e7
 3378 06d9 0F       		.uleb128 0xf
 3379 06da 540F0000 		.4byte	.LASF137
 3380 06de 00       		.byte	0
 3381 06df 11       		.uleb128 0x11
 3382 06e0 580A0000 		.4byte	.LASF138
 3383 06e4 0010     		.2byte	0x1000
 3384 06e6 00       		.byte	0
ARM GAS  C:\Users\gjl\AppData\Local\Temp\cckcOS93.s 			page 119


 3385 06e7 0E       		.uleb128 0xe
 3386 06e8 01       		.byte	0x1
 3387 06e9 2C000000 		.4byte	0x2c
 3388 06ed 02       		.byte	0x2
 3389 06ee 9702     		.2byte	0x297
 3390 06f0 13070000 		.4byte	0x713
 3391 06f4 0F       		.uleb128 0xf
 3392 06f5 6F0F0000 		.4byte	.LASF139
 3393 06f9 00       		.byte	0
 3394 06fa 0F       		.uleb128 0xf
 3395 06fb AF0A0000 		.4byte	.LASF140
 3396 06ff 01       		.byte	0x1
 3397 0700 0F       		.uleb128 0xf
 3398 0701 A8080000 		.4byte	.LASF141
 3399 0705 02       		.byte	0x2
 3400 0706 0F       		.uleb128 0xf
 3401 0707 9B090000 		.4byte	.LASF142
 3402 070b 03       		.byte	0x3
 3403 070c 0F       		.uleb128 0xf
 3404 070d BF120000 		.4byte	.LASF143
 3405 0711 04       		.byte	0x4
 3406 0712 00       		.byte	0
 3407 0713 0D       		.uleb128 0xd
 3408 0714 BB0D0000 		.4byte	.LASF144
 3409 0718 02       		.byte	0x2
 3410 0719 9D02     		.2byte	0x29d
 3411 071b E7060000 		.4byte	0x6e7
 3412 071f 0E       		.uleb128 0xe
 3413 0720 01       		.byte	0x1
 3414 0721 2C000000 		.4byte	0x2c
 3415 0725 02       		.byte	0x2
 3416 0726 A402     		.2byte	0x2a4
 3417 0728 39070000 		.4byte	0x739
 3418 072c 0F       		.uleb128 0xf
 3419 072d CE010000 		.4byte	.LASF145
 3420 0731 00       		.byte	0
 3421 0732 0F       		.uleb128 0xf
 3422 0733 980F0000 		.4byte	.LASF146
 3423 0737 80       		.byte	0x80
 3424 0738 00       		.byte	0
 3425 0739 0D       		.uleb128 0xd
 3426 073a FD100000 		.4byte	.LASF147
 3427 073e 02       		.byte	0x2
 3428 073f A702     		.2byte	0x2a7
 3429 0741 1F070000 		.4byte	0x71f
 3430 0745 0E       		.uleb128 0xe
 3431 0746 01       		.byte	0x1
 3432 0747 2C000000 		.4byte	0x2c
 3433 074b 02       		.byte	0x2
 3434 074c B702     		.2byte	0x2b7
 3435 074e 65070000 		.4byte	0x765
 3436 0752 0F       		.uleb128 0xf
 3437 0753 25070000 		.4byte	.LASF148
 3438 0757 00       		.byte	0
 3439 0758 0F       		.uleb128 0xf
 3440 0759 140D0000 		.4byte	.LASF149
 3441 075d 01       		.byte	0x1
ARM GAS  C:\Users\gjl\AppData\Local\Temp\cckcOS93.s 			page 120


 3442 075e 0F       		.uleb128 0xf
 3443 075f E00A0000 		.4byte	.LASF150
 3444 0763 02       		.byte	0x2
 3445 0764 00       		.byte	0
 3446 0765 0D       		.uleb128 0xd
 3447 0766 AF040000 		.4byte	.LASF151
 3448 076a 02       		.byte	0x2
 3449 076b BB02     		.2byte	0x2bb
 3450 076d 45070000 		.4byte	0x745
 3451 0771 0E       		.uleb128 0xe
 3452 0772 04       		.byte	0x4
 3453 0773 7A000000 		.4byte	0x7a
 3454 0777 02       		.byte	0x2
 3455 0778 BE02     		.2byte	0x2be
 3456 077a 8E070000 		.4byte	0x78e
 3457 077e 0F       		.uleb128 0xf
 3458 077f 65040000 		.4byte	.LASF152
 3459 0783 00       		.byte	0
 3460 0784 10       		.uleb128 0x10
 3461 0785 06010000 		.4byte	.LASF153
 3462 0789 01002E00 		.4byte	0x2e0001
 3463 078d 00       		.byte	0
 3464 078e 0D       		.uleb128 0xd
 3465 078f D10E0000 		.4byte	.LASF154
 3466 0793 02       		.byte	0x2
 3467 0794 C102     		.2byte	0x2c1
 3468 0796 71070000 		.4byte	0x771
 3469 079a 12       		.uleb128 0x12
 3470 079b 28       		.byte	0x28
 3471 079c 02       		.byte	0x2
 3472 079d D102     		.2byte	0x2d1
 3473 079f B5080000 		.4byte	0x8b5
 3474 07a3 13       		.uleb128 0x13
 3475 07a4 690E0000 		.4byte	.LASF155
 3476 07a8 02       		.byte	0x2
 3477 07a9 D202     		.2byte	0x2d2
 3478 07ab 3C040000 		.4byte	0x43c
 3479 07af 00       		.byte	0
 3480 07b0 13       		.uleb128 0x13
 3481 07b1 7C130000 		.4byte	.LASF156
 3482 07b5 02       		.byte	0x2
 3483 07b6 D502     		.2byte	0x2d5
 3484 07b8 6E040000 		.4byte	0x46e
 3485 07bc 04       		.byte	0x4
 3486 07bd 13       		.uleb128 0x13
 3487 07be 2D0B0000 		.4byte	.LASF157
 3488 07c2 02       		.byte	0x2
 3489 07c3 D602     		.2byte	0x2d6
 3490 07c5 9A040000 		.4byte	0x49a
 3491 07c9 05       		.byte	0x5
 3492 07ca 13       		.uleb128 0x13
 3493 07cb 32040000 		.4byte	.LASF158
 3494 07cf 02       		.byte	0x2
 3495 07d0 D702     		.2byte	0x2d7
 3496 07d2 C1040000 		.4byte	0x4c1
 3497 07d6 06       		.byte	0x6
 3498 07d7 13       		.uleb128 0x13
ARM GAS  C:\Users\gjl\AppData\Local\Temp\cckcOS93.s 			page 121


 3499 07d8 CE120000 		.4byte	.LASF159
 3500 07dc 02       		.byte	0x2
 3501 07dd D802     		.2byte	0x2d8
 3502 07df F6040000 		.4byte	0x4f6
 3503 07e3 08       		.byte	0x8
 3504 07e4 13       		.uleb128 0x13
 3505 07e5 1B030000 		.4byte	.LASF160
 3506 07e9 02       		.byte	0x2
 3507 07ea D902     		.2byte	0x2d9
 3508 07ec 1C050000 		.4byte	0x51c
 3509 07f0 0A       		.byte	0xa
 3510 07f1 13       		.uleb128 0x13
 3511 07f2 390D0000 		.4byte	.LASF161
 3512 07f6 02       		.byte	0x2
 3513 07f7 DA02     		.2byte	0x2da
 3514 07f9 42050000 		.4byte	0x542
 3515 07fd 0B       		.byte	0xb
 3516 07fe 13       		.uleb128 0x13
 3517 07ff AE0B0000 		.4byte	.LASF162
 3518 0803 02       		.byte	0x2
 3519 0804 DB02     		.2byte	0x2db
 3520 0806 68050000 		.4byte	0x568
 3521 080a 0C       		.byte	0xc
 3522 080b 13       		.uleb128 0x13
 3523 080c 76070000 		.4byte	.LASF163
 3524 0810 02       		.byte	0x2
 3525 0811 DC02     		.2byte	0x2dc
 3526 0813 B5080000 		.4byte	0x8b5
 3527 0817 0D       		.byte	0xd
 3528 0818 13       		.uleb128 0x13
 3529 0819 B30C0000 		.4byte	.LASF164
 3530 081d 02       		.byte	0x2
 3531 081e DF02     		.2byte	0x2df
 3532 0820 6E040000 		.4byte	0x46e
 3533 0824 0E       		.byte	0xe
 3534 0825 13       		.uleb128 0x13
 3535 0826 3A040000 		.4byte	.LASF165
 3536 082a 02       		.byte	0x2
 3537 082b E002     		.2byte	0x2e0
 3538 082d 9A040000 		.4byte	0x49a
 3539 0831 0F       		.byte	0xf
 3540 0832 13       		.uleb128 0x13
 3541 0833 2B120000 		.4byte	.LASF166
 3542 0837 02       		.byte	0x2
 3543 0838 E102     		.2byte	0x2e1
 3544 083a C1040000 		.4byte	0x4c1
 3545 083e 10       		.byte	0x10
 3546 083f 13       		.uleb128 0x13
 3547 0840 E6040000 		.4byte	.LASF167
 3548 0844 02       		.byte	0x2
 3549 0845 E202     		.2byte	0x2e2
 3550 0847 F6040000 		.4byte	0x4f6
 3551 084b 12       		.byte	0x12
 3552 084c 13       		.uleb128 0x13
 3553 084d 810F0000 		.4byte	.LASF168
 3554 0851 02       		.byte	0x2
 3555 0852 E302     		.2byte	0x2e3
ARM GAS  C:\Users\gjl\AppData\Local\Temp\cckcOS93.s 			page 122


 3556 0854 1C050000 		.4byte	0x51c
 3557 0858 14       		.byte	0x14
 3558 0859 13       		.uleb128 0x13
 3559 085a 72010000 		.4byte	.LASF169
 3560 085e 02       		.byte	0x2
 3561 085f E402     		.2byte	0x2e4
 3562 0861 42050000 		.4byte	0x542
 3563 0865 15       		.byte	0x15
 3564 0866 13       		.uleb128 0x13
 3565 0867 80010000 		.4byte	.LASF170
 3566 086b 02       		.byte	0x2
 3567 086c E502     		.2byte	0x2e5
 3568 086e 68050000 		.4byte	0x568
 3569 0872 16       		.byte	0x16
 3570 0873 13       		.uleb128 0x13
 3571 0874 C8040000 		.4byte	.LASF171
 3572 0878 02       		.byte	0x2
 3573 0879 E602     		.2byte	0x2e6
 3574 087b B5080000 		.4byte	0x8b5
 3575 087f 17       		.byte	0x17
 3576 0880 13       		.uleb128 0x13
 3577 0881 E8120000 		.4byte	.LASF172
 3578 0885 02       		.byte	0x2
 3579 0886 E902     		.2byte	0x2e9
 3580 0888 B5080000 		.4byte	0x8b5
 3581 088c 18       		.byte	0x18
 3582 088d 13       		.uleb128 0x13
 3583 088e 190C0000 		.4byte	.LASF173
 3584 0892 02       		.byte	0x2
 3585 0893 EA02     		.2byte	0x2ea
 3586 0895 8C000000 		.4byte	0x8c
 3587 0899 1C       		.byte	0x1c
 3588 089a 13       		.uleb128 0x13
 3589 089b 0B070000 		.4byte	.LASF174
 3590 089f 02       		.byte	0x2
 3591 08a0 EB02     		.2byte	0x2eb
 3592 08a2 8C000000 		.4byte	0x8c
 3593 08a6 20       		.byte	0x20
 3594 08a7 13       		.uleb128 0x13
 3595 08a8 88060000 		.4byte	.LASF175
 3596 08ac 02       		.byte	0x2
 3597 08ad EC02     		.2byte	0x2ec
 3598 08af 8C000000 		.4byte	0x8c
 3599 08b3 24       		.byte	0x24
 3600 08b4 00       		.byte	0
 3601 08b5 02       		.uleb128 0x2
 3602 08b6 01       		.byte	0x1
 3603 08b7 02       		.byte	0x2
 3604 08b8 5B070000 		.4byte	.LASF176
 3605 08bc 0D       		.uleb128 0xd
 3606 08bd D10C0000 		.4byte	.LASF177
 3607 08c1 02       		.byte	0x2
 3608 08c2 ED02     		.2byte	0x2ed
 3609 08c4 9A070000 		.4byte	0x79a
 3610 08c8 12       		.uleb128 0x12
 3611 08c9 10       		.byte	0x10
 3612 08ca 02       		.byte	0x2
ARM GAS  C:\Users\gjl\AppData\Local\Temp\cckcOS93.s 			page 123


 3613 08cb F302     		.2byte	0x2f3
 3614 08cd 47090000 		.4byte	0x947
 3615 08d1 13       		.uleb128 0x13
 3616 08d2 690E0000 		.4byte	.LASF155
 3617 08d6 02       		.byte	0x2
 3618 08d7 F402     		.2byte	0x2f4
 3619 08d9 3C040000 		.4byte	0x43c
 3620 08dd 00       		.byte	0
 3621 08de 13       		.uleb128 0x13
 3622 08df 3D050000 		.4byte	.LASF178
 3623 08e3 02       		.byte	0x2
 3624 08e4 F702     		.2byte	0x2f7
 3625 08e6 6E040000 		.4byte	0x46e
 3626 08ea 04       		.byte	0x4
 3627 08eb 13       		.uleb128 0x13
 3628 08ec 75130000 		.4byte	.LASF179
 3629 08f0 02       		.byte	0x2
 3630 08f1 F802     		.2byte	0x2f8
 3631 08f3 9A040000 		.4byte	0x49a
 3632 08f7 05       		.byte	0x5
 3633 08f8 13       		.uleb128 0x13
 3634 08f9 240E0000 		.4byte	.LASF180
 3635 08fd 02       		.byte	0x2
 3636 08fe F902     		.2byte	0x2f9
 3637 0900 C1040000 		.4byte	0x4c1
 3638 0904 06       		.byte	0x6
 3639 0905 13       		.uleb128 0x13
 3640 0906 4D120000 		.4byte	.LASF181
 3641 090a 02       		.byte	0x2
 3642 090b FA02     		.2byte	0x2fa
 3643 090d F6040000 		.4byte	0x4f6
 3644 0911 08       		.byte	0x8
 3645 0912 13       		.uleb128 0x13
 3646 0913 5B010000 		.4byte	.LASF182
 3647 0917 02       		.byte	0x2
 3648 0918 FB02     		.2byte	0x2fb
 3649 091a 1C050000 		.4byte	0x51c
 3650 091e 0A       		.byte	0xa
 3651 091f 13       		.uleb128 0x13
 3652 0920 760C0000 		.4byte	.LASF183
 3653 0924 02       		.byte	0x2
 3654 0925 FC02     		.2byte	0x2fc
 3655 0927 42050000 		.4byte	0x542
 3656 092b 0B       		.byte	0xb
 3657 092c 13       		.uleb128 0x13
 3658 092d C50F0000 		.4byte	.LASF184
 3659 0931 02       		.byte	0x2
 3660 0932 FD02     		.2byte	0x2fd
 3661 0934 68050000 		.4byte	0x568
 3662 0938 0C       		.byte	0xc
 3663 0939 13       		.uleb128 0x13
 3664 093a 1C0F0000 		.4byte	.LASF185
 3665 093e 02       		.byte	0x2
 3666 093f FE02     		.2byte	0x2fe
 3667 0941 B5080000 		.4byte	0x8b5
 3668 0945 0D       		.byte	0xd
 3669 0946 00       		.byte	0
ARM GAS  C:\Users\gjl\AppData\Local\Temp\cckcOS93.s 			page 124


 3670 0947 0D       		.uleb128 0xd
 3671 0948 D80D0000 		.4byte	.LASF186
 3672 094c 02       		.byte	0x2
 3673 094d FF02     		.2byte	0x2ff
 3674 094f C8080000 		.4byte	0x8c8
 3675 0953 12       		.uleb128 0x12
 3676 0954 0C       		.byte	0xc
 3677 0955 02       		.byte	0x2
 3678 0956 0B03     		.2byte	0x30b
 3679 0958 91090000 		.4byte	0x991
 3680 095c 13       		.uleb128 0x13
 3681 095d 7C130000 		.4byte	.LASF156
 3682 0961 02       		.byte	0x2
 3683 0962 0D03     		.2byte	0x30d
 3684 0964 6E040000 		.4byte	0x46e
 3685 0968 00       		.byte	0
 3686 0969 13       		.uleb128 0x13
 3687 096a 2D0B0000 		.4byte	.LASF157
 3688 096e 02       		.byte	0x2
 3689 096f 0E03     		.2byte	0x30e
 3690 0971 9A040000 		.4byte	0x49a
 3691 0975 01       		.byte	0x1
 3692 0976 13       		.uleb128 0x13
 3693 0977 190C0000 		.4byte	.LASF173
 3694 097b 02       		.byte	0x2
 3695 097c 0F03     		.2byte	0x30f
 3696 097e 8C000000 		.4byte	0x8c
 3697 0982 04       		.byte	0x4
 3698 0983 13       		.uleb128 0x13
 3699 0984 88060000 		.4byte	.LASF175
 3700 0988 02       		.byte	0x2
 3701 0989 1003     		.2byte	0x310
 3702 098b 8C000000 		.4byte	0x8c
 3703 098f 08       		.byte	0x8
 3704 0990 00       		.byte	0
 3705 0991 0D       		.uleb128 0xd
 3706 0992 97000000 		.4byte	.LASF187
 3707 0996 02       		.byte	0x2
 3708 0997 1103     		.2byte	0x311
 3709 0999 53090000 		.4byte	0x953
 3710 099d 12       		.uleb128 0x12
 3711 099e 0C       		.byte	0xc
 3712 099f 02       		.byte	0x2
 3713 09a0 1D03     		.2byte	0x31d
 3714 09a2 DB090000 		.4byte	0x9db
 3715 09a6 13       		.uleb128 0x13
 3716 09a7 B30C0000 		.4byte	.LASF164
 3717 09ab 02       		.byte	0x2
 3718 09ac 1F03     		.2byte	0x31f
 3719 09ae 6E040000 		.4byte	0x46e
 3720 09b2 00       		.byte	0
 3721 09b3 13       		.uleb128 0x13
 3722 09b4 3A040000 		.4byte	.LASF165
 3723 09b8 02       		.byte	0x2
 3724 09b9 2003     		.2byte	0x320
 3725 09bb 9A040000 		.4byte	0x49a
 3726 09bf 01       		.byte	0x1
ARM GAS  C:\Users\gjl\AppData\Local\Temp\cckcOS93.s 			page 125


 3727 09c0 13       		.uleb128 0x13
 3728 09c1 0B070000 		.4byte	.LASF174
 3729 09c5 02       		.byte	0x2
 3730 09c6 2103     		.2byte	0x321
 3731 09c8 8C000000 		.4byte	0x8c
 3732 09cc 04       		.byte	0x4
 3733 09cd 13       		.uleb128 0x13
 3734 09ce 88060000 		.4byte	.LASF175
 3735 09d2 02       		.byte	0x2
 3736 09d3 2203     		.2byte	0x322
 3737 09d5 8C000000 		.4byte	0x8c
 3738 09d9 08       		.byte	0x8
 3739 09da 00       		.byte	0
 3740 09db 0D       		.uleb128 0xd
 3741 09dc 0A090000 		.4byte	.LASF188
 3742 09e0 02       		.byte	0x2
 3743 09e1 2303     		.2byte	0x323
 3744 09e3 9D090000 		.4byte	0x99d
 3745 09e7 14       		.uleb128 0x14
 3746 09e8 84070000 		.4byte	.LASF192
 3747 09ec 02       		.byte	0x2
 3748 09ed D405     		.2byte	0x5d4
 3749 09ef 03       		.byte	0x3
 3750 09f0 15       		.uleb128 0x15
 3751 09f1 F2010000 		.4byte	.LASF189
 3752 09f5 02       		.byte	0x2
 3753 09f6 7705     		.2byte	0x577
 3754 09f8 03       		.byte	0x3
 3755 09f9 0A0A0000 		.4byte	0xa0a
 3756 09fd 16       		.uleb128 0x16
 3757 09fe F6090000 		.4byte	.LASF191
 3758 0a02 02       		.byte	0x2
 3759 0a03 7705     		.2byte	0x577
 3760 0a05 39070000 		.4byte	0x739
 3761 0a09 00       		.byte	0
 3762 0a0a 15       		.uleb128 0x15
 3763 0a0b 6A060000 		.4byte	.LASF190
 3764 0a0f 03       		.byte	0x3
 3765 0a10 B001     		.2byte	0x1b0
 3766 0a12 03       		.byte	0x3
 3767 0a13 240A0000 		.4byte	0xa24
 3768 0a17 16       		.uleb128 0x16
 3769 0a18 690E0000 		.4byte	.LASF155
 3770 0a1c 03       		.byte	0x3
 3771 0a1d B001     		.2byte	0x1b0
 3772 0a1f E1030000 		.4byte	0x3e1
 3773 0a23 00       		.byte	0
 3774 0a24 17       		.uleb128 0x17
 3775 0a25 5B100000 		.4byte	.LASF260
 3776 0a29 03       		.byte	0x3
 3777 0a2a C601     		.2byte	0x1c6
 3778 0a2c E1030000 		.4byte	0x3e1
 3779 0a30 03       		.byte	0x3
 3780 0a31 14       		.uleb128 0x14
 3781 0a32 C1090000 		.4byte	.LASF193
 3782 0a36 02       		.byte	0x2
 3783 0a37 C505     		.2byte	0x5c5
ARM GAS  C:\Users\gjl\AppData\Local\Temp\cckcOS93.s 			page 126


 3784 0a39 03       		.byte	0x3
 3785 0a3a 18       		.uleb128 0x18
 3786 0a3b 6A000000 		.4byte	.LASF196
 3787 0a3f 01       		.byte	0x1
 3788 0a40 A5       		.byte	0xa5
 3789 0a41 8E070000 		.4byte	0x78e
 3790 0a45 00000000 		.4byte	.LFB182
 3791 0a49 34020000 		.4byte	.LFE182-.LFB182
 3792 0a4d 01       		.uleb128 0x1
 3793 0a4e 9C       		.byte	0x9c
 3794 0a4f BF0C0000 		.4byte	0xcbf
 3795 0a53 19       		.uleb128 0x19
 3796 0a54 F2040000 		.4byte	.LASF194
 3797 0a58 01       		.byte	0x1
 3798 0a59 A5       		.byte	0xa5
 3799 0a5a BF0C0000 		.4byte	0xcbf
 3800 0a5e 00000000 		.4byte	.LLST0
 3801 0a62 19       		.uleb128 0x19
 3802 0a63 0D0D0000 		.4byte	.LASF195
 3803 0a67 01       		.byte	0x1
 3804 0a68 A5       		.byte	0xa5
 3805 0a69 C50C0000 		.4byte	0xcc5
 3806 0a6d 2C000000 		.4byte	.LLST1
 3807 0a71 1A       		.uleb128 0x1a
 3808 0a72 59050000 		.4byte	.LASF199
 3809 0a76 01       		.byte	0x1
 3810 0a77 AA       		.byte	0xaa
 3811 0a78 8E070000 		.4byte	0x78e
 3812 0a7c 01       		.uleb128 0x1
 3813 0a7d 50       		.byte	0x50
 3814 0a7e 1B       		.uleb128 0x1b
 3815 0a7f 10000000 		.4byte	.LVL3
 3816 0a83 721A0000 		.4byte	0x1a72
 3817 0a87 9B0A0000 		.4byte	0xa9b
 3818 0a8b 1C       		.uleb128 0x1c
 3819 0a8c 01       		.uleb128 0x1
 3820 0a8d 50       		.byte	0x50
 3821 0a8e 05       		.uleb128 0x5
 3822 0a8f 03       		.byte	0x3
 3823 0a90 00000000 		.4byte	.LC0
 3824 0a94 1C       		.uleb128 0x1c
 3825 0a95 01       		.uleb128 0x1
 3826 0a96 51       		.byte	0x51
 3827 0a97 02       		.uleb128 0x2
 3828 0a98 08       		.byte	0x8
 3829 0a99 A7       		.byte	0xa7
 3830 0a9a 00       		.byte	0
 3831 0a9b 1B       		.uleb128 0x1b
 3832 0a9c 1A000000 		.4byte	.LVL4
 3833 0aa0 721A0000 		.4byte	0x1a72
 3834 0aa4 B80A0000 		.4byte	0xab8
 3835 0aa8 1C       		.uleb128 0x1c
 3836 0aa9 01       		.uleb128 0x1
 3837 0aaa 50       		.byte	0x50
 3838 0aab 05       		.uleb128 0x5
 3839 0aac 03       		.byte	0x3
 3840 0aad 00000000 		.4byte	.LC0
ARM GAS  C:\Users\gjl\AppData\Local\Temp\cckcOS93.s 			page 127


 3841 0ab1 1C       		.uleb128 0x1c
 3842 0ab2 01       		.uleb128 0x1
 3843 0ab3 51       		.byte	0x51
 3844 0ab4 02       		.uleb128 0x2
 3845 0ab5 08       		.byte	0x8
 3846 0ab6 A8       		.byte	0xa8
 3847 0ab7 00       		.byte	0
 3848 0ab8 1B       		.uleb128 0x1b
 3849 0ab9 38000000 		.4byte	.LVL5
 3850 0abd 721A0000 		.4byte	0x1a72
 3851 0ac1 D50A0000 		.4byte	0xad5
 3852 0ac5 1C       		.uleb128 0x1c
 3853 0ac6 01       		.uleb128 0x1
 3854 0ac7 50       		.byte	0x50
 3855 0ac8 05       		.uleb128 0x5
 3856 0ac9 03       		.byte	0x3
 3857 0aca 00000000 		.4byte	.LC0
 3858 0ace 1C       		.uleb128 0x1c
 3859 0acf 01       		.uleb128 0x1
 3860 0ad0 51       		.byte	0x51
 3861 0ad1 02       		.uleb128 0x2
 3862 0ad2 08       		.byte	0x8
 3863 0ad3 B2       		.byte	0xb2
 3864 0ad4 00       		.byte	0
 3865 0ad5 1B       		.uleb128 0x1b
 3866 0ad6 46000000 		.4byte	.LVL6
 3867 0ada 721A0000 		.4byte	0x1a72
 3868 0ade F20A0000 		.4byte	0xaf2
 3869 0ae2 1C       		.uleb128 0x1c
 3870 0ae3 01       		.uleb128 0x1
 3871 0ae4 50       		.byte	0x50
 3872 0ae5 05       		.uleb128 0x5
 3873 0ae6 03       		.byte	0x3
 3874 0ae7 00000000 		.4byte	.LC0
 3875 0aeb 1C       		.uleb128 0x1c
 3876 0aec 01       		.uleb128 0x1
 3877 0aed 51       		.byte	0x51
 3878 0aee 02       		.uleb128 0x2
 3879 0aef 08       		.byte	0x8
 3880 0af0 B5       		.byte	0xb5
 3881 0af1 00       		.byte	0
 3882 0af2 1B       		.uleb128 0x1b
 3883 0af3 5A000000 		.4byte	.LVL7
 3884 0af7 721A0000 		.4byte	0x1a72
 3885 0afb 0F0B0000 		.4byte	0xb0f
 3886 0aff 1C       		.uleb128 0x1c
 3887 0b00 01       		.uleb128 0x1
 3888 0b01 50       		.byte	0x50
 3889 0b02 05       		.uleb128 0x5
 3890 0b03 03       		.byte	0x3
 3891 0b04 00000000 		.4byte	.LC0
 3892 0b08 1C       		.uleb128 0x1c
 3893 0b09 01       		.uleb128 0x1
 3894 0b0a 51       		.byte	0x51
 3895 0b0b 02       		.uleb128 0x2
 3896 0b0c 08       		.byte	0x8
 3897 0b0d B6       		.byte	0xb6
ARM GAS  C:\Users\gjl\AppData\Local\Temp\cckcOS93.s 			page 128


 3898 0b0e 00       		.byte	0
 3899 0b0f 1B       		.uleb128 0x1b
 3900 0b10 6C000000 		.4byte	.LVL8
 3901 0b14 721A0000 		.4byte	0x1a72
 3902 0b18 2C0B0000 		.4byte	0xb2c
 3903 0b1c 1C       		.uleb128 0x1c
 3904 0b1d 01       		.uleb128 0x1
 3905 0b1e 50       		.byte	0x50
 3906 0b1f 05       		.uleb128 0x5
 3907 0b20 03       		.byte	0x3
 3908 0b21 00000000 		.4byte	.LC0
 3909 0b25 1C       		.uleb128 0x1c
 3910 0b26 01       		.uleb128 0x1
 3911 0b27 51       		.byte	0x51
 3912 0b28 02       		.uleb128 0x2
 3913 0b29 08       		.byte	0x8
 3914 0b2a B7       		.byte	0xb7
 3915 0b2b 00       		.byte	0
 3916 0b2c 1B       		.uleb128 0x1b
 3917 0b2d 8A000000 		.4byte	.LVL9
 3918 0b31 721A0000 		.4byte	0x1a72
 3919 0b35 490B0000 		.4byte	0xb49
 3920 0b39 1C       		.uleb128 0x1c
 3921 0b3a 01       		.uleb128 0x1
 3922 0b3b 50       		.byte	0x50
 3923 0b3c 05       		.uleb128 0x5
 3924 0b3d 03       		.byte	0x3
 3925 0b3e 00000000 		.4byte	.LC0
 3926 0b42 1C       		.uleb128 0x1c
 3927 0b43 01       		.uleb128 0x1
 3928 0b44 51       		.byte	0x51
 3929 0b45 02       		.uleb128 0x2
 3930 0b46 08       		.byte	0x8
 3931 0b47 B8       		.byte	0xb8
 3932 0b48 00       		.byte	0
 3933 0b49 1B       		.uleb128 0x1b
 3934 0b4a 9A000000 		.4byte	.LVL10
 3935 0b4e 721A0000 		.4byte	0x1a72
 3936 0b52 660B0000 		.4byte	0xb66
 3937 0b56 1C       		.uleb128 0x1c
 3938 0b57 01       		.uleb128 0x1
 3939 0b58 50       		.byte	0x50
 3940 0b59 05       		.uleb128 0x5
 3941 0b5a 03       		.byte	0x3
 3942 0b5b 00000000 		.4byte	.LC0
 3943 0b5f 1C       		.uleb128 0x1c
 3944 0b60 01       		.uleb128 0x1
 3945 0b61 51       		.byte	0x51
 3946 0b62 02       		.uleb128 0x2
 3947 0b63 08       		.byte	0x8
 3948 0b64 B9       		.byte	0xb9
 3949 0b65 00       		.byte	0
 3950 0b66 1B       		.uleb128 0x1b
 3951 0b67 AA000000 		.4byte	.LVL11
 3952 0b6b 721A0000 		.4byte	0x1a72
 3953 0b6f 830B0000 		.4byte	0xb83
 3954 0b73 1C       		.uleb128 0x1c
ARM GAS  C:\Users\gjl\AppData\Local\Temp\cckcOS93.s 			page 129


 3955 0b74 01       		.uleb128 0x1
 3956 0b75 50       		.byte	0x50
 3957 0b76 05       		.uleb128 0x5
 3958 0b77 03       		.byte	0x3
 3959 0b78 00000000 		.4byte	.LC0
 3960 0b7c 1C       		.uleb128 0x1c
 3961 0b7d 01       		.uleb128 0x1
 3962 0b7e 51       		.byte	0x51
 3963 0b7f 02       		.uleb128 0x2
 3964 0b80 08       		.byte	0x8
 3965 0b81 BA       		.byte	0xba
 3966 0b82 00       		.byte	0
 3967 0b83 1B       		.uleb128 0x1b
 3968 0b84 BA000000 		.4byte	.LVL12
 3969 0b88 721A0000 		.4byte	0x1a72
 3970 0b8c A00B0000 		.4byte	0xba0
 3971 0b90 1C       		.uleb128 0x1c
 3972 0b91 01       		.uleb128 0x1
 3973 0b92 50       		.byte	0x50
 3974 0b93 05       		.uleb128 0x5
 3975 0b94 03       		.byte	0x3
 3976 0b95 00000000 		.4byte	.LC0
 3977 0b99 1C       		.uleb128 0x1c
 3978 0b9a 01       		.uleb128 0x1
 3979 0b9b 51       		.byte	0x51
 3980 0b9c 02       		.uleb128 0x2
 3981 0b9d 08       		.byte	0x8
 3982 0b9e BB       		.byte	0xbb
 3983 0b9f 00       		.byte	0
 3984 0ba0 1B       		.uleb128 0x1b
 3985 0ba1 C8000000 		.4byte	.LVL13
 3986 0ba5 721A0000 		.4byte	0x1a72
 3987 0ba9 BD0B0000 		.4byte	0xbbd
 3988 0bad 1C       		.uleb128 0x1c
 3989 0bae 01       		.uleb128 0x1
 3990 0baf 50       		.byte	0x50
 3991 0bb0 05       		.uleb128 0x5
 3992 0bb1 03       		.byte	0x3
 3993 0bb2 00000000 		.4byte	.LC0
 3994 0bb6 1C       		.uleb128 0x1c
 3995 0bb7 01       		.uleb128 0x1
 3996 0bb8 51       		.byte	0x51
 3997 0bb9 02       		.uleb128 0x2
 3998 0bba 08       		.byte	0x8
 3999 0bbb BE       		.byte	0xbe
 4000 0bbc 00       		.byte	0
 4001 0bbd 1B       		.uleb128 0x1b
 4002 0bbe DC000000 		.4byte	.LVL14
 4003 0bc2 721A0000 		.4byte	0x1a72
 4004 0bc6 DA0B0000 		.4byte	0xbda
 4005 0bca 1C       		.uleb128 0x1c
 4006 0bcb 01       		.uleb128 0x1
 4007 0bcc 50       		.byte	0x50
 4008 0bcd 05       		.uleb128 0x5
 4009 0bce 03       		.byte	0x3
 4010 0bcf 00000000 		.4byte	.LC0
 4011 0bd3 1C       		.uleb128 0x1c
ARM GAS  C:\Users\gjl\AppData\Local\Temp\cckcOS93.s 			page 130


 4012 0bd4 01       		.uleb128 0x1
 4013 0bd5 51       		.byte	0x51
 4014 0bd6 02       		.uleb128 0x2
 4015 0bd7 08       		.byte	0x8
 4016 0bd8 BF       		.byte	0xbf
 4017 0bd9 00       		.byte	0
 4018 0bda 1B       		.uleb128 0x1b
 4019 0bdb EE000000 		.4byte	.LVL15
 4020 0bdf 721A0000 		.4byte	0x1a72
 4021 0be3 F70B0000 		.4byte	0xbf7
 4022 0be7 1C       		.uleb128 0x1c
 4023 0be8 01       		.uleb128 0x1
 4024 0be9 50       		.byte	0x50
 4025 0bea 05       		.uleb128 0x5
 4026 0beb 03       		.byte	0x3
 4027 0bec 00000000 		.4byte	.LC0
 4028 0bf0 1C       		.uleb128 0x1c
 4029 0bf1 01       		.uleb128 0x1
 4030 0bf2 51       		.byte	0x51
 4031 0bf3 02       		.uleb128 0x2
 4032 0bf4 08       		.byte	0x8
 4033 0bf5 C0       		.byte	0xc0
 4034 0bf6 00       		.byte	0
 4035 0bf7 1B       		.uleb128 0x1b
 4036 0bf8 0C010000 		.4byte	.LVL16
 4037 0bfc 721A0000 		.4byte	0x1a72
 4038 0c00 140C0000 		.4byte	0xc14
 4039 0c04 1C       		.uleb128 0x1c
 4040 0c05 01       		.uleb128 0x1
 4041 0c06 50       		.byte	0x50
 4042 0c07 05       		.uleb128 0x5
 4043 0c08 03       		.byte	0x3
 4044 0c09 00000000 		.4byte	.LC0
 4045 0c0d 1C       		.uleb128 0x1c
 4046 0c0e 01       		.uleb128 0x1
 4047 0c0f 51       		.byte	0x51
 4048 0c10 02       		.uleb128 0x2
 4049 0c11 08       		.byte	0x8
 4050 0c12 C1       		.byte	0xc1
 4051 0c13 00       		.byte	0
 4052 0c14 1B       		.uleb128 0x1b
 4053 0c15 1C010000 		.4byte	.LVL17
 4054 0c19 721A0000 		.4byte	0x1a72
 4055 0c1d 310C0000 		.4byte	0xc31
 4056 0c21 1C       		.uleb128 0x1c
 4057 0c22 01       		.uleb128 0x1
 4058 0c23 50       		.byte	0x50
 4059 0c24 05       		.uleb128 0x5
 4060 0c25 03       		.byte	0x3
 4061 0c26 00000000 		.4byte	.LC0
 4062 0c2a 1C       		.uleb128 0x1c
 4063 0c2b 01       		.uleb128 0x1
 4064 0c2c 51       		.byte	0x51
 4065 0c2d 02       		.uleb128 0x2
 4066 0c2e 08       		.byte	0x8
 4067 0c2f C2       		.byte	0xc2
 4068 0c30 00       		.byte	0
ARM GAS  C:\Users\gjl\AppData\Local\Temp\cckcOS93.s 			page 131


 4069 0c31 1B       		.uleb128 0x1b
 4070 0c32 2C010000 		.4byte	.LVL18
 4071 0c36 721A0000 		.4byte	0x1a72
 4072 0c3a 4E0C0000 		.4byte	0xc4e
 4073 0c3e 1C       		.uleb128 0x1c
 4074 0c3f 01       		.uleb128 0x1
 4075 0c40 50       		.byte	0x50
 4076 0c41 05       		.uleb128 0x5
 4077 0c42 03       		.byte	0x3
 4078 0c43 00000000 		.4byte	.LC0
 4079 0c47 1C       		.uleb128 0x1c
 4080 0c48 01       		.uleb128 0x1
 4081 0c49 51       		.byte	0x51
 4082 0c4a 02       		.uleb128 0x2
 4083 0c4b 08       		.byte	0x8
 4084 0c4c C3       		.byte	0xc3
 4085 0c4d 00       		.byte	0
 4086 0c4e 1B       		.uleb128 0x1b
 4087 0c4f 3C010000 		.4byte	.LVL19
 4088 0c53 721A0000 		.4byte	0x1a72
 4089 0c57 6B0C0000 		.4byte	0xc6b
 4090 0c5b 1C       		.uleb128 0x1c
 4091 0c5c 01       		.uleb128 0x1
 4092 0c5d 50       		.byte	0x50
 4093 0c5e 05       		.uleb128 0x5
 4094 0c5f 03       		.byte	0x3
 4095 0c60 00000000 		.4byte	.LC0
 4096 0c64 1C       		.uleb128 0x1c
 4097 0c65 01       		.uleb128 0x1
 4098 0c66 51       		.byte	0x51
 4099 0c67 02       		.uleb128 0x2
 4100 0c68 08       		.byte	0x8
 4101 0c69 C4       		.byte	0xc4
 4102 0c6a 00       		.byte	0
 4103 0c6b 1B       		.uleb128 0x1b
 4104 0c6c 4C010000 		.4byte	.LVL20
 4105 0c70 721A0000 		.4byte	0x1a72
 4106 0c74 880C0000 		.4byte	0xc88
 4107 0c78 1C       		.uleb128 0x1c
 4108 0c79 01       		.uleb128 0x1
 4109 0c7a 50       		.byte	0x50
 4110 0c7b 05       		.uleb128 0x5
 4111 0c7c 03       		.byte	0x3
 4112 0c7d 00000000 		.4byte	.LC0
 4113 0c81 1C       		.uleb128 0x1c
 4114 0c82 01       		.uleb128 0x1
 4115 0c83 51       		.byte	0x51
 4116 0c84 02       		.uleb128 0x2
 4117 0c85 08       		.byte	0x8
 4118 0c86 C7       		.byte	0xc7
 4119 0c87 00       		.byte	0
 4120 0c88 1B       		.uleb128 0x1b
 4121 0c89 5C010000 		.4byte	.LVL21
 4122 0c8d 721A0000 		.4byte	0x1a72
 4123 0c91 A50C0000 		.4byte	0xca5
 4124 0c95 1C       		.uleb128 0x1c
 4125 0c96 01       		.uleb128 0x1
ARM GAS  C:\Users\gjl\AppData\Local\Temp\cckcOS93.s 			page 132


 4126 0c97 50       		.byte	0x50
 4127 0c98 05       		.uleb128 0x5
 4128 0c99 03       		.byte	0x3
 4129 0c9a 00000000 		.4byte	.LC0
 4130 0c9e 1C       		.uleb128 0x1c
 4131 0c9f 01       		.uleb128 0x1
 4132 0ca0 51       		.byte	0x51
 4133 0ca1 02       		.uleb128 0x2
 4134 0ca2 08       		.byte	0x8
 4135 0ca3 C8       		.byte	0xc8
 4136 0ca4 00       		.byte	0
 4137 0ca5 1D       		.uleb128 0x1d
 4138 0ca6 70010000 		.4byte	.LVL22
 4139 0caa 721A0000 		.4byte	0x1a72
 4140 0cae 1C       		.uleb128 0x1c
 4141 0caf 01       		.uleb128 0x1
 4142 0cb0 50       		.byte	0x50
 4143 0cb1 05       		.uleb128 0x5
 4144 0cb2 03       		.byte	0x3
 4145 0cb3 00000000 		.4byte	.LC0
 4146 0cb7 1C       		.uleb128 0x1c
 4147 0cb8 01       		.uleb128 0x1
 4148 0cb9 51       		.byte	0x51
 4149 0cba 02       		.uleb128 0x2
 4150 0cbb 08       		.byte	0x8
 4151 0cbc C9       		.byte	0xc9
 4152 0cbd 00       		.byte	0
 4153 0cbe 00       		.byte	0
 4154 0cbf 1E       		.uleb128 0x1e
 4155 0cc0 04       		.byte	0x4
 4156 0cc1 92020000 		.4byte	0x292
 4157 0cc5 1E       		.uleb128 0x1e
 4158 0cc6 04       		.byte	0x4
 4159 0cc7 CB0C0000 		.4byte	0xccb
 4160 0ccb 06       		.uleb128 0x6
 4161 0ccc BC080000 		.4byte	0x8bc
 4162 0cd0 1F       		.uleb128 0x1f
 4163 0cd1 1A120000 		.4byte	.LASF197
 4164 0cd5 01       		.byte	0x1
 4165 0cd6 0D01     		.2byte	0x10d
 4166 0cd8 8E070000 		.4byte	0x78e
 4167 0cdc 00000000 		.4byte	.LFB183
 4168 0ce0 78010000 		.4byte	.LFE183-.LFB183
 4169 0ce4 01       		.uleb128 0x1
 4170 0ce5 9C       		.byte	0x9c
 4171 0ce6 7F0E0000 		.4byte	0xe7f
 4172 0cea 20       		.uleb128 0x20
 4173 0ceb F2040000 		.4byte	.LASF194
 4174 0cef 01       		.byte	0x1
 4175 0cf0 0D01     		.2byte	0x10d
 4176 0cf2 BF0C0000 		.4byte	0xcbf
 4177 0cf6 58000000 		.4byte	.LLST2
 4178 0cfa 20       		.uleb128 0x20
 4179 0cfb B1060000 		.4byte	.LASF198
 4180 0cff 01       		.byte	0x1
 4181 0d00 0D01     		.2byte	0x10d
 4182 0d02 13040000 		.4byte	0x413
ARM GAS  C:\Users\gjl\AppData\Local\Temp\cckcOS93.s 			page 133


 4183 0d06 84000000 		.4byte	.LLST3
 4184 0d0a 20       		.uleb128 0x20
 4185 0d0b 0D0D0000 		.4byte	.LASF195
 4186 0d0f 01       		.byte	0x1
 4187 0d10 0D01     		.2byte	0x10d
 4188 0d12 7F0E0000 		.4byte	0xe7f
 4189 0d16 A5000000 		.4byte	.LLST4
 4190 0d1a 21       		.uleb128 0x21
 4191 0d1b 59050000 		.4byte	.LASF199
 4192 0d1f 01       		.byte	0x1
 4193 0d20 1201     		.2byte	0x112
 4194 0d22 8E070000 		.4byte	0x78e
 4195 0d26 01       		.uleb128 0x1
 4196 0d27 50       		.byte	0x50
 4197 0d28 22       		.uleb128 0x22
 4198 0d29 D5020000 		.4byte	.LASF200
 4199 0d2d 01       		.byte	0x1
 4200 0d2e 1301     		.2byte	0x113
 4201 0d30 8C000000 		.4byte	0x8c
 4202 0d34 D1000000 		.4byte	.LLST5
 4203 0d38 1B       		.uleb128 0x1b
 4204 0d39 14000000 		.4byte	.LVL31
 4205 0d3d 721A0000 		.4byte	0x1a72
 4206 0d41 560D0000 		.4byte	0xd56
 4207 0d45 1C       		.uleb128 0x1c
 4208 0d46 01       		.uleb128 0x1
 4209 0d47 50       		.byte	0x50
 4210 0d48 05       		.uleb128 0x5
 4211 0d49 03       		.byte	0x3
 4212 0d4a 00000000 		.4byte	.LC0
 4213 0d4e 1C       		.uleb128 0x1c
 4214 0d4f 01       		.uleb128 0x1
 4215 0d50 51       		.byte	0x51
 4216 0d51 03       		.uleb128 0x3
 4217 0d52 0A       		.byte	0xa
 4218 0d53 0F01     		.2byte	0x10f
 4219 0d55 00       		.byte	0
 4220 0d56 1B       		.uleb128 0x1b
 4221 0d57 20000000 		.4byte	.LVL32
 4222 0d5b 721A0000 		.4byte	0x1a72
 4223 0d5f 740D0000 		.4byte	0xd74
 4224 0d63 1C       		.uleb128 0x1c
 4225 0d64 01       		.uleb128 0x1
 4226 0d65 50       		.byte	0x50
 4227 0d66 05       		.uleb128 0x5
 4228 0d67 03       		.byte	0x3
 4229 0d68 00000000 		.4byte	.LC0
 4230 0d6c 1C       		.uleb128 0x1c
 4231 0d6d 01       		.uleb128 0x1
 4232 0d6e 51       		.byte	0x51
 4233 0d6f 03       		.uleb128 0x3
 4234 0d70 0A       		.byte	0xa
 4235 0d71 1001     		.2byte	0x110
 4236 0d73 00       		.byte	0
 4237 0d74 1B       		.uleb128 0x1b
 4238 0d75 3E000000 		.4byte	.LVL33
 4239 0d79 721A0000 		.4byte	0x1a72
ARM GAS  C:\Users\gjl\AppData\Local\Temp\cckcOS93.s 			page 134


 4240 0d7d 920D0000 		.4byte	0xd92
 4241 0d81 1C       		.uleb128 0x1c
 4242 0d82 01       		.uleb128 0x1
 4243 0d83 50       		.byte	0x50
 4244 0d84 05       		.uleb128 0x5
 4245 0d85 03       		.byte	0x3
 4246 0d86 00000000 		.4byte	.LC0
 4247 0d8a 1C       		.uleb128 0x1c
 4248 0d8b 01       		.uleb128 0x1
 4249 0d8c 51       		.byte	0x51
 4250 0d8d 03       		.uleb128 0x3
 4251 0d8e 0A       		.byte	0xa
 4252 0d8f 1B01     		.2byte	0x11b
 4253 0d91 00       		.byte	0
 4254 0d92 1B       		.uleb128 0x1b
 4255 0d93 52000000 		.4byte	.LVL34
 4256 0d97 721A0000 		.4byte	0x1a72
 4257 0d9b B00D0000 		.4byte	0xdb0
 4258 0d9f 1C       		.uleb128 0x1c
 4259 0da0 01       		.uleb128 0x1
 4260 0da1 50       		.byte	0x50
 4261 0da2 05       		.uleb128 0x5
 4262 0da3 03       		.byte	0x3
 4263 0da4 00000000 		.4byte	.LC0
 4264 0da8 1C       		.uleb128 0x1c
 4265 0da9 01       		.uleb128 0x1
 4266 0daa 51       		.byte	0x51
 4267 0dab 03       		.uleb128 0x3
 4268 0dac 0A       		.byte	0xa
 4269 0dad 1C01     		.2byte	0x11c
 4270 0daf 00       		.byte	0
 4271 0db0 1B       		.uleb128 0x1b
 4272 0db1 62000000 		.4byte	.LVL35
 4273 0db5 721A0000 		.4byte	0x1a72
 4274 0db9 CE0D0000 		.4byte	0xdce
 4275 0dbd 1C       		.uleb128 0x1c
 4276 0dbe 01       		.uleb128 0x1
 4277 0dbf 50       		.byte	0x50
 4278 0dc0 05       		.uleb128 0x5
 4279 0dc1 03       		.byte	0x3
 4280 0dc2 00000000 		.4byte	.LC0
 4281 0dc6 1C       		.uleb128 0x1c
 4282 0dc7 01       		.uleb128 0x1
 4283 0dc8 51       		.byte	0x51
 4284 0dc9 03       		.uleb128 0x3
 4285 0dca 0A       		.byte	0xa
 4286 0dcb 1D01     		.2byte	0x11d
 4287 0dcd 00       		.byte	0
 4288 0dce 1B       		.uleb128 0x1b
 4289 0dcf 78000000 		.4byte	.LVL36
 4290 0dd3 721A0000 		.4byte	0x1a72
 4291 0dd7 EC0D0000 		.4byte	0xdec
 4292 0ddb 1C       		.uleb128 0x1c
 4293 0ddc 01       		.uleb128 0x1
 4294 0ddd 50       		.byte	0x50
 4295 0dde 05       		.uleb128 0x5
 4296 0ddf 03       		.byte	0x3
ARM GAS  C:\Users\gjl\AppData\Local\Temp\cckcOS93.s 			page 135


 4297 0de0 00000000 		.4byte	.LC0
 4298 0de4 1C       		.uleb128 0x1c
 4299 0de5 01       		.uleb128 0x1
 4300 0de6 51       		.byte	0x51
 4301 0de7 03       		.uleb128 0x3
 4302 0de8 0A       		.byte	0xa
 4303 0de9 1E01     		.2byte	0x11e
 4304 0deb 00       		.byte	0
 4305 0dec 1B       		.uleb128 0x1b
 4306 0ded 8C000000 		.4byte	.LVL37
 4307 0df1 721A0000 		.4byte	0x1a72
 4308 0df5 0A0E0000 		.4byte	0xe0a
 4309 0df9 1C       		.uleb128 0x1c
 4310 0dfa 01       		.uleb128 0x1
 4311 0dfb 50       		.byte	0x50
 4312 0dfc 05       		.uleb128 0x5
 4313 0dfd 03       		.byte	0x3
 4314 0dfe 00000000 		.4byte	.LC0
 4315 0e02 1C       		.uleb128 0x1c
 4316 0e03 01       		.uleb128 0x1
 4317 0e04 51       		.byte	0x51
 4318 0e05 03       		.uleb128 0x3
 4319 0e06 0A       		.byte	0xa
 4320 0e07 1F01     		.2byte	0x11f
 4321 0e09 00       		.byte	0
 4322 0e0a 1B       		.uleb128 0x1b
 4323 0e0b AC000000 		.4byte	.LVL38
 4324 0e0f 721A0000 		.4byte	0x1a72
 4325 0e13 280E0000 		.4byte	0xe28
 4326 0e17 1C       		.uleb128 0x1c
 4327 0e18 01       		.uleb128 0x1
 4328 0e19 50       		.byte	0x50
 4329 0e1a 05       		.uleb128 0x5
 4330 0e1b 03       		.byte	0x3
 4331 0e1c 00000000 		.4byte	.LC0
 4332 0e20 1C       		.uleb128 0x1c
 4333 0e21 01       		.uleb128 0x1
 4334 0e22 51       		.byte	0x51
 4335 0e23 03       		.uleb128 0x3
 4336 0e24 0A       		.byte	0xa
 4337 0e25 2001     		.2byte	0x120
 4338 0e27 00       		.byte	0
 4339 0e28 1B       		.uleb128 0x1b
 4340 0e29 BE000000 		.4byte	.LVL39
 4341 0e2d 721A0000 		.4byte	0x1a72
 4342 0e31 460E0000 		.4byte	0xe46
 4343 0e35 1C       		.uleb128 0x1c
 4344 0e36 01       		.uleb128 0x1
 4345 0e37 50       		.byte	0x50
 4346 0e38 05       		.uleb128 0x5
 4347 0e39 03       		.byte	0x3
 4348 0e3a 00000000 		.4byte	.LC0
 4349 0e3e 1C       		.uleb128 0x1c
 4350 0e3f 01       		.uleb128 0x1
 4351 0e40 51       		.byte	0x51
 4352 0e41 03       		.uleb128 0x3
 4353 0e42 0A       		.byte	0xa
ARM GAS  C:\Users\gjl\AppData\Local\Temp\cckcOS93.s 			page 136


 4354 0e43 2101     		.2byte	0x121
 4355 0e45 00       		.byte	0
 4356 0e46 1B       		.uleb128 0x1b
 4357 0e47 D0000000 		.4byte	.LVL40
 4358 0e4b 721A0000 		.4byte	0x1a72
 4359 0e4f 640E0000 		.4byte	0xe64
 4360 0e53 1C       		.uleb128 0x1c
 4361 0e54 01       		.uleb128 0x1
 4362 0e55 50       		.byte	0x50
 4363 0e56 05       		.uleb128 0x5
 4364 0e57 03       		.byte	0x3
 4365 0e58 00000000 		.4byte	.LC0
 4366 0e5c 1C       		.uleb128 0x1c
 4367 0e5d 01       		.uleb128 0x1
 4368 0e5e 51       		.byte	0x51
 4369 0e5f 03       		.uleb128 0x3
 4370 0e60 0A       		.byte	0xa
 4371 0e61 2201     		.2byte	0x122
 4372 0e63 00       		.byte	0
 4373 0e64 1D       		.uleb128 0x1d
 4374 0e65 E2000000 		.4byte	.LVL41
 4375 0e69 721A0000 		.4byte	0x1a72
 4376 0e6d 1C       		.uleb128 0x1c
 4377 0e6e 01       		.uleb128 0x1
 4378 0e6f 50       		.byte	0x50
 4379 0e70 05       		.uleb128 0x5
 4380 0e71 03       		.byte	0x3
 4381 0e72 00000000 		.4byte	.LC0
 4382 0e76 1C       		.uleb128 0x1c
 4383 0e77 01       		.uleb128 0x1
 4384 0e78 51       		.byte	0x51
 4385 0e79 03       		.uleb128 0x3
 4386 0e7a 0A       		.byte	0xa
 4387 0e7b 2301     		.2byte	0x123
 4388 0e7d 00       		.byte	0
 4389 0e7e 00       		.byte	0
 4390 0e7f 1E       		.uleb128 0x1e
 4391 0e80 04       		.byte	0x4
 4392 0e81 850E0000 		.4byte	0xe85
 4393 0e85 06       		.uleb128 0x6
 4394 0e86 47090000 		.4byte	0x947
 4395 0e8a 1F       		.uleb128 0x1f
 4396 0e8b 2F050000 		.4byte	.LASF201
 4397 0e8f 01       		.byte	0x1
 4398 0e90 5A01     		.2byte	0x15a
 4399 0e92 8E070000 		.4byte	0x78e
 4400 0e96 00000000 		.4byte	.LFB184
 4401 0e9a 50000000 		.4byte	.LFE184-.LFB184
 4402 0e9e 01       		.uleb128 0x1
 4403 0e9f 9C       		.byte	0x9c
 4404 0ea0 ED0E0000 		.4byte	0xeed
 4405 0ea4 20       		.uleb128 0x20
 4406 0ea5 F2040000 		.4byte	.LASF194
 4407 0ea9 01       		.byte	0x1
 4408 0eaa 5A01     		.2byte	0x15a
 4409 0eac BF0C0000 		.4byte	0xcbf
 4410 0eb0 FB000000 		.4byte	.LLST6
ARM GAS  C:\Users\gjl\AppData\Local\Temp\cckcOS93.s 			page 137


 4411 0eb4 20       		.uleb128 0x20
 4412 0eb5 DA120000 		.4byte	.LASF202
 4413 0eb9 01       		.byte	0x1
 4414 0eba 5A01     		.2byte	0x15a
 4415 0ebc B5080000 		.4byte	0x8b5
 4416 0ec0 27010000 		.4byte	.LLST7
 4417 0ec4 21       		.uleb128 0x21
 4418 0ec5 59050000 		.4byte	.LASF199
 4419 0ec9 01       		.byte	0x1
 4420 0eca 5E01     		.2byte	0x15e
 4421 0ecc 8E070000 		.4byte	0x78e
 4422 0ed0 01       		.uleb128 0x1
 4423 0ed1 50       		.byte	0x50
 4424 0ed2 1D       		.uleb128 0x1d
 4425 0ed3 12000000 		.4byte	.LVL53
 4426 0ed7 721A0000 		.4byte	0x1a72
 4427 0edb 1C       		.uleb128 0x1c
 4428 0edc 01       		.uleb128 0x1
 4429 0edd 50       		.byte	0x50
 4430 0ede 05       		.uleb128 0x5
 4431 0edf 03       		.byte	0x3
 4432 0ee0 00000000 		.4byte	.LC0
 4433 0ee4 1C       		.uleb128 0x1c
 4434 0ee5 01       		.uleb128 0x1
 4435 0ee6 51       		.byte	0x51
 4436 0ee7 03       		.uleb128 0x3
 4437 0ee8 0A       		.byte	0xa
 4438 0ee9 5C01     		.2byte	0x15c
 4439 0eeb 00       		.byte	0
 4440 0eec 00       		.byte	0
 4441 0eed 1F       		.uleb128 0x1f
 4442 0eee E2010000 		.4byte	.LASF203
 4443 0ef2 01       		.byte	0x1
 4444 0ef3 B101     		.2byte	0x1b1
 4445 0ef5 8E070000 		.4byte	0x78e
 4446 0ef9 00000000 		.4byte	.LFB185
 4447 0efd 68010000 		.4byte	.LFE185-.LFB185
 4448 0f01 01       		.uleb128 0x1
 4449 0f02 9C       		.byte	0x9c
 4450 0f03 8E100000 		.4byte	0x108e
 4451 0f07 20       		.uleb128 0x20
 4452 0f08 F2040000 		.4byte	.LASF194
 4453 0f0c 01       		.byte	0x1
 4454 0f0d B101     		.2byte	0x1b1
 4455 0f0f BF0C0000 		.4byte	0xcbf
 4456 0f13 48010000 		.4byte	.LLST8
 4457 0f17 20       		.uleb128 0x20
 4458 0f18 5E110000 		.4byte	.LASF204
 4459 0f1c 01       		.byte	0x1
 4460 0f1d B101     		.2byte	0x1b1
 4461 0f1f 8E100000 		.4byte	0x108e
 4462 0f23 74010000 		.4byte	.LLST9
 4463 0f27 20       		.uleb128 0x20
 4464 0f28 66110000 		.4byte	.LASF205
 4465 0f2c 01       		.byte	0x1
 4466 0f2d B101     		.2byte	0x1b1
 4467 0f2f 99100000 		.4byte	0x1099
ARM GAS  C:\Users\gjl\AppData\Local\Temp\cckcOS93.s 			page 138


 4468 0f33 A0010000 		.4byte	.LLST10
 4469 0f37 22       		.uleb128 0x22
 4470 0f38 59050000 		.4byte	.LASF199
 4471 0f3c 01       		.byte	0x1
 4472 0f3d B701     		.2byte	0x1b7
 4473 0f3f 8E070000 		.4byte	0x78e
 4474 0f43 CC010000 		.4byte	.LLST11
 4475 0f47 1B       		.uleb128 0x1b
 4476 0f48 14000000 		.4byte	.LVL61
 4477 0f4c 721A0000 		.4byte	0x1a72
 4478 0f50 650F0000 		.4byte	0xf65
 4479 0f54 1C       		.uleb128 0x1c
 4480 0f55 01       		.uleb128 0x1
 4481 0f56 50       		.byte	0x50
 4482 0f57 05       		.uleb128 0x5
 4483 0f58 03       		.byte	0x3
 4484 0f59 00000000 		.4byte	.LC0
 4485 0f5d 1C       		.uleb128 0x1c
 4486 0f5e 01       		.uleb128 0x1
 4487 0f5f 51       		.byte	0x51
 4488 0f60 03       		.uleb128 0x3
 4489 0f61 0A       		.byte	0xa
 4490 0f62 B301     		.2byte	0x1b3
 4491 0f64 00       		.byte	0
 4492 0f65 1B       		.uleb128 0x1b
 4493 0f66 20000000 		.4byte	.LVL62
 4494 0f6a 721A0000 		.4byte	0x1a72
 4495 0f6e 830F0000 		.4byte	0xf83
 4496 0f72 1C       		.uleb128 0x1c
 4497 0f73 01       		.uleb128 0x1
 4498 0f74 50       		.byte	0x50
 4499 0f75 05       		.uleb128 0x5
 4500 0f76 03       		.byte	0x3
 4501 0f77 00000000 		.4byte	.LC0
 4502 0f7b 1C       		.uleb128 0x1c
 4503 0f7c 01       		.uleb128 0x1
 4504 0f7d 51       		.byte	0x51
 4505 0f7e 03       		.uleb128 0x3
 4506 0f7f 0A       		.byte	0xa
 4507 0f80 B401     		.2byte	0x1b4
 4508 0f82 00       		.byte	0
 4509 0f83 1B       		.uleb128 0x1b
 4510 0f84 2C000000 		.4byte	.LVL63
 4511 0f88 721A0000 		.4byte	0x1a72
 4512 0f8c A10F0000 		.4byte	0xfa1
 4513 0f90 1C       		.uleb128 0x1c
 4514 0f91 01       		.uleb128 0x1
 4515 0f92 50       		.byte	0x50
 4516 0f93 05       		.uleb128 0x5
 4517 0f94 03       		.byte	0x3
 4518 0f95 00000000 		.4byte	.LC0
 4519 0f99 1C       		.uleb128 0x1c
 4520 0f9a 01       		.uleb128 0x1
 4521 0f9b 51       		.byte	0x51
 4522 0f9c 03       		.uleb128 0x3
 4523 0f9d 0A       		.byte	0xa
 4524 0f9e B501     		.2byte	0x1b5
ARM GAS  C:\Users\gjl\AppData\Local\Temp\cckcOS93.s 			page 139


 4525 0fa0 00       		.byte	0
 4526 0fa1 1B       		.uleb128 0x1b
 4527 0fa2 4E000000 		.4byte	.LVL64
 4528 0fa6 721A0000 		.4byte	0x1a72
 4529 0faa BF0F0000 		.4byte	0xfbf
 4530 0fae 1C       		.uleb128 0x1c
 4531 0faf 01       		.uleb128 0x1
 4532 0fb0 50       		.byte	0x50
 4533 0fb1 05       		.uleb128 0x5
 4534 0fb2 03       		.byte	0x3
 4535 0fb3 00000000 		.4byte	.LC0
 4536 0fb7 1C       		.uleb128 0x1c
 4537 0fb8 01       		.uleb128 0x1
 4538 0fb9 51       		.byte	0x51
 4539 0fba 03       		.uleb128 0x3
 4540 0fbb 0A       		.byte	0xa
 4541 0fbc C001     		.2byte	0x1c0
 4542 0fbe 00       		.byte	0
 4543 0fbf 1B       		.uleb128 0x1b
 4544 0fc0 64000000 		.4byte	.LVL65
 4545 0fc4 721A0000 		.4byte	0x1a72
 4546 0fc8 DD0F0000 		.4byte	0xfdd
 4547 0fcc 1C       		.uleb128 0x1c
 4548 0fcd 01       		.uleb128 0x1
 4549 0fce 50       		.byte	0x50
 4550 0fcf 05       		.uleb128 0x5
 4551 0fd0 03       		.byte	0x3
 4552 0fd1 00000000 		.4byte	.LC0
 4553 0fd5 1C       		.uleb128 0x1c
 4554 0fd6 01       		.uleb128 0x1
 4555 0fd7 51       		.byte	0x51
 4556 0fd8 03       		.uleb128 0x3
 4557 0fd9 0A       		.byte	0xa
 4558 0fda C101     		.2byte	0x1c1
 4559 0fdc 00       		.byte	0
 4560 0fdd 1B       		.uleb128 0x1b
 4561 0fde 76000000 		.4byte	.LVL66
 4562 0fe2 721A0000 		.4byte	0x1a72
 4563 0fe6 FB0F0000 		.4byte	0xffb
 4564 0fea 1C       		.uleb128 0x1c
 4565 0feb 01       		.uleb128 0x1
 4566 0fec 50       		.byte	0x50
 4567 0fed 05       		.uleb128 0x5
 4568 0fee 03       		.byte	0x3
 4569 0fef 00000000 		.4byte	.LC0
 4570 0ff3 1C       		.uleb128 0x1c
 4571 0ff4 01       		.uleb128 0x1
 4572 0ff5 51       		.byte	0x51
 4573 0ff6 03       		.uleb128 0x3
 4574 0ff7 0A       		.byte	0xa
 4575 0ff8 C201     		.2byte	0x1c2
 4576 0ffa 00       		.byte	0
 4577 0ffb 1B       		.uleb128 0x1b
 4578 0ffc 8C000000 		.4byte	.LVL67
 4579 1000 721A0000 		.4byte	0x1a72
 4580 1004 19100000 		.4byte	0x1019
 4581 1008 1C       		.uleb128 0x1c
ARM GAS  C:\Users\gjl\AppData\Local\Temp\cckcOS93.s 			page 140


 4582 1009 01       		.uleb128 0x1
 4583 100a 50       		.byte	0x50
 4584 100b 05       		.uleb128 0x5
 4585 100c 03       		.byte	0x3
 4586 100d 00000000 		.4byte	.LC0
 4587 1011 1C       		.uleb128 0x1c
 4588 1012 01       		.uleb128 0x1
 4589 1013 51       		.byte	0x51
 4590 1014 03       		.uleb128 0x3
 4591 1015 0A       		.byte	0xa
 4592 1016 C301     		.2byte	0x1c3
 4593 1018 00       		.byte	0
 4594 1019 1B       		.uleb128 0x1b
 4595 101a 9C000000 		.4byte	.LVL68
 4596 101e 721A0000 		.4byte	0x1a72
 4597 1022 37100000 		.4byte	0x1037
 4598 1026 1C       		.uleb128 0x1c
 4599 1027 01       		.uleb128 0x1
 4600 1028 50       		.byte	0x50
 4601 1029 05       		.uleb128 0x5
 4602 102a 03       		.byte	0x3
 4603 102b 00000000 		.4byte	.LC0
 4604 102f 1C       		.uleb128 0x1c
 4605 1030 01       		.uleb128 0x1
 4606 1031 51       		.byte	0x51
 4607 1032 03       		.uleb128 0x3
 4608 1033 0A       		.byte	0xa
 4609 1034 C601     		.2byte	0x1c6
 4610 1036 00       		.byte	0
 4611 1037 1B       		.uleb128 0x1b
 4612 1038 B2000000 		.4byte	.LVL69
 4613 103c 721A0000 		.4byte	0x1a72
 4614 1040 55100000 		.4byte	0x1055
 4615 1044 1C       		.uleb128 0x1c
 4616 1045 01       		.uleb128 0x1
 4617 1046 50       		.byte	0x50
 4618 1047 05       		.uleb128 0x5
 4619 1048 03       		.byte	0x3
 4620 1049 00000000 		.4byte	.LC0
 4621 104d 1C       		.uleb128 0x1c
 4622 104e 01       		.uleb128 0x1
 4623 104f 51       		.byte	0x51
 4624 1050 03       		.uleb128 0x3
 4625 1051 0A       		.byte	0xa
 4626 1052 C701     		.2byte	0x1c7
 4627 1054 00       		.byte	0
 4628 1055 1B       		.uleb128 0x1b
 4629 1056 C4000000 		.4byte	.LVL70
 4630 105a 721A0000 		.4byte	0x1a72
 4631 105e 73100000 		.4byte	0x1073
 4632 1062 1C       		.uleb128 0x1c
 4633 1063 01       		.uleb128 0x1
 4634 1064 50       		.byte	0x50
 4635 1065 05       		.uleb128 0x5
 4636 1066 03       		.byte	0x3
 4637 1067 00000000 		.4byte	.LC0
 4638 106b 1C       		.uleb128 0x1c
ARM GAS  C:\Users\gjl\AppData\Local\Temp\cckcOS93.s 			page 141


 4639 106c 01       		.uleb128 0x1
 4640 106d 51       		.byte	0x51
 4641 106e 03       		.uleb128 0x3
 4642 106f 0A       		.byte	0xa
 4643 1070 C801     		.2byte	0x1c8
 4644 1072 00       		.byte	0
 4645 1073 1D       		.uleb128 0x1d
 4646 1074 DA000000 		.4byte	.LVL71
 4647 1078 721A0000 		.4byte	0x1a72
 4648 107c 1C       		.uleb128 0x1c
 4649 107d 01       		.uleb128 0x1
 4650 107e 50       		.byte	0x50
 4651 107f 05       		.uleb128 0x5
 4652 1080 03       		.byte	0x3
 4653 1081 00000000 		.4byte	.LC0
 4654 1085 1C       		.uleb128 0x1c
 4655 1086 01       		.uleb128 0x1
 4656 1087 51       		.byte	0x51
 4657 1088 03       		.uleb128 0x3
 4658 1089 0A       		.byte	0xa
 4659 108a C901     		.2byte	0x1c9
 4660 108c 00       		.byte	0
 4661 108d 00       		.byte	0
 4662 108e 1E       		.uleb128 0x1e
 4663 108f 04       		.byte	0x4
 4664 1090 94100000 		.4byte	0x1094
 4665 1094 06       		.uleb128 0x6
 4666 1095 91090000 		.4byte	0x991
 4667 1099 1E       		.uleb128 0x1e
 4668 109a 04       		.byte	0x4
 4669 109b 9F100000 		.4byte	0x109f
 4670 109f 06       		.uleb128 0x6
 4671 10a0 DB090000 		.4byte	0x9db
 4672 10a4 23       		.uleb128 0x23
 4673 10a5 C80A0000 		.4byte	.LASF207
 4674 10a9 01       		.byte	0x1
 4675 10aa 9902     		.2byte	0x299
 4676 10ac 00000000 		.4byte	.LFB187
 4677 10b0 28000000 		.4byte	.LFE187-.LFB187
 4678 10b4 01       		.uleb128 0x1
 4679 10b5 9C       		.byte	0x9c
 4680 10b6 05110000 		.4byte	0x1105
 4681 10ba 20       		.uleb128 0x20
 4682 10bb F2040000 		.4byte	.LASF194
 4683 10bf 01       		.byte	0x1
 4684 10c0 9902     		.2byte	0x299
 4685 10c2 BF0C0000 		.4byte	0xcbf
 4686 10c6 EB010000 		.4byte	.LLST12
 4687 10ca 20       		.uleb128 0x20
 4688 10cb 690E0000 		.4byte	.LASF155
 4689 10cf 01       		.byte	0x1
 4690 10d0 9902     		.2byte	0x299
 4691 10d2 3C040000 		.4byte	0x43c
 4692 10d6 17020000 		.4byte	.LLST13
 4693 10da 22       		.uleb128 0x22
 4694 10db 28130000 		.4byte	.LASF206
 4695 10df 01       		.byte	0x1
ARM GAS  C:\Users\gjl\AppData\Local\Temp\cckcOS93.s 			page 142


 4696 10e0 9D02     		.2byte	0x29d
 4697 10e2 8C000000 		.4byte	0x8c
 4698 10e6 43020000 		.4byte	.LLST14
 4699 10ea 1D       		.uleb128 0x1d
 4700 10eb 18000000 		.4byte	.LVL81
 4701 10ef 721A0000 		.4byte	0x1a72
 4702 10f3 1C       		.uleb128 0x1c
 4703 10f4 01       		.uleb128 0x1
 4704 10f5 50       		.byte	0x50
 4705 10f6 05       		.uleb128 0x5
 4706 10f7 03       		.byte	0x3
 4707 10f8 00000000 		.4byte	.LC0
 4708 10fc 1C       		.uleb128 0x1c
 4709 10fd 01       		.uleb128 0x1
 4710 10fe 51       		.byte	0x51
 4711 10ff 03       		.uleb128 0x3
 4712 1100 0A       		.byte	0xa
 4713 1101 9B02     		.2byte	0x29b
 4714 1103 00       		.byte	0
 4715 1104 00       		.byte	0
 4716 1105 23       		.uleb128 0x23
 4717 1106 1C040000 		.4byte	.LASF208
 4718 110a 01       		.byte	0x1
 4719 110b 3302     		.2byte	0x233
 4720 110d 00000000 		.4byte	.LFB186
 4721 1111 D4000000 		.4byte	.LFE186-.LFB186
 4722 1115 01       		.uleb128 0x1
 4723 1116 9C       		.byte	0x9c
 4724 1117 87120000 		.4byte	0x1287
 4725 111b 20       		.uleb128 0x20
 4726 111c F2040000 		.4byte	.LASF194
 4727 1120 01       		.byte	0x1
 4728 1121 3302     		.2byte	0x233
 4729 1123 BF0C0000 		.4byte	0xcbf
 4730 1127 56020000 		.4byte	.LLST15
 4731 112b 20       		.uleb128 0x20
 4732 112c AE020000 		.4byte	.LASF209
 4733 1130 01       		.byte	0x1
 4734 1131 3302     		.2byte	0x233
 4735 1133 65070000 		.4byte	0x765
 4736 1137 82020000 		.4byte	.LLST16
 4737 113b 24       		.uleb128 0x24
 4738 113c 040B0000 		.4byte	.LASF261
 4739 1140 01       		.byte	0x1
 4740 1141 3702     		.2byte	0x237
 4741 1143 E1030000 		.4byte	0x3e1
 4742 1147 25       		.uleb128 0x25
 4743 1148 F0090000 		.4byte	0x9f0
 4744 114c 1C000000 		.4byte	.LBB20
 4745 1150 0A000000 		.4byte	.LBE20-.LBB20
 4746 1154 01       		.byte	0x1
 4747 1155 4002     		.2byte	0x240
 4748 1157 65110000 		.4byte	0x1165
 4749 115b 26       		.uleb128 0x26
 4750 115c FD090000 		.4byte	0x9fd
 4751 1160 A3020000 		.4byte	.LLST17
 4752 1164 00       		.byte	0
ARM GAS  C:\Users\gjl\AppData\Local\Temp\cckcOS93.s 			page 143


 4753 1165 27       		.uleb128 0x27
 4754 1166 E7090000 		.4byte	0x9e7
 4755 116a 26000000 		.4byte	.LBB22
 4756 116e 08000000 		.4byte	.LBE22-.LBB22
 4757 1172 01       		.byte	0x1
 4758 1173 4102     		.2byte	0x241
 4759 1175 25       		.uleb128 0x25
 4760 1176 0A0A0000 		.4byte	0xa0a
 4761 117a 48000000 		.4byte	.LBB24
 4762 117e 0A000000 		.4byte	.LBE24-.LBB24
 4763 1182 01       		.byte	0x1
 4764 1183 5002     		.2byte	0x250
 4765 1185 93110000 		.4byte	0x1193
 4766 1189 26       		.uleb128 0x26
 4767 118a 170A0000 		.4byte	0xa17
 4768 118e B7020000 		.4byte	.LLST18
 4769 1192 00       		.byte	0
 4770 1193 25       		.uleb128 0x25
 4771 1194 F0090000 		.4byte	0x9f0
 4772 1198 52000000 		.4byte	.LBB26
 4773 119c 08000000 		.4byte	.LBE26-.LBB26
 4774 11a0 01       		.byte	0x1
 4775 11a1 5302     		.2byte	0x253
 4776 11a3 B1110000 		.4byte	0x11b1
 4777 11a7 26       		.uleb128 0x26
 4778 11a8 FD090000 		.4byte	0x9fd
 4779 11ac CD020000 		.4byte	.LLST19
 4780 11b0 00       		.byte	0
 4781 11b1 27       		.uleb128 0x27
 4782 11b2 E7090000 		.4byte	0x9e7
 4783 11b6 5A000000 		.4byte	.LBB28
 4784 11ba 08000000 		.4byte	.LBE28-.LBB28
 4785 11be 01       		.byte	0x1
 4786 11bf 5402     		.2byte	0x254
 4787 11c1 27       		.uleb128 0x27
 4788 11c2 240A0000 		.4byte	0xa24
 4789 11c6 7E000000 		.4byte	.LBB30
 4790 11ca 04000000 		.4byte	.LBE30-.LBB30
 4791 11ce 01       		.byte	0x1
 4792 11cf 6502     		.2byte	0x265
 4793 11d1 25       		.uleb128 0x25
 4794 11d2 0A0A0000 		.4byte	0xa0a
 4795 11d6 8E000000 		.4byte	.LBB32
 4796 11da 0E000000 		.4byte	.LBE32-.LBB32
 4797 11de 01       		.byte	0x1
 4798 11df 6802     		.2byte	0x268
 4799 11e1 EF110000 		.4byte	0x11ef
 4800 11e5 26       		.uleb128 0x26
 4801 11e6 170A0000 		.4byte	0xa17
 4802 11ea E1020000 		.4byte	.LLST20
 4803 11ee 00       		.byte	0
 4804 11ef 25       		.uleb128 0x25
 4805 11f0 F0090000 		.4byte	0x9f0
 4806 11f4 9C000000 		.4byte	.LBB34
 4807 11f8 0A000000 		.4byte	.LBE34-.LBB34
 4808 11fc 01       		.byte	0x1
 4809 11fd 6C02     		.2byte	0x26c
ARM GAS  C:\Users\gjl\AppData\Local\Temp\cckcOS93.s 			page 144


 4810 11ff 0D120000 		.4byte	0x120d
 4811 1203 26       		.uleb128 0x26
 4812 1204 FD090000 		.4byte	0x9fd
 4813 1208 F7020000 		.4byte	.LLST21
 4814 120c 00       		.byte	0
 4815 120d 27       		.uleb128 0x27
 4816 120e 310A0000 		.4byte	0xa31
 4817 1212 A6000000 		.4byte	.LBB36
 4818 1216 08000000 		.4byte	.LBE36-.LBB36
 4819 121a 01       		.byte	0x1
 4820 121b 6D02     		.2byte	0x26d
 4821 121d 1B       		.uleb128 0x1b
 4822 121e 14000000 		.4byte	.LVL88
 4823 1222 721A0000 		.4byte	0x1a72
 4824 1226 3B120000 		.4byte	0x123b
 4825 122a 1C       		.uleb128 0x1c
 4826 122b 01       		.uleb128 0x1
 4827 122c 50       		.byte	0x50
 4828 122d 05       		.uleb128 0x5
 4829 122e 03       		.byte	0x3
 4830 122f 00000000 		.4byte	.LC0
 4831 1233 1C       		.uleb128 0x1c
 4832 1234 01       		.uleb128 0x1
 4833 1235 51       		.byte	0x51
 4834 1236 03       		.uleb128 0x3
 4835 1237 0A       		.byte	0xa
 4836 1238 3502     		.2byte	0x235
 4837 123a 00       		.byte	0
 4838 123b 1B       		.uleb128 0x1b
 4839 123c 36000000 		.4byte	.LVL91
 4840 1240 A4100000 		.4byte	0x10a4
 4841 1244 54120000 		.4byte	0x1254
 4842 1248 1C       		.uleb128 0x1c
 4843 1249 01       		.uleb128 0x1
 4844 124a 50       		.byte	0x50
 4845 124b 02       		.uleb128 0x2
 4846 124c 74       		.byte	0x74
 4847 124d 00       		.sleb128 0
 4848 124e 1C       		.uleb128 0x1c
 4849 124f 01       		.uleb128 0x1
 4850 1250 51       		.byte	0x51
 4851 1251 01       		.uleb128 0x1
 4852 1252 30       		.byte	0x30
 4853 1253 00       		.byte	0
 4854 1254 1B       		.uleb128 0x1b
 4855 1255 6C000000 		.4byte	.LVL95
 4856 1259 A4100000 		.4byte	0x10a4
 4857 125d 6F120000 		.4byte	0x126f
 4858 1261 1C       		.uleb128 0x1c
 4859 1262 01       		.uleb128 0x1
 4860 1263 50       		.byte	0x50
 4861 1264 02       		.uleb128 0x2
 4862 1265 74       		.byte	0x74
 4863 1266 00       		.sleb128 0
 4864 1267 1C       		.uleb128 0x1c
 4865 1268 01       		.uleb128 0x1
 4866 1269 51       		.byte	0x51
ARM GAS  C:\Users\gjl\AppData\Local\Temp\cckcOS93.s 			page 145


 4867 126a 03       		.uleb128 0x3
 4868 126b 40       		.byte	0x40
 4869 126c 4A       		.byte	0x4a
 4870 126d 24       		.byte	0x24
 4871 126e 00       		.byte	0
 4872 126f 1D       		.uleb128 0x1d
 4873 1270 B8000000 		.4byte	.LVL100
 4874 1274 A4100000 		.4byte	0x10a4
 4875 1278 1C       		.uleb128 0x1c
 4876 1279 01       		.uleb128 0x1
 4877 127a 50       		.byte	0x50
 4878 127b 02       		.uleb128 0x2
 4879 127c 74       		.byte	0x74
 4880 127d 00       		.sleb128 0
 4881 127e 1C       		.uleb128 0x1c
 4882 127f 01       		.uleb128 0x1
 4883 1280 51       		.byte	0x51
 4884 1281 03       		.uleb128 0x3
 4885 1282 40       		.byte	0x40
 4886 1283 4A       		.byte	0x4a
 4887 1284 24       		.byte	0x24
 4888 1285 00       		.byte	0
 4889 1286 00       		.byte	0
 4890 1287 23       		.uleb128 0x23
 4891 1288 61070000 		.4byte	.LASF210
 4892 128c 01       		.byte	0x1
 4893 128d BA02     		.2byte	0x2ba
 4894 128f 00000000 		.4byte	.LFB188
 4895 1293 98000000 		.4byte	.LFE188-.LFB188
 4896 1297 01       		.uleb128 0x1
 4897 1298 9C       		.byte	0x9c
 4898 1299 16130000 		.4byte	0x1316
 4899 129d 20       		.uleb128 0x20
 4900 129e F2040000 		.4byte	.LASF194
 4901 12a2 01       		.byte	0x1
 4902 12a3 BA02     		.2byte	0x2ba
 4903 12a5 BF0C0000 		.4byte	0xcbf
 4904 12a9 0C030000 		.4byte	.LLST22
 4905 12ad 20       		.uleb128 0x20
 4906 12ae B1060000 		.4byte	.LASF198
 4907 12b2 01       		.byte	0x1
 4908 12b3 BA02     		.2byte	0x2ba
 4909 12b5 13040000 		.4byte	0x413
 4910 12b9 38030000 		.4byte	.LLST23
 4911 12bd 20       		.uleb128 0x20
 4912 12be F7020000 		.4byte	.LASF211
 4913 12c2 01       		.byte	0x1
 4914 12c3 BA02     		.2byte	0x2ba
 4915 12c5 9A040000 		.4byte	0x49a
 4916 12c9 59030000 		.4byte	.LLST24
 4917 12cd 22       		.uleb128 0x22
 4918 12ce 4E0A0000 		.4byte	.LASF212
 4919 12d2 01       		.byte	0x1
 4920 12d3 BF02     		.2byte	0x2bf
 4921 12d5 8C000000 		.4byte	0x8c
 4922 12d9 7A030000 		.4byte	.LLST25
 4923 12dd 1B       		.uleb128 0x1b
ARM GAS  C:\Users\gjl\AppData\Local\Temp\cckcOS93.s 			page 146


 4924 12de 1A000000 		.4byte	.LVL105
 4925 12e2 721A0000 		.4byte	0x1a72
 4926 12e6 FB120000 		.4byte	0x12fb
 4927 12ea 1C       		.uleb128 0x1c
 4928 12eb 01       		.uleb128 0x1
 4929 12ec 50       		.byte	0x50
 4930 12ed 05       		.uleb128 0x5
 4931 12ee 03       		.byte	0x3
 4932 12ef 00000000 		.4byte	.LC0
 4933 12f3 1C       		.uleb128 0x1c
 4934 12f4 01       		.uleb128 0x1
 4935 12f5 51       		.byte	0x51
 4936 12f6 03       		.uleb128 0x3
 4937 12f7 0A       		.byte	0xa
 4938 12f8 BC02     		.2byte	0x2bc
 4939 12fa 00       		.byte	0
 4940 12fb 1D       		.uleb128 0x1d
 4941 12fc 2E000000 		.4byte	.LVL106
 4942 1300 721A0000 		.4byte	0x1a72
 4943 1304 1C       		.uleb128 0x1c
 4944 1305 01       		.uleb128 0x1
 4945 1306 50       		.byte	0x50
 4946 1307 05       		.uleb128 0x5
 4947 1308 03       		.byte	0x3
 4948 1309 00000000 		.4byte	.LC0
 4949 130d 1C       		.uleb128 0x1c
 4950 130e 01       		.uleb128 0x1
 4951 130f 51       		.byte	0x51
 4952 1310 03       		.uleb128 0x3
 4953 1311 0A       		.byte	0xa
 4954 1312 BD02     		.2byte	0x2bd
 4955 1314 00       		.byte	0
 4956 1315 00       		.byte	0
 4957 1316 23       		.uleb128 0x23
 4958 1317 DE0B0000 		.4byte	.LASF213
 4959 131b 01       		.byte	0x1
 4960 131c F202     		.2byte	0x2f2
 4961 131e 00000000 		.4byte	.LFB189
 4962 1322 74000000 		.4byte	.LFE189-.LFB189
 4963 1326 01       		.uleb128 0x1
 4964 1327 9C       		.byte	0x9c
 4965 1328 D3130000 		.4byte	0x13d3
 4966 132c 20       		.uleb128 0x20
 4967 132d F2040000 		.4byte	.LASF194
 4968 1331 01       		.byte	0x1
 4969 1332 F202     		.2byte	0x2f2
 4970 1334 BF0C0000 		.4byte	0xcbf
 4971 1338 98030000 		.4byte	.LLST26
 4972 133c 20       		.uleb128 0x20
 4973 133d B1060000 		.4byte	.LASF198
 4974 1341 01       		.byte	0x1
 4975 1342 F202     		.2byte	0x2f2
 4976 1344 13040000 		.4byte	0x413
 4977 1348 C4030000 		.4byte	.LLST27
 4978 134c 20       		.uleb128 0x20
 4979 134d 47120000 		.4byte	.LASF214
 4980 1351 01       		.byte	0x1
ARM GAS  C:\Users\gjl\AppData\Local\Temp\cckcOS93.s 			page 147


 4981 1352 F202     		.2byte	0x2f2
 4982 1354 6E040000 		.4byte	0x46e
 4983 1358 E5030000 		.4byte	.LLST28
 4984 135c 20       		.uleb128 0x20
 4985 135d A2110000 		.4byte	.LASF215
 4986 1361 01       		.byte	0x1
 4987 1362 F202     		.2byte	0x2f2
 4988 1364 C1040000 		.4byte	0x4c1
 4989 1368 06040000 		.4byte	.LLST29
 4990 136c 22       		.uleb128 0x22
 4991 136d 4E0A0000 		.4byte	.LASF212
 4992 1371 01       		.byte	0x1
 4993 1372 F802     		.2byte	0x2f8
 4994 1374 8C000000 		.4byte	0x8c
 4995 1378 27040000 		.4byte	.LLST30
 4996 137c 1B       		.uleb128 0x1b
 4997 137d 1C000000 		.4byte	.LVL116
 4998 1381 721A0000 		.4byte	0x1a72
 4999 1385 9A130000 		.4byte	0x139a
 5000 1389 1C       		.uleb128 0x1c
 5001 138a 01       		.uleb128 0x1
 5002 138b 50       		.byte	0x50
 5003 138c 05       		.uleb128 0x5
 5004 138d 03       		.byte	0x3
 5005 138e 00000000 		.4byte	.LC0
 5006 1392 1C       		.uleb128 0x1c
 5007 1393 01       		.uleb128 0x1
 5008 1394 51       		.byte	0x51
 5009 1395 03       		.uleb128 0x3
 5010 1396 0A       		.byte	0xa
 5011 1397 F402     		.2byte	0x2f4
 5012 1399 00       		.byte	0
 5013 139a 1B       		.uleb128 0x1b
 5014 139b 2A000000 		.4byte	.LVL117
 5015 139f 721A0000 		.4byte	0x1a72
 5016 13a3 B8130000 		.4byte	0x13b8
 5017 13a7 1C       		.uleb128 0x1c
 5018 13a8 01       		.uleb128 0x1
 5019 13a9 50       		.byte	0x50
 5020 13aa 05       		.uleb128 0x5
 5021 13ab 03       		.byte	0x3
 5022 13ac 00000000 		.4byte	.LC0
 5023 13b0 1C       		.uleb128 0x1c
 5024 13b1 01       		.uleb128 0x1
 5025 13b2 51       		.byte	0x51
 5026 13b3 03       		.uleb128 0x3
 5027 13b4 0A       		.byte	0xa
 5028 13b5 F502     		.2byte	0x2f5
 5029 13b7 00       		.byte	0
 5030 13b8 1D       		.uleb128 0x1d
 5031 13b9 3C000000 		.4byte	.LVL118
 5032 13bd 721A0000 		.4byte	0x1a72
 5033 13c1 1C       		.uleb128 0x1c
 5034 13c2 01       		.uleb128 0x1
 5035 13c3 50       		.byte	0x50
 5036 13c4 05       		.uleb128 0x5
 5037 13c5 03       		.byte	0x3
ARM GAS  C:\Users\gjl\AppData\Local\Temp\cckcOS93.s 			page 148


 5038 13c6 00000000 		.4byte	.LC0
 5039 13ca 1C       		.uleb128 0x1c
 5040 13cb 01       		.uleb128 0x1
 5041 13cc 51       		.byte	0x51
 5042 13cd 03       		.uleb128 0x3
 5043 13ce 0A       		.byte	0xa
 5044 13cf F602     		.2byte	0x2f6
 5045 13d1 00       		.byte	0
 5046 13d2 00       		.byte	0
 5047 13d3 23       		.uleb128 0x23
 5048 13d4 24010000 		.4byte	.LASF216
 5049 13d8 01       		.byte	0x1
 5050 13d9 2A03     		.2byte	0x32a
 5051 13db 00000000 		.4byte	.LFB190
 5052 13df 68000000 		.4byte	.LFE190-.LFB190
 5053 13e3 01       		.uleb128 0x1
 5054 13e4 9C       		.byte	0x9c
 5055 13e5 24140000 		.4byte	0x1424
 5056 13e9 20       		.uleb128 0x20
 5057 13ea F2040000 		.4byte	.LASF194
 5058 13ee 01       		.byte	0x1
 5059 13ef 2A03     		.2byte	0x32a
 5060 13f1 BF0C0000 		.4byte	0xcbf
 5061 13f5 45040000 		.4byte	.LLST31
 5062 13f9 20       		.uleb128 0x20
 5063 13fa F7020000 		.4byte	.LASF211
 5064 13fe 01       		.byte	0x1
 5065 13ff 2A03     		.2byte	0x32a
 5066 1401 13070000 		.4byte	0x713
 5067 1405 71040000 		.4byte	.LLST32
 5068 1409 1D       		.uleb128 0x1d
 5069 140a 14000000 		.4byte	.LVL127
 5070 140e 721A0000 		.4byte	0x1a72
 5071 1412 1C       		.uleb128 0x1c
 5072 1413 01       		.uleb128 0x1
 5073 1414 50       		.byte	0x50
 5074 1415 05       		.uleb128 0x5
 5075 1416 03       		.byte	0x3
 5076 1417 00000000 		.4byte	.LC0
 5077 141b 1C       		.uleb128 0x1c
 5078 141c 01       		.uleb128 0x1
 5079 141d 51       		.byte	0x51
 5080 141e 03       		.uleb128 0x3
 5081 141f 0A       		.byte	0xa
 5082 1420 2C03     		.2byte	0x32c
 5083 1422 00       		.byte	0
 5084 1423 00       		.byte	0
 5085 1424 23       		.uleb128 0x23
 5086 1425 510B0000 		.4byte	.LASF217
 5087 1429 01       		.byte	0x1
 5088 142a 7F03     		.2byte	0x37f
 5089 142c 00000000 		.4byte	.LFB191
 5090 1430 50000000 		.4byte	.LFE191-.LFB191
 5091 1434 01       		.uleb128 0x1
 5092 1435 9C       		.byte	0x9c
 5093 1436 A3140000 		.4byte	0x14a3
 5094 143a 20       		.uleb128 0x20
ARM GAS  C:\Users\gjl\AppData\Local\Temp\cckcOS93.s 			page 149


 5095 143b F2040000 		.4byte	.LASF194
 5096 143f 01       		.byte	0x1
 5097 1440 7F03     		.2byte	0x37f
 5098 1442 BF0C0000 		.4byte	0xcbf
 5099 1446 92040000 		.4byte	.LLST33
 5100 144a 20       		.uleb128 0x20
 5101 144b B1060000 		.4byte	.LASF198
 5102 144f 01       		.byte	0x1
 5103 1450 7F03     		.2byte	0x37f
 5104 1452 13040000 		.4byte	0x413
 5105 1456 BE040000 		.4byte	.LLST34
 5106 145a 20       		.uleb128 0x20
 5107 145b 710C0000 		.4byte	.LASF218
 5108 145f 01       		.byte	0x1
 5109 1460 7F03     		.2byte	0x37f
 5110 1462 8C000000 		.4byte	0x8c
 5111 1466 DF040000 		.4byte	.LLST35
 5112 146a 1B       		.uleb128 0x1b
 5113 146b 1A000000 		.4byte	.LVL136
 5114 146f 721A0000 		.4byte	0x1a72
 5115 1473 88140000 		.4byte	0x1488
 5116 1477 1C       		.uleb128 0x1c
 5117 1478 01       		.uleb128 0x1
 5118 1479 50       		.byte	0x50
 5119 147a 05       		.uleb128 0x5
 5120 147b 03       		.byte	0x3
 5121 147c 00000000 		.4byte	.LC0
 5122 1480 1C       		.uleb128 0x1c
 5123 1481 01       		.uleb128 0x1
 5124 1482 51       		.byte	0x51
 5125 1483 03       		.uleb128 0x3
 5126 1484 0A       		.byte	0xa
 5127 1485 8103     		.2byte	0x381
 5128 1487 00       		.byte	0
 5129 1488 1D       		.uleb128 0x1d
 5130 1489 28000000 		.4byte	.LVL137
 5131 148d 721A0000 		.4byte	0x1a72
 5132 1491 1C       		.uleb128 0x1c
 5133 1492 01       		.uleb128 0x1
 5134 1493 50       		.byte	0x50
 5135 1494 05       		.uleb128 0x5
 5136 1495 03       		.byte	0x3
 5137 1496 00000000 		.4byte	.LC0
 5138 149a 1C       		.uleb128 0x1c
 5139 149b 01       		.uleb128 0x1
 5140 149c 51       		.byte	0x51
 5141 149d 03       		.uleb128 0x3
 5142 149e 0A       		.byte	0xa
 5143 149f 8203     		.2byte	0x382
 5144 14a1 00       		.byte	0
 5145 14a2 00       		.byte	0
 5146 14a3 1F       		.uleb128 0x1f
 5147 14a4 8C010000 		.4byte	.LASF219
 5148 14a8 01       		.byte	0x1
 5149 14a9 A203     		.2byte	0x3a2
 5150 14ab 8C000000 		.4byte	0x8c
 5151 14af 00000000 		.4byte	.LFB192
ARM GAS  C:\Users\gjl\AppData\Local\Temp\cckcOS93.s 			page 150


 5152 14b3 2C000000 		.4byte	.LFE192-.LFB192
 5153 14b7 01       		.uleb128 0x1
 5154 14b8 9C       		.byte	0x9c
 5155 14b9 08150000 		.4byte	0x1508
 5156 14bd 20       		.uleb128 0x20
 5157 14be F2040000 		.4byte	.LASF194
 5158 14c2 01       		.byte	0x1
 5159 14c3 A203     		.2byte	0x3a2
 5160 14c5 08150000 		.4byte	0x1508
 5161 14c9 0B050000 		.4byte	.LLST36
 5162 14cd 20       		.uleb128 0x20
 5163 14ce B1060000 		.4byte	.LASF198
 5164 14d2 01       		.byte	0x1
 5165 14d3 A203     		.2byte	0x3a2
 5166 14d5 13040000 		.4byte	0x413
 5167 14d9 37050000 		.4byte	.LLST37
 5168 14dd 22       		.uleb128 0x22
 5169 14de 0A0F0000 		.4byte	.LASF220
 5170 14e2 01       		.byte	0x1
 5171 14e3 A603     		.2byte	0x3a6
 5172 14e5 8C000000 		.4byte	0x8c
 5173 14e9 58050000 		.4byte	.LLST38
 5174 14ed 1D       		.uleb128 0x1d
 5175 14ee 18000000 		.4byte	.LVL143
 5176 14f2 721A0000 		.4byte	0x1a72
 5177 14f6 1C       		.uleb128 0x1c
 5178 14f7 01       		.uleb128 0x1
 5179 14f8 50       		.byte	0x50
 5180 14f9 05       		.uleb128 0x5
 5181 14fa 03       		.byte	0x3
 5182 14fb 00000000 		.4byte	.LC0
 5183 14ff 1C       		.uleb128 0x1c
 5184 1500 01       		.uleb128 0x1
 5185 1501 51       		.byte	0x51
 5186 1502 03       		.uleb128 0x3
 5187 1503 0A       		.byte	0xa
 5188 1504 A403     		.2byte	0x3a4
 5189 1506 00       		.byte	0
 5190 1507 00       		.byte	0
 5191 1508 1E       		.uleb128 0x1e
 5192 1509 04       		.byte	0x4
 5193 150a 0E150000 		.4byte	0x150e
 5194 150e 06       		.uleb128 0x6
 5195 150f 92020000 		.4byte	0x292
 5196 1513 23       		.uleb128 0x23
 5197 1514 D2130000 		.4byte	.LASF221
 5198 1518 01       		.byte	0x1
 5199 1519 EC03     		.2byte	0x3ec
 5200 151b 00000000 		.4byte	.LFB193
 5201 151f 50000000 		.4byte	.LFE193-.LFB193
 5202 1523 01       		.uleb128 0x1
 5203 1524 9C       		.byte	0x9c
 5204 1525 92150000 		.4byte	0x1592
 5205 1529 20       		.uleb128 0x20
 5206 152a F2040000 		.4byte	.LASF194
 5207 152e 01       		.byte	0x1
 5208 152f EC03     		.2byte	0x3ec
ARM GAS  C:\Users\gjl\AppData\Local\Temp\cckcOS93.s 			page 151


 5209 1531 BF0C0000 		.4byte	0xcbf
 5210 1535 76050000 		.4byte	.LLST39
 5211 1539 20       		.uleb128 0x20
 5212 153a B1060000 		.4byte	.LASF198
 5213 153e 01       		.byte	0x1
 5214 153f EC03     		.2byte	0x3ec
 5215 1541 13040000 		.4byte	0x413
 5216 1545 A2050000 		.4byte	.LLST40
 5217 1549 20       		.uleb128 0x20
 5218 154a 710C0000 		.4byte	.LASF218
 5219 154e 01       		.byte	0x1
 5220 154f EC03     		.2byte	0x3ec
 5221 1551 8C000000 		.4byte	0x8c
 5222 1555 C3050000 		.4byte	.LLST41
 5223 1559 1B       		.uleb128 0x1b
 5224 155a 1A000000 		.4byte	.LVL151
 5225 155e 721A0000 		.4byte	0x1a72
 5226 1562 77150000 		.4byte	0x1577
 5227 1566 1C       		.uleb128 0x1c
 5228 1567 01       		.uleb128 0x1
 5229 1568 50       		.byte	0x50
 5230 1569 05       		.uleb128 0x5
 5231 156a 03       		.byte	0x3
 5232 156b 00000000 		.4byte	.LC0
 5233 156f 1C       		.uleb128 0x1c
 5234 1570 01       		.uleb128 0x1
 5235 1571 51       		.byte	0x51
 5236 1572 03       		.uleb128 0x3
 5237 1573 0A       		.byte	0xa
 5238 1574 EE03     		.2byte	0x3ee
 5239 1576 00       		.byte	0
 5240 1577 1D       		.uleb128 0x1d
 5241 1578 28000000 		.4byte	.LVL152
 5242 157c 721A0000 		.4byte	0x1a72
 5243 1580 1C       		.uleb128 0x1c
 5244 1581 01       		.uleb128 0x1
 5245 1582 50       		.byte	0x50
 5246 1583 05       		.uleb128 0x5
 5247 1584 03       		.byte	0x3
 5248 1585 00000000 		.4byte	.LC0
 5249 1589 1C       		.uleb128 0x1c
 5250 158a 01       		.uleb128 0x1
 5251 158b 51       		.byte	0x51
 5252 158c 03       		.uleb128 0x3
 5253 158d 0A       		.byte	0xa
 5254 158e EF03     		.2byte	0x3ef
 5255 1590 00       		.byte	0
 5256 1591 00       		.byte	0
 5257 1592 1F       		.uleb128 0x1f
 5258 1593 5C0C0000 		.4byte	.LASF222
 5259 1597 01       		.byte	0x1
 5260 1598 0F04     		.2byte	0x40f
 5261 159a 8C000000 		.4byte	0x8c
 5262 159e 00000000 		.4byte	.LFB194
 5263 15a2 2C000000 		.4byte	.LFE194-.LFB194
 5264 15a6 01       		.uleb128 0x1
 5265 15a7 9C       		.byte	0x9c
ARM GAS  C:\Users\gjl\AppData\Local\Temp\cckcOS93.s 			page 152


 5266 15a8 F7150000 		.4byte	0x15f7
 5267 15ac 20       		.uleb128 0x20
 5268 15ad F2040000 		.4byte	.LASF194
 5269 15b1 01       		.byte	0x1
 5270 15b2 0F04     		.2byte	0x40f
 5271 15b4 08150000 		.4byte	0x1508
 5272 15b8 EF050000 		.4byte	.LLST42
 5273 15bc 20       		.uleb128 0x20
 5274 15bd B1060000 		.4byte	.LASF198
 5275 15c1 01       		.byte	0x1
 5276 15c2 0F04     		.2byte	0x40f
 5277 15c4 13040000 		.4byte	0x413
 5278 15c8 1B060000 		.4byte	.LLST43
 5279 15cc 22       		.uleb128 0x22
 5280 15cd 0A0F0000 		.4byte	.LASF220
 5281 15d1 01       		.byte	0x1
 5282 15d2 1304     		.2byte	0x413
 5283 15d4 8C000000 		.4byte	0x8c
 5284 15d8 3C060000 		.4byte	.LLST44
 5285 15dc 1D       		.uleb128 0x1d
 5286 15dd 18000000 		.4byte	.LVL158
 5287 15e1 721A0000 		.4byte	0x1a72
 5288 15e5 1C       		.uleb128 0x1c
 5289 15e6 01       		.uleb128 0x1
 5290 15e7 50       		.byte	0x50
 5291 15e8 05       		.uleb128 0x5
 5292 15e9 03       		.byte	0x3
 5293 15ea 00000000 		.4byte	.LC0
 5294 15ee 1C       		.uleb128 0x1c
 5295 15ef 01       		.uleb128 0x1
 5296 15f0 51       		.byte	0x51
 5297 15f1 03       		.uleb128 0x3
 5298 15f2 0A       		.byte	0xa
 5299 15f3 1104     		.2byte	0x411
 5300 15f5 00       		.byte	0
 5301 15f6 00       		.byte	0
 5302 15f7 23       		.uleb128 0x23
 5303 15f8 A8120000 		.4byte	.LASF223
 5304 15fc 01       		.byte	0x1
 5305 15fd 3F04     		.2byte	0x43f
 5306 15ff 00000000 		.4byte	.LFB195
 5307 1603 94000000 		.4byte	.LFE195-.LFB195
 5308 1607 01       		.uleb128 0x1
 5309 1608 9C       		.byte	0x9c
 5310 1609 C4160000 		.4byte	0x16c4
 5311 160d 20       		.uleb128 0x20
 5312 160e F2040000 		.4byte	.LASF194
 5313 1612 01       		.byte	0x1
 5314 1613 3F04     		.2byte	0x43f
 5315 1615 BF0C0000 		.4byte	0xcbf
 5316 1619 5A060000 		.4byte	.LLST45
 5317 161d 20       		.uleb128 0x20
 5318 161e F9000000 		.4byte	.LASF224
 5319 1622 01       		.byte	0x1
 5320 1623 3F04     		.2byte	0x43f
 5321 1625 BA050000 		.4byte	0x5ba
 5322 1629 B8060000 		.4byte	.LLST46
ARM GAS  C:\Users\gjl\AppData\Local\Temp\cckcOS93.s 			page 153


 5323 162d 20       		.uleb128 0x20
 5324 162e C60E0000 		.4byte	.LASF225
 5325 1632 01       		.byte	0x1
 5326 1633 3F04     		.2byte	0x43f
 5327 1635 8C000000 		.4byte	0x8c
 5328 1639 D9060000 		.4byte	.LLST47
 5329 163d 20       		.uleb128 0x20
 5330 163e DB110000 		.4byte	.LASF226
 5331 1642 01       		.byte	0x1
 5332 1643 3F04     		.2byte	0x43f
 5333 1645 8E050000 		.4byte	0x58e
 5334 1649 05070000 		.4byte	.LLST48
 5335 164d 22       		.uleb128 0x22
 5336 164e E40E0000 		.4byte	.LASF227
 5337 1652 01       		.byte	0x1
 5338 1653 4504     		.2byte	0x445
 5339 1655 C4160000 		.4byte	0x16c4
 5340 1659 26070000 		.4byte	.LLST49
 5341 165d 22       		.uleb128 0x22
 5342 165e DF020000 		.4byte	.LASF228
 5343 1662 01       		.byte	0x1
 5344 1663 4604     		.2byte	0x446
 5345 1665 C4160000 		.4byte	0x16c4
 5346 1669 4F070000 		.4byte	.LLST50
 5347 166d 1B       		.uleb128 0x1b
 5348 166e 18000000 		.4byte	.LVL166
 5349 1672 721A0000 		.4byte	0x1a72
 5350 1676 8B160000 		.4byte	0x168b
 5351 167a 1C       		.uleb128 0x1c
 5352 167b 01       		.uleb128 0x1
 5353 167c 50       		.byte	0x50
 5354 167d 05       		.uleb128 0x5
 5355 167e 03       		.byte	0x3
 5356 167f 00000000 		.4byte	.LC0
 5357 1683 1C       		.uleb128 0x1c
 5358 1684 01       		.uleb128 0x1
 5359 1685 51       		.byte	0x51
 5360 1686 03       		.uleb128 0x3
 5361 1687 0A       		.byte	0xa
 5362 1688 4104     		.2byte	0x441
 5363 168a 00       		.byte	0
 5364 168b 1B       		.uleb128 0x1b
 5365 168c 50000000 		.4byte	.LVL167
 5366 1690 721A0000 		.4byte	0x1a72
 5367 1694 A9160000 		.4byte	0x16a9
 5368 1698 1C       		.uleb128 0x1c
 5369 1699 01       		.uleb128 0x1
 5370 169a 50       		.byte	0x50
 5371 169b 05       		.uleb128 0x5
 5372 169c 03       		.byte	0x3
 5373 169d 00000000 		.4byte	.LC0
 5374 16a1 1C       		.uleb128 0x1c
 5375 16a2 01       		.uleb128 0x1
 5376 16a3 51       		.byte	0x51
 5377 16a4 03       		.uleb128 0x3
 5378 16a5 0A       		.byte	0xa
 5379 16a6 4204     		.2byte	0x442
ARM GAS  C:\Users\gjl\AppData\Local\Temp\cckcOS93.s 			page 154


 5380 16a8 00       		.byte	0
 5381 16a9 1D       		.uleb128 0x1d
 5382 16aa 5E000000 		.4byte	.LVL168
 5383 16ae 721A0000 		.4byte	0x1a72
 5384 16b2 1C       		.uleb128 0x1c
 5385 16b3 01       		.uleb128 0x1
 5386 16b4 50       		.byte	0x50
 5387 16b5 05       		.uleb128 0x5
 5388 16b6 03       		.byte	0x3
 5389 16b7 00000000 		.4byte	.LC0
 5390 16bb 1C       		.uleb128 0x1c
 5391 16bc 01       		.uleb128 0x1
 5392 16bd 51       		.byte	0x51
 5393 16be 03       		.uleb128 0x3
 5394 16bf 0A       		.byte	0xa
 5395 16c0 4304     		.2byte	0x443
 5396 16c2 00       		.byte	0
 5397 16c3 00       		.byte	0
 5398 16c4 1E       		.uleb128 0x1e
 5399 16c5 04       		.byte	0x4
 5400 16c6 A5000000 		.4byte	0xa5
 5401 16ca 1F       		.uleb128 0x1f
 5402 16cb B4000000 		.4byte	.LASF229
 5403 16cf 01       		.byte	0x1
 5404 16d0 7C04     		.2byte	0x47c
 5405 16d2 8C000000 		.4byte	0x8c
 5406 16d6 00000000 		.4byte	.LFB196
 5407 16da 34000000 		.4byte	.LFE196-.LFB196
 5408 16de 01       		.uleb128 0x1
 5409 16df 9C       		.byte	0x9c
 5410 16e0 2F170000 		.4byte	0x172f
 5411 16e4 20       		.uleb128 0x20
 5412 16e5 F2040000 		.4byte	.LASF194
 5413 16e9 01       		.byte	0x1
 5414 16ea 7C04     		.2byte	0x47c
 5415 16ec 08150000 		.4byte	0x1508
 5416 16f0 78070000 		.4byte	.LLST51
 5417 16f4 20       		.uleb128 0x20
 5418 16f5 F9000000 		.4byte	.LASF224
 5419 16f9 01       		.byte	0x1
 5420 16fa 7C04     		.2byte	0x47c
 5421 16fc BA050000 		.4byte	0x5ba
 5422 1700 A4070000 		.4byte	.LLST52
 5423 1704 22       		.uleb128 0x22
 5424 1705 1D060000 		.4byte	.LASF230
 5425 1709 01       		.byte	0x1
 5426 170a 8004     		.2byte	0x480
 5427 170c 8C000000 		.4byte	0x8c
 5428 1710 C5070000 		.4byte	.LLST53
 5429 1714 1D       		.uleb128 0x1d
 5430 1715 14000000 		.4byte	.LVL182
 5431 1719 721A0000 		.4byte	0x1a72
 5432 171d 1C       		.uleb128 0x1c
 5433 171e 01       		.uleb128 0x1
 5434 171f 50       		.byte	0x50
 5435 1720 05       		.uleb128 0x5
 5436 1721 03       		.byte	0x3
ARM GAS  C:\Users\gjl\AppData\Local\Temp\cckcOS93.s 			page 155


 5437 1722 00000000 		.4byte	.LC0
 5438 1726 1C       		.uleb128 0x1c
 5439 1727 01       		.uleb128 0x1
 5440 1728 51       		.byte	0x51
 5441 1729 03       		.uleb128 0x3
 5442 172a 0A       		.byte	0xa
 5443 172b 7E04     		.2byte	0x47e
 5444 172d 00       		.byte	0
 5445 172e 00       		.byte	0
 5446 172f 23       		.uleb128 0x23
 5447 1730 BC0C0000 		.4byte	.LASF231
 5448 1734 01       		.byte	0x1
 5449 1735 B004     		.2byte	0x4b0
 5450 1737 00000000 		.4byte	.LFB197
 5451 173b 90000000 		.4byte	.LFE197-.LFB197
 5452 173f 01       		.uleb128 0x1
 5453 1740 9C       		.byte	0x9c
 5454 1741 1A180000 		.4byte	0x181a
 5455 1745 20       		.uleb128 0x20
 5456 1746 F2040000 		.4byte	.LASF194
 5457 174a 01       		.byte	0x1
 5458 174b B004     		.2byte	0x4b0
 5459 174d BF0C0000 		.4byte	0xcbf
 5460 1751 EE070000 		.4byte	.LLST54
 5461 1755 20       		.uleb128 0x20
 5462 1756 08050000 		.4byte	.LASF232
 5463 175a 01       		.byte	0x1
 5464 175b B004     		.2byte	0x4b0
 5465 175d 13040000 		.4byte	0x413
 5466 1761 1A080000 		.4byte	.LLST55
 5467 1765 20       		.uleb128 0x20
 5468 1766 7E020000 		.4byte	.LASF233
 5469 176a 01       		.byte	0x1
 5470 176b B004     		.2byte	0x4b0
 5471 176d 1C050000 		.4byte	0x51c
 5472 1771 3B080000 		.4byte	.LLST56
 5473 1775 20       		.uleb128 0x20
 5474 1776 A0070000 		.4byte	.LASF234
 5475 177a 01       		.byte	0x1
 5476 177b B004     		.2byte	0x4b0
 5477 177d 42050000 		.4byte	0x542
 5478 1781 5C080000 		.4byte	.LLST57
 5479 1785 20       		.uleb128 0x20
 5480 1786 E1040000 		.4byte	.LASF235
 5481 178a 01       		.byte	0x1
 5482 178b B004     		.2byte	0x4b0
 5483 178d 68050000 		.4byte	0x568
 5484 1791 7D080000 		.4byte	.LLST58
 5485 1795 22       		.uleb128 0x22
 5486 1796 4E010000 		.4byte	.LASF236
 5487 179a 01       		.byte	0x1
 5488 179b B704     		.2byte	0x4b7
 5489 179d 8C000000 		.4byte	0x8c
 5490 17a1 9D080000 		.4byte	.LLST59
 5491 17a5 1B       		.uleb128 0x1b
 5492 17a6 22000000 		.4byte	.LVL193
 5493 17aa 721A0000 		.4byte	0x1a72
ARM GAS  C:\Users\gjl\AppData\Local\Temp\cckcOS93.s 			page 156


 5494 17ae C3170000 		.4byte	0x17c3
 5495 17b2 1C       		.uleb128 0x1c
 5496 17b3 01       		.uleb128 0x1
 5497 17b4 50       		.byte	0x50
 5498 17b5 05       		.uleb128 0x5
 5499 17b6 03       		.byte	0x3
 5500 17b7 00000000 		.4byte	.LC0
 5501 17bb 1C       		.uleb128 0x1c
 5502 17bc 01       		.uleb128 0x1
 5503 17bd 51       		.byte	0x51
 5504 17be 03       		.uleb128 0x3
 5505 17bf 0A       		.byte	0xa
 5506 17c0 B204     		.2byte	0x4b2
 5507 17c2 00       		.byte	0
 5508 17c3 1B       		.uleb128 0x1b
 5509 17c4 32000000 		.4byte	.LVL194
 5510 17c8 721A0000 		.4byte	0x1a72
 5511 17cc E1170000 		.4byte	0x17e1
 5512 17d0 1C       		.uleb128 0x1c
 5513 17d1 01       		.uleb128 0x1
 5514 17d2 50       		.byte	0x50
 5515 17d3 05       		.uleb128 0x5
 5516 17d4 03       		.byte	0x3
 5517 17d5 00000000 		.4byte	.LC0
 5518 17d9 1C       		.uleb128 0x1c
 5519 17da 01       		.uleb128 0x1
 5520 17db 51       		.byte	0x51
 5521 17dc 03       		.uleb128 0x3
 5522 17dd 0A       		.byte	0xa
 5523 17de B304     		.2byte	0x4b3
 5524 17e0 00       		.byte	0
 5525 17e1 1B       		.uleb128 0x1b
 5526 17e2 42000000 		.4byte	.LVL195
 5527 17e6 721A0000 		.4byte	0x1a72
 5528 17ea FF170000 		.4byte	0x17ff
 5529 17ee 1C       		.uleb128 0x1c
 5530 17ef 01       		.uleb128 0x1
 5531 17f0 50       		.byte	0x50
 5532 17f1 05       		.uleb128 0x5
 5533 17f2 03       		.byte	0x3
 5534 17f3 00000000 		.4byte	.LC0
 5535 17f7 1C       		.uleb128 0x1c
 5536 17f8 01       		.uleb128 0x1
 5537 17f9 51       		.byte	0x51
 5538 17fa 03       		.uleb128 0x3
 5539 17fb 0A       		.byte	0xa
 5540 17fc B404     		.2byte	0x4b4
 5541 17fe 00       		.byte	0
 5542 17ff 1D       		.uleb128 0x1d
 5543 1800 52000000 		.4byte	.LVL196
 5544 1804 721A0000 		.4byte	0x1a72
 5545 1808 1C       		.uleb128 0x1c
 5546 1809 01       		.uleb128 0x1
 5547 180a 50       		.byte	0x50
 5548 180b 05       		.uleb128 0x5
 5549 180c 03       		.byte	0x3
 5550 180d 00000000 		.4byte	.LC0
ARM GAS  C:\Users\gjl\AppData\Local\Temp\cckcOS93.s 			page 157


 5551 1811 1C       		.uleb128 0x1c
 5552 1812 01       		.uleb128 0x1
 5553 1813 51       		.byte	0x51
 5554 1814 03       		.uleb128 0x3
 5555 1815 0A       		.byte	0xa
 5556 1816 B504     		.2byte	0x4b5
 5557 1818 00       		.byte	0
 5558 1819 00       		.byte	0
 5559 181a 1F       		.uleb128 0x1f
 5560 181b 47040000 		.4byte	.LASF237
 5561 181f 01       		.byte	0x1
 5562 1820 DC04     		.2byte	0x4dc
 5563 1822 8C000000 		.4byte	0x8c
 5564 1826 00000000 		.4byte	.LFB198
 5565 182a 30000000 		.4byte	.LFE198-.LFB198
 5566 182e 01       		.uleb128 0x1
 5567 182f 9C       		.byte	0x9c
 5568 1830 7F180000 		.4byte	0x187f
 5569 1834 20       		.uleb128 0x20
 5570 1835 F2040000 		.4byte	.LASF194
 5571 1839 01       		.byte	0x1
 5572 183a DC04     		.2byte	0x4dc
 5573 183c 08150000 		.4byte	0x1508
 5574 1840 BB080000 		.4byte	.LLST60
 5575 1844 20       		.uleb128 0x20
 5576 1845 08050000 		.4byte	.LASF232
 5577 1849 01       		.byte	0x1
 5578 184a DC04     		.2byte	0x4dc
 5579 184c 13040000 		.4byte	0x413
 5580 1850 E7080000 		.4byte	.LLST61
 5581 1854 22       		.uleb128 0x22
 5582 1855 0D0D0000 		.4byte	.LASF195
 5583 1859 01       		.byte	0x1
 5584 185a E004     		.2byte	0x4e0
 5585 185c 8C000000 		.4byte	0x8c
 5586 1860 08090000 		.4byte	.LLST62
 5587 1864 1D       		.uleb128 0x1d
 5588 1865 18000000 		.4byte	.LVL205
 5589 1869 721A0000 		.4byte	0x1a72
 5590 186d 1C       		.uleb128 0x1c
 5591 186e 01       		.uleb128 0x1
 5592 186f 50       		.byte	0x50
 5593 1870 05       		.uleb128 0x5
 5594 1871 03       		.byte	0x3
 5595 1872 00000000 		.4byte	.LC0
 5596 1876 1C       		.uleb128 0x1c
 5597 1877 01       		.uleb128 0x1
 5598 1878 51       		.byte	0x51
 5599 1879 03       		.uleb128 0x3
 5600 187a 0A       		.byte	0xa
 5601 187b DE04     		.2byte	0x4de
 5602 187d 00       		.byte	0
 5603 187e 00       		.byte	0
 5604 187f 23       		.uleb128 0x23
 5605 1880 D5080000 		.4byte	.LASF238
 5606 1884 01       		.byte	0x1
 5607 1885 0405     		.2byte	0x504
ARM GAS  C:\Users\gjl\AppData\Local\Temp\cckcOS93.s 			page 158


 5608 1887 00000000 		.4byte	.LFB199
 5609 188b 64000000 		.4byte	.LFE199-.LFB199
 5610 188f 01       		.uleb128 0x1
 5611 1890 9C       		.byte	0x9c
 5612 1891 0E190000 		.4byte	0x190e
 5613 1895 20       		.uleb128 0x20
 5614 1896 F2040000 		.4byte	.LASF194
 5615 189a 01       		.byte	0x1
 5616 189b 0405     		.2byte	0x504
 5617 189d BF0C0000 		.4byte	0xcbf
 5618 18a1 26090000 		.4byte	.LLST63
 5619 18a5 20       		.uleb128 0x20
 5620 18a6 08050000 		.4byte	.LASF232
 5621 18aa 01       		.byte	0x1
 5622 18ab 0405     		.2byte	0x504
 5623 18ad 13040000 		.4byte	0x413
 5624 18b1 52090000 		.4byte	.LLST64
 5625 18b5 20       		.uleb128 0x20
 5626 18b6 9B070000 		.4byte	.LASF239
 5627 18ba 01       		.byte	0x1
 5628 18bb 0405     		.2byte	0x504
 5629 18bd F6040000 		.4byte	0x4f6
 5630 18c1 73090000 		.4byte	.LLST65
 5631 18c5 22       		.uleb128 0x22
 5632 18c6 4E010000 		.4byte	.LASF236
 5633 18ca 01       		.byte	0x1
 5634 18cb 0905     		.2byte	0x509
 5635 18cd 8C000000 		.4byte	0x8c
 5636 18d1 94090000 		.4byte	.LLST66
 5637 18d5 1B       		.uleb128 0x1b
 5638 18d6 1A000000 		.4byte	.LVL213
 5639 18da 721A0000 		.4byte	0x1a72
 5640 18de F3180000 		.4byte	0x18f3
 5641 18e2 1C       		.uleb128 0x1c
 5642 18e3 01       		.uleb128 0x1
 5643 18e4 50       		.byte	0x50
 5644 18e5 05       		.uleb128 0x5
 5645 18e6 03       		.byte	0x3
 5646 18e7 00000000 		.4byte	.LC0
 5647 18eb 1C       		.uleb128 0x1c
 5648 18ec 01       		.uleb128 0x1
 5649 18ed 51       		.byte	0x51
 5650 18ee 03       		.uleb128 0x3
 5651 18ef 0A       		.byte	0xa
 5652 18f0 0605     		.2byte	0x506
 5653 18f2 00       		.byte	0
 5654 18f3 1D       		.uleb128 0x1d
 5655 18f4 38000000 		.4byte	.LVL214
 5656 18f8 721A0000 		.4byte	0x1a72
 5657 18fc 1C       		.uleb128 0x1c
 5658 18fd 01       		.uleb128 0x1
 5659 18fe 50       		.byte	0x50
 5660 18ff 05       		.uleb128 0x5
 5661 1900 03       		.byte	0x3
 5662 1901 00000000 		.4byte	.LC0
 5663 1905 1C       		.uleb128 0x1c
 5664 1906 01       		.uleb128 0x1
ARM GAS  C:\Users\gjl\AppData\Local\Temp\cckcOS93.s 			page 159


 5665 1907 51       		.byte	0x51
 5666 1908 03       		.uleb128 0x3
 5667 1909 0A       		.byte	0xa
 5668 190a 0705     		.2byte	0x507
 5669 190c 00       		.byte	0
 5670 190d 00       		.byte	0
 5671 190e 1F       		.uleb128 0x1f
 5672 190f 85130000 		.4byte	.LASF240
 5673 1913 01       		.byte	0x1
 5674 1914 3205     		.2byte	0x532
 5675 1916 8C000000 		.4byte	0x8c
 5676 191a 00000000 		.4byte	.LFB200
 5677 191e 38000000 		.4byte	.LFE200-.LFB200
 5678 1922 01       		.uleb128 0x1
 5679 1923 9C       		.byte	0x9c
 5680 1924 73190000 		.4byte	0x1973
 5681 1928 20       		.uleb128 0x20
 5682 1929 F2040000 		.4byte	.LASF194
 5683 192d 01       		.byte	0x1
 5684 192e 3205     		.2byte	0x532
 5685 1930 08150000 		.4byte	0x1508
 5686 1934 B2090000 		.4byte	.LLST67
 5687 1938 20       		.uleb128 0x20
 5688 1939 08050000 		.4byte	.LASF232
 5689 193d 01       		.byte	0x1
 5690 193e 3205     		.2byte	0x532
 5691 1940 13040000 		.4byte	0x413
 5692 1944 DE090000 		.4byte	.LLST68
 5693 1948 22       		.uleb128 0x22
 5694 1949 23100000 		.4byte	.LASF241
 5695 194d 01       		.byte	0x1
 5696 194e 3605     		.2byte	0x536
 5697 1950 8C000000 		.4byte	0x8c
 5698 1954 FF090000 		.4byte	.LLST69
 5699 1958 1D       		.uleb128 0x1d
 5700 1959 18000000 		.4byte	.LVL223
 5701 195d 721A0000 		.4byte	0x1a72
 5702 1961 1C       		.uleb128 0x1c
 5703 1962 01       		.uleb128 0x1
 5704 1963 50       		.byte	0x50
 5705 1964 05       		.uleb128 0x5
 5706 1965 03       		.byte	0x3
 5707 1966 00000000 		.4byte	.LC0
 5708 196a 1C       		.uleb128 0x1c
 5709 196b 01       		.uleb128 0x1
 5710 196c 51       		.byte	0x51
 5711 196d 03       		.uleb128 0x3
 5712 196e 0A       		.byte	0xa
 5713 196f 3405     		.2byte	0x534
 5714 1971 00       		.byte	0
 5715 1972 00       		.byte	0
 5716 1973 28       		.uleb128 0x28
 5717 1974 170E0000 		.4byte	.LASF242
 5718 1978 09       		.byte	0x9
 5719 1979 EA07     		.2byte	0x7ea
 5720 197b 7F190000 		.4byte	0x197f
 5721 197f 05       		.uleb128 0x5
ARM GAS  C:\Users\gjl\AppData\Local\Temp\cckcOS93.s 			page 160


 5722 1980 81000000 		.4byte	0x81
 5723 1984 29       		.uleb128 0x29
 5724 1985 0F110000 		.4byte	.LASF243
 5725 1989 01       		.byte	0x1
 5726 198a 19       		.byte	0x19
 5727 198b 94100000 		.4byte	0x1094
 5728 198f 05       		.uleb128 0x5
 5729 1990 03       		.byte	0x3
 5730 1991 00000000 		.4byte	Cy_CTB_Fast_Opamp0_Unused
 5731 1995 29       		.uleb128 0x29
 5732 1996 DB030000 		.4byte	.LASF244
 5733 199a 01       		.byte	0x1
 5734 199b 21       		.byte	0x21
 5735 199c 94100000 		.4byte	0x1094
 5736 19a0 05       		.uleb128 0x5
 5737 19a1 03       		.byte	0x3
 5738 19a2 00000000 		.4byte	Cy_CTB_Fast_Opamp0_Comp
 5739 19a6 29       		.uleb128 0x29
 5740 19a7 09000000 		.4byte	.LASF245
 5741 19ab 01       		.byte	0x1
 5742 19ac 29       		.byte	0x29
 5743 19ad 94100000 		.4byte	0x1094
 5744 19b1 05       		.uleb128 0x5
 5745 19b2 03       		.byte	0x3
 5746 19b3 00000000 		.4byte	Cy_CTB_Fast_Opamp0_Opamp1x
 5747 19b7 29       		.uleb128 0x29
 5748 19b8 350B0000 		.4byte	.LASF246
 5749 19bc 01       		.byte	0x1
 5750 19bd 31       		.byte	0x31
 5751 19be 94100000 		.4byte	0x1094
 5752 19c2 05       		.uleb128 0x5
 5753 19c3 03       		.byte	0x3
 5754 19c4 00000000 		.4byte	Cy_CTB_Fast_Opamp0_Opamp10x
 5755 19c8 29       		.uleb128 0x29
 5756 19c9 6E110000 		.4byte	.LASF247
 5757 19cd 01       		.byte	0x1
 5758 19ce 39       		.byte	0x39
 5759 19cf 94100000 		.4byte	0x1094
 5760 19d3 05       		.uleb128 0x5
 5761 19d4 03       		.byte	0x3
 5762 19d5 00000000 		.4byte	Cy_CTB_Fast_Opamp0_Diffamp
 5763 19d9 29       		.uleb128 0x29
 5764 19da D4070000 		.4byte	.LASF248
 5765 19de 01       		.byte	0x1
 5766 19df 41       		.byte	0x41
 5767 19e0 94100000 		.4byte	0x1094
 5768 19e4 05       		.uleb128 0x5
 5769 19e5 03       		.byte	0x3
 5770 19e6 00000000 		.4byte	Cy_CTB_Fast_Opamp0_Vdac_Out
 5771 19ea 29       		.uleb128 0x29
 5772 19eb FC020000 		.4byte	.LASF249
 5773 19ef 01       		.byte	0x1
 5774 19f0 49       		.byte	0x49
 5775 19f1 94100000 		.4byte	0x1094
 5776 19f5 05       		.uleb128 0x5
 5777 19f6 03       		.byte	0x3
 5778 19f7 00000000 		.4byte	Cy_CTB_Fast_Opamp0_Vdac_Out_SH
ARM GAS  C:\Users\gjl\AppData\Local\Temp\cckcOS93.s 			page 161


 5779 19fb 29       		.uleb128 0x29
 5780 19fc 95040000 		.4byte	.LASF250
 5781 1a00 01       		.byte	0x1
 5782 1a01 51       		.byte	0x51
 5783 1a02 9F100000 		.4byte	0x109f
 5784 1a06 05       		.uleb128 0x5
 5785 1a07 03       		.byte	0x3
 5786 1a08 00000000 		.4byte	Cy_CTB_Fast_Opamp1_Unused
 5787 1a0c 29       		.uleb128 0x29
 5788 1a0d 91100000 		.4byte	.LASF251
 5789 1a11 01       		.byte	0x1
 5790 1a12 59       		.byte	0x59
 5791 1a13 9F100000 		.4byte	0x109f
 5792 1a17 05       		.uleb128 0x5
 5793 1a18 03       		.byte	0x3
 5794 1a19 00000000 		.4byte	Cy_CTB_Fast_Opamp1_Comp
 5795 1a1d 29       		.uleb128 0x29
 5796 1a1e 96060000 		.4byte	.LASF252
 5797 1a22 01       		.byte	0x1
 5798 1a23 61       		.byte	0x61
 5799 1a24 9F100000 		.4byte	0x109f
 5800 1a28 05       		.uleb128 0x5
 5801 1a29 03       		.byte	0x3
 5802 1a2a 00000000 		.4byte	Cy_CTB_Fast_Opamp1_Opamp1x
 5803 1a2e 29       		.uleb128 0x29
 5804 1a2f A90F0000 		.4byte	.LASF253
 5805 1a33 01       		.byte	0x1
 5806 1a34 69       		.byte	0x69
 5807 1a35 9F100000 		.4byte	0x109f
 5808 1a39 05       		.uleb128 0x5
 5809 1a3a 03       		.byte	0x3
 5810 1a3b 00000000 		.4byte	Cy_CTB_Fast_Opamp1_Opamp10x
 5811 1a3f 29       		.uleb128 0x29
 5812 1a40 BA020000 		.4byte	.LASF254
 5813 1a44 01       		.byte	0x1
 5814 1a45 71       		.byte	0x71
 5815 1a46 9F100000 		.4byte	0x109f
 5816 1a4a 05       		.uleb128 0x5
 5817 1a4b 03       		.byte	0x3
 5818 1a4c 00000000 		.4byte	Cy_CTB_Fast_Opamp1_Diffamp
 5819 1a50 29       		.uleb128 0x29
 5820 1a51 2F080000 		.4byte	.LASF255
 5821 1a55 01       		.byte	0x1
 5822 1a56 79       		.byte	0x79
 5823 1a57 9F100000 		.4byte	0x109f
 5824 1a5b 05       		.uleb128 0x5
 5825 1a5c 03       		.byte	0x3
 5826 1a5d 00000000 		.4byte	Cy_CTB_Fast_Opamp1_Vdac_Ref_Aref
 5827 1a61 29       		.uleb128 0x29
 5828 1a62 76000000 		.4byte	.LASF256
 5829 1a66 01       		.byte	0x1
 5830 1a67 81       		.byte	0x81
 5831 1a68 9F100000 		.4byte	0x109f
 5832 1a6c 05       		.uleb128 0x5
 5833 1a6d 03       		.byte	0x3
 5834 1a6e 00000000 		.4byte	Cy_CTB_Fast_Opamp1_Vdac_Ref_Pin5
 5835 1a72 2A       		.uleb128 0x2a
ARM GAS  C:\Users\gjl\AppData\Local\Temp\cckcOS93.s 			page 162


 5836 1a73 BE080000 		.4byte	.LASF262
 5837 1a77 BE080000 		.4byte	.LASF262
 5838 1a7b 08       		.byte	0x8
 5839 1a7c 2A03     		.2byte	0x32a
 5840 1a7e 00       		.byte	0
 5841              		.section	.debug_abbrev,"",%progbits
 5842              	.Ldebug_abbrev0:
 5843 0000 01       		.uleb128 0x1
 5844 0001 11       		.uleb128 0x11
 5845 0002 01       		.byte	0x1
 5846 0003 25       		.uleb128 0x25
 5847 0004 0E       		.uleb128 0xe
 5848 0005 13       		.uleb128 0x13
 5849 0006 0B       		.uleb128 0xb
 5850 0007 03       		.uleb128 0x3
 5851 0008 0E       		.uleb128 0xe
 5852 0009 1B       		.uleb128 0x1b
 5853 000a 0E       		.uleb128 0xe
 5854 000b 55       		.uleb128 0x55
 5855 000c 17       		.uleb128 0x17
 5856 000d 11       		.uleb128 0x11
 5857 000e 01       		.uleb128 0x1
 5858 000f 10       		.uleb128 0x10
 5859 0010 17       		.uleb128 0x17
 5860 0011 00       		.byte	0
 5861 0012 00       		.byte	0
 5862 0013 02       		.uleb128 0x2
 5863 0014 24       		.uleb128 0x24
 5864 0015 00       		.byte	0
 5865 0016 0B       		.uleb128 0xb
 5866 0017 0B       		.uleb128 0xb
 5867 0018 3E       		.uleb128 0x3e
 5868 0019 0B       		.uleb128 0xb
 5869 001a 03       		.uleb128 0x3
 5870 001b 0E       		.uleb128 0xe
 5871 001c 00       		.byte	0
 5872 001d 00       		.byte	0
 5873 001e 03       		.uleb128 0x3
 5874 001f 16       		.uleb128 0x16
 5875 0020 00       		.byte	0
 5876 0021 03       		.uleb128 0x3
 5877 0022 0E       		.uleb128 0xe
 5878 0023 3A       		.uleb128 0x3a
 5879 0024 0B       		.uleb128 0xb
 5880 0025 3B       		.uleb128 0x3b
 5881 0026 0B       		.uleb128 0xb
 5882 0027 49       		.uleb128 0x49
 5883 0028 13       		.uleb128 0x13
 5884 0029 00       		.byte	0
 5885 002a 00       		.byte	0
 5886 002b 04       		.uleb128 0x4
 5887 002c 24       		.uleb128 0x24
 5888 002d 00       		.byte	0
 5889 002e 0B       		.uleb128 0xb
 5890 002f 0B       		.uleb128 0xb
 5891 0030 3E       		.uleb128 0x3e
 5892 0031 0B       		.uleb128 0xb
ARM GAS  C:\Users\gjl\AppData\Local\Temp\cckcOS93.s 			page 163


 5893 0032 03       		.uleb128 0x3
 5894 0033 08       		.uleb128 0x8
 5895 0034 00       		.byte	0
 5896 0035 00       		.byte	0
 5897 0036 05       		.uleb128 0x5
 5898 0037 35       		.uleb128 0x35
 5899 0038 00       		.byte	0
 5900 0039 49       		.uleb128 0x49
 5901 003a 13       		.uleb128 0x13
 5902 003b 00       		.byte	0
 5903 003c 00       		.byte	0
 5904 003d 06       		.uleb128 0x6
 5905 003e 26       		.uleb128 0x26
 5906 003f 00       		.byte	0
 5907 0040 49       		.uleb128 0x49
 5908 0041 13       		.uleb128 0x13
 5909 0042 00       		.byte	0
 5910 0043 00       		.byte	0
 5911 0044 07       		.uleb128 0x7
 5912 0045 01       		.uleb128 0x1
 5913 0046 01       		.byte	0x1
 5914 0047 49       		.uleb128 0x49
 5915 0048 13       		.uleb128 0x13
 5916 0049 01       		.uleb128 0x1
 5917 004a 13       		.uleb128 0x13
 5918 004b 00       		.byte	0
 5919 004c 00       		.byte	0
 5920 004d 08       		.uleb128 0x8
 5921 004e 21       		.uleb128 0x21
 5922 004f 00       		.byte	0
 5923 0050 49       		.uleb128 0x49
 5924 0051 13       		.uleb128 0x13
 5925 0052 2F       		.uleb128 0x2f
 5926 0053 0B       		.uleb128 0xb
 5927 0054 00       		.byte	0
 5928 0055 00       		.byte	0
 5929 0056 09       		.uleb128 0x9
 5930 0057 13       		.uleb128 0x13
 5931 0058 01       		.byte	0x1
 5932 0059 0B       		.uleb128 0xb
 5933 005a 05       		.uleb128 0x5
 5934 005b 3A       		.uleb128 0x3a
 5935 005c 0B       		.uleb128 0xb
 5936 005d 3B       		.uleb128 0x3b
 5937 005e 0B       		.uleb128 0xb
 5938 005f 01       		.uleb128 0x1
 5939 0060 13       		.uleb128 0x13
 5940 0061 00       		.byte	0
 5941 0062 00       		.byte	0
 5942 0063 0A       		.uleb128 0xa
 5943 0064 0D       		.uleb128 0xd
 5944 0065 00       		.byte	0
 5945 0066 03       		.uleb128 0x3
 5946 0067 0E       		.uleb128 0xe
 5947 0068 3A       		.uleb128 0x3a
 5948 0069 0B       		.uleb128 0xb
 5949 006a 3B       		.uleb128 0x3b
ARM GAS  C:\Users\gjl\AppData\Local\Temp\cckcOS93.s 			page 164


 5950 006b 0B       		.uleb128 0xb
 5951 006c 49       		.uleb128 0x49
 5952 006d 13       		.uleb128 0x13
 5953 006e 38       		.uleb128 0x38
 5954 006f 0B       		.uleb128 0xb
 5955 0070 00       		.byte	0
 5956 0071 00       		.byte	0
 5957 0072 0B       		.uleb128 0xb
 5958 0073 0D       		.uleb128 0xd
 5959 0074 00       		.byte	0
 5960 0075 03       		.uleb128 0x3
 5961 0076 0E       		.uleb128 0xe
 5962 0077 3A       		.uleb128 0x3a
 5963 0078 0B       		.uleb128 0xb
 5964 0079 3B       		.uleb128 0x3b
 5965 007a 0B       		.uleb128 0xb
 5966 007b 49       		.uleb128 0x49
 5967 007c 13       		.uleb128 0x13
 5968 007d 38       		.uleb128 0x38
 5969 007e 05       		.uleb128 0x5
 5970 007f 00       		.byte	0
 5971 0080 00       		.byte	0
 5972 0081 0C       		.uleb128 0xc
 5973 0082 21       		.uleb128 0x21
 5974 0083 00       		.byte	0
 5975 0084 49       		.uleb128 0x49
 5976 0085 13       		.uleb128 0x13
 5977 0086 2F       		.uleb128 0x2f
 5978 0087 05       		.uleb128 0x5
 5979 0088 00       		.byte	0
 5980 0089 00       		.byte	0
 5981 008a 0D       		.uleb128 0xd
 5982 008b 16       		.uleb128 0x16
 5983 008c 00       		.byte	0
 5984 008d 03       		.uleb128 0x3
 5985 008e 0E       		.uleb128 0xe
 5986 008f 3A       		.uleb128 0x3a
 5987 0090 0B       		.uleb128 0xb
 5988 0091 3B       		.uleb128 0x3b
 5989 0092 05       		.uleb128 0x5
 5990 0093 49       		.uleb128 0x49
 5991 0094 13       		.uleb128 0x13
 5992 0095 00       		.byte	0
 5993 0096 00       		.byte	0
 5994 0097 0E       		.uleb128 0xe
 5995 0098 04       		.uleb128 0x4
 5996 0099 01       		.byte	0x1
 5997 009a 0B       		.uleb128 0xb
 5998 009b 0B       		.uleb128 0xb
 5999 009c 49       		.uleb128 0x49
 6000 009d 13       		.uleb128 0x13
 6001 009e 3A       		.uleb128 0x3a
 6002 009f 0B       		.uleb128 0xb
 6003 00a0 3B       		.uleb128 0x3b
 6004 00a1 05       		.uleb128 0x5
 6005 00a2 01       		.uleb128 0x1
 6006 00a3 13       		.uleb128 0x13
ARM GAS  C:\Users\gjl\AppData\Local\Temp\cckcOS93.s 			page 165


 6007 00a4 00       		.byte	0
 6008 00a5 00       		.byte	0
 6009 00a6 0F       		.uleb128 0xf
 6010 00a7 28       		.uleb128 0x28
 6011 00a8 00       		.byte	0
 6012 00a9 03       		.uleb128 0x3
 6013 00aa 0E       		.uleb128 0xe
 6014 00ab 1C       		.uleb128 0x1c
 6015 00ac 0B       		.uleb128 0xb
 6016 00ad 00       		.byte	0
 6017 00ae 00       		.byte	0
 6018 00af 10       		.uleb128 0x10
 6019 00b0 28       		.uleb128 0x28
 6020 00b1 00       		.byte	0
 6021 00b2 03       		.uleb128 0x3
 6022 00b3 0E       		.uleb128 0xe
 6023 00b4 1C       		.uleb128 0x1c
 6024 00b5 06       		.uleb128 0x6
 6025 00b6 00       		.byte	0
 6026 00b7 00       		.byte	0
 6027 00b8 11       		.uleb128 0x11
 6028 00b9 28       		.uleb128 0x28
 6029 00ba 00       		.byte	0
 6030 00bb 03       		.uleb128 0x3
 6031 00bc 0E       		.uleb128 0xe
 6032 00bd 1C       		.uleb128 0x1c
 6033 00be 05       		.uleb128 0x5
 6034 00bf 00       		.byte	0
 6035 00c0 00       		.byte	0
 6036 00c1 12       		.uleb128 0x12
 6037 00c2 13       		.uleb128 0x13
 6038 00c3 01       		.byte	0x1
 6039 00c4 0B       		.uleb128 0xb
 6040 00c5 0B       		.uleb128 0xb
 6041 00c6 3A       		.uleb128 0x3a
 6042 00c7 0B       		.uleb128 0xb
 6043 00c8 3B       		.uleb128 0x3b
 6044 00c9 05       		.uleb128 0x5
 6045 00ca 01       		.uleb128 0x1
 6046 00cb 13       		.uleb128 0x13
 6047 00cc 00       		.byte	0
 6048 00cd 00       		.byte	0
 6049 00ce 13       		.uleb128 0x13
 6050 00cf 0D       		.uleb128 0xd
 6051 00d0 00       		.byte	0
 6052 00d1 03       		.uleb128 0x3
 6053 00d2 0E       		.uleb128 0xe
 6054 00d3 3A       		.uleb128 0x3a
 6055 00d4 0B       		.uleb128 0xb
 6056 00d5 3B       		.uleb128 0x3b
 6057 00d6 05       		.uleb128 0x5
 6058 00d7 49       		.uleb128 0x49
 6059 00d8 13       		.uleb128 0x13
 6060 00d9 38       		.uleb128 0x38
 6061 00da 0B       		.uleb128 0xb
 6062 00db 00       		.byte	0
 6063 00dc 00       		.byte	0
ARM GAS  C:\Users\gjl\AppData\Local\Temp\cckcOS93.s 			page 166


 6064 00dd 14       		.uleb128 0x14
 6065 00de 2E       		.uleb128 0x2e
 6066 00df 00       		.byte	0
 6067 00e0 03       		.uleb128 0x3
 6068 00e1 0E       		.uleb128 0xe
 6069 00e2 3A       		.uleb128 0x3a
 6070 00e3 0B       		.uleb128 0xb
 6071 00e4 3B       		.uleb128 0x3b
 6072 00e5 05       		.uleb128 0x5
 6073 00e6 27       		.uleb128 0x27
 6074 00e7 19       		.uleb128 0x19
 6075 00e8 20       		.uleb128 0x20
 6076 00e9 0B       		.uleb128 0xb
 6077 00ea 00       		.byte	0
 6078 00eb 00       		.byte	0
 6079 00ec 15       		.uleb128 0x15
 6080 00ed 2E       		.uleb128 0x2e
 6081 00ee 01       		.byte	0x1
 6082 00ef 03       		.uleb128 0x3
 6083 00f0 0E       		.uleb128 0xe
 6084 00f1 3A       		.uleb128 0x3a
 6085 00f2 0B       		.uleb128 0xb
 6086 00f3 3B       		.uleb128 0x3b
 6087 00f4 05       		.uleb128 0x5
 6088 00f5 27       		.uleb128 0x27
 6089 00f6 19       		.uleb128 0x19
 6090 00f7 20       		.uleb128 0x20
 6091 00f8 0B       		.uleb128 0xb
 6092 00f9 01       		.uleb128 0x1
 6093 00fa 13       		.uleb128 0x13
 6094 00fb 00       		.byte	0
 6095 00fc 00       		.byte	0
 6096 00fd 16       		.uleb128 0x16
 6097 00fe 05       		.uleb128 0x5
 6098 00ff 00       		.byte	0
 6099 0100 03       		.uleb128 0x3
 6100 0101 0E       		.uleb128 0xe
 6101 0102 3A       		.uleb128 0x3a
 6102 0103 0B       		.uleb128 0xb
 6103 0104 3B       		.uleb128 0x3b
 6104 0105 05       		.uleb128 0x5
 6105 0106 49       		.uleb128 0x49
 6106 0107 13       		.uleb128 0x13
 6107 0108 00       		.byte	0
 6108 0109 00       		.byte	0
 6109 010a 17       		.uleb128 0x17
 6110 010b 2E       		.uleb128 0x2e
 6111 010c 00       		.byte	0
 6112 010d 03       		.uleb128 0x3
 6113 010e 0E       		.uleb128 0xe
 6114 010f 3A       		.uleb128 0x3a
 6115 0110 0B       		.uleb128 0xb
 6116 0111 3B       		.uleb128 0x3b
 6117 0112 05       		.uleb128 0x5
 6118 0113 27       		.uleb128 0x27
 6119 0114 19       		.uleb128 0x19
 6120 0115 49       		.uleb128 0x49
ARM GAS  C:\Users\gjl\AppData\Local\Temp\cckcOS93.s 			page 167


 6121 0116 13       		.uleb128 0x13
 6122 0117 20       		.uleb128 0x20
 6123 0118 0B       		.uleb128 0xb
 6124 0119 00       		.byte	0
 6125 011a 00       		.byte	0
 6126 011b 18       		.uleb128 0x18
 6127 011c 2E       		.uleb128 0x2e
 6128 011d 01       		.byte	0x1
 6129 011e 3F       		.uleb128 0x3f
 6130 011f 19       		.uleb128 0x19
 6131 0120 03       		.uleb128 0x3
 6132 0121 0E       		.uleb128 0xe
 6133 0122 3A       		.uleb128 0x3a
 6134 0123 0B       		.uleb128 0xb
 6135 0124 3B       		.uleb128 0x3b
 6136 0125 0B       		.uleb128 0xb
 6137 0126 27       		.uleb128 0x27
 6138 0127 19       		.uleb128 0x19
 6139 0128 49       		.uleb128 0x49
 6140 0129 13       		.uleb128 0x13
 6141 012a 11       		.uleb128 0x11
 6142 012b 01       		.uleb128 0x1
 6143 012c 12       		.uleb128 0x12
 6144 012d 06       		.uleb128 0x6
 6145 012e 40       		.uleb128 0x40
 6146 012f 18       		.uleb128 0x18
 6147 0130 9742     		.uleb128 0x2117
 6148 0132 19       		.uleb128 0x19
 6149 0133 01       		.uleb128 0x1
 6150 0134 13       		.uleb128 0x13
 6151 0135 00       		.byte	0
 6152 0136 00       		.byte	0
 6153 0137 19       		.uleb128 0x19
 6154 0138 05       		.uleb128 0x5
 6155 0139 00       		.byte	0
 6156 013a 03       		.uleb128 0x3
 6157 013b 0E       		.uleb128 0xe
 6158 013c 3A       		.uleb128 0x3a
 6159 013d 0B       		.uleb128 0xb
 6160 013e 3B       		.uleb128 0x3b
 6161 013f 0B       		.uleb128 0xb
 6162 0140 49       		.uleb128 0x49
 6163 0141 13       		.uleb128 0x13
 6164 0142 02       		.uleb128 0x2
 6165 0143 17       		.uleb128 0x17
 6166 0144 00       		.byte	0
 6167 0145 00       		.byte	0
 6168 0146 1A       		.uleb128 0x1a
 6169 0147 34       		.uleb128 0x34
 6170 0148 00       		.byte	0
 6171 0149 03       		.uleb128 0x3
 6172 014a 0E       		.uleb128 0xe
 6173 014b 3A       		.uleb128 0x3a
 6174 014c 0B       		.uleb128 0xb
 6175 014d 3B       		.uleb128 0x3b
 6176 014e 0B       		.uleb128 0xb
 6177 014f 49       		.uleb128 0x49
ARM GAS  C:\Users\gjl\AppData\Local\Temp\cckcOS93.s 			page 168


 6178 0150 13       		.uleb128 0x13
 6179 0151 02       		.uleb128 0x2
 6180 0152 18       		.uleb128 0x18
 6181 0153 00       		.byte	0
 6182 0154 00       		.byte	0
 6183 0155 1B       		.uleb128 0x1b
 6184 0156 898201   		.uleb128 0x4109
 6185 0159 01       		.byte	0x1
 6186 015a 11       		.uleb128 0x11
 6187 015b 01       		.uleb128 0x1
 6188 015c 31       		.uleb128 0x31
 6189 015d 13       		.uleb128 0x13
 6190 015e 01       		.uleb128 0x1
 6191 015f 13       		.uleb128 0x13
 6192 0160 00       		.byte	0
 6193 0161 00       		.byte	0
 6194 0162 1C       		.uleb128 0x1c
 6195 0163 8A8201   		.uleb128 0x410a
 6196 0166 00       		.byte	0
 6197 0167 02       		.uleb128 0x2
 6198 0168 18       		.uleb128 0x18
 6199 0169 9142     		.uleb128 0x2111
 6200 016b 18       		.uleb128 0x18
 6201 016c 00       		.byte	0
 6202 016d 00       		.byte	0
 6203 016e 1D       		.uleb128 0x1d
 6204 016f 898201   		.uleb128 0x4109
 6205 0172 01       		.byte	0x1
 6206 0173 11       		.uleb128 0x11
 6207 0174 01       		.uleb128 0x1
 6208 0175 31       		.uleb128 0x31
 6209 0176 13       		.uleb128 0x13
 6210 0177 00       		.byte	0
 6211 0178 00       		.byte	0
 6212 0179 1E       		.uleb128 0x1e
 6213 017a 0F       		.uleb128 0xf
 6214 017b 00       		.byte	0
 6215 017c 0B       		.uleb128 0xb
 6216 017d 0B       		.uleb128 0xb
 6217 017e 49       		.uleb128 0x49
 6218 017f 13       		.uleb128 0x13
 6219 0180 00       		.byte	0
 6220 0181 00       		.byte	0
 6221 0182 1F       		.uleb128 0x1f
 6222 0183 2E       		.uleb128 0x2e
 6223 0184 01       		.byte	0x1
 6224 0185 3F       		.uleb128 0x3f
 6225 0186 19       		.uleb128 0x19
 6226 0187 03       		.uleb128 0x3
 6227 0188 0E       		.uleb128 0xe
 6228 0189 3A       		.uleb128 0x3a
 6229 018a 0B       		.uleb128 0xb
 6230 018b 3B       		.uleb128 0x3b
 6231 018c 05       		.uleb128 0x5
 6232 018d 27       		.uleb128 0x27
 6233 018e 19       		.uleb128 0x19
 6234 018f 49       		.uleb128 0x49
ARM GAS  C:\Users\gjl\AppData\Local\Temp\cckcOS93.s 			page 169


 6235 0190 13       		.uleb128 0x13
 6236 0191 11       		.uleb128 0x11
 6237 0192 01       		.uleb128 0x1
 6238 0193 12       		.uleb128 0x12
 6239 0194 06       		.uleb128 0x6
 6240 0195 40       		.uleb128 0x40
 6241 0196 18       		.uleb128 0x18
 6242 0197 9742     		.uleb128 0x2117
 6243 0199 19       		.uleb128 0x19
 6244 019a 01       		.uleb128 0x1
 6245 019b 13       		.uleb128 0x13
 6246 019c 00       		.byte	0
 6247 019d 00       		.byte	0
 6248 019e 20       		.uleb128 0x20
 6249 019f 05       		.uleb128 0x5
 6250 01a0 00       		.byte	0
 6251 01a1 03       		.uleb128 0x3
 6252 01a2 0E       		.uleb128 0xe
 6253 01a3 3A       		.uleb128 0x3a
 6254 01a4 0B       		.uleb128 0xb
 6255 01a5 3B       		.uleb128 0x3b
 6256 01a6 05       		.uleb128 0x5
 6257 01a7 49       		.uleb128 0x49
 6258 01a8 13       		.uleb128 0x13
 6259 01a9 02       		.uleb128 0x2
 6260 01aa 17       		.uleb128 0x17
 6261 01ab 00       		.byte	0
 6262 01ac 00       		.byte	0
 6263 01ad 21       		.uleb128 0x21
 6264 01ae 34       		.uleb128 0x34
 6265 01af 00       		.byte	0
 6266 01b0 03       		.uleb128 0x3
 6267 01b1 0E       		.uleb128 0xe
 6268 01b2 3A       		.uleb128 0x3a
 6269 01b3 0B       		.uleb128 0xb
 6270 01b4 3B       		.uleb128 0x3b
 6271 01b5 05       		.uleb128 0x5
 6272 01b6 49       		.uleb128 0x49
 6273 01b7 13       		.uleb128 0x13
 6274 01b8 02       		.uleb128 0x2
 6275 01b9 18       		.uleb128 0x18
 6276 01ba 00       		.byte	0
 6277 01bb 00       		.byte	0
 6278 01bc 22       		.uleb128 0x22
 6279 01bd 34       		.uleb128 0x34
 6280 01be 00       		.byte	0
 6281 01bf 03       		.uleb128 0x3
 6282 01c0 0E       		.uleb128 0xe
 6283 01c1 3A       		.uleb128 0x3a
 6284 01c2 0B       		.uleb128 0xb
 6285 01c3 3B       		.uleb128 0x3b
 6286 01c4 05       		.uleb128 0x5
 6287 01c5 49       		.uleb128 0x49
 6288 01c6 13       		.uleb128 0x13
 6289 01c7 02       		.uleb128 0x2
 6290 01c8 17       		.uleb128 0x17
 6291 01c9 00       		.byte	0
ARM GAS  C:\Users\gjl\AppData\Local\Temp\cckcOS93.s 			page 170


 6292 01ca 00       		.byte	0
 6293 01cb 23       		.uleb128 0x23
 6294 01cc 2E       		.uleb128 0x2e
 6295 01cd 01       		.byte	0x1
 6296 01ce 3F       		.uleb128 0x3f
 6297 01cf 19       		.uleb128 0x19
 6298 01d0 03       		.uleb128 0x3
 6299 01d1 0E       		.uleb128 0xe
 6300 01d2 3A       		.uleb128 0x3a
 6301 01d3 0B       		.uleb128 0xb
 6302 01d4 3B       		.uleb128 0x3b
 6303 01d5 05       		.uleb128 0x5
 6304 01d6 27       		.uleb128 0x27
 6305 01d7 19       		.uleb128 0x19
 6306 01d8 11       		.uleb128 0x11
 6307 01d9 01       		.uleb128 0x1
 6308 01da 12       		.uleb128 0x12
 6309 01db 06       		.uleb128 0x6
 6310 01dc 40       		.uleb128 0x40
 6311 01dd 18       		.uleb128 0x18
 6312 01de 9742     		.uleb128 0x2117
 6313 01e0 19       		.uleb128 0x19
 6314 01e1 01       		.uleb128 0x1
 6315 01e2 13       		.uleb128 0x13
 6316 01e3 00       		.byte	0
 6317 01e4 00       		.byte	0
 6318 01e5 24       		.uleb128 0x24
 6319 01e6 34       		.uleb128 0x34
 6320 01e7 00       		.byte	0
 6321 01e8 03       		.uleb128 0x3
 6322 01e9 0E       		.uleb128 0xe
 6323 01ea 3A       		.uleb128 0x3a
 6324 01eb 0B       		.uleb128 0xb
 6325 01ec 3B       		.uleb128 0x3b
 6326 01ed 05       		.uleb128 0x5
 6327 01ee 49       		.uleb128 0x49
 6328 01ef 13       		.uleb128 0x13
 6329 01f0 00       		.byte	0
 6330 01f1 00       		.byte	0
 6331 01f2 25       		.uleb128 0x25
 6332 01f3 1D       		.uleb128 0x1d
 6333 01f4 01       		.byte	0x1
 6334 01f5 31       		.uleb128 0x31
 6335 01f6 13       		.uleb128 0x13
 6336 01f7 11       		.uleb128 0x11
 6337 01f8 01       		.uleb128 0x1
 6338 01f9 12       		.uleb128 0x12
 6339 01fa 06       		.uleb128 0x6
 6340 01fb 58       		.uleb128 0x58
 6341 01fc 0B       		.uleb128 0xb
 6342 01fd 59       		.uleb128 0x59
 6343 01fe 05       		.uleb128 0x5
 6344 01ff 01       		.uleb128 0x1
 6345 0200 13       		.uleb128 0x13
 6346 0201 00       		.byte	0
 6347 0202 00       		.byte	0
 6348 0203 26       		.uleb128 0x26
ARM GAS  C:\Users\gjl\AppData\Local\Temp\cckcOS93.s 			page 171


 6349 0204 05       		.uleb128 0x5
 6350 0205 00       		.byte	0
 6351 0206 31       		.uleb128 0x31
 6352 0207 13       		.uleb128 0x13
 6353 0208 02       		.uleb128 0x2
 6354 0209 17       		.uleb128 0x17
 6355 020a 00       		.byte	0
 6356 020b 00       		.byte	0
 6357 020c 27       		.uleb128 0x27
 6358 020d 1D       		.uleb128 0x1d
 6359 020e 00       		.byte	0
 6360 020f 31       		.uleb128 0x31
 6361 0210 13       		.uleb128 0x13
 6362 0211 11       		.uleb128 0x11
 6363 0212 01       		.uleb128 0x1
 6364 0213 12       		.uleb128 0x12
 6365 0214 06       		.uleb128 0x6
 6366 0215 58       		.uleb128 0x58
 6367 0216 0B       		.uleb128 0xb
 6368 0217 59       		.uleb128 0x59
 6369 0218 05       		.uleb128 0x5
 6370 0219 00       		.byte	0
 6371 021a 00       		.byte	0
 6372 021b 28       		.uleb128 0x28
 6373 021c 34       		.uleb128 0x34
 6374 021d 00       		.byte	0
 6375 021e 03       		.uleb128 0x3
 6376 021f 0E       		.uleb128 0xe
 6377 0220 3A       		.uleb128 0x3a
 6378 0221 0B       		.uleb128 0xb
 6379 0222 3B       		.uleb128 0x3b
 6380 0223 05       		.uleb128 0x5
 6381 0224 49       		.uleb128 0x49
 6382 0225 13       		.uleb128 0x13
 6383 0226 3F       		.uleb128 0x3f
 6384 0227 19       		.uleb128 0x19
 6385 0228 3C       		.uleb128 0x3c
 6386 0229 19       		.uleb128 0x19
 6387 022a 00       		.byte	0
 6388 022b 00       		.byte	0
 6389 022c 29       		.uleb128 0x29
 6390 022d 34       		.uleb128 0x34
 6391 022e 00       		.byte	0
 6392 022f 03       		.uleb128 0x3
 6393 0230 0E       		.uleb128 0xe
 6394 0231 3A       		.uleb128 0x3a
 6395 0232 0B       		.uleb128 0xb
 6396 0233 3B       		.uleb128 0x3b
 6397 0234 0B       		.uleb128 0xb
 6398 0235 49       		.uleb128 0x49
 6399 0236 13       		.uleb128 0x13
 6400 0237 3F       		.uleb128 0x3f
 6401 0238 19       		.uleb128 0x19
 6402 0239 02       		.uleb128 0x2
 6403 023a 18       		.uleb128 0x18
 6404 023b 00       		.byte	0
 6405 023c 00       		.byte	0
ARM GAS  C:\Users\gjl\AppData\Local\Temp\cckcOS93.s 			page 172


 6406 023d 2A       		.uleb128 0x2a
 6407 023e 2E       		.uleb128 0x2e
 6408 023f 00       		.byte	0
 6409 0240 3F       		.uleb128 0x3f
 6410 0241 19       		.uleb128 0x19
 6411 0242 3C       		.uleb128 0x3c
 6412 0243 19       		.uleb128 0x19
 6413 0244 6E       		.uleb128 0x6e
 6414 0245 0E       		.uleb128 0xe
 6415 0246 03       		.uleb128 0x3
 6416 0247 0E       		.uleb128 0xe
 6417 0248 3A       		.uleb128 0x3a
 6418 0249 0B       		.uleb128 0xb
 6419 024a 3B       		.uleb128 0x3b
 6420 024b 05       		.uleb128 0x5
 6421 024c 00       		.byte	0
 6422 024d 00       		.byte	0
 6423 024e 00       		.byte	0
 6424              		.section	.debug_loc,"",%progbits
 6425              	.Ldebug_loc0:
 6426              	.LLST0:
 6427 0000 00000000 		.4byte	.LVL0
 6428 0004 0C000000 		.4byte	.LVL2
 6429 0008 0100     		.2byte	0x1
 6430 000a 50       		.byte	0x50
 6431 000b 0C000000 		.4byte	.LVL2
 6432 000f 22020000 		.4byte	.LVL27
 6433 0013 0100     		.2byte	0x1
 6434 0015 55       		.byte	0x55
 6435 0016 22020000 		.4byte	.LVL27
 6436 001a 34020000 		.4byte	.LFE182
 6437 001e 0400     		.2byte	0x4
 6438 0020 F3       		.byte	0xf3
 6439 0021 01       		.uleb128 0x1
 6440 0022 50       		.byte	0x50
 6441 0023 9F       		.byte	0x9f
 6442 0024 00000000 		.4byte	0
 6443 0028 00000000 		.4byte	0
 6444              	.LLST1:
 6445 002c 00000000 		.4byte	.LVL0
 6446 0030 0A000000 		.4byte	.LVL1
 6447 0034 0100     		.2byte	0x1
 6448 0036 51       		.byte	0x51
 6449 0037 0A000000 		.4byte	.LVL1
 6450 003b 22020000 		.4byte	.LVL27
 6451 003f 0100     		.2byte	0x1
 6452 0041 54       		.byte	0x54
 6453 0042 22020000 		.4byte	.LVL27
 6454 0046 34020000 		.4byte	.LFE182
 6455 004a 0400     		.2byte	0x4
 6456 004c F3       		.byte	0xf3
 6457 004d 01       		.uleb128 0x1
 6458 004e 51       		.byte	0x51
 6459 004f 9F       		.byte	0x9f
 6460 0050 00000000 		.4byte	0
 6461 0054 00000000 		.4byte	0
 6462              	.LLST2:
ARM GAS  C:\Users\gjl\AppData\Local\Temp\cckcOS93.s 			page 173


 6463 0058 00000000 		.4byte	.LVL28
 6464 005c 10000000 		.4byte	.LVL30
 6465 0060 0100     		.2byte	0x1
 6466 0062 50       		.byte	0x50
 6467 0063 10000000 		.4byte	.LVL30
 6468 0067 70010000 		.4byte	.LVL49
 6469 006b 0100     		.2byte	0x1
 6470 006d 56       		.byte	0x56
 6471 006e 70010000 		.4byte	.LVL49
 6472 0072 78010000 		.4byte	.LFE183
 6473 0076 0400     		.2byte	0x4
 6474 0078 F3       		.byte	0xf3
 6475 0079 01       		.uleb128 0x1
 6476 007a 50       		.byte	0x50
 6477 007b 9F       		.byte	0x9f
 6478 007c 00000000 		.4byte	0
 6479 0080 00000000 		.4byte	0
 6480              	.LLST3:
 6481 0084 00000000 		.4byte	.LVL28
 6482 0088 0E000000 		.4byte	.LVL29
 6483 008c 0100     		.2byte	0x1
 6484 008e 51       		.byte	0x51
 6485 008f 0E000000 		.4byte	.LVL29
 6486 0093 78010000 		.4byte	.LFE183
 6487 0097 0400     		.2byte	0x4
 6488 0099 F3       		.byte	0xf3
 6489 009a 01       		.uleb128 0x1
 6490 009b 51       		.byte	0x51
 6491 009c 9F       		.byte	0x9f
 6492 009d 00000000 		.4byte	0
 6493 00a1 00000000 		.4byte	0
 6494              	.LLST4:
 6495 00a5 00000000 		.4byte	.LVL28
 6496 00a9 13000000 		.4byte	.LVL31-1
 6497 00ad 0100     		.2byte	0x1
 6498 00af 52       		.byte	0x52
 6499 00b0 13000000 		.4byte	.LVL31-1
 6500 00b4 70010000 		.4byte	.LVL49
 6501 00b8 0100     		.2byte	0x1
 6502 00ba 54       		.byte	0x54
 6503 00bb 70010000 		.4byte	.LVL49
 6504 00bf 78010000 		.4byte	.LFE183
 6505 00c3 0400     		.2byte	0x4
 6506 00c5 F3       		.byte	0xf3
 6507 00c6 01       		.uleb128 0x1
 6508 00c7 52       		.byte	0x52
 6509 00c8 9F       		.byte	0x9f
 6510 00c9 00000000 		.4byte	0
 6511 00cd 00000000 		.4byte	0
 6512              	.LLST5:
 6513 00d1 0C010000 		.4byte	.LVL42
 6514 00d5 42010000 		.4byte	.LVL43
 6515 00d9 0100     		.2byte	0x1
 6516 00db 53       		.byte	0x53
 6517 00dc 42010000 		.4byte	.LVL43
 6518 00e0 50010000 		.4byte	.LVL44
 6519 00e4 0200     		.2byte	0x2
ARM GAS  C:\Users\gjl\AppData\Local\Temp\cckcOS93.s 			page 174


 6520 00e6 76       		.byte	0x76
 6521 00e7 08       		.sleb128 8
 6522 00e8 6C010000 		.4byte	.LVL47
 6523 00ec 78010000 		.4byte	.LFE183
 6524 00f0 0100     		.2byte	0x1
 6525 00f2 53       		.byte	0x53
 6526 00f3 00000000 		.4byte	0
 6527 00f7 00000000 		.4byte	0
 6528              	.LLST6:
 6529 00fb 00000000 		.4byte	.LVL50
 6530 00ff 0E000000 		.4byte	.LVL52
 6531 0103 0100     		.2byte	0x1
 6532 0105 50       		.byte	0x50
 6533 0106 0E000000 		.4byte	.LVL52
 6534 010a 40000000 		.4byte	.LVL57
 6535 010e 0100     		.2byte	0x1
 6536 0110 54       		.byte	0x54
 6537 0111 40000000 		.4byte	.LVL57
 6538 0115 50000000 		.4byte	.LFE184
 6539 0119 0400     		.2byte	0x4
 6540 011b F3       		.byte	0xf3
 6541 011c 01       		.uleb128 0x1
 6542 011d 50       		.byte	0x50
 6543 011e 9F       		.byte	0x9f
 6544 011f 00000000 		.4byte	0
 6545 0123 00000000 		.4byte	0
 6546              	.LLST7:
 6547 0127 00000000 		.4byte	.LVL50
 6548 012b 0C000000 		.4byte	.LVL51
 6549 012f 0100     		.2byte	0x1
 6550 0131 51       		.byte	0x51
 6551 0132 0C000000 		.4byte	.LVL51
 6552 0136 50000000 		.4byte	.LFE184
 6553 013a 0400     		.2byte	0x4
 6554 013c F3       		.byte	0xf3
 6555 013d 01       		.uleb128 0x1
 6556 013e 51       		.byte	0x51
 6557 013f 9F       		.byte	0x9f
 6558 0140 00000000 		.4byte	0
 6559 0144 00000000 		.4byte	0
 6560              	.LLST8:
 6561 0148 00000000 		.4byte	.LVL58
 6562 014c 10000000 		.4byte	.LVL60
 6563 0150 0100     		.2byte	0x1
 6564 0152 50       		.byte	0x50
 6565 0153 10000000 		.4byte	.LVL60
 6566 0157 58010000 		.4byte	.LVL77
 6567 015b 0100     		.2byte	0x1
 6568 015d 56       		.byte	0x56
 6569 015e 58010000 		.4byte	.LVL77
 6570 0162 68010000 		.4byte	.LFE185
 6571 0166 0400     		.2byte	0x4
 6572 0168 F3       		.byte	0xf3
 6573 0169 01       		.uleb128 0x1
 6574 016a 50       		.byte	0x50
 6575 016b 9F       		.byte	0x9f
 6576 016c 00000000 		.4byte	0
ARM GAS  C:\Users\gjl\AppData\Local\Temp\cckcOS93.s 			page 175


 6577 0170 00000000 		.4byte	0
 6578              	.LLST9:
 6579 0174 00000000 		.4byte	.LVL58
 6580 0178 0E000000 		.4byte	.LVL59
 6581 017c 0100     		.2byte	0x1
 6582 017e 51       		.byte	0x51
 6583 017f 0E000000 		.4byte	.LVL59
 6584 0183 58010000 		.4byte	.LVL77
 6585 0187 0100     		.2byte	0x1
 6586 0189 54       		.byte	0x54
 6587 018a 58010000 		.4byte	.LVL77
 6588 018e 68010000 		.4byte	.LFE185
 6589 0192 0400     		.2byte	0x4
 6590 0194 F3       		.byte	0xf3
 6591 0195 01       		.uleb128 0x1
 6592 0196 51       		.byte	0x51
 6593 0197 9F       		.byte	0x9f
 6594 0198 00000000 		.4byte	0
 6595 019c 00000000 		.4byte	0
 6596              	.LLST10:
 6597 01a0 00000000 		.4byte	.LVL58
 6598 01a4 13000000 		.4byte	.LVL61-1
 6599 01a8 0100     		.2byte	0x1
 6600 01aa 52       		.byte	0x52
 6601 01ab 13000000 		.4byte	.LVL61-1
 6602 01af 58010000 		.4byte	.LVL77
 6603 01b3 0100     		.2byte	0x1
 6604 01b5 55       		.byte	0x55
 6605 01b6 58010000 		.4byte	.LVL77
 6606 01ba 68010000 		.4byte	.LFE185
 6607 01be 0400     		.2byte	0x4
 6608 01c0 F3       		.byte	0xf3
 6609 01c1 01       		.uleb128 0x1
 6610 01c2 52       		.byte	0x52
 6611 01c3 9F       		.byte	0x9f
 6612 01c4 00000000 		.4byte	0
 6613 01c8 00000000 		.4byte	0
 6614              	.LLST11:
 6615 01cc 48010000 		.4byte	.LVL72
 6616 01d0 4C010000 		.4byte	.LVL73
 6617 01d4 0200     		.2byte	0x2
 6618 01d6 30       		.byte	0x30
 6619 01d7 9F       		.byte	0x9f
 6620 01d8 56010000 		.4byte	.LVL76
 6621 01dc 68010000 		.4byte	.LFE185
 6622 01e0 0100     		.2byte	0x1
 6623 01e2 50       		.byte	0x50
 6624 01e3 00000000 		.4byte	0
 6625 01e7 00000000 		.4byte	0
 6626              	.LLST12:
 6627 01eb 00000000 		.4byte	.LVL78
 6628 01ef 14000000 		.4byte	.LVL80
 6629 01f3 0100     		.2byte	0x1
 6630 01f5 50       		.byte	0x50
 6631 01f6 14000000 		.4byte	.LVL80
 6632 01fa 24000000 		.4byte	.LVL84
 6633 01fe 0100     		.2byte	0x1
ARM GAS  C:\Users\gjl\AppData\Local\Temp\cckcOS93.s 			page 176


 6634 0200 54       		.byte	0x54
 6635 0201 24000000 		.4byte	.LVL84
 6636 0205 28000000 		.4byte	.LFE187
 6637 0209 0400     		.2byte	0x4
 6638 020b F3       		.byte	0xf3
 6639 020c 01       		.uleb128 0x1
 6640 020d 50       		.byte	0x50
 6641 020e 9F       		.byte	0x9f
 6642 020f 00000000 		.4byte	0
 6643 0213 00000000 		.4byte	0
 6644              	.LLST13:
 6645 0217 00000000 		.4byte	.LVL78
 6646 021b 12000000 		.4byte	.LVL79
 6647 021f 0100     		.2byte	0x1
 6648 0221 51       		.byte	0x51
 6649 0222 12000000 		.4byte	.LVL79
 6650 0226 24000000 		.4byte	.LVL84
 6651 022a 0100     		.2byte	0x1
 6652 022c 55       		.byte	0x55
 6653 022d 24000000 		.4byte	.LVL84
 6654 0231 28000000 		.4byte	.LFE187
 6655 0235 0400     		.2byte	0x4
 6656 0237 F3       		.byte	0xf3
 6657 0238 01       		.uleb128 0x1
 6658 0239 51       		.byte	0x51
 6659 023a 9F       		.byte	0x9f
 6660 023b 00000000 		.4byte	0
 6661 023f 00000000 		.4byte	0
 6662              	.LLST14:
 6663 0243 1E000000 		.4byte	.LVL82
 6664 0247 20000000 		.4byte	.LVL83
 6665 024b 0100     		.2byte	0x1
 6666 024d 51       		.byte	0x51
 6667 024e 00000000 		.4byte	0
 6668 0252 00000000 		.4byte	0
 6669              	.LLST15:
 6670 0256 00000000 		.4byte	.LVL85
 6671 025a 10000000 		.4byte	.LVL87
 6672 025e 0100     		.2byte	0x1
 6673 0260 50       		.byte	0x50
 6674 0261 10000000 		.4byte	.LVL87
 6675 0265 CA000000 		.4byte	.LVL101
 6676 0269 0100     		.2byte	0x1
 6677 026b 54       		.byte	0x54
 6678 026c CA000000 		.4byte	.LVL101
 6679 0270 D4000000 		.4byte	.LFE186
 6680 0274 0400     		.2byte	0x4
 6681 0276 F3       		.byte	0xf3
 6682 0277 01       		.uleb128 0x1
 6683 0278 50       		.byte	0x50
 6684 0279 9F       		.byte	0x9f
 6685 027a 00000000 		.4byte	0
 6686 027e 00000000 		.4byte	0
 6687              	.LLST16:
 6688 0282 00000000 		.4byte	.LVL85
 6689 0286 0E000000 		.4byte	.LVL86
 6690 028a 0100     		.2byte	0x1
ARM GAS  C:\Users\gjl\AppData\Local\Temp\cckcOS93.s 			page 177


 6691 028c 51       		.byte	0x51
 6692 028d 0E000000 		.4byte	.LVL86
 6693 0291 D4000000 		.4byte	.LFE186
 6694 0295 0400     		.2byte	0x4
 6695 0297 F3       		.byte	0xf3
 6696 0298 01       		.uleb128 0x1
 6697 0299 51       		.byte	0x51
 6698 029a 9F       		.byte	0x9f
 6699 029b 00000000 		.4byte	0
 6700 029f 00000000 		.4byte	0
 6701              	.LLST17:
 6702 02a3 1C000000 		.4byte	.LVL89
 6703 02a7 26000000 		.4byte	.LVL90
 6704 02ab 0200     		.2byte	0x2
 6705 02ad 30       		.byte	0x30
 6706 02ae 9F       		.byte	0x9f
 6707 02af 00000000 		.4byte	0
 6708 02b3 00000000 		.4byte	0
 6709              	.LLST18:
 6710 02b7 48000000 		.4byte	.LVL92
 6711 02bb 52000000 		.4byte	.LVL93
 6712 02bf 0400     		.2byte	0x4
 6713 02c1 4C       		.byte	0x4c
 6714 02c2 4A       		.byte	0x4a
 6715 02c3 24       		.byte	0x24
 6716 02c4 9F       		.byte	0x9f
 6717 02c5 00000000 		.4byte	0
 6718 02c9 00000000 		.4byte	0
 6719              	.LLST19:
 6720 02cd 52000000 		.4byte	.LVL93
 6721 02d1 5A000000 		.4byte	.LVL94
 6722 02d5 0200     		.2byte	0x2
 6723 02d7 30       		.byte	0x30
 6724 02d8 9F       		.byte	0x9f
 6725 02d9 00000000 		.4byte	0
 6726 02dd 00000000 		.4byte	0
 6727              	.LLST20:
 6728 02e1 8E000000 		.4byte	.LVL97
 6729 02e5 9C000000 		.4byte	.LVL98
 6730 02e9 0400     		.2byte	0x4
 6731 02eb 48       		.byte	0x48
 6732 02ec 4A       		.byte	0x4a
 6733 02ed 24       		.byte	0x24
 6734 02ee 9F       		.byte	0x9f
 6735 02ef 00000000 		.4byte	0
 6736 02f3 00000000 		.4byte	0
 6737              	.LLST21:
 6738 02f7 9C000000 		.4byte	.LVL98
 6739 02fb A6000000 		.4byte	.LVL99
 6740 02ff 0300     		.2byte	0x3
 6741 0301 09       		.byte	0x9
 6742 0302 80       		.byte	0x80
 6743 0303 9F       		.byte	0x9f
 6744 0304 00000000 		.4byte	0
 6745 0308 00000000 		.4byte	0
 6746              	.LLST22:
 6747 030c 00000000 		.4byte	.LVL102
ARM GAS  C:\Users\gjl\AppData\Local\Temp\cckcOS93.s 			page 178


 6748 0310 16000000 		.4byte	.LVL104
 6749 0314 0100     		.2byte	0x1
 6750 0316 50       		.byte	0x50
 6751 0317 16000000 		.4byte	.LVL104
 6752 031b 94000000 		.4byte	.LVL111
 6753 031f 0100     		.2byte	0x1
 6754 0321 56       		.byte	0x56
 6755 0322 94000000 		.4byte	.LVL111
 6756 0326 98000000 		.4byte	.LFE188
 6757 032a 0400     		.2byte	0x4
 6758 032c F3       		.byte	0xf3
 6759 032d 01       		.uleb128 0x1
 6760 032e 50       		.byte	0x50
 6761 032f 9F       		.byte	0x9f
 6762 0330 00000000 		.4byte	0
 6763 0334 00000000 		.4byte	0
 6764              	.LLST23:
 6765 0338 00000000 		.4byte	.LVL102
 6766 033c 14000000 		.4byte	.LVL103
 6767 0340 0100     		.2byte	0x1
 6768 0342 51       		.byte	0x51
 6769 0343 14000000 		.4byte	.LVL103
 6770 0347 98000000 		.4byte	.LFE188
 6771 034b 0400     		.2byte	0x4
 6772 034d F3       		.byte	0xf3
 6773 034e 01       		.uleb128 0x1
 6774 034f 51       		.byte	0x51
 6775 0350 9F       		.byte	0x9f
 6776 0351 00000000 		.4byte	0
 6777 0355 00000000 		.4byte	0
 6778              	.LLST24:
 6779 0359 00000000 		.4byte	.LVL102
 6780 035d 19000000 		.4byte	.LVL105-1
 6781 0361 0100     		.2byte	0x1
 6782 0363 52       		.byte	0x52
 6783 0364 19000000 		.4byte	.LVL105-1
 6784 0368 98000000 		.4byte	.LFE188
 6785 036c 0400     		.2byte	0x4
 6786 036e F3       		.byte	0xf3
 6787 036f 01       		.uleb128 0x1
 6788 0370 52       		.byte	0x52
 6789 0371 9F       		.byte	0x9f
 6790 0372 00000000 		.4byte	0
 6791 0376 00000000 		.4byte	0
 6792              	.LLST25:
 6793 037a 40000000 		.4byte	.LVL107
 6794 037e 42000000 		.4byte	.LVL108
 6795 0382 0100     		.2byte	0x1
 6796 0384 53       		.byte	0x53
 6797 0385 72000000 		.4byte	.LVL109
 6798 0389 74000000 		.4byte	.LVL110
 6799 038d 0100     		.2byte	0x1
 6800 038f 53       		.byte	0x53
 6801 0390 00000000 		.4byte	0
 6802 0394 00000000 		.4byte	0
 6803              	.LLST26:
 6804 0398 00000000 		.4byte	.LVL112
ARM GAS  C:\Users\gjl\AppData\Local\Temp\cckcOS93.s 			page 179


 6805 039c 18000000 		.4byte	.LVL115
 6806 03a0 0100     		.2byte	0x1
 6807 03a2 50       		.byte	0x50
 6808 03a3 18000000 		.4byte	.LVL115
 6809 03a7 6E000000 		.4byte	.LVL123
 6810 03ab 0100     		.2byte	0x1
 6811 03ad 57       		.byte	0x57
 6812 03ae 6E000000 		.4byte	.LVL123
 6813 03b2 74000000 		.4byte	.LFE189
 6814 03b6 0400     		.2byte	0x4
 6815 03b8 F3       		.byte	0xf3
 6816 03b9 01       		.uleb128 0x1
 6817 03ba 50       		.byte	0x50
 6818 03bb 9F       		.byte	0x9f
 6819 03bc 00000000 		.4byte	0
 6820 03c0 00000000 		.4byte	0
 6821              	.LLST27:
 6822 03c4 00000000 		.4byte	.LVL112
 6823 03c8 16000000 		.4byte	.LVL114
 6824 03cc 0100     		.2byte	0x1
 6825 03ce 51       		.byte	0x51
 6826 03cf 16000000 		.4byte	.LVL114
 6827 03d3 74000000 		.4byte	.LFE189
 6828 03d7 0400     		.2byte	0x4
 6829 03d9 F3       		.byte	0xf3
 6830 03da 01       		.uleb128 0x1
 6831 03db 51       		.byte	0x51
 6832 03dc 9F       		.byte	0x9f
 6833 03dd 00000000 		.4byte	0
 6834 03e1 00000000 		.4byte	0
 6835              	.LLST28:
 6836 03e5 00000000 		.4byte	.LVL112
 6837 03e9 1B000000 		.4byte	.LVL116-1
 6838 03ed 0100     		.2byte	0x1
 6839 03ef 52       		.byte	0x52
 6840 03f0 1B000000 		.4byte	.LVL116-1
 6841 03f4 74000000 		.4byte	.LFE189
 6842 03f8 0400     		.2byte	0x4
 6843 03fa F3       		.byte	0xf3
 6844 03fb 01       		.uleb128 0x1
 6845 03fc 52       		.byte	0x52
 6846 03fd 9F       		.byte	0x9f
 6847 03fe 00000000 		.4byte	0
 6848 0402 00000000 		.4byte	0
 6849              	.LLST29:
 6850 0406 00000000 		.4byte	.LVL112
 6851 040a 0C000000 		.4byte	.LVL113
 6852 040e 0100     		.2byte	0x1
 6853 0410 53       		.byte	0x53
 6854 0411 0C000000 		.4byte	.LVL113
 6855 0415 74000000 		.4byte	.LFE189
 6856 0419 0400     		.2byte	0x4
 6857 041b F3       		.byte	0xf3
 6858 041c 01       		.uleb128 0x1
 6859 041d 53       		.byte	0x53
 6860 041e 9F       		.byte	0x9f
 6861 041f 00000000 		.4byte	0
ARM GAS  C:\Users\gjl\AppData\Local\Temp\cckcOS93.s 			page 180


 6862 0423 00000000 		.4byte	0
 6863              	.LLST30:
 6864 0427 4E000000 		.4byte	.LVL119
 6865 042b 50000000 		.4byte	.LVL120
 6866 042f 0100     		.2byte	0x1
 6867 0431 53       		.byte	0x53
 6868 0432 66000000 		.4byte	.LVL121
 6869 0436 6C000000 		.4byte	.LVL122
 6870 043a 0100     		.2byte	0x1
 6871 043c 53       		.byte	0x53
 6872 043d 00000000 		.4byte	0
 6873 0441 00000000 		.4byte	0
 6874              	.LLST31:
 6875 0445 00000000 		.4byte	.LVL124
 6876 0449 10000000 		.4byte	.LVL126
 6877 044d 0100     		.2byte	0x1
 6878 044f 50       		.byte	0x50
 6879 0450 10000000 		.4byte	.LVL126
 6880 0454 62000000 		.4byte	.LVL132
 6881 0458 0100     		.2byte	0x1
 6882 045a 55       		.byte	0x55
 6883 045b 62000000 		.4byte	.LVL132
 6884 045f 68000000 		.4byte	.LFE190
 6885 0463 0400     		.2byte	0x4
 6886 0465 F3       		.byte	0xf3
 6887 0466 01       		.uleb128 0x1
 6888 0467 50       		.byte	0x50
 6889 0468 9F       		.byte	0x9f
 6890 0469 00000000 		.4byte	0
 6891 046d 00000000 		.4byte	0
 6892              	.LLST32:
 6893 0471 00000000 		.4byte	.LVL124
 6894 0475 0E000000 		.4byte	.LVL125
 6895 0479 0100     		.2byte	0x1
 6896 047b 51       		.byte	0x51
 6897 047c 0E000000 		.4byte	.LVL125
 6898 0480 68000000 		.4byte	.LFE190
 6899 0484 0400     		.2byte	0x4
 6900 0486 F3       		.byte	0xf3
 6901 0487 01       		.uleb128 0x1
 6902 0488 51       		.byte	0x51
 6903 0489 9F       		.byte	0x9f
 6904 048a 00000000 		.4byte	0
 6905 048e 00000000 		.4byte	0
 6906              	.LLST33:
 6907 0492 00000000 		.4byte	.LVL133
 6908 0496 16000000 		.4byte	.LVL135
 6909 049a 0100     		.2byte	0x1
 6910 049c 50       		.byte	0x50
 6911 049d 16000000 		.4byte	.LVL135
 6912 04a1 4A000000 		.4byte	.LVL139
 6913 04a5 0100     		.2byte	0x1
 6914 04a7 56       		.byte	0x56
 6915 04a8 4A000000 		.4byte	.LVL139
 6916 04ac 50000000 		.4byte	.LFE191
 6917 04b0 0400     		.2byte	0x4
 6918 04b2 F3       		.byte	0xf3
ARM GAS  C:\Users\gjl\AppData\Local\Temp\cckcOS93.s 			page 181


 6919 04b3 01       		.uleb128 0x1
 6920 04b4 50       		.byte	0x50
 6921 04b5 9F       		.byte	0x9f
 6922 04b6 00000000 		.4byte	0
 6923 04ba 00000000 		.4byte	0
 6924              	.LLST34:
 6925 04be 00000000 		.4byte	.LVL133
 6926 04c2 14000000 		.4byte	.LVL134
 6927 04c6 0100     		.2byte	0x1
 6928 04c8 51       		.byte	0x51
 6929 04c9 14000000 		.4byte	.LVL134
 6930 04cd 50000000 		.4byte	.LFE191
 6931 04d1 0400     		.2byte	0x4
 6932 04d3 F3       		.byte	0xf3
 6933 04d4 01       		.uleb128 0x1
 6934 04d5 51       		.byte	0x51
 6935 04d6 9F       		.byte	0x9f
 6936 04d7 00000000 		.4byte	0
 6937 04db 00000000 		.4byte	0
 6938              	.LLST35:
 6939 04df 00000000 		.4byte	.LVL133
 6940 04e3 19000000 		.4byte	.LVL136-1
 6941 04e7 0100     		.2byte	0x1
 6942 04e9 52       		.byte	0x52
 6943 04ea 19000000 		.4byte	.LVL136-1
 6944 04ee 44000000 		.4byte	.LVL138
 6945 04f2 0100     		.2byte	0x1
 6946 04f4 55       		.byte	0x55
 6947 04f5 44000000 		.4byte	.LVL138
 6948 04f9 50000000 		.4byte	.LFE191
 6949 04fd 0400     		.2byte	0x4
 6950 04ff F3       		.byte	0xf3
 6951 0500 01       		.uleb128 0x1
 6952 0501 52       		.byte	0x52
 6953 0502 9F       		.byte	0x9f
 6954 0503 00000000 		.4byte	0
 6955 0507 00000000 		.4byte	0
 6956              	.LLST36:
 6957 050b 00000000 		.4byte	.LVL140
 6958 050f 14000000 		.4byte	.LVL142
 6959 0513 0100     		.2byte	0x1
 6960 0515 50       		.byte	0x50
 6961 0516 14000000 		.4byte	.LVL142
 6962 051a 28000000 		.4byte	.LVL147
 6963 051e 0100     		.2byte	0x1
 6964 0520 55       		.byte	0x55
 6965 0521 28000000 		.4byte	.LVL147
 6966 0525 2C000000 		.4byte	.LFE192
 6967 0529 0400     		.2byte	0x4
 6968 052b F3       		.byte	0xf3
 6969 052c 01       		.uleb128 0x1
 6970 052d 50       		.byte	0x50
 6971 052e 9F       		.byte	0x9f
 6972 052f 00000000 		.4byte	0
 6973 0533 00000000 		.4byte	0
 6974              	.LLST37:
 6975 0537 00000000 		.4byte	.LVL140
ARM GAS  C:\Users\gjl\AppData\Local\Temp\cckcOS93.s 			page 182


 6976 053b 12000000 		.4byte	.LVL141
 6977 053f 0100     		.2byte	0x1
 6978 0541 51       		.byte	0x51
 6979 0542 12000000 		.4byte	.LVL141
 6980 0546 2C000000 		.4byte	.LFE192
 6981 054a 0400     		.2byte	0x4
 6982 054c F3       		.byte	0xf3
 6983 054d 01       		.uleb128 0x1
 6984 054e 51       		.byte	0x51
 6985 054f 9F       		.byte	0x9f
 6986 0550 00000000 		.4byte	0
 6987 0554 00000000 		.4byte	0
 6988              	.LLST38:
 6989 0558 20000000 		.4byte	.LVL144
 6990 055c 22000000 		.4byte	.LVL145
 6991 0560 0100     		.2byte	0x1
 6992 0562 50       		.byte	0x50
 6993 0563 26000000 		.4byte	.LVL146
 6994 0567 2C000000 		.4byte	.LFE192
 6995 056b 0100     		.2byte	0x1
 6996 056d 50       		.byte	0x50
 6997 056e 00000000 		.4byte	0
 6998 0572 00000000 		.4byte	0
 6999              	.LLST39:
 7000 0576 00000000 		.4byte	.LVL148
 7001 057a 16000000 		.4byte	.LVL150
 7002 057e 0100     		.2byte	0x1
 7003 0580 50       		.byte	0x50
 7004 0581 16000000 		.4byte	.LVL150
 7005 0585 4A000000 		.4byte	.LVL154
 7006 0589 0100     		.2byte	0x1
 7007 058b 56       		.byte	0x56
 7008 058c 4A000000 		.4byte	.LVL154
 7009 0590 50000000 		.4byte	.LFE193
 7010 0594 0400     		.2byte	0x4
 7011 0596 F3       		.byte	0xf3
 7012 0597 01       		.uleb128 0x1
 7013 0598 50       		.byte	0x50
 7014 0599 9F       		.byte	0x9f
 7015 059a 00000000 		.4byte	0
 7016 059e 00000000 		.4byte	0
 7017              	.LLST40:
 7018 05a2 00000000 		.4byte	.LVL148
 7019 05a6 14000000 		.4byte	.LVL149
 7020 05aa 0100     		.2byte	0x1
 7021 05ac 51       		.byte	0x51
 7022 05ad 14000000 		.4byte	.LVL149
 7023 05b1 50000000 		.4byte	.LFE193
 7024 05b5 0400     		.2byte	0x4
 7025 05b7 F3       		.byte	0xf3
 7026 05b8 01       		.uleb128 0x1
 7027 05b9 51       		.byte	0x51
 7028 05ba 9F       		.byte	0x9f
 7029 05bb 00000000 		.4byte	0
 7030 05bf 00000000 		.4byte	0
 7031              	.LLST41:
 7032 05c3 00000000 		.4byte	.LVL148
ARM GAS  C:\Users\gjl\AppData\Local\Temp\cckcOS93.s 			page 183


 7033 05c7 19000000 		.4byte	.LVL151-1
 7034 05cb 0100     		.2byte	0x1
 7035 05cd 52       		.byte	0x52
 7036 05ce 19000000 		.4byte	.LVL151-1
 7037 05d2 44000000 		.4byte	.LVL153
 7038 05d6 0100     		.2byte	0x1
 7039 05d8 55       		.byte	0x55
 7040 05d9 44000000 		.4byte	.LVL153
 7041 05dd 50000000 		.4byte	.LFE193
 7042 05e1 0400     		.2byte	0x4
 7043 05e3 F3       		.byte	0xf3
 7044 05e4 01       		.uleb128 0x1
 7045 05e5 52       		.byte	0x52
 7046 05e6 9F       		.byte	0x9f
 7047 05e7 00000000 		.4byte	0
 7048 05eb 00000000 		.4byte	0
 7049              	.LLST42:
 7050 05ef 00000000 		.4byte	.LVL155
 7051 05f3 14000000 		.4byte	.LVL157
 7052 05f7 0100     		.2byte	0x1
 7053 05f9 50       		.byte	0x50
 7054 05fa 14000000 		.4byte	.LVL157
 7055 05fe 28000000 		.4byte	.LVL162
 7056 0602 0100     		.2byte	0x1
 7057 0604 55       		.byte	0x55
 7058 0605 28000000 		.4byte	.LVL162
 7059 0609 2C000000 		.4byte	.LFE194
 7060 060d 0400     		.2byte	0x4
 7061 060f F3       		.byte	0xf3
 7062 0610 01       		.uleb128 0x1
 7063 0611 50       		.byte	0x50
 7064 0612 9F       		.byte	0x9f
 7065 0613 00000000 		.4byte	0
 7066 0617 00000000 		.4byte	0
 7067              	.LLST43:
 7068 061b 00000000 		.4byte	.LVL155
 7069 061f 12000000 		.4byte	.LVL156
 7070 0623 0100     		.2byte	0x1
 7071 0625 51       		.byte	0x51
 7072 0626 12000000 		.4byte	.LVL156
 7073 062a 2C000000 		.4byte	.LFE194
 7074 062e 0400     		.2byte	0x4
 7075 0630 F3       		.byte	0xf3
 7076 0631 01       		.uleb128 0x1
 7077 0632 51       		.byte	0x51
 7078 0633 9F       		.byte	0x9f
 7079 0634 00000000 		.4byte	0
 7080 0638 00000000 		.4byte	0
 7081              	.LLST44:
 7082 063c 20000000 		.4byte	.LVL159
 7083 0640 22000000 		.4byte	.LVL160
 7084 0644 0100     		.2byte	0x1
 7085 0646 50       		.byte	0x50
 7086 0647 26000000 		.4byte	.LVL161
 7087 064b 2C000000 		.4byte	.LFE194
 7088 064f 0100     		.2byte	0x1
 7089 0651 50       		.byte	0x50
ARM GAS  C:\Users\gjl\AppData\Local\Temp\cckcOS93.s 			page 184


 7090 0652 00000000 		.4byte	0
 7091 0656 00000000 		.4byte	0
 7092              	.LLST45:
 7093 065a 00000000 		.4byte	.LVL163
 7094 065e 14000000 		.4byte	.LVL165
 7095 0662 0100     		.2byte	0x1
 7096 0664 50       		.byte	0x50
 7097 0665 14000000 		.4byte	.LVL165
 7098 0669 6C000000 		.4byte	.LVL170
 7099 066d 0100     		.2byte	0x1
 7100 066f 55       		.byte	0x55
 7101 0670 6C000000 		.4byte	.LVL170
 7102 0674 6E000000 		.4byte	.LVL171
 7103 0678 0400     		.2byte	0x4
 7104 067a 75       		.byte	0x75
 7105 067b FC7E     		.sleb128 -132
 7106 067d 9F       		.byte	0x9f
 7107 067e 6E000000 		.4byte	.LVL171
 7108 0682 74000000 		.4byte	.LVL173
 7109 0686 0100     		.2byte	0x1
 7110 0688 55       		.byte	0x55
 7111 0689 74000000 		.4byte	.LVL173
 7112 068d 76000000 		.4byte	.LVL174
 7113 0691 0400     		.2byte	0x4
 7114 0693 75       		.byte	0x75
 7115 0694 F47E     		.sleb128 -140
 7116 0696 9F       		.byte	0x9f
 7117 0697 76000000 		.4byte	.LVL174
 7118 069b 7C000000 		.4byte	.LVL176
 7119 069f 0100     		.2byte	0x1
 7120 06a1 55       		.byte	0x55
 7121 06a2 7C000000 		.4byte	.LVL176
 7122 06a6 94000000 		.4byte	.LFE195
 7123 06aa 0400     		.2byte	0x4
 7124 06ac F3       		.byte	0xf3
 7125 06ad 01       		.uleb128 0x1
 7126 06ae 50       		.byte	0x50
 7127 06af 9F       		.byte	0x9f
 7128 06b0 00000000 		.4byte	0
 7129 06b4 00000000 		.4byte	0
 7130              	.LLST46:
 7131 06b8 00000000 		.4byte	.LVL163
 7132 06bc 12000000 		.4byte	.LVL164
 7133 06c0 0100     		.2byte	0x1
 7134 06c2 51       		.byte	0x51
 7135 06c3 12000000 		.4byte	.LVL164
 7136 06c7 94000000 		.4byte	.LFE195
 7137 06cb 0400     		.2byte	0x4
 7138 06cd F3       		.byte	0xf3
 7139 06ce 01       		.uleb128 0x1
 7140 06cf 51       		.byte	0x51
 7141 06d0 9F       		.byte	0x9f
 7142 06d1 00000000 		.4byte	0
 7143 06d5 00000000 		.4byte	0
 7144              	.LLST47:
 7145 06d9 00000000 		.4byte	.LVL163
 7146 06dd 17000000 		.4byte	.LVL166-1
ARM GAS  C:\Users\gjl\AppData\Local\Temp\cckcOS93.s 			page 185


 7147 06e1 0100     		.2byte	0x1
 7148 06e3 52       		.byte	0x52
 7149 06e4 17000000 		.4byte	.LVL166-1
 7150 06e8 88000000 		.4byte	.LVL178
 7151 06ec 0100     		.2byte	0x1
 7152 06ee 56       		.byte	0x56
 7153 06ef 88000000 		.4byte	.LVL178
 7154 06f3 94000000 		.4byte	.LFE195
 7155 06f7 0400     		.2byte	0x4
 7156 06f9 F3       		.byte	0xf3
 7157 06fa 01       		.uleb128 0x1
 7158 06fb 52       		.byte	0x52
 7159 06fc 9F       		.byte	0x9f
 7160 06fd 00000000 		.4byte	0
 7161 0701 00000000 		.4byte	0
 7162              	.LLST48:
 7163 0705 00000000 		.4byte	.LVL163
 7164 0709 17000000 		.4byte	.LVL166-1
 7165 070d 0100     		.2byte	0x1
 7166 070f 53       		.byte	0x53
 7167 0710 17000000 		.4byte	.LVL166-1
 7168 0714 94000000 		.4byte	.LFE195
 7169 0718 0400     		.2byte	0x4
 7170 071a F3       		.byte	0xf3
 7171 071b 01       		.uleb128 0x1
 7172 071c 53       		.byte	0x53
 7173 071d 9F       		.byte	0x9f
 7174 071e 00000000 		.4byte	0
 7175 0722 00000000 		.4byte	0
 7176              	.LLST49:
 7177 0726 6A000000 		.4byte	.LVL169
 7178 072a 6E000000 		.4byte	.LVL171
 7179 072e 0100     		.2byte	0x1
 7180 0730 53       		.byte	0x53
 7181 0731 72000000 		.4byte	.LVL172
 7182 0735 76000000 		.4byte	.LVL174
 7183 0739 0100     		.2byte	0x1
 7184 073b 53       		.byte	0x53
 7185 073c 7A000000 		.4byte	.LVL175
 7186 0740 88000000 		.4byte	.LVL178
 7187 0744 0100     		.2byte	0x1
 7188 0746 53       		.byte	0x53
 7189 0747 00000000 		.4byte	0
 7190 074b 00000000 		.4byte	0
 7191              	.LLST50:
 7192 074f 6C000000 		.4byte	.LVL170
 7193 0753 6E000000 		.4byte	.LVL171
 7194 0757 0100     		.2byte	0x1
 7195 0759 55       		.byte	0x55
 7196 075a 74000000 		.4byte	.LVL173
 7197 075e 76000000 		.4byte	.LVL174
 7198 0762 0100     		.2byte	0x1
 7199 0764 55       		.byte	0x55
 7200 0765 7C000000 		.4byte	.LVL176
 7201 0769 88000000 		.4byte	.LVL178
 7202 076d 0100     		.2byte	0x1
 7203 076f 55       		.byte	0x55
ARM GAS  C:\Users\gjl\AppData\Local\Temp\cckcOS93.s 			page 186


 7204 0770 00000000 		.4byte	0
 7205 0774 00000000 		.4byte	0
 7206              	.LLST51:
 7207 0778 00000000 		.4byte	.LVL179
 7208 077c 10000000 		.4byte	.LVL181
 7209 0780 0100     		.2byte	0x1
 7210 0782 50       		.byte	0x50
 7211 0783 10000000 		.4byte	.LVL181
 7212 0787 2E000000 		.4byte	.LVL188
 7213 078b 0100     		.2byte	0x1
 7214 078d 55       		.byte	0x55
 7215 078e 2E000000 		.4byte	.LVL188
 7216 0792 34000000 		.4byte	.LFE196
 7217 0796 0400     		.2byte	0x4
 7218 0798 F3       		.byte	0xf3
 7219 0799 01       		.uleb128 0x1
 7220 079a 50       		.byte	0x50
 7221 079b 9F       		.byte	0x9f
 7222 079c 00000000 		.4byte	0
 7223 07a0 00000000 		.4byte	0
 7224              	.LLST52:
 7225 07a4 00000000 		.4byte	.LVL179
 7226 07a8 0E000000 		.4byte	.LVL180
 7227 07ac 0100     		.2byte	0x1
 7228 07ae 51       		.byte	0x51
 7229 07af 0E000000 		.4byte	.LVL180
 7230 07b3 34000000 		.4byte	.LFE196
 7231 07b7 0400     		.2byte	0x4
 7232 07b9 F3       		.byte	0xf3
 7233 07ba 01       		.uleb128 0x1
 7234 07bb 51       		.byte	0x51
 7235 07bc 9F       		.byte	0x9f
 7236 07bd 00000000 		.4byte	0
 7237 07c1 00000000 		.4byte	0
 7238              	.LLST53:
 7239 07c5 20000000 		.4byte	.LVL183
 7240 07c9 22000000 		.4byte	.LVL184
 7241 07cd 0100     		.2byte	0x1
 7242 07cf 50       		.byte	0x50
 7243 07d0 26000000 		.4byte	.LVL185
 7244 07d4 28000000 		.4byte	.LVL186
 7245 07d8 0100     		.2byte	0x1
 7246 07da 50       		.byte	0x50
 7247 07db 2C000000 		.4byte	.LVL187
 7248 07df 34000000 		.4byte	.LFE196
 7249 07e3 0100     		.2byte	0x1
 7250 07e5 50       		.byte	0x50
 7251 07e6 00000000 		.4byte	0
 7252 07ea 00000000 		.4byte	0
 7253              	.LLST54:
 7254 07ee 00000000 		.4byte	.LVL189
 7255 07f2 1E000000 		.4byte	.LVL192
 7256 07f6 0100     		.2byte	0x1
 7257 07f8 50       		.byte	0x50
 7258 07f9 1E000000 		.4byte	.LVL192
 7259 07fd 8A000000 		.4byte	.LVL201
 7260 0801 0100     		.2byte	0x1
ARM GAS  C:\Users\gjl\AppData\Local\Temp\cckcOS93.s 			page 187


 7261 0803 58       		.byte	0x58
 7262 0804 8A000000 		.4byte	.LVL201
 7263 0808 90000000 		.4byte	.LFE197
 7264 080c 0400     		.2byte	0x4
 7265 080e F3       		.byte	0xf3
 7266 080f 01       		.uleb128 0x1
 7267 0810 50       		.byte	0x50
 7268 0811 9F       		.byte	0x9f
 7269 0812 00000000 		.4byte	0
 7270 0816 00000000 		.4byte	0
 7271              	.LLST55:
 7272 081a 00000000 		.4byte	.LVL189
 7273 081e 1C000000 		.4byte	.LVL191
 7274 0822 0100     		.2byte	0x1
 7275 0824 51       		.byte	0x51
 7276 0825 1C000000 		.4byte	.LVL191
 7277 0829 90000000 		.4byte	.LFE197
 7278 082d 0400     		.2byte	0x4
 7279 082f F3       		.byte	0xf3
 7280 0830 01       		.uleb128 0x1
 7281 0831 51       		.byte	0x51
 7282 0832 9F       		.byte	0x9f
 7283 0833 00000000 		.4byte	0
 7284 0837 00000000 		.4byte	0
 7285              	.LLST56:
 7286 083b 00000000 		.4byte	.LVL189
 7287 083f 21000000 		.4byte	.LVL193-1
 7288 0843 0100     		.2byte	0x1
 7289 0845 52       		.byte	0x52
 7290 0846 21000000 		.4byte	.LVL193-1
 7291 084a 90000000 		.4byte	.LFE197
 7292 084e 0400     		.2byte	0x4
 7293 0850 F3       		.byte	0xf3
 7294 0851 01       		.uleb128 0x1
 7295 0852 52       		.byte	0x52
 7296 0853 9F       		.byte	0x9f
 7297 0854 00000000 		.4byte	0
 7298 0858 00000000 		.4byte	0
 7299              	.LLST57:
 7300 085c 00000000 		.4byte	.LVL189
 7301 0860 12000000 		.4byte	.LVL190
 7302 0864 0100     		.2byte	0x1
 7303 0866 53       		.byte	0x53
 7304 0867 12000000 		.4byte	.LVL190
 7305 086b 90000000 		.4byte	.LFE197
 7306 086f 0400     		.2byte	0x4
 7307 0871 F3       		.byte	0xf3
 7308 0872 01       		.uleb128 0x1
 7309 0873 53       		.byte	0x53
 7310 0874 9F       		.byte	0x9f
 7311 0875 00000000 		.4byte	0
 7312 0879 00000000 		.4byte	0
 7313              	.LLST58:
 7314 087d 00000000 		.4byte	.LVL189
 7315 0881 8A000000 		.4byte	.LVL201
 7316 0885 0200     		.2byte	0x2
 7317 0887 91       		.byte	0x91
ARM GAS  C:\Users\gjl\AppData\Local\Temp\cckcOS93.s 			page 188


 7318 0888 00       		.sleb128 0
 7319 0889 8A000000 		.4byte	.LVL201
 7320 088d 90000000 		.4byte	.LFE197
 7321 0891 0200     		.2byte	0x2
 7322 0893 7D       		.byte	0x7d
 7323 0894 00       		.sleb128 0
 7324 0895 00000000 		.4byte	0
 7325 0899 00000000 		.4byte	0
 7326              	.LLST59:
 7327 089d 62000000 		.4byte	.LVL197
 7328 08a1 64000000 		.4byte	.LVL198
 7329 08a5 0100     		.2byte	0x1
 7330 08a7 53       		.byte	0x53
 7331 08a8 7C000000 		.4byte	.LVL199
 7332 08ac 86000000 		.4byte	.LVL200
 7333 08b0 0100     		.2byte	0x1
 7334 08b2 53       		.byte	0x53
 7335 08b3 00000000 		.4byte	0
 7336 08b7 00000000 		.4byte	0
 7337              	.LLST60:
 7338 08bb 00000000 		.4byte	.LVL202
 7339 08bf 14000000 		.4byte	.LVL204
 7340 08c3 0100     		.2byte	0x1
 7341 08c5 50       		.byte	0x50
 7342 08c6 14000000 		.4byte	.LVL204
 7343 08ca 2C000000 		.4byte	.LVL209
 7344 08ce 0100     		.2byte	0x1
 7345 08d0 55       		.byte	0x55
 7346 08d1 2C000000 		.4byte	.LVL209
 7347 08d5 30000000 		.4byte	.LFE198
 7348 08d9 0400     		.2byte	0x4
 7349 08db F3       		.byte	0xf3
 7350 08dc 01       		.uleb128 0x1
 7351 08dd 50       		.byte	0x50
 7352 08de 9F       		.byte	0x9f
 7353 08df 00000000 		.4byte	0
 7354 08e3 00000000 		.4byte	0
 7355              	.LLST61:
 7356 08e7 00000000 		.4byte	.LVL202
 7357 08eb 12000000 		.4byte	.LVL203
 7358 08ef 0100     		.2byte	0x1
 7359 08f1 51       		.byte	0x51
 7360 08f2 12000000 		.4byte	.LVL203
 7361 08f6 30000000 		.4byte	.LFE198
 7362 08fa 0400     		.2byte	0x4
 7363 08fc F3       		.byte	0xf3
 7364 08fd 01       		.uleb128 0x1
 7365 08fe 51       		.byte	0x51
 7366 08ff 9F       		.byte	0x9f
 7367 0900 00000000 		.4byte	0
 7368 0904 00000000 		.4byte	0
 7369              	.LLST62:
 7370 0908 22000000 		.4byte	.LVL206
 7371 090c 24000000 		.4byte	.LVL207
 7372 0910 0100     		.2byte	0x1
 7373 0912 50       		.byte	0x50
 7374 0913 2A000000 		.4byte	.LVL208
ARM GAS  C:\Users\gjl\AppData\Local\Temp\cckcOS93.s 			page 189


 7375 0917 30000000 		.4byte	.LFE198
 7376 091b 0100     		.2byte	0x1
 7377 091d 50       		.byte	0x50
 7378 091e 00000000 		.4byte	0
 7379 0922 00000000 		.4byte	0
 7380              	.LLST63:
 7381 0926 00000000 		.4byte	.LVL210
 7382 092a 16000000 		.4byte	.LVL212
 7383 092e 0100     		.2byte	0x1
 7384 0930 50       		.byte	0x50
 7385 0931 16000000 		.4byte	.LVL212
 7386 0935 5E000000 		.4byte	.LVL219
 7387 0939 0100     		.2byte	0x1
 7388 093b 56       		.byte	0x56
 7389 093c 5E000000 		.4byte	.LVL219
 7390 0940 64000000 		.4byte	.LFE199
 7391 0944 0400     		.2byte	0x4
 7392 0946 F3       		.byte	0xf3
 7393 0947 01       		.uleb128 0x1
 7394 0948 50       		.byte	0x50
 7395 0949 9F       		.byte	0x9f
 7396 094a 00000000 		.4byte	0
 7397 094e 00000000 		.4byte	0
 7398              	.LLST64:
 7399 0952 00000000 		.4byte	.LVL210
 7400 0956 14000000 		.4byte	.LVL211
 7401 095a 0100     		.2byte	0x1
 7402 095c 51       		.byte	0x51
 7403 095d 14000000 		.4byte	.LVL211
 7404 0961 64000000 		.4byte	.LFE199
 7405 0965 0400     		.2byte	0x4
 7406 0967 F3       		.byte	0xf3
 7407 0968 01       		.uleb128 0x1
 7408 0969 51       		.byte	0x51
 7409 096a 9F       		.byte	0x9f
 7410 096b 00000000 		.4byte	0
 7411 096f 00000000 		.4byte	0
 7412              	.LLST65:
 7413 0973 00000000 		.4byte	.LVL210
 7414 0977 19000000 		.4byte	.LVL213-1
 7415 097b 0100     		.2byte	0x1
 7416 097d 52       		.byte	0x52
 7417 097e 19000000 		.4byte	.LVL213-1
 7418 0982 64000000 		.4byte	.LFE199
 7419 0986 0400     		.2byte	0x4
 7420 0988 F3       		.byte	0xf3
 7421 0989 01       		.uleb128 0x1
 7422 098a 52       		.byte	0x52
 7423 098b 9F       		.byte	0x9f
 7424 098c 00000000 		.4byte	0
 7425 0990 00000000 		.4byte	0
 7426              	.LLST66:
 7427 0994 46000000 		.4byte	.LVL215
 7428 0998 48000000 		.4byte	.LVL216
 7429 099c 0100     		.2byte	0x1
 7430 099e 53       		.byte	0x53
 7431 099f 58000000 		.4byte	.LVL217
ARM GAS  C:\Users\gjl\AppData\Local\Temp\cckcOS93.s 			page 190


 7432 09a3 5C000000 		.4byte	.LVL218
 7433 09a7 0100     		.2byte	0x1
 7434 09a9 53       		.byte	0x53
 7435 09aa 00000000 		.4byte	0
 7436 09ae 00000000 		.4byte	0
 7437              	.LLST67:
 7438 09b2 00000000 		.4byte	.LVL220
 7439 09b6 14000000 		.4byte	.LVL222
 7440 09ba 0100     		.2byte	0x1
 7441 09bc 50       		.byte	0x50
 7442 09bd 14000000 		.4byte	.LVL222
 7443 09c1 34000000 		.4byte	.LVL229
 7444 09c5 0100     		.2byte	0x1
 7445 09c7 55       		.byte	0x55
 7446 09c8 34000000 		.4byte	.LVL229
 7447 09cc 38000000 		.4byte	.LFE200
 7448 09d0 0400     		.2byte	0x4
 7449 09d2 F3       		.byte	0xf3
 7450 09d3 01       		.uleb128 0x1
 7451 09d4 50       		.byte	0x50
 7452 09d5 9F       		.byte	0x9f
 7453 09d6 00000000 		.4byte	0
 7454 09da 00000000 		.4byte	0
 7455              	.LLST68:
 7456 09de 00000000 		.4byte	.LVL220
 7457 09e2 12000000 		.4byte	.LVL221
 7458 09e6 0100     		.2byte	0x1
 7459 09e8 51       		.byte	0x51
 7460 09e9 12000000 		.4byte	.LVL221
 7461 09ed 38000000 		.4byte	.LFE200
 7462 09f1 0400     		.2byte	0x4
 7463 09f3 F3       		.byte	0xf3
 7464 09f4 01       		.uleb128 0x1
 7465 09f5 51       		.byte	0x51
 7466 09f6 9F       		.byte	0x9f
 7467 09f7 00000000 		.4byte	0
 7468 09fb 00000000 		.4byte	0
 7469              	.LLST69:
 7470 09ff 22000000 		.4byte	.LVL224
 7471 0a03 24000000 		.4byte	.LVL225
 7472 0a07 0100     		.2byte	0x1
 7473 0a09 50       		.byte	0x50
 7474 0a0a 2E000000 		.4byte	.LVL226
 7475 0a0e 30000000 		.4byte	.LVL227
 7476 0a12 0100     		.2byte	0x1
 7477 0a14 50       		.byte	0x50
 7478 0a15 32000000 		.4byte	.LVL228
 7479 0a19 38000000 		.4byte	.LFE200
 7480 0a1d 0100     		.2byte	0x1
 7481 0a1f 50       		.byte	0x50
 7482 0a20 00000000 		.4byte	0
 7483 0a24 00000000 		.4byte	0
 7484              		.section	.debug_aranges,"",%progbits
 7485 0000 AC000000 		.4byte	0xac
 7486 0004 0200     		.2byte	0x2
 7487 0006 00000000 		.4byte	.Ldebug_info0
 7488 000a 04       		.byte	0x4
ARM GAS  C:\Users\gjl\AppData\Local\Temp\cckcOS93.s 			page 191


 7489 000b 00       		.byte	0
 7490 000c 0000     		.2byte	0
 7491 000e 0000     		.2byte	0
 7492 0010 00000000 		.4byte	.LFB182
 7493 0014 34020000 		.4byte	.LFE182-.LFB182
 7494 0018 00000000 		.4byte	.LFB183
 7495 001c 78010000 		.4byte	.LFE183-.LFB183
 7496 0020 00000000 		.4byte	.LFB184
 7497 0024 50000000 		.4byte	.LFE184-.LFB184
 7498 0028 00000000 		.4byte	.LFB185
 7499 002c 68010000 		.4byte	.LFE185-.LFB185
 7500 0030 00000000 		.4byte	.LFB187
 7501 0034 28000000 		.4byte	.LFE187-.LFB187
 7502 0038 00000000 		.4byte	.LFB186
 7503 003c D4000000 		.4byte	.LFE186-.LFB186
 7504 0040 00000000 		.4byte	.LFB188
 7505 0044 98000000 		.4byte	.LFE188-.LFB188
 7506 0048 00000000 		.4byte	.LFB189
 7507 004c 74000000 		.4byte	.LFE189-.LFB189
 7508 0050 00000000 		.4byte	.LFB190
 7509 0054 68000000 		.4byte	.LFE190-.LFB190
 7510 0058 00000000 		.4byte	.LFB191
 7511 005c 50000000 		.4byte	.LFE191-.LFB191
 7512 0060 00000000 		.4byte	.LFB192
 7513 0064 2C000000 		.4byte	.LFE192-.LFB192
 7514 0068 00000000 		.4byte	.LFB193
 7515 006c 50000000 		.4byte	.LFE193-.LFB193
 7516 0070 00000000 		.4byte	.LFB194
 7517 0074 2C000000 		.4byte	.LFE194-.LFB194
 7518 0078 00000000 		.4byte	.LFB195
 7519 007c 94000000 		.4byte	.LFE195-.LFB195
 7520 0080 00000000 		.4byte	.LFB196
 7521 0084 34000000 		.4byte	.LFE196-.LFB196
 7522 0088 00000000 		.4byte	.LFB197
 7523 008c 90000000 		.4byte	.LFE197-.LFB197
 7524 0090 00000000 		.4byte	.LFB198
 7525 0094 30000000 		.4byte	.LFE198-.LFB198
 7526 0098 00000000 		.4byte	.LFB199
 7527 009c 64000000 		.4byte	.LFE199-.LFB199
 7528 00a0 00000000 		.4byte	.LFB200
 7529 00a4 38000000 		.4byte	.LFE200-.LFB200
 7530 00a8 00000000 		.4byte	0
 7531 00ac 00000000 		.4byte	0
 7532              		.section	.debug_ranges,"",%progbits
 7533              	.Ldebug_ranges0:
 7534 0000 00000000 		.4byte	.LFB182
 7535 0004 34020000 		.4byte	.LFE182
 7536 0008 00000000 		.4byte	.LFB183
 7537 000c 78010000 		.4byte	.LFE183
 7538 0010 00000000 		.4byte	.LFB184
 7539 0014 50000000 		.4byte	.LFE184
 7540 0018 00000000 		.4byte	.LFB185
 7541 001c 68010000 		.4byte	.LFE185
 7542 0020 00000000 		.4byte	.LFB187
 7543 0024 28000000 		.4byte	.LFE187
 7544 0028 00000000 		.4byte	.LFB186
 7545 002c D4000000 		.4byte	.LFE186
ARM GAS  C:\Users\gjl\AppData\Local\Temp\cckcOS93.s 			page 192


 7546 0030 00000000 		.4byte	.LFB188
 7547 0034 98000000 		.4byte	.LFE188
 7548 0038 00000000 		.4byte	.LFB189
 7549 003c 74000000 		.4byte	.LFE189
 7550 0040 00000000 		.4byte	.LFB190
 7551 0044 68000000 		.4byte	.LFE190
 7552 0048 00000000 		.4byte	.LFB191
 7553 004c 50000000 		.4byte	.LFE191
 7554 0050 00000000 		.4byte	.LFB192
 7555 0054 2C000000 		.4byte	.LFE192
 7556 0058 00000000 		.4byte	.LFB193
 7557 005c 50000000 		.4byte	.LFE193
 7558 0060 00000000 		.4byte	.LFB194
 7559 0064 2C000000 		.4byte	.LFE194
 7560 0068 00000000 		.4byte	.LFB195
 7561 006c 94000000 		.4byte	.LFE195
 7562 0070 00000000 		.4byte	.LFB196
 7563 0074 34000000 		.4byte	.LFE196
 7564 0078 00000000 		.4byte	.LFB197
 7565 007c 90000000 		.4byte	.LFE197
 7566 0080 00000000 		.4byte	.LFB198
 7567 0084 30000000 		.4byte	.LFE198
 7568 0088 00000000 		.4byte	.LFB199
 7569 008c 64000000 		.4byte	.LFE199
 7570 0090 00000000 		.4byte	.LFB200
 7571 0094 38000000 		.4byte	.LFE200
 7572 0098 00000000 		.4byte	0
 7573 009c 00000000 		.4byte	0
 7574              		.section	.debug_line,"",%progbits
 7575              	.Ldebug_line0:
 7576 0000 2F090000 		.section	.debug_str,"MS",%progbits,1
 7576      02006902 
 7576      00000201 
 7576      FB0E0D00 
 7576      01010101 
 7577              	.LASF19:
 7578 0000 52455345 		.ascii	"RESERVED\000"
 7578      52564544 
 7578      00
 7579              	.LASF245:
 7580 0009 43795F43 		.ascii	"Cy_CTB_Fast_Opamp0_Opamp1x\000"
 7580      54425F46 
 7580      6173745F 
 7580      4F70616D 
 7580      70305F4F 
 7581              	.LASF117:
 7582 0024 43595F43 		.ascii	"CY_CTB_SW_OA1_POS_AREF_MASK\000"
 7582      54425F53 
 7582      575F4F41 
 7582      315F504F 
 7582      535F4152 
 7583              	.LASF110:
 7584 0040 43595F43 		.ascii	"CY_CTB_SW_OA0_NEG_PIN1_MASK\000"
 7584      54425F53 
 7584      575F4F41 
 7584      305F4E45 
 7584      475F5049 
ARM GAS  C:\Users\gjl\AppData\Local\Temp\cckcOS93.s 			page 193


 7585              	.LASF35:
 7586 005c 4354425F 		.ascii	"CTB_SW_STATUS\000"
 7586      53575F53 
 7586      54415455 
 7586      5300
 7587              	.LASF196:
 7588 006a 43795F43 		.ascii	"Cy_CTB_Init\000"
 7588      54425F49 
 7588      6E697400 
 7589              	.LASF256:
 7590 0076 43795F43 		.ascii	"Cy_CTB_Fast_Opamp1_Vdac_Ref_Pin5\000"
 7590      54425F46 
 7590      6173745F 
 7590      4F70616D 
 7590      70315F56 
 7591              	.LASF187:
 7592 0097 63795F73 		.ascii	"cy_stc_ctb_fast_config_oa0_t\000"
 7592      74635F63 
 7592      74625F66 
 7592      6173745F 
 7592      636F6E66 
 7593              	.LASF229:
 7594 00b4 43795F43 		.ascii	"Cy_CTB_GetAnalogSwitch\000"
 7594      54425F47 
 7594      6574416E 
 7594      616C6F67 
 7594      53776974 
 7595              	.LASF70:
 7596 00cb 63795F65 		.ascii	"cy_en_ctb_opamp_sel_t\000"
 7596      6E5F6374 
 7596      625F6F70 
 7596      616D705F 
 7596      73656C5F 
 7597              	.LASF94:
 7598 00e1 43595F43 		.ascii	"CY_CTB_COMP_BYPASS_SYNC\000"
 7598      54425F43 
 7598      4F4D505F 
 7598      42595041 
 7598      53535F53 
 7599              	.LASF224:
 7600 00f9 73776974 		.ascii	"switchSelect\000"
 7600      63685365 
 7600      6C656374 
 7600      00
 7601              	.LASF153:
 7602 0106 43595F43 		.ascii	"CY_CTB_BAD_PARAM\000"
 7602      54425F42 
 7602      41445F50 
 7602      4152414D 
 7602      00
 7603              	.LASF17:
 7604 0117 4F415F52 		.ascii	"OA_RES1_CTRL\000"
 7604      4553315F 
 7604      4354524C 
 7604      00
 7605              	.LASF216:
 7606 0124 43795F43 		.ascii	"Cy_CTB_DACSampleAndHold\000"
ARM GAS  C:\Users\gjl\AppData\Local\Temp\cckcOS93.s 			page 194


 7606      54425F44 
 7606      41435361 
 7606      6D706C65 
 7606      416E6448 
 7607              	.LASF66:
 7608 013c 43595F43 		.ascii	"CY_CTB_OPAMP_NONE\000"
 7608      54425F4F 
 7608      50414D50 
 7608      5F4E4F4E 
 7608      4500
 7609              	.LASF236:
 7610 014e 6F70616D 		.ascii	"opampCtrlReg\000"
 7610      70437472 
 7610      6C526567 
 7610      00
 7611              	.LASF182:
 7612 015b 6F61436F 		.ascii	"oaCompLevel\000"
 7612      6D704C65 
 7612      76656C00 
 7613              	.LASF46:
 7614 0167 494E5452 		.ascii	"INTR_CAUSE\000"
 7614      5F434155 
 7614      534500
 7615              	.LASF169:
 7616 0172 6F613143 		.ascii	"oa1CompBypass\000"
 7616      6F6D7042 
 7616      79706173 
 7616      7300
 7617              	.LASF170:
 7618 0180 6F613143 		.ascii	"oa1CompHyst\000"
 7618      6F6D7048 
 7618      79737400 
 7619              	.LASF219:
 7620 018c 43795F43 		.ascii	"Cy_CTB_OpampGetOffset\000"
 7620      54425F4F 
 7620      70616D70 
 7620      4765744F 
 7620      66667365 
 7621              	.LASF136:
 7622 01a2 43595F43 		.ascii	"CY_CTB_OPAMP_COMPENSATION_CAP_MAX\000"
 7622      54425F4F 
 7622      50414D50 
 7622      5F434F4D 
 7622      50454E53 
 7623              	.LASF5:
 7624 01c4 5F5F696E 		.ascii	"__int32_t\000"
 7624      7433325F 
 7624      7400
 7625              	.LASF145:
 7626 01ce 43595F43 		.ascii	"CY_CTB_IPTAT_NORMAL\000"
 7626      54425F49 
 7626      50544154 
 7626      5F4E4F52 
 7626      4D414C00 
 7627              	.LASF203:
 7628 01e2 43795F43 		.ascii	"Cy_CTB_FastInit\000"
 7628      54425F46 
ARM GAS  C:\Users\gjl\AppData\Local\Temp\cckcOS93.s 			page 195


 7628      61737449 
 7628      6E697400 
 7629              	.LASF189:
 7630 01f2 43795F43 		.ascii	"Cy_CTB_SetIptatLevel\000"
 7630      54425F53 
 7630      65744970 
 7630      7461744C 
 7630      6576656C 
 7631              	.LASF124:
 7632 0207 43595F43 		.ascii	"CY_CTB_SW_CTD_REFSENSE_OA1_NEG_MASK\000"
 7632      54425F53 
 7632      575F4354 
 7632      445F5245 
 7632      4653454E 
 7633              	.LASF259:
 7634 022b 433A5C47 		.ascii	"C:\\Git\\PSoC6-101-Videos\\Projects_ScreenCapture\\"
 7634      69745C50 
 7634      536F4336 
 7634      2D313031 
 7634      2D566964 
 7635 025a 50536F43 		.ascii	"PSoC 6_101\\2-6-ADC_OPAMP_VREF.cydsn\000"
 7635      20365F31 
 7635      30315C32 
 7635      2D362D41 
 7635      44435F4F 
 7636              	.LASF233:
 7637 027e 6C657665 		.ascii	"level\000"
 7637      6C00
 7638              	.LASF81:
 7639 0284 43595F43 		.ascii	"CY_CTB_MODE_COMP\000"
 7639      54425F4D 
 7639      4F44455F 
 7639      434F4D50 
 7639      00
 7640              	.LASF102:
 7641 0295 63795F65 		.ascii	"cy_en_ctb_switch_state_t\000"
 7641      6E5F6374 
 7641      625F7377 
 7641      69746368 
 7641      5F737461 
 7642              	.LASF209:
 7643 02ae 63757272 		.ascii	"currentMode\000"
 7643      656E744D 
 7643      6F646500 
 7644              	.LASF254:
 7645 02ba 43795F43 		.ascii	"Cy_CTB_Fast_Opamp1_Diffamp\000"
 7645      54425F46 
 7645      6173745F 
 7645      4F70616D 
 7645      70315F44 
 7646              	.LASF200:
 7647 02d5 6F615265 		.ascii	"oaResCtrl\000"
 7647      73437472 
 7647      6C00
 7648              	.LASF228:
 7649 02df 73776974 		.ascii	"switchClearReg\000"
 7649      6368436C 
ARM GAS  C:\Users\gjl\AppData\Local\Temp\cckcOS93.s 			page 196


 7649      65617252 
 7649      656700
 7650              	.LASF21:
 7651 02ee 494E5452 		.ascii	"INTR_SET\000"
 7651      5F534554 
 7651      00
 7652              	.LASF211:
 7653 02f7 6D6F6465 		.ascii	"mode\000"
 7653      00
 7654              	.LASF249:
 7655 02fc 43795F43 		.ascii	"Cy_CTB_Fast_Opamp0_Vdac_Out_SH\000"
 7655      54425F46 
 7655      6173745F 
 7655      4F70616D 
 7655      70305F56 
 7656              	.LASF160:
 7657 031b 6F613043 		.ascii	"oa0CompLevel\000"
 7657      6F6D704C 
 7657      6576656C 
 7657      00
 7658              	.LASF257:
 7659 0328 474E5520 		.ascii	"GNU C11 5.4.1 20160609 (release) [ARM/embedded-5-br"
 7659      43313120 
 7659      352E342E 
 7659      31203230 
 7659      31363036 
 7660 035b 616E6368 		.ascii	"anch revision 237715] -mcpu=cortex-m4 -mfloat-abi=s"
 7660      20726576 
 7660      6973696F 
 7660      6E203233 
 7660      37373135 
 7661 038e 6F667466 		.ascii	"oftfp -mfpu=fpv4-sp-d16 -mthumb -g -Og -ffunction-s"
 7661      70202D6D 
 7661      6670753D 
 7661      66707634 
 7661      2D73702D 
 7662 03c1 65637469 		.ascii	"ections -ffat-lto-objects\000"
 7662      6F6E7320 
 7662      2D666661 
 7662      742D6C74 
 7662      6F2D6F62 
 7663              	.LASF244:
 7664 03db 43795F43 		.ascii	"Cy_CTB_Fast_Opamp0_Comp\000"
 7664      54425F46 
 7664      6173745F 
 7664      4F70616D 
 7664      70305F43 
 7665              	.LASF131:
 7666 03f3 43595F43 		.ascii	"CY_CTB_SW_CTD_CHOLD_OA0_POS_ISOLATE_MASK\000"
 7666      54425F53 
 7666      575F4354 
 7666      445F4348 
 7666      4F4C445F 
 7667              	.LASF208:
 7668 041c 43795F43 		.ascii	"Cy_CTB_SetCurrentMode\000"
 7668      54425F53 
 7668      65744375 
ARM GAS  C:\Users\gjl\AppData\Local\Temp\cckcOS93.s 			page 197


 7668      7272656E 
 7668      744D6F64 
 7669              	.LASF158:
 7670 0432 6F613050 		.ascii	"oa0Pump\000"
 7670      756D7000 
 7671              	.LASF165:
 7672 043a 6F61314D 		.ascii	"oa1Mode\000"
 7672      6F646500 
 7673              	.LASF47:
 7674 0442 41524546 		.ascii	"AREF\000"
 7674      00
 7675              	.LASF237:
 7676 0447 43795F43 		.ascii	"Cy_CTB_CompGetConfig\000"
 7676      54425F43 
 7676      6F6D7047 
 7676      6574436F 
 7676      6E666967 
 7677              	.LASF12:
 7678 045c 75696E74 		.ascii	"uint32_t\000"
 7678      33325F74 
 7678      00
 7679              	.LASF152:
 7680 0465 43595F43 		.ascii	"CY_CTB_SUCCESS\000"
 7680      54425F53 
 7680      55434345 
 7680      535300
 7681              	.LASF130:
 7682 0474 43595F43 		.ascii	"CY_CTB_SW_CTD_CHOLD_OA0_POS_MASK\000"
 7682      54425F53 
 7682      575F4354 
 7682      445F4348 
 7682      4F4C445F 
 7683              	.LASF250:
 7684 0495 43795F43 		.ascii	"Cy_CTB_Fast_Opamp1_Unused\000"
 7684      54425F46 
 7684      6173745F 
 7684      4F70616D 
 7684      70315F55 
 7685              	.LASF151:
 7686 04af 63795F65 		.ascii	"cy_en_ctb_current_mode_t\000"
 7686      6E5F6374 
 7686      625F6375 
 7686      7272656E 
 7686      745F6D6F 
 7687              	.LASF171:
 7688 04c8 6F613143 		.ascii	"oa1CompIntrEn\000"
 7688      6F6D7049 
 7688      6E747245 
 7688      6E00
 7689              	.LASF20:
 7690 04d6 494E5452 		.ascii	"INTR\000"
 7690      00
 7691              	.LASF59:
 7692 04db 666C6F61 		.ascii	"float\000"
 7692      7400
 7693              	.LASF235:
 7694 04e1 68797374 		.ascii	"hyst\000"
ARM GAS  C:\Users\gjl\AppData\Local\Temp\cckcOS93.s 			page 198


 7694      00
 7695              	.LASF167:
 7696 04e6 6F613143 		.ascii	"oa1CompEdge\000"
 7696      6F6D7045 
 7696      64676500 
 7697              	.LASF194:
 7698 04f2 62617365 		.ascii	"base\000"
 7698      00
 7699              	.LASF75:
 7700 04f7 43595F43 		.ascii	"CY_CTB_POWER_LOW\000"
 7700      54425F50 
 7700      4F574552 
 7700      5F4C4F57 
 7700      00
 7701              	.LASF232:
 7702 0508 636F6D70 		.ascii	"compNum\000"
 7702      4E756D00 
 7703              	.LASF123:
 7704 0510 43595F43 		.ascii	"CY_CTB_SW_CTD_REF_OA1_OUT_MASK\000"
 7704      54425F53 
 7704      575F4354 
 7704      445F5245 
 7704      465F4F41 
 7705              	.LASF201:
 7706 052f 43795F43 		.ascii	"Cy_CTB_DeInit\000"
 7706      54425F44 
 7706      65496E69 
 7706      7400
 7707              	.LASF178:
 7708 053d 6F61506F 		.ascii	"oaPower\000"
 7708      77657200 
 7709              	.LASF101:
 7710 0545 43595F43 		.ascii	"CY_CTB_SWITCH_CLOSE\000"
 7710      54425F53 
 7710      57495443 
 7710      485F434C 
 7710      4F534500 
 7711              	.LASF199:
 7712 0559 72657375 		.ascii	"result\000"
 7712      6C7400
 7713              	.LASF71:
 7714 0560 43595F43 		.ascii	"CY_CTB_DEEPSLEEP_DISABLE\000"
 7714      54425F44 
 7714      45455053 
 7714      4C454550 
 7714      5F444953 
 7715              	.LASF9:
 7716 0579 6C6F6E67 		.ascii	"long long unsigned int\000"
 7716      206C6F6E 
 7716      6720756E 
 7716      7369676E 
 7716      65642069 
 7717              	.LASF125:
 7718 0590 43595F43 		.ascii	"CY_CTB_SW_CTD_OUT_OA1_NEG_MASK\000"
 7718      54425F53 
 7718      575F4354 
 7718      445F4F55 
ARM GAS  C:\Users\gjl\AppData\Local\Temp\cckcOS93.s 			page 199


 7718      545F4F41 
 7719              	.LASF53:
 7720 05af 495A5441 		.ascii	"IZTAT_TRIM1\000"
 7720      545F5452 
 7720      494D3100 
 7721              	.LASF73:
 7722 05bb 63795F65 		.ascii	"cy_en_ctb_deep_sleep_t\000"
 7722      6E5F6374 
 7722      625F6465 
 7722      65705F73 
 7722      6C656570 
 7723              	.LASF127:
 7724 05d2 43595F43 		.ascii	"CY_CTB_SW_CTD_OUT_CHOLD_MASK\000"
 7724      54425F53 
 7724      575F4354 
 7724      445F4F55 
 7724      545F4348 
 7725              	.LASF133:
 7726 05ef 43595F43 		.ascii	"CY_CTB_OPAMP_COMPENSATION_CAP_OFF\000"
 7726      54425F4F 
 7726      50414D50 
 7726      5F434F4D 
 7726      50454E53 
 7727              	.LASF55:
 7728 0611 49435441 		.ascii	"ICTAT_TRIM0\000"
 7728      545F5452 
 7728      494D3000 
 7729              	.LASF230:
 7730 061d 73776974 		.ascii	"switchRegValue\000"
 7730      63685265 
 7730      6756616C 
 7730      756500
 7731              	.LASF128:
 7732 062c 43595F43 		.ascii	"CY_CTB_SW_CTD_OUT_OA0_1X_OUT_MASK\000"
 7732      54425F53 
 7732      575F4354 
 7732      445F4F55 
 7732      545F4F41 
 7733              	.LASF126:
 7734 064e 43595F43 		.ascii	"CY_CTB_SW_CTD_OUT_PIN6_MASK\000"
 7734      54425F53 
 7734      575F4354 
 7734      445F4F55 
 7734      545F5049 
 7735              	.LASF190:
 7736 066a 43795F53 		.ascii	"Cy_SysAnalog_SetDeepSleepMode\000"
 7736      7973416E 
 7736      616C6F67 
 7736      5F536574 
 7736      44656570 
 7737              	.LASF175:
 7738 0688 63746453 		.ascii	"ctdSwitchCtrl\000"
 7738      77697463 
 7738      68437472 
 7738      6C00
 7739              	.LASF252:
 7740 0696 43795F43 		.ascii	"Cy_CTB_Fast_Opamp1_Opamp1x\000"
ARM GAS  C:\Users\gjl\AppData\Local\Temp\cckcOS93.s 			page 200


 7740      54425F46 
 7740      6173745F 
 7740      4F70616D 
 7740      70315F4F 
 7741              	.LASF198:
 7742 06b1 6F70616D 		.ascii	"opampNum\000"
 7742      704E756D 
 7742      00
 7743              	.LASF89:
 7744 06ba 43595F43 		.ascii	"CY_CTB_COMP_EDGE_BOTH\000"
 7744      54425F43 
 7744      4F4D505F 
 7744      45444745 
 7744      5F424F54 
 7745              	.LASF258:
 7746 06d0 47656E65 		.ascii	"Generated_Source\\PSoC6\\pdl\\drivers\\peripheral\\"
 7746      72617465 
 7746      645F536F 
 7746      75726365 
 7746      5C50536F 
 7747 06fe 6374625C 		.ascii	"ctb\\cy_ctb.c\000"
 7747      63795F63 
 7747      74622E63 
 7747      00
 7748              	.LASF174:
 7749 070b 6F613153 		.ascii	"oa1SwitchCtrl\000"
 7749      77697463 
 7749      68437472 
 7749      6C00
 7750              	.LASF54:
 7751 0719 49505441 		.ascii	"IPTAT_TRIM0\000"
 7751      545F5452 
 7751      494D3000 
 7752              	.LASF148:
 7753 0725 43595F43 		.ascii	"CY_CTB_CURRENT_HIGH_ACTIVE\000"
 7753      54425F43 
 7753      55525245 
 7753      4E545F48 
 7753      4947485F 
 7754              	.LASF60:
 7755 0740 646F7562 		.ascii	"double\000"
 7755      6C6500
 7756              	.LASF76:
 7757 0747 43595F43 		.ascii	"CY_CTB_POWER_MEDIUM\000"
 7757      54425F50 
 7757      4F574552 
 7757      5F4D4544 
 7757      49554D00 
 7758              	.LASF176:
 7759 075b 5F426F6F 		.ascii	"_Bool\000"
 7759      6C00
 7760              	.LASF210:
 7761 0761 43795F43 		.ascii	"Cy_CTB_SetOutputMode\000"
 7761      54425F53 
 7761      65744F75 
 7761      74707574 
 7761      4D6F6465 
ARM GAS  C:\Users\gjl\AppData\Local\Temp\cckcOS93.s 			page 201


 7762              	.LASF163:
 7763 0776 6F613043 		.ascii	"oa0CompIntrEn\000"
 7763      6F6D7049 
 7763      6E747245 
 7763      6E00
 7764              	.LASF192:
 7765 0784 43795F43 		.ascii	"Cy_CTB_DisableRedirect\000"
 7765      54425F44 
 7765      69736162 
 7765      6C655265 
 7765      64697265 
 7766              	.LASF239:
 7767 079b 65646765 		.ascii	"edge\000"
 7767      00
 7768              	.LASF234:
 7769 07a0 62797061 		.ascii	"bypass\000"
 7769      737300
 7770              	.LASF83:
 7771 07a7 43595F43 		.ascii	"CY_CTB_PUMP_DISABLE\000"
 7771      54425F50 
 7771      554D505F 
 7771      44495341 
 7771      424C4500 
 7772              	.LASF97:
 7773 07bb 43595F43 		.ascii	"CY_CTB_COMP_HYST_DISABLE\000"
 7773      54425F43 
 7773      4F4D505F 
 7773      48595354 
 7773      5F444953 
 7774              	.LASF248:
 7775 07d4 43795F43 		.ascii	"Cy_CTB_Fast_Opamp0_Vdac_Out\000"
 7775      54425F46 
 7775      6173745F 
 7775      4F70616D 
 7775      70305F56 
 7776              	.LASF22:
 7777 07f0 494E5452 		.ascii	"INTR_MASK\000"
 7777      5F4D4153 
 7777      4B00
 7778              	.LASF27:
 7779 07fa 4F41315F 		.ascii	"OA1_SW\000"
 7779      535700
 7780              	.LASF107:
 7781 0801 43595F43 		.ascii	"CY_CTB_SW_OA0_POS_AMUXBUSA_MASK\000"
 7781      54425F53 
 7781      575F4F41 
 7781      305F504F 
 7781      535F414D 
 7782              	.LASF42:
 7783 0821 4F41315F 		.ascii	"OA1_COMP_TRIM\000"
 7783      434F4D50 
 7783      5F545249 
 7783      4D00
 7784              	.LASF255:
 7785 082f 43795F43 		.ascii	"Cy_CTB_Fast_Opamp1_Vdac_Ref_Aref\000"
 7785      54425F46 
 7785      6173745F 
ARM GAS  C:\Users\gjl\AppData\Local\Temp\cckcOS93.s 			page 202


 7785      4F70616D 
 7785      70315F56 
 7786              	.LASF37:
 7787 0850 4F41305F 		.ascii	"OA0_OFFSET_TRIM\000"
 7787      4F464653 
 7787      45545F54 
 7787      52494D00 
 7788              	.LASF135:
 7789 0860 43595F43 		.ascii	"CY_CTB_OPAMP_COMPENSATION_CAP_MED\000"
 7789      54425F4F 
 7789      50414D50 
 7789      5F434F4D 
 7789      50454E53 
 7790              	.LASF45:
 7791 0882 50415353 		.ascii	"PASS_AREF_Type\000"
 7791      5F415245 
 7791      465F5479 
 7791      706500
 7792              	.LASF93:
 7793 0891 63795F65 		.ascii	"cy_en_ctb_comp_level_t\000"
 7793      6E5F6374 
 7793      625F636F 
 7793      6D705F6C 
 7793      6576656C 
 7794              	.LASF141:
 7795 08a8 43595F43 		.ascii	"CY_CTB_SH_SAMPLE\000"
 7795      54425F53 
 7795      485F5341 
 7795      4D504C45 
 7795      00
 7796              	.LASF58:
 7797 08b9 63686172 		.ascii	"char\000"
 7797      00
 7798              	.LASF262:
 7799 08be 43795F53 		.ascii	"Cy_SysLib_AssertFailed\000"
 7799      79734C69 
 7799      625F4173 
 7799      73657274 
 7799      4661696C 
 7800              	.LASF238:
 7801 08d5 43795F43 		.ascii	"Cy_CTB_CompSetInterruptEdgeType\000"
 7801      54425F43 
 7801      6F6D7053 
 7801      6574496E 
 7801      74657272 
 7802              	.LASF105:
 7803 08f5 43595F43 		.ascii	"CY_CTB_SWITCH_CTD_SW\000"
 7803      54425F53 
 7803      57495443 
 7803      485F4354 
 7803      445F5357 
 7804              	.LASF188:
 7805 090a 63795F73 		.ascii	"cy_stc_ctb_fast_config_oa1_t\000"
 7805      74635F63 
 7805      74625F66 
 7805      6173745F 
 7805      636F6E66 
ARM GAS  C:\Users\gjl\AppData\Local\Temp\cckcOS93.s 			page 203


 7806              	.LASF104:
 7807 0927 43595F43 		.ascii	"CY_CTB_SWITCH_OA1_SW\000"
 7807      54425F53 
 7807      57495443 
 7807      485F4F41 
 7807      315F5357 
 7808              	.LASF50:
 7809 093c 56524546 		.ascii	"VREF_TRIM2\000"
 7809      5F545249 
 7809      4D3200
 7810              	.LASF122:
 7811 0947 43595F43 		.ascii	"CY_CTB_SW_OA1_OUT_SHORT_1X_10X_MASK\000"
 7811      54425F53 
 7811      575F4F41 
 7811      315F4F55 
 7811      545F5348 
 7812              	.LASF30:
 7813 096b 4354445F 		.ascii	"CTD_SW\000"
 7813      535700
 7814              	.LASF109:
 7815 0972 43595F43 		.ascii	"CY_CTB_SW_OA0_POS_PIN6_MASK\000"
 7815      54425F53 
 7815      575F4F41 
 7815      305F504F 
 7815      535F5049 
 7816              	.LASF10:
 7817 098e 756E7369 		.ascii	"unsigned int\000"
 7817      676E6564 
 7817      20696E74 
 7817      00
 7818              	.LASF142:
 7819 099b 43595F43 		.ascii	"CY_CTB_SH_PREPARE_HOLD\000"
 7819      54425F53 
 7819      485F5052 
 7819      45504152 
 7819      455F484F 
 7820              	.LASF34:
 7821 09b2 4354425F 		.ascii	"CTB_SW_SQ_CTRL\000"
 7821      53575F53 
 7821      515F4354 
 7821      524C00
 7822              	.LASF193:
 7823 09c1 43795F43 		.ascii	"Cy_CTB_EnableRedirect\000"
 7823      54425F45 
 7823      6E61626C 
 7823      65526564 
 7823      69726563 
 7824              	.LASF120:
 7825 09d7 43595F43 		.ascii	"CY_CTB_SW_OA1_OUT_SARBUS0_MASK\000"
 7825      54425F53 
 7825      575F4F41 
 7825      315F4F55 
 7825      545F5341 
 7826              	.LASF191:
 7827 09f6 69707461 		.ascii	"iptat\000"
 7827      7400
 7828              	.LASF129:
ARM GAS  C:\Users\gjl\AppData\Local\Temp\cckcOS93.s 			page 204


 7829 09fc 43595F43 		.ascii	"CY_CTB_SW_CTD_CHOLD_CONNECT_MASK\000"
 7829      54425F53 
 7829      575F4354 
 7829      445F4348 
 7829      4F4C445F 
 7830              	.LASF77:
 7831 0a1d 43595F43 		.ascii	"CY_CTB_POWER_HIGH\000"
 7831      54425F50 
 7831      4F574552 
 7831      5F484947 
 7831      4800
 7832              	.LASF112:
 7833 0a2f 43595F43 		.ascii	"CY_CTB_SW_OA0_OUT_SARBUS0_MASK\000"
 7833      54425F53 
 7833      575F4F41 
 7833      305F4F55 
 7833      545F5341 
 7834              	.LASF212:
 7835 0a4e 6F614374 		.ascii	"oaCtrlReg\000"
 7835      726C5265 
 7835      6700
 7836              	.LASF138:
 7837 0a58 43595F43 		.ascii	"CY_CTB_OPAMP_BOOST_ENABLE\000"
 7837      54425F4F 
 7837      50414D50 
 7837      5F424F4F 
 7837      53545F45 
 7838              	.LASF79:
 7839 0a72 43595F43 		.ascii	"CY_CTB_MODE_OPAMP1X\000"
 7839      54425F4D 
 7839      4F44455F 
 7839      4F50414D 
 7839      50315800 
 7840              	.LASF8:
 7841 0a86 6C6F6E67 		.ascii	"long long int\000"
 7841      206C6F6E 
 7841      6720696E 
 7841      7400
 7842              	.LASF119:
 7843 0a94 43595F43 		.ascii	"CY_CTB_SW_OA1_NEG_OUT_MASK\000"
 7843      54425F53 
 7843      575F4F41 
 7843      315F4E45 
 7843      475F4F55 
 7844              	.LASF140:
 7845 0aaf 43595F43 		.ascii	"CY_CTB_SH_PREPARE_SAMPLE\000"
 7845      54425F53 
 7845      485F5052 
 7845      45504152 
 7845      455F5341 
 7846              	.LASF207:
 7847 0ac8 43795F43 		.ascii	"Cy_CTB_SetDeepSleepMode\000"
 7847      54425F53 
 7847      65744465 
 7847      6570536C 
 7847      6565704D 
 7848              	.LASF150:
ARM GAS  C:\Users\gjl\AppData\Local\Temp\cckcOS93.s 			page 205


 7849 0ae0 43595F43 		.ascii	"CY_CTB_CURRENT_LOW_ACTIVE_DEEPSLEEP\000"
 7849      54425F43 
 7849      55525245 
 7849      4E545F4C 
 7849      4F575F41 
 7850              	.LASF261:
 7851 0b04 61726566 		.ascii	"arefDeepSleep\000"
 7851      44656570 
 7851      536C6565 
 7851      7000
 7852              	.LASF95:
 7853 0b12 43595F43 		.ascii	"CY_CTB_COMP_BYPASS_NO_SYNC\000"
 7853      54425F43 
 7853      4F4D505F 
 7853      42595041 
 7853      53535F4E 
 7854              	.LASF157:
 7855 0b2d 6F61304D 		.ascii	"oa0Mode\000"
 7855      6F646500 
 7856              	.LASF246:
 7857 0b35 43795F43 		.ascii	"Cy_CTB_Fast_Opamp0_Opamp10x\000"
 7857      54425F46 
 7857      6173745F 
 7857      4F70616D 
 7857      70305F4F 
 7858              	.LASF217:
 7859 0b51 43795F43 		.ascii	"Cy_CTB_OpampSetOffset\000"
 7859      54425F4F 
 7859      70616D70 
 7859      5365744F 
 7859      66667365 
 7860              	.LASF111:
 7861 0b67 43595F43 		.ascii	"CY_CTB_SW_OA0_NEG_OUT_MASK\000"
 7861      54425F53 
 7861      575F4F41 
 7861      305F4E45 
 7861      475F4F55 
 7862              	.LASF39:
 7863 0b82 4F41305F 		.ascii	"OA0_COMP_TRIM\000"
 7863      434F4D50 
 7863      5F545249 
 7863      4D00
 7864              	.LASF67:
 7865 0b90 43595F43 		.ascii	"CY_CTB_OPAMP_0\000"
 7865      54425F4F 
 7865      50414D50 
 7865      5F3000
 7866              	.LASF68:
 7867 0b9f 43595F43 		.ascii	"CY_CTB_OPAMP_1\000"
 7867      54425F4F 
 7867      50414D50 
 7867      5F3100
 7868              	.LASF162:
 7869 0bae 6F613043 		.ascii	"oa0CompHyst\000"
 7869      6F6D7048 
 7869      79737400 
 7870              	.LASF113:
ARM GAS  C:\Users\gjl\AppData\Local\Temp\cckcOS93.s 			page 206


 7871 0bba 43595F43 		.ascii	"CY_CTB_SW_OA0_OUT_SHORT_1X_10X_MASK\000"
 7871      54425F53 
 7871      575F4F41 
 7871      305F4F55 
 7871      545F5348 
 7872              	.LASF213:
 7873 0bde 43795F43 		.ascii	"Cy_CTB_SetPower\000"
 7873      54425F53 
 7873      6574506F 
 7873      77657200 
 7874              	.LASF25:
 7875 0bee 4F41305F 		.ascii	"OA0_SW\000"
 7875      535700
 7876              	.LASF100:
 7877 0bf5 43595F43 		.ascii	"CY_CTB_SWITCH_OPEN\000"
 7877      54425F53 
 7877      57495443 
 7877      485F4F50 
 7877      454E00
 7878              	.LASF82:
 7879 0c08 63795F65 		.ascii	"cy_en_ctb_mode_t\000"
 7879      6E5F6374 
 7879      625F6D6F 
 7879      64655F74 
 7879      00
 7880              	.LASF173:
 7881 0c19 6F613053 		.ascii	"oa0SwitchCtrl\000"
 7881      77697463 
 7881      68437472 
 7881      6C00
 7882              	.LASF103:
 7883 0c27 43595F43 		.ascii	"CY_CTB_SWITCH_OA0_SW\000"
 7883      54425F53 
 7883      57495443 
 7883      485F4F41 
 7883      305F5357 
 7884              	.LASF90:
 7885 0c3c 63795F65 		.ascii	"cy_en_ctb_comp_edge_t\000"
 7885      6E5F6374 
 7885      625F636F 
 7885      6D705F65 
 7885      6467655F 
 7886              	.LASF44:
 7887 0c52 41524546 		.ascii	"AREF_CTRL\000"
 7887      5F435452 
 7887      4C00
 7888              	.LASF222:
 7889 0c5c 43795F43 		.ascii	"Cy_CTB_OpampGetSlope\000"
 7889      54425F4F 
 7889      70616D70 
 7889      47657453 
 7889      6C6F7065 
 7890              	.LASF218:
 7891 0c71 7472696D 		.ascii	"trim\000"
 7891      00
 7892              	.LASF183:
 7893 0c76 6F61436F 		.ascii	"oaCompBypass\000"
ARM GAS  C:\Users\gjl\AppData\Local\Temp\cckcOS93.s 			page 207


 7893      6D704279 
 7893      70617373 
 7893      00
 7894              	.LASF69:
 7895 0c83 43595F43 		.ascii	"CY_CTB_OPAMP_BOTH\000"
 7895      54425F4F 
 7895      50414D50 
 7895      5F424F54 
 7895      4800
 7896              	.LASF78:
 7897 0c95 63795F65 		.ascii	"cy_en_ctb_power_t\000"
 7897      6E5F6374 
 7897      625F706F 
 7897      7765725F 
 7897      7400
 7898              	.LASF13:
 7899 0ca7 6C6F6E67 		.ascii	"long double\000"
 7899      20646F75 
 7899      626C6500 
 7900              	.LASF164:
 7901 0cb3 6F613150 		.ascii	"oa1Power\000"
 7901      6F776572 
 7901      00
 7902              	.LASF231:
 7903 0cbc 43795F43 		.ascii	"Cy_CTB_CompSetConfig\000"
 7903      54425F43 
 7903      6F6D7053 
 7903      6574436F 
 7903      6E666967 
 7904              	.LASF177:
 7905 0cd1 63795F73 		.ascii	"cy_stc_ctb_config_t\000"
 7905      74635F63 
 7905      74625F63 
 7905      6F6E6669 
 7905      675F7400 
 7906              	.LASF6:
 7907 0ce5 5F5F7569 		.ascii	"__uint32_t\000"
 7907      6E743332 
 7907      5F7400
 7908              	.LASF65:
 7909 0cf0 63795F65 		.ascii	"cy_en_sysanalog_deep_sleep_t\000"
 7909      6E5F7379 
 7909      73616E61 
 7909      6C6F675F 
 7909      64656570 
 7910              	.LASF195:
 7911 0d0d 636F6E66 		.ascii	"config\000"
 7911      696700
 7912              	.LASF149:
 7913 0d14 43595F43 		.ascii	"CY_CTB_CURRENT_HIGH_ACTIVE_DEEPSLEEP\000"
 7913      54425F43 
 7913      55525245 
 7913      4E545F48 
 7913      4947485F 
 7914              	.LASF161:
 7915 0d39 6F613043 		.ascii	"oa0CompBypass\000"
 7915      6F6D7042 
ARM GAS  C:\Users\gjl\AppData\Local\Temp\cckcOS93.s 			page 208


 7915      79706173 
 7915      7300
 7916              	.LASF106:
 7917 0d47 63795F65 		.ascii	"cy_en_ctb_switch_register_sel_t\000"
 7917      6E5F6374 
 7917      625F7377 
 7917      69746368 
 7917      5F726567 
 7918              	.LASF24:
 7919 0d67 52455345 		.ascii	"RESERVED1\000"
 7919      52564544 
 7919      3100
 7920              	.LASF29:
 7921 0d71 52455345 		.ascii	"RESERVED2\000"
 7921      52564544 
 7921      3200
 7922              	.LASF32:
 7923 0d7b 52455345 		.ascii	"RESERVED3\000"
 7923      52564544 
 7923      3300
 7924              	.LASF36:
 7925 0d85 52455345 		.ascii	"RESERVED4\000"
 7925      52564544 
 7925      3400
 7926              	.LASF2:
 7927 0d8f 73686F72 		.ascii	"short int\000"
 7927      7420696E 
 7927      7400
 7928              	.LASF134:
 7929 0d99 43595F43 		.ascii	"CY_CTB_OPAMP_COMPENSATION_CAP_MIN\000"
 7929      54425F4F 
 7929      50414D50 
 7929      5F434F4D 
 7929      50454E53 
 7930              	.LASF144:
 7931 0dbb 63795F65 		.ascii	"cy_en_ctb_sample_hold_mode_t\000"
 7931      6E5F6374 
 7931      625F7361 
 7931      6D706C65 
 7931      5F686F6C 
 7932              	.LASF186:
 7933 0dd8 63795F73 		.ascii	"cy_stc_ctb_opamp_config_t\000"
 7933      74635F63 
 7933      74625F6F 
 7933      70616D70 
 7933      5F636F6E 
 7934              	.LASF4:
 7935 0df2 6C6F6E67 		.ascii	"long int\000"
 7935      20696E74 
 7935      00
 7936              	.LASF115:
 7937 0dfb 43595F43 		.ascii	"CY_CTB_SW_OA1_POS_PIN5_MASK\000"
 7937      54425F53 
 7937      575F4F41 
 7937      315F504F 
 7937      535F5049 
 7938              	.LASF242:
ARM GAS  C:\Users\gjl\AppData\Local\Temp\cckcOS93.s 			page 209


 7939 0e17 49544D5F 		.ascii	"ITM_RxBuffer\000"
 7939      52784275 
 7939      66666572 
 7939      00
 7940              	.LASF180:
 7941 0e24 6F615075 		.ascii	"oaPump\000"
 7941      6D7000
 7942              	.LASF62:
 7943 0e2b 43595F53 		.ascii	"CY_SYSANALOG_DEEPSLEEP_IPTAT_1\000"
 7943      5953414E 
 7943      414C4F47 
 7943      5F444545 
 7943      50534C45 
 7944              	.LASF63:
 7945 0e4a 43595F53 		.ascii	"CY_SYSANALOG_DEEPSLEEP_IPTAT_2\000"
 7945      5953414E 
 7945      414C4F47 
 7945      5F444545 
 7945      50534C45 
 7946              	.LASF155:
 7947 0e69 64656570 		.ascii	"deepSleep\000"
 7947      536C6565 
 7947      7000
 7948              	.LASF61:
 7949 0e73 43595F53 		.ascii	"CY_SYSANALOG_DEEPSLEEP_DISABLE\000"
 7949      5953414E 
 7949      414C4F47 
 7949      5F444545 
 7949      50534C45 
 7950              	.LASF118:
 7951 0e92 43595F43 		.ascii	"CY_CTB_SW_OA1_NEG_PIN4_MASK\000"
 7951      54425F53 
 7951      575F4F41 
 7951      315F4E45 
 7951      475F5049 
 7952              	.LASF72:
 7953 0eae 43595F43 		.ascii	"CY_CTB_DEEPSLEEP_ENABLE\000"
 7953      54425F44 
 7953      45455053 
 7953      4C454550 
 7953      5F454E41 
 7954              	.LASF225:
 7955 0ec6 73776974 		.ascii	"switchMask\000"
 7955      63684D61 
 7955      736B00
 7956              	.LASF154:
 7957 0ed1 63795F65 		.ascii	"cy_en_ctb_status_t\000"
 7957      6E5F6374 
 7957      625F7374 
 7957      61747573 
 7957      5F7400
 7958              	.LASF227:
 7959 0ee4 73776974 		.ascii	"switchReg\000"
 7959      63685265 
 7959      6700
 7960              	.LASF108:
 7961 0eee 43595F43 		.ascii	"CY_CTB_SW_OA0_POS_PIN0_MASK\000"
ARM GAS  C:\Users\gjl\AppData\Local\Temp\cckcOS93.s 			page 210


 7961      54425F53 
 7961      575F4F41 
 7961      305F504F 
 7961      535F5049 
 7962              	.LASF220:
 7963 0f0a 7472696D 		.ascii	"trimReg\000"
 7963      52656700 
 7964              	.LASF56:
 7965 0f12 50415353 		.ascii	"PASS_Type\000"
 7965      5F547970 
 7965      6500
 7966              	.LASF185:
 7967 0f1c 6F61436F 		.ascii	"oaCompIntrEn\000"
 7967      6D70496E 
 7967      7472456E 
 7967      00
 7968              	.LASF132:
 7969 0f29 43595F43 		.ascii	"CY_CTB_SW_CTD_CHOLD_LEAKAGE_REDUCTION_MASK\000"
 7969      54425F53 
 7969      575F4354 
 7969      445F4348 
 7969      4F4C445F 
 7970              	.LASF137:
 7971 0f54 43595F43 		.ascii	"CY_CTB_OPAMP_BOOST_DISABLE\000"
 7971      54425F4F 
 7971      50414D50 
 7971      5F424F4F 
 7971      53545F44 
 7972              	.LASF139:
 7973 0f6f 43595F43 		.ascii	"CY_CTB_SH_DISABLE\000"
 7973      54425F53 
 7973      485F4449 
 7973      5341424C 
 7973      4500
 7974              	.LASF168:
 7975 0f81 6F613143 		.ascii	"oa1CompLevel\000"
 7975      6F6D704C 
 7975      6576656C 
 7975      00
 7976              	.LASF18:
 7977 0f8e 434F4D50 		.ascii	"COMP_STAT\000"
 7977      5F535441 
 7977      5400
 7978              	.LASF146:
 7979 0f98 43595F43 		.ascii	"CY_CTB_IPTAT_LOW\000"
 7979      54425F49 
 7979      50544154 
 7979      5F4C4F57 
 7979      00
 7980              	.LASF253:
 7981 0fa9 43795F43 		.ascii	"Cy_CTB_Fast_Opamp1_Opamp10x\000"
 7981      54425F46 
 7981      6173745F 
 7981      4F70616D 
 7981      70315F4F 
 7982              	.LASF184:
 7983 0fc5 6F61436F 		.ascii	"oaCompHyst\000"
ARM GAS  C:\Users\gjl\AppData\Local\Temp\cckcOS93.s 			page 211


 7983      6D704879 
 7983      737400
 7984              	.LASF96:
 7985 0fd0 63795F65 		.ascii	"cy_en_ctb_comp_bypass_t\000"
 7985      6E5F6374 
 7985      625F636F 
 7985      6D705F62 
 7985      79706173 
 7986              	.LASF23:
 7987 0fe8 494E5452 		.ascii	"INTR_MASKED\000"
 7987      5F4D4153 
 7987      4B454400 
 7988              	.LASF26:
 7989 0ff4 4F41305F 		.ascii	"OA0_SW_CLEAR\000"
 7989      53575F43 
 7989      4C454152 
 7989      00
 7990              	.LASF91:
 7991 1001 43595F43 		.ascii	"CY_CTB_COMP_DSI_TRIGGER_OUT_PULSE\000"
 7991      54425F43 
 7991      4F4D505F 
 7991      4453495F 
 7991      54524947 
 7992              	.LASF241:
 7993 1023 636F6D70 		.ascii	"compStatusResult\000"
 7993      53746174 
 7993      75735265 
 7993      73756C74 
 7993      00
 7994              	.LASF14:
 7995 1034 73697A65 		.ascii	"sizetype\000"
 7995      74797065 
 7995      00
 7996              	.LASF7:
 7997 103d 6C6F6E67 		.ascii	"long unsigned int\000"
 7997      20756E73 
 7997      69676E65 
 7997      6420696E 
 7997      7400
 7998              	.LASF52:
 7999 104f 495A5441 		.ascii	"IZTAT_TRIM0\000"
 7999      545F5452 
 7999      494D3000 
 8000              	.LASF260:
 8001 105b 43795F53 		.ascii	"Cy_SysAnalog_GetDeepSleepMode\000"
 8001      7973416E 
 8001      616C6F67 
 8001      5F476574 
 8001      44656570 
 8002              	.LASF87:
 8003 1079 43595F43 		.ascii	"CY_CTB_COMP_EDGE_RISING\000"
 8003      54425F43 
 8003      4F4D505F 
 8003      45444745 
 8003      5F524953 
 8004              	.LASF251:
 8005 1091 43795F43 		.ascii	"Cy_CTB_Fast_Opamp1_Comp\000"
ARM GAS  C:\Users\gjl\AppData\Local\Temp\cckcOS93.s 			page 212


 8005      54425F46 
 8005      6173745F 
 8005      4F70616D 
 8005      70315F43 
 8006              	.LASF11:
 8007 10a9 696E7433 		.ascii	"int32_t\000"
 8007      325F7400 
 8008              	.LASF84:
 8009 10b1 43595F43 		.ascii	"CY_CTB_PUMP_ENABLE\000"
 8009      54425F50 
 8009      554D505F 
 8009      454E4142 
 8009      4C4500
 8010              	.LASF74:
 8011 10c4 43595F43 		.ascii	"CY_CTB_POWER_OFF\000"
 8011      54425F50 
 8011      4F574552 
 8011      5F4F4646 
 8011      00
 8012              	.LASF64:
 8013 10d5 43595F53 		.ascii	"CY_SYSANALOG_DEEPSLEEP_IPTAT_IZTAT_VREF\000"
 8013      5953414E 
 8013      414C4F47 
 8013      5F444545 
 8013      50534C45 
 8014              	.LASF147:
 8015 10fd 63795F65 		.ascii	"cy_en_ctb_iptat_t\000"
 8015      6E5F6374 
 8015      625F6970 
 8015      7461745F 
 8015      7400
 8016              	.LASF243:
 8017 110f 43795F43 		.ascii	"Cy_CTB_Fast_Opamp0_Unused\000"
 8017      54425F46 
 8017      6173745F 
 8017      4F70616D 
 8017      70305F55 
 8018              	.LASF41:
 8019 1129 4F41315F 		.ascii	"OA1_SLOPE_OFFSET_TRIM\000"
 8019      534C4F50 
 8019      455F4F46 
 8019      46534554 
 8019      5F545249 
 8020              	.LASF1:
 8021 113f 756E7369 		.ascii	"unsigned char\000"
 8021      676E6564 
 8021      20636861 
 8021      7200
 8022              	.LASF85:
 8023 114d 63795F65 		.ascii	"cy_en_ctb_pump_t\000"
 8023      6E5F6374 
 8023      625F7075 
 8023      6D705F74 
 8023      00
 8024              	.LASF204:
 8025 115e 636F6E66 		.ascii	"config0\000"
 8025      69673000 
ARM GAS  C:\Users\gjl\AppData\Local\Temp\cckcOS93.s 			page 213


 8026              	.LASF205:
 8027 1166 636F6E66 		.ascii	"config1\000"
 8027      69673100 
 8028              	.LASF247:
 8029 116e 43795F43 		.ascii	"Cy_CTB_Fast_Opamp0_Diffamp\000"
 8029      54425F46 
 8029      6173745F 
 8029      4F70616D 
 8029      70305F44 
 8030              	.LASF86:
 8031 1189 43595F43 		.ascii	"CY_CTB_COMP_EDGE_DISABLE\000"
 8031      54425F43 
 8031      4F4D505F 
 8031      45444745 
 8031      5F444953 
 8032              	.LASF215:
 8033 11a2 70756D70 		.ascii	"pump\000"
 8033      00
 8034              	.LASF80:
 8035 11a7 43595F43 		.ascii	"CY_CTB_MODE_OPAMP10X\000"
 8035      54425F4D 
 8035      4F44455F 
 8035      4F50414D 
 8035      50313058 
 8036              	.LASF121:
 8037 11bc 43595F43 		.ascii	"CY_CTB_SW_OA1_OUT_SARBUS1_MASK\000"
 8037      54425F53 
 8037      575F4F41 
 8037      315F4F55 
 8037      545F5341 
 8038              	.LASF226:
 8039 11db 73746174 		.ascii	"state\000"
 8039      6500
 8040              	.LASF88:
 8041 11e1 43595F43 		.ascii	"CY_CTB_COMP_EDGE_FALLING\000"
 8041      54425F43 
 8041      4F4D505F 
 8041      45444745 
 8041      5F46414C 
 8042              	.LASF114:
 8043 11fa 43595F43 		.ascii	"CY_CTB_SW_OA1_POS_AMUXBUSB_MASK\000"
 8043      54425F53 
 8043      575F4F41 
 8043      315F504F 
 8043      535F414D 
 8044              	.LASF197:
 8045 121a 43795F43 		.ascii	"Cy_CTB_OpampInit\000"
 8045      54425F4F 
 8045      70616D70 
 8045      496E6974 
 8045      00
 8046              	.LASF166:
 8047 122b 6F613150 		.ascii	"oa1Pump\000"
 8047      756D7000 
 8048              	.LASF16:
 8049 1233 4F415F52 		.ascii	"OA_RES0_CTRL\000"
 8049      4553305F 
ARM GAS  C:\Users\gjl\AppData\Local\Temp\cckcOS93.s 			page 214


 8049      4354524C 
 8049      00
 8050              	.LASF57:
 8051 1240 63686172 		.ascii	"char_t\000"
 8051      5F7400
 8052              	.LASF214:
 8053 1247 706F7765 		.ascii	"power\000"
 8053      7200
 8054              	.LASF181:
 8055 124d 6F61436F 		.ascii	"oaCompEdge\000"
 8055      6D704564 
 8055      676500
 8056              	.LASF0:
 8057 1258 7369676E 		.ascii	"signed char\000"
 8057      65642063 
 8057      68617200 
 8058              	.LASF48:
 8059 1264 56524546 		.ascii	"VREF_TRIM0\000"
 8059      5F545249 
 8059      4D3000
 8060              	.LASF49:
 8061 126f 56524546 		.ascii	"VREF_TRIM1\000"
 8061      5F545249 
 8061      4D3100
 8062              	.LASF3:
 8063 127a 73686F72 		.ascii	"short unsigned int\000"
 8063      7420756E 
 8063      7369676E 
 8063      65642069 
 8063      6E7400
 8064              	.LASF51:
 8065 128d 56524546 		.ascii	"VREF_TRIM3\000"
 8065      5F545249 
 8065      4D3300
 8066              	.LASF40:
 8067 1298 4F41315F 		.ascii	"OA1_OFFSET_TRIM\000"
 8067      4F464653 
 8067      45545F54 
 8067      52494D00 
 8068              	.LASF223:
 8069 12a8 43795F43 		.ascii	"Cy_CTB_SetAnalogSwitch\000"
 8069      54425F53 
 8069      6574416E 
 8069      616C6F67 
 8069      53776974 
 8070              	.LASF143:
 8071 12bf 43595F43 		.ascii	"CY_CTB_SH_HOLD\000"
 8071      54425F53 
 8071      485F484F 
 8071      4C4400
 8072              	.LASF159:
 8073 12ce 6F613043 		.ascii	"oa0CompEdge\000"
 8073      6F6D7045 
 8073      64676500 
 8074              	.LASF202:
 8075 12da 6465496E 		.ascii	"deInitRouting\000"
 8075      6974526F 
ARM GAS  C:\Users\gjl\AppData\Local\Temp\cckcOS93.s 			page 215


 8075      7574696E 
 8075      6700
 8076              	.LASF172:
 8077 12e8 636F6E66 		.ascii	"configRouting\000"
 8077      6967526F 
 8077      7574696E 
 8077      6700
 8078              	.LASF31:
 8079 12f6 4354445F 		.ascii	"CTD_SW_CLEAR\000"
 8079      53575F43 
 8079      4C454152 
 8079      00
 8080              	.LASF99:
 8081 1303 63795F65 		.ascii	"cy_en_ctb_comp_hyst_t\000"
 8081      6E5F6374 
 8081      625F636F 
 8081      6D705F68 
 8081      7973745F 
 8082              	.LASF33:
 8083 1319 4354425F 		.ascii	"CTB_SW_DS_CTRL\000"
 8083      53575F44 
 8083      535F4354 
 8083      524C00
 8084              	.LASF206:
 8085 1328 63746243 		.ascii	"ctbCtrl\000"
 8085      74726C00 
 8086              	.LASF43:
 8087 1330 4354424D 		.ascii	"CTBM_Type\000"
 8087      5F547970 
 8087      6500
 8088              	.LASF116:
 8089 133a 43595F43 		.ascii	"CY_CTB_SW_OA1_POS_PIN7_MASK\000"
 8089      54425F53 
 8089      575F4F41 
 8089      315F504F 
 8089      535F5049 
 8090              	.LASF15:
 8091 1356 4354425F 		.ascii	"CTB_CTRL\000"
 8091      4354524C 
 8091      00
 8092              	.LASF38:
 8093 135f 4F41305F 		.ascii	"OA0_SLOPE_OFFSET_TRIM\000"
 8093      534C4F50 
 8093      455F4F46 
 8093      46534554 
 8093      5F545249 
 8094              	.LASF179:
 8095 1375 6F614D6F 		.ascii	"oaMode\000"
 8095      646500
 8096              	.LASF156:
 8097 137c 6F613050 		.ascii	"oa0Power\000"
 8097      6F776572 
 8097      00
 8098              	.LASF240:
 8099 1385 43795F43 		.ascii	"Cy_CTB_CompGetStatus\000"
 8099      54425F43 
 8099      6F6D7047 
ARM GAS  C:\Users\gjl\AppData\Local\Temp\cckcOS93.s 			page 216


 8099      65745374 
 8099      61747573 
 8100              	.LASF92:
 8101 139a 43595F43 		.ascii	"CY_CTB_COMP_DSI_TRIGGER_OUT_LEVEL\000"
 8101      54425F43 
 8101      4F4D505F 
 8101      4453495F 
 8101      54524947 
 8102              	.LASF98:
 8103 13bc 43595F43 		.ascii	"CY_CTB_COMP_HYST_10MV\000"
 8103      54425F43 
 8103      4F4D505F 
 8103      48595354 
 8103      5F31304D 
 8104              	.LASF221:
 8105 13d2 43795F43 		.ascii	"Cy_CTB_OpampSetSlope\000"
 8105      54425F4F 
 8105      70616D70 
 8105      53657453 
 8105      6C6F7065 
 8106              	.LASF28:
 8107 13e7 4F41315F 		.ascii	"OA1_SW_CLEAR\000"
 8107      53575F43 
 8107      4C454152 
 8107      00
 8108              		.ident	"GCC: (GNU Tools for ARM Embedded Processors) 5.4.1 20160609 (release) [ARM/embedded-5-bran
