ARM GAS  C:\Users\gjl\AppData\Local\Temp\ccG9SHX7.s 			page 1


   1              		.syntax unified
   2              		.cpu cortex-m4
   3              		.eabi_attribute 27, 1
   4              		.fpu fpv4-sp-d16
   5              		.eabi_attribute 20, 1
   6              		.eabi_attribute 21, 1
   7              		.eabi_attribute 23, 3
   8              		.eabi_attribute 24, 1
   9              		.eabi_attribute 25, 1
  10              		.eabi_attribute 26, 1
  11              		.eabi_attribute 30, 1
  12              		.eabi_attribute 34, 1
  13              		.eabi_attribute 18, 4
  14              		.thumb
  15              		.syntax unified
  16              		.file	"cy_sar.c"
  17              		.text
  18              	.Ltext0:
  19              		.cfi_sections	.debug_frame
  20              		.section	.text.Cy_SAR_Init,"ax",%progbits
  21              		.align	2
  22              		.global	Cy_SAR_Init
  23              		.thumb
  24              		.thumb_func
  25              		.type	Cy_SAR_Init, %function
  26              	Cy_SAR_Init:
  27              	.LFB184:
  28              		.file 1 "Generated_Source\\PSoC6\\pdl\\drivers\\peripheral\\sar\\cy_sar.c"
   1:Generated_Source\PSoC6\pdl\drivers\peripheral\sar/cy_sar.c **** /***************************************************************************//**
   2:Generated_Source\PSoC6\pdl\drivers\peripheral\sar/cy_sar.c **** * \file cy_sar.c
   3:Generated_Source\PSoC6\pdl\drivers\peripheral\sar/cy_sar.c **** * \version 1.10
   4:Generated_Source\PSoC6\pdl\drivers\peripheral\sar/cy_sar.c **** *
   5:Generated_Source\PSoC6\pdl\drivers\peripheral\sar/cy_sar.c **** * Provides the public functions for the API for the SAR driver.
   6:Generated_Source\PSoC6\pdl\drivers\peripheral\sar/cy_sar.c **** *
   7:Generated_Source\PSoC6\pdl\drivers\peripheral\sar/cy_sar.c **** ********************************************************************************
   8:Generated_Source\PSoC6\pdl\drivers\peripheral\sar/cy_sar.c **** * \copyright
   9:Generated_Source\PSoC6\pdl\drivers\peripheral\sar/cy_sar.c **** * Copyright 2017-2018, Cypress Semiconductor Corporation. All rights reserved.
  10:Generated_Source\PSoC6\pdl\drivers\peripheral\sar/cy_sar.c **** * You may use this file only in accordance with the license, terms, conditions,
  11:Generated_Source\PSoC6\pdl\drivers\peripheral\sar/cy_sar.c **** * disclaimers, and limitations in the end user license agreement accompanying
  12:Generated_Source\PSoC6\pdl\drivers\peripheral\sar/cy_sar.c **** * the software package with which this file was provided.
  13:Generated_Source\PSoC6\pdl\drivers\peripheral\sar/cy_sar.c **** *******************************************************************************/
  14:Generated_Source\PSoC6\pdl\drivers\peripheral\sar/cy_sar.c **** #include "cy_sar.h"
  15:Generated_Source\PSoC6\pdl\drivers\peripheral\sar/cy_sar.c **** 
  16:Generated_Source\PSoC6\pdl\drivers\peripheral\sar/cy_sar.c **** #if defined(__cplusplus)
  17:Generated_Source\PSoC6\pdl\drivers\peripheral\sar/cy_sar.c **** extern "C" {
  18:Generated_Source\PSoC6\pdl\drivers\peripheral\sar/cy_sar.c **** #endif
  19:Generated_Source\PSoC6\pdl\drivers\peripheral\sar/cy_sar.c **** 
  20:Generated_Source\PSoC6\pdl\drivers\peripheral\sar/cy_sar.c **** static cy_stc_sar_state_backup_t enabledBeforeSleep =
  21:Generated_Source\PSoC6\pdl\drivers\peripheral\sar/cy_sar.c **** {
  22:Generated_Source\PSoC6\pdl\drivers\peripheral\sar/cy_sar.c ****     0uL,
  23:Generated_Source\PSoC6\pdl\drivers\peripheral\sar/cy_sar.c ****     0uL
  24:Generated_Source\PSoC6\pdl\drivers\peripheral\sar/cy_sar.c **** };
  25:Generated_Source\PSoC6\pdl\drivers\peripheral\sar/cy_sar.c **** 
  26:Generated_Source\PSoC6\pdl\drivers\peripheral\sar/cy_sar.c **** volatile int16_t Cy_SAR_offset[CY_SAR_MAX_NUM_CHANNELS];
  27:Generated_Source\PSoC6\pdl\drivers\peripheral\sar/cy_sar.c **** volatile int32_t Cy_SAR_countsPer10Volt[CY_SAR_MAX_NUM_CHANNELS];
  28:Generated_Source\PSoC6\pdl\drivers\peripheral\sar/cy_sar.c **** 
  29:Generated_Source\PSoC6\pdl\drivers\peripheral\sar/cy_sar.c **** /*******************************************************************************
ARM GAS  C:\Users\gjl\AppData\Local\Temp\ccG9SHX7.s 			page 2


  30:Generated_Source\PSoC6\pdl\drivers\peripheral\sar/cy_sar.c **** * Function Name: Cy_SAR_Init
  31:Generated_Source\PSoC6\pdl\drivers\peripheral\sar/cy_sar.c **** ****************************************************************************//**
  32:Generated_Source\PSoC6\pdl\drivers\peripheral\sar/cy_sar.c **** *
  33:Generated_Source\PSoC6\pdl\drivers\peripheral\sar/cy_sar.c **** * Initialize all SAR configuration registers.
  34:Generated_Source\PSoC6\pdl\drivers\peripheral\sar/cy_sar.c **** * If routing is to be configured, all switches will be cleared before
  35:Generated_Source\PSoC6\pdl\drivers\peripheral\sar/cy_sar.c **** * being initialized.
  36:Generated_Source\PSoC6\pdl\drivers\peripheral\sar/cy_sar.c **** *
  37:Generated_Source\PSoC6\pdl\drivers\peripheral\sar/cy_sar.c **** * \param base
  38:Generated_Source\PSoC6\pdl\drivers\peripheral\sar/cy_sar.c **** * Pointer to structure describing registers
  39:Generated_Source\PSoC6\pdl\drivers\peripheral\sar/cy_sar.c **** *
  40:Generated_Source\PSoC6\pdl\drivers\peripheral\sar/cy_sar.c **** * \param config
  41:Generated_Source\PSoC6\pdl\drivers\peripheral\sar/cy_sar.c **** * Pointer to structure containing configuration data. See \ref cy_stc_sar_config_t
  42:Generated_Source\PSoC6\pdl\drivers\peripheral\sar/cy_sar.c **** * and guidance in the \ref group_sar_initialization section.
  43:Generated_Source\PSoC6\pdl\drivers\peripheral\sar/cy_sar.c **** *
  44:Generated_Source\PSoC6\pdl\drivers\peripheral\sar/cy_sar.c **** * \return
  45:Generated_Source\PSoC6\pdl\drivers\peripheral\sar/cy_sar.c **** * - \ref CY_SAR_SUCCESS : initialization complete
  46:Generated_Source\PSoC6\pdl\drivers\peripheral\sar/cy_sar.c **** * - \ref CY_SAR_BAD_PARAM : input pointers are null, initialization incomplete
  47:Generated_Source\PSoC6\pdl\drivers\peripheral\sar/cy_sar.c **** *
  48:Generated_Source\PSoC6\pdl\drivers\peripheral\sar/cy_sar.c **** * \funcusage
  49:Generated_Source\PSoC6\pdl\drivers\peripheral\sar/cy_sar.c **** *
  50:Generated_Source\PSoC6\pdl\drivers\peripheral\sar/cy_sar.c **** * \snippet sar_sut_01.cydsn/main_cm0p.c SNIPPET_SAR_INIT_CUSTOM
  51:Generated_Source\PSoC6\pdl\drivers\peripheral\sar/cy_sar.c **** *
  52:Generated_Source\PSoC6\pdl\drivers\peripheral\sar/cy_sar.c **** *******************************************************************************/
  53:Generated_Source\PSoC6\pdl\drivers\peripheral\sar/cy_sar.c **** cy_en_sar_status_t Cy_SAR_Init(SAR_Type *base, const cy_stc_sar_config_t *config)
  54:Generated_Source\PSoC6\pdl\drivers\peripheral\sar/cy_sar.c **** {
  29              		.loc 1 54 0
  30              		.cfi_startproc
  31              		@ args = 0, pretend = 0, frame = 0
  32              		@ frame_needed = 0, uses_anonymous_args = 0
  33              	.LVL0:
  34 0000 2DE9F843 		push	{r3, r4, r5, r6, r7, r8, r9, lr}
  35              		.cfi_def_cfa_offset 32
  36              		.cfi_offset 3, -32
  37              		.cfi_offset 4, -28
  38              		.cfi_offset 5, -24
  39              		.cfi_offset 6, -20
  40              		.cfi_offset 7, -16
  41              		.cfi_offset 8, -12
  42              		.cfi_offset 9, -8
  43              		.cfi_offset 14, -4
  44 0004 0E46     		mov	r6, r1
  55:Generated_Source\PSoC6\pdl\drivers\peripheral\sar/cy_sar.c ****     CY_ASSERT_L1(NULL != base);
  45              		.loc 1 55 0
  46 0006 0746     		mov	r7, r0
  47 0008 18B9     		cbnz	r0, .L2
  48              		.loc 1 55 0 is_stmt 0 discriminator 1
  49 000a 3721     		movs	r1, #55
  50              	.LVL1:
  51 000c 6F48     		ldr	r0, .L27
  52              	.LVL2:
  53 000e FFF7FEFF 		bl	Cy_SysLib_AssertFailed
  54              	.LVL3:
  55              	.L2:
  56:Generated_Source\PSoC6\pdl\drivers\peripheral\sar/cy_sar.c ****     CY_ASSERT_L1(NULL != config);
  56              		.loc 1 56 0 is_stmt 1
  57 0012 1EB9     		cbnz	r6, .L3
  58              		.loc 1 56 0 is_stmt 0 discriminator 1
ARM GAS  C:\Users\gjl\AppData\Local\Temp\ccG9SHX7.s 			page 3


  59 0014 3821     		movs	r1, #56
  60 0016 6D48     		ldr	r0, .L27
  61 0018 FFF7FEFF 		bl	Cy_SysLib_AssertFailed
  62              	.LVL4:
  63              	.L3:
  57:Generated_Source\PSoC6\pdl\drivers\peripheral\sar/cy_sar.c **** 
  58:Generated_Source\PSoC6\pdl\drivers\peripheral\sar/cy_sar.c ****     cy_en_sar_status_t result;
  59:Generated_Source\PSoC6\pdl\drivers\peripheral\sar/cy_sar.c ****     uint8_t chan;
  60:Generated_Source\PSoC6\pdl\drivers\peripheral\sar/cy_sar.c ****     int32_t counts;
  61:Generated_Source\PSoC6\pdl\drivers\peripheral\sar/cy_sar.c ****     bool vrefNegSelect;
  62:Generated_Source\PSoC6\pdl\drivers\peripheral\sar/cy_sar.c ****     bool singleEndedSigned;
  63:Generated_Source\PSoC6\pdl\drivers\peripheral\sar/cy_sar.c ****     bool chanSingleEnded;
  64:Generated_Source\PSoC6\pdl\drivers\peripheral\sar/cy_sar.c **** 
  65:Generated_Source\PSoC6\pdl\drivers\peripheral\sar/cy_sar.c ****     if ((NULL == base) || (NULL == config))
  64              		.loc 1 65 0 is_stmt 1
  65 001c 002F     		cmp	r7, #0
  66 001e 00F0CF80 		beq	.L24
  67              		.loc 1 65 0 is_stmt 0 discriminator 1
  68 0022 002E     		cmp	r6, #0
  69 0024 00F0CF80 		beq	.L25
  66:Generated_Source\PSoC6\pdl\drivers\peripheral\sar/cy_sar.c ****     {
  67:Generated_Source\PSoC6\pdl\drivers\peripheral\sar/cy_sar.c ****         result = CY_SAR_BAD_PARAM;
  68:Generated_Source\PSoC6\pdl\drivers\peripheral\sar/cy_sar.c ****     }
  69:Generated_Source\PSoC6\pdl\drivers\peripheral\sar/cy_sar.c ****     else
  70:Generated_Source\PSoC6\pdl\drivers\peripheral\sar/cy_sar.c ****     {
  71:Generated_Source\PSoC6\pdl\drivers\peripheral\sar/cy_sar.c ****         CY_ASSERT_L2(CY_SAR_CTRL(config->ctrl));
  70              		.loc 1 71 0 is_stmt 1
  71 0028 3268     		ldr	r2, [r6]
  72 002a 694B     		ldr	r3, .L27+4
  73 002c 1340     		ands	r3, r3, r2
  74 002e 1BB1     		cbz	r3, .L5
  75              		.loc 1 71 0 is_stmt 0 discriminator 1
  76 0030 4721     		movs	r1, #71
  77 0032 6648     		ldr	r0, .L27
  78 0034 FFF7FEFF 		bl	Cy_SysLib_AssertFailed
  79              	.LVL5:
  80              	.L5:
  72:Generated_Source\PSoC6\pdl\drivers\peripheral\sar/cy_sar.c ****         CY_ASSERT_L2(CY_SAR_SAMPLE_CTRL(config->sampleCtrl));
  81              		.loc 1 72 0 is_stmt 1
  82 0038 7268     		ldr	r2, [r6, #4]
  83 003a 664B     		ldr	r3, .L27+8
  84 003c 1340     		ands	r3, r3, r2
  85 003e 1BB1     		cbz	r3, .L6
  86              		.loc 1 72 0 is_stmt 0 discriminator 1
  87 0040 4821     		movs	r1, #72
  88 0042 6248     		ldr	r0, .L27
  89 0044 FFF7FEFF 		bl	Cy_SysLib_AssertFailed
  90              	.LVL6:
  91              	.L6:
  73:Generated_Source\PSoC6\pdl\drivers\peripheral\sar/cy_sar.c ****         CY_ASSERT_L2(CY_SAR_SAMPLE_TIME(config->sampleTime01));
  92              		.loc 1 73 0 is_stmt 1
  93 0048 B368     		ldr	r3, [r6, #8]
  94 004a 13F0FC2F 		tst	r3, #-67044352
  95 004e 03D0     		beq	.L7
  96              		.loc 1 73 0 is_stmt 0 discriminator 1
  97 0050 4921     		movs	r1, #73
  98 0052 5E48     		ldr	r0, .L27
ARM GAS  C:\Users\gjl\AppData\Local\Temp\ccG9SHX7.s 			page 4


  99 0054 FFF7FEFF 		bl	Cy_SysLib_AssertFailed
 100              	.LVL7:
 101              	.L7:
  74:Generated_Source\PSoC6\pdl\drivers\peripheral\sar/cy_sar.c ****         CY_ASSERT_L2(CY_SAR_SAMPLE_TIME(config->sampleTime23));
 102              		.loc 1 74 0 is_stmt 1
 103 0058 F368     		ldr	r3, [r6, #12]
 104 005a 13F0FC2F 		tst	r3, #-67044352
 105 005e 03D0     		beq	.L8
 106              		.loc 1 74 0 is_stmt 0 discriminator 1
 107 0060 4A21     		movs	r1, #74
 108 0062 5A48     		ldr	r0, .L27
 109 0064 FFF7FEFF 		bl	Cy_SysLib_AssertFailed
 110              	.LVL8:
 111              	.L8:
  75:Generated_Source\PSoC6\pdl\drivers\peripheral\sar/cy_sar.c ****         CY_ASSERT_L3(CY_SAR_RANGECOND(config->rangeCond));
 112              		.loc 1 75 0 is_stmt 1
 113 0068 337D     		ldrb	r3, [r6, #20]	@ zero_extendqisi2
 114 006a 032B     		cmp	r3, #3
 115 006c 03D9     		bls	.L9
 116              		.loc 1 75 0 is_stmt 0 discriminator 1
 117 006e 4B21     		movs	r1, #75
 118 0070 5648     		ldr	r0, .L27
 119 0072 FFF7FEFF 		bl	Cy_SysLib_AssertFailed
 120              	.LVL9:
 121              	.L9:
  76:Generated_Source\PSoC6\pdl\drivers\peripheral\sar/cy_sar.c ****         CY_ASSERT_L2(CY_SAR_CHANMASK(config->chanEn));
 122              		.loc 1 76 0 is_stmt 1
 123 0076 B369     		ldr	r3, [r6, #24]
 124 0078 B3F5803F 		cmp	r3, #65536
 125 007c 03D3     		bcc	.L10
 126              		.loc 1 76 0 is_stmt 0 discriminator 1
 127 007e 4C21     		movs	r1, #76
 128 0080 5248     		ldr	r0, .L27
 129 0082 FFF7FEFF 		bl	Cy_SysLib_AssertFailed
 130              	.LVL10:
 131              	.L10:
  77:Generated_Source\PSoC6\pdl\drivers\peripheral\sar/cy_sar.c ****         CY_ASSERT_L2(CY_SAR_INTRMASK(config->intrMask));
 132              		.loc 1 77 0 is_stmt 1
 133 0086 F36D     		ldr	r3, [r6, #92]
 134 0088 072B     		cmp	r3, #7
 135 008a 03D9     		bls	.L11
 136              		.loc 1 77 0 is_stmt 0 discriminator 1
 137 008c 4D21     		movs	r1, #77
 138 008e 4F48     		ldr	r0, .L27
 139 0090 FFF7FEFF 		bl	Cy_SysLib_AssertFailed
 140              	.LVL11:
 141              	.L11:
  78:Generated_Source\PSoC6\pdl\drivers\peripheral\sar/cy_sar.c ****         CY_ASSERT_L2(CY_SAR_CHANMASK(config->satIntrMask));
 142              		.loc 1 78 0 is_stmt 1
 143 0094 336E     		ldr	r3, [r6, #96]
 144 0096 B3F5803F 		cmp	r3, #65536
 145 009a 03D3     		bcc	.L12
 146              		.loc 1 78 0 is_stmt 0 discriminator 1
 147 009c 4E21     		movs	r1, #78
 148 009e 4B48     		ldr	r0, .L27
 149 00a0 FFF7FEFF 		bl	Cy_SysLib_AssertFailed
 150              	.LVL12:
ARM GAS  C:\Users\gjl\AppData\Local\Temp\ccG9SHX7.s 			page 5


 151              	.L12:
  79:Generated_Source\PSoC6\pdl\drivers\peripheral\sar/cy_sar.c ****         CY_ASSERT_L2(CY_SAR_CHANMASK(config->rangeIntrMask));
 152              		.loc 1 79 0 is_stmt 1
 153 00a4 736E     		ldr	r3, [r6, #100]
 154 00a6 B3F5803F 		cmp	r3, #65536
 155 00aa 03D3     		bcc	.L13
 156              		.loc 1 79 0 is_stmt 0 discriminator 1
 157 00ac 4F21     		movs	r1, #79
 158 00ae 4748     		ldr	r0, .L27
 159 00b0 FFF7FEFF 		bl	Cy_SysLib_AssertFailed
 160              	.LVL13:
 161              	.L13:
  80:Generated_Source\PSoC6\pdl\drivers\peripheral\sar/cy_sar.c **** 
  81:Generated_Source\PSoC6\pdl\drivers\peripheral\sar/cy_sar.c ****         base->SAMPLE_CTRL = config->sampleCtrl;
 162              		.loc 1 81 0 is_stmt 1
 163 00b4 7368     		ldr	r3, [r6, #4]
 164 00b6 7B60     		str	r3, [r7, #4]
  82:Generated_Source\PSoC6\pdl\drivers\peripheral\sar/cy_sar.c ****         base->SAMPLE_TIME01 = config->sampleTime01;
 165              		.loc 1 82 0
 166 00b8 B368     		ldr	r3, [r6, #8]
 167 00ba 3B61     		str	r3, [r7, #16]
  83:Generated_Source\PSoC6\pdl\drivers\peripheral\sar/cy_sar.c ****         base->SAMPLE_TIME23 = config->sampleTime23;
 168              		.loc 1 83 0
 169 00bc F368     		ldr	r3, [r6, #12]
 170 00be 7B61     		str	r3, [r7, #20]
  84:Generated_Source\PSoC6\pdl\drivers\peripheral\sar/cy_sar.c ****         base->RANGE_THRES = config->rangeThres;
 171              		.loc 1 84 0
 172 00c0 3369     		ldr	r3, [r6, #16]
 173 00c2 BB61     		str	r3, [r7, #24]
  85:Generated_Source\PSoC6\pdl\drivers\peripheral\sar/cy_sar.c ****         base->RANGE_COND = (uint32_t)config->rangeCond << SAR_RANGE_COND_RANGE_COND_Pos;
 174              		.loc 1 85 0
 175 00c4 337D     		ldrb	r3, [r6, #20]	@ zero_extendqisi2
 176 00c6 9B07     		lsls	r3, r3, #30
 177 00c8 FB61     		str	r3, [r7, #28]
  86:Generated_Source\PSoC6\pdl\drivers\peripheral\sar/cy_sar.c ****         base->CHAN_EN = config->chanEn;
 178              		.loc 1 86 0
 179 00ca B369     		ldr	r3, [r6, #24]
 180 00cc 3B62     		str	r3, [r7, #32]
  87:Generated_Source\PSoC6\pdl\drivers\peripheral\sar/cy_sar.c **** 
  88:Generated_Source\PSoC6\pdl\drivers\peripheral\sar/cy_sar.c ****         /* Check whether NEG_SEL is set for VREF */
  89:Generated_Source\PSoC6\pdl\drivers\peripheral\sar/cy_sar.c ****         vrefNegSelect = ((uint32_t)CY_SAR_NEG_SEL_VREF == (config->ctrl & SAR_CTRL_NEG_SEL_Msk))? t
 181              		.loc 1 89 0
 182 00ce 3368     		ldr	r3, [r6]
 183 00d0 03F46068 		and	r8, r3, #3584
 184              	.LVL14:
  90:Generated_Source\PSoC6\pdl\drivers\peripheral\sar/cy_sar.c ****         /* Check whether single ended channels are set to signed */
  91:Generated_Source\PSoC6\pdl\drivers\peripheral\sar/cy_sar.c ****         singleEndedSigned = (SAR_SAMPLE_CTRL_SINGLE_ENDED_SIGNED_Msk == (config->sampleCtrl & SAR_S
 185              		.loc 1 91 0
 186 00d4 7368     		ldr	r3, [r6, #4]
 187 00d6 03F00409 		and	r9, r3, #4
 188              	.LVL15:
  92:Generated_Source\PSoC6\pdl\drivers\peripheral\sar/cy_sar.c **** 
  93:Generated_Source\PSoC6\pdl\drivers\peripheral\sar/cy_sar.c ****         for (chan = 0u; chan < CY_SAR_MAX_NUM_CHANNELS; chan++)
 189              		.loc 1 93 0
 190 00da 0024     		movs	r4, #0
 191 00dc 35E0     		b	.L14
 192              	.LVL16:
ARM GAS  C:\Users\gjl\AppData\Local\Temp\ccG9SHX7.s 			page 6


 193              	.L18:
  94:Generated_Source\PSoC6\pdl\drivers\peripheral\sar/cy_sar.c ****         {
  95:Generated_Source\PSoC6\pdl\drivers\peripheral\sar/cy_sar.c ****             CY_ASSERT_L2(CY_SAR_CHAN_CONFIG(config->chanConfig[chan]));
 194              		.loc 1 95 0
 195 00de 2546     		mov	r5, r4
 196 00e0 A31D     		adds	r3, r4, #6
 197 00e2 06EB8303 		add	r3, r6, r3, lsl #2
 198 00e6 5A68     		ldr	r2, [r3, #4]
 199 00e8 3B4B     		ldr	r3, .L27+12
 200 00ea 1340     		ands	r3, r3, r2
 201 00ec 1BB1     		cbz	r3, .L15
 202              		.loc 1 95 0 is_stmt 0 discriminator 1
 203 00ee 5F21     		movs	r1, #95
 204 00f0 3648     		ldr	r0, .L27
 205 00f2 FFF7FEFF 		bl	Cy_SysLib_AssertFailed
 206              	.LVL17:
 207              	.L15:
  96:Generated_Source\PSoC6\pdl\drivers\peripheral\sar/cy_sar.c **** 
  97:Generated_Source\PSoC6\pdl\drivers\peripheral\sar/cy_sar.c ****             base->CHAN_CONFIG[chan] = config->chanConfig[chan];
 208              		.loc 1 97 0 is_stmt 1
 209 00f6 AB1D     		adds	r3, r5, #6
 210 00f8 06EB8303 		add	r3, r6, r3, lsl #2
 211 00fc 5968     		ldr	r1, [r3, #4]
 212 00fe 05F12002 		add	r2, r5, #32
 213 0102 47F82210 		str	r1, [r7, r2, lsl #2]
 214              	.LVL18:
  98:Generated_Source\PSoC6\pdl\drivers\peripheral\sar/cy_sar.c **** 
  99:Generated_Source\PSoC6\pdl\drivers\peripheral\sar/cy_sar.c ****             counts = (int32_t) CY_SAR_WRK_MAX_12BIT;
 100:Generated_Source\PSoC6\pdl\drivers\peripheral\sar/cy_sar.c **** 
 101:Generated_Source\PSoC6\pdl\drivers\peripheral\sar/cy_sar.c ****             /* For signed single ended channels with NEG_SEL set to VREF,
 102:Generated_Source\PSoC6\pdl\drivers\peripheral\sar/cy_sar.c ****              * set the offset to minus half scale to convert results to unsigned format */
 103:Generated_Source\PSoC6\pdl\drivers\peripheral\sar/cy_sar.c ****             chanSingleEnded = (0uL == (config->chanConfig[chan] & (SAR_CHAN_CONFIG_DIFFERENTIAL_EN_
 215              		.loc 1 103 0
 216 0106 5B68     		ldr	r3, [r3, #4]
 217              	.LVL19:
 104:Generated_Source\PSoC6\pdl\drivers\peripheral\sar/cy_sar.c ****             if (chanSingleEnded && vrefNegSelect && singleEndedSigned)
 218              		.loc 1 104 0
 219 0108 13F0012F 		tst	r3, #16777472
 220 010c 0BD1     		bne	.L16
 221              		.loc 1 104 0 is_stmt 0 discriminator 1
 222 010e B8F5606F 		cmp	r8, #3584
 223 0112 08D1     		bne	.L16
 224              		.loc 1 104 0 discriminator 2
 225 0114 B9F1000F 		cmp	r9, #0
 226 0118 05D0     		beq	.L16
 105:Generated_Source\PSoC6\pdl\drivers\peripheral\sar/cy_sar.c ****             {
 106:Generated_Source\PSoC6\pdl\drivers\peripheral\sar/cy_sar.c ****                 Cy_SAR_offset[chan] = (int16_t) (counts / -2);
 227              		.loc 1 106 0 is_stmt 1
 228 011a 4FF47842 		mov	r2, #63488
 229 011e 2F4B     		ldr	r3, .L27+16
 230              	.LVL20:
 231 0120 23F81520 		strh	r2, [r3, r5, lsl #1]	@ movhi
 232              	.LVL21:
 233 0124 03E0     		b	.L17
 234              	.LVL22:
 235              	.L16:
 107:Generated_Source\PSoC6\pdl\drivers\peripheral\sar/cy_sar.c ****             }
ARM GAS  C:\Users\gjl\AppData\Local\Temp\ccG9SHX7.s 			page 7


 108:Generated_Source\PSoC6\pdl\drivers\peripheral\sar/cy_sar.c ****             else
 109:Generated_Source\PSoC6\pdl\drivers\peripheral\sar/cy_sar.c ****             {
 110:Generated_Source\PSoC6\pdl\drivers\peripheral\sar/cy_sar.c ****                 Cy_SAR_offset[chan] = 0;
 236              		.loc 1 110 0
 237 0126 0022     		movs	r2, #0
 238 0128 2C4B     		ldr	r3, .L27+16
 239              	.LVL23:
 240 012a 23F81520 		strh	r2, [r3, r5, lsl #1]	@ movhi
 241              	.LVL24:
 242              	.L17:
 111:Generated_Source\PSoC6\pdl\drivers\peripheral\sar/cy_sar.c ****             }
 112:Generated_Source\PSoC6\pdl\drivers\peripheral\sar/cy_sar.c **** 
 113:Generated_Source\PSoC6\pdl\drivers\peripheral\sar/cy_sar.c ****             /* Calculate gain in counts per 10 volts with rounding */
 114:Generated_Source\PSoC6\pdl\drivers\peripheral\sar/cy_sar.c ****             Cy_SAR_countsPer10Volt[chan] = (int16_t)(((counts * CY_SAR_10MV_COUNTS) + (int32_t)conf
 243              		.loc 1 114 0 discriminator 2
 244 012e 726F     		ldr	r2, [r6, #116]
 245 0130 02F11C73 		add	r3, r2, #40894464
 246 0134 03F58033 		add	r3, r3, #65536
 247 0138 5200     		lsls	r2, r2, #1
 248 013a 93FBF2F3 		sdiv	r3, r3, r2
 249 013e 1BB2     		sxth	r3, r3
 250 0140 274A     		ldr	r2, .L27+20
 251 0142 42F82530 		str	r3, [r2, r5, lsl #2]
  93:Generated_Source\PSoC6\pdl\drivers\peripheral\sar/cy_sar.c ****         {
 252              		.loc 1 93 0 discriminator 2
 253 0146 0134     		adds	r4, r4, #1
 254              	.LVL25:
 255 0148 E4B2     		uxtb	r4, r4
 256              	.LVL26:
 257              	.L14:
  93:Generated_Source\PSoC6\pdl\drivers\peripheral\sar/cy_sar.c ****         {
 258              		.loc 1 93 0 is_stmt 0 discriminator 1
 259 014a 0F2C     		cmp	r4, #15
 260 014c C7D9     		bls	.L18
 115:Generated_Source\PSoC6\pdl\drivers\peripheral\sar/cy_sar.c ****         }
 116:Generated_Source\PSoC6\pdl\drivers\peripheral\sar/cy_sar.c ****         base->INTR_MASK = config->intrMask;
 261              		.loc 1 116 0 is_stmt 1
 262 014e F36D     		ldr	r3, [r6, #92]
 263 0150 C7F81832 		str	r3, [r7, #536]
 117:Generated_Source\PSoC6\pdl\drivers\peripheral\sar/cy_sar.c ****         base->SATURATE_INTR_MASK = config->satIntrMask;
 264              		.loc 1 117 0
 265 0154 336E     		ldr	r3, [r6, #96]
 266 0156 C7F82832 		str	r3, [r7, #552]
 118:Generated_Source\PSoC6\pdl\drivers\peripheral\sar/cy_sar.c ****         base->RANGE_INTR_MASK = config->rangeIntrMask;
 267              		.loc 1 118 0
 268 015a 736E     		ldr	r3, [r6, #100]
 269 015c C7F83832 		str	r3, [r7, #568]
 119:Generated_Source\PSoC6\pdl\drivers\peripheral\sar/cy_sar.c **** 
 120:Generated_Source\PSoC6\pdl\drivers\peripheral\sar/cy_sar.c ****         /* Set routing related registers if enabled */
 121:Generated_Source\PSoC6\pdl\drivers\peripheral\sar/cy_sar.c ****         if (true == config->configRouting)
 270              		.loc 1 121 0
 271 0160 96F87030 		ldrb	r3, [r6, #112]	@ zero_extendqisi2
 272 0164 DBB1     		cbz	r3, .L19
 122:Generated_Source\PSoC6\pdl\drivers\peripheral\sar/cy_sar.c ****         {
 123:Generated_Source\PSoC6\pdl\drivers\peripheral\sar/cy_sar.c ****             CY_ASSERT_L2(CY_SAR_SWITCHMASK(config->muxSwitch));
 273              		.loc 1 123 0
 274 0166 B36E     		ldr	r3, [r6, #104]
ARM GAS  C:\Users\gjl\AppData\Local\Temp\ccG9SHX7.s 			page 8


 275 0168 B3F1804F 		cmp	r3, #1073741824
 276 016c 03D3     		bcc	.L20
 277              		.loc 1 123 0 is_stmt 0 discriminator 1
 278 016e 7B21     		movs	r1, #123
 279 0170 1648     		ldr	r0, .L27
 280 0172 FFF7FEFF 		bl	Cy_SysLib_AssertFailed
 281              	.LVL27:
 282              	.L20:
 124:Generated_Source\PSoC6\pdl\drivers\peripheral\sar/cy_sar.c ****             CY_ASSERT_L2(CY_SAR_SQMASK(config->muxSwitchSqCtrl));
 283              		.loc 1 124 0 is_stmt 1
 284 0176 F36E     		ldr	r3, [r6, #108]
 285 0178 23F44F03 		bic	r3, r3, #13565952
 286 017c 23F0FF03 		bic	r3, r3, #255
 287 0180 1BB1     		cbz	r3, .L21
 288              		.loc 1 124 0 is_stmt 0 discriminator 1
 289 0182 7C21     		movs	r1, #124
 290 0184 1148     		ldr	r0, .L27
 291 0186 FFF7FEFF 		bl	Cy_SysLib_AssertFailed
 292              	.LVL28:
 293              	.L21:
 125:Generated_Source\PSoC6\pdl\drivers\peripheral\sar/cy_sar.c **** 
 126:Generated_Source\PSoC6\pdl\drivers\peripheral\sar/cy_sar.c ****             /* Clear out all the switches so that only the desired switches in the config structure
 127:Generated_Source\PSoC6\pdl\drivers\peripheral\sar/cy_sar.c ****             base->MUX_SWITCH_CLEAR0 = CY_SAR_CLEAR_ALL_SWITCHES;
 294              		.loc 1 127 0 is_stmt 1
 295 018a 6FF04043 		mvn	r3, #-1073741824
 296 018e C7F80433 		str	r3, [r7, #772]
 128:Generated_Source\PSoC6\pdl\drivers\peripheral\sar/cy_sar.c **** 
 129:Generated_Source\PSoC6\pdl\drivers\peripheral\sar/cy_sar.c ****             base->MUX_SWITCH0 = config->muxSwitch;
 297              		.loc 1 129 0
 298 0192 B36E     		ldr	r3, [r6, #104]
 299 0194 C7F80033 		str	r3, [r7, #768]
 130:Generated_Source\PSoC6\pdl\drivers\peripheral\sar/cy_sar.c ****             base->MUX_SWITCH_SQ_CTRL = config->muxSwitchSqCtrl;
 300              		.loc 1 130 0
 301 0198 F36E     		ldr	r3, [r6, #108]
 302 019a C7F84433 		str	r3, [r7, #836]
 303              	.L19:
 131:Generated_Source\PSoC6\pdl\drivers\peripheral\sar/cy_sar.c ****         }
 132:Generated_Source\PSoC6\pdl\drivers\peripheral\sar/cy_sar.c **** 
 133:Generated_Source\PSoC6\pdl\drivers\peripheral\sar/cy_sar.c ****         /* Set the Cap trim if it was trimmed out of range from sflash */
 134:Generated_Source\PSoC6\pdl\drivers\peripheral\sar/cy_sar.c ****         if ((CY_SAR_CAP_TRIM_MAX == base->ANA_TRIM0) || (CY_SAR_CAP_TRIM_MIN == base->ANA_TRIM0))
 304              		.loc 1 134 0
 305 019e D7F8003F 		ldr	r3, [r7, #3840]
 306 01a2 3F2B     		cmp	r3, #63
 307 01a4 02D0     		beq	.L22
 308              		.loc 1 134 0 is_stmt 0 discriminator 1
 309 01a6 D7F8003F 		ldr	r3, [r7, #3840]
 310 01aa 13B9     		cbnz	r3, .L23
 311              	.L22:
 135:Generated_Source\PSoC6\pdl\drivers\peripheral\sar/cy_sar.c ****         {
 136:Generated_Source\PSoC6\pdl\drivers\peripheral\sar/cy_sar.c ****             base->ANA_TRIM0 = CY_SAR_CAP_TRIM;
 312              		.loc 1 136 0 is_stmt 1
 313 01ac 0B23     		movs	r3, #11
 314 01ae C7F8003F 		str	r3, [r7, #3840]
 315              	.L23:
 137:Generated_Source\PSoC6\pdl\drivers\peripheral\sar/cy_sar.c ****         }
 138:Generated_Source\PSoC6\pdl\drivers\peripheral\sar/cy_sar.c ****         
 139:Generated_Source\PSoC6\pdl\drivers\peripheral\sar/cy_sar.c ****         /* Set the REFBUF_EN bit as this is required for proper operation. */
ARM GAS  C:\Users\gjl\AppData\Local\Temp\ccG9SHX7.s 			page 9


 140:Generated_Source\PSoC6\pdl\drivers\peripheral\sar/cy_sar.c ****         base->CTRL = config->ctrl | SAR_CTRL_REFBUF_EN_Msk;
 316              		.loc 1 140 0
 317 01b2 3368     		ldr	r3, [r6]
 318 01b4 43F40013 		orr	r3, r3, #2097152
 319 01b8 3B60     		str	r3, [r7]
 320              	.LVL29:
 141:Generated_Source\PSoC6\pdl\drivers\peripheral\sar/cy_sar.c **** 
 142:Generated_Source\PSoC6\pdl\drivers\peripheral\sar/cy_sar.c ****         result = CY_SAR_SUCCESS;
 321              		.loc 1 142 0
 322 01ba 0020     		movs	r0, #0
 323 01bc BDE8F883 		pop	{r3, r4, r5, r6, r7, r8, r9, pc}
 324              	.LVL30:
 325              	.L24:
  67:Generated_Source\PSoC6\pdl\drivers\peripheral\sar/cy_sar.c ****     }
 326              		.loc 1 67 0
 327 01c0 0848     		ldr	r0, .L27+24
 328 01c2 BDE8F883 		pop	{r3, r4, r5, r6, r7, r8, r9, pc}
 329              	.LVL31:
 330              	.L25:
 331 01c6 0748     		ldr	r0, .L27+24
 332              	.LVL32:
 143:Generated_Source\PSoC6\pdl\drivers\peripheral\sar/cy_sar.c ****     }
 144:Generated_Source\PSoC6\pdl\drivers\peripheral\sar/cy_sar.c **** 
 145:Generated_Source\PSoC6\pdl\drivers\peripheral\sar/cy_sar.c ****     return result;
 146:Generated_Source\PSoC6\pdl\drivers\peripheral\sar/cy_sar.c **** }
 333              		.loc 1 146 0
 334 01c8 BDE8F883 		pop	{r3, r4, r5, r6, r7, r8, r9, pc}
 335              	.LVL33:
 336              	.L28:
 337              		.align	2
 338              	.L27:
 339 01cc 00000000 		.word	.LC0
 340 01d0 0811DF00 		.word	14618888
 341 01d4 01FE3020 		.word	540081665
 342 01d8 88CA887E 		.word	2122893960
 343 01dc 00000000 		.word	Cy_SAR_offset
 344 01e0 00000000 		.word	Cy_SAR_countsPer10Volt
 345 01e4 01000600 		.word	393217
 346              		.cfi_endproc
 347              	.LFE184:
 348              		.size	Cy_SAR_Init, .-Cy_SAR_Init
 349              		.section	.text.Cy_SAR_DeInit,"ax",%progbits
 350              		.align	2
 351              		.global	Cy_SAR_DeInit
 352              		.thumb
 353              		.thumb_func
 354              		.type	Cy_SAR_DeInit, %function
 355              	Cy_SAR_DeInit:
 356              	.LFB185:
 147:Generated_Source\PSoC6\pdl\drivers\peripheral\sar/cy_sar.c **** 
 148:Generated_Source\PSoC6\pdl\drivers\peripheral\sar/cy_sar.c **** /*******************************************************************************
 149:Generated_Source\PSoC6\pdl\drivers\peripheral\sar/cy_sar.c **** * Function Name: Cy_SAR_DeInit
 150:Generated_Source\PSoC6\pdl\drivers\peripheral\sar/cy_sar.c **** ****************************************************************************//**
 151:Generated_Source\PSoC6\pdl\drivers\peripheral\sar/cy_sar.c **** *
 152:Generated_Source\PSoC6\pdl\drivers\peripheral\sar/cy_sar.c **** * Reset SAR registers back to power on reset defaults.
 153:Generated_Source\PSoC6\pdl\drivers\peripheral\sar/cy_sar.c **** * The \ref Cy_SAR_offset and \ref Cy_SAR_countsPer10Volt arrays are NOT reset.
 154:Generated_Source\PSoC6\pdl\drivers\peripheral\sar/cy_sar.c **** *
ARM GAS  C:\Users\gjl\AppData\Local\Temp\ccG9SHX7.s 			page 10


 155:Generated_Source\PSoC6\pdl\drivers\peripheral\sar/cy_sar.c **** * \param base
 156:Generated_Source\PSoC6\pdl\drivers\peripheral\sar/cy_sar.c **** * Pointer to structure describing registers
 157:Generated_Source\PSoC6\pdl\drivers\peripheral\sar/cy_sar.c **** *
 158:Generated_Source\PSoC6\pdl\drivers\peripheral\sar/cy_sar.c **** * \param deInitRouting
 159:Generated_Source\PSoC6\pdl\drivers\peripheral\sar/cy_sar.c **** * If true, all SARMUX switches are opened and switch control registers are reset
 160:Generated_Source\PSoC6\pdl\drivers\peripheral\sar/cy_sar.c **** * to zero. If false, switch registers are untouched.
 161:Generated_Source\PSoC6\pdl\drivers\peripheral\sar/cy_sar.c **** *
 162:Generated_Source\PSoC6\pdl\drivers\peripheral\sar/cy_sar.c **** * \return
 163:Generated_Source\PSoC6\pdl\drivers\peripheral\sar/cy_sar.c **** * - \ref CY_SAR_SUCCESS : de-initialization complete
 164:Generated_Source\PSoC6\pdl\drivers\peripheral\sar/cy_sar.c **** * - \ref CY_SAR_BAD_PARAM : input pointers are null, de-initialization incomplete
 165:Generated_Source\PSoC6\pdl\drivers\peripheral\sar/cy_sar.c **** *
 166:Generated_Source\PSoC6\pdl\drivers\peripheral\sar/cy_sar.c **** * \funcusage
 167:Generated_Source\PSoC6\pdl\drivers\peripheral\sar/cy_sar.c **** *
 168:Generated_Source\PSoC6\pdl\drivers\peripheral\sar/cy_sar.c **** * \snippet sar_sut_01.cydsn/main_cm0p.c SNIPPET_SAR_DEINIT
 169:Generated_Source\PSoC6\pdl\drivers\peripheral\sar/cy_sar.c **** *
 170:Generated_Source\PSoC6\pdl\drivers\peripheral\sar/cy_sar.c **** *******************************************************************************/
 171:Generated_Source\PSoC6\pdl\drivers\peripheral\sar/cy_sar.c **** cy_en_sar_status_t Cy_SAR_DeInit(SAR_Type *base, bool deInitRouting)
 172:Generated_Source\PSoC6\pdl\drivers\peripheral\sar/cy_sar.c **** {
 357              		.loc 1 172 0
 358              		.cfi_startproc
 359              		@ args = 0, pretend = 0, frame = 0
 360              		@ frame_needed = 0, uses_anonymous_args = 0
 361              	.LVL34:
 362 0000 38B5     		push	{r3, r4, r5, lr}
 363              		.cfi_def_cfa_offset 16
 364              		.cfi_offset 3, -16
 365              		.cfi_offset 4, -12
 366              		.cfi_offset 5, -8
 367              		.cfi_offset 14, -4
 368 0002 0D46     		mov	r5, r1
 173:Generated_Source\PSoC6\pdl\drivers\peripheral\sar/cy_sar.c ****     CY_ASSERT_L1(NULL != base);
 369              		.loc 1 173 0
 370 0004 0446     		mov	r4, r0
 371 0006 18B9     		cbnz	r0, .L30
 372              		.loc 1 173 0 is_stmt 0 discriminator 1
 373 0008 AD21     		movs	r1, #173
 374              	.LVL35:
 375 000a 1748     		ldr	r0, .L37
 376              	.LVL36:
 377 000c FFF7FEFF 		bl	Cy_SysLib_AssertFailed
 378              	.LVL37:
 379              	.L30:
 174:Generated_Source\PSoC6\pdl\drivers\peripheral\sar/cy_sar.c **** 
 175:Generated_Source\PSoC6\pdl\drivers\peripheral\sar/cy_sar.c ****     cy_en_sar_status_t result;
 176:Generated_Source\PSoC6\pdl\drivers\peripheral\sar/cy_sar.c ****     uint8_t chan;
 177:Generated_Source\PSoC6\pdl\drivers\peripheral\sar/cy_sar.c **** 
 178:Generated_Source\PSoC6\pdl\drivers\peripheral\sar/cy_sar.c ****     if (NULL == base)
 380              		.loc 1 178 0 is_stmt 1
 381 0010 2CB3     		cbz	r4, .L34
 179:Generated_Source\PSoC6\pdl\drivers\peripheral\sar/cy_sar.c ****     {
 180:Generated_Source\PSoC6\pdl\drivers\peripheral\sar/cy_sar.c ****        result = CY_SAR_BAD_PARAM;
 181:Generated_Source\PSoC6\pdl\drivers\peripheral\sar/cy_sar.c ****     }
 182:Generated_Source\PSoC6\pdl\drivers\peripheral\sar/cy_sar.c ****     else
 183:Generated_Source\PSoC6\pdl\drivers\peripheral\sar/cy_sar.c ****     {
 184:Generated_Source\PSoC6\pdl\drivers\peripheral\sar/cy_sar.c ****         base->CTRL = CY_SAR_DEINIT;
 382              		.loc 1 184 0
 383 0012 0023     		movs	r3, #0
ARM GAS  C:\Users\gjl\AppData\Local\Temp\ccG9SHX7.s 			page 11


 384 0014 2360     		str	r3, [r4]
 185:Generated_Source\PSoC6\pdl\drivers\peripheral\sar/cy_sar.c ****         base->SAMPLE_CTRL = CY_SAR_DEINIT;
 385              		.loc 1 185 0
 386 0016 6360     		str	r3, [r4, #4]
 186:Generated_Source\PSoC6\pdl\drivers\peripheral\sar/cy_sar.c ****         base->SAMPLE_TIME01 = CY_SAR_SAMPLE_TIME_DEINIT;
 387              		.loc 1 186 0
 388 0018 4FF00312 		mov	r2, #196611
 389 001c 2261     		str	r2, [r4, #16]
 187:Generated_Source\PSoC6\pdl\drivers\peripheral\sar/cy_sar.c ****         base->SAMPLE_TIME23 = CY_SAR_SAMPLE_TIME_DEINIT;
 390              		.loc 1 187 0
 391 001e 6261     		str	r2, [r4, #20]
 188:Generated_Source\PSoC6\pdl\drivers\peripheral\sar/cy_sar.c ****         base->RANGE_THRES = CY_SAR_DEINIT;
 392              		.loc 1 188 0
 393 0020 A361     		str	r3, [r4, #24]
 189:Generated_Source\PSoC6\pdl\drivers\peripheral\sar/cy_sar.c ****         base->RANGE_COND = CY_SAR_DEINIT;
 394              		.loc 1 189 0
 395 0022 E361     		str	r3, [r4, #28]
 190:Generated_Source\PSoC6\pdl\drivers\peripheral\sar/cy_sar.c ****         base->CHAN_EN = CY_SAR_DEINIT;
 396              		.loc 1 190 0
 397 0024 2362     		str	r3, [r4, #32]
 398              	.LVL38:
 191:Generated_Source\PSoC6\pdl\drivers\peripheral\sar/cy_sar.c ****         for (chan = 0u; chan < CY_SAR_MAX_NUM_CHANNELS; chan++)
 399              		.loc 1 191 0
 400 0026 06E0     		b	.L32
 401              	.LVL39:
 402              	.L33:
 192:Generated_Source\PSoC6\pdl\drivers\peripheral\sar/cy_sar.c ****         {
 193:Generated_Source\PSoC6\pdl\drivers\peripheral\sar/cy_sar.c ****             base->CHAN_CONFIG[chan] = CY_SAR_DEINIT;
 403              		.loc 1 193 0 discriminator 3
 404 0028 03F12002 		add	r2, r3, #32
 405 002c 0021     		movs	r1, #0
 406 002e 44F82210 		str	r1, [r4, r2, lsl #2]
 191:Generated_Source\PSoC6\pdl\drivers\peripheral\sar/cy_sar.c ****         for (chan = 0u; chan < CY_SAR_MAX_NUM_CHANNELS; chan++)
 407              		.loc 1 191 0 discriminator 3
 408 0032 0133     		adds	r3, r3, #1
 409              	.LVL40:
 410 0034 DBB2     		uxtb	r3, r3
 411              	.LVL41:
 412              	.L32:
 191:Generated_Source\PSoC6\pdl\drivers\peripheral\sar/cy_sar.c ****         for (chan = 0u; chan < CY_SAR_MAX_NUM_CHANNELS; chan++)
 413              		.loc 1 191 0 is_stmt 0 discriminator 1
 414 0036 0F2B     		cmp	r3, #15
 415 0038 F6D9     		bls	.L33
 194:Generated_Source\PSoC6\pdl\drivers\peripheral\sar/cy_sar.c ****         }
 195:Generated_Source\PSoC6\pdl\drivers\peripheral\sar/cy_sar.c ****         base->INTR_MASK = CY_SAR_DEINIT;
 416              		.loc 1 195 0 is_stmt 1
 417 003a 0023     		movs	r3, #0
 418              	.LVL42:
 419 003c C4F81832 		str	r3, [r4, #536]
 196:Generated_Source\PSoC6\pdl\drivers\peripheral\sar/cy_sar.c ****         base->SATURATE_INTR_MASK = CY_SAR_DEINIT;
 420              		.loc 1 196 0
 421 0040 C4F82832 		str	r3, [r4, #552]
 197:Generated_Source\PSoC6\pdl\drivers\peripheral\sar/cy_sar.c ****         base->RANGE_INTR_MASK = CY_SAR_DEINIT;
 422              		.loc 1 197 0
 423 0044 C4F83832 		str	r3, [r4, #568]
 198:Generated_Source\PSoC6\pdl\drivers\peripheral\sar/cy_sar.c ****         if (true == deInitRouting)
 424              		.loc 1 198 0
ARM GAS  C:\Users\gjl\AppData\Local\Temp\ccG9SHX7.s 			page 12


 425 0048 5DB1     		cbz	r5, .L35
 199:Generated_Source\PSoC6\pdl\drivers\peripheral\sar/cy_sar.c ****         {
 200:Generated_Source\PSoC6\pdl\drivers\peripheral\sar/cy_sar.c ****             base->MUX_SWITCH_CLEAR0 = CY_SAR_CLEAR_ALL_SWITCHES;
 426              		.loc 1 200 0
 427 004a 6FF04043 		mvn	r3, #-1073741824
 428 004e C4F80433 		str	r3, [r4, #772]
 201:Generated_Source\PSoC6\pdl\drivers\peripheral\sar/cy_sar.c ****             base->MUX_SWITCH_DS_CTRL = CY_SAR_DEINIT;
 429              		.loc 1 201 0
 430 0052 0020     		movs	r0, #0
 431 0054 C4F84003 		str	r0, [r4, #832]
 202:Generated_Source\PSoC6\pdl\drivers\peripheral\sar/cy_sar.c ****             base->MUX_SWITCH_SQ_CTRL = CY_SAR_DEINIT;
 432              		.loc 1 202 0
 433 0058 C4F84403 		str	r0, [r4, #836]
 434 005c 38BD     		pop	{r3, r4, r5, pc}
 435              	.LVL43:
 436              	.L34:
 180:Generated_Source\PSoC6\pdl\drivers\peripheral\sar/cy_sar.c ****     }
 437              		.loc 1 180 0
 438 005e 0348     		ldr	r0, .L37+4
 439 0060 38BD     		pop	{r3, r4, r5, pc}
 440              	.LVL44:
 441              	.L35:
 203:Generated_Source\PSoC6\pdl\drivers\peripheral\sar/cy_sar.c ****         }
 204:Generated_Source\PSoC6\pdl\drivers\peripheral\sar/cy_sar.c ****         result = CY_SAR_SUCCESS;
 442              		.loc 1 204 0
 443 0062 0020     		movs	r0, #0
 444              	.LVL45:
 205:Generated_Source\PSoC6\pdl\drivers\peripheral\sar/cy_sar.c ****     }
 206:Generated_Source\PSoC6\pdl\drivers\peripheral\sar/cy_sar.c **** 
 207:Generated_Source\PSoC6\pdl\drivers\peripheral\sar/cy_sar.c ****     return result;
 208:Generated_Source\PSoC6\pdl\drivers\peripheral\sar/cy_sar.c **** }
 445              		.loc 1 208 0
 446 0064 38BD     		pop	{r3, r4, r5, pc}
 447              	.LVL46:
 448              	.L38:
 449 0066 00BF     		.align	2
 450              	.L37:
 451 0068 00000000 		.word	.LC0
 452 006c 01000600 		.word	393217
 453              		.cfi_endproc
 454              	.LFE185:
 455              		.size	Cy_SAR_DeInit, .-Cy_SAR_DeInit
 456              		.section	.text.Cy_SAR_Enable,"ax",%progbits
 457              		.align	2
 458              		.global	Cy_SAR_Enable
 459              		.thumb
 460              		.thumb_func
 461              		.type	Cy_SAR_Enable, %function
 462              	Cy_SAR_Enable:
 463              	.LFB186:
 209:Generated_Source\PSoC6\pdl\drivers\peripheral\sar/cy_sar.c **** 
 210:Generated_Source\PSoC6\pdl\drivers\peripheral\sar/cy_sar.c **** /*******************************************************************************
 211:Generated_Source\PSoC6\pdl\drivers\peripheral\sar/cy_sar.c **** * Function Name: Cy_SAR_Enable
 212:Generated_Source\PSoC6\pdl\drivers\peripheral\sar/cy_sar.c **** ****************************************************************************//**
 213:Generated_Source\PSoC6\pdl\drivers\peripheral\sar/cy_sar.c **** *
 214:Generated_Source\PSoC6\pdl\drivers\peripheral\sar/cy_sar.c **** * Power up the SAR ADC subsystem block. The hardware is ready to use
 215:Generated_Source\PSoC6\pdl\drivers\peripheral\sar/cy_sar.c **** * after 2 us, which is included in this function.
ARM GAS  C:\Users\gjl\AppData\Local\Temp\ccG9SHX7.s 			page 13


 216:Generated_Source\PSoC6\pdl\drivers\peripheral\sar/cy_sar.c **** *
 217:Generated_Source\PSoC6\pdl\drivers\peripheral\sar/cy_sar.c **** * \param base
 218:Generated_Source\PSoC6\pdl\drivers\peripheral\sar/cy_sar.c **** * Pointer to structure describing registers
 219:Generated_Source\PSoC6\pdl\drivers\peripheral\sar/cy_sar.c **** *
 220:Generated_Source\PSoC6\pdl\drivers\peripheral\sar/cy_sar.c **** * \return None
 221:Generated_Source\PSoC6\pdl\drivers\peripheral\sar/cy_sar.c **** *
 222:Generated_Source\PSoC6\pdl\drivers\peripheral\sar/cy_sar.c **** *******************************************************************************/
 223:Generated_Source\PSoC6\pdl\drivers\peripheral\sar/cy_sar.c **** void Cy_SAR_Enable(SAR_Type *base)
 224:Generated_Source\PSoC6\pdl\drivers\peripheral\sar/cy_sar.c **** {
 464              		.loc 1 224 0
 465              		.cfi_startproc
 466              		@ args = 0, pretend = 0, frame = 0
 467              		@ frame_needed = 0, uses_anonymous_args = 0
 468              	.LVL47:
 469 0000 08B5     		push	{r3, lr}
 470              		.cfi_def_cfa_offset 8
 471              		.cfi_offset 3, -8
 472              		.cfi_offset 14, -4
 225:Generated_Source\PSoC6\pdl\drivers\peripheral\sar/cy_sar.c ****     if (0uL == (base->CTRL & SAR_CTRL_ENABLED_Msk))
 473              		.loc 1 225 0
 474 0002 0368     		ldr	r3, [r0]
 475 0004 002B     		cmp	r3, #0
 476 0006 0ADB     		blt	.L39
 477              	.L41:
 226:Generated_Source\PSoC6\pdl\drivers\peripheral\sar/cy_sar.c ****     {
 227:Generated_Source\PSoC6\pdl\drivers\peripheral\sar/cy_sar.c ****         while (0uL != (base->STATUS & SAR_STATUS_BUSY_Msk))
 478              		.loc 1 227 0 discriminator 1
 479 0008 D0F8A032 		ldr	r3, [r0, #672]
 480 000c 002B     		cmp	r3, #0
 481 000e FBDB     		blt	.L41
 228:Generated_Source\PSoC6\pdl\drivers\peripheral\sar/cy_sar.c ****         {
 229:Generated_Source\PSoC6\pdl\drivers\peripheral\sar/cy_sar.c ****             /* Wait for SAR to go idle to avoid deadlock */
 230:Generated_Source\PSoC6\pdl\drivers\peripheral\sar/cy_sar.c ****         }
 231:Generated_Source\PSoC6\pdl\drivers\peripheral\sar/cy_sar.c **** 
 232:Generated_Source\PSoC6\pdl\drivers\peripheral\sar/cy_sar.c ****         base->CTRL |= SAR_CTRL_ENABLED_Msk;
 482              		.loc 1 232 0
 483 0010 0368     		ldr	r3, [r0]
 484 0012 43F00043 		orr	r3, r3, #-2147483648
 485 0016 0360     		str	r3, [r0]
 233:Generated_Source\PSoC6\pdl\drivers\peripheral\sar/cy_sar.c **** 
 234:Generated_Source\PSoC6\pdl\drivers\peripheral\sar/cy_sar.c ****         /* The block is ready to use 2 us after the enable signal is set high. */
 235:Generated_Source\PSoC6\pdl\drivers\peripheral\sar/cy_sar.c ****         Cy_SysLib_DelayUs(CY_SAR_2US_DELAY);
 486              		.loc 1 235 0
 487 0018 0220     		movs	r0, #2
 488              	.LVL48:
 489 001a FFF7FEFF 		bl	Cy_SysLib_DelayUs
 490              	.LVL49:
 491              	.L39:
 492 001e 08BD     		pop	{r3, pc}
 493              		.cfi_endproc
 494              	.LFE186:
 495              		.size	Cy_SAR_Enable, .-Cy_SAR_Enable
 496              		.section	.text.Cy_SAR_StartConvert,"ax",%progbits
 497              		.align	2
 498              		.global	Cy_SAR_StartConvert
 499              		.thumb
 500              		.thumb_func
ARM GAS  C:\Users\gjl\AppData\Local\Temp\ccG9SHX7.s 			page 14


 501              		.type	Cy_SAR_StartConvert, %function
 502              	Cy_SAR_StartConvert:
 503              	.LFB189:
 236:Generated_Source\PSoC6\pdl\drivers\peripheral\sar/cy_sar.c ****     }
 237:Generated_Source\PSoC6\pdl\drivers\peripheral\sar/cy_sar.c **** }
 238:Generated_Source\PSoC6\pdl\drivers\peripheral\sar/cy_sar.c **** 
 239:Generated_Source\PSoC6\pdl\drivers\peripheral\sar/cy_sar.c **** /*******************************************************************************
 240:Generated_Source\PSoC6\pdl\drivers\peripheral\sar/cy_sar.c **** * Function Name: Cy_SAR_Sleep
 241:Generated_Source\PSoC6\pdl\drivers\peripheral\sar/cy_sar.c **** ****************************************************************************//**
 242:Generated_Source\PSoC6\pdl\drivers\peripheral\sar/cy_sar.c **** *
 243:Generated_Source\PSoC6\pdl\drivers\peripheral\sar/cy_sar.c **** * This is the preferred routine to prepare the hardware for Deep sleep.
 244:Generated_Source\PSoC6\pdl\drivers\peripheral\sar/cy_sar.c **** *
 245:Generated_Source\PSoC6\pdl\drivers\peripheral\sar/cy_sar.c **** * It will call \ref Cy_SAR_StopConvert to disable continuous conversions
 246:Generated_Source\PSoC6\pdl\drivers\peripheral\sar/cy_sar.c **** * and wait for SAR conversions to stop before entering Deep Sleep.
 247:Generated_Source\PSoC6\pdl\drivers\peripheral\sar/cy_sar.c **** * If the SARMUX is not configured for Deep Sleep operation, the entire SAR hardware
 248:Generated_Source\PSoC6\pdl\drivers\peripheral\sar/cy_sar.c **** * block will be turned off.
 249:Generated_Source\PSoC6\pdl\drivers\peripheral\sar/cy_sar.c **** *
 250:Generated_Source\PSoC6\pdl\drivers\peripheral\sar/cy_sar.c **** * \param base
 251:Generated_Source\PSoC6\pdl\drivers\peripheral\sar/cy_sar.c **** * Pointer to structure describing registers
 252:Generated_Source\PSoC6\pdl\drivers\peripheral\sar/cy_sar.c **** *
 253:Generated_Source\PSoC6\pdl\drivers\peripheral\sar/cy_sar.c **** * \return None
 254:Generated_Source\PSoC6\pdl\drivers\peripheral\sar/cy_sar.c **** *
 255:Generated_Source\PSoC6\pdl\drivers\peripheral\sar/cy_sar.c **** * \funcusage
 256:Generated_Source\PSoC6\pdl\drivers\peripheral\sar/cy_sar.c **** *
 257:Generated_Source\PSoC6\pdl\drivers\peripheral\sar/cy_sar.c **** * This function is used in the \ref Cy_SAR_DeepSleepCallback. There is no
 258:Generated_Source\PSoC6\pdl\drivers\peripheral\sar/cy_sar.c **** * need to call this function directly.
 259:Generated_Source\PSoC6\pdl\drivers\peripheral\sar/cy_sar.c **** *
 260:Generated_Source\PSoC6\pdl\drivers\peripheral\sar/cy_sar.c **** *******************************************************************************/
 261:Generated_Source\PSoC6\pdl\drivers\peripheral\sar/cy_sar.c **** void Cy_SAR_Sleep(SAR_Type *base)
 262:Generated_Source\PSoC6\pdl\drivers\peripheral\sar/cy_sar.c **** {
 263:Generated_Source\PSoC6\pdl\drivers\peripheral\sar/cy_sar.c ****     uint32_t ctrlReg = base->CTRL;
 264:Generated_Source\PSoC6\pdl\drivers\peripheral\sar/cy_sar.c **** 
 265:Generated_Source\PSoC6\pdl\drivers\peripheral\sar/cy_sar.c ****     enabledBeforeSleep.hwEnabled = ctrlReg & SAR_CTRL_ENABLED_Msk;
 266:Generated_Source\PSoC6\pdl\drivers\peripheral\sar/cy_sar.c **** 
 267:Generated_Source\PSoC6\pdl\drivers\peripheral\sar/cy_sar.c ****     /* Turn off the reference buffer */
 268:Generated_Source\PSoC6\pdl\drivers\peripheral\sar/cy_sar.c ****     ctrlReg &= ~SAR_CTRL_REFBUF_EN_Msk;
 269:Generated_Source\PSoC6\pdl\drivers\peripheral\sar/cy_sar.c **** 
 270:Generated_Source\PSoC6\pdl\drivers\peripheral\sar/cy_sar.c ****     if (SAR_CTRL_ENABLED_Msk == enabledBeforeSleep.hwEnabled)
 271:Generated_Source\PSoC6\pdl\drivers\peripheral\sar/cy_sar.c ****     {
 272:Generated_Source\PSoC6\pdl\drivers\peripheral\sar/cy_sar.c **** 
 273:Generated_Source\PSoC6\pdl\drivers\peripheral\sar/cy_sar.c ****         /* Save state of CONTINUOUS bit so that conversions can be re-started upon wake-up */
 274:Generated_Source\PSoC6\pdl\drivers\peripheral\sar/cy_sar.c ****         enabledBeforeSleep.continuous = base->SAMPLE_CTRL & SAR_SAMPLE_CTRL_CONTINUOUS_Msk;
 275:Generated_Source\PSoC6\pdl\drivers\peripheral\sar/cy_sar.c **** 
 276:Generated_Source\PSoC6\pdl\drivers\peripheral\sar/cy_sar.c ****         Cy_SAR_StopConvert(base);
 277:Generated_Source\PSoC6\pdl\drivers\peripheral\sar/cy_sar.c **** 
 278:Generated_Source\PSoC6\pdl\drivers\peripheral\sar/cy_sar.c ****         while (0uL != (base->STATUS & SAR_STATUS_BUSY_Msk))
 279:Generated_Source\PSoC6\pdl\drivers\peripheral\sar/cy_sar.c ****         {
 280:Generated_Source\PSoC6\pdl\drivers\peripheral\sar/cy_sar.c ****             /* Wait for SAR to stop conversions before entering low power */
 281:Generated_Source\PSoC6\pdl\drivers\peripheral\sar/cy_sar.c ****         }
 282:Generated_Source\PSoC6\pdl\drivers\peripheral\sar/cy_sar.c **** 
 283:Generated_Source\PSoC6\pdl\drivers\peripheral\sar/cy_sar.c ****         /* Turn off the entire hardware block only if the SARMUX is not
 284:Generated_Source\PSoC6\pdl\drivers\peripheral\sar/cy_sar.c ****          * enabled for Deep Sleep operation. */
 285:Generated_Source\PSoC6\pdl\drivers\peripheral\sar/cy_sar.c ****         if (SAR_CTRL_DEEPSLEEP_ON_Msk != (ctrlReg & SAR_CTRL_DEEPSLEEP_ON_Msk))
 286:Generated_Source\PSoC6\pdl\drivers\peripheral\sar/cy_sar.c ****         {
 287:Generated_Source\PSoC6\pdl\drivers\peripheral\sar/cy_sar.c ****             base->CTRL &= ~SAR_CTRL_ENABLED_Msk;
 288:Generated_Source\PSoC6\pdl\drivers\peripheral\sar/cy_sar.c ****         }
 289:Generated_Source\PSoC6\pdl\drivers\peripheral\sar/cy_sar.c ****     }
ARM GAS  C:\Users\gjl\AppData\Local\Temp\ccG9SHX7.s 			page 15


 290:Generated_Source\PSoC6\pdl\drivers\peripheral\sar/cy_sar.c **** 
 291:Generated_Source\PSoC6\pdl\drivers\peripheral\sar/cy_sar.c ****     base->CTRL = ctrlReg;
 292:Generated_Source\PSoC6\pdl\drivers\peripheral\sar/cy_sar.c **** }
 293:Generated_Source\PSoC6\pdl\drivers\peripheral\sar/cy_sar.c **** 
 294:Generated_Source\PSoC6\pdl\drivers\peripheral\sar/cy_sar.c **** /*******************************************************************************
 295:Generated_Source\PSoC6\pdl\drivers\peripheral\sar/cy_sar.c **** * Function Name: Cy_SAR_Wakeup
 296:Generated_Source\PSoC6\pdl\drivers\peripheral\sar/cy_sar.c **** ****************************************************************************//**
 297:Generated_Source\PSoC6\pdl\drivers\peripheral\sar/cy_sar.c **** *
 298:Generated_Source\PSoC6\pdl\drivers\peripheral\sar/cy_sar.c **** * This is the preferred routine to restore the hardware to the state after calling
 299:Generated_Source\PSoC6\pdl\drivers\peripheral\sar/cy_sar.c **** * \ref Cy_SAR_Sleep. Restoring the hardware involves re-enabling the hardware,
 300:Generated_Source\PSoC6\pdl\drivers\peripheral\sar/cy_sar.c **** * the reference buffer, and continuous scanning if it was previously
 301:Generated_Source\PSoC6\pdl\drivers\peripheral\sar/cy_sar.c **** * enabled before entering sleep.
 302:Generated_Source\PSoC6\pdl\drivers\peripheral\sar/cy_sar.c **** *
 303:Generated_Source\PSoC6\pdl\drivers\peripheral\sar/cy_sar.c **** * \param base
 304:Generated_Source\PSoC6\pdl\drivers\peripheral\sar/cy_sar.c **** * Pointer to structure describing registers
 305:Generated_Source\PSoC6\pdl\drivers\peripheral\sar/cy_sar.c **** *
 306:Generated_Source\PSoC6\pdl\drivers\peripheral\sar/cy_sar.c **** * \sideeffect
 307:Generated_Source\PSoC6\pdl\drivers\peripheral\sar/cy_sar.c **** * Calling this function without previously calling \ref Cy_SAR_Sleep can lead to
 308:Generated_Source\PSoC6\pdl\drivers\peripheral\sar/cy_sar.c **** * unpredictable results.
 309:Generated_Source\PSoC6\pdl\drivers\peripheral\sar/cy_sar.c **** *
 310:Generated_Source\PSoC6\pdl\drivers\peripheral\sar/cy_sar.c **** * \return None
 311:Generated_Source\PSoC6\pdl\drivers\peripheral\sar/cy_sar.c **** *
 312:Generated_Source\PSoC6\pdl\drivers\peripheral\sar/cy_sar.c **** * \funcusage
 313:Generated_Source\PSoC6\pdl\drivers\peripheral\sar/cy_sar.c **** *
 314:Generated_Source\PSoC6\pdl\drivers\peripheral\sar/cy_sar.c **** * This function is used in the \ref Cy_SAR_DeepSleepCallback. There is no
 315:Generated_Source\PSoC6\pdl\drivers\peripheral\sar/cy_sar.c **** * need to call this function directly.
 316:Generated_Source\PSoC6\pdl\drivers\peripheral\sar/cy_sar.c **** *
 317:Generated_Source\PSoC6\pdl\drivers\peripheral\sar/cy_sar.c **** *******************************************************************************/
 318:Generated_Source\PSoC6\pdl\drivers\peripheral\sar/cy_sar.c **** void Cy_SAR_Wakeup(SAR_Type *base)
 319:Generated_Source\PSoC6\pdl\drivers\peripheral\sar/cy_sar.c **** {
 320:Generated_Source\PSoC6\pdl\drivers\peripheral\sar/cy_sar.c ****     /* Turn on the reference buffer */
 321:Generated_Source\PSoC6\pdl\drivers\peripheral\sar/cy_sar.c ****     base->CTRL |= SAR_CTRL_REFBUF_EN_Msk;
 322:Generated_Source\PSoC6\pdl\drivers\peripheral\sar/cy_sar.c **** 
 323:Generated_Source\PSoC6\pdl\drivers\peripheral\sar/cy_sar.c ****     if (SAR_CTRL_ENABLED_Msk == enabledBeforeSleep.hwEnabled)
 324:Generated_Source\PSoC6\pdl\drivers\peripheral\sar/cy_sar.c ****     {
 325:Generated_Source\PSoC6\pdl\drivers\peripheral\sar/cy_sar.c ****         Cy_SAR_Enable(base);
 326:Generated_Source\PSoC6\pdl\drivers\peripheral\sar/cy_sar.c **** 
 327:Generated_Source\PSoC6\pdl\drivers\peripheral\sar/cy_sar.c ****         if (SAR_SAMPLE_CTRL_CONTINUOUS_Msk == enabledBeforeSleep.continuous)
 328:Generated_Source\PSoC6\pdl\drivers\peripheral\sar/cy_sar.c ****         {
 329:Generated_Source\PSoC6\pdl\drivers\peripheral\sar/cy_sar.c ****             Cy_SAR_StartConvert(base, CY_SAR_START_CONVERT_CONTINUOUS);
 330:Generated_Source\PSoC6\pdl\drivers\peripheral\sar/cy_sar.c ****         }
 331:Generated_Source\PSoC6\pdl\drivers\peripheral\sar/cy_sar.c ****     }
 332:Generated_Source\PSoC6\pdl\drivers\peripheral\sar/cy_sar.c **** }
 333:Generated_Source\PSoC6\pdl\drivers\peripheral\sar/cy_sar.c **** 
 334:Generated_Source\PSoC6\pdl\drivers\peripheral\sar/cy_sar.c **** /*******************************************************************************
 335:Generated_Source\PSoC6\pdl\drivers\peripheral\sar/cy_sar.c **** * Function Name: Cy_SAR_StartConvert
 336:Generated_Source\PSoC6\pdl\drivers\peripheral\sar/cy_sar.c **** ****************************************************************************//**
 337:Generated_Source\PSoC6\pdl\drivers\peripheral\sar/cy_sar.c **** *
 338:Generated_Source\PSoC6\pdl\drivers\peripheral\sar/cy_sar.c **** * Start a single scan (one shot) of all enabled channels or start scanning
 339:Generated_Source\PSoC6\pdl\drivers\peripheral\sar/cy_sar.c **** * continuously. When in continuous mode, all firmware and hardware triggers
 340:Generated_Source\PSoC6\pdl\drivers\peripheral\sar/cy_sar.c **** * are ignored. To stop continuous scanning, call \ref Cy_SAR_StopConvert.
 341:Generated_Source\PSoC6\pdl\drivers\peripheral\sar/cy_sar.c **** *
 342:Generated_Source\PSoC6\pdl\drivers\peripheral\sar/cy_sar.c **** * \param base
 343:Generated_Source\PSoC6\pdl\drivers\peripheral\sar/cy_sar.c **** * Pointer to structure describing registers
 344:Generated_Source\PSoC6\pdl\drivers\peripheral\sar/cy_sar.c **** *
 345:Generated_Source\PSoC6\pdl\drivers\peripheral\sar/cy_sar.c **** * \param startSelect
 346:Generated_Source\PSoC6\pdl\drivers\peripheral\sar/cy_sar.c **** * A value of the enum \ref cy_en_sar_start_convert_sel_t
ARM GAS  C:\Users\gjl\AppData\Local\Temp\ccG9SHX7.s 			page 16


 347:Generated_Source\PSoC6\pdl\drivers\peripheral\sar/cy_sar.c **** *
 348:Generated_Source\PSoC6\pdl\drivers\peripheral\sar/cy_sar.c **** * \return None
 349:Generated_Source\PSoC6\pdl\drivers\peripheral\sar/cy_sar.c **** *
 350:Generated_Source\PSoC6\pdl\drivers\peripheral\sar/cy_sar.c **** * \funcusage
 351:Generated_Source\PSoC6\pdl\drivers\peripheral\sar/cy_sar.c **** *
 352:Generated_Source\PSoC6\pdl\drivers\peripheral\sar/cy_sar.c **** * \snippet sar_sut_01.cydsn/main_cm0p.c SNIPPET_SAR_START_CONVERT
 353:Generated_Source\PSoC6\pdl\drivers\peripheral\sar/cy_sar.c **** *
 354:Generated_Source\PSoC6\pdl\drivers\peripheral\sar/cy_sar.c **** *******************************************************************************/
 355:Generated_Source\PSoC6\pdl\drivers\peripheral\sar/cy_sar.c **** void Cy_SAR_StartConvert(SAR_Type *base, cy_en_sar_start_convert_sel_t startSelect)
 356:Generated_Source\PSoC6\pdl\drivers\peripheral\sar/cy_sar.c **** {
 504              		.loc 1 356 0
 505              		.cfi_startproc
 506              		@ args = 0, pretend = 0, frame = 0
 507              		@ frame_needed = 0, uses_anonymous_args = 0
 508              	.LVL50:
 509 0000 38B5     		push	{r3, r4, r5, lr}
 510              		.cfi_def_cfa_offset 16
 511              		.cfi_offset 3, -16
 512              		.cfi_offset 4, -12
 513              		.cfi_offset 5, -8
 514              		.cfi_offset 14, -4
 515 0002 0546     		mov	r5, r0
 516 0004 0C46     		mov	r4, r1
 357:Generated_Source\PSoC6\pdl\drivers\peripheral\sar/cy_sar.c ****     CY_ASSERT_L3(CY_SAR_STARTCONVERT(startSelect));
 517              		.loc 1 357 0
 518 0006 0129     		cmp	r1, #1
 519 0008 04D9     		bls	.L44
 520              		.loc 1 357 0 is_stmt 0 discriminator 1
 521 000a 40F26511 		movw	r1, #357
 522              	.LVL51:
 523 000e 0648     		ldr	r0, .L50
 524              	.LVL52:
 525 0010 FFF7FEFF 		bl	Cy_SysLib_AssertFailed
 526              	.LVL53:
 527              	.L44:
 358:Generated_Source\PSoC6\pdl\drivers\peripheral\sar/cy_sar.c **** 
 359:Generated_Source\PSoC6\pdl\drivers\peripheral\sar/cy_sar.c ****     switch(startSelect)
 528              		.loc 1 359 0 is_stmt 1
 529 0014 012C     		cmp	r4, #1
 530 0016 04D1     		bne	.L48
 360:Generated_Source\PSoC6\pdl\drivers\peripheral\sar/cy_sar.c ****     {
 361:Generated_Source\PSoC6\pdl\drivers\peripheral\sar/cy_sar.c ****     case CY_SAR_START_CONVERT_CONTINUOUS:
 362:Generated_Source\PSoC6\pdl\drivers\peripheral\sar/cy_sar.c ****         base->SAMPLE_CTRL |= SAR_SAMPLE_CTRL_CONTINUOUS_Msk;
 531              		.loc 1 362 0
 532 0018 6B68     		ldr	r3, [r5, #4]
 533 001a 43F48033 		orr	r3, r3, #65536
 534 001e 6B60     		str	r3, [r5, #4]
 363:Generated_Source\PSoC6\pdl\drivers\peripheral\sar/cy_sar.c ****         break;
 535              		.loc 1 363 0
 536 0020 38BD     		pop	{r3, r4, r5, pc}
 537              	.LVL54:
 538              	.L48:
 364:Generated_Source\PSoC6\pdl\drivers\peripheral\sar/cy_sar.c ****     case CY_SAR_START_CONVERT_SINGLE_SHOT:
 365:Generated_Source\PSoC6\pdl\drivers\peripheral\sar/cy_sar.c ****     default:
 366:Generated_Source\PSoC6\pdl\drivers\peripheral\sar/cy_sar.c ****         base->START_CTRL = SAR_START_CTRL_FW_TRIGGER_Msk;
 539              		.loc 1 366 0
 540 0022 0123     		movs	r3, #1
ARM GAS  C:\Users\gjl\AppData\Local\Temp\ccG9SHX7.s 			page 17


 541 0024 6B62     		str	r3, [r5, #36]
 542 0026 38BD     		pop	{r3, r4, r5, pc}
 543              	.LVL55:
 544              	.L51:
 545              		.align	2
 546              	.L50:
 547 0028 00000000 		.word	.LC0
 548              		.cfi_endproc
 549              	.LFE189:
 550              		.size	Cy_SAR_StartConvert, .-Cy_SAR_StartConvert
 551              		.section	.text.Cy_SAR_Wakeup,"ax",%progbits
 552              		.align	2
 553              		.global	Cy_SAR_Wakeup
 554              		.thumb
 555              		.thumb_func
 556              		.type	Cy_SAR_Wakeup, %function
 557              	Cy_SAR_Wakeup:
 558              	.LFB188:
 319:Generated_Source\PSoC6\pdl\drivers\peripheral\sar/cy_sar.c ****     /* Turn on the reference buffer */
 559              		.loc 1 319 0
 560              		.cfi_startproc
 561              		@ args = 0, pretend = 0, frame = 0
 562              		@ frame_needed = 0, uses_anonymous_args = 0
 563              	.LVL56:
 321:Generated_Source\PSoC6\pdl\drivers\peripheral\sar/cy_sar.c **** 
 564              		.loc 1 321 0
 565 0000 0368     		ldr	r3, [r0]
 566 0002 43F40013 		orr	r3, r3, #2097152
 567 0006 0360     		str	r3, [r0]
 323:Generated_Source\PSoC6\pdl\drivers\peripheral\sar/cy_sar.c ****     {
 568              		.loc 1 323 0
 569 0008 094B     		ldr	r3, .L56
 570 000a 1B68     		ldr	r3, [r3]
 571 000c B3F1004F 		cmp	r3, #-2147483648
 572 0010 0DD1     		bne	.L55
 319:Generated_Source\PSoC6\pdl\drivers\peripheral\sar/cy_sar.c ****     /* Turn on the reference buffer */
 573              		.loc 1 319 0
 574 0012 10B5     		push	{r4, lr}
 575              		.cfi_def_cfa_offset 8
 576              		.cfi_offset 4, -8
 577              		.cfi_offset 14, -4
 578 0014 0446     		mov	r4, r0
 325:Generated_Source\PSoC6\pdl\drivers\peripheral\sar/cy_sar.c **** 
 579              		.loc 1 325 0
 580 0016 FFF7FEFF 		bl	Cy_SAR_Enable
 581              	.LVL57:
 327:Generated_Source\PSoC6\pdl\drivers\peripheral\sar/cy_sar.c ****         {
 582              		.loc 1 327 0
 583 001a 054B     		ldr	r3, .L56
 584 001c 5B68     		ldr	r3, [r3, #4]
 585 001e B3F5803F 		cmp	r3, #65536
 586 0022 03D1     		bne	.L52
 329:Generated_Source\PSoC6\pdl\drivers\peripheral\sar/cy_sar.c ****         }
 587              		.loc 1 329 0
 588 0024 0121     		movs	r1, #1
 589 0026 2046     		mov	r0, r4
 590 0028 FFF7FEFF 		bl	Cy_SAR_StartConvert
ARM GAS  C:\Users\gjl\AppData\Local\Temp\ccG9SHX7.s 			page 18


 591              	.LVL58:
 592              	.L52:
 593 002c 10BD     		pop	{r4, pc}
 594              	.LVL59:
 595              	.L55:
 596              		.cfi_def_cfa_offset 0
 597              		.cfi_restore 4
 598              		.cfi_restore 14
 599 002e 7047     		bx	lr
 600              	.L57:
 601              		.align	2
 602              	.L56:
 603 0030 00000000 		.word	.LANCHOR0
 604              		.cfi_endproc
 605              	.LFE188:
 606              		.size	Cy_SAR_Wakeup, .-Cy_SAR_Wakeup
 607              		.section	.text.Cy_SAR_StopConvert,"ax",%progbits
 608              		.align	2
 609              		.global	Cy_SAR_StopConvert
 610              		.thumb
 611              		.thumb_func
 612              		.type	Cy_SAR_StopConvert, %function
 613              	Cy_SAR_StopConvert:
 614              	.LFB190:
 367:Generated_Source\PSoC6\pdl\drivers\peripheral\sar/cy_sar.c ****         break;
 368:Generated_Source\PSoC6\pdl\drivers\peripheral\sar/cy_sar.c ****     }
 369:Generated_Source\PSoC6\pdl\drivers\peripheral\sar/cy_sar.c **** }
 370:Generated_Source\PSoC6\pdl\drivers\peripheral\sar/cy_sar.c **** 
 371:Generated_Source\PSoC6\pdl\drivers\peripheral\sar/cy_sar.c **** /*******************************************************************************
 372:Generated_Source\PSoC6\pdl\drivers\peripheral\sar/cy_sar.c **** * Function Name: Cy_SAR_StopConvert
 373:Generated_Source\PSoC6\pdl\drivers\peripheral\sar/cy_sar.c **** ****************************************************************************//**
 374:Generated_Source\PSoC6\pdl\drivers\peripheral\sar/cy_sar.c **** *
 375:Generated_Source\PSoC6\pdl\drivers\peripheral\sar/cy_sar.c **** * Stop continuous scanning of enabled channels.
 376:Generated_Source\PSoC6\pdl\drivers\peripheral\sar/cy_sar.c **** * If a conversion is currently executing, that conversion will complete,
 377:Generated_Source\PSoC6\pdl\drivers\peripheral\sar/cy_sar.c **** * but no further conversions will occur until the next call to
 378:Generated_Source\PSoC6\pdl\drivers\peripheral\sar/cy_sar.c **** * \ref Cy_SAR_StartConvert or the next hardware trigger, if enabled.
 379:Generated_Source\PSoC6\pdl\drivers\peripheral\sar/cy_sar.c **** *
 380:Generated_Source\PSoC6\pdl\drivers\peripheral\sar/cy_sar.c **** * \param base
 381:Generated_Source\PSoC6\pdl\drivers\peripheral\sar/cy_sar.c **** * Pointer to structure describing registers
 382:Generated_Source\PSoC6\pdl\drivers\peripheral\sar/cy_sar.c **** *
 383:Generated_Source\PSoC6\pdl\drivers\peripheral\sar/cy_sar.c **** * \return None
 384:Generated_Source\PSoC6\pdl\drivers\peripheral\sar/cy_sar.c **** *
 385:Generated_Source\PSoC6\pdl\drivers\peripheral\sar/cy_sar.c **** * \funcusage
 386:Generated_Source\PSoC6\pdl\drivers\peripheral\sar/cy_sar.c **** *
 387:Generated_Source\PSoC6\pdl\drivers\peripheral\sar/cy_sar.c **** * \snippet sar_sut_01.cydsn/main_cm0p.c SNIPPET_SAR_STOP_CONVERT
 388:Generated_Source\PSoC6\pdl\drivers\peripheral\sar/cy_sar.c **** *
 389:Generated_Source\PSoC6\pdl\drivers\peripheral\sar/cy_sar.c **** *******************************************************************************/
 390:Generated_Source\PSoC6\pdl\drivers\peripheral\sar/cy_sar.c **** void Cy_SAR_StopConvert(SAR_Type *base)
 391:Generated_Source\PSoC6\pdl\drivers\peripheral\sar/cy_sar.c **** {
 615              		.loc 1 391 0
 616              		.cfi_startproc
 617              		@ args = 0, pretend = 0, frame = 0
 618              		@ frame_needed = 0, uses_anonymous_args = 0
 619              		@ link register save eliminated.
 620              	.LVL60:
 392:Generated_Source\PSoC6\pdl\drivers\peripheral\sar/cy_sar.c ****     if (SAR_SAMPLE_CTRL_CONTINUOUS_Msk == (base->SAMPLE_CTRL & SAR_SAMPLE_CTRL_CONTINUOUS_Msk))
 621              		.loc 1 392 0
ARM GAS  C:\Users\gjl\AppData\Local\Temp\ccG9SHX7.s 			page 19


 622 0000 4368     		ldr	r3, [r0, #4]
 623 0002 13F4803F 		tst	r3, #65536
 624 0006 03D0     		beq	.L58
 393:Generated_Source\PSoC6\pdl\drivers\peripheral\sar/cy_sar.c ****     {
 394:Generated_Source\PSoC6\pdl\drivers\peripheral\sar/cy_sar.c ****         base->SAMPLE_CTRL &= ~SAR_SAMPLE_CTRL_CONTINUOUS_Msk;
 625              		.loc 1 394 0
 626 0008 4368     		ldr	r3, [r0, #4]
 627 000a 23F48033 		bic	r3, r3, #65536
 628 000e 4360     		str	r3, [r0, #4]
 629              	.L58:
 630 0010 7047     		bx	lr
 631              		.cfi_endproc
 632              	.LFE190:
 633              		.size	Cy_SAR_StopConvert, .-Cy_SAR_StopConvert
 634 0012 00BF     		.section	.text.Cy_SAR_Sleep,"ax",%progbits
 635              		.align	2
 636              		.global	Cy_SAR_Sleep
 637              		.thumb
 638              		.thumb_func
 639              		.type	Cy_SAR_Sleep, %function
 640              	Cy_SAR_Sleep:
 641              	.LFB187:
 262:Generated_Source\PSoC6\pdl\drivers\peripheral\sar/cy_sar.c ****     uint32_t ctrlReg = base->CTRL;
 642              		.loc 1 262 0
 643              		.cfi_startproc
 644              		@ args = 0, pretend = 0, frame = 0
 645              		@ frame_needed = 0, uses_anonymous_args = 0
 646              	.LVL61:
 647 0000 70B5     		push	{r4, r5, r6, lr}
 648              		.cfi_def_cfa_offset 16
 649              		.cfi_offset 4, -16
 650              		.cfi_offset 5, -12
 651              		.cfi_offset 6, -8
 652              		.cfi_offset 14, -4
 653 0002 0446     		mov	r4, r0
 263:Generated_Source\PSoC6\pdl\drivers\peripheral\sar/cy_sar.c **** 
 654              		.loc 1 263 0
 655 0004 0568     		ldr	r5, [r0]
 656              	.LVL62:
 265:Generated_Source\PSoC6\pdl\drivers\peripheral\sar/cy_sar.c **** 
 657              		.loc 1 265 0
 658 0006 05F00043 		and	r3, r5, #-2147483648
 659 000a 0C4A     		ldr	r2, .L64
 660 000c 1360     		str	r3, [r2]
 268:Generated_Source\PSoC6\pdl\drivers\peripheral\sar/cy_sar.c **** 
 661              		.loc 1 268 0
 662 000e 25F40016 		bic	r6, r5, #2097152
 663              	.LVL63:
 270:Generated_Source\PSoC6\pdl\drivers\peripheral\sar/cy_sar.c ****     {
 664              		.loc 1 270 0
 665 0012 83B1     		cbz	r3, .L61
 274:Generated_Source\PSoC6\pdl\drivers\peripheral\sar/cy_sar.c **** 
 666              		.loc 1 274 0
 667 0014 4368     		ldr	r3, [r0, #4]
 668 0016 03F48033 		and	r3, r3, #65536
 669 001a 5360     		str	r3, [r2, #4]
 276:Generated_Source\PSoC6\pdl\drivers\peripheral\sar/cy_sar.c **** 
ARM GAS  C:\Users\gjl\AppData\Local\Temp\ccG9SHX7.s 			page 20


 670              		.loc 1 276 0
 671 001c FFF7FEFF 		bl	Cy_SAR_StopConvert
 672              	.LVL64:
 673              	.L62:
 278:Generated_Source\PSoC6\pdl\drivers\peripheral\sar/cy_sar.c ****         {
 674              		.loc 1 278 0 discriminator 1
 675 0020 D4F8A032 		ldr	r3, [r4, #672]
 676 0024 002B     		cmp	r3, #0
 677 0026 FBDB     		blt	.L62
 285:Generated_Source\PSoC6\pdl\drivers\peripheral\sar/cy_sar.c ****         {
 678              		.loc 1 285 0
 679 0028 15F0006F 		tst	r5, #134217728
 680 002c 03D1     		bne	.L61
 287:Generated_Source\PSoC6\pdl\drivers\peripheral\sar/cy_sar.c ****         }
 681              		.loc 1 287 0
 682 002e 2368     		ldr	r3, [r4]
 683 0030 23F00043 		bic	r3, r3, #-2147483648
 684 0034 2360     		str	r3, [r4]
 685              	.L61:
 291:Generated_Source\PSoC6\pdl\drivers\peripheral\sar/cy_sar.c **** }
 686              		.loc 1 291 0
 687 0036 2660     		str	r6, [r4]
 688 0038 70BD     		pop	{r4, r5, r6, pc}
 689              	.LVL65:
 690              	.L65:
 691 003a 00BF     		.align	2
 692              	.L64:
 693 003c 00000000 		.word	.LANCHOR0
 694              		.cfi_endproc
 695              	.LFE187:
 696              		.size	Cy_SAR_Sleep, .-Cy_SAR_Sleep
 697              		.section	.text.Cy_SAR_SetConvertMode,"ax",%progbits
 698              		.align	2
 699              		.global	Cy_SAR_SetConvertMode
 700              		.thumb
 701              		.thumb_func
 702              		.type	Cy_SAR_SetConvertMode, %function
 703              	Cy_SAR_SetConvertMode:
 704              	.LFB191:
 395:Generated_Source\PSoC6\pdl\drivers\peripheral\sar/cy_sar.c ****     }
 396:Generated_Source\PSoC6\pdl\drivers\peripheral\sar/cy_sar.c **** }
 397:Generated_Source\PSoC6\pdl\drivers\peripheral\sar/cy_sar.c **** 
 398:Generated_Source\PSoC6\pdl\drivers\peripheral\sar/cy_sar.c **** /*******************************************************************************
 399:Generated_Source\PSoC6\pdl\drivers\peripheral\sar/cy_sar.c **** * Function Name: Cy_SAR_SetConvertMode
 400:Generated_Source\PSoC6\pdl\drivers\peripheral\sar/cy_sar.c **** ****************************************************************************//**
 401:Generated_Source\PSoC6\pdl\drivers\peripheral\sar/cy_sar.c **** *
 402:Generated_Source\PSoC6\pdl\drivers\peripheral\sar/cy_sar.c **** * Set the mode in which conversions are triggered. This function does
 403:Generated_Source\PSoC6\pdl\drivers\peripheral\sar/cy_sar.c **** * not start any conversions; it only configures the mode for subsequent conversions.
 404:Generated_Source\PSoC6\pdl\drivers\peripheral\sar/cy_sar.c **** *
 405:Generated_Source\PSoC6\pdl\drivers\peripheral\sar/cy_sar.c **** * There are three modes:
 406:Generated_Source\PSoC6\pdl\drivers\peripheral\sar/cy_sar.c **** *   - firmware only; hardware triggering is disabled
 407:Generated_Source\PSoC6\pdl\drivers\peripheral\sar/cy_sar.c **** *   - firmware and edge sensitive hardware triggering
 408:Generated_Source\PSoC6\pdl\drivers\peripheral\sar/cy_sar.c **** *   - firmware and level sensitive hardware triggering
 409:Generated_Source\PSoC6\pdl\drivers\peripheral\sar/cy_sar.c **** *
 410:Generated_Source\PSoC6\pdl\drivers\peripheral\sar/cy_sar.c **** * Note that firmware triggering is always enabled.
 411:Generated_Source\PSoC6\pdl\drivers\peripheral\sar/cy_sar.c **** *
 412:Generated_Source\PSoC6\pdl\drivers\peripheral\sar/cy_sar.c **** * \param base
ARM GAS  C:\Users\gjl\AppData\Local\Temp\ccG9SHX7.s 			page 21


 413:Generated_Source\PSoC6\pdl\drivers\peripheral\sar/cy_sar.c **** * Pointer to structure describing registers
 414:Generated_Source\PSoC6\pdl\drivers\peripheral\sar/cy_sar.c **** *
 415:Generated_Source\PSoC6\pdl\drivers\peripheral\sar/cy_sar.c **** * \param mode
 416:Generated_Source\PSoC6\pdl\drivers\peripheral\sar/cy_sar.c **** * A value of the enum \ref cy_en_sar_sample_ctrl_trigger_mode_t
 417:Generated_Source\PSoC6\pdl\drivers\peripheral\sar/cy_sar.c **** *
 418:Generated_Source\PSoC6\pdl\drivers\peripheral\sar/cy_sar.c **** * \return None
 419:Generated_Source\PSoC6\pdl\drivers\peripheral\sar/cy_sar.c **** *
 420:Generated_Source\PSoC6\pdl\drivers\peripheral\sar/cy_sar.c **** * \funcusage
 421:Generated_Source\PSoC6\pdl\drivers\peripheral\sar/cy_sar.c **** *
 422:Generated_Source\PSoC6\pdl\drivers\peripheral\sar/cy_sar.c **** * \snippet sar_sut_01.cydsn/main_cm4.c SAR_SNIPPET_SET_CONVERT_MODE
 423:Generated_Source\PSoC6\pdl\drivers\peripheral\sar/cy_sar.c **** *
 424:Generated_Source\PSoC6\pdl\drivers\peripheral\sar/cy_sar.c **** *******************************************************************************/
 425:Generated_Source\PSoC6\pdl\drivers\peripheral\sar/cy_sar.c **** void Cy_SAR_SetConvertMode(SAR_Type *base, cy_en_sar_sample_ctrl_trigger_mode_t mode)
 426:Generated_Source\PSoC6\pdl\drivers\peripheral\sar/cy_sar.c **** {
 705              		.loc 1 426 0
 706              		.cfi_startproc
 707              		@ args = 0, pretend = 0, frame = 0
 708              		@ frame_needed = 0, uses_anonymous_args = 0
 709              	.LVL66:
 710 0000 38B5     		push	{r3, r4, r5, lr}
 711              		.cfi_def_cfa_offset 16
 712              		.cfi_offset 3, -16
 713              		.cfi_offset 4, -12
 714              		.cfi_offset 5, -8
 715              		.cfi_offset 14, -4
 716 0002 0546     		mov	r5, r0
 427:Generated_Source\PSoC6\pdl\drivers\peripheral\sar/cy_sar.c ****     CY_ASSERT_L3(CY_SAR_TRIGGER(mode));
 717              		.loc 1 427 0
 718 0004 0C46     		mov	r4, r1
 719 0006 51B1     		cbz	r1, .L67
 720              		.loc 1 427 0 is_stmt 0 discriminator 1
 721 0008 B1F5003F 		cmp	r1, #131072
 722 000c 07D0     		beq	.L67
 723              		.loc 1 427 0 discriminator 2
 724 000e B1F5C02F 		cmp	r1, #393216
 725 0012 04D0     		beq	.L67
 726              		.loc 1 427 0 discriminator 3
 727 0014 40F2AB11 		movw	r1, #427
 728              	.LVL67:
 729 0018 0448     		ldr	r0, .L69
 730              	.LVL68:
 731 001a FFF7FEFF 		bl	Cy_SysLib_AssertFailed
 732              	.LVL69:
 733              	.L67:
 428:Generated_Source\PSoC6\pdl\drivers\peripheral\sar/cy_sar.c **** 
 429:Generated_Source\PSoC6\pdl\drivers\peripheral\sar/cy_sar.c ****     /* Clear the TRIGGER_EN and TRIGGER_LEVEL bits */
 430:Generated_Source\PSoC6\pdl\drivers\peripheral\sar/cy_sar.c ****     uint32_t sampleCtrlReg = base->SAMPLE_CTRL & ~(SAR_SAMPLE_CTRL_DSI_TRIGGER_EN_Msk | SAR_SAMPLE_
 734              		.loc 1 430 0 is_stmt 1
 735 001e 6968     		ldr	r1, [r5, #4]
 736 0020 21F4C021 		bic	r1, r1, #393216
 737              	.LVL70:
 431:Generated_Source\PSoC6\pdl\drivers\peripheral\sar/cy_sar.c **** 
 432:Generated_Source\PSoC6\pdl\drivers\peripheral\sar/cy_sar.c ****     base->SAMPLE_CTRL = sampleCtrlReg | mode;
 738              		.loc 1 432 0
 739 0024 2143     		orrs	r1, r1, r4
 740              	.LVL71:
 741 0026 6960     		str	r1, [r5, #4]
ARM GAS  C:\Users\gjl\AppData\Local\Temp\ccG9SHX7.s 			page 22


 742 0028 38BD     		pop	{r3, r4, r5, pc}
 743              	.LVL72:
 744              	.L70:
 745 002a 00BF     		.align	2
 746              	.L69:
 747 002c 00000000 		.word	.LC0
 748              		.cfi_endproc
 749              	.LFE191:
 750              		.size	Cy_SAR_SetConvertMode, .-Cy_SAR_SetConvertMode
 751              		.section	.text.Cy_SAR_IsEndConversion,"ax",%progbits
 752              		.align	2
 753              		.global	Cy_SAR_IsEndConversion
 754              		.thumb
 755              		.thumb_func
 756              		.type	Cy_SAR_IsEndConversion, %function
 757              	Cy_SAR_IsEndConversion:
 758              	.LFB192:
 433:Generated_Source\PSoC6\pdl\drivers\peripheral\sar/cy_sar.c **** }
 434:Generated_Source\PSoC6\pdl\drivers\peripheral\sar/cy_sar.c **** 
 435:Generated_Source\PSoC6\pdl\drivers\peripheral\sar/cy_sar.c **** /*******************************************************************************
 436:Generated_Source\PSoC6\pdl\drivers\peripheral\sar/cy_sar.c **** * Function Name: Cy_SAR_IsEndConversion
 437:Generated_Source\PSoC6\pdl\drivers\peripheral\sar/cy_sar.c **** ****************************************************************************//**
 438:Generated_Source\PSoC6\pdl\drivers\peripheral\sar/cy_sar.c **** *
 439:Generated_Source\PSoC6\pdl\drivers\peripheral\sar/cy_sar.c **** * Immediately return the status of the conversion or does not return (blocking)
 440:Generated_Source\PSoC6\pdl\drivers\peripheral\sar/cy_sar.c **** * until the conversion completes, depending on the retMode parameter.
 441:Generated_Source\PSoC6\pdl\drivers\peripheral\sar/cy_sar.c **** * In blocking mode, there is a time out of about 10 seconds for a CPU speed of
 442:Generated_Source\PSoC6\pdl\drivers\peripheral\sar/cy_sar.c **** * 100 MHz.
 443:Generated_Source\PSoC6\pdl\drivers\peripheral\sar/cy_sar.c **** *
 444:Generated_Source\PSoC6\pdl\drivers\peripheral\sar/cy_sar.c **** * \param base
 445:Generated_Source\PSoC6\pdl\drivers\peripheral\sar/cy_sar.c **** * Pointer to structure describing registers
 446:Generated_Source\PSoC6\pdl\drivers\peripheral\sar/cy_sar.c **** *
 447:Generated_Source\PSoC6\pdl\drivers\peripheral\sar/cy_sar.c **** * \param retMode
 448:Generated_Source\PSoC6\pdl\drivers\peripheral\sar/cy_sar.c **** * A value of the enum \ref cy_en_sar_return_mode_t
 449:Generated_Source\PSoC6\pdl\drivers\peripheral\sar/cy_sar.c **** *
 450:Generated_Source\PSoC6\pdl\drivers\peripheral\sar/cy_sar.c **** * \return
 451:Generated_Source\PSoC6\pdl\drivers\peripheral\sar/cy_sar.c **** * - \ref CY_SAR_SUCCESS : the last conversion is complete
 452:Generated_Source\PSoC6\pdl\drivers\peripheral\sar/cy_sar.c **** * - \ref CY_SAR_CONVERSION_NOT_COMPLETE : the conversion has not completed
 453:Generated_Source\PSoC6\pdl\drivers\peripheral\sar/cy_sar.c **** * - \ref CY_SAR_TIMEOUT : the watchdog timer has expired in blocking mode
 454:Generated_Source\PSoC6\pdl\drivers\peripheral\sar/cy_sar.c **** *
 455:Generated_Source\PSoC6\pdl\drivers\peripheral\sar/cy_sar.c **** * \sideeffect
 456:Generated_Source\PSoC6\pdl\drivers\peripheral\sar/cy_sar.c **** * This function reads the end of conversion status and clears it after.
 457:Generated_Source\PSoC6\pdl\drivers\peripheral\sar/cy_sar.c **** *
 458:Generated_Source\PSoC6\pdl\drivers\peripheral\sar/cy_sar.c **** * \funcusage
 459:Generated_Source\PSoC6\pdl\drivers\peripheral\sar/cy_sar.c **** *
 460:Generated_Source\PSoC6\pdl\drivers\peripheral\sar/cy_sar.c **** * \snippet sar_sut_01.cydsn/main_cm0p.c SNIPPET_SAR_IS_END_CONVERSION
 461:Generated_Source\PSoC6\pdl\drivers\peripheral\sar/cy_sar.c **** *
 462:Generated_Source\PSoC6\pdl\drivers\peripheral\sar/cy_sar.c **** *******************************************************************************/
 463:Generated_Source\PSoC6\pdl\drivers\peripheral\sar/cy_sar.c **** cy_en_sar_status_t Cy_SAR_IsEndConversion(SAR_Type *base, cy_en_sar_return_mode_t retMode)
 464:Generated_Source\PSoC6\pdl\drivers\peripheral\sar/cy_sar.c **** {
 759              		.loc 1 464 0
 760              		.cfi_startproc
 761              		@ args = 0, pretend = 0, frame = 0
 762              		@ frame_needed = 0, uses_anonymous_args = 0
 763              	.LVL73:
 764 0000 38B5     		push	{r3, r4, r5, lr}
 765              		.cfi_def_cfa_offset 16
 766              		.cfi_offset 3, -16
ARM GAS  C:\Users\gjl\AppData\Local\Temp\ccG9SHX7.s 			page 23


 767              		.cfi_offset 4, -12
 768              		.cfi_offset 5, -8
 769              		.cfi_offset 14, -4
 770 0002 0446     		mov	r4, r0
 771 0004 0D46     		mov	r5, r1
 465:Generated_Source\PSoC6\pdl\drivers\peripheral\sar/cy_sar.c ****     CY_ASSERT_L3(CY_SAR_RETURN(retMode));
 772              		.loc 1 465 0
 773 0006 0129     		cmp	r1, #1
 774 0008 04D9     		bls	.L72
 775              		.loc 1 465 0 is_stmt 0 discriminator 1
 776 000a 40F2D111 		movw	r1, #465
 777              	.LVL74:
 778 000e 1148     		ldr	r0, .L83
 779              	.LVL75:
 780 0010 FFF7FEFF 		bl	Cy_SysLib_AssertFailed
 781              	.LVL76:
 782              	.L72:
 466:Generated_Source\PSoC6\pdl\drivers\peripheral\sar/cy_sar.c **** 
 467:Generated_Source\PSoC6\pdl\drivers\peripheral\sar/cy_sar.c ****     cy_en_sar_status_t result;
 468:Generated_Source\PSoC6\pdl\drivers\peripheral\sar/cy_sar.c **** 
 469:Generated_Source\PSoC6\pdl\drivers\peripheral\sar/cy_sar.c ****     uint32_t endOfConversion = base->INTR & SAR_INTR_EOS_INTR_Msk;
 783              		.loc 1 469 0 is_stmt 1
 784 0014 D4F81032 		ldr	r3, [r4, #528]
 785 0018 03F00103 		and	r3, r3, #1
 786              	.LVL77:
 470:Generated_Source\PSoC6\pdl\drivers\peripheral\sar/cy_sar.c ****     uint32_t wdt = 0x1555555uL; /* Watchdog timer for blocking while loop */
 471:Generated_Source\PSoC6\pdl\drivers\peripheral\sar/cy_sar.c **** 
 472:Generated_Source\PSoC6\pdl\drivers\peripheral\sar/cy_sar.c ****     switch(retMode)
 787              		.loc 1 472 0
 788 001c 012D     		cmp	r5, #1
 789 001e 06D0     		beq	.L79
 790 0020 0AE0     		b	.L81
 791              	.LVL78:
 792              	.L75:
 473:Generated_Source\PSoC6\pdl\drivers\peripheral\sar/cy_sar.c ****     {
 474:Generated_Source\PSoC6\pdl\drivers\peripheral\sar/cy_sar.c ****     case CY_SAR_WAIT_FOR_RESULT:
 475:Generated_Source\PSoC6\pdl\drivers\peripheral\sar/cy_sar.c ****         while((0uL == endOfConversion) && (0uL != wdt))
 476:Generated_Source\PSoC6\pdl\drivers\peripheral\sar/cy_sar.c ****         {
 477:Generated_Source\PSoC6\pdl\drivers\peripheral\sar/cy_sar.c ****             endOfConversion = base->INTR & SAR_INTR_EOS_INTR_Msk;
 793              		.loc 1 477 0
 794 0022 D4F81032 		ldr	r3, [r4, #528]
 795              	.LVL79:
 796 0026 03F00103 		and	r3, r3, #1
 797              	.LVL80:
 478:Generated_Source\PSoC6\pdl\drivers\peripheral\sar/cy_sar.c ****             wdt--;
 798              		.loc 1 478 0
 799 002a 013A     		subs	r2, r2, #1
 800              	.LVL81:
 801 002c 00E0     		b	.L74
 802              	.LVL82:
 803              	.L79:
 472:Generated_Source\PSoC6\pdl\drivers\peripheral\sar/cy_sar.c ****     {
 804              		.loc 1 472 0
 805 002e 0A4A     		ldr	r2, .L83+4
 806              	.LVL83:
 807              	.L74:
 475:Generated_Source\PSoC6\pdl\drivers\peripheral\sar/cy_sar.c ****         {
ARM GAS  C:\Users\gjl\AppData\Local\Temp\ccG9SHX7.s 			page 24


 808              		.loc 1 475 0
 809 0030 1BB9     		cbnz	r3, .L73
 475:Generated_Source\PSoC6\pdl\drivers\peripheral\sar/cy_sar.c ****         {
 810              		.loc 1 475 0 is_stmt 0 discriminator 1
 811 0032 002A     		cmp	r2, #0
 812 0034 F5D1     		bne	.L75
 813 0036 00E0     		b	.L73
 814              	.LVL84:
 815              	.L81:
 470:Generated_Source\PSoC6\pdl\drivers\peripheral\sar/cy_sar.c **** 
 816              		.loc 1 470 0 is_stmt 1
 817 0038 074A     		ldr	r2, .L83+4
 818              	.LVL85:
 819              	.L73:
 479:Generated_Source\PSoC6\pdl\drivers\peripheral\sar/cy_sar.c ****         }
 480:Generated_Source\PSoC6\pdl\drivers\peripheral\sar/cy_sar.c ****         break;
 481:Generated_Source\PSoC6\pdl\drivers\peripheral\sar/cy_sar.c ****     case CY_SAR_RETURN_STATUS:
 482:Generated_Source\PSoC6\pdl\drivers\peripheral\sar/cy_sar.c ****     default:
 483:Generated_Source\PSoC6\pdl\drivers\peripheral\sar/cy_sar.c ****         break;
 484:Generated_Source\PSoC6\pdl\drivers\peripheral\sar/cy_sar.c ****     }
 485:Generated_Source\PSoC6\pdl\drivers\peripheral\sar/cy_sar.c **** 
 486:Generated_Source\PSoC6\pdl\drivers\peripheral\sar/cy_sar.c ****     /* Clear the EOS bit */
 487:Generated_Source\PSoC6\pdl\drivers\peripheral\sar/cy_sar.c ****     if (SAR_INTR_EOS_INTR_Msk == endOfConversion)
 820              		.loc 1 487 0
 821 003a 33B1     		cbz	r3, .L76
 822              	.LVL86:
 488:Generated_Source\PSoC6\pdl\drivers\peripheral\sar/cy_sar.c ****     {
 489:Generated_Source\PSoC6\pdl\drivers\peripheral\sar/cy_sar.c ****         result = CY_SAR_SUCCESS;
 490:Generated_Source\PSoC6\pdl\drivers\peripheral\sar/cy_sar.c ****         base->INTR = SAR_INTR_EOS_INTR_Msk;
 823              		.loc 1 490 0
 824 003c 0123     		movs	r3, #1
 825              	.LVL87:
 826 003e C4F81032 		str	r3, [r4, #528]
 491:Generated_Source\PSoC6\pdl\drivers\peripheral\sar/cy_sar.c ****         /* Do a dummy read after write for buffered write */
 492:Generated_Source\PSoC6\pdl\drivers\peripheral\sar/cy_sar.c ****         (void) base->INTR;
 827              		.loc 1 492 0
 828 0042 D4F81032 		ldr	r3, [r4, #528]
 489:Generated_Source\PSoC6\pdl\drivers\peripheral\sar/cy_sar.c ****         base->INTR = SAR_INTR_EOS_INTR_Msk;
 829              		.loc 1 489 0
 830 0046 0020     		movs	r0, #0
 831 0048 38BD     		pop	{r3, r4, r5, pc}
 832              	.LVL88:
 833              	.L76:
 493:Generated_Source\PSoC6\pdl\drivers\peripheral\sar/cy_sar.c ****     }
 494:Generated_Source\PSoC6\pdl\drivers\peripheral\sar/cy_sar.c ****     else if (0uL == wdt)
 834              		.loc 1 494 0
 835 004a 0AB9     		cbnz	r2, .L80
 495:Generated_Source\PSoC6\pdl\drivers\peripheral\sar/cy_sar.c ****     {
 496:Generated_Source\PSoC6\pdl\drivers\peripheral\sar/cy_sar.c ****         result = CY_SAR_TIMEOUT;
 836              		.loc 1 496 0
 837 004c 0348     		ldr	r0, .L83+8
 838 004e 38BD     		pop	{r3, r4, r5, pc}
 839              	.LVL89:
 840              	.L80:
 497:Generated_Source\PSoC6\pdl\drivers\peripheral\sar/cy_sar.c ****     }
 498:Generated_Source\PSoC6\pdl\drivers\peripheral\sar/cy_sar.c ****     else
 499:Generated_Source\PSoC6\pdl\drivers\peripheral\sar/cy_sar.c ****     {
ARM GAS  C:\Users\gjl\AppData\Local\Temp\ccG9SHX7.s 			page 25


 500:Generated_Source\PSoC6\pdl\drivers\peripheral\sar/cy_sar.c ****         result = CY_SAR_CONVERSION_NOT_COMPLETE;
 841              		.loc 1 500 0
 842 0050 0348     		ldr	r0, .L83+12
 843              	.LVL90:
 501:Generated_Source\PSoC6\pdl\drivers\peripheral\sar/cy_sar.c ****     }
 502:Generated_Source\PSoC6\pdl\drivers\peripheral\sar/cy_sar.c **** 
 503:Generated_Source\PSoC6\pdl\drivers\peripheral\sar/cy_sar.c ****     return result;
 504:Generated_Source\PSoC6\pdl\drivers\peripheral\sar/cy_sar.c **** }
 844              		.loc 1 504 0
 845 0052 38BD     		pop	{r3, r4, r5, pc}
 846              	.LVL91:
 847              	.L84:
 848              		.align	2
 849              	.L83:
 850 0054 00000000 		.word	.LC0
 851 0058 55555501 		.word	22369621
 852 005c 02000600 		.word	393218
 853 0060 03000600 		.word	393219
 854              		.cfi_endproc
 855              	.LFE192:
 856              		.size	Cy_SAR_IsEndConversion, .-Cy_SAR_IsEndConversion
 857              		.section	.text.Cy_SAR_IsChannelSingleEnded,"ax",%progbits
 858              		.align	2
 859              		.global	Cy_SAR_IsChannelSingleEnded
 860              		.thumb
 861              		.thumb_func
 862              		.type	Cy_SAR_IsChannelSingleEnded, %function
 863              	Cy_SAR_IsChannelSingleEnded:
 864              	.LFB194:
 505:Generated_Source\PSoC6\pdl\drivers\peripheral\sar/cy_sar.c **** 
 506:Generated_Source\PSoC6\pdl\drivers\peripheral\sar/cy_sar.c **** /*******************************************************************************
 507:Generated_Source\PSoC6\pdl\drivers\peripheral\sar/cy_sar.c **** * Function Name: Cy_SAR_IsChannelSigned
 508:Generated_Source\PSoC6\pdl\drivers\peripheral\sar/cy_sar.c **** ****************************************************************************//**
 509:Generated_Source\PSoC6\pdl\drivers\peripheral\sar/cy_sar.c **** *
 510:Generated_Source\PSoC6\pdl\drivers\peripheral\sar/cy_sar.c **** * Return true if channel result is configured for signed format, else false.
 511:Generated_Source\PSoC6\pdl\drivers\peripheral\sar/cy_sar.c **** * The formats for single-ended and differential channels are independent.
 512:Generated_Source\PSoC6\pdl\drivers\peripheral\sar/cy_sar.c **** * This function will first check whether the channel is single-ended or differential.
 513:Generated_Source\PSoC6\pdl\drivers\peripheral\sar/cy_sar.c **** *
 514:Generated_Source\PSoC6\pdl\drivers\peripheral\sar/cy_sar.c **** * \param base
 515:Generated_Source\PSoC6\pdl\drivers\peripheral\sar/cy_sar.c **** * Pointer to structure describing registers
 516:Generated_Source\PSoC6\pdl\drivers\peripheral\sar/cy_sar.c **** *
 517:Generated_Source\PSoC6\pdl\drivers\peripheral\sar/cy_sar.c **** * \param chan
 518:Generated_Source\PSoC6\pdl\drivers\peripheral\sar/cy_sar.c **** * The channel to check, between 0 and \ref CY_SAR_MAX_NUM_CHANNELS - 1
 519:Generated_Source\PSoC6\pdl\drivers\peripheral\sar/cy_sar.c **** *
 520:Generated_Source\PSoC6\pdl\drivers\peripheral\sar/cy_sar.c **** * \return
 521:Generated_Source\PSoC6\pdl\drivers\peripheral\sar/cy_sar.c **** * If channel number is invalid, false is returned
 522:Generated_Source\PSoC6\pdl\drivers\peripheral\sar/cy_sar.c **** *
 523:Generated_Source\PSoC6\pdl\drivers\peripheral\sar/cy_sar.c **** * \funcusage
 524:Generated_Source\PSoC6\pdl\drivers\peripheral\sar/cy_sar.c **** *
 525:Generated_Source\PSoC6\pdl\drivers\peripheral\sar/cy_sar.c **** * \snippet sar_sut_01.cydsn/main_cm0p.c SNIPPET_SAR_IS_CHANNEL_SIGNED
 526:Generated_Source\PSoC6\pdl\drivers\peripheral\sar/cy_sar.c **** *
 527:Generated_Source\PSoC6\pdl\drivers\peripheral\sar/cy_sar.c **** *******************************************************************************/
 528:Generated_Source\PSoC6\pdl\drivers\peripheral\sar/cy_sar.c **** bool Cy_SAR_IsChannelSigned(const SAR_Type *base, uint32_t chan)
 529:Generated_Source\PSoC6\pdl\drivers\peripheral\sar/cy_sar.c **** {
 530:Generated_Source\PSoC6\pdl\drivers\peripheral\sar/cy_sar.c ****     CY_ASSERT_L2(CY_SAR_CHANNUM(chan));
 531:Generated_Source\PSoC6\pdl\drivers\peripheral\sar/cy_sar.c **** 
 532:Generated_Source\PSoC6\pdl\drivers\peripheral\sar/cy_sar.c ****     bool isSigned = false;
ARM GAS  C:\Users\gjl\AppData\Local\Temp\ccG9SHX7.s 			page 26


 533:Generated_Source\PSoC6\pdl\drivers\peripheral\sar/cy_sar.c **** 
 534:Generated_Source\PSoC6\pdl\drivers\peripheral\sar/cy_sar.c ****     if (chan < CY_SAR_MAX_NUM_CHANNELS)
 535:Generated_Source\PSoC6\pdl\drivers\peripheral\sar/cy_sar.c ****     {
 536:Generated_Source\PSoC6\pdl\drivers\peripheral\sar/cy_sar.c **** 
 537:Generated_Source\PSoC6\pdl\drivers\peripheral\sar/cy_sar.c ****         /* Sign bits are stored separately for differential and single ended channels. */
 538:Generated_Source\PSoC6\pdl\drivers\peripheral\sar/cy_sar.c ****         if (true == Cy_SAR_IsChannelDifferential(base, chan))
 539:Generated_Source\PSoC6\pdl\drivers\peripheral\sar/cy_sar.c ****         { /* Differential channel */
 540:Generated_Source\PSoC6\pdl\drivers\peripheral\sar/cy_sar.c ****             if (SAR_SAMPLE_CTRL_DIFFERENTIAL_SIGNED_Msk == (base->SAMPLE_CTRL & SAR_SAMPLE_CTRL_DIF
 541:Generated_Source\PSoC6\pdl\drivers\peripheral\sar/cy_sar.c ****             {
 542:Generated_Source\PSoC6\pdl\drivers\peripheral\sar/cy_sar.c ****                 isSigned = true;
 543:Generated_Source\PSoC6\pdl\drivers\peripheral\sar/cy_sar.c ****             }
 544:Generated_Source\PSoC6\pdl\drivers\peripheral\sar/cy_sar.c ****         }
 545:Generated_Source\PSoC6\pdl\drivers\peripheral\sar/cy_sar.c ****         else
 546:Generated_Source\PSoC6\pdl\drivers\peripheral\sar/cy_sar.c ****         { /* Single ended channel */
 547:Generated_Source\PSoC6\pdl\drivers\peripheral\sar/cy_sar.c ****             if (SAR_SAMPLE_CTRL_SINGLE_ENDED_SIGNED_Msk == (base->SAMPLE_CTRL & SAR_SAMPLE_CTRL_SIN
 548:Generated_Source\PSoC6\pdl\drivers\peripheral\sar/cy_sar.c ****             {
 549:Generated_Source\PSoC6\pdl\drivers\peripheral\sar/cy_sar.c ****                 isSigned = true;
 550:Generated_Source\PSoC6\pdl\drivers\peripheral\sar/cy_sar.c ****             }
 551:Generated_Source\PSoC6\pdl\drivers\peripheral\sar/cy_sar.c ****         }
 552:Generated_Source\PSoC6\pdl\drivers\peripheral\sar/cy_sar.c ****     }
 553:Generated_Source\PSoC6\pdl\drivers\peripheral\sar/cy_sar.c **** 
 554:Generated_Source\PSoC6\pdl\drivers\peripheral\sar/cy_sar.c ****     return isSigned;
 555:Generated_Source\PSoC6\pdl\drivers\peripheral\sar/cy_sar.c **** }
 556:Generated_Source\PSoC6\pdl\drivers\peripheral\sar/cy_sar.c **** 
 557:Generated_Source\PSoC6\pdl\drivers\peripheral\sar/cy_sar.c **** /*******************************************************************************
 558:Generated_Source\PSoC6\pdl\drivers\peripheral\sar/cy_sar.c **** * Function Name: Cy_SAR_IsChannelSingleEnded
 559:Generated_Source\PSoC6\pdl\drivers\peripheral\sar/cy_sar.c **** ****************************************************************************//**
 560:Generated_Source\PSoC6\pdl\drivers\peripheral\sar/cy_sar.c **** *
 561:Generated_Source\PSoC6\pdl\drivers\peripheral\sar/cy_sar.c **** * Return true if channel is single ended, else false
 562:Generated_Source\PSoC6\pdl\drivers\peripheral\sar/cy_sar.c **** *
 563:Generated_Source\PSoC6\pdl\drivers\peripheral\sar/cy_sar.c **** * \param base
 564:Generated_Source\PSoC6\pdl\drivers\peripheral\sar/cy_sar.c **** * Pointer to structure describing registers
 565:Generated_Source\PSoC6\pdl\drivers\peripheral\sar/cy_sar.c **** *
 566:Generated_Source\PSoC6\pdl\drivers\peripheral\sar/cy_sar.c **** * \param chan
 567:Generated_Source\PSoC6\pdl\drivers\peripheral\sar/cy_sar.c **** * The channel to check, between 0 and \ref CY_SAR_MAX_NUM_CHANNELS - 1
 568:Generated_Source\PSoC6\pdl\drivers\peripheral\sar/cy_sar.c **** *
 569:Generated_Source\PSoC6\pdl\drivers\peripheral\sar/cy_sar.c **** * \return
 570:Generated_Source\PSoC6\pdl\drivers\peripheral\sar/cy_sar.c **** * If channel number is invalid, false is returned
 571:Generated_Source\PSoC6\pdl\drivers\peripheral\sar/cy_sar.c **** *
 572:Generated_Source\PSoC6\pdl\drivers\peripheral\sar/cy_sar.c **** * \funcusage
 573:Generated_Source\PSoC6\pdl\drivers\peripheral\sar/cy_sar.c **** *
 574:Generated_Source\PSoC6\pdl\drivers\peripheral\sar/cy_sar.c **** * \snippet sar_sut_01.cydsn/main_cm0p.c SNIPPET_SAR_IS_CHANNEL_SE
 575:Generated_Source\PSoC6\pdl\drivers\peripheral\sar/cy_sar.c **** *
 576:Generated_Source\PSoC6\pdl\drivers\peripheral\sar/cy_sar.c **** *******************************************************************************/
 577:Generated_Source\PSoC6\pdl\drivers\peripheral\sar/cy_sar.c **** bool Cy_SAR_IsChannelSingleEnded(const SAR_Type *base, uint32_t chan)
 578:Generated_Source\PSoC6\pdl\drivers\peripheral\sar/cy_sar.c **** {
 865              		.loc 1 578 0
 866              		.cfi_startproc
 867              		@ args = 0, pretend = 0, frame = 0
 868              		@ frame_needed = 0, uses_anonymous_args = 0
 869              	.LVL92:
 870 0000 38B5     		push	{r3, r4, r5, lr}
 871              		.cfi_def_cfa_offset 16
 872              		.cfi_offset 3, -16
 873              		.cfi_offset 4, -12
 874              		.cfi_offset 5, -8
 875              		.cfi_offset 14, -4
ARM GAS  C:\Users\gjl\AppData\Local\Temp\ccG9SHX7.s 			page 27


 876 0002 0546     		mov	r5, r0
 877 0004 0C46     		mov	r4, r1
 579:Generated_Source\PSoC6\pdl\drivers\peripheral\sar/cy_sar.c ****     CY_ASSERT_L2(CY_SAR_CHANNUM(chan));
 878              		.loc 1 579 0
 879 0006 0F29     		cmp	r1, #15
 880 0008 04D9     		bls	.L86
 881              		.loc 1 579 0 is_stmt 0 discriminator 1
 882 000a 40F24321 		movw	r1, #579
 883              	.LVL93:
 884 000e 0848     		ldr	r0, .L91
 885              	.LVL94:
 886 0010 FFF7FEFF 		bl	Cy_SysLib_AssertFailed
 887              	.LVL95:
 888              	.L86:
 580:Generated_Source\PSoC6\pdl\drivers\peripheral\sar/cy_sar.c **** 
 581:Generated_Source\PSoC6\pdl\drivers\peripheral\sar/cy_sar.c ****     bool isSingleEnded = false;
 582:Generated_Source\PSoC6\pdl\drivers\peripheral\sar/cy_sar.c **** 
 583:Generated_Source\PSoC6\pdl\drivers\peripheral\sar/cy_sar.c ****     if (chan < CY_SAR_MAX_NUM_CHANNELS)
 889              		.loc 1 583 0 is_stmt 1
 890 0014 0F2C     		cmp	r4, #15
 891 0016 07D8     		bhi	.L88
 584:Generated_Source\PSoC6\pdl\drivers\peripheral\sar/cy_sar.c ****     {
 585:Generated_Source\PSoC6\pdl\drivers\peripheral\sar/cy_sar.c ****         if (0uL == (base->CHAN_CONFIG[chan] & (SAR_CHAN_CONFIG_DIFFERENTIAL_EN_Msk | SAR_CHAN_CONFI
 892              		.loc 1 585 0
 893 0018 2034     		adds	r4, r4, #32
 894              	.LVL96:
 895 001a 55F82430 		ldr	r3, [r5, r4, lsl #2]
 896 001e 13F0012F 		tst	r3, #16777472
 897 0022 03D0     		beq	.L89
 581:Generated_Source\PSoC6\pdl\drivers\peripheral\sar/cy_sar.c **** 
 898              		.loc 1 581 0
 899 0024 0020     		movs	r0, #0
 900 0026 38BD     		pop	{r3, r4, r5, pc}
 901              	.LVL97:
 902              	.L88:
 903 0028 0020     		movs	r0, #0
 904 002a 38BD     		pop	{r3, r4, r5, pc}
 905              	.LVL98:
 906              	.L89:
 586:Generated_Source\PSoC6\pdl\drivers\peripheral\sar/cy_sar.c ****             isSingleEnded = true;
 907              		.loc 1 586 0
 908 002c 0120     		movs	r0, #1
 909              	.LVL99:
 587:Generated_Source\PSoC6\pdl\drivers\peripheral\sar/cy_sar.c ****         }
 588:Generated_Source\PSoC6\pdl\drivers\peripheral\sar/cy_sar.c ****     }
 589:Generated_Source\PSoC6\pdl\drivers\peripheral\sar/cy_sar.c **** 
 590:Generated_Source\PSoC6\pdl\drivers\peripheral\sar/cy_sar.c ****     return isSingleEnded;
 591:Generated_Source\PSoC6\pdl\drivers\peripheral\sar/cy_sar.c **** }
 910              		.loc 1 591 0
 911 002e 38BD     		pop	{r3, r4, r5, pc}
 912              	.LVL100:
 913              	.L92:
 914              		.align	2
 915              	.L91:
 916 0030 00000000 		.word	.LC0
 917              		.cfi_endproc
 918              	.LFE194:
ARM GAS  C:\Users\gjl\AppData\Local\Temp\ccG9SHX7.s 			page 28


 919              		.size	Cy_SAR_IsChannelSingleEnded, .-Cy_SAR_IsChannelSingleEnded
 920              		.section	.text.Cy_SAR_IsChannelSigned,"ax",%progbits
 921              		.align	2
 922              		.global	Cy_SAR_IsChannelSigned
 923              		.thumb
 924              		.thumb_func
 925              		.type	Cy_SAR_IsChannelSigned, %function
 926              	Cy_SAR_IsChannelSigned:
 927              	.LFB193:
 529:Generated_Source\PSoC6\pdl\drivers\peripheral\sar/cy_sar.c ****     CY_ASSERT_L2(CY_SAR_CHANNUM(chan));
 928              		.loc 1 529 0
 929              		.cfi_startproc
 930              		@ args = 0, pretend = 0, frame = 0
 931              		@ frame_needed = 0, uses_anonymous_args = 0
 932              	.LVL101:
 933 0000 38B5     		push	{r3, r4, r5, lr}
 934              		.cfi_def_cfa_offset 16
 935              		.cfi_offset 3, -16
 936              		.cfi_offset 4, -12
 937              		.cfi_offset 5, -8
 938              		.cfi_offset 14, -4
 939 0002 0546     		mov	r5, r0
 940 0004 0C46     		mov	r4, r1
 530:Generated_Source\PSoC6\pdl\drivers\peripheral\sar/cy_sar.c **** 
 941              		.loc 1 530 0
 942 0006 0F29     		cmp	r1, #15
 943 0008 04D9     		bls	.L94
 530:Generated_Source\PSoC6\pdl\drivers\peripheral\sar/cy_sar.c **** 
 944              		.loc 1 530 0 is_stmt 0 discriminator 1
 945 000a 40F21221 		movw	r1, #530
 946              	.LVL102:
 947 000e 1048     		ldr	r0, .L101
 948              	.LVL103:
 949 0010 FFF7FEFF 		bl	Cy_SysLib_AssertFailed
 950              	.LVL104:
 951              	.L94:
 534:Generated_Source\PSoC6\pdl\drivers\peripheral\sar/cy_sar.c ****     {
 952              		.loc 1 534 0 is_stmt 1
 953 0014 0F2C     		cmp	r4, #15
 954 0016 14D8     		bhi	.L97
 955              	.LVL105:
 956              	.LBB4:
 957              	.LBB5:
 958              		.file 2 "Generated_Source\\PSoC6\\pdl\\drivers\\peripheral\\sar\\cy_sar.h"
   1:Generated_Source\PSoC6\pdl\drivers\peripheral\sar/cy_sar.h **** /***************************************************************************//**
   2:Generated_Source\PSoC6\pdl\drivers\peripheral\sar/cy_sar.h **** * \file cy_sar.h
   3:Generated_Source\PSoC6\pdl\drivers\peripheral\sar/cy_sar.h **** * \version 1.10
   4:Generated_Source\PSoC6\pdl\drivers\peripheral\sar/cy_sar.h **** *
   5:Generated_Source\PSoC6\pdl\drivers\peripheral\sar/cy_sar.h **** * Header file for the SAR driver.
   6:Generated_Source\PSoC6\pdl\drivers\peripheral\sar/cy_sar.h **** *
   7:Generated_Source\PSoC6\pdl\drivers\peripheral\sar/cy_sar.h **** ********************************************************************************
   8:Generated_Source\PSoC6\pdl\drivers\peripheral\sar/cy_sar.h **** * \copyright
   9:Generated_Source\PSoC6\pdl\drivers\peripheral\sar/cy_sar.h **** * Copyright 2017-2018, Cypress Semiconductor Corporation. All rights reserved.
  10:Generated_Source\PSoC6\pdl\drivers\peripheral\sar/cy_sar.h **** * You may use this file only in accordance with the license, terms, conditions,
  11:Generated_Source\PSoC6\pdl\drivers\peripheral\sar/cy_sar.h **** * disclaimers, and limitations in the end user license agreement accompanying
  12:Generated_Source\PSoC6\pdl\drivers\peripheral\sar/cy_sar.h **** * the software package with which this file was provided.
  13:Generated_Source\PSoC6\pdl\drivers\peripheral\sar/cy_sar.h **** *******************************************************************************/
ARM GAS  C:\Users\gjl\AppData\Local\Temp\ccG9SHX7.s 			page 29


  14:Generated_Source\PSoC6\pdl\drivers\peripheral\sar/cy_sar.h **** 
  15:Generated_Source\PSoC6\pdl\drivers\peripheral\sar/cy_sar.h **** /**
  16:Generated_Source\PSoC6\pdl\drivers\peripheral\sar/cy_sar.h **** * \defgroup group_sar SAR ADC Subsystem (SAR)
  17:Generated_Source\PSoC6\pdl\drivers\peripheral\sar/cy_sar.h **** * \{
  18:Generated_Source\PSoC6\pdl\drivers\peripheral\sar/cy_sar.h **** * This driver configures and controls the SAR ADC subsystem block.
  19:Generated_Source\PSoC6\pdl\drivers\peripheral\sar/cy_sar.h **** *
  20:Generated_Source\PSoC6\pdl\drivers\peripheral\sar/cy_sar.h **** * This SAR ADC subsystem is comprised of:
  21:Generated_Source\PSoC6\pdl\drivers\peripheral\sar/cy_sar.h **** *   - a 12-bit SAR converter (SARADC)
  22:Generated_Source\PSoC6\pdl\drivers\peripheral\sar/cy_sar.h **** *   - an embedded reference block (SARREF)
  23:Generated_Source\PSoC6\pdl\drivers\peripheral\sar/cy_sar.h **** *   - a mux (\ref group_sar_sarmux "SARMUX") at the inputs of the converter
  24:Generated_Source\PSoC6\pdl\drivers\peripheral\sar/cy_sar.h **** *   - a sequence controller (\ref group_sar_sarmux "SARSEQ") that enables multi-channel acquisition
  25:Generated_Source\PSoC6\pdl\drivers\peripheral\sar/cy_sar.h **** *       in a round robin fashion, without CPU intervention, to maximize scan rates.
  26:Generated_Source\PSoC6\pdl\drivers\peripheral\sar/cy_sar.h **** *
  27:Generated_Source\PSoC6\pdl\drivers\peripheral\sar/cy_sar.h **** * \image html sar_block_diagram.png
  28:Generated_Source\PSoC6\pdl\drivers\peripheral\sar/cy_sar.h **** *
  29:Generated_Source\PSoC6\pdl\drivers\peripheral\sar/cy_sar.h **** * The high level features of the subsystem are:
  30:Generated_Source\PSoC6\pdl\drivers\peripheral\sar/cy_sar.h **** *   - maximum sample rate of 1 Msps
  31:Generated_Source\PSoC6\pdl\drivers\peripheral\sar/cy_sar.h **** *   - Sixteen individually configurable channels (depends on device routing capabilities)
  32:Generated_Source\PSoC6\pdl\drivers\peripheral\sar/cy_sar.h **** *   - per channel selectable
  33:Generated_Source\PSoC6\pdl\drivers\peripheral\sar/cy_sar.h **** *       - single-ended or differential input mode
  34:Generated_Source\PSoC6\pdl\drivers\peripheral\sar/cy_sar.h **** *       - input from external pin (8 channels in single-ended mode or 4 channels in differential mo
  35:Generated_Source\PSoC6\pdl\drivers\peripheral\sar/cy_sar.h **** *         or from internal signals (AMUXBUS, CTB, Die Temperature Sensor)
  36:Generated_Source\PSoC6\pdl\drivers\peripheral\sar/cy_sar.h **** *       - choose one of four programmable acquisition times
  37:Generated_Source\PSoC6\pdl\drivers\peripheral\sar/cy_sar.h **** *       - averaging and accumulation
  38:Generated_Source\PSoC6\pdl\drivers\peripheral\sar/cy_sar.h **** *   - scan can be triggered by firmware or hardware in single shot or continuous mode
  39:Generated_Source\PSoC6\pdl\drivers\peripheral\sar/cy_sar.h **** *   - hardware averaging from 2 to 256 samples
  40:Generated_Source\PSoC6\pdl\drivers\peripheral\sar/cy_sar.h **** *   - selectable voltage references
  41:Generated_Source\PSoC6\pdl\drivers\peripheral\sar/cy_sar.h **** *       - internal VDDA and VDDA/2 references
  42:Generated_Source\PSoC6\pdl\drivers\peripheral\sar/cy_sar.h **** *       - buffered 1.2 V bandgap reference from \ref group_sysanalog "AREF"
  43:Generated_Source\PSoC6\pdl\drivers\peripheral\sar/cy_sar.h **** *       - external reference from dedicated pin
  44:Generated_Source\PSoC6\pdl\drivers\peripheral\sar/cy_sar.h **** *   - Interrupt generation
  45:Generated_Source\PSoC6\pdl\drivers\peripheral\sar/cy_sar.h **** *
  46:Generated_Source\PSoC6\pdl\drivers\peripheral\sar/cy_sar.h **** * \section group_sar_usage Usage
  47:Generated_Source\PSoC6\pdl\drivers\peripheral\sar/cy_sar.h **** *
  48:Generated_Source\PSoC6\pdl\drivers\peripheral\sar/cy_sar.h **** * The high level steps to use this driver are:
  49:Generated_Source\PSoC6\pdl\drivers\peripheral\sar/cy_sar.h **** *
  50:Generated_Source\PSoC6\pdl\drivers\peripheral\sar/cy_sar.h **** *   -# \ref group_sar_initialization
  51:Generated_Source\PSoC6\pdl\drivers\peripheral\sar/cy_sar.h **** *   -# \ref group_sar_trigger_conversions
  52:Generated_Source\PSoC6\pdl\drivers\peripheral\sar/cy_sar.h **** *   -# \ref group_sar_handle_interrupts
  53:Generated_Source\PSoC6\pdl\drivers\peripheral\sar/cy_sar.h **** *   -# \ref group_sar_retrieve_result
  54:Generated_Source\PSoC6\pdl\drivers\peripheral\sar/cy_sar.h **** *
  55:Generated_Source\PSoC6\pdl\drivers\peripheral\sar/cy_sar.h **** * \section group_sar_initialization Initialization and Enable
  56:Generated_Source\PSoC6\pdl\drivers\peripheral\sar/cy_sar.h **** *
  57:Generated_Source\PSoC6\pdl\drivers\peripheral\sar/cy_sar.h **** * To configure the SAR subsystem, call \ref Cy_SAR_Init. Pass in a pointer to the \ref SAR_Type
  58:Generated_Source\PSoC6\pdl\drivers\peripheral\sar/cy_sar.h **** * structure for the base hardware register address and pass in the configuration structure,
  59:Generated_Source\PSoC6\pdl\drivers\peripheral\sar/cy_sar.h **** * \ref cy_stc_sar_config_t.
  60:Generated_Source\PSoC6\pdl\drivers\peripheral\sar/cy_sar.h **** *
  61:Generated_Source\PSoC6\pdl\drivers\peripheral\sar/cy_sar.h **** * After initialization, call \ref Cy_SAR_Enable to enable the hardware.
  62:Generated_Source\PSoC6\pdl\drivers\peripheral\sar/cy_sar.h **** *
  63:Generated_Source\PSoC6\pdl\drivers\peripheral\sar/cy_sar.h **** * Here is guidance on how to set the data fields of the configuration structure:
  64:Generated_Source\PSoC6\pdl\drivers\peripheral\sar/cy_sar.h **** *
  65:Generated_Source\PSoC6\pdl\drivers\peripheral\sar/cy_sar.h **** * \subsection group_sar_init_struct_ctrl uint32_t ctrl
  66:Generated_Source\PSoC6\pdl\drivers\peripheral\sar/cy_sar.h **** *
  67:Generated_Source\PSoC6\pdl\drivers\peripheral\sar/cy_sar.h **** * This field specifies configurations that apply to all channels such as the Vref
  68:Generated_Source\PSoC6\pdl\drivers\peripheral\sar/cy_sar.h **** * source or the negative terminal selection for all single-ended channels.
  69:Generated_Source\PSoC6\pdl\drivers\peripheral\sar/cy_sar.h **** * Select a value from each of the following enums that begin with "cy_en_sar_ctrl_" and "OR" them t
  70:Generated_Source\PSoC6\pdl\drivers\peripheral\sar/cy_sar.h **** *   - \ref cy_en_sar_ctrl_pwr_ctrl_vref_t
ARM GAS  C:\Users\gjl\AppData\Local\Temp\ccG9SHX7.s 			page 30


  71:Generated_Source\PSoC6\pdl\drivers\peripheral\sar/cy_sar.h **** *   - \ref cy_en_sar_ctrl_vref_sel_t
  72:Generated_Source\PSoC6\pdl\drivers\peripheral\sar/cy_sar.h **** *   - \ref cy_en_sar_ctrl_bypass_cap_t
  73:Generated_Source\PSoC6\pdl\drivers\peripheral\sar/cy_sar.h **** *   - \ref cy_en_sar_ctrl_neg_sel_t
  74:Generated_Source\PSoC6\pdl\drivers\peripheral\sar/cy_sar.h **** *   - \ref cy_en_sar_ctrl_hw_ctrl_negvref_t
  75:Generated_Source\PSoC6\pdl\drivers\peripheral\sar/cy_sar.h **** *   - \ref cy_en_sar_ctrl_comp_delay_t
  76:Generated_Source\PSoC6\pdl\drivers\peripheral\sar/cy_sar.h **** *   - \ref cy_en_sar_ctrl_comp_pwr_t
  77:Generated_Source\PSoC6\pdl\drivers\peripheral\sar/cy_sar.h **** *   - \ref cy_en_sar_ctrl_sarmux_deep_sleep_t
  78:Generated_Source\PSoC6\pdl\drivers\peripheral\sar/cy_sar.h **** *   - \ref cy_en_sar_ctrl_sarseq_routing_switches_t
  79:Generated_Source\PSoC6\pdl\drivers\peripheral\sar/cy_sar.h **** *
  80:Generated_Source\PSoC6\pdl\drivers\peripheral\sar/cy_sar.h **** * \snippet sar_sut_01.cydsn/main_cm0p.c SNIPPET_SAR_SAR_CTRL
  81:Generated_Source\PSoC6\pdl\drivers\peripheral\sar/cy_sar.h **** *
  82:Generated_Source\PSoC6\pdl\drivers\peripheral\sar/cy_sar.h **** * \subsection group_sar_init_struct_sampleCtrl uint32_t sampleCtrl
  83:Generated_Source\PSoC6\pdl\drivers\peripheral\sar/cy_sar.h **** *
  84:Generated_Source\PSoC6\pdl\drivers\peripheral\sar/cy_sar.h **** * This field configures sampling details that apply to all channels.
  85:Generated_Source\PSoC6\pdl\drivers\peripheral\sar/cy_sar.h **** * Select a value from each of the following enums that begin with "cy_en_sar_sample_" and "OR" them
  86:Generated_Source\PSoC6\pdl\drivers\peripheral\sar/cy_sar.h **** *   - \ref cy_en_sar_sample_ctrl_result_align_t
  87:Generated_Source\PSoC6\pdl\drivers\peripheral\sar/cy_sar.h **** *   - \ref cy_en_sar_sample_ctrl_single_ended_format_t
  88:Generated_Source\PSoC6\pdl\drivers\peripheral\sar/cy_sar.h **** *   - \ref cy_en_sar_sample_ctrl_differential_format_t
  89:Generated_Source\PSoC6\pdl\drivers\peripheral\sar/cy_sar.h **** *   - \ref cy_en_sar_sample_ctrl_avg_cnt_t
  90:Generated_Source\PSoC6\pdl\drivers\peripheral\sar/cy_sar.h **** *   - \ref cy_en_sar_sample_ctrl_avg_mode_t
  91:Generated_Source\PSoC6\pdl\drivers\peripheral\sar/cy_sar.h **** *   - \ref cy_en_sar_sample_ctrl_trigger_mode_t
  92:Generated_Source\PSoC6\pdl\drivers\peripheral\sar/cy_sar.h **** *
  93:Generated_Source\PSoC6\pdl\drivers\peripheral\sar/cy_sar.h **** * \snippet sar_sut_01.cydsn/main_cm0p.c SNIPPET_SAR_SAMPLE_CTRL
  94:Generated_Source\PSoC6\pdl\drivers\peripheral\sar/cy_sar.h **** *
  95:Generated_Source\PSoC6\pdl\drivers\peripheral\sar/cy_sar.h **** * \subsection group_sar_init_struct_sampleTime01 uint32_t sampleTime01
  96:Generated_Source\PSoC6\pdl\drivers\peripheral\sar/cy_sar.h **** *
  97:Generated_Source\PSoC6\pdl\drivers\peripheral\sar/cy_sar.h **** * This field configures the value for sample times 0 and 1 in ADC clock cycles.
  98:Generated_Source\PSoC6\pdl\drivers\peripheral\sar/cy_sar.h **** *
  99:Generated_Source\PSoC6\pdl\drivers\peripheral\sar/cy_sar.h **** * The SAR has four programmable 10-bit aperture times that are configured using two data fields,
 100:Generated_Source\PSoC6\pdl\drivers\peripheral\sar/cy_sar.h **** * \ref group_sar_init_struct_sampleTime01 and
 101:Generated_Source\PSoC6\pdl\drivers\peripheral\sar/cy_sar.h **** * \ref group_sar_init_struct_sampleTime23.
 102:Generated_Source\PSoC6\pdl\drivers\peripheral\sar/cy_sar.h **** * Ten bits allow for a range of 0 to 1023 cycles, however 0 and 1 are invalid.
 103:Generated_Source\PSoC6\pdl\drivers\peripheral\sar/cy_sar.h **** * The minimum aperture time is 167 ns. With an 18 MHz ADC clock, this is
 104:Generated_Source\PSoC6\pdl\drivers\peripheral\sar/cy_sar.h **** * equal to 3 cycles or a value of 4 in this field. The actual aperture time is one cycle less than
 105:Generated_Source\PSoC6\pdl\drivers\peripheral\sar/cy_sar.h **** * the value stored in this field.
 106:Generated_Source\PSoC6\pdl\drivers\peripheral\sar/cy_sar.h **** *
 107:Generated_Source\PSoC6\pdl\drivers\peripheral\sar/cy_sar.h **** * Use the shifts defined in \ref cy_en_sar_sample_time_shift_t.
 108:Generated_Source\PSoC6\pdl\drivers\peripheral\sar/cy_sar.h **** *
 109:Generated_Source\PSoC6\pdl\drivers\peripheral\sar/cy_sar.h **** * \snippet sar_sut_01.cydsn/main_cm0p.c SNIPPET_SAR_SAMPLE_TIME01
 110:Generated_Source\PSoC6\pdl\drivers\peripheral\sar/cy_sar.h **** *
 111:Generated_Source\PSoC6\pdl\drivers\peripheral\sar/cy_sar.h **** * \subsection group_sar_init_struct_sampleTime23 uint32_t sampleTime23
 112:Generated_Source\PSoC6\pdl\drivers\peripheral\sar/cy_sar.h **** *
 113:Generated_Source\PSoC6\pdl\drivers\peripheral\sar/cy_sar.h **** * This field configures the value for sample times 2 and 3 in ADC clock cycles.
 114:Generated_Source\PSoC6\pdl\drivers\peripheral\sar/cy_sar.h **** * Use the shifts defined in \ref cy_en_sar_sample_time_shift_t.
 115:Generated_Source\PSoC6\pdl\drivers\peripheral\sar/cy_sar.h **** *
 116:Generated_Source\PSoC6\pdl\drivers\peripheral\sar/cy_sar.h **** * \snippet sar_sut_01.cydsn/main_cm0p.c SNIPPET_SAR_SAMPLE_TIME23
 117:Generated_Source\PSoC6\pdl\drivers\peripheral\sar/cy_sar.h **** *
 118:Generated_Source\PSoC6\pdl\drivers\peripheral\sar/cy_sar.h **** * \subsection group_sar_init_struct_rangeThres uint32_t rangeThres
 119:Generated_Source\PSoC6\pdl\drivers\peripheral\sar/cy_sar.h **** *
 120:Generated_Source\PSoC6\pdl\drivers\peripheral\sar/cy_sar.h **** * This field configures the upper and lower thresholds for the range interrupt.
 121:Generated_Source\PSoC6\pdl\drivers\peripheral\sar/cy_sar.h **** * These thresholds apply on a global level for all channels with range detection enabled.
 122:Generated_Source\PSoC6\pdl\drivers\peripheral\sar/cy_sar.h **** *
 123:Generated_Source\PSoC6\pdl\drivers\peripheral\sar/cy_sar.h **** * The SARSEQ supports range detection to allow for automatic detection of sample values
 124:Generated_Source\PSoC6\pdl\drivers\peripheral\sar/cy_sar.h **** * compared to two programmable thresholds without CPU involvement.
 125:Generated_Source\PSoC6\pdl\drivers\peripheral\sar/cy_sar.h **** * Range detection is done after averaging, alignment, and sign extension (if applicable). In other 
 126:Generated_Source\PSoC6\pdl\drivers\peripheral\sar/cy_sar.h **** * threshold values need to have the same data format as the result data.
 127:Generated_Source\PSoC6\pdl\drivers\peripheral\sar/cy_sar.h **** * The values are interpreted as signed or unsigned according to each channel's configuration.
ARM GAS  C:\Users\gjl\AppData\Local\Temp\ccG9SHX7.s 			page 31


 128:Generated_Source\PSoC6\pdl\drivers\peripheral\sar/cy_sar.h **** *
 129:Generated_Source\PSoC6\pdl\drivers\peripheral\sar/cy_sar.h **** * Use the shifts defined in \ref cy_en_sar_range_thres_shift_t.
 130:Generated_Source\PSoC6\pdl\drivers\peripheral\sar/cy_sar.h **** *
 131:Generated_Source\PSoC6\pdl\drivers\peripheral\sar/cy_sar.h **** * The \ref Cy_SAR_SetLowLimit and \ref Cy_SAR_SetHighLimit provide run-time configurability of thes
 132:Generated_Source\PSoC6\pdl\drivers\peripheral\sar/cy_sar.h **** *
 133:Generated_Source\PSoC6\pdl\drivers\peripheral\sar/cy_sar.h **** * \snippet sar_sut_01.cydsn/main_cm0p.c SNIPPET_SAR_RANGE_THRES
 134:Generated_Source\PSoC6\pdl\drivers\peripheral\sar/cy_sar.h **** *
 135:Generated_Source\PSoC6\pdl\drivers\peripheral\sar/cy_sar.h **** * \subsection group_sar_init_struct_rangeCond cy_en_sar_range_detect_condition_t rangeCond
 136:Generated_Source\PSoC6\pdl\drivers\peripheral\sar/cy_sar.h **** *
 137:Generated_Source\PSoC6\pdl\drivers\peripheral\sar/cy_sar.h **** * This field configures the condition (below, inside, outside, or above) that will trigger
 138:Generated_Source\PSoC6\pdl\drivers\peripheral\sar/cy_sar.h **** * the range interrupt. Select a value from the \ref cy_en_sar_range_detect_condition_t enum.
 139:Generated_Source\PSoC6\pdl\drivers\peripheral\sar/cy_sar.h **** *
 140:Generated_Source\PSoC6\pdl\drivers\peripheral\sar/cy_sar.h **** * \subsection group_sar_init_struct_chanEn uint32_t chanEn
 141:Generated_Source\PSoC6\pdl\drivers\peripheral\sar/cy_sar.h **** *
 142:Generated_Source\PSoC6\pdl\drivers\peripheral\sar/cy_sar.h **** * This field configures which channels will be scanned.
 143:Generated_Source\PSoC6\pdl\drivers\peripheral\sar/cy_sar.h **** * Each bit corresponds to a channel. Bit 0 enables channel 0, bit 1 enables channel 1,
 144:Generated_Source\PSoC6\pdl\drivers\peripheral\sar/cy_sar.h **** * bit 2 enables channel 2, and so on.
 145:Generated_Source\PSoC6\pdl\drivers\peripheral\sar/cy_sar.h **** *
 146:Generated_Source\PSoC6\pdl\drivers\peripheral\sar/cy_sar.h **** * \subsection group_sar_init_struct_chanConfig uint32_t chanConfig[16]
 147:Generated_Source\PSoC6\pdl\drivers\peripheral\sar/cy_sar.h **** *
 148:Generated_Source\PSoC6\pdl\drivers\peripheral\sar/cy_sar.h **** * Each channel has its own channel configuration register.
 149:Generated_Source\PSoC6\pdl\drivers\peripheral\sar/cy_sar.h **** * The channel configuration specifies which pin/signal is connected to that channel
 150:Generated_Source\PSoC6\pdl\drivers\peripheral\sar/cy_sar.h **** * and how the channel is sampled.
 151:Generated_Source\PSoC6\pdl\drivers\peripheral\sar/cy_sar.h **** *
 152:Generated_Source\PSoC6\pdl\drivers\peripheral\sar/cy_sar.h **** * Select a value from each of the following enums that begin with "cy_en_sar_chan_config_" and "OR"
 153:Generated_Source\PSoC6\pdl\drivers\peripheral\sar/cy_sar.h **** *
 154:Generated_Source\PSoC6\pdl\drivers\peripheral\sar/cy_sar.h **** *   - \ref cy_en_sar_chan_config_input_mode_t
 155:Generated_Source\PSoC6\pdl\drivers\peripheral\sar/cy_sar.h **** *   - \ref cy_en_sar_chan_config_pos_pin_addr_t
 156:Generated_Source\PSoC6\pdl\drivers\peripheral\sar/cy_sar.h **** *   - \ref cy_en_sar_chan_config_pos_port_addr_t
 157:Generated_Source\PSoC6\pdl\drivers\peripheral\sar/cy_sar.h **** *   - \ref cy_en_sar_chan_config_avg_en_t
 158:Generated_Source\PSoC6\pdl\drivers\peripheral\sar/cy_sar.h **** *   - \ref cy_en_sar_chan_config_sample_time_t
 159:Generated_Source\PSoC6\pdl\drivers\peripheral\sar/cy_sar.h **** *   - \ref cy_en_sar_chan_config_neg_pin_addr_t
 160:Generated_Source\PSoC6\pdl\drivers\peripheral\sar/cy_sar.h **** *   - \ref cy_en_sar_chan_config_neg_port_addr_t
 161:Generated_Source\PSoC6\pdl\drivers\peripheral\sar/cy_sar.h **** *
 162:Generated_Source\PSoC6\pdl\drivers\peripheral\sar/cy_sar.h **** * Some important considerations are:
 163:Generated_Source\PSoC6\pdl\drivers\peripheral\sar/cy_sar.h **** *   - The POS_PORT_ADDR and POS_PIN_ADDR bit fields are used by the SARSEQ to select
 164:Generated_Source\PSoC6\pdl\drivers\peripheral\sar/cy_sar.h **** *   the connection to the positive terminal (Vplus) of the ADC for each channel.
 165:Generated_Source\PSoC6\pdl\drivers\peripheral\sar/cy_sar.h **** *   - When the channel is an unpaired differential input (\ref CY_SAR_CHAN_DIFFERENTIAL_UNPAIRED), 
 166:Generated_Source\PSoC6\pdl\drivers\peripheral\sar/cy_sar.h **** *   NEG_PORT_ADDR and NEG_PIN_ADDR are used by the SARSEQ to select the connection
 167:Generated_Source\PSoC6\pdl\drivers\peripheral\sar/cy_sar.h **** *   to the negative terminal (Vminus) of the ADC.
 168:Generated_Source\PSoC6\pdl\drivers\peripheral\sar/cy_sar.h **** *   - When the channel is a differential input pair (\ref CY_SAR_CHAN_DIFFERENTIAL_PAIRED), the NEG
 169:Generated_Source\PSoC6\pdl\drivers\peripheral\sar/cy_sar.h **** *   For differential input pairs, only the pin for the positive terminal needs to be
 170:Generated_Source\PSoC6\pdl\drivers\peripheral\sar/cy_sar.h **** *   specified and this pin must be even. For example, Pin 0 (positive terminal) and Pin 1 (negative
 171:Generated_Source\PSoC6\pdl\drivers\peripheral\sar/cy_sar.h **** *   are a pair. Pin 2 (positive terminal) and Pin 3 (negative terminal) are a pair.
 172:Generated_Source\PSoC6\pdl\drivers\peripheral\sar/cy_sar.h **** *
 173:Generated_Source\PSoC6\pdl\drivers\peripheral\sar/cy_sar.h **** * If the SARSEQ is disabled (\ref cy_en_sar_ctrl_sarseq_routing_switches_t) or
 174:Generated_Source\PSoC6\pdl\drivers\peripheral\sar/cy_sar.h **** * it is not controlling any switches (\ref group_sar_init_struct_muxSwitchSqCtrl = 0), the port and
 175:Generated_Source\PSoC6\pdl\drivers\peripheral\sar/cy_sar.h **** * are ignored. This is possible when there is only one channel to scan.
 176:Generated_Source\PSoC6\pdl\drivers\peripheral\sar/cy_sar.h **** *
 177:Generated_Source\PSoC6\pdl\drivers\peripheral\sar/cy_sar.h **** * \snippet sar_sut_01.cydsn/main_cm0p.c SNIPPET_SAR_CHAN_CONFIG
 178:Generated_Source\PSoC6\pdl\drivers\peripheral\sar/cy_sar.h **** *
 179:Generated_Source\PSoC6\pdl\drivers\peripheral\sar/cy_sar.h **** * \subsection group_sar_init_struct_intrMask uint32_t intrMask
 180:Generated_Source\PSoC6\pdl\drivers\peripheral\sar/cy_sar.h **** *
 181:Generated_Source\PSoC6\pdl\drivers\peripheral\sar/cy_sar.h **** * This field configures which interrupt events (end of scan, overflow, or firmware collision) will 
 182:Generated_Source\PSoC6\pdl\drivers\peripheral\sar/cy_sar.h **** *
 183:Generated_Source\PSoC6\pdl\drivers\peripheral\sar/cy_sar.h **** * Select one or more values from the \ref cy_en_sar_intr_mask_t enum and "OR" them
 184:Generated_Source\PSoC6\pdl\drivers\peripheral\sar/cy_sar.h **** * together.
ARM GAS  C:\Users\gjl\AppData\Local\Temp\ccG9SHX7.s 			page 32


 185:Generated_Source\PSoC6\pdl\drivers\peripheral\sar/cy_sar.h **** *
 186:Generated_Source\PSoC6\pdl\drivers\peripheral\sar/cy_sar.h **** * \snippet sar_sut_01.cydsn/main_cm0p.c SNIPPET_SAR_INTR_MASK
 187:Generated_Source\PSoC6\pdl\drivers\peripheral\sar/cy_sar.h **** *
 188:Generated_Source\PSoC6\pdl\drivers\peripheral\sar/cy_sar.h **** * \subsection group_sar_init_struct_satIntrMask uint32_t satIntrMask
 189:Generated_Source\PSoC6\pdl\drivers\peripheral\sar/cy_sar.h **** *
 190:Generated_Source\PSoC6\pdl\drivers\peripheral\sar/cy_sar.h **** * This field configures which channels will cause a saturation interrupt.
 191:Generated_Source\PSoC6\pdl\drivers\peripheral\sar/cy_sar.h **** *
 192:Generated_Source\PSoC6\pdl\drivers\peripheral\sar/cy_sar.h **** * The SARSEQ has a saturation detect that is always applied to every conversion.
 193:Generated_Source\PSoC6\pdl\drivers\peripheral\sar/cy_sar.h **** * This feature detects whether a channel's sample value is equal to the minimum or maximum values.
 194:Generated_Source\PSoC6\pdl\drivers\peripheral\sar/cy_sar.h **** * This allows the firmware to take action, for example, discard the result, when the SARADC saturat
 195:Generated_Source\PSoC6\pdl\drivers\peripheral\sar/cy_sar.h **** * The sample value is tested right after conversion, that is, before averaging. This means that it
 196:Generated_Source\PSoC6\pdl\drivers\peripheral\sar/cy_sar.h **** * can happen that the interrupt is set while the averaged result in the data register is not
 197:Generated_Source\PSoC6\pdl\drivers\peripheral\sar/cy_sar.h **** * equal to the minimum or maximum.
 198:Generated_Source\PSoC6\pdl\drivers\peripheral\sar/cy_sar.h **** *
 199:Generated_Source\PSoC6\pdl\drivers\peripheral\sar/cy_sar.h **** * Each bit corresponds to a channel. A value of 0 disables saturation detection for all channels.
 200:Generated_Source\PSoC6\pdl\drivers\peripheral\sar/cy_sar.h **** *
 201:Generated_Source\PSoC6\pdl\drivers\peripheral\sar/cy_sar.h **** * \subsection group_sar_init_struct_rangeIntrMask uint32_t rangeIntrMask
 202:Generated_Source\PSoC6\pdl\drivers\peripheral\sar/cy_sar.h **** *
 203:Generated_Source\PSoC6\pdl\drivers\peripheral\sar/cy_sar.h **** * This field configures which channels will cause a range detection interrupt.
 204:Generated_Source\PSoC6\pdl\drivers\peripheral\sar/cy_sar.h **** * Each bit corresponds to a channel. A value of 0 disables range detection for all channels.
 205:Generated_Source\PSoC6\pdl\drivers\peripheral\sar/cy_sar.h **** *
 206:Generated_Source\PSoC6\pdl\drivers\peripheral\sar/cy_sar.h **** * \subsection group_sar_init_struct_muxSwitch uint32_t muxSwitch
 207:Generated_Source\PSoC6\pdl\drivers\peripheral\sar/cy_sar.h **** *
 208:Generated_Source\PSoC6\pdl\drivers\peripheral\sar/cy_sar.h **** * This field is the firmware control of the SARMUX switches.
 209:Generated_Source\PSoC6\pdl\drivers\peripheral\sar/cy_sar.h **** *
 210:Generated_Source\PSoC6\pdl\drivers\peripheral\sar/cy_sar.h **** * Use one or more values from the \ref cy_en_sar_mux_switch_fw_ctrl_t enum and "OR" them together.
 211:Generated_Source\PSoC6\pdl\drivers\peripheral\sar/cy_sar.h **** * If the SARSEQ is enabled, the SARMUX switches that will be used must
 212:Generated_Source\PSoC6\pdl\drivers\peripheral\sar/cy_sar.h **** * also be closed using this firmware control.
 213:Generated_Source\PSoC6\pdl\drivers\peripheral\sar/cy_sar.h **** *
 214:Generated_Source\PSoC6\pdl\drivers\peripheral\sar/cy_sar.h **** * \snippet sar_sut_01.cydsn/main_cm0p.c SNIPPET_SAR_MUX_SWITCH
 215:Generated_Source\PSoC6\pdl\drivers\peripheral\sar/cy_sar.h **** *
 216:Generated_Source\PSoC6\pdl\drivers\peripheral\sar/cy_sar.h **** * Firmware control can be changed at run-time by calling \ref Cy_SAR_SetAnalogSwitch with \ref CY_S
 217:Generated_Source\PSoC6\pdl\drivers\peripheral\sar/cy_sar.h **** * and the desired switch states.
 218:Generated_Source\PSoC6\pdl\drivers\peripheral\sar/cy_sar.h **** *
 219:Generated_Source\PSoC6\pdl\drivers\peripheral\sar/cy_sar.h **** * \subsection group_sar_init_struct_muxSwitchSqCtrl uint32_t muxSwitchSqCtrl
 220:Generated_Source\PSoC6\pdl\drivers\peripheral\sar/cy_sar.h **** *
 221:Generated_Source\PSoC6\pdl\drivers\peripheral\sar/cy_sar.h **** * This field enables or disables SARSEQ control of the SARMUX switches.
 222:Generated_Source\PSoC6\pdl\drivers\peripheral\sar/cy_sar.h **** * To disable control of all switches, set this field to 0. To disable the SARSEQ all together,
 223:Generated_Source\PSoC6\pdl\drivers\peripheral\sar/cy_sar.h **** * use \ref CY_SAR_SARSEQ_SWITCH_DISABLE when configuring the \ref group_sar_init_struct_ctrl regist
 224:Generated_Source\PSoC6\pdl\drivers\peripheral\sar/cy_sar.h **** *
 225:Generated_Source\PSoC6\pdl\drivers\peripheral\sar/cy_sar.h **** * Use one or more values from the \ref cy_en_sar_mux_switch_sq_ctrl_t enum and "OR" them together.
 226:Generated_Source\PSoC6\pdl\drivers\peripheral\sar/cy_sar.h **** *
 227:Generated_Source\PSoC6\pdl\drivers\peripheral\sar/cy_sar.h **** * \snippet sar_sut_01.cydsn/main_cm0p.c SNIPPET_SAR_MUX_SQ_CTRL
 228:Generated_Source\PSoC6\pdl\drivers\peripheral\sar/cy_sar.h **** *
 229:Generated_Source\PSoC6\pdl\drivers\peripheral\sar/cy_sar.h **** * SARSEQ control can be changed at run-time by calling \ref Cy_SAR_SetSwitchSarSeqCtrl.
 230:Generated_Source\PSoC6\pdl\drivers\peripheral\sar/cy_sar.h **** *
 231:Generated_Source\PSoC6\pdl\drivers\peripheral\sar/cy_sar.h **** * \subsection group_sar_init_struct_configRouting bool configRouting
 232:Generated_Source\PSoC6\pdl\drivers\peripheral\sar/cy_sar.h **** *
 233:Generated_Source\PSoC6\pdl\drivers\peripheral\sar/cy_sar.h **** * If true, the \ref group_sar_init_struct_muxSwitch and \ref group_sar_init_struct_muxSwitchSqCtrl 
 234:Generated_Source\PSoC6\pdl\drivers\peripheral\sar/cy_sar.h **** * will be used. If false, the fields will be ignored.
 235:Generated_Source\PSoC6\pdl\drivers\peripheral\sar/cy_sar.h **** *
 236:Generated_Source\PSoC6\pdl\drivers\peripheral\sar/cy_sar.h **** * \subsection group_sar_init_struct_vrefMvValue uint32_t vrefMvValue
 237:Generated_Source\PSoC6\pdl\drivers\peripheral\sar/cy_sar.h **** *
 238:Generated_Source\PSoC6\pdl\drivers\peripheral\sar/cy_sar.h **** * This field sets the value of the reference voltage in millivolts used. This value
 239:Generated_Source\PSoC6\pdl\drivers\peripheral\sar/cy_sar.h **** * is used for converting counts to volts in the \ref Cy_SAR_CountsTo_Volts, \ref Cy_SAR_CountsTo_mV
 240:Generated_Source\PSoC6\pdl\drivers\peripheral\sar/cy_sar.h **** * \ref Cy_SAR_CountsTo_uVolts functions.
 241:Generated_Source\PSoC6\pdl\drivers\peripheral\sar/cy_sar.h **** *
ARM GAS  C:\Users\gjl\AppData\Local\Temp\ccG9SHX7.s 			page 33


 242:Generated_Source\PSoC6\pdl\drivers\peripheral\sar/cy_sar.h **** * \section group_sar_trigger_conversions Triggering Conversions
 243:Generated_Source\PSoC6\pdl\drivers\peripheral\sar/cy_sar.h **** *
 244:Generated_Source\PSoC6\pdl\drivers\peripheral\sar/cy_sar.h **** * The SAR subsystem has the following modes for triggering a conversion:
 245:Generated_Source\PSoC6\pdl\drivers\peripheral\sar/cy_sar.h **** * <table class="doxtable">
 246:Generated_Source\PSoC6\pdl\drivers\peripheral\sar/cy_sar.h **** *   <tr>
 247:Generated_Source\PSoC6\pdl\drivers\peripheral\sar/cy_sar.h **** *     <th>Mode</th>
 248:Generated_Source\PSoC6\pdl\drivers\peripheral\sar/cy_sar.h **** *     <th>Description</th>
 249:Generated_Source\PSoC6\pdl\drivers\peripheral\sar/cy_sar.h **** *     <th>Usage</th>
 250:Generated_Source\PSoC6\pdl\drivers\peripheral\sar/cy_sar.h **** *   </tr>
 251:Generated_Source\PSoC6\pdl\drivers\peripheral\sar/cy_sar.h **** *   <tr>
 252:Generated_Source\PSoC6\pdl\drivers\peripheral\sar/cy_sar.h **** *     <td>Continuous</td>
 253:Generated_Source\PSoC6\pdl\drivers\peripheral\sar/cy_sar.h **** *     <td>After completing a scan, the
 254:Generated_Source\PSoC6\pdl\drivers\peripheral\sar/cy_sar.h **** *     SARSEQ will immediately start the next scan. That is, the SARSEQ will always be BUSY.
 255:Generated_Source\PSoC6\pdl\drivers\peripheral\sar/cy_sar.h **** *     As a result all other triggers, firmware or hardware, are essentially ignored.
 256:Generated_Source\PSoC6\pdl\drivers\peripheral\sar/cy_sar.h **** *  </td>
 257:Generated_Source\PSoC6\pdl\drivers\peripheral\sar/cy_sar.h **** *     <td>To enter this mode, call \ref Cy_SAR_StartConvert with \ref CY_SAR_START_CONVERT_CONTINUO
 258:Generated_Source\PSoC6\pdl\drivers\peripheral\sar/cy_sar.h **** *     To stop continuous conversions, call \ref Cy_SAR_StopConvert.
 259:Generated_Source\PSoC6\pdl\drivers\peripheral\sar/cy_sar.h **** *     </td>
 260:Generated_Source\PSoC6\pdl\drivers\peripheral\sar/cy_sar.h **** *   </tr>
 261:Generated_Source\PSoC6\pdl\drivers\peripheral\sar/cy_sar.h **** *   <tr>
 262:Generated_Source\PSoC6\pdl\drivers\peripheral\sar/cy_sar.h **** *     <td>Firmware single shot</td>
 263:Generated_Source\PSoC6\pdl\drivers\peripheral\sar/cy_sar.h **** *     <td>A single conversion of all enabled channels is triggered with a function call to \ref Cy_
 264:Generated_Source\PSoC6\pdl\drivers\peripheral\sar/cy_sar.h **** *     \ref CY_SAR_START_CONVERT_SINGLE_SHOT.
 265:Generated_Source\PSoC6\pdl\drivers\peripheral\sar/cy_sar.h **** *     </td>
 266:Generated_Source\PSoC6\pdl\drivers\peripheral\sar/cy_sar.h **** *     <td>
 267:Generated_Source\PSoC6\pdl\drivers\peripheral\sar/cy_sar.h **** *     Firmware triggering is always available by calling \ref Cy_SAR_StartConvert with \ref CY_SAR_
 268:Generated_Source\PSoC6\pdl\drivers\peripheral\sar/cy_sar.h **** *     To allow only firmware triggering, or disable
 269:Generated_Source\PSoC6\pdl\drivers\peripheral\sar/cy_sar.h **** *     hardware triggering, set up the \ref cy_stc_sar_config_t config structure with \ref CY_SAR_TR
 270:Generated_Source\PSoC6\pdl\drivers\peripheral\sar/cy_sar.h **** *     </td>
 271:Generated_Source\PSoC6\pdl\drivers\peripheral\sar/cy_sar.h **** *   </tr>
 272:Generated_Source\PSoC6\pdl\drivers\peripheral\sar/cy_sar.h **** *   <tr>
 273:Generated_Source\PSoC6\pdl\drivers\peripheral\sar/cy_sar.h **** *     <td>Hardware edge sensitive</td>
 274:Generated_Source\PSoC6\pdl\drivers\peripheral\sar/cy_sar.h **** *     <td>A single conversion of all enabled channels is triggered on the rising edge of the hardwa
 275:Generated_Source\PSoC6\pdl\drivers\peripheral\sar/cy_sar.h **** *     trigger signal.</td>
 276:Generated_Source\PSoC6\pdl\drivers\peripheral\sar/cy_sar.h **** *     <td>To enable this mode, set up the \ref cy_stc_sar_config_t config structure with
 277:Generated_Source\PSoC6\pdl\drivers\peripheral\sar/cy_sar.h **** *     \ref CY_SAR_TRIGGER_MODE_FW_AND_HWEDGE.</td>
 278:Generated_Source\PSoC6\pdl\drivers\peripheral\sar/cy_sar.h **** *    </tr>
 279:Generated_Source\PSoC6\pdl\drivers\peripheral\sar/cy_sar.h **** *    <tr>
 280:Generated_Source\PSoC6\pdl\drivers\peripheral\sar/cy_sar.h **** *     <td>Hardware level sensitive</td>
 281:Generated_Source\PSoC6\pdl\drivers\peripheral\sar/cy_sar.h **** *     <td>Conversions are triggered continuously when the hardware trigger signal is high.</td>
 282:Generated_Source\PSoC6\pdl\drivers\peripheral\sar/cy_sar.h **** *     <td>To enable this mode, set up the \ref cy_stc_sar_config_t config structure with
 283:Generated_Source\PSoC6\pdl\drivers\peripheral\sar/cy_sar.h **** *     \ref CY_SAR_TRIGGER_MODE_FW_AND_HWLEVEL.</td>
 284:Generated_Source\PSoC6\pdl\drivers\peripheral\sar/cy_sar.h **** *    </tr>
 285:Generated_Source\PSoC6\pdl\drivers\peripheral\sar/cy_sar.h **** * </table>
 286:Generated_Source\PSoC6\pdl\drivers\peripheral\sar/cy_sar.h **** *
 287:Generated_Source\PSoC6\pdl\drivers\peripheral\sar/cy_sar.h **** * The trigger mode can be changed during run time with \ref Cy_SAR_SetConvertMode.
 288:Generated_Source\PSoC6\pdl\drivers\peripheral\sar/cy_sar.h **** *
 289:Generated_Source\PSoC6\pdl\drivers\peripheral\sar/cy_sar.h **** * For the hardware trigger modes, use the \ref group_trigmux driver to route an internal or externa
 290:Generated_Source\PSoC6\pdl\drivers\peripheral\sar/cy_sar.h **** * signal to the SAR trigger input.
 291:Generated_Source\PSoC6\pdl\drivers\peripheral\sar/cy_sar.h **** * When making the required \ref Cy_TrigMux_Connect calls, use the pre-defined enum, TRIG6_OUT_PASS_
 292:Generated_Source\PSoC6\pdl\drivers\peripheral\sar/cy_sar.h **** * for the SAR trigger input.
 293:Generated_Source\PSoC6\pdl\drivers\peripheral\sar/cy_sar.h **** *
 294:Generated_Source\PSoC6\pdl\drivers\peripheral\sar/cy_sar.h **** * \snippet sar_sut_01.cydsn/main_cm0p.c SNIPPET_SAR_CONFIG_TRIGGER
 295:Generated_Source\PSoC6\pdl\drivers\peripheral\sar/cy_sar.h **** *
 296:Generated_Source\PSoC6\pdl\drivers\peripheral\sar/cy_sar.h **** * \section group_sar_handle_interrupts Handling Interrupts
 297:Generated_Source\PSoC6\pdl\drivers\peripheral\sar/cy_sar.h **** *
 298:Generated_Source\PSoC6\pdl\drivers\peripheral\sar/cy_sar.h **** * The SAR can generate interrupts on these events:
ARM GAS  C:\Users\gjl\AppData\Local\Temp\ccG9SHX7.s 			page 34


 299:Generated_Source\PSoC6\pdl\drivers\peripheral\sar/cy_sar.h **** *
 300:Generated_Source\PSoC6\pdl\drivers\peripheral\sar/cy_sar.h **** *   - End of scan (EOS): when scanning of all enabled channels complete.
 301:Generated_Source\PSoC6\pdl\drivers\peripheral\sar/cy_sar.h **** *   - Overflow: when the result register is updated before the previous result is read.
 302:Generated_Source\PSoC6\pdl\drivers\peripheral\sar/cy_sar.h **** *   - FW collision: when a new trigger is received while the SAR is still processing the previous t
 303:Generated_Source\PSoC6\pdl\drivers\peripheral\sar/cy_sar.h **** *   - Saturation detection: when the channel result is equal to the minimum or maximum value.
 304:Generated_Source\PSoC6\pdl\drivers\peripheral\sar/cy_sar.h **** *   - Range detection: when the channel result meets the programmed upper or lower threshold values
 305:Generated_Source\PSoC6\pdl\drivers\peripheral\sar/cy_sar.h **** *
 306:Generated_Source\PSoC6\pdl\drivers\peripheral\sar/cy_sar.h **** * The SAR interrupt to the NVIC is raised any time the intersection (logic and) of the interrupt
 307:Generated_Source\PSoC6\pdl\drivers\peripheral\sar/cy_sar.h **** * flags and the corresponding interrupt masks are non-zero.
 308:Generated_Source\PSoC6\pdl\drivers\peripheral\sar/cy_sar.h **** *
 309:Generated_Source\PSoC6\pdl\drivers\peripheral\sar/cy_sar.h **** * Implement an interrupt routine and assign it to the SAR interrupt.
 310:Generated_Source\PSoC6\pdl\drivers\peripheral\sar/cy_sar.h **** * Use the pre-defined enum, pass_interrupt_sar_IRQn, as the interrupt source for the SAR.
 311:Generated_Source\PSoC6\pdl\drivers\peripheral\sar/cy_sar.h **** *
 312:Generated_Source\PSoC6\pdl\drivers\peripheral\sar/cy_sar.h **** * The following code snippet demonstrates how to implement a routine to handle the interrupt.
 313:Generated_Source\PSoC6\pdl\drivers\peripheral\sar/cy_sar.h **** * The routine gets called when any one of the SAR interrupts are triggered.
 314:Generated_Source\PSoC6\pdl\drivers\peripheral\sar/cy_sar.h **** * When servicing an interrupt, the user must clear the interrupt so that subsequent
 315:Generated_Source\PSoC6\pdl\drivers\peripheral\sar/cy_sar.h **** * interrupts can be handled.
 316:Generated_Source\PSoC6\pdl\drivers\peripheral\sar/cy_sar.h **** *
 317:Generated_Source\PSoC6\pdl\drivers\peripheral\sar/cy_sar.h **** * \snippet sar_sut_01.cydsn/main_cm0p.c SNIPPET_SAR_ISR
 318:Generated_Source\PSoC6\pdl\drivers\peripheral\sar/cy_sar.h **** *
 319:Generated_Source\PSoC6\pdl\drivers\peripheral\sar/cy_sar.h **** * The following code snippet demonstrates how to configure and enable the interrupt.
 320:Generated_Source\PSoC6\pdl\drivers\peripheral\sar/cy_sar.h **** *
 321:Generated_Source\PSoC6\pdl\drivers\peripheral\sar/cy_sar.h **** * \snippet sar_sut_01.cydsn/main_cm0p.c SNIPPET_SAR_CONFIG_INTR
 322:Generated_Source\PSoC6\pdl\drivers\peripheral\sar/cy_sar.h **** *
 323:Generated_Source\PSoC6\pdl\drivers\peripheral\sar/cy_sar.h **** * Alternately, instead of handling the interrupts, the \ref Cy_SAR_IsEndConversion function
 324:Generated_Source\PSoC6\pdl\drivers\peripheral\sar/cy_sar.h **** * allows for firmware polling of the end of conversion status.
 325:Generated_Source\PSoC6\pdl\drivers\peripheral\sar/cy_sar.h **** *
 326:Generated_Source\PSoC6\pdl\drivers\peripheral\sar/cy_sar.h **** * \section group_sar_retrieve_result Retrieve Channel Results
 327:Generated_Source\PSoC6\pdl\drivers\peripheral\sar/cy_sar.h **** *
 328:Generated_Source\PSoC6\pdl\drivers\peripheral\sar/cy_sar.h **** * Retrieve the ADC result by calling \ref Cy_SAR_GetResult16 with the desired channel.
 329:Generated_Source\PSoC6\pdl\drivers\peripheral\sar/cy_sar.h **** * To convert the result to a voltage, pass the ADC result to \ref Cy_SAR_CountsTo_Volts, \ref Cy_SA
 330:Generated_Source\PSoC6\pdl\drivers\peripheral\sar/cy_sar.h **** * \ref Cy_SAR_CountsTo_uVolts.
 331:Generated_Source\PSoC6\pdl\drivers\peripheral\sar/cy_sar.h **** *
 332:Generated_Source\PSoC6\pdl\drivers\peripheral\sar/cy_sar.h **** * \section group_sar_clock SAR Clock Configuration
 333:Generated_Source\PSoC6\pdl\drivers\peripheral\sar/cy_sar.h **** *
 334:Generated_Source\PSoC6\pdl\drivers\peripheral\sar/cy_sar.h **** * The SAR requires a clock. Assign a clock to the SAR using the
 335:Generated_Source\PSoC6\pdl\drivers\peripheral\sar/cy_sar.h **** * pre-defined enum, PCLK_PASS_CLOCK_SAR, to identify the SAR subsystem.
 336:Generated_Source\PSoC6\pdl\drivers\peripheral\sar/cy_sar.h **** * Set the clock divider value to achieve the desired clock rate. The SAR can support
 337:Generated_Source\PSoC6\pdl\drivers\peripheral\sar/cy_sar.h **** * a maximum frequency of 18 MHz.
 338:Generated_Source\PSoC6\pdl\drivers\peripheral\sar/cy_sar.h **** *
 339:Generated_Source\PSoC6\pdl\drivers\peripheral\sar/cy_sar.h **** * \snippet sar_sut_01.cydsn/main_cm4.c SAR_SNIPPET_CONFIGURE_CLOCK
 340:Generated_Source\PSoC6\pdl\drivers\peripheral\sar/cy_sar.h **** *
 341:Generated_Source\PSoC6\pdl\drivers\peripheral\sar/cy_sar.h **** * \section group_sar_scan_time Scan Rate
 342:Generated_Source\PSoC6\pdl\drivers\peripheral\sar/cy_sar.h **** *
 343:Generated_Source\PSoC6\pdl\drivers\peripheral\sar/cy_sar.h **** * The scan rate is dependent on the following:
 344:Generated_Source\PSoC6\pdl\drivers\peripheral\sar/cy_sar.h **** *
 345:Generated_Source\PSoC6\pdl\drivers\peripheral\sar/cy_sar.h **** *   - ADC clock rate
 346:Generated_Source\PSoC6\pdl\drivers\peripheral\sar/cy_sar.h **** *   - Number of channels
 347:Generated_Source\PSoC6\pdl\drivers\peripheral\sar/cy_sar.h **** *   - Averaging
 348:Generated_Source\PSoC6\pdl\drivers\peripheral\sar/cy_sar.h **** *   - Resolution
 349:Generated_Source\PSoC6\pdl\drivers\peripheral\sar/cy_sar.h **** *   - Acquisition times
 350:Generated_Source\PSoC6\pdl\drivers\peripheral\sar/cy_sar.h **** *
 351:Generated_Source\PSoC6\pdl\drivers\peripheral\sar/cy_sar.h **** * \subsection group_sar_acquisition_time Acquisition Time
 352:Generated_Source\PSoC6\pdl\drivers\peripheral\sar/cy_sar.h **** *
 353:Generated_Source\PSoC6\pdl\drivers\peripheral\sar/cy_sar.h **** * The acquisition time of a channel is based on which of the four global aperture times are selecte
 354:Generated_Source\PSoC6\pdl\drivers\peripheral\sar/cy_sar.h **** * channel. The selection is done during initialization per channel with \ref group_sar_init_struct_
 355:Generated_Source\PSoC6\pdl\drivers\peripheral\sar/cy_sar.h **** * The four global aperture times are also set during initialization with \ref group_sar_init_struct
ARM GAS  C:\Users\gjl\AppData\Local\Temp\ccG9SHX7.s 			page 35


 356:Generated_Source\PSoC6\pdl\drivers\peripheral\sar/cy_sar.h **** * \ref group_sar_init_struct_sampleTime23. Note that these global aperture times are in SAR clock c
 357:Generated_Source\PSoC6\pdl\drivers\peripheral\sar/cy_sar.h **** * acquisition time is 1 less than that value in the register.
 358:Generated_Source\PSoC6\pdl\drivers\peripheral\sar/cy_sar.h **** *
 359:Generated_Source\PSoC6\pdl\drivers\peripheral\sar/cy_sar.h **** * \image html sar_acquisition_time_eqn.png
 360:Generated_Source\PSoC6\pdl\drivers\peripheral\sar/cy_sar.h **** *
 361:Generated_Source\PSoC6\pdl\drivers\peripheral\sar/cy_sar.h **** * \subsection group_sar_channel_sample_time Channel Sample Time
 362:Generated_Source\PSoC6\pdl\drivers\peripheral\sar/cy_sar.h **** *
 363:Generated_Source\PSoC6\pdl\drivers\peripheral\sar/cy_sar.h **** * The sample time for a channel is the time required to acquire the analog signal
 364:Generated_Source\PSoC6\pdl\drivers\peripheral\sar/cy_sar.h **** * and convert it to a digital code.
 365:Generated_Source\PSoC6\pdl\drivers\peripheral\sar/cy_sar.h **** *
 366:Generated_Source\PSoC6\pdl\drivers\peripheral\sar/cy_sar.h **** * \image html sar_channel_sample_time_eqn.png
 367:Generated_Source\PSoC6\pdl\drivers\peripheral\sar/cy_sar.h **** *
 368:Generated_Source\PSoC6\pdl\drivers\peripheral\sar/cy_sar.h **** * The SAR ADC is a 12-bit converter so Resolution = 12.
 369:Generated_Source\PSoC6\pdl\drivers\peripheral\sar/cy_sar.h **** *
 370:Generated_Source\PSoC6\pdl\drivers\peripheral\sar/cy_sar.h **** * \subsection group_sar_total_scan_time Total Scan Time
 371:Generated_Source\PSoC6\pdl\drivers\peripheral\sar/cy_sar.h **** *
 372:Generated_Source\PSoC6\pdl\drivers\peripheral\sar/cy_sar.h **** * Channels using one of the sequential averaging modes (\ref CY_SAR_AVG_MODE_SEQUENTIAL_ACCUM or \r
 373:Generated_Source\PSoC6\pdl\drivers\peripheral\sar/cy_sar.h **** * are sampled multiple times per scan. The number of samples averaged are set during initialization
 374:Generated_Source\PSoC6\pdl\drivers\peripheral\sar/cy_sar.h **** * with \ref group_sar_init_struct_sampleCtrl using one of the values from \ref cy_en_sar_sample_ctr
 375:Generated_Source\PSoC6\pdl\drivers\peripheral\sar/cy_sar.h **** * Channels that are not averaged or use the \ref CY_SAR_AVG_MODE_INTERLEAVED mode are only sampled 
 376:Generated_Source\PSoC6\pdl\drivers\peripheral\sar/cy_sar.h **** *
 377:Generated_Source\PSoC6\pdl\drivers\peripheral\sar/cy_sar.h **** * The total scan time is the sum of each channel's sample time multiplied by the samples per scan.
 378:Generated_Source\PSoC6\pdl\drivers\peripheral\sar/cy_sar.h **** *
 379:Generated_Source\PSoC6\pdl\drivers\peripheral\sar/cy_sar.h **** * \image html sar_scan_rate_eqn.png
 380:Generated_Source\PSoC6\pdl\drivers\peripheral\sar/cy_sar.h **** *
 381:Generated_Source\PSoC6\pdl\drivers\peripheral\sar/cy_sar.h **** * where N is the total number of channels in the scan.
 382:Generated_Source\PSoC6\pdl\drivers\peripheral\sar/cy_sar.h **** *
 383:Generated_Source\PSoC6\pdl\drivers\peripheral\sar/cy_sar.h **** * \section group_sar_sarmux SARMUX and SARSEQ
 384:Generated_Source\PSoC6\pdl\drivers\peripheral\sar/cy_sar.h **** *
 385:Generated_Source\PSoC6\pdl\drivers\peripheral\sar/cy_sar.h **** * The SARMUX is an analog programmable multiplexer. Its switches can be controlled by the SARSEQ or
 386:Generated_Source\PSoC6\pdl\drivers\peripheral\sar/cy_sar.h **** * and the inputs can come from:
 387:Generated_Source\PSoC6\pdl\drivers\peripheral\sar/cy_sar.h **** *   - a dedicated port (can support 8 single-ended channels or 4 differential channels)
 388:Generated_Source\PSoC6\pdl\drivers\peripheral\sar/cy_sar.h **** *   - an internal die temperature (DieTemp) sensor
 389:Generated_Source\PSoC6\pdl\drivers\peripheral\sar/cy_sar.h **** *   - CTB output via SARBUS0/1 (if CTBs are available on the device)
 390:Generated_Source\PSoC6\pdl\drivers\peripheral\sar/cy_sar.h **** *   - AMUXBUSA/B
 391:Generated_Source\PSoC6\pdl\drivers\peripheral\sar/cy_sar.h **** *
 392:Generated_Source\PSoC6\pdl\drivers\peripheral\sar/cy_sar.h **** * The following figure shows the SARMUX switches. See the device datasheet for the exact location o
 393:Generated_Source\PSoC6\pdl\drivers\peripheral\sar/cy_sar.h **** *
 394:Generated_Source\PSoC6\pdl\drivers\peripheral\sar/cy_sar.h **** * \image html sar_sarmux_switches.png
 395:Generated_Source\PSoC6\pdl\drivers\peripheral\sar/cy_sar.h **** *
 396:Generated_Source\PSoC6\pdl\drivers\peripheral\sar/cy_sar.h **** * When using the SARSEQ, the following configurations must be performed:
 397:Generated_Source\PSoC6\pdl\drivers\peripheral\sar/cy_sar.h **** *   - enable SARSEQ control of required switches (see \ref group_sar_init_struct_muxSwitchSqCtrl)
 398:Generated_Source\PSoC6\pdl\drivers\peripheral\sar/cy_sar.h **** *   - close the required switches with firmware (see \ref group_sar_init_struct_muxSwitch)
 399:Generated_Source\PSoC6\pdl\drivers\peripheral\sar/cy_sar.h **** *   - configure the POS_PORT_ADDR and POS_PIN_ADDR, and if used, the NEG_PORT_ADDR and NEG_PIN_ADDR
 400:Generated_Source\PSoC6\pdl\drivers\peripheral\sar/cy_sar.h **** *
 401:Generated_Source\PSoC6\pdl\drivers\peripheral\sar/cy_sar.h **** * While firmware can control every switch in the SARMUX, not every switch can be controlled by the 
 402:Generated_Source\PSoC6\pdl\drivers\peripheral\sar/cy_sar.h **** * Additionally, switches outside of the SARMUX such as the AMUXBUSA/B switches or
 403:Generated_Source\PSoC6\pdl\drivers\peripheral\sar/cy_sar.h **** * CTB switches will require separate function calls (see \ref group_gpio "GPIO" and \ref group_ctb 
 404:Generated_Source\PSoC6\pdl\drivers\peripheral\sar/cy_sar.h **** * The SARSEQ can control three switches in the \ref group_ctb "CTB" driver (see \ref Cy_CTB_EnableS
 405:Generated_Source\PSoC6\pdl\drivers\peripheral\sar/cy_sar.h **** * These switches need to be enabled for SARSEQ control if the CTB outputs are used as the SARMUX in
 406:Generated_Source\PSoC6\pdl\drivers\peripheral\sar/cy_sar.h **** *
 407:Generated_Source\PSoC6\pdl\drivers\peripheral\sar/cy_sar.h **** * The following table shows the required POS_PORT_ADDR and POS_PIN_ADDR settings
 408:Generated_Source\PSoC6\pdl\drivers\peripheral\sar/cy_sar.h **** * for different input connections.
 409:Generated_Source\PSoC6\pdl\drivers\peripheral\sar/cy_sar.h **** *
 410:Generated_Source\PSoC6\pdl\drivers\peripheral\sar/cy_sar.h **** * <table class="doxtable">
 411:Generated_Source\PSoC6\pdl\drivers\peripheral\sar/cy_sar.h **** *   <tr>
 412:Generated_Source\PSoC6\pdl\drivers\peripheral\sar/cy_sar.h **** *     <th>Input Connection Selection</th>
ARM GAS  C:\Users\gjl\AppData\Local\Temp\ccG9SHX7.s 			page 36


 413:Generated_Source\PSoC6\pdl\drivers\peripheral\sar/cy_sar.h **** *     <th>POS_PORT_ADDR</th>
 414:Generated_Source\PSoC6\pdl\drivers\peripheral\sar/cy_sar.h **** *     <th>POS_PIN_ADDR</th>
 415:Generated_Source\PSoC6\pdl\drivers\peripheral\sar/cy_sar.h **** *   </tr>
 416:Generated_Source\PSoC6\pdl\drivers\peripheral\sar/cy_sar.h **** *   <tr>
 417:Generated_Source\PSoC6\pdl\drivers\peripheral\sar/cy_sar.h **** *     <td>SARMUX dedicated port</td>
 418:Generated_Source\PSoC6\pdl\drivers\peripheral\sar/cy_sar.h **** *     <td>\ref CY_SAR_POS_PORT_ADDR_SARMUX</td>
 419:Generated_Source\PSoC6\pdl\drivers\peripheral\sar/cy_sar.h **** *     <td>\ref CY_SAR_CHAN_POS_PIN_ADDR_0 through \ref CY_SAR_CHAN_POS_PIN_ADDR_7</td>
 420:Generated_Source\PSoC6\pdl\drivers\peripheral\sar/cy_sar.h **** *   </tr>
 421:Generated_Source\PSoC6\pdl\drivers\peripheral\sar/cy_sar.h **** *   <tr>
 422:Generated_Source\PSoC6\pdl\drivers\peripheral\sar/cy_sar.h **** *     <td>DieTemp sensor</td>
 423:Generated_Source\PSoC6\pdl\drivers\peripheral\sar/cy_sar.h **** *     <td>\ref CY_SAR_POS_PORT_ADDR_SARMUX_VIRT</td>
 424:Generated_Source\PSoC6\pdl\drivers\peripheral\sar/cy_sar.h **** *     <td>\ref CY_SAR_CHAN_POS_PIN_ADDR_0</td>
 425:Generated_Source\PSoC6\pdl\drivers\peripheral\sar/cy_sar.h **** *   </tr>
 426:Generated_Source\PSoC6\pdl\drivers\peripheral\sar/cy_sar.h **** *   <tr>
 427:Generated_Source\PSoC6\pdl\drivers\peripheral\sar/cy_sar.h **** *     <td>AMUXBUSA</td>
 428:Generated_Source\PSoC6\pdl\drivers\peripheral\sar/cy_sar.h **** *     <td>\ref CY_SAR_POS_PORT_ADDR_SARMUX_VIRT</td>
 429:Generated_Source\PSoC6\pdl\drivers\peripheral\sar/cy_sar.h **** *     <td>\ref CY_SAR_CHAN_POS_PIN_ADDR_2</td>
 430:Generated_Source\PSoC6\pdl\drivers\peripheral\sar/cy_sar.h **** *   </tr>
 431:Generated_Source\PSoC6\pdl\drivers\peripheral\sar/cy_sar.h **** *   <tr>
 432:Generated_Source\PSoC6\pdl\drivers\peripheral\sar/cy_sar.h **** *     <td>AMUXBUSB</td>
 433:Generated_Source\PSoC6\pdl\drivers\peripheral\sar/cy_sar.h **** *     <td>\ref CY_SAR_POS_PORT_ADDR_SARMUX_VIRT</td>
 434:Generated_Source\PSoC6\pdl\drivers\peripheral\sar/cy_sar.h **** *     <td>\ref CY_SAR_CHAN_POS_PIN_ADDR_3</td>
 435:Generated_Source\PSoC6\pdl\drivers\peripheral\sar/cy_sar.h **** *   </tr>
 436:Generated_Source\PSoC6\pdl\drivers\peripheral\sar/cy_sar.h **** *   <tr>
 437:Generated_Source\PSoC6\pdl\drivers\peripheral\sar/cy_sar.h **** *     <td>CTB0 Opamp0 1x output</td>
 438:Generated_Source\PSoC6\pdl\drivers\peripheral\sar/cy_sar.h **** *     <td>\ref CY_SAR_POS_PORT_ADDR_CTB0</td>
 439:Generated_Source\PSoC6\pdl\drivers\peripheral\sar/cy_sar.h **** *     <td>\ref CY_SAR_CHAN_POS_PIN_ADDR_2</td>
 440:Generated_Source\PSoC6\pdl\drivers\peripheral\sar/cy_sar.h **** *   </tr>
 441:Generated_Source\PSoC6\pdl\drivers\peripheral\sar/cy_sar.h **** *   <tr>
 442:Generated_Source\PSoC6\pdl\drivers\peripheral\sar/cy_sar.h **** *     <td>CTB0 Opamp1 1x output</td>
 443:Generated_Source\PSoC6\pdl\drivers\peripheral\sar/cy_sar.h **** *     <td>\ref CY_SAR_POS_PORT_ADDR_CTB0</td>
 444:Generated_Source\PSoC6\pdl\drivers\peripheral\sar/cy_sar.h **** *     <td>\ref CY_SAR_CHAN_POS_PIN_ADDR_3</td>
 445:Generated_Source\PSoC6\pdl\drivers\peripheral\sar/cy_sar.h **** *   </tr>
 446:Generated_Source\PSoC6\pdl\drivers\peripheral\sar/cy_sar.h **** * </table>
 447:Generated_Source\PSoC6\pdl\drivers\peripheral\sar/cy_sar.h **** *
 448:Generated_Source\PSoC6\pdl\drivers\peripheral\sar/cy_sar.h **** * \subsection group_sar_sarmux_dietemp Input from DieTemp sensor
 449:Generated_Source\PSoC6\pdl\drivers\peripheral\sar/cy_sar.h **** *
 450:Generated_Source\PSoC6\pdl\drivers\peripheral\sar/cy_sar.h **** * When using the DieTemp sensor, always use single-ended mode.
 451:Generated_Source\PSoC6\pdl\drivers\peripheral\sar/cy_sar.h **** * The temperature sensor can be routed to Vplus using the \ref CY_SAR_MUX_FW_TEMP_VPLUS switch.
 452:Generated_Source\PSoC6\pdl\drivers\peripheral\sar/cy_sar.h **** * Connecting this switch will also enable the sensor. Set the \ref group_sar_acquisition_time "acqu
 453:Generated_Source\PSoC6\pdl\drivers\peripheral\sar/cy_sar.h **** * be at least 1 us to meet the settling time of the temperature sensor.
 454:Generated_Source\PSoC6\pdl\drivers\peripheral\sar/cy_sar.h **** *
 455:Generated_Source\PSoC6\pdl\drivers\peripheral\sar/cy_sar.h **** * \image html sar_sarmux_dietemp.png
 456:Generated_Source\PSoC6\pdl\drivers\peripheral\sar/cy_sar.h **** *
 457:Generated_Source\PSoC6\pdl\drivers\peripheral\sar/cy_sar.h **** * \snippet sar_sut_02.cydsn/main_cm4.c SNIPPET_SAR_SARMUX_DIETEMP
 458:Generated_Source\PSoC6\pdl\drivers\peripheral\sar/cy_sar.h **** *
 459:Generated_Source\PSoC6\pdl\drivers\peripheral\sar/cy_sar.h **** * \subsection group_sar_sarmux_se_diff Input from SARMUX port
 460:Generated_Source\PSoC6\pdl\drivers\peripheral\sar/cy_sar.h **** *
 461:Generated_Source\PSoC6\pdl\drivers\peripheral\sar/cy_sar.h **** * The following figure and code snippet show how two GPIOs on the SARMUX dedicated port
 462:Generated_Source\PSoC6\pdl\drivers\peripheral\sar/cy_sar.h **** * are connected to the SARADC as separate single-ended channels and as a differential-pair channel.
 463:Generated_Source\PSoC6\pdl\drivers\peripheral\sar/cy_sar.h **** *
 464:Generated_Source\PSoC6\pdl\drivers\peripheral\sar/cy_sar.h **** * \image html sar_sarmux_dedicated_port.png
 465:Generated_Source\PSoC6\pdl\drivers\peripheral\sar/cy_sar.h **** *
 466:Generated_Source\PSoC6\pdl\drivers\peripheral\sar/cy_sar.h **** * \snippet sar_sut_02.cydsn/main_cm4.c SNIPPET_SAR_SARMUX_SE_DIFF
 467:Generated_Source\PSoC6\pdl\drivers\peripheral\sar/cy_sar.h **** *
 468:Generated_Source\PSoC6\pdl\drivers\peripheral\sar/cy_sar.h **** * \subsection group_sar_sarmux_ctb Input from CTB output visa SARBUS0/1
 469:Generated_Source\PSoC6\pdl\drivers\peripheral\sar/cy_sar.h **** *
ARM GAS  C:\Users\gjl\AppData\Local\Temp\ccG9SHX7.s 			page 37


 470:Generated_Source\PSoC6\pdl\drivers\peripheral\sar/cy_sar.h **** * The following figure and code snippet show how the two opamp outputs from the CTB
 471:Generated_Source\PSoC6\pdl\drivers\peripheral\sar/cy_sar.h **** * are connected to the SARADC as separate single-ended channels and as a differential-pair channel.
 472:Generated_Source\PSoC6\pdl\drivers\peripheral\sar/cy_sar.h **** * Note that separate function calls are needed to configure and enable the opamps, perform required
 473:Generated_Source\PSoC6\pdl\drivers\peripheral\sar/cy_sar.h **** * and enable SARSEQ control of the switches contained in the CTB.
 474:Generated_Source\PSoC6\pdl\drivers\peripheral\sar/cy_sar.h **** *
 475:Generated_Source\PSoC6\pdl\drivers\peripheral\sar/cy_sar.h **** * \image html sar_sarmux_ctb.png
 476:Generated_Source\PSoC6\pdl\drivers\peripheral\sar/cy_sar.h **** *
 477:Generated_Source\PSoC6\pdl\drivers\peripheral\sar/cy_sar.h **** * \snippet sar_sut_02.cydsn/main_cm4.c SNIPPET_SAR_SARMUX_CTB
 478:Generated_Source\PSoC6\pdl\drivers\peripheral\sar/cy_sar.h **** *
 479:Generated_Source\PSoC6\pdl\drivers\peripheral\sar/cy_sar.h **** * \subsection group_sar_sarmux_amuxbus Input from other pins through AMUXBUSA/B
 480:Generated_Source\PSoC6\pdl\drivers\peripheral\sar/cy_sar.h **** *
 481:Generated_Source\PSoC6\pdl\drivers\peripheral\sar/cy_sar.h **** * The following figure and code snippet show how two GPIOs on any port through the AMUXBUSA and AMU
 482:Generated_Source\PSoC6\pdl\drivers\peripheral\sar/cy_sar.h **** * are connected to the SARADC as separate single-ended channels and as a differential-pair channel.
 483:Generated_Source\PSoC6\pdl\drivers\peripheral\sar/cy_sar.h **** * Note that separate function calls are needed to route the device pins to the SARMUX. The AMUXBUSe
 484:Generated_Source\PSoC6\pdl\drivers\peripheral\sar/cy_sar.h **** * are separated into multiple segments and these segments are connected/disconnected using the AMUX
 485:Generated_Source\PSoC6\pdl\drivers\peripheral\sar/cy_sar.h **** * registers in the HSIOM. In the following code snippet, to connect Port 1 to the SARMUX, the left 
 486:Generated_Source\PSoC6\pdl\drivers\peripheral\sar/cy_sar.h **** * switches of AMUX_SPLIT_CTL[1] and AMUX_SPLIT_CTL[6] need to be closed.
 487:Generated_Source\PSoC6\pdl\drivers\peripheral\sar/cy_sar.h **** *
 488:Generated_Source\PSoC6\pdl\drivers\peripheral\sar/cy_sar.h **** * \image html sar_sarmux_amuxbus.png
 489:Generated_Source\PSoC6\pdl\drivers\peripheral\sar/cy_sar.h **** *
 490:Generated_Source\PSoC6\pdl\drivers\peripheral\sar/cy_sar.h **** * \snippet sar_sut_02.cydsn/main_cm4.c SNIPPET_SAR_SARMUX_AMUXBUS
 491:Generated_Source\PSoC6\pdl\drivers\peripheral\sar/cy_sar.h **** *
 492:Generated_Source\PSoC6\pdl\drivers\peripheral\sar/cy_sar.h **** * \section group_sar_low_power Low Power Support
 493:Generated_Source\PSoC6\pdl\drivers\peripheral\sar/cy_sar.h **** * This SAR driver provides a callback function to handle power mode transitions.
 494:Generated_Source\PSoC6\pdl\drivers\peripheral\sar/cy_sar.h **** * The \ref Cy_SAR_DeepSleepCallback function ensures that SAR conversions are stopped
 495:Generated_Source\PSoC6\pdl\drivers\peripheral\sar/cy_sar.h **** * before Deep Sleep entry. Upon wakeup, the callback
 496:Generated_Source\PSoC6\pdl\drivers\peripheral\sar/cy_sar.h **** * enables the hardware and continuous conversions, if previously enabled.
 497:Generated_Source\PSoC6\pdl\drivers\peripheral\sar/cy_sar.h **** *
 498:Generated_Source\PSoC6\pdl\drivers\peripheral\sar/cy_sar.h **** * To trigger the callback execution, the callback must be registered before calling \ref Cy_SysPm_D
 499:Generated_Source\PSoC6\pdl\drivers\peripheral\sar/cy_sar.h **** * \ref group_syspm driver for more information about power mode transitions and
 500:Generated_Source\PSoC6\pdl\drivers\peripheral\sar/cy_sar.h **** * callback registration.
 501:Generated_Source\PSoC6\pdl\drivers\peripheral\sar/cy_sar.h **** *
 502:Generated_Source\PSoC6\pdl\drivers\peripheral\sar/cy_sar.h **** * Recall that during configuration of the \ref group_sar_init_struct_ctrl "ctrl" field,
 503:Generated_Source\PSoC6\pdl\drivers\peripheral\sar/cy_sar.h **** * the SARMUX can be configured to remain enabled in Deep Sleep mode.
 504:Generated_Source\PSoC6\pdl\drivers\peripheral\sar/cy_sar.h **** * All other blocks (SARADC, REFBUF, and SARSEQ) do not support Deep Sleep mode operation.
 505:Generated_Source\PSoC6\pdl\drivers\peripheral\sar/cy_sar.h **** *
 506:Generated_Source\PSoC6\pdl\drivers\peripheral\sar/cy_sar.h **** * \section group_sar_more_information More Information
 507:Generated_Source\PSoC6\pdl\drivers\peripheral\sar/cy_sar.h **** * For more information on the SAR ADC subsystem, refer to the technical reference manual (TRM).
 508:Generated_Source\PSoC6\pdl\drivers\peripheral\sar/cy_sar.h **** *
 509:Generated_Source\PSoC6\pdl\drivers\peripheral\sar/cy_sar.h **** * \section group_sar_MISRA MISRA-C Compliance]
 510:Generated_Source\PSoC6\pdl\drivers\peripheral\sar/cy_sar.h **** *
 511:Generated_Source\PSoC6\pdl\drivers\peripheral\sar/cy_sar.h **** * This driver has the following specific deviations:
 512:Generated_Source\PSoC6\pdl\drivers\peripheral\sar/cy_sar.h **** *
 513:Generated_Source\PSoC6\pdl\drivers\peripheral\sar/cy_sar.h **** * <table class="doxtable">
 514:Generated_Source\PSoC6\pdl\drivers\peripheral\sar/cy_sar.h **** *   <tr>
 515:Generated_Source\PSoC6\pdl\drivers\peripheral\sar/cy_sar.h **** *     <th>MISRA Rule</th>
 516:Generated_Source\PSoC6\pdl\drivers\peripheral\sar/cy_sar.h **** *     <th>Rule Class (Required/Advisory)</th>
 517:Generated_Source\PSoC6\pdl\drivers\peripheral\sar/cy_sar.h **** *     <th>Rule Description</th>
 518:Generated_Source\PSoC6\pdl\drivers\peripheral\sar/cy_sar.h **** *     <th>Description of Deviation(s)</th>
 519:Generated_Source\PSoC6\pdl\drivers\peripheral\sar/cy_sar.h **** *   </tr>
 520:Generated_Source\PSoC6\pdl\drivers\peripheral\sar/cy_sar.h **** *   <tr>
 521:Generated_Source\PSoC6\pdl\drivers\peripheral\sar/cy_sar.h **** *     <td>11.4</td>
 522:Generated_Source\PSoC6\pdl\drivers\peripheral\sar/cy_sar.h **** *     <td>Advisory</td>
 523:Generated_Source\PSoC6\pdl\drivers\peripheral\sar/cy_sar.h **** *     <td>A cast should not be performed between a pointer to object type and a different pointer t
 524:Generated_Source\PSoC6\pdl\drivers\peripheral\sar/cy_sar.h **** *     <td>The cy_syspm driver defines the pointer to void in the \ref cy_stc_syspm_callback_params_
 525:Generated_Source\PSoC6\pdl\drivers\peripheral\sar/cy_sar.h **** *       This SAR driver implements a Deep Sleep callback conforming to the cy_syspm driver requirem
 526:Generated_Source\PSoC6\pdl\drivers\peripheral\sar/cy_sar.h **** *       When the callback is called, the base should point to the SAR_Type register address.
ARM GAS  C:\Users\gjl\AppData\Local\Temp\ccG9SHX7.s 			page 38


 527:Generated_Source\PSoC6\pdl\drivers\peripheral\sar/cy_sar.h **** *     </td>
 528:Generated_Source\PSoC6\pdl\drivers\peripheral\sar/cy_sar.h **** *   </tr>
 529:Generated_Source\PSoC6\pdl\drivers\peripheral\sar/cy_sar.h **** * </table>
 530:Generated_Source\PSoC6\pdl\drivers\peripheral\sar/cy_sar.h **** *
 531:Generated_Source\PSoC6\pdl\drivers\peripheral\sar/cy_sar.h **** * \section group_sar_changelog Changelog
 532:Generated_Source\PSoC6\pdl\drivers\peripheral\sar/cy_sar.h **** * <table class="doxtable">
 533:Generated_Source\PSoC6\pdl\drivers\peripheral\sar/cy_sar.h **** *   <tr><th>Version</th><th>Changes</th><th>Reason for Change</th></tr>
 534:Generated_Source\PSoC6\pdl\drivers\peripheral\sar/cy_sar.h **** *   <tr>
 535:Generated_Source\PSoC6\pdl\drivers\peripheral\sar/cy_sar.h **** *     <td rowspan="3">1.10</td>
 536:Generated_Source\PSoC6\pdl\drivers\peripheral\sar/cy_sar.h **** *     <td> Added workaround for parts with out of range CAP_TRIM in Init API.</td>
 537:Generated_Source\PSoC6\pdl\drivers\peripheral\sar/cy_sar.h **** *     <td> Correct CAP_TRIM is necessary achieving specified SAR ADC linearity</td>
 538:Generated_Source\PSoC6\pdl\drivers\peripheral\sar/cy_sar.h **** *   </tr>
 539:Generated_Source\PSoC6\pdl\drivers\peripheral\sar/cy_sar.h **** *   <tr>
 540:Generated_Source\PSoC6\pdl\drivers\peripheral\sar/cy_sar.h **** *     <td> Turn off the entire hardware block only if the SARMUX is not enabled 
 541:Generated_Source\PSoC6\pdl\drivers\peripheral\sar/cy_sar.h **** *          for Deep Sleep operation.                
 542:Generated_Source\PSoC6\pdl\drivers\peripheral\sar/cy_sar.h **** *     </td>
 543:Generated_Source\PSoC6\pdl\drivers\peripheral\sar/cy_sar.h **** *     <td> Improvement of the \ref Cy_SAR_Sleep flow</td>
 544:Generated_Source\PSoC6\pdl\drivers\peripheral\sar/cy_sar.h **** *   </tr>
 545:Generated_Source\PSoC6\pdl\drivers\peripheral\sar/cy_sar.h **** *   <tr>
 546:Generated_Source\PSoC6\pdl\drivers\peripheral\sar/cy_sar.h **** *     <td>Updated "Low Power Support" section to describe registering the Deep Sleep callback.
 547:Generated_Source\PSoC6\pdl\drivers\peripheral\sar/cy_sar.h **** *         Added parenthesis around logical AND operation in Sleep API.</td>
 548:Generated_Source\PSoC6\pdl\drivers\peripheral\sar/cy_sar.h **** *     <td>Documentation update and clarification</td>
 549:Generated_Source\PSoC6\pdl\drivers\peripheral\sar/cy_sar.h **** *   </tr>
 550:Generated_Source\PSoC6\pdl\drivers\peripheral\sar/cy_sar.h **** *   <tr>
 551:Generated_Source\PSoC6\pdl\drivers\peripheral\sar/cy_sar.h **** *     <td>1.0</td>
 552:Generated_Source\PSoC6\pdl\drivers\peripheral\sar/cy_sar.h **** *     <td>Initial version</td>
 553:Generated_Source\PSoC6\pdl\drivers\peripheral\sar/cy_sar.h **** *     <td></td>
 554:Generated_Source\PSoC6\pdl\drivers\peripheral\sar/cy_sar.h **** *   </tr>
 555:Generated_Source\PSoC6\pdl\drivers\peripheral\sar/cy_sar.h **** * </table>
 556:Generated_Source\PSoC6\pdl\drivers\peripheral\sar/cy_sar.h **** *
 557:Generated_Source\PSoC6\pdl\drivers\peripheral\sar/cy_sar.h **** * \defgroup group_sar_macros Macros
 558:Generated_Source\PSoC6\pdl\drivers\peripheral\sar/cy_sar.h **** * \defgroup group_sar_functions Functions
 559:Generated_Source\PSoC6\pdl\drivers\peripheral\sar/cy_sar.h **** *   \{
 560:Generated_Source\PSoC6\pdl\drivers\peripheral\sar/cy_sar.h **** *       \defgroup group_sar_functions_basic         Initialization and Basic Functions
 561:Generated_Source\PSoC6\pdl\drivers\peripheral\sar/cy_sar.h **** *       \defgroup group_sar_functions_power         Low Power Callback
 562:Generated_Source\PSoC6\pdl\drivers\peripheral\sar/cy_sar.h **** *       \defgroup group_sar_functions_config        Run-time Configuration Functions
 563:Generated_Source\PSoC6\pdl\drivers\peripheral\sar/cy_sar.h **** *       \defgroup group_sar_functions_countsto      Counts Conversion Functions
 564:Generated_Source\PSoC6\pdl\drivers\peripheral\sar/cy_sar.h **** *       \defgroup group_sar_functions_interrupt     Interrupt Functions
 565:Generated_Source\PSoC6\pdl\drivers\peripheral\sar/cy_sar.h **** *       \defgroup group_sar_functions_switches      SARMUX Switch Control Functions
 566:Generated_Source\PSoC6\pdl\drivers\peripheral\sar/cy_sar.h **** *       \defgroup group_sar_functions_helper        Useful Configuration Query Functions
 567:Generated_Source\PSoC6\pdl\drivers\peripheral\sar/cy_sar.h **** *   \}
 568:Generated_Source\PSoC6\pdl\drivers\peripheral\sar/cy_sar.h **** * \defgroup group_sar_globals Global Variables
 569:Generated_Source\PSoC6\pdl\drivers\peripheral\sar/cy_sar.h **** * \defgroup group_sar_data_structures Data Structures
 570:Generated_Source\PSoC6\pdl\drivers\peripheral\sar/cy_sar.h **** * \defgroup group_sar_enums Enumerated Types
 571:Generated_Source\PSoC6\pdl\drivers\peripheral\sar/cy_sar.h **** *   \{
 572:Generated_Source\PSoC6\pdl\drivers\peripheral\sar/cy_sar.h **** *       \defgroup group_sar_ctrl_register_enums         Control Register Enums
 573:Generated_Source\PSoC6\pdl\drivers\peripheral\sar/cy_sar.h **** *       \defgroup group_sar_sample_ctrl_register_enums  Sample Control Register Enums
 574:Generated_Source\PSoC6\pdl\drivers\peripheral\sar/cy_sar.h **** *       \defgroup group_sar_sample_time_shift_enums     Sample Time Register Enums
 575:Generated_Source\PSoC6\pdl\drivers\peripheral\sar/cy_sar.h **** *       \defgroup group_sar_range_thres_register_enums  Range Interrupt Register Enums
 576:Generated_Source\PSoC6\pdl\drivers\peripheral\sar/cy_sar.h **** *       \defgroup group_sar_chan_config_register_enums  Channel Configuration Register Enums
 577:Generated_Source\PSoC6\pdl\drivers\peripheral\sar/cy_sar.h **** *       \defgroup group_sar_intr_mask_t_register_enums  Interrupt Mask Register Enums
 578:Generated_Source\PSoC6\pdl\drivers\peripheral\sar/cy_sar.h **** *       \defgroup group_sar_mux_switch_register_enums   SARMUX Switch Control Register Enums
 579:Generated_Source\PSoC6\pdl\drivers\peripheral\sar/cy_sar.h **** *   \}
 580:Generated_Source\PSoC6\pdl\drivers\peripheral\sar/cy_sar.h **** */
 581:Generated_Source\PSoC6\pdl\drivers\peripheral\sar/cy_sar.h **** 
 582:Generated_Source\PSoC6\pdl\drivers\peripheral\sar/cy_sar.h **** #if !defined(CY_SAR_H)
 583:Generated_Source\PSoC6\pdl\drivers\peripheral\sar/cy_sar.h **** #define CY_SAR_H
ARM GAS  C:\Users\gjl\AppData\Local\Temp\ccG9SHX7.s 			page 39


 584:Generated_Source\PSoC6\pdl\drivers\peripheral\sar/cy_sar.h **** 
 585:Generated_Source\PSoC6\pdl\drivers\peripheral\sar/cy_sar.h **** #include <stdint.h>
 586:Generated_Source\PSoC6\pdl\drivers\peripheral\sar/cy_sar.h **** #include <stdbool.h>
 587:Generated_Source\PSoC6\pdl\drivers\peripheral\sar/cy_sar.h **** #include <stddef.h>
 588:Generated_Source\PSoC6\pdl\drivers\peripheral\sar/cy_sar.h **** #include "cy_device_headers.h"
 589:Generated_Source\PSoC6\pdl\drivers\peripheral\sar/cy_sar.h **** #include "syslib/cy_syslib.h"
 590:Generated_Source\PSoC6\pdl\drivers\peripheral\sar/cy_sar.h **** #include "syspm/cy_syspm.h"
 591:Generated_Source\PSoC6\pdl\drivers\peripheral\sar/cy_sar.h **** 
 592:Generated_Source\PSoC6\pdl\drivers\peripheral\sar/cy_sar.h **** #ifndef CY_IP_MXS40PASS_SAR
 593:Generated_Source\PSoC6\pdl\drivers\peripheral\sar/cy_sar.h ****     #error "The SAR driver is not supported on this device"
 594:Generated_Source\PSoC6\pdl\drivers\peripheral\sar/cy_sar.h **** #endif
 595:Generated_Source\PSoC6\pdl\drivers\peripheral\sar/cy_sar.h **** 
 596:Generated_Source\PSoC6\pdl\drivers\peripheral\sar/cy_sar.h **** #if defined(__cplusplus)
 597:Generated_Source\PSoC6\pdl\drivers\peripheral\sar/cy_sar.h **** extern "C" {
 598:Generated_Source\PSoC6\pdl\drivers\peripheral\sar/cy_sar.h **** #endif
 599:Generated_Source\PSoC6\pdl\drivers\peripheral\sar/cy_sar.h **** 
 600:Generated_Source\PSoC6\pdl\drivers\peripheral\sar/cy_sar.h **** /** \addtogroup group_sar_macros
 601:Generated_Source\PSoC6\pdl\drivers\peripheral\sar/cy_sar.h **** * \{
 602:Generated_Source\PSoC6\pdl\drivers\peripheral\sar/cy_sar.h **** */
 603:Generated_Source\PSoC6\pdl\drivers\peripheral\sar/cy_sar.h **** 
 604:Generated_Source\PSoC6\pdl\drivers\peripheral\sar/cy_sar.h **** /** Driver major version */
 605:Generated_Source\PSoC6\pdl\drivers\peripheral\sar/cy_sar.h **** #define CY_SAR_DRV_VERSION_MAJOR        1
 606:Generated_Source\PSoC6\pdl\drivers\peripheral\sar/cy_sar.h **** 
 607:Generated_Source\PSoC6\pdl\drivers\peripheral\sar/cy_sar.h **** /** Driver minor version */
 608:Generated_Source\PSoC6\pdl\drivers\peripheral\sar/cy_sar.h **** #define CY_SAR_DRV_VERSION_MINOR        10
 609:Generated_Source\PSoC6\pdl\drivers\peripheral\sar/cy_sar.h **** 
 610:Generated_Source\PSoC6\pdl\drivers\peripheral\sar/cy_sar.h **** /** SAR driver identifier */
 611:Generated_Source\PSoC6\pdl\drivers\peripheral\sar/cy_sar.h **** #define CY_SAR_ID                       CY_PDL_DRV_ID(0x01u)
 612:Generated_Source\PSoC6\pdl\drivers\peripheral\sar/cy_sar.h **** 
 613:Generated_Source\PSoC6\pdl\drivers\peripheral\sar/cy_sar.h **** /** Maximum number of channels */
 614:Generated_Source\PSoC6\pdl\drivers\peripheral\sar/cy_sar.h **** #define CY_SAR_MAX_NUM_CHANNELS         (PASS_SAR_SAR_CHANNELS)
 615:Generated_Source\PSoC6\pdl\drivers\peripheral\sar/cy_sar.h **** 
 616:Generated_Source\PSoC6\pdl\drivers\peripheral\sar/cy_sar.h **** /** \cond INTERNAL */
 617:Generated_Source\PSoC6\pdl\drivers\peripheral\sar/cy_sar.h **** #define CY_SAR_DEINIT                   (0uL)             /**< De-init value for most SAR registers
 618:Generated_Source\PSoC6\pdl\drivers\peripheral\sar/cy_sar.h **** #define CY_SAR_SAMPLE_TIME_DEINIT       ((3uL << SAR_SAMPLE_TIME01_SAMPLE_TIME0_Pos) | (3uL << SAR_
 619:Generated_Source\PSoC6\pdl\drivers\peripheral\sar/cy_sar.h **** #define CY_SAR_CLEAR_ALL_SWITCHES       (0x3FFFFFFFuL)    /**< Value to clear all SARMUX switches *
 620:Generated_Source\PSoC6\pdl\drivers\peripheral\sar/cy_sar.h **** #define CY_SAR_DEINIT_SQ_CTRL           (SAR_MUX_SWITCH_SQ_CTRL_MUX_SQ_CTRL_P0_Msk \
 621:Generated_Source\PSoC6\pdl\drivers\peripheral\sar/cy_sar.h ****                                         | SAR_MUX_SWITCH_SQ_CTRL_MUX_SQ_CTRL_P1_Msk \
 622:Generated_Source\PSoC6\pdl\drivers\peripheral\sar/cy_sar.h ****                                         | SAR_MUX_SWITCH_SQ_CTRL_MUX_SQ_CTRL_P2_Msk \
 623:Generated_Source\PSoC6\pdl\drivers\peripheral\sar/cy_sar.h ****                                         | SAR_MUX_SWITCH_SQ_CTRL_MUX_SQ_CTRL_P3_Msk \
 624:Generated_Source\PSoC6\pdl\drivers\peripheral\sar/cy_sar.h ****                                         | SAR_MUX_SWITCH_SQ_CTRL_MUX_SQ_CTRL_P4_Msk \
 625:Generated_Source\PSoC6\pdl\drivers\peripheral\sar/cy_sar.h ****                                         | SAR_MUX_SWITCH_SQ_CTRL_MUX_SQ_CTRL_P5_Msk \
 626:Generated_Source\PSoC6\pdl\drivers\peripheral\sar/cy_sar.h ****                                         | SAR_MUX_SWITCH_SQ_CTRL_MUX_SQ_CTRL_P6_Msk \
 627:Generated_Source\PSoC6\pdl\drivers\peripheral\sar/cy_sar.h ****                                         | SAR_MUX_SWITCH_SQ_CTRL_MUX_SQ_CTRL_P7_Msk \
 628:Generated_Source\PSoC6\pdl\drivers\peripheral\sar/cy_sar.h ****                                         | SAR_MUX_SWITCH_SQ_CTRL_MUX_SQ_CTRL_VSSA_Msk \
 629:Generated_Source\PSoC6\pdl\drivers\peripheral\sar/cy_sar.h ****                                         | SAR_MUX_SWITCH_SQ_CTRL_MUX_SQ_CTRL_TEMP_Msk \
 630:Generated_Source\PSoC6\pdl\drivers\peripheral\sar/cy_sar.h ****                                         | SAR_MUX_SWITCH_SQ_CTRL_MUX_SQ_CTRL_AMUXBUSA_Msk \
 631:Generated_Source\PSoC6\pdl\drivers\peripheral\sar/cy_sar.h ****                                         | SAR_MUX_SWITCH_SQ_CTRL_MUX_SQ_CTRL_AMUXBUSB_Msk \
 632:Generated_Source\PSoC6\pdl\drivers\peripheral\sar/cy_sar.h ****                                         | SAR_MUX_SWITCH_SQ_CTRL_MUX_SQ_CTRL_SARBUS0_Msk \
 633:Generated_Source\PSoC6\pdl\drivers\peripheral\sar/cy_sar.h ****                                         | SAR_MUX_SWITCH_SQ_CTRL_MUX_SQ_CTRL_SARBUS1_Msk)
 634:Generated_Source\PSoC6\pdl\drivers\peripheral\sar/cy_sar.h **** #define CY_SAR_REG_CTRL_MASK            (SAR_CTRL_PWR_CTRL_VREF_Msk \
 635:Generated_Source\PSoC6\pdl\drivers\peripheral\sar/cy_sar.h ****                                         | SAR_CTRL_VREF_SEL_Msk \
 636:Generated_Source\PSoC6\pdl\drivers\peripheral\sar/cy_sar.h ****                                         | SAR_CTRL_VREF_BYP_CAP_EN_Msk \
 637:Generated_Source\PSoC6\pdl\drivers\peripheral\sar/cy_sar.h ****                                         | SAR_CTRL_NEG_SEL_Msk \
 638:Generated_Source\PSoC6\pdl\drivers\peripheral\sar/cy_sar.h ****                                         | SAR_CTRL_SAR_HW_CTRL_NEGVREF_Msk \
 639:Generated_Source\PSoC6\pdl\drivers\peripheral\sar/cy_sar.h ****                                         | SAR_CTRL_COMP_DLY_Msk \
 640:Generated_Source\PSoC6\pdl\drivers\peripheral\sar/cy_sar.h ****                                         | SAR_CTRL_REFBUF_EN_Msk \
ARM GAS  C:\Users\gjl\AppData\Local\Temp\ccG9SHX7.s 			page 40


 641:Generated_Source\PSoC6\pdl\drivers\peripheral\sar/cy_sar.h ****                                         | SAR_CTRL_COMP_PWR_Msk \
 642:Generated_Source\PSoC6\pdl\drivers\peripheral\sar/cy_sar.h ****                                         | SAR_CTRL_DEEPSLEEP_ON_Msk \
 643:Generated_Source\PSoC6\pdl\drivers\peripheral\sar/cy_sar.h ****                                         | SAR_CTRL_DSI_SYNC_CONFIG_Msk \
 644:Generated_Source\PSoC6\pdl\drivers\peripheral\sar/cy_sar.h ****                                         | SAR_CTRL_DSI_MODE_Msk \
 645:Generated_Source\PSoC6\pdl\drivers\peripheral\sar/cy_sar.h ****                                         | SAR_CTRL_SWITCH_DISABLE_Msk \
 646:Generated_Source\PSoC6\pdl\drivers\peripheral\sar/cy_sar.h ****                                         | SAR_CTRL_ENABLED_Msk)
 647:Generated_Source\PSoC6\pdl\drivers\peripheral\sar/cy_sar.h **** #define CY_SAR_REG_SAMPLE_CTRL_MASK     (SAR_SAMPLE_CTRL_LEFT_ALIGN_Msk \
 648:Generated_Source\PSoC6\pdl\drivers\peripheral\sar/cy_sar.h ****                                         | SAR_SAMPLE_CTRL_SINGLE_ENDED_SIGNED_Msk \
 649:Generated_Source\PSoC6\pdl\drivers\peripheral\sar/cy_sar.h ****                                         | SAR_SAMPLE_CTRL_DIFFERENTIAL_SIGNED_Msk \
 650:Generated_Source\PSoC6\pdl\drivers\peripheral\sar/cy_sar.h ****                                         | SAR_SAMPLE_CTRL_AVG_CNT_Msk \
 651:Generated_Source\PSoC6\pdl\drivers\peripheral\sar/cy_sar.h ****                                         | SAR_SAMPLE_CTRL_AVG_SHIFT_Msk \
 652:Generated_Source\PSoC6\pdl\drivers\peripheral\sar/cy_sar.h ****                                         | SAR_SAMPLE_CTRL_AVG_MODE_Msk \
 653:Generated_Source\PSoC6\pdl\drivers\peripheral\sar/cy_sar.h ****                                         | SAR_SAMPLE_CTRL_CONTINUOUS_Msk \
 654:Generated_Source\PSoC6\pdl\drivers\peripheral\sar/cy_sar.h ****                                         | SAR_SAMPLE_CTRL_DSI_TRIGGER_EN_Msk \
 655:Generated_Source\PSoC6\pdl\drivers\peripheral\sar/cy_sar.h ****                                         | SAR_SAMPLE_CTRL_DSI_TRIGGER_LEVEL_Msk \
 656:Generated_Source\PSoC6\pdl\drivers\peripheral\sar/cy_sar.h ****                                         | SAR_SAMPLE_CTRL_DSI_SYNC_TRIGGER_Msk \
 657:Generated_Source\PSoC6\pdl\drivers\peripheral\sar/cy_sar.h ****                                         | SAR_SAMPLE_CTRL_UAB_SCAN_MODE_Msk \
 658:Generated_Source\PSoC6\pdl\drivers\peripheral\sar/cy_sar.h ****                                         | SAR_SAMPLE_CTRL_REPEAT_INVALID_Msk \
 659:Generated_Source\PSoC6\pdl\drivers\peripheral\sar/cy_sar.h ****                                         | SAR_SAMPLE_CTRL_VALID_SEL_Msk \
 660:Generated_Source\PSoC6\pdl\drivers\peripheral\sar/cy_sar.h ****                                         | SAR_SAMPLE_CTRL_VALID_SEL_EN_Msk \
 661:Generated_Source\PSoC6\pdl\drivers\peripheral\sar/cy_sar.h ****                                         | SAR_SAMPLE_CTRL_VALID_IGNORE_Msk \
 662:Generated_Source\PSoC6\pdl\drivers\peripheral\sar/cy_sar.h ****                                         | SAR_SAMPLE_CTRL_TRIGGER_OUT_EN_Msk \
 663:Generated_Source\PSoC6\pdl\drivers\peripheral\sar/cy_sar.h ****                                         | SAR_SAMPLE_CTRL_EOS_DSI_OUT_EN_Msk)
 664:Generated_Source\PSoC6\pdl\drivers\peripheral\sar/cy_sar.h **** #define CY_SAR_REG_CHAN_CONFIG_MASK     (SAR_CHAN_CONFIG_POS_PIN_ADDR_Msk \
 665:Generated_Source\PSoC6\pdl\drivers\peripheral\sar/cy_sar.h ****                                         | SAR_CHAN_CONFIG_POS_PORT_ADDR_Msk \
 666:Generated_Source\PSoC6\pdl\drivers\peripheral\sar/cy_sar.h ****                                         | SAR_CHAN_CONFIG_DIFFERENTIAL_EN_Msk \
 667:Generated_Source\PSoC6\pdl\drivers\peripheral\sar/cy_sar.h ****                                         | SAR_CHAN_CONFIG_AVG_EN_Msk \
 668:Generated_Source\PSoC6\pdl\drivers\peripheral\sar/cy_sar.h ****                                         | SAR_CHAN_CONFIG_SAMPLE_TIME_SEL_Msk \
 669:Generated_Source\PSoC6\pdl\drivers\peripheral\sar/cy_sar.h ****                                         | SAR_CHAN_CONFIG_NEG_PIN_ADDR_Msk \
 670:Generated_Source\PSoC6\pdl\drivers\peripheral\sar/cy_sar.h ****                                         | SAR_CHAN_CONFIG_NEG_PORT_ADDR_Msk \
 671:Generated_Source\PSoC6\pdl\drivers\peripheral\sar/cy_sar.h ****                                         | SAR_CHAN_CONFIG_NEG_ADDR_EN_Msk \
 672:Generated_Source\PSoC6\pdl\drivers\peripheral\sar/cy_sar.h ****                                         | SAR_CHAN_CONFIG_DSI_OUT_EN_Msk)
 673:Generated_Source\PSoC6\pdl\drivers\peripheral\sar/cy_sar.h **** #define CY_SAR_REG_SAMPLE_TIME_MASK     (SAR_SAMPLE_TIME01_SAMPLE_TIME0_Msk | SAR_SAMPLE_TIME01_SAM
 674:Generated_Source\PSoC6\pdl\drivers\peripheral\sar/cy_sar.h **** 
 675:Generated_Source\PSoC6\pdl\drivers\peripheral\sar/cy_sar.h **** #define CY_SAR_2US_DELAY                (2u)              /**< Delay used in Enable API function to
 676:Generated_Source\PSoC6\pdl\drivers\peripheral\sar/cy_sar.h **** #define CY_SAR_10V_COUNTS               (10.0F)           /**< Value of 10 in volts */
 677:Generated_Source\PSoC6\pdl\drivers\peripheral\sar/cy_sar.h **** #define CY_SAR_10MV_COUNTS              (10000)           /**< Value of 10 in millivolts */
 678:Generated_Source\PSoC6\pdl\drivers\peripheral\sar/cy_sar.h **** #define CY_SAR_10UV_COUNTS              (10000000L)       /**< Value of 10 in microvolts */
 679:Generated_Source\PSoC6\pdl\drivers\peripheral\sar/cy_sar.h **** #define CY_SAR_WRK_MAX_12BIT            (0x00001000uL)    /**< Maximum SAR work register value for 
 680:Generated_Source\PSoC6\pdl\drivers\peripheral\sar/cy_sar.h **** #define CY_SAR_RANGE_LIMIT_MAX          (0xFFFFuL)        /**< Maximum value for the low and high r
 681:Generated_Source\PSoC6\pdl\drivers\peripheral\sar/cy_sar.h **** #define CY_SAR_CAP_TRIM_MAX             (0x3FuL)          /**< Maximum value for CAP_TRIM */
 682:Generated_Source\PSoC6\pdl\drivers\peripheral\sar/cy_sar.h **** #define CY_SAR_CAP_TRIM_MIN             (0x00uL)          /**< Maximum value for CAP_TRIM */
 683:Generated_Source\PSoC6\pdl\drivers\peripheral\sar/cy_sar.h **** #define CY_SAR_CAP_TRIM                 (0x0BuL)          /**< Correct cap trim value */
 684:Generated_Source\PSoC6\pdl\drivers\peripheral\sar/cy_sar.h **** 
 685:Generated_Source\PSoC6\pdl\drivers\peripheral\sar/cy_sar.h **** /**< Macros for conditions used in CY_ASSERT calls */
 686:Generated_Source\PSoC6\pdl\drivers\peripheral\sar/cy_sar.h **** #define CY_SAR_CHANNUM(chan)            ((chan) < CY_SAR_MAX_NUM_CHANNELS)
 687:Generated_Source\PSoC6\pdl\drivers\peripheral\sar/cy_sar.h **** #define CY_SAR_CHANMASK(mask)           ((mask) < (1uL << CY_SAR_MAX_NUM_CHANNELS))
 688:Generated_Source\PSoC6\pdl\drivers\peripheral\sar/cy_sar.h **** #define CY_SAR_RANGECOND(cond)          ((cond) <= CY_SAR_RANGE_COND_OUTSIDE)
 689:Generated_Source\PSoC6\pdl\drivers\peripheral\sar/cy_sar.h **** #define CY_SAR_INTRMASK(mask)           ((mask) <= (uint32_t)(CY_SAR_INTR_EOS_MASK | CY_SAR_INTR_OV
 690:Generated_Source\PSoC6\pdl\drivers\peripheral\sar/cy_sar.h **** #define CY_SAR_TRIGGER(mode)            (((mode) == CY_SAR_TRIGGER_MODE_FW_ONLY) \
 691:Generated_Source\PSoC6\pdl\drivers\peripheral\sar/cy_sar.h ****                                         || ((mode) == CY_SAR_TRIGGER_MODE_FW_AND_HWEDGE) \
 692:Generated_Source\PSoC6\pdl\drivers\peripheral\sar/cy_sar.h ****                                         || ((mode) == CY_SAR_TRIGGER_MODE_FW_AND_HWLEVEL))
 693:Generated_Source\PSoC6\pdl\drivers\peripheral\sar/cy_sar.h **** #define CY_SAR_RETURN(mode)             (((mode) == CY_SAR_RETURN_STATUS) || ((mode) == CY_SAR_WAIT
 694:Generated_Source\PSoC6\pdl\drivers\peripheral\sar/cy_sar.h **** #define CY_SAR_STARTCONVERT(mode)       (((mode) == CY_SAR_START_CONVERT_SINGLE_SHOT) || ((mode) ==
 695:Generated_Source\PSoC6\pdl\drivers\peripheral\sar/cy_sar.h **** #define CY_SAR_RANGE_LIMIT(limit)       ((limit) <= CY_SAR_RANGE_LIMIT_MAX)
 696:Generated_Source\PSoC6\pdl\drivers\peripheral\sar/cy_sar.h **** #define CY_SAR_SWITCHSELECT(select)     ((select) == CY_SAR_MUX_SWITCH0)
 697:Generated_Source\PSoC6\pdl\drivers\peripheral\sar/cy_sar.h **** #define CY_SAR_SWITCHMASK(mask)         ((mask) <= CY_SAR_CLEAR_ALL_SWITCHES)
ARM GAS  C:\Users\gjl\AppData\Local\Temp\ccG9SHX7.s 			page 41


 698:Generated_Source\PSoC6\pdl\drivers\peripheral\sar/cy_sar.h **** #define CY_SAR_SWITCHSTATE(state)       (((state) == CY_SAR_SWITCH_OPEN) || ((state) == CY_SAR_SWIT
 699:Generated_Source\PSoC6\pdl\drivers\peripheral\sar/cy_sar.h **** #define CY_SAR_SQMASK(mask)             (((mask) & (~CY_SAR_DEINIT_SQ_CTRL)) == 0uL)
 700:Generated_Source\PSoC6\pdl\drivers\peripheral\sar/cy_sar.h **** #define CY_SAR_SQCTRL(ctrl)             (((ctrl) == CY_SAR_SWITCH_SEQ_CTRL_ENABLE) || ((ctrl) == CY
 701:Generated_Source\PSoC6\pdl\drivers\peripheral\sar/cy_sar.h **** 
 702:Generated_Source\PSoC6\pdl\drivers\peripheral\sar/cy_sar.h **** #define CY_SAR_CTRL(value)              (((value) & (~CY_SAR_REG_CTRL_MASK)) == 0uL)
 703:Generated_Source\PSoC6\pdl\drivers\peripheral\sar/cy_sar.h **** #define CY_SAR_SAMPLE_CTRL(value)       (((value) & (~CY_SAR_REG_SAMPLE_CTRL_MASK)) == 0uL)
 704:Generated_Source\PSoC6\pdl\drivers\peripheral\sar/cy_sar.h **** #define CY_SAR_SAMPLE_TIME(value)       (((value) & (~CY_SAR_REG_SAMPLE_TIME_MASK)) == 0uL)
 705:Generated_Source\PSoC6\pdl\drivers\peripheral\sar/cy_sar.h **** #define CY_SAR_CHAN_CONFIG(value)       (((value) & (~CY_SAR_REG_CHAN_CONFIG_MASK)) == 0uL)
 706:Generated_Source\PSoC6\pdl\drivers\peripheral\sar/cy_sar.h **** /** \endcond */
 707:Generated_Source\PSoC6\pdl\drivers\peripheral\sar/cy_sar.h **** 
 708:Generated_Source\PSoC6\pdl\drivers\peripheral\sar/cy_sar.h **** /** \} group_sar_macro */
 709:Generated_Source\PSoC6\pdl\drivers\peripheral\sar/cy_sar.h **** 
 710:Generated_Source\PSoC6\pdl\drivers\peripheral\sar/cy_sar.h **** /** \addtogroup group_sar_globals
 711:Generated_Source\PSoC6\pdl\drivers\peripheral\sar/cy_sar.h **** * \{
 712:Generated_Source\PSoC6\pdl\drivers\peripheral\sar/cy_sar.h **** */
 713:Generated_Source\PSoC6\pdl\drivers\peripheral\sar/cy_sar.h **** /***************************************
 714:Generated_Source\PSoC6\pdl\drivers\peripheral\sar/cy_sar.h **** *        Global Variables
 715:Generated_Source\PSoC6\pdl\drivers\peripheral\sar/cy_sar.h **** ***************************************/
 716:Generated_Source\PSoC6\pdl\drivers\peripheral\sar/cy_sar.h **** 
 717:Generated_Source\PSoC6\pdl\drivers\peripheral\sar/cy_sar.h **** /** This array is used to calibrate the offset for each channel.
 718:Generated_Source\PSoC6\pdl\drivers\peripheral\sar/cy_sar.h **** *
 719:Generated_Source\PSoC6\pdl\drivers\peripheral\sar/cy_sar.h **** * At initialization, channels that are single-ended, signed, and with Vneg = Vref
 720:Generated_Source\PSoC6\pdl\drivers\peripheral\sar/cy_sar.h **** * have an offset of -(2^12)/2 = -2048. All other channels have an offset of 0.
 721:Generated_Source\PSoC6\pdl\drivers\peripheral\sar/cy_sar.h **** * The offset can be overridden using \ref Cy_SAR_SetOffset.
 722:Generated_Source\PSoC6\pdl\drivers\peripheral\sar/cy_sar.h **** *
 723:Generated_Source\PSoC6\pdl\drivers\peripheral\sar/cy_sar.h **** * The channel offsets are used by the \ref Cy_SAR_CountsTo_Volts, \ref Cy_SAR_CountsTo_mVolts, and
 724:Generated_Source\PSoC6\pdl\drivers\peripheral\sar/cy_sar.h **** * \ref Cy_SAR_CountsTo_uVolts functions to convert counts to voltage.
 725:Generated_Source\PSoC6\pdl\drivers\peripheral\sar/cy_sar.h **** *
 726:Generated_Source\PSoC6\pdl\drivers\peripheral\sar/cy_sar.h **** */
 727:Generated_Source\PSoC6\pdl\drivers\peripheral\sar/cy_sar.h **** extern volatile int16_t Cy_SAR_offset[CY_SAR_MAX_NUM_CHANNELS];
 728:Generated_Source\PSoC6\pdl\drivers\peripheral\sar/cy_sar.h **** 
 729:Generated_Source\PSoC6\pdl\drivers\peripheral\sar/cy_sar.h **** /** This array is used to calibrate the gain for each channel.
 730:Generated_Source\PSoC6\pdl\drivers\peripheral\sar/cy_sar.h **** *
 731:Generated_Source\PSoC6\pdl\drivers\peripheral\sar/cy_sar.h **** * It is set at initialization and the value depends on the SARADC resolution
 732:Generated_Source\PSoC6\pdl\drivers\peripheral\sar/cy_sar.h **** * and voltage reference, 10*(2^12)/(2*Vref).
 733:Generated_Source\PSoC6\pdl\drivers\peripheral\sar/cy_sar.h **** * The gain can be overridden using \ref Cy_SAR_SetGain.
 734:Generated_Source\PSoC6\pdl\drivers\peripheral\sar/cy_sar.h **** *
 735:Generated_Source\PSoC6\pdl\drivers\peripheral\sar/cy_sar.h **** * The channel gains are used by the \ref Cy_SAR_CountsTo_Volts, \ref Cy_SAR_CountsTo_mVolts, and
 736:Generated_Source\PSoC6\pdl\drivers\peripheral\sar/cy_sar.h **** * \ref Cy_SAR_CountsTo_uVolts functions to convert counts to voltage.
 737:Generated_Source\PSoC6\pdl\drivers\peripheral\sar/cy_sar.h **** */
 738:Generated_Source\PSoC6\pdl\drivers\peripheral\sar/cy_sar.h **** extern volatile int32_t Cy_SAR_countsPer10Volt[CY_SAR_MAX_NUM_CHANNELS];
 739:Generated_Source\PSoC6\pdl\drivers\peripheral\sar/cy_sar.h **** 
 740:Generated_Source\PSoC6\pdl\drivers\peripheral\sar/cy_sar.h **** /** \} group_sar_globals */
 741:Generated_Source\PSoC6\pdl\drivers\peripheral\sar/cy_sar.h **** 
 742:Generated_Source\PSoC6\pdl\drivers\peripheral\sar/cy_sar.h **** /** \addtogroup group_sar_enums
 743:Generated_Source\PSoC6\pdl\drivers\peripheral\sar/cy_sar.h **** * \{
 744:Generated_Source\PSoC6\pdl\drivers\peripheral\sar/cy_sar.h **** */
 745:Generated_Source\PSoC6\pdl\drivers\peripheral\sar/cy_sar.h **** 
 746:Generated_Source\PSoC6\pdl\drivers\peripheral\sar/cy_sar.h **** /******************************************************************************
 747:Generated_Source\PSoC6\pdl\drivers\peripheral\sar/cy_sar.h ****  * Enumerations
 748:Generated_Source\PSoC6\pdl\drivers\peripheral\sar/cy_sar.h ****  *****************************************************************************/
 749:Generated_Source\PSoC6\pdl\drivers\peripheral\sar/cy_sar.h **** 
 750:Generated_Source\PSoC6\pdl\drivers\peripheral\sar/cy_sar.h **** /** The SAR status/error code definitions */
 751:Generated_Source\PSoC6\pdl\drivers\peripheral\sar/cy_sar.h **** typedef enum
 752:Generated_Source\PSoC6\pdl\drivers\peripheral\sar/cy_sar.h **** {
 753:Generated_Source\PSoC6\pdl\drivers\peripheral\sar/cy_sar.h ****     CY_SAR_SUCCESS    = 0x00uL,                                      /**< Success */
 754:Generated_Source\PSoC6\pdl\drivers\peripheral\sar/cy_sar.h ****     CY_SAR_BAD_PARAM  = CY_SAR_ID | CY_PDL_STATUS_ERROR | 0x01uL,    /**< Invalid input parameters 
ARM GAS  C:\Users\gjl\AppData\Local\Temp\ccG9SHX7.s 			page 42


 755:Generated_Source\PSoC6\pdl\drivers\peripheral\sar/cy_sar.h ****     CY_SAR_TIMEOUT    = CY_SAR_ID | CY_PDL_STATUS_ERROR | 0x02uL,    /**< A timeout occurred */
 756:Generated_Source\PSoC6\pdl\drivers\peripheral\sar/cy_sar.h ****     CY_SAR_CONVERSION_NOT_COMPLETE = CY_SAR_ID | CY_PDL_STATUS_ERROR | 0x03uL,    /**< SAR conversi
 757:Generated_Source\PSoC6\pdl\drivers\peripheral\sar/cy_sar.h **** }cy_en_sar_status_t;
 758:Generated_Source\PSoC6\pdl\drivers\peripheral\sar/cy_sar.h **** 
 759:Generated_Source\PSoC6\pdl\drivers\peripheral\sar/cy_sar.h **** /** Definitions for starting a conversion used in \ref Cy_SAR_StartConvert */
 760:Generated_Source\PSoC6\pdl\drivers\peripheral\sar/cy_sar.h **** typedef enum
 761:Generated_Source\PSoC6\pdl\drivers\peripheral\sar/cy_sar.h **** {
 762:Generated_Source\PSoC6\pdl\drivers\peripheral\sar/cy_sar.h ****     CY_SAR_START_CONVERT_SINGLE_SHOT = 0uL, /**< Start a single scan (one shot) from firmware */
 763:Generated_Source\PSoC6\pdl\drivers\peripheral\sar/cy_sar.h ****     CY_SAR_START_CONVERT_CONTINUOUS  = 1uL, /**< Continuously scan enabled channels and ignores all
 764:Generated_Source\PSoC6\pdl\drivers\peripheral\sar/cy_sar.h **** }cy_en_sar_start_convert_sel_t;
 765:Generated_Source\PSoC6\pdl\drivers\peripheral\sar/cy_sar.h **** 
 766:Generated_Source\PSoC6\pdl\drivers\peripheral\sar/cy_sar.h **** /** Definitions for the return mode used in \ref Cy_SAR_IsEndConversion */
 767:Generated_Source\PSoC6\pdl\drivers\peripheral\sar/cy_sar.h **** typedef enum
 768:Generated_Source\PSoC6\pdl\drivers\peripheral\sar/cy_sar.h **** {
 769:Generated_Source\PSoC6\pdl\drivers\peripheral\sar/cy_sar.h ****     CY_SAR_RETURN_STATUS    = 0uL,      /**< Immediately returns the conversion status. */
 770:Generated_Source\PSoC6\pdl\drivers\peripheral\sar/cy_sar.h ****     CY_SAR_WAIT_FOR_RESULT  = 1uL,    /**< Does not return a result until the conversion of all seq
 771:Generated_Source\PSoC6\pdl\drivers\peripheral\sar/cy_sar.h **** }cy_en_sar_return_mode_t;
 772:Generated_Source\PSoC6\pdl\drivers\peripheral\sar/cy_sar.h **** 
 773:Generated_Source\PSoC6\pdl\drivers\peripheral\sar/cy_sar.h **** /** Switch state definitions */
 774:Generated_Source\PSoC6\pdl\drivers\peripheral\sar/cy_sar.h **** typedef enum
 775:Generated_Source\PSoC6\pdl\drivers\peripheral\sar/cy_sar.h **** {
 776:Generated_Source\PSoC6\pdl\drivers\peripheral\sar/cy_sar.h ****     CY_SAR_SWITCH_OPEN      = 0uL,    /**< Open the switch */
 777:Generated_Source\PSoC6\pdl\drivers\peripheral\sar/cy_sar.h ****     CY_SAR_SWITCH_CLOSE     = 1uL     /**< Close the switch */
 778:Generated_Source\PSoC6\pdl\drivers\peripheral\sar/cy_sar.h **** }cy_en_sar_switch_state_t;
 779:Generated_Source\PSoC6\pdl\drivers\peripheral\sar/cy_sar.h **** 
 780:Generated_Source\PSoC6\pdl\drivers\peripheral\sar/cy_sar.h **** /** Definitions for sequencer control of switches */
 781:Generated_Source\PSoC6\pdl\drivers\peripheral\sar/cy_sar.h **** typedef enum
 782:Generated_Source\PSoC6\pdl\drivers\peripheral\sar/cy_sar.h **** {
 783:Generated_Source\PSoC6\pdl\drivers\peripheral\sar/cy_sar.h ****     CY_SAR_SWITCH_SEQ_CTRL_DISABLE = 0uL, /**< Disable sequencer control of switch */
 784:Generated_Source\PSoC6\pdl\drivers\peripheral\sar/cy_sar.h ****     CY_SAR_SWITCH_SEQ_CTRL_ENABLE  = 1uL  /**< Enable sequencer control of switch */
 785:Generated_Source\PSoC6\pdl\drivers\peripheral\sar/cy_sar.h **** }cy_en_sar_switch_sar_seq_ctrl_t;
 786:Generated_Source\PSoC6\pdl\drivers\peripheral\sar/cy_sar.h **** 
 787:Generated_Source\PSoC6\pdl\drivers\peripheral\sar/cy_sar.h **** /** Switch register selection for \ref Cy_SAR_SetAnalogSwitch and \ref Cy_SAR_GetAnalogSwitch */
 788:Generated_Source\PSoC6\pdl\drivers\peripheral\sar/cy_sar.h **** typedef enum
 789:Generated_Source\PSoC6\pdl\drivers\peripheral\sar/cy_sar.h **** {
 790:Generated_Source\PSoC6\pdl\drivers\peripheral\sar/cy_sar.h ****     CY_SAR_MUX_SWITCH0  = 0uL,      /**< SARMUX switch control register */
 791:Generated_Source\PSoC6\pdl\drivers\peripheral\sar/cy_sar.h **** }cy_en_sar_switch_register_sel_t;
 792:Generated_Source\PSoC6\pdl\drivers\peripheral\sar/cy_sar.h **** 
 793:Generated_Source\PSoC6\pdl\drivers\peripheral\sar/cy_sar.h **** /** \addtogroup group_sar_ctrl_register_enums
 794:Generated_Source\PSoC6\pdl\drivers\peripheral\sar/cy_sar.h **** * This set of enumerations aids in configuring the SAR CTRL register
 795:Generated_Source\PSoC6\pdl\drivers\peripheral\sar/cy_sar.h **** * \{
 796:Generated_Source\PSoC6\pdl\drivers\peripheral\sar/cy_sar.h **** */
 797:Generated_Source\PSoC6\pdl\drivers\peripheral\sar/cy_sar.h **** /** Reference voltage buffer power mode definitions */
 798:Generated_Source\PSoC6\pdl\drivers\peripheral\sar/cy_sar.h **** typedef enum
 799:Generated_Source\PSoC6\pdl\drivers\peripheral\sar/cy_sar.h **** {
 800:Generated_Source\PSoC6\pdl\drivers\peripheral\sar/cy_sar.h ****     CY_SAR_VREF_PWR_100     = 0uL << SAR_CTRL_PWR_CTRL_VREF_Pos,      /**< Full power (100%) */
 801:Generated_Source\PSoC6\pdl\drivers\peripheral\sar/cy_sar.h ****     CY_SAR_VREF_PWR_80      = 1uL << SAR_CTRL_PWR_CTRL_VREF_Pos,      /**< 80% power */
 802:Generated_Source\PSoC6\pdl\drivers\peripheral\sar/cy_sar.h ****     CY_SAR_VREF_PWR_60      = 2uL << SAR_CTRL_PWR_CTRL_VREF_Pos,      /**< 60% power */
 803:Generated_Source\PSoC6\pdl\drivers\peripheral\sar/cy_sar.h ****     CY_SAR_VREF_PWR_50      = 3uL << SAR_CTRL_PWR_CTRL_VREF_Pos,      /**< 50% power */
 804:Generated_Source\PSoC6\pdl\drivers\peripheral\sar/cy_sar.h ****     CY_SAR_VREF_PWR_40      = 4uL << SAR_CTRL_PWR_CTRL_VREF_Pos,      /**< 40% power */
 805:Generated_Source\PSoC6\pdl\drivers\peripheral\sar/cy_sar.h ****     CY_SAR_VREF_PWR_30      = 5uL << SAR_CTRL_PWR_CTRL_VREF_Pos,      /**< 30% power */
 806:Generated_Source\PSoC6\pdl\drivers\peripheral\sar/cy_sar.h ****     CY_SAR_VREF_PWR_20      = 6uL << SAR_CTRL_PWR_CTRL_VREF_Pos,      /**< 20% power */
 807:Generated_Source\PSoC6\pdl\drivers\peripheral\sar/cy_sar.h ****     CY_SAR_VREF_PWR_10      = 7uL << SAR_CTRL_PWR_CTRL_VREF_Pos,      /**< 10% power */
 808:Generated_Source\PSoC6\pdl\drivers\peripheral\sar/cy_sar.h **** }cy_en_sar_ctrl_pwr_ctrl_vref_t;
 809:Generated_Source\PSoC6\pdl\drivers\peripheral\sar/cy_sar.h **** 
 810:Generated_Source\PSoC6\pdl\drivers\peripheral\sar/cy_sar.h **** /** Reference voltage selection definitions */
 811:Generated_Source\PSoC6\pdl\drivers\peripheral\sar/cy_sar.h **** typedef enum
ARM GAS  C:\Users\gjl\AppData\Local\Temp\ccG9SHX7.s 			page 43


 812:Generated_Source\PSoC6\pdl\drivers\peripheral\sar/cy_sar.h **** {
 813:Generated_Source\PSoC6\pdl\drivers\peripheral\sar/cy_sar.h ****     CY_SAR_VREF_SEL_BGR         = 4uL << SAR_CTRL_VREF_SEL_Pos,     /**< System wide bandgap from \
 814:Generated_Source\PSoC6\pdl\drivers\peripheral\sar/cy_sar.h ****     CY_SAR_VREF_SEL_EXT         = 5uL << SAR_CTRL_VREF_SEL_Pos,     /**< External Vref direct from 
 815:Generated_Source\PSoC6\pdl\drivers\peripheral\sar/cy_sar.h ****     CY_SAR_VREF_SEL_VDDA_DIV_2  = 6uL << SAR_CTRL_VREF_SEL_Pos,     /**< Vdda/2 (Vref buffer on) */
 816:Generated_Source\PSoC6\pdl\drivers\peripheral\sar/cy_sar.h ****     CY_SAR_VREF_SEL_VDDA        = 7uL << SAR_CTRL_VREF_SEL_Pos      /**< Vdda */
 817:Generated_Source\PSoC6\pdl\drivers\peripheral\sar/cy_sar.h **** }cy_en_sar_ctrl_vref_sel_t;
 818:Generated_Source\PSoC6\pdl\drivers\peripheral\sar/cy_sar.h **** 
 819:Generated_Source\PSoC6\pdl\drivers\peripheral\sar/cy_sar.h **** /** Vref bypass cap enable.
 820:Generated_Source\PSoC6\pdl\drivers\peripheral\sar/cy_sar.h **** * When enabled, a bypass capacitor should
 821:Generated_Source\PSoC6\pdl\drivers\peripheral\sar/cy_sar.h **** * be connected to the dedicated Vref pin of the device.
 822:Generated_Source\PSoC6\pdl\drivers\peripheral\sar/cy_sar.h **** * Refer to the device datasheet for the minimum bypass capacitor value to use.
 823:Generated_Source\PSoC6\pdl\drivers\peripheral\sar/cy_sar.h **** */
 824:Generated_Source\PSoC6\pdl\drivers\peripheral\sar/cy_sar.h **** typedef enum
 825:Generated_Source\PSoC6\pdl\drivers\peripheral\sar/cy_sar.h **** {
 826:Generated_Source\PSoC6\pdl\drivers\peripheral\sar/cy_sar.h ****     CY_SAR_BYPASS_CAP_DISABLE = 0uL << SAR_CTRL_VREF_BYP_CAP_EN_Pos,    /**< Disable Vref bypass ca
 827:Generated_Source\PSoC6\pdl\drivers\peripheral\sar/cy_sar.h ****     CY_SAR_BYPASS_CAP_ENABLE  = 1uL << SAR_CTRL_VREF_BYP_CAP_EN_Pos     /**< Enable Vref bypass cap
 828:Generated_Source\PSoC6\pdl\drivers\peripheral\sar/cy_sar.h **** }cy_en_sar_ctrl_bypass_cap_t;
 829:Generated_Source\PSoC6\pdl\drivers\peripheral\sar/cy_sar.h **** 
 830:Generated_Source\PSoC6\pdl\drivers\peripheral\sar/cy_sar.h **** /** Negative terminal (Vminus) selection definitions for single-ended channels.
 831:Generated_Source\PSoC6\pdl\drivers\peripheral\sar/cy_sar.h **** *
 832:Generated_Source\PSoC6\pdl\drivers\peripheral\sar/cy_sar.h **** * The Vminus input for single ended channels can be connected to
 833:Generated_Source\PSoC6\pdl\drivers\peripheral\sar/cy_sar.h **** * Vref, VSSA, or routed out to an external pin.
 834:Generated_Source\PSoC6\pdl\drivers\peripheral\sar/cy_sar.h **** * The options for routing to a pin are through Pin 1, Pin 3, Pin 5, or Pin 7
 835:Generated_Source\PSoC6\pdl\drivers\peripheral\sar/cy_sar.h **** * of the SARMUX dedicated port or an acore wire in AROUTE, if available on the device.
 836:Generated_Source\PSoC6\pdl\drivers\peripheral\sar/cy_sar.h **** *
 837:Generated_Source\PSoC6\pdl\drivers\peripheral\sar/cy_sar.h **** * \ref CY_SAR_NEG_SEL_VSSA_KELVIN comes straight from a Vssa pad without any shared branches
 838:Generated_Source\PSoC6\pdl\drivers\peripheral\sar/cy_sar.h **** * so as to keep quiet and avoid voltage drops.
 839:Generated_Source\PSoC6\pdl\drivers\peripheral\sar/cy_sar.h **** */
 840:Generated_Source\PSoC6\pdl\drivers\peripheral\sar/cy_sar.h **** typedef enum
 841:Generated_Source\PSoC6\pdl\drivers\peripheral\sar/cy_sar.h **** {
 842:Generated_Source\PSoC6\pdl\drivers\peripheral\sar/cy_sar.h ****     CY_SAR_NEG_SEL_VSSA_KELVIN  = 0uL << SAR_CTRL_NEG_SEL_Pos,  /**< Connect Vminus to VSSA_KELVIN 
 843:Generated_Source\PSoC6\pdl\drivers\peripheral\sar/cy_sar.h ****     CY_SAR_NEG_SEL_P1           = 2uL << SAR_CTRL_NEG_SEL_Pos,  /**< Connect Vminus to Pin 1 of SAR
 844:Generated_Source\PSoC6\pdl\drivers\peripheral\sar/cy_sar.h ****     CY_SAR_NEG_SEL_P3           = 3uL << SAR_CTRL_NEG_SEL_Pos,  /**< Connect Vminus to Pin 3 of SAR
 845:Generated_Source\PSoC6\pdl\drivers\peripheral\sar/cy_sar.h ****     CY_SAR_NEG_SEL_P5           = 4uL << SAR_CTRL_NEG_SEL_Pos,  /**< Connect Vminus to Pin 5 of SAR
 846:Generated_Source\PSoC6\pdl\drivers\peripheral\sar/cy_sar.h ****     CY_SAR_NEG_SEL_P7           = 5uL << SAR_CTRL_NEG_SEL_Pos,  /**< Connect Vminus to Pin 6 of SAR
 847:Generated_Source\PSoC6\pdl\drivers\peripheral\sar/cy_sar.h ****     CY_SAR_NEG_SEL_ACORE        = 6uL << SAR_CTRL_NEG_SEL_Pos,  /**< Connect Vminus to an ACORE in 
 848:Generated_Source\PSoC6\pdl\drivers\peripheral\sar/cy_sar.h ****     CY_SAR_NEG_SEL_VREF         = 7uL << SAR_CTRL_NEG_SEL_Pos,  /**< Connect Vminus to VREF input o
 849:Generated_Source\PSoC6\pdl\drivers\peripheral\sar/cy_sar.h **** }cy_en_sar_ctrl_neg_sel_t;
 850:Generated_Source\PSoC6\pdl\drivers\peripheral\sar/cy_sar.h **** 
 851:Generated_Source\PSoC6\pdl\drivers\peripheral\sar/cy_sar.h **** /** Enable hardware control of the switch between Vref and the Vminus input */
 852:Generated_Source\PSoC6\pdl\drivers\peripheral\sar/cy_sar.h **** typedef enum
 853:Generated_Source\PSoC6\pdl\drivers\peripheral\sar/cy_sar.h **** {
 854:Generated_Source\PSoC6\pdl\drivers\peripheral\sar/cy_sar.h ****     CY_SAR_CTRL_NEGVREF_FW_ONLY = 0uL << SAR_CTRL_SAR_HW_CTRL_NEGVREF_Pos,    /**< Only firmware co
 855:Generated_Source\PSoC6\pdl\drivers\peripheral\sar/cy_sar.h ****     CY_SAR_CTRL_NEGVREF_HW      = 1uL << SAR_CTRL_SAR_HW_CTRL_NEGVREF_Pos     /**< Enable hardware 
 856:Generated_Source\PSoC6\pdl\drivers\peripheral\sar/cy_sar.h **** }cy_en_sar_ctrl_hw_ctrl_negvref_t;
 857:Generated_Source\PSoC6\pdl\drivers\peripheral\sar/cy_sar.h **** 
 858:Generated_Source\PSoC6\pdl\drivers\peripheral\sar/cy_sar.h **** /** Configure the comparator latch delay */
 859:Generated_Source\PSoC6\pdl\drivers\peripheral\sar/cy_sar.h **** typedef enum
 860:Generated_Source\PSoC6\pdl\drivers\peripheral\sar/cy_sar.h **** {
 861:Generated_Source\PSoC6\pdl\drivers\peripheral\sar/cy_sar.h ****     CY_SAR_CTRL_COMP_DLY_2P5    = 0uL << SAR_CTRL_COMP_DLY_Pos,    /**< 2.5 ns delay, use for SAR c
 862:Generated_Source\PSoC6\pdl\drivers\peripheral\sar/cy_sar.h ****     CY_SAR_CTRL_COMP_DLY_4      = 1uL << SAR_CTRL_COMP_DLY_Pos,    /**< 4 ns delay, use for SAR con
 863:Generated_Source\PSoC6\pdl\drivers\peripheral\sar/cy_sar.h ****     CY_SAR_CTRL_COMP_DLY_10     = 2uL << SAR_CTRL_COMP_DLY_Pos,    /**< 10 ns delay, use for SAR co
 864:Generated_Source\PSoC6\pdl\drivers\peripheral\sar/cy_sar.h ****     CY_SAR_CTRL_COMP_DLY_12     = 3uL << SAR_CTRL_COMP_DLY_Pos     /**< 12 ns delay, use for SAR co
 865:Generated_Source\PSoC6\pdl\drivers\peripheral\sar/cy_sar.h **** }cy_en_sar_ctrl_comp_delay_t;
 866:Generated_Source\PSoC6\pdl\drivers\peripheral\sar/cy_sar.h **** 
 867:Generated_Source\PSoC6\pdl\drivers\peripheral\sar/cy_sar.h **** /** Configure the comparator power mode */
 868:Generated_Source\PSoC6\pdl\drivers\peripheral\sar/cy_sar.h **** typedef enum
ARM GAS  C:\Users\gjl\AppData\Local\Temp\ccG9SHX7.s 			page 44


 869:Generated_Source\PSoC6\pdl\drivers\peripheral\sar/cy_sar.h **** {
 870:Generated_Source\PSoC6\pdl\drivers\peripheral\sar/cy_sar.h ****     CY_SAR_COMP_PWR_100     = 0uL << SAR_CTRL_COMP_PWR_Pos,      /**< 100% power, use this for > 2 
 871:Generated_Source\PSoC6\pdl\drivers\peripheral\sar/cy_sar.h ****     CY_SAR_COMP_PWR_80      = 1uL << SAR_CTRL_COMP_PWR_Pos,      /**< 80% power, use this for 1.5 -
 872:Generated_Source\PSoC6\pdl\drivers\peripheral\sar/cy_sar.h ****     CY_SAR_COMP_PWR_60      = 2uL << SAR_CTRL_COMP_PWR_Pos,      /**< 60% power, use this for 1.0 -
 873:Generated_Source\PSoC6\pdl\drivers\peripheral\sar/cy_sar.h ****     CY_SAR_COMP_PWR_50      = 3uL << SAR_CTRL_COMP_PWR_Pos,      /**< 50% power, use this for 500 k
 874:Generated_Source\PSoC6\pdl\drivers\peripheral\sar/cy_sar.h ****     CY_SAR_COMP_PWR_40      = 4uL << SAR_CTRL_COMP_PWR_Pos,      /**< 40% power, use this for 250 -
 875:Generated_Source\PSoC6\pdl\drivers\peripheral\sar/cy_sar.h ****     CY_SAR_COMP_PWR_30      = 5uL << SAR_CTRL_COMP_PWR_Pos,      /**< 30% power, use this for 100 -
 876:Generated_Source\PSoC6\pdl\drivers\peripheral\sar/cy_sar.h ****     CY_SAR_COMP_PWR_20      = 6uL << SAR_CTRL_COMP_PWR_Pos,      /**< 20% power, use this for TDB s
 877:Generated_Source\PSoC6\pdl\drivers\peripheral\sar/cy_sar.h ****     CY_SAR_COMP_PWR_10      = 7uL << SAR_CTRL_COMP_PWR_Pos,      /**< 10% power, use this for < 100
 878:Generated_Source\PSoC6\pdl\drivers\peripheral\sar/cy_sar.h **** }cy_en_sar_ctrl_comp_pwr_t;
 879:Generated_Source\PSoC6\pdl\drivers\peripheral\sar/cy_sar.h **** 
 880:Generated_Source\PSoC6\pdl\drivers\peripheral\sar/cy_sar.h **** /** Enable or disable the SARMUX during Deep Sleep power mode. */
 881:Generated_Source\PSoC6\pdl\drivers\peripheral\sar/cy_sar.h **** typedef enum
 882:Generated_Source\PSoC6\pdl\drivers\peripheral\sar/cy_sar.h **** {
 883:Generated_Source\PSoC6\pdl\drivers\peripheral\sar/cy_sar.h ****     CY_SAR_DEEPSLEEP_SARMUX_OFF = 0uL << SAR_CTRL_DEEPSLEEP_ON_Pos,    /**< Disable SARMUX operatio
 884:Generated_Source\PSoC6\pdl\drivers\peripheral\sar/cy_sar.h ****     CY_SAR_DEEPSLEEP_SARMUX_ON  = 1uL << SAR_CTRL_DEEPSLEEP_ON_Pos     /**< Enable SARMUX operation
 885:Generated_Source\PSoC6\pdl\drivers\peripheral\sar/cy_sar.h **** }cy_en_sar_ctrl_sarmux_deep_sleep_t;
 886:Generated_Source\PSoC6\pdl\drivers\peripheral\sar/cy_sar.h **** 
 887:Generated_Source\PSoC6\pdl\drivers\peripheral\sar/cy_sar.h **** /** Enable or disable the SARSEQ control of routing switches */
 888:Generated_Source\PSoC6\pdl\drivers\peripheral\sar/cy_sar.h **** typedef enum
 889:Generated_Source\PSoC6\pdl\drivers\peripheral\sar/cy_sar.h **** {
 890:Generated_Source\PSoC6\pdl\drivers\peripheral\sar/cy_sar.h ****     CY_SAR_SARSEQ_SWITCH_ENABLE    = 0uL << SAR_CTRL_SWITCH_DISABLE_Pos,    /**< Enable the SARSEQ 
 891:Generated_Source\PSoC6\pdl\drivers\peripheral\sar/cy_sar.h ****     CY_SAR_SARSEQ_SWITCH_DISABLE   = 1uL << SAR_CTRL_SWITCH_DISABLE_Pos     /**< Disable the SARSEQ
 892:Generated_Source\PSoC6\pdl\drivers\peripheral\sar/cy_sar.h **** }cy_en_sar_ctrl_sarseq_routing_switches_t;
 893:Generated_Source\PSoC6\pdl\drivers\peripheral\sar/cy_sar.h **** 
 894:Generated_Source\PSoC6\pdl\drivers\peripheral\sar/cy_sar.h **** /* \} */
 895:Generated_Source\PSoC6\pdl\drivers\peripheral\sar/cy_sar.h **** 
 896:Generated_Source\PSoC6\pdl\drivers\peripheral\sar/cy_sar.h **** /** \addtogroup group_sar_sample_ctrl_register_enums
 897:Generated_Source\PSoC6\pdl\drivers\peripheral\sar/cy_sar.h **** * This set of enumerations are used in configuring the SAR SAMPLE_CTRL register
 898:Generated_Source\PSoC6\pdl\drivers\peripheral\sar/cy_sar.h **** * \{
 899:Generated_Source\PSoC6\pdl\drivers\peripheral\sar/cy_sar.h **** */
 900:Generated_Source\PSoC6\pdl\drivers\peripheral\sar/cy_sar.h **** /** Configure result alignment, either left or right aligned.
 901:Generated_Source\PSoC6\pdl\drivers\peripheral\sar/cy_sar.h **** *
 902:Generated_Source\PSoC6\pdl\drivers\peripheral\sar/cy_sar.h **** * \note
 903:Generated_Source\PSoC6\pdl\drivers\peripheral\sar/cy_sar.h **** * Averaging always uses right alignment. If the \ref CY_SAR_LEFT_ALIGN
 904:Generated_Source\PSoC6\pdl\drivers\peripheral\sar/cy_sar.h **** * is selected with averaging enabled, it is ignored.
 905:Generated_Source\PSoC6\pdl\drivers\peripheral\sar/cy_sar.h **** *
 906:Generated_Source\PSoC6\pdl\drivers\peripheral\sar/cy_sar.h **** * \note
 907:Generated_Source\PSoC6\pdl\drivers\peripheral\sar/cy_sar.h **** * The voltage conversion functions (\ref Cy_SAR_CountsTo_Volts, \ref Cy_SAR_CountsTo_mVolts,
 908:Generated_Source\PSoC6\pdl\drivers\peripheral\sar/cy_sar.h **** * \ref Cy_SAR_CountsTo_uVolts) are only valid for right alignment.
 909:Generated_Source\PSoC6\pdl\drivers\peripheral\sar/cy_sar.h **** * */
 910:Generated_Source\PSoC6\pdl\drivers\peripheral\sar/cy_sar.h **** typedef enum
 911:Generated_Source\PSoC6\pdl\drivers\peripheral\sar/cy_sar.h **** {
 912:Generated_Source\PSoC6\pdl\drivers\peripheral\sar/cy_sar.h ****     CY_SAR_RIGHT_ALIGN  = 0uL << SAR_SAMPLE_CTRL_LEFT_ALIGN_Pos,    /**< Right align result data to
 913:Generated_Source\PSoC6\pdl\drivers\peripheral\sar/cy_sar.h ****     CY_SAR_LEFT_ALIGN   = 1uL << SAR_SAMPLE_CTRL_LEFT_ALIGN_Pos     /**< Left align result data to 
 914:Generated_Source\PSoC6\pdl\drivers\peripheral\sar/cy_sar.h **** }cy_en_sar_sample_ctrl_result_align_t;
 915:Generated_Source\PSoC6\pdl\drivers\peripheral\sar/cy_sar.h **** 
 916:Generated_Source\PSoC6\pdl\drivers\peripheral\sar/cy_sar.h **** /** Configure format, signed or unsigned, of single-ended channels */
 917:Generated_Source\PSoC6\pdl\drivers\peripheral\sar/cy_sar.h **** typedef enum
 918:Generated_Source\PSoC6\pdl\drivers\peripheral\sar/cy_sar.h **** {
 919:Generated_Source\PSoC6\pdl\drivers\peripheral\sar/cy_sar.h ****     CY_SAR_SINGLE_ENDED_UNSIGNED  = 0uL << SAR_SAMPLE_CTRL_SINGLE_ENDED_SIGNED_Pos,    /**< Result 
 920:Generated_Source\PSoC6\pdl\drivers\peripheral\sar/cy_sar.h ****     CY_SAR_SINGLE_ENDED_SIGNED    = 1uL << SAR_SAMPLE_CTRL_SINGLE_ENDED_SIGNED_Pos     /**< Result 
 921:Generated_Source\PSoC6\pdl\drivers\peripheral\sar/cy_sar.h **** }cy_en_sar_sample_ctrl_single_ended_format_t;
 922:Generated_Source\PSoC6\pdl\drivers\peripheral\sar/cy_sar.h **** 
 923:Generated_Source\PSoC6\pdl\drivers\peripheral\sar/cy_sar.h **** /** Configure format, signed or unsigned, of differential channels */
 924:Generated_Source\PSoC6\pdl\drivers\peripheral\sar/cy_sar.h **** typedef enum
 925:Generated_Source\PSoC6\pdl\drivers\peripheral\sar/cy_sar.h **** {
ARM GAS  C:\Users\gjl\AppData\Local\Temp\ccG9SHX7.s 			page 45


 926:Generated_Source\PSoC6\pdl\drivers\peripheral\sar/cy_sar.h ****     CY_SAR_DIFFERENTIAL_UNSIGNED  = 0uL << SAR_SAMPLE_CTRL_DIFFERENTIAL_SIGNED_Pos,    /**< Result 
 927:Generated_Source\PSoC6\pdl\drivers\peripheral\sar/cy_sar.h ****     CY_SAR_DIFFERENTIAL_SIGNED    = 1uL << SAR_SAMPLE_CTRL_DIFFERENTIAL_SIGNED_Pos     /**< Result 
 928:Generated_Source\PSoC6\pdl\drivers\peripheral\sar/cy_sar.h **** }cy_en_sar_sample_ctrl_differential_format_t;
 929:Generated_Source\PSoC6\pdl\drivers\peripheral\sar/cy_sar.h **** 
 930:Generated_Source\PSoC6\pdl\drivers\peripheral\sar/cy_sar.h **** /** Configure number of samples for averaging.
 931:Generated_Source\PSoC6\pdl\drivers\peripheral\sar/cy_sar.h **** * This applies only to channels with averaging enabled.
 932:Generated_Source\PSoC6\pdl\drivers\peripheral\sar/cy_sar.h **** */
 933:Generated_Source\PSoC6\pdl\drivers\peripheral\sar/cy_sar.h **** typedef enum
 934:Generated_Source\PSoC6\pdl\drivers\peripheral\sar/cy_sar.h **** {
 935:Generated_Source\PSoC6\pdl\drivers\peripheral\sar/cy_sar.h ****     CY_SAR_AVG_CNT_2          = 0uL << SAR_SAMPLE_CTRL_AVG_CNT_Pos,    /**< Set samples averaged to
 936:Generated_Source\PSoC6\pdl\drivers\peripheral\sar/cy_sar.h ****     CY_SAR_AVG_CNT_4          = 1uL << SAR_SAMPLE_CTRL_AVG_CNT_Pos,    /**< Set samples averaged to
 937:Generated_Source\PSoC6\pdl\drivers\peripheral\sar/cy_sar.h ****     CY_SAR_AVG_CNT_8          = 2uL << SAR_SAMPLE_CTRL_AVG_CNT_Pos,    /**< Set samples averaged to
 938:Generated_Source\PSoC6\pdl\drivers\peripheral\sar/cy_sar.h ****     CY_SAR_AVG_CNT_16         = 3uL << SAR_SAMPLE_CTRL_AVG_CNT_Pos,    /**< Set samples averaged to
 939:Generated_Source\PSoC6\pdl\drivers\peripheral\sar/cy_sar.h ****     CY_SAR_AVG_CNT_32         = 4uL << SAR_SAMPLE_CTRL_AVG_CNT_Pos,    /**< Set samples averaged to
 940:Generated_Source\PSoC6\pdl\drivers\peripheral\sar/cy_sar.h ****     CY_SAR_AVG_CNT_64         = 5uL << SAR_SAMPLE_CTRL_AVG_CNT_Pos,    /**< Set samples averaged to
 941:Generated_Source\PSoC6\pdl\drivers\peripheral\sar/cy_sar.h ****     CY_SAR_AVG_CNT_128        = 6uL << SAR_SAMPLE_CTRL_AVG_CNT_Pos,    /**< Set samples averaged to
 942:Generated_Source\PSoC6\pdl\drivers\peripheral\sar/cy_sar.h ****     CY_SAR_AVG_CNT_256        = 7uL << SAR_SAMPLE_CTRL_AVG_CNT_Pos     /**< Set samples averaged to
 943:Generated_Source\PSoC6\pdl\drivers\peripheral\sar/cy_sar.h **** }cy_en_sar_sample_ctrl_avg_cnt_t;
 944:Generated_Source\PSoC6\pdl\drivers\peripheral\sar/cy_sar.h **** 
 945:Generated_Source\PSoC6\pdl\drivers\peripheral\sar/cy_sar.h **** /** Configure the averaging mode.
 946:Generated_Source\PSoC6\pdl\drivers\peripheral\sar/cy_sar.h **** *
 947:Generated_Source\PSoC6\pdl\drivers\peripheral\sar/cy_sar.h **** * - Sequential accumulate and dump: a channel will be sampled back to back.
 948:Generated_Source\PSoC6\pdl\drivers\peripheral\sar/cy_sar.h **** *   The result is added to a running sum in a 20-bit register. At the end
 949:Generated_Source\PSoC6\pdl\drivers\peripheral\sar/cy_sar.h **** *   of the scan, the accumulated value is shifted right to fit into 16 bits
 950:Generated_Source\PSoC6\pdl\drivers\peripheral\sar/cy_sar.h **** *   and stored into the CHAN_RESULT register.
 951:Generated_Source\PSoC6\pdl\drivers\peripheral\sar/cy_sar.h **** * - Sequential fixed:  a channel will be sampled back to back.
 952:Generated_Source\PSoC6\pdl\drivers\peripheral\sar/cy_sar.h **** *   The result is added to a running sum in a 20-bit register. At the end
 953:Generated_Source\PSoC6\pdl\drivers\peripheral\sar/cy_sar.h **** *   of the scan, the accumulated value is shifted right to fit into 12 bits
 954:Generated_Source\PSoC6\pdl\drivers\peripheral\sar/cy_sar.h **** *   and stored into the CHAN_RESULT register.
 955:Generated_Source\PSoC6\pdl\drivers\peripheral\sar/cy_sar.h **** * - Interleaved: a channel will be sampled once per scan.
 956:Generated_Source\PSoC6\pdl\drivers\peripheral\sar/cy_sar.h **** *   The result is added to a running sum in a 16-bit register.
 957:Generated_Source\PSoC6\pdl\drivers\peripheral\sar/cy_sar.h **** *   In the scan where the final averaging count is reached,
 958:Generated_Source\PSoC6\pdl\drivers\peripheral\sar/cy_sar.h **** *   the accumulated value is shifted right to fit into 12 bits
 959:Generated_Source\PSoC6\pdl\drivers\peripheral\sar/cy_sar.h **** *   and stored into the CHAN_RESULT register.
 960:Generated_Source\PSoC6\pdl\drivers\peripheral\sar/cy_sar.h **** *   In all other scans, the CHAN_RESULT will have an invalid result.
 961:Generated_Source\PSoC6\pdl\drivers\peripheral\sar/cy_sar.h **** *   In interleaved mode, make sure that the averaging
 962:Generated_Source\PSoC6\pdl\drivers\peripheral\sar/cy_sar.h **** *   count is low enough to ensure that the intermediate value does not exceed 16 bits,
 963:Generated_Source\PSoC6\pdl\drivers\peripheral\sar/cy_sar.h **** *   that is averaging count is 16 or less. Otherwise, the MSBs will be lost.
 964:Generated_Source\PSoC6\pdl\drivers\peripheral\sar/cy_sar.h **** *   In the special case that averaging is enabled for all enabled channels
 965:Generated_Source\PSoC6\pdl\drivers\peripheral\sar/cy_sar.h **** *   and interleaved mode is used, the interrupt frequency
 966:Generated_Source\PSoC6\pdl\drivers\peripheral\sar/cy_sar.h **** *   will be reduced by a factor of the number of samples averaged.
 967:Generated_Source\PSoC6\pdl\drivers\peripheral\sar/cy_sar.h **** */
 968:Generated_Source\PSoC6\pdl\drivers\peripheral\sar/cy_sar.h **** typedef enum
 969:Generated_Source\PSoC6\pdl\drivers\peripheral\sar/cy_sar.h **** {
 970:Generated_Source\PSoC6\pdl\drivers\peripheral\sar/cy_sar.h ****     CY_SAR_AVG_MODE_SEQUENTIAL_ACCUM    = 0uL,                               /**< Set mode to seque
 971:Generated_Source\PSoC6\pdl\drivers\peripheral\sar/cy_sar.h ****     CY_SAR_AVG_MODE_SEQUENTIAL_FIXED    = SAR_SAMPLE_CTRL_AVG_SHIFT_Msk,     /**< Set mode to seque
 972:Generated_Source\PSoC6\pdl\drivers\peripheral\sar/cy_sar.h ****     CY_SAR_AVG_MODE_INTERLEAVED         = SAR_SAMPLE_CTRL_AVG_MODE_Msk,      /**< Set mode to inter
 973:Generated_Source\PSoC6\pdl\drivers\peripheral\sar/cy_sar.h **** }cy_en_sar_sample_ctrl_avg_mode_t;
 974:Generated_Source\PSoC6\pdl\drivers\peripheral\sar/cy_sar.h **** 
 975:Generated_Source\PSoC6\pdl\drivers\peripheral\sar/cy_sar.h **** /** Configure the trigger mode.
 976:Generated_Source\PSoC6\pdl\drivers\peripheral\sar/cy_sar.h **** *
 977:Generated_Source\PSoC6\pdl\drivers\peripheral\sar/cy_sar.h **** * Firmware triggering is always enabled and can be single shot or continuous.
 978:Generated_Source\PSoC6\pdl\drivers\peripheral\sar/cy_sar.h **** * Additionally, hardware triggering can be enabled with the option to be
 979:Generated_Source\PSoC6\pdl\drivers\peripheral\sar/cy_sar.h **** * edge or level sensitive.
 980:Generated_Source\PSoC6\pdl\drivers\peripheral\sar/cy_sar.h **** */
 981:Generated_Source\PSoC6\pdl\drivers\peripheral\sar/cy_sar.h **** typedef enum
 982:Generated_Source\PSoC6\pdl\drivers\peripheral\sar/cy_sar.h **** {
ARM GAS  C:\Users\gjl\AppData\Local\Temp\ccG9SHX7.s 			page 46


 983:Generated_Source\PSoC6\pdl\drivers\peripheral\sar/cy_sar.h ****     CY_SAR_TRIGGER_MODE_FW_ONLY        = 0uL,                                /**< Firmware trigger 
 984:Generated_Source\PSoC6\pdl\drivers\peripheral\sar/cy_sar.h ****     CY_SAR_TRIGGER_MODE_FW_AND_HWEDGE  = SAR_SAMPLE_CTRL_DSI_TRIGGER_EN_Msk, /**< Enable edge sensi
 985:Generated_Source\PSoC6\pdl\drivers\peripheral\sar/cy_sar.h ****     CY_SAR_TRIGGER_MODE_FW_AND_HWLEVEL = SAR_SAMPLE_CTRL_DSI_TRIGGER_EN_Msk | SAR_SAMPLE_CTRL_DSI_T
 986:Generated_Source\PSoC6\pdl\drivers\peripheral\sar/cy_sar.h **** }cy_en_sar_sample_ctrl_trigger_mode_t;
 987:Generated_Source\PSoC6\pdl\drivers\peripheral\sar/cy_sar.h **** 
 988:Generated_Source\PSoC6\pdl\drivers\peripheral\sar/cy_sar.h **** /* \} */
 989:Generated_Source\PSoC6\pdl\drivers\peripheral\sar/cy_sar.h **** 
 990:Generated_Source\PSoC6\pdl\drivers\peripheral\sar/cy_sar.h **** /** \addtogroup group_sar_sample_time_shift_enums
 991:Generated_Source\PSoC6\pdl\drivers\peripheral\sar/cy_sar.h **** * This set of enumerations aids in configuring the SAR SAMPLE_TIME* registers
 992:Generated_Source\PSoC6\pdl\drivers\peripheral\sar/cy_sar.h **** * \{
 993:Generated_Source\PSoC6\pdl\drivers\peripheral\sar/cy_sar.h **** */
 994:Generated_Source\PSoC6\pdl\drivers\peripheral\sar/cy_sar.h **** /** Configure the sample time by using these shifts */
 995:Generated_Source\PSoC6\pdl\drivers\peripheral\sar/cy_sar.h **** typedef enum
 996:Generated_Source\PSoC6\pdl\drivers\peripheral\sar/cy_sar.h **** {
 997:Generated_Source\PSoC6\pdl\drivers\peripheral\sar/cy_sar.h ****     CY_SAR_SAMPLE_TIME0_SHIFT       = SAR_SAMPLE_TIME01_SAMPLE_TIME0_Pos,             /**< Shift fo
 998:Generated_Source\PSoC6\pdl\drivers\peripheral\sar/cy_sar.h ****     CY_SAR_SAMPLE_TIME1_SHIFT       = SAR_SAMPLE_TIME01_SAMPLE_TIME1_Pos,             /**< Shift fo
 999:Generated_Source\PSoC6\pdl\drivers\peripheral\sar/cy_sar.h ****     CY_SAR_SAMPLE_TIME2_SHIFT       = SAR_SAMPLE_TIME23_SAMPLE_TIME2_Pos,             /**< Shift fo
1000:Generated_Source\PSoC6\pdl\drivers\peripheral\sar/cy_sar.h ****     CY_SAR_SAMPLE_TIME3_SHIFT       = SAR_SAMPLE_TIME23_SAMPLE_TIME3_Pos,             /**< Shift fo
1001:Generated_Source\PSoC6\pdl\drivers\peripheral\sar/cy_sar.h **** }cy_en_sar_sample_time_shift_t;
1002:Generated_Source\PSoC6\pdl\drivers\peripheral\sar/cy_sar.h **** /* \} */
1003:Generated_Source\PSoC6\pdl\drivers\peripheral\sar/cy_sar.h **** 
1004:Generated_Source\PSoC6\pdl\drivers\peripheral\sar/cy_sar.h **** /** \addtogroup group_sar_range_thres_register_enums
1005:Generated_Source\PSoC6\pdl\drivers\peripheral\sar/cy_sar.h **** * This set of enumerations aids in configuring the SAR RANGE* registers
1006:Generated_Source\PSoC6\pdl\drivers\peripheral\sar/cy_sar.h **** * \{
1007:Generated_Source\PSoC6\pdl\drivers\peripheral\sar/cy_sar.h **** */
1008:Generated_Source\PSoC6\pdl\drivers\peripheral\sar/cy_sar.h **** /** Configure the lower and upper thresholds for range detection
1009:Generated_Source\PSoC6\pdl\drivers\peripheral\sar/cy_sar.h **** *
1010:Generated_Source\PSoC6\pdl\drivers\peripheral\sar/cy_sar.h **** * The SARSEQ supports range detection to allow for automatic detection of sample
1011:Generated_Source\PSoC6\pdl\drivers\peripheral\sar/cy_sar.h **** * values compared to two programmable thresholds without CPU involvement.
1012:Generated_Source\PSoC6\pdl\drivers\peripheral\sar/cy_sar.h **** * Range detection is defined by two global thresholds and a condition.
1013:Generated_Source\PSoC6\pdl\drivers\peripheral\sar/cy_sar.h **** * The RANGE_LOW value defines the lower threshold and RANGE_HIGH defines
1014:Generated_Source\PSoC6\pdl\drivers\peripheral\sar/cy_sar.h **** * the upper threshold of the range.
1015:Generated_Source\PSoC6\pdl\drivers\peripheral\sar/cy_sar.h **** *
1016:Generated_Source\PSoC6\pdl\drivers\peripheral\sar/cy_sar.h **** * Range detect is done after averaging, alignment, and sign extension (if applicable).
1017:Generated_Source\PSoC6\pdl\drivers\peripheral\sar/cy_sar.h **** * In other words, the thresholds values must have the same data format as the result data.
1018:Generated_Source\PSoC6\pdl\drivers\peripheral\sar/cy_sar.h **** * Range detection is always done for all channels scanned. By making RANGE_INTR_MASK=0,
1019:Generated_Source\PSoC6\pdl\drivers\peripheral\sar/cy_sar.h **** * the firmware can choose to ignore the range detect interrupt for any channel.
1020:Generated_Source\PSoC6\pdl\drivers\peripheral\sar/cy_sar.h **** */
1021:Generated_Source\PSoC6\pdl\drivers\peripheral\sar/cy_sar.h **** typedef enum
1022:Generated_Source\PSoC6\pdl\drivers\peripheral\sar/cy_sar.h **** {
1023:Generated_Source\PSoC6\pdl\drivers\peripheral\sar/cy_sar.h ****     CY_SAR_RANGE_LOW_SHIFT      = SAR_RANGE_THRES_RANGE_LOW_Pos,        /**< Shift for setting lowe
1024:Generated_Source\PSoC6\pdl\drivers\peripheral\sar/cy_sar.h ****     CY_SAR_RANGE_HIGH_SHIFT     = SAR_RANGE_THRES_RANGE_HIGH_Pos,       /**< Shift for setting uppe
1025:Generated_Source\PSoC6\pdl\drivers\peripheral\sar/cy_sar.h **** }cy_en_sar_range_thres_shift_t;
1026:Generated_Source\PSoC6\pdl\drivers\peripheral\sar/cy_sar.h **** 
1027:Generated_Source\PSoC6\pdl\drivers\peripheral\sar/cy_sar.h **** /** Configure the condition (below, inside, above, or outside) of the range detection interrupt */
1028:Generated_Source\PSoC6\pdl\drivers\peripheral\sar/cy_sar.h **** typedef enum
1029:Generated_Source\PSoC6\pdl\drivers\peripheral\sar/cy_sar.h **** {
1030:Generated_Source\PSoC6\pdl\drivers\peripheral\sar/cy_sar.h ****     CY_SAR_RANGE_COND_BELOW     = 0uL,  /**< Range interrupt detected when result < RANGE_LOW */
1031:Generated_Source\PSoC6\pdl\drivers\peripheral\sar/cy_sar.h ****     CY_SAR_RANGE_COND_INSIDE    = 1uL,  /**< Range interrupt detected when RANGE_LOW <= result < RA
1032:Generated_Source\PSoC6\pdl\drivers\peripheral\sar/cy_sar.h ****     CY_SAR_RANGE_COND_ABOVE     = 2uL,  /**< Range interrupt detected when RANGE_HIGH <= result */
1033:Generated_Source\PSoC6\pdl\drivers\peripheral\sar/cy_sar.h ****     CY_SAR_RANGE_COND_OUTSIDE   = 3uL,  /**< Range interrupt detected when result < RANGE_LOW || RA
1034:Generated_Source\PSoC6\pdl\drivers\peripheral\sar/cy_sar.h **** }cy_en_sar_range_detect_condition_t;
1035:Generated_Source\PSoC6\pdl\drivers\peripheral\sar/cy_sar.h **** /* \} */
1036:Generated_Source\PSoC6\pdl\drivers\peripheral\sar/cy_sar.h **** 
1037:Generated_Source\PSoC6\pdl\drivers\peripheral\sar/cy_sar.h **** /** \addtogroup group_sar_chan_config_register_enums
1038:Generated_Source\PSoC6\pdl\drivers\peripheral\sar/cy_sar.h **** * This set of enumerations aids in configuring the SAR CHAN_CONFIG register
1039:Generated_Source\PSoC6\pdl\drivers\peripheral\sar/cy_sar.h **** * \{
ARM GAS  C:\Users\gjl\AppData\Local\Temp\ccG9SHX7.s 			page 47


1040:Generated_Source\PSoC6\pdl\drivers\peripheral\sar/cy_sar.h **** */
1041:Generated_Source\PSoC6\pdl\drivers\peripheral\sar/cy_sar.h **** /** Configure the input mode of the channel
1042:Generated_Source\PSoC6\pdl\drivers\peripheral\sar/cy_sar.h **** *
1043:Generated_Source\PSoC6\pdl\drivers\peripheral\sar/cy_sar.h **** * - Single ended channel: the \ref cy_en_sar_ctrl_neg_sel_t selection in the \ref group_sar_init_st
1044:Generated_Source\PSoC6\pdl\drivers\peripheral\sar/cy_sar.h **** *   determines what drives the Vminus pin
1045:Generated_Source\PSoC6\pdl\drivers\peripheral\sar/cy_sar.h **** * - Differential paired: Vplus and Vminus are a pair. Bit 0 of \ref cy_en_sar_chan_config_pos_pin_a
1046:Generated_Source\PSoC6\pdl\drivers\peripheral\sar/cy_sar.h **** *   is ignored and considered to be 0.
1047:Generated_Source\PSoC6\pdl\drivers\peripheral\sar/cy_sar.h **** *   In other words, \ref cy_en_sar_chan_config_pos_pin_addr_t "POS_PIN_ADDR" points to the even pin
1048:Generated_Source\PSoC6\pdl\drivers\peripheral\sar/cy_sar.h **** *   The even pin is connected to Vplus and the odd pin is connected to Vminus.
1049:Generated_Source\PSoC6\pdl\drivers\peripheral\sar/cy_sar.h **** *   \ref cy_en_sar_chan_config_pos_port_addr_t "POS_PORT_ADDR" is used to identify the port that co
1050:Generated_Source\PSoC6\pdl\drivers\peripheral\sar/cy_sar.h **** * - Differential unpaired: The \ref cy_en_sar_chan_config_neg_pin_addr_t "NEG_PIN_ADDR" and
1051:Generated_Source\PSoC6\pdl\drivers\peripheral\sar/cy_sar.h **** *   \ref cy_en_sar_chan_config_neg_port_addr_t "NEG_PORT_ADDR" determine what drives the Vminus pin
1052:Generated_Source\PSoC6\pdl\drivers\peripheral\sar/cy_sar.h **** *   This is a variation of differential mode with no even-odd pair limitation
1053:Generated_Source\PSoC6\pdl\drivers\peripheral\sar/cy_sar.h **** */
1054:Generated_Source\PSoC6\pdl\drivers\peripheral\sar/cy_sar.h **** typedef enum
1055:Generated_Source\PSoC6\pdl\drivers\peripheral\sar/cy_sar.h **** {
1056:Generated_Source\PSoC6\pdl\drivers\peripheral\sar/cy_sar.h ****     CY_SAR_CHAN_SINGLE_ENDED            = 0uL,                                     /**< Single ende
1057:Generated_Source\PSoC6\pdl\drivers\peripheral\sar/cy_sar.h ****     CY_SAR_CHAN_DIFFERENTIAL_PAIRED     = SAR_CHAN_CONFIG_DIFFERENTIAL_EN_Msk,     /**< Differentia
1058:Generated_Source\PSoC6\pdl\drivers\peripheral\sar/cy_sar.h ****     CY_SAR_CHAN_DIFFERENTIAL_UNPAIRED   = SAR_CHAN_CONFIG_NEG_ADDR_EN_Msk          /**< Differentia
1059:Generated_Source\PSoC6\pdl\drivers\peripheral\sar/cy_sar.h **** }cy_en_sar_chan_config_input_mode_t;
1060:Generated_Source\PSoC6\pdl\drivers\peripheral\sar/cy_sar.h **** 
1061:Generated_Source\PSoC6\pdl\drivers\peripheral\sar/cy_sar.h **** /** Configure address of the pin connected to the Vplus terminal of the SARADC. */
1062:Generated_Source\PSoC6\pdl\drivers\peripheral\sar/cy_sar.h **** typedef enum
1063:Generated_Source\PSoC6\pdl\drivers\peripheral\sar/cy_sar.h **** {
1064:Generated_Source\PSoC6\pdl\drivers\peripheral\sar/cy_sar.h ****     CY_SAR_CHAN_POS_PIN_ADDR_0     = 0uL,                                            /**< Pin 0 on 
1065:Generated_Source\PSoC6\pdl\drivers\peripheral\sar/cy_sar.h ****     CY_SAR_CHAN_POS_PIN_ADDR_1     = 1uL << SAR_CHAN_CONFIG_POS_PIN_ADDR_Pos,        /**< Pin 1 on 
1066:Generated_Source\PSoC6\pdl\drivers\peripheral\sar/cy_sar.h ****     CY_SAR_CHAN_POS_PIN_ADDR_2     = 2uL << SAR_CHAN_CONFIG_POS_PIN_ADDR_Pos,        /**< Pin 2 on 
1067:Generated_Source\PSoC6\pdl\drivers\peripheral\sar/cy_sar.h ****     CY_SAR_CHAN_POS_PIN_ADDR_3     = 3uL << SAR_CHAN_CONFIG_POS_PIN_ADDR_Pos,        /**< Pin 3 on 
1068:Generated_Source\PSoC6\pdl\drivers\peripheral\sar/cy_sar.h ****     CY_SAR_CHAN_POS_PIN_ADDR_4     = 4uL << SAR_CHAN_CONFIG_POS_PIN_ADDR_Pos,        /**< Pin 4 on 
1069:Generated_Source\PSoC6\pdl\drivers\peripheral\sar/cy_sar.h ****     CY_SAR_CHAN_POS_PIN_ADDR_5     = 5uL << SAR_CHAN_CONFIG_POS_PIN_ADDR_Pos,        /**< Pin 5 on 
1070:Generated_Source\PSoC6\pdl\drivers\peripheral\sar/cy_sar.h ****     CY_SAR_CHAN_POS_PIN_ADDR_6     = 6uL << SAR_CHAN_CONFIG_POS_PIN_ADDR_Pos,        /**< Pin 6 on 
1071:Generated_Source\PSoC6\pdl\drivers\peripheral\sar/cy_sar.h ****     CY_SAR_CHAN_POS_PIN_ADDR_7     = 7uL << SAR_CHAN_CONFIG_POS_PIN_ADDR_Pos,        /**< Pin 7 on 
1072:Generated_Source\PSoC6\pdl\drivers\peripheral\sar/cy_sar.h **** }cy_en_sar_chan_config_pos_pin_addr_t;
1073:Generated_Source\PSoC6\pdl\drivers\peripheral\sar/cy_sar.h **** 
1074:Generated_Source\PSoC6\pdl\drivers\peripheral\sar/cy_sar.h **** /** Configure address of the port that contains the pin connected to the Vplus terminal of the SARA
1075:Generated_Source\PSoC6\pdl\drivers\peripheral\sar/cy_sar.h **** *
1076:Generated_Source\PSoC6\pdl\drivers\peripheral\sar/cy_sar.h **** * - \ref CY_SAR_POS_PORT_ADDR_SARMUX is for the dedicated SARMUX port (8 pins)
1077:Generated_Source\PSoC6\pdl\drivers\peripheral\sar/cy_sar.h **** * - Port 1 through 4 are respectively the pins of CTB0, CTB1, CTB2, and CTB3 (if present)
1078:Generated_Source\PSoC6\pdl\drivers\peripheral\sar/cy_sar.h **** * - Port 7, 5, and 6 (VPORT0/1/2) are the groups of internal signals that can be selected
1079:Generated_Source\PSoC6\pdl\drivers\peripheral\sar/cy_sar.h **** *   in the SARMUX or AROUTE (if present).
1080:Generated_Source\PSoC6\pdl\drivers\peripheral\sar/cy_sar.h **** *
1081:Generated_Source\PSoC6\pdl\drivers\peripheral\sar/cy_sar.h **** * See the \ref group_sar_sarmux section for more guidance.
1082:Generated_Source\PSoC6\pdl\drivers\peripheral\sar/cy_sar.h **** */
1083:Generated_Source\PSoC6\pdl\drivers\peripheral\sar/cy_sar.h **** typedef enum
1084:Generated_Source\PSoC6\pdl\drivers\peripheral\sar/cy_sar.h **** {
1085:Generated_Source\PSoC6\pdl\drivers\peripheral\sar/cy_sar.h ****     CY_SAR_POS_PORT_ADDR_SARMUX         = 0uL,                                       /**< Dedicated
1086:Generated_Source\PSoC6\pdl\drivers\peripheral\sar/cy_sar.h ****     CY_SAR_POS_PORT_ADDR_CTB0           = 1uL << SAR_CHAN_CONFIG_POS_PORT_ADDR_Pos,  /**< Outputs f
1087:Generated_Source\PSoC6\pdl\drivers\peripheral\sar/cy_sar.h ****     CY_SAR_POS_PORT_ADDR_CTB1           = 2uL << SAR_CHAN_CONFIG_POS_PORT_ADDR_Pos,  /**< Outputs f
1088:Generated_Source\PSoC6\pdl\drivers\peripheral\sar/cy_sar.h ****     CY_SAR_POS_PORT_ADDR_CTB2           = 3uL << SAR_CHAN_CONFIG_POS_PORT_ADDR_Pos,  /**< Outputs f
1089:Generated_Source\PSoC6\pdl\drivers\peripheral\sar/cy_sar.h ****     CY_SAR_POS_PORT_ADDR_CTB3           = 4uL << SAR_CHAN_CONFIG_POS_PORT_ADDR_Pos,  /**< Outputs f
1090:Generated_Source\PSoC6\pdl\drivers\peripheral\sar/cy_sar.h ****     CY_SAR_POS_PORT_ADDR_AROUTE_VIRT2   = 5uL << SAR_CHAN_CONFIG_POS_PORT_ADDR_Pos,  /**< AROUTE vi
1091:Generated_Source\PSoC6\pdl\drivers\peripheral\sar/cy_sar.h ****     CY_SAR_POS_PORT_ADDR_AROUTE_VIRT1   = 6uL << SAR_CHAN_CONFIG_POS_PORT_ADDR_Pos,  /**< AROUTE vi
1092:Generated_Source\PSoC6\pdl\drivers\peripheral\sar/cy_sar.h ****     CY_SAR_POS_PORT_ADDR_SARMUX_VIRT    = 7uL << SAR_CHAN_CONFIG_POS_PORT_ADDR_Pos,  /**< SARMUX vi
1093:Generated_Source\PSoC6\pdl\drivers\peripheral\sar/cy_sar.h **** }cy_en_sar_chan_config_pos_port_addr_t;
1094:Generated_Source\PSoC6\pdl\drivers\peripheral\sar/cy_sar.h **** 
1095:Generated_Source\PSoC6\pdl\drivers\peripheral\sar/cy_sar.h **** /** Enable or disable averaging for the channel */
1096:Generated_Source\PSoC6\pdl\drivers\peripheral\sar/cy_sar.h **** typedef enum
ARM GAS  C:\Users\gjl\AppData\Local\Temp\ccG9SHX7.s 			page 48


1097:Generated_Source\PSoC6\pdl\drivers\peripheral\sar/cy_sar.h **** {
1098:Generated_Source\PSoC6\pdl\drivers\peripheral\sar/cy_sar.h ****     CY_SAR_CHAN_AVG_DISABLE      = 0uL,                                 /**< Disable averaging for 
1099:Generated_Source\PSoC6\pdl\drivers\peripheral\sar/cy_sar.h ****     CY_SAR_CHAN_AVG_ENABLE       = 1uL << SAR_CHAN_CONFIG_AVG_EN_Pos    /**< Enable averaging for t
1100:Generated_Source\PSoC6\pdl\drivers\peripheral\sar/cy_sar.h **** }cy_en_sar_chan_config_avg_en_t;
1101:Generated_Source\PSoC6\pdl\drivers\peripheral\sar/cy_sar.h **** 
1102:Generated_Source\PSoC6\pdl\drivers\peripheral\sar/cy_sar.h **** /** Select which sample time to use for the channel.
1103:Generated_Source\PSoC6\pdl\drivers\peripheral\sar/cy_sar.h **** * There are four global samples times available set by \ref group_sar_init_struct_sampleTime01 and
1104:Generated_Source\PSoC6\pdl\drivers\peripheral\sar/cy_sar.h **** * \ref group_sar_init_struct_sampleTime23.
1105:Generated_Source\PSoC6\pdl\drivers\peripheral\sar/cy_sar.h **** */
1106:Generated_Source\PSoC6\pdl\drivers\peripheral\sar/cy_sar.h **** typedef enum
1107:Generated_Source\PSoC6\pdl\drivers\peripheral\sar/cy_sar.h **** {
1108:Generated_Source\PSoC6\pdl\drivers\peripheral\sar/cy_sar.h ****     CY_SAR_CHAN_SAMPLE_TIME_0     = 0uL,                                          /**< Use sample t
1109:Generated_Source\PSoC6\pdl\drivers\peripheral\sar/cy_sar.h ****     CY_SAR_CHAN_SAMPLE_TIME_1     = 1uL << SAR_CHAN_CONFIG_SAMPLE_TIME_SEL_Pos,   /**< Use sample t
1110:Generated_Source\PSoC6\pdl\drivers\peripheral\sar/cy_sar.h ****     CY_SAR_CHAN_SAMPLE_TIME_2     = 2uL << SAR_CHAN_CONFIG_SAMPLE_TIME_SEL_Pos,   /**< Use sample t
1111:Generated_Source\PSoC6\pdl\drivers\peripheral\sar/cy_sar.h ****     CY_SAR_CHAN_SAMPLE_TIME_3     = 3uL << SAR_CHAN_CONFIG_SAMPLE_TIME_SEL_Pos,   /**< Use sample t
1112:Generated_Source\PSoC6\pdl\drivers\peripheral\sar/cy_sar.h **** }cy_en_sar_chan_config_sample_time_t;
1113:Generated_Source\PSoC6\pdl\drivers\peripheral\sar/cy_sar.h **** 
1114:Generated_Source\PSoC6\pdl\drivers\peripheral\sar/cy_sar.h **** /** Configure address of the pin connected to the Vminus terminal of the SARADC. */
1115:Generated_Source\PSoC6\pdl\drivers\peripheral\sar/cy_sar.h **** typedef enum
1116:Generated_Source\PSoC6\pdl\drivers\peripheral\sar/cy_sar.h **** {
1117:Generated_Source\PSoC6\pdl\drivers\peripheral\sar/cy_sar.h ****     CY_SAR_CHAN_NEG_PIN_ADDR_0     = 0uL,                                            /**< Pin 0 on 
1118:Generated_Source\PSoC6\pdl\drivers\peripheral\sar/cy_sar.h ****     CY_SAR_CHAN_NEG_PIN_ADDR_1     = 1uL << SAR_CHAN_CONFIG_NEG_PIN_ADDR_Pos,        /**< Pin 1 on 
1119:Generated_Source\PSoC6\pdl\drivers\peripheral\sar/cy_sar.h ****     CY_SAR_CHAN_NEG_PIN_ADDR_2     = 2uL << SAR_CHAN_CONFIG_NEG_PIN_ADDR_Pos,        /**< Pin 2 on 
1120:Generated_Source\PSoC6\pdl\drivers\peripheral\sar/cy_sar.h ****     CY_SAR_CHAN_NEG_PIN_ADDR_3     = 3uL << SAR_CHAN_CONFIG_NEG_PIN_ADDR_Pos,        /**< Pin 3 on 
1121:Generated_Source\PSoC6\pdl\drivers\peripheral\sar/cy_sar.h ****     CY_SAR_CHAN_NEG_PIN_ADDR_4     = 4uL << SAR_CHAN_CONFIG_NEG_PIN_ADDR_Pos,        /**< Pin 4 on 
1122:Generated_Source\PSoC6\pdl\drivers\peripheral\sar/cy_sar.h ****     CY_SAR_CHAN_NEG_PIN_ADDR_5     = 5uL << SAR_CHAN_CONFIG_NEG_PIN_ADDR_Pos,        /**< Pin 5 on 
1123:Generated_Source\PSoC6\pdl\drivers\peripheral\sar/cy_sar.h ****     CY_SAR_CHAN_NEG_PIN_ADDR_6     = 6uL << SAR_CHAN_CONFIG_NEG_PIN_ADDR_Pos,        /**< Pin 6 on 
1124:Generated_Source\PSoC6\pdl\drivers\peripheral\sar/cy_sar.h ****     CY_SAR_CHAN_NEG_PIN_ADDR_7     = 7uL << SAR_CHAN_CONFIG_NEG_PIN_ADDR_Pos,        /**< Pin 7 on 
1125:Generated_Source\PSoC6\pdl\drivers\peripheral\sar/cy_sar.h **** }cy_en_sar_chan_config_neg_pin_addr_t;
1126:Generated_Source\PSoC6\pdl\drivers\peripheral\sar/cy_sar.h **** 
1127:Generated_Source\PSoC6\pdl\drivers\peripheral\sar/cy_sar.h **** /** Configure address of the port that contains the pin connected to the Vminus terminal of the SAR
1128:Generated_Source\PSoC6\pdl\drivers\peripheral\sar/cy_sar.h **** *
1129:Generated_Source\PSoC6\pdl\drivers\peripheral\sar/cy_sar.h **** * - Port 0 is 8 pins of the SARMUX
1130:Generated_Source\PSoC6\pdl\drivers\peripheral\sar/cy_sar.h **** * - Port 7, 5, and 6 (VPORT0/1/2) are the groups of internal signals that can be selected
1131:Generated_Source\PSoC6\pdl\drivers\peripheral\sar/cy_sar.h **** *   in the SARMUX or AROUTE (if present).
1132:Generated_Source\PSoC6\pdl\drivers\peripheral\sar/cy_sar.h **** */
1133:Generated_Source\PSoC6\pdl\drivers\peripheral\sar/cy_sar.h **** typedef enum
1134:Generated_Source\PSoC6\pdl\drivers\peripheral\sar/cy_sar.h **** {
1135:Generated_Source\PSoC6\pdl\drivers\peripheral\sar/cy_sar.h ****     CY_SAR_NEG_PORT_ADDR_SARMUX         = 0uL,                                       /**< Dedicated
1136:Generated_Source\PSoC6\pdl\drivers\peripheral\sar/cy_sar.h ****     CY_SAR_NEG_PORT_ADDR_AROUTE_VIRT2   = 5uL << SAR_CHAN_CONFIG_POS_PORT_ADDR_Pos,  /**< AROUTE vi
1137:Generated_Source\PSoC6\pdl\drivers\peripheral\sar/cy_sar.h ****     CY_SAR_NEG_PORT_ADDR_AROUTE_VIRT1   = 6uL << SAR_CHAN_CONFIG_POS_PORT_ADDR_Pos,  /**< AROUTE vi
1138:Generated_Source\PSoC6\pdl\drivers\peripheral\sar/cy_sar.h ****     CY_SAR_NEG_PORT_ADDR_SARMUX_VIRT    = 7uL << SAR_CHAN_CONFIG_POS_PORT_ADDR_Pos,  /**< SARMUX vi
1139:Generated_Source\PSoC6\pdl\drivers\peripheral\sar/cy_sar.h **** }cy_en_sar_chan_config_neg_port_addr_t;
1140:Generated_Source\PSoC6\pdl\drivers\peripheral\sar/cy_sar.h **** 
1141:Generated_Source\PSoC6\pdl\drivers\peripheral\sar/cy_sar.h **** /* \} */
1142:Generated_Source\PSoC6\pdl\drivers\peripheral\sar/cy_sar.h **** 
1143:Generated_Source\PSoC6\pdl\drivers\peripheral\sar/cy_sar.h **** /** \addtogroup group_sar_intr_mask_t_register_enums
1144:Generated_Source\PSoC6\pdl\drivers\peripheral\sar/cy_sar.h **** * This set of enumerations aids in configuring the SAR INTR_MASK register
1145:Generated_Source\PSoC6\pdl\drivers\peripheral\sar/cy_sar.h **** * \{
1146:Generated_Source\PSoC6\pdl\drivers\peripheral\sar/cy_sar.h **** */
1147:Generated_Source\PSoC6\pdl\drivers\peripheral\sar/cy_sar.h **** /** Configure which signal will cause an interrupt event.
1148:Generated_Source\PSoC6\pdl\drivers\peripheral\sar/cy_sar.h **** *
1149:Generated_Source\PSoC6\pdl\drivers\peripheral\sar/cy_sar.h **** * - End of scan (EOS): occurs after completing a scan of all enabled channels
1150:Generated_Source\PSoC6\pdl\drivers\peripheral\sar/cy_sar.h **** * - Overflow: occurs when hardware sets a new EOS interrupt while the previous interrupt
1151:Generated_Source\PSoC6\pdl\drivers\peripheral\sar/cy_sar.h **** *   has not be cleared by the firmware
1152:Generated_Source\PSoC6\pdl\drivers\peripheral\sar/cy_sar.h **** * - Firmware collision: occurs when firmware attempts to start one-shot
1153:Generated_Source\PSoC6\pdl\drivers\peripheral\sar/cy_sar.h **** *   conversion while the SAR is busy.
ARM GAS  C:\Users\gjl\AppData\Local\Temp\ccG9SHX7.s 			page 49


1154:Generated_Source\PSoC6\pdl\drivers\peripheral\sar/cy_sar.h **** *
1155:Generated_Source\PSoC6\pdl\drivers\peripheral\sar/cy_sar.h **** * Enable all, one, or none of the interrupt events.
1156:Generated_Source\PSoC6\pdl\drivers\peripheral\sar/cy_sar.h **** */
1157:Generated_Source\PSoC6\pdl\drivers\peripheral\sar/cy_sar.h **** typedef enum
1158:Generated_Source\PSoC6\pdl\drivers\peripheral\sar/cy_sar.h **** {
1159:Generated_Source\PSoC6\pdl\drivers\peripheral\sar/cy_sar.h ****     CY_SAR_INTR_MASK_NONE           = 0uL,                                  /**< Disable all interr
1160:Generated_Source\PSoC6\pdl\drivers\peripheral\sar/cy_sar.h ****     CY_SAR_INTR_EOS_MASK            = SAR_INTR_MASK_EOS_MASK_Msk,           /**< Enable end of scan
1161:Generated_Source\PSoC6\pdl\drivers\peripheral\sar/cy_sar.h ****     CY_SAR_INTR_OVERFLOW_MASK       = SAR_INTR_MASK_OVERFLOW_MASK_Msk,      /**< Enable overflow in
1162:Generated_Source\PSoC6\pdl\drivers\peripheral\sar/cy_sar.h ****     CY_SAR_INTR_FW_COLLISION_MASK   = SAR_INTR_MASK_FW_COLLISION_MASK_Msk,  /**< Enable firmware co
1163:Generated_Source\PSoC6\pdl\drivers\peripheral\sar/cy_sar.h **** }cy_en_sar_intr_mask_t;
1164:Generated_Source\PSoC6\pdl\drivers\peripheral\sar/cy_sar.h **** 
1165:Generated_Source\PSoC6\pdl\drivers\peripheral\sar/cy_sar.h **** /* \} */
1166:Generated_Source\PSoC6\pdl\drivers\peripheral\sar/cy_sar.h **** 
1167:Generated_Source\PSoC6\pdl\drivers\peripheral\sar/cy_sar.h **** /** \addtogroup group_sar_mux_switch_register_enums
1168:Generated_Source\PSoC6\pdl\drivers\peripheral\sar/cy_sar.h **** * This set of enumerations aids in configuring the \ref group_sar_init_struct_muxSwitch and \ref gr
1169:Generated_Source\PSoC6\pdl\drivers\peripheral\sar/cy_sar.h **** * \{
1170:Generated_Source\PSoC6\pdl\drivers\peripheral\sar/cy_sar.h **** */
1171:Generated_Source\PSoC6\pdl\drivers\peripheral\sar/cy_sar.h **** 
1172:Generated_Source\PSoC6\pdl\drivers\peripheral\sar/cy_sar.h **** /** Firmware control for the SARMUX switches to connect analog signals to the SAR ADC
1173:Generated_Source\PSoC6\pdl\drivers\peripheral\sar/cy_sar.h **** *
1174:Generated_Source\PSoC6\pdl\drivers\peripheral\sar/cy_sar.h **** * To close multiple switches, "OR" the enum values together.
1175:Generated_Source\PSoC6\pdl\drivers\peripheral\sar/cy_sar.h **** *
1176:Generated_Source\PSoC6\pdl\drivers\peripheral\sar/cy_sar.h **** * See the \ref group_sar_sarmux section for more guidance.
1177:Generated_Source\PSoC6\pdl\drivers\peripheral\sar/cy_sar.h **** */
1178:Generated_Source\PSoC6\pdl\drivers\peripheral\sar/cy_sar.h **** typedef enum
1179:Generated_Source\PSoC6\pdl\drivers\peripheral\sar/cy_sar.h **** {
1180:Generated_Source\PSoC6\pdl\drivers\peripheral\sar/cy_sar.h ****     /* SARMUX pins to Vplus */
1181:Generated_Source\PSoC6\pdl\drivers\peripheral\sar/cy_sar.h ****     CY_SAR_MUX_FW_P0_VPLUS         = SAR_MUX_SWITCH0_MUX_FW_P0_VPLUS_Msk,    /**< Switch between Pi
1182:Generated_Source\PSoC6\pdl\drivers\peripheral\sar/cy_sar.h ****     CY_SAR_MUX_FW_P1_VPLUS         = SAR_MUX_SWITCH0_MUX_FW_P1_VPLUS_Msk,    /**< Switch between Pi
1183:Generated_Source\PSoC6\pdl\drivers\peripheral\sar/cy_sar.h ****     CY_SAR_MUX_FW_P2_VPLUS         = SAR_MUX_SWITCH0_MUX_FW_P2_VPLUS_Msk,    /**< Switch between Pi
1184:Generated_Source\PSoC6\pdl\drivers\peripheral\sar/cy_sar.h ****     CY_SAR_MUX_FW_P3_VPLUS         = SAR_MUX_SWITCH0_MUX_FW_P3_VPLUS_Msk,    /**< Switch between Pi
1185:Generated_Source\PSoC6\pdl\drivers\peripheral\sar/cy_sar.h ****     CY_SAR_MUX_FW_P4_VPLUS         = SAR_MUX_SWITCH0_MUX_FW_P4_VPLUS_Msk,    /**< Switch between Pi
1186:Generated_Source\PSoC6\pdl\drivers\peripheral\sar/cy_sar.h ****     CY_SAR_MUX_FW_P5_VPLUS         = SAR_MUX_SWITCH0_MUX_FW_P5_VPLUS_Msk,    /**< Switch between Pi
1187:Generated_Source\PSoC6\pdl\drivers\peripheral\sar/cy_sar.h ****     CY_SAR_MUX_FW_P6_VPLUS         = SAR_MUX_SWITCH0_MUX_FW_P6_VPLUS_Msk,    /**< Switch between Pi
1188:Generated_Source\PSoC6\pdl\drivers\peripheral\sar/cy_sar.h ****     CY_SAR_MUX_FW_P7_VPLUS         = SAR_MUX_SWITCH0_MUX_FW_P7_VPLUS_Msk,    /**< Switch between Pi
1189:Generated_Source\PSoC6\pdl\drivers\peripheral\sar/cy_sar.h **** 
1190:Generated_Source\PSoC6\pdl\drivers\peripheral\sar/cy_sar.h ****     /* SARMUX pins to Vminus */
1191:Generated_Source\PSoC6\pdl\drivers\peripheral\sar/cy_sar.h ****     CY_SAR_MUX_FW_P0_VMINUS        = SAR_MUX_SWITCH0_MUX_FW_P0_VMINUS_Msk,   /**< Switch between Pi
1192:Generated_Source\PSoC6\pdl\drivers\peripheral\sar/cy_sar.h ****     CY_SAR_MUX_FW_P1_VMINUS        = SAR_MUX_SWITCH0_MUX_FW_P1_VMINUS_Msk,   /**< Switch between Pi
1193:Generated_Source\PSoC6\pdl\drivers\peripheral\sar/cy_sar.h ****     CY_SAR_MUX_FW_P2_VMINUS        = SAR_MUX_SWITCH0_MUX_FW_P2_VMINUS_Msk,   /**< Switch between Pi
1194:Generated_Source\PSoC6\pdl\drivers\peripheral\sar/cy_sar.h ****     CY_SAR_MUX_FW_P3_VMINUS        = SAR_MUX_SWITCH0_MUX_FW_P3_VMINUS_Msk,   /**< Switch between Pi
1195:Generated_Source\PSoC6\pdl\drivers\peripheral\sar/cy_sar.h ****     CY_SAR_MUX_FW_P4_VMINUS        = SAR_MUX_SWITCH0_MUX_FW_P4_VMINUS_Msk,   /**< Switch between Pi
1196:Generated_Source\PSoC6\pdl\drivers\peripheral\sar/cy_sar.h ****     CY_SAR_MUX_FW_P5_VMINUS        = SAR_MUX_SWITCH0_MUX_FW_P5_VMINUS_Msk,   /**< Switch between Pi
1197:Generated_Source\PSoC6\pdl\drivers\peripheral\sar/cy_sar.h ****     CY_SAR_MUX_FW_P6_VMINUS        = SAR_MUX_SWITCH0_MUX_FW_P6_VMINUS_Msk,   /**< Switch between Pi
1198:Generated_Source\PSoC6\pdl\drivers\peripheral\sar/cy_sar.h ****     CY_SAR_MUX_FW_P7_VMINUS        = SAR_MUX_SWITCH0_MUX_FW_P7_VMINUS_Msk,   /**< Switch between Pi
1199:Generated_Source\PSoC6\pdl\drivers\peripheral\sar/cy_sar.h **** 
1200:Generated_Source\PSoC6\pdl\drivers\peripheral\sar/cy_sar.h ****     /* Vssa to Vminus and temperature sensor to Vplus */
1201:Generated_Source\PSoC6\pdl\drivers\peripheral\sar/cy_sar.h ****     CY_SAR_MUX_FW_VSSA_VMINUS      = SAR_MUX_SWITCH0_MUX_FW_VSSA_VMINUS_Msk,    /**< Switch between
1202:Generated_Source\PSoC6\pdl\drivers\peripheral\sar/cy_sar.h ****     CY_SAR_MUX_FW_TEMP_VPLUS       = SAR_MUX_SWITCH0_MUX_FW_TEMP_VPLUS_Msk,     /**< Switch between
1203:Generated_Source\PSoC6\pdl\drivers\peripheral\sar/cy_sar.h **** 
1204:Generated_Source\PSoC6\pdl\drivers\peripheral\sar/cy_sar.h ****     /* Amuxbus A and B to Vplus and Vminus */
1205:Generated_Source\PSoC6\pdl\drivers\peripheral\sar/cy_sar.h ****     CY_SAR_MUX_FW_AMUXBUSA_VPLUS   = SAR_MUX_SWITCH0_MUX_FW_AMUXBUSA_VPLUS_Msk,     /**< Switch bet
1206:Generated_Source\PSoC6\pdl\drivers\peripheral\sar/cy_sar.h ****     CY_SAR_MUX_FW_AMUXBUSB_VPLUS   = SAR_MUX_SWITCH0_MUX_FW_AMUXBUSB_VPLUS_Msk,     /**< Switch bet
1207:Generated_Source\PSoC6\pdl\drivers\peripheral\sar/cy_sar.h ****     CY_SAR_MUX_FW_AMUXBUSA_VMINUS  = SAR_MUX_SWITCH0_MUX_FW_AMUXBUSA_VMINUS_Msk,    /**< Switch bet
1208:Generated_Source\PSoC6\pdl\drivers\peripheral\sar/cy_sar.h ****     CY_SAR_MUX_FW_AMUXBUSB_VMINUS  = SAR_MUX_SWITCH0_MUX_FW_AMUXBUSB_VMINUS_Msk,    /**< Switch bet
1209:Generated_Source\PSoC6\pdl\drivers\peripheral\sar/cy_sar.h **** 
1210:Generated_Source\PSoC6\pdl\drivers\peripheral\sar/cy_sar.h ****     /* Sarbus 0 and 1 to Vplus and Vminus */
ARM GAS  C:\Users\gjl\AppData\Local\Temp\ccG9SHX7.s 			page 50


1211:Generated_Source\PSoC6\pdl\drivers\peripheral\sar/cy_sar.h ****     CY_SAR_MUX_FW_SARBUS0_VPLUS    = SAR_MUX_SWITCH0_MUX_FW_SARBUS0_VPLUS_Msk,      /**< Switch bet
1212:Generated_Source\PSoC6\pdl\drivers\peripheral\sar/cy_sar.h ****     CY_SAR_MUX_FW_SARBUS1_VPLUS    = SAR_MUX_SWITCH0_MUX_FW_SARBUS1_VPLUS_Msk,      /**< Switch bet
1213:Generated_Source\PSoC6\pdl\drivers\peripheral\sar/cy_sar.h ****     CY_SAR_MUX_FW_SARBUS0_VMINUS   = SAR_MUX_SWITCH0_MUX_FW_SARBUS0_VMINUS_Msk,     /**< Switch bet
1214:Generated_Source\PSoC6\pdl\drivers\peripheral\sar/cy_sar.h ****     CY_SAR_MUX_FW_SARBUS1_VMINUS   = SAR_MUX_SWITCH0_MUX_FW_SARBUS1_VMINUS_Msk,     /**< Switch bet
1215:Generated_Source\PSoC6\pdl\drivers\peripheral\sar/cy_sar.h **** 
1216:Generated_Source\PSoC6\pdl\drivers\peripheral\sar/cy_sar.h ****     /* SARMUX pins to Core IO */
1217:Generated_Source\PSoC6\pdl\drivers\peripheral\sar/cy_sar.h ****     CY_SAR_MUX_FW_P4_COREIO0       = SAR_MUX_SWITCH0_MUX_FW_P4_COREIO0_Msk,      /**< Switch betwee
1218:Generated_Source\PSoC6\pdl\drivers\peripheral\sar/cy_sar.h ****     CY_SAR_MUX_FW_P5_COREIO1       = SAR_MUX_SWITCH0_MUX_FW_P5_COREIO1_Msk,      /**< Switch betwee
1219:Generated_Source\PSoC6\pdl\drivers\peripheral\sar/cy_sar.h ****     CY_SAR_MUX_FW_P6_COREIO2       = SAR_MUX_SWITCH0_MUX_FW_P6_COREIO2_Msk,      /**< Switch betwee
1220:Generated_Source\PSoC6\pdl\drivers\peripheral\sar/cy_sar.h ****     CY_SAR_MUX_FW_P7_COREIO3       = SAR_MUX_SWITCH0_MUX_FW_P7_COREIO3_Msk,      /**< Switch betwee
1221:Generated_Source\PSoC6\pdl\drivers\peripheral\sar/cy_sar.h **** }cy_en_sar_mux_switch_fw_ctrl_t;
1222:Generated_Source\PSoC6\pdl\drivers\peripheral\sar/cy_sar.h **** 
1223:Generated_Source\PSoC6\pdl\drivers\peripheral\sar/cy_sar.h **** /** Mask definitions of SARMUX switches that can be controlled by the SARSEQ.
1224:Generated_Source\PSoC6\pdl\drivers\peripheral\sar/cy_sar.h **** *
1225:Generated_Source\PSoC6\pdl\drivers\peripheral\sar/cy_sar.h **** * To enable sequencer control of multiple switches, "OR" the enum values together.
1226:Generated_Source\PSoC6\pdl\drivers\peripheral\sar/cy_sar.h **** *
1227:Generated_Source\PSoC6\pdl\drivers\peripheral\sar/cy_sar.h **** * See the \ref group_sar_sarmux section for more guidance.
1228:Generated_Source\PSoC6\pdl\drivers\peripheral\sar/cy_sar.h **** */
1229:Generated_Source\PSoC6\pdl\drivers\peripheral\sar/cy_sar.h **** typedef enum
1230:Generated_Source\PSoC6\pdl\drivers\peripheral\sar/cy_sar.h **** {
1231:Generated_Source\PSoC6\pdl\drivers\peripheral\sar/cy_sar.h ****     CY_SAR_MUX_SQ_CTRL_P0           = SAR_MUX_SWITCH_SQ_CTRL_MUX_SQ_CTRL_P0_Msk,        /**< Enable
1232:Generated_Source\PSoC6\pdl\drivers\peripheral\sar/cy_sar.h ****     CY_SAR_MUX_SQ_CTRL_P1           = SAR_MUX_SWITCH_SQ_CTRL_MUX_SQ_CTRL_P1_Msk,        /**< Enable
1233:Generated_Source\PSoC6\pdl\drivers\peripheral\sar/cy_sar.h ****     CY_SAR_MUX_SQ_CTRL_P2           = SAR_MUX_SWITCH_SQ_CTRL_MUX_SQ_CTRL_P2_Msk,        /**< Enable
1234:Generated_Source\PSoC6\pdl\drivers\peripheral\sar/cy_sar.h ****     CY_SAR_MUX_SQ_CTRL_P3           = SAR_MUX_SWITCH_SQ_CTRL_MUX_SQ_CTRL_P3_Msk,        /**< Enable
1235:Generated_Source\PSoC6\pdl\drivers\peripheral\sar/cy_sar.h ****     CY_SAR_MUX_SQ_CTRL_P4           = SAR_MUX_SWITCH_SQ_CTRL_MUX_SQ_CTRL_P4_Msk,        /**< Enable
1236:Generated_Source\PSoC6\pdl\drivers\peripheral\sar/cy_sar.h ****     CY_SAR_MUX_SQ_CTRL_P5           = SAR_MUX_SWITCH_SQ_CTRL_MUX_SQ_CTRL_P5_Msk,        /**< Enable
1237:Generated_Source\PSoC6\pdl\drivers\peripheral\sar/cy_sar.h ****     CY_SAR_MUX_SQ_CTRL_P6           = SAR_MUX_SWITCH_SQ_CTRL_MUX_SQ_CTRL_P6_Msk,        /**< Enable
1238:Generated_Source\PSoC6\pdl\drivers\peripheral\sar/cy_sar.h ****     CY_SAR_MUX_SQ_CTRL_P7           = SAR_MUX_SWITCH_SQ_CTRL_MUX_SQ_CTRL_P7_Msk,        /**< Enable
1239:Generated_Source\PSoC6\pdl\drivers\peripheral\sar/cy_sar.h ****     CY_SAR_MUX_SQ_CTRL_VSSA         = SAR_MUX_SWITCH_SQ_CTRL_MUX_SQ_CTRL_VSSA_Msk,      /**< Enable
1240:Generated_Source\PSoC6\pdl\drivers\peripheral\sar/cy_sar.h ****     CY_SAR_MUX_SQ_CTRL_TEMP         = SAR_MUX_SWITCH_SQ_CTRL_MUX_SQ_CTRL_TEMP_Msk,      /**< Enable
1241:Generated_Source\PSoC6\pdl\drivers\peripheral\sar/cy_sar.h ****     CY_SAR_MUX_SQ_CTRL_AMUXBUSA     = SAR_MUX_SWITCH_SQ_CTRL_MUX_SQ_CTRL_AMUXBUSA_Msk,  /**< Enable
1242:Generated_Source\PSoC6\pdl\drivers\peripheral\sar/cy_sar.h ****     CY_SAR_MUX_SQ_CTRL_AMUXBUSB     = SAR_MUX_SWITCH_SQ_CTRL_MUX_SQ_CTRL_AMUXBUSB_Msk,  /**< Enable
1243:Generated_Source\PSoC6\pdl\drivers\peripheral\sar/cy_sar.h ****     CY_SAR_MUX_SQ_CTRL_SARBUS0      = SAR_MUX_SWITCH_SQ_CTRL_MUX_SQ_CTRL_SARBUS0_Msk,   /**< Enable
1244:Generated_Source\PSoC6\pdl\drivers\peripheral\sar/cy_sar.h ****     CY_SAR_MUX_SQ_CTRL_SARBUS1      = SAR_MUX_SWITCH_SQ_CTRL_MUX_SQ_CTRL_SARBUS1_Msk,   /**< Enable
1245:Generated_Source\PSoC6\pdl\drivers\peripheral\sar/cy_sar.h **** }cy_en_sar_mux_switch_sq_ctrl_t;
1246:Generated_Source\PSoC6\pdl\drivers\peripheral\sar/cy_sar.h **** 
