ARM GAS  C:\Users\gjl\AppData\Local\Temp\cct3iP5Z.s 			page 1


   1              		.syntax unified
   2              		.cpu cortex-m0plus
   3              		.fpu softvfp
   4              		.eabi_attribute 20, 1
   5              		.eabi_attribute 21, 1
   6              		.eabi_attribute 23, 3
   7              		.eabi_attribute 24, 1
   8              		.eabi_attribute 25, 1
   9              		.eabi_attribute 26, 1
  10              		.eabi_attribute 30, 1
  11              		.eabi_attribute 34, 0
  12              		.eabi_attribute 18, 4
  13              		.thumb
  14              		.syntax unified
  15              		.file	"cy_profile.c"
  16              		.text
  17              	.Ltext0:
  18              		.cfi_sections	.debug_frame
  19              		.section	.text.Cy_Profile_IsPtrValid,"ax",%progbits
  20              		.align	2
  21              		.code	16
  22              		.thumb_func
  23              		.type	Cy_Profile_IsPtrValid, %function
  24              	Cy_Profile_IsPtrValid:
  25              	.LFB41:
  26              		.file 1 "Generated_Source\\PSoC6\\pdl\\drivers\\peripheral\\profile\\cy_profile.c"
   1:Generated_Source\PSoC6\pdl\drivers\peripheral\profile/cy_profile.c **** /***************************************************************************//** 
   2:Generated_Source\PSoC6\pdl\drivers\peripheral\profile/cy_profile.c **** * \file cy_profile.c
   3:Generated_Source\PSoC6\pdl\drivers\peripheral\profile/cy_profile.c **** * \version 1.0
   4:Generated_Source\PSoC6\pdl\drivers\peripheral\profile/cy_profile.c **** * 
   5:Generated_Source\PSoC6\pdl\drivers\peripheral\profile/cy_profile.c **** * Provides an API declaration of the energy profiler (EP) driver. 
   6:Generated_Source\PSoC6\pdl\drivers\peripheral\profile/cy_profile.c **** *
   7:Generated_Source\PSoC6\pdl\drivers\peripheral\profile/cy_profile.c **** ******************************************************************************** 
   8:Generated_Source\PSoC6\pdl\drivers\peripheral\profile/cy_profile.c **** * \copyright 
   9:Generated_Source\PSoC6\pdl\drivers\peripheral\profile/cy_profile.c **** * Copyright 2016-2018, Cypress Semiconductor Corporation. All rights reserved. 
  10:Generated_Source\PSoC6\pdl\drivers\peripheral\profile/cy_profile.c **** * You may use this file only in accordance with the license, terms, conditions, 
  11:Generated_Source\PSoC6\pdl\drivers\peripheral\profile/cy_profile.c **** * disclaimers, and limitations in the end user license agreement accompanying 
  12:Generated_Source\PSoC6\pdl\drivers\peripheral\profile/cy_profile.c **** * the software package with which this file was provided.
  13:Generated_Source\PSoC6\pdl\drivers\peripheral\profile/cy_profile.c **** *******************************************************************************/
  14:Generated_Source\PSoC6\pdl\drivers\peripheral\profile/cy_profile.c **** 
  15:Generated_Source\PSoC6\pdl\drivers\peripheral\profile/cy_profile.c **** #include "cy_profile.h"
  16:Generated_Source\PSoC6\pdl\drivers\peripheral\profile/cy_profile.c **** #include <string.h>
  17:Generated_Source\PSoC6\pdl\drivers\peripheral\profile/cy_profile.c **** 
  18:Generated_Source\PSoC6\pdl\drivers\peripheral\profile/cy_profile.c **** #if defined(__cplusplus)
  19:Generated_Source\PSoC6\pdl\drivers\peripheral\profile/cy_profile.c **** extern "C" {
  20:Generated_Source\PSoC6\pdl\drivers\peripheral\profile/cy_profile.c **** #endif /* __cplusplus */
  21:Generated_Source\PSoC6\pdl\drivers\peripheral\profile/cy_profile.c **** 
  22:Generated_Source\PSoC6\pdl\drivers\peripheral\profile/cy_profile.c **** /* Number of elements in an array */
  23:Generated_Source\PSoC6\pdl\drivers\peripheral\profile/cy_profile.c **** #define CY_N_ELMTS(a) (sizeof(a)/sizeof((a)[0]))
  24:Generated_Source\PSoC6\pdl\drivers\peripheral\profile/cy_profile.c **** 
  25:Generated_Source\PSoC6\pdl\drivers\peripheral\profile/cy_profile.c **** static cy_en_profile_status_t Cy_Profile_IsPtrValid(const cy_stc_profile_ctr_ptr_t ctrAddr);
  26:Generated_Source\PSoC6\pdl\drivers\peripheral\profile/cy_profile.c **** 
  27:Generated_Source\PSoC6\pdl\drivers\peripheral\profile/cy_profile.c **** /* Internal structure - Control and status information for each counter */
  28:Generated_Source\PSoC6\pdl\drivers\peripheral\profile/cy_profile.c **** static cy_stc_profile_ctr_t cy_ep_ctrs[PROFILE_PRFL_CNT_NR];
  29:Generated_Source\PSoC6\pdl\drivers\peripheral\profile/cy_profile.c **** 
  30:Generated_Source\PSoC6\pdl\drivers\peripheral\profile/cy_profile.c **** 
  31:Generated_Source\PSoC6\pdl\drivers\peripheral\profile/cy_profile.c **** /* ========================================================================== */
ARM GAS  C:\Users\gjl\AppData\Local\Temp\cct3iP5Z.s 			page 2


  32:Generated_Source\PSoC6\pdl\drivers\peripheral\profile/cy_profile.c **** /* =====================     LOCAL FUNCTION SECTION    ====================== */
  33:Generated_Source\PSoC6\pdl\drivers\peripheral\profile/cy_profile.c **** /* ========================================================================== */
  34:Generated_Source\PSoC6\pdl\drivers\peripheral\profile/cy_profile.c **** /*******************************************************************************
  35:Generated_Source\PSoC6\pdl\drivers\peripheral\profile/cy_profile.c **** * Function Name: Cy_Profile_IsPtrValid
  36:Generated_Source\PSoC6\pdl\drivers\peripheral\profile/cy_profile.c **** ****************************************************************************//**
  37:Generated_Source\PSoC6\pdl\drivers\peripheral\profile/cy_profile.c **** *
  38:Generated_Source\PSoC6\pdl\drivers\peripheral\profile/cy_profile.c **** * Local utility function: reports (1) whether or not a given pointer points into
  39:Generated_Source\PSoC6\pdl\drivers\peripheral\profile/cy_profile.c **** * the cy_ep_ctrs[] array, and (2) whether the counter has been assigned.
  40:Generated_Source\PSoC6\pdl\drivers\peripheral\profile/cy_profile.c **** *
  41:Generated_Source\PSoC6\pdl\drivers\peripheral\profile/cy_profile.c **** * \param ctrAddr The handle to (address of) the assigned counter
  42:Generated_Source\PSoC6\pdl\drivers\peripheral\profile/cy_profile.c **** * 
  43:Generated_Source\PSoC6\pdl\drivers\peripheral\profile/cy_profile.c **** * \return CY_PROFILE_SUCCESS, or CY_PROFILE_BAD_PARAM for invalid ctrAddr or counter not
  44:Generated_Source\PSoC6\pdl\drivers\peripheral\profile/cy_profile.c **** * in use.
  45:Generated_Source\PSoC6\pdl\drivers\peripheral\profile/cy_profile.c **** *
  46:Generated_Source\PSoC6\pdl\drivers\peripheral\profile/cy_profile.c **** *******************************************************************************/
  47:Generated_Source\PSoC6\pdl\drivers\peripheral\profile/cy_profile.c **** static cy_en_profile_status_t Cy_Profile_IsPtrValid(const cy_stc_profile_ctr_ptr_t ctrAddr)
  48:Generated_Source\PSoC6\pdl\drivers\peripheral\profile/cy_profile.c **** {
  27              		.loc 1 48 0
  28              		.cfi_startproc
  29              		@ args = 0, pretend = 0, frame = 0
  30              		@ frame_needed = 0, uses_anonymous_args = 0
  31              		@ link register save eliminated.
  32              	.LVL0:
  49:Generated_Source\PSoC6\pdl\drivers\peripheral\profile/cy_profile.c ****     cy_en_profile_status_t retStatus = CY_PROFILE_BAD_PARAM;
  50:Generated_Source\PSoC6\pdl\drivers\peripheral\profile/cy_profile.c **** 
  51:Generated_Source\PSoC6\pdl\drivers\peripheral\profile/cy_profile.c ****     /* check for valid ctrAddr */
  52:Generated_Source\PSoC6\pdl\drivers\peripheral\profile/cy_profile.c ****     uint32_t p_epCtrs = (uint32_t)cy_ep_ctrs;
  33              		.loc 1 52 0
  34 0000 084B     		ldr	r3, .L6
  35              	.LVL1:
  53:Generated_Source\PSoC6\pdl\drivers\peripheral\profile/cy_profile.c ****     if ((p_epCtrs <= (uint32_t)ctrAddr) && ((uint32_t)ctrAddr < (p_epCtrs + (uint32_t)sizeof(cy_ep_
  36              		.loc 1 53 0
  37 0002 8342     		cmp	r3, r0
  38 0004 07D8     		bhi	.L3
  39              		.loc 1 53 0 is_stmt 0 discriminator 1
  40 0006 E033     		adds	r3, r3, #224
  41              	.LVL2:
  42 0008 9842     		cmp	r0, r3
  43 000a 06D2     		bcs	.L4
  54:Generated_Source\PSoC6\pdl\drivers\peripheral\profile/cy_profile.c ****     {
  55:Generated_Source\PSoC6\pdl\drivers\peripheral\profile/cy_profile.c ****         if (ctrAddr->used != 0u) /* check for counter being used */
  44              		.loc 1 55 0 is_stmt 1
  45 000c 4378     		ldrb	r3, [r0, #1]
  46 000e 002B     		cmp	r3, #0
  47 0010 05D1     		bne	.L5
  49:Generated_Source\PSoC6\pdl\drivers\peripheral\profile/cy_profile.c **** 
  48              		.loc 1 49 0
  49 0012 0548     		ldr	r0, .L6+4
  50              	.LVL3:
  51 0014 04E0     		b	.L2
  52              	.LVL4:
  53              	.L3:
  54 0016 0448     		ldr	r0, .L6+4
  55              	.LVL5:
  56 0018 02E0     		b	.L2
  57              	.LVL6:
  58              	.L4:
ARM GAS  C:\Users\gjl\AppData\Local\Temp\cct3iP5Z.s 			page 3


  59 001a 0348     		ldr	r0, .L6+4
  60              	.LVL7:
  61 001c 00E0     		b	.L2
  62              	.LVL8:
  63              	.L5:
  56:Generated_Source\PSoC6\pdl\drivers\peripheral\profile/cy_profile.c ****         {
  57:Generated_Source\PSoC6\pdl\drivers\peripheral\profile/cy_profile.c ****             retStatus = CY_PROFILE_SUCCESS;
  64              		.loc 1 57 0
  65 001e 0020     		movs	r0, #0
  66              	.LVL9:
  67              	.L2:
  58:Generated_Source\PSoC6\pdl\drivers\peripheral\profile/cy_profile.c ****         }
  59:Generated_Source\PSoC6\pdl\drivers\peripheral\profile/cy_profile.c ****     }
  60:Generated_Source\PSoC6\pdl\drivers\peripheral\profile/cy_profile.c ****     return (retStatus);
  61:Generated_Source\PSoC6\pdl\drivers\peripheral\profile/cy_profile.c **** }
  68              		.loc 1 61 0
  69              		@ sp needed
  70 0020 7047     		bx	lr
  71              	.L7:
  72 0022 C046     		.align	2
  73              	.L6:
  74 0024 00000000 		.word	.LANCHOR0
  75 0028 01007A00 		.word	7995393
  76              		.cfi_endproc
  77              	.LFE41:
  78              		.size	Cy_Profile_IsPtrValid, .-Cy_Profile_IsPtrValid
  79              		.section	.text.Cy_Profile_ISR,"ax",%progbits
  80              		.align	2
  81              		.global	Cy_Profile_ISR
  82              		.code	16
  83              		.thumb_func
  84              		.type	Cy_Profile_ISR, %function
  85              	Cy_Profile_ISR:
  86              	.LFB42:
  62:Generated_Source\PSoC6\pdl\drivers\peripheral\profile/cy_profile.c **** 
  63:Generated_Source\PSoC6\pdl\drivers\peripheral\profile/cy_profile.c **** 
  64:Generated_Source\PSoC6\pdl\drivers\peripheral\profile/cy_profile.c **** /* ========================================================================== */
  65:Generated_Source\PSoC6\pdl\drivers\peripheral\profile/cy_profile.c **** /* ====================    INTERRUPT FUNCTION SECTION    ==================== */
  66:Generated_Source\PSoC6\pdl\drivers\peripheral\profile/cy_profile.c **** /* ========================================================================== */
  67:Generated_Source\PSoC6\pdl\drivers\peripheral\profile/cy_profile.c **** /*******************************************************************************
  68:Generated_Source\PSoC6\pdl\drivers\peripheral\profile/cy_profile.c **** * Function Name: Cy_Profile_ISR
  69:Generated_Source\PSoC6\pdl\drivers\peripheral\profile/cy_profile.c **** ****************************************************************************//**
  70:Generated_Source\PSoC6\pdl\drivers\peripheral\profile/cy_profile.c **** *
  71:Generated_Source\PSoC6\pdl\drivers\peripheral\profile/cy_profile.c **** * EP interrupt handler: Increments the overflow member of the counter structure,
  72:Generated_Source\PSoC6\pdl\drivers\peripheral\profile/cy_profile.c **** * for each counter that is in use and has an overflow.
  73:Generated_Source\PSoC6\pdl\drivers\peripheral\profile/cy_profile.c **** *
  74:Generated_Source\PSoC6\pdl\drivers\peripheral\profile/cy_profile.c **** * This handler is not configured or used automatically. You must configure the 
  75:Generated_Source\PSoC6\pdl\drivers\peripheral\profile/cy_profile.c **** * interrupt handler for the EP, using Cy_SysInt_Init(). Typically you configure 
  76:Generated_Source\PSoC6\pdl\drivers\peripheral\profile/cy_profile.c **** * the system to use \ref Cy_Profile_ISR() as the overflow interrupt handler. You
  77:Generated_Source\PSoC6\pdl\drivers\peripheral\profile/cy_profile.c **** * can provide a custom interrupt handler to perform additional operations if
  78:Generated_Source\PSoC6\pdl\drivers\peripheral\profile/cy_profile.c **** * required. Your handler can call \ref Cy_Profile_ISR() to handle counter
  79:Generated_Source\PSoC6\pdl\drivers\peripheral\profile/cy_profile.c **** * overflow. 
  80:Generated_Source\PSoC6\pdl\drivers\peripheral\profile/cy_profile.c **** *
  81:Generated_Source\PSoC6\pdl\drivers\peripheral\profile/cy_profile.c **** *******************************************************************************/
  82:Generated_Source\PSoC6\pdl\drivers\peripheral\profile/cy_profile.c **** void Cy_Profile_ISR(void)
  83:Generated_Source\PSoC6\pdl\drivers\peripheral\profile/cy_profile.c **** {
  87              		.loc 1 83 0
ARM GAS  C:\Users\gjl\AppData\Local\Temp\cct3iP5Z.s 			page 4


  88              		.cfi_startproc
  89              		@ args = 0, pretend = 0, frame = 0
  90              		@ frame_needed = 0, uses_anonymous_args = 0
  91              		@ link register save eliminated.
  84:Generated_Source\PSoC6\pdl\drivers\peripheral\profile/cy_profile.c ****     uint32_t ctr;
  85:Generated_Source\PSoC6\pdl\drivers\peripheral\profile/cy_profile.c **** 
  86:Generated_Source\PSoC6\pdl\drivers\peripheral\profile/cy_profile.c ****     /* Grab a copy of the overflow register. Each bit in the register indicates
  87:Generated_Source\PSoC6\pdl\drivers\peripheral\profile/cy_profile.c ****        whether or not the respective counter has overflowed. */
  88:Generated_Source\PSoC6\pdl\drivers\peripheral\profile/cy_profile.c ****     uint32_t ovflowBits = _FLD2VAL(PROFILE_INTR_MASKED_CNT_OVFLW, PROFILE->INTR_MASKED);
  92              		.loc 1 88 0
  93 0000 104B     		ldr	r3, .L13
  94 0002 114A     		ldr	r2, .L13+4
  95 0004 9A58     		ldr	r2, [r3, r2]
  96              	.LVL10:
  89:Generated_Source\PSoC6\pdl\drivers\peripheral\profile/cy_profile.c **** 
  90:Generated_Source\PSoC6\pdl\drivers\peripheral\profile/cy_profile.c ****     PROFILE->INTR = ovflowBits; /* clear the sources of the interrupts */
  97              		.loc 1 90 0
  98 0006 F821     		movs	r1, #248
  99 0008 C900     		lsls	r1, r1, #3
 100 000a 5A50     		str	r2, [r3, r1]
 101              	.LVL11:
  91:Generated_Source\PSoC6\pdl\drivers\peripheral\profile/cy_profile.c **** 
  92:Generated_Source\PSoC6\pdl\drivers\peripheral\profile/cy_profile.c ****     /* scan through the overflow bits, i.e., for each counter */
  93:Generated_Source\PSoC6\pdl\drivers\peripheral\profile/cy_profile.c ****     for (ctr = 0UL; (ctr < (uint32_t)(PROFILE_PRFL_CNT_NR)) && (ovflowBits != 0UL); ctr++)
 102              		.loc 1 93 0
 103 000c 0023     		movs	r3, #0
 104 000e 13E0     		b	.L9
 105              	.LVL12:
 106              	.L12:
  94:Generated_Source\PSoC6\pdl\drivers\peripheral\profile/cy_profile.c ****     {
  95:Generated_Source\PSoC6\pdl\drivers\peripheral\profile/cy_profile.c ****         /* Increment the overflow bit only if the counter is being used.
  96:Generated_Source\PSoC6\pdl\drivers\peripheral\profile/cy_profile.c ****            (Which should always be the case.) */
  97:Generated_Source\PSoC6\pdl\drivers\peripheral\profile/cy_profile.c ****         if (((ovflowBits & 1UL) != 0UL) && (cy_ep_ctrs[ctr].used != 0u))
 107              		.loc 1 97 0
 108 0010 D107     		lsls	r1, r2, #31
 109 0012 0FD5     		bpl	.L10
 110              		.loc 1 97 0 is_stmt 0 discriminator 1
 111 0014 D800     		lsls	r0, r3, #3
 112 0016 C01A     		subs	r0, r0, r3
 113 0018 8100     		lsls	r1, r0, #2
 114 001a 0C48     		ldr	r0, .L13+8
 115 001c 4118     		adds	r1, r0, r1
 116 001e 4978     		ldrb	r1, [r1, #1]
 117 0020 0029     		cmp	r1, #0
 118 0022 07D0     		beq	.L10
  98:Generated_Source\PSoC6\pdl\drivers\peripheral\profile/cy_profile.c ****         {
  99:Generated_Source\PSoC6\pdl\drivers\peripheral\profile/cy_profile.c ****             cy_ep_ctrs[ctr].overflow++;
 119              		.loc 1 99 0 is_stmt 1
 120 0024 D800     		lsls	r0, r3, #3
 121 0026 C01A     		subs	r0, r0, r3
 122 0028 8100     		lsls	r1, r0, #2
 123 002a 0848     		ldr	r0, .L13+8
 124 002c 4118     		adds	r1, r0, r1
 125 002e 4869     		ldr	r0, [r1, #20]
 126 0030 0130     		adds	r0, r0, #1
 127 0032 4861     		str	r0, [r1, #20]
 128              	.L10:
ARM GAS  C:\Users\gjl\AppData\Local\Temp\cct3iP5Z.s 			page 5


 100:Generated_Source\PSoC6\pdl\drivers\peripheral\profile/cy_profile.c ****         }
 101:Generated_Source\PSoC6\pdl\drivers\peripheral\profile/cy_profile.c ****         ovflowBits >>= 1; /* check the next bit, by shifting it into the LS position */
 129              		.loc 1 101 0 discriminator 2
 130 0034 5208     		lsrs	r2, r2, #1
 131              	.LVL13:
  93:Generated_Source\PSoC6\pdl\drivers\peripheral\profile/cy_profile.c ****     {
 132              		.loc 1 93 0 discriminator 2
 133 0036 0133     		adds	r3, r3, #1
 134              	.LVL14:
 135              	.L9:
  93:Generated_Source\PSoC6\pdl\drivers\peripheral\profile/cy_profile.c ****     {
 136              		.loc 1 93 0 is_stmt 0 discriminator 1
 137 0038 072B     		cmp	r3, #7
 138 003a 01D8     		bhi	.L8
  93:Generated_Source\PSoC6\pdl\drivers\peripheral\profile/cy_profile.c ****     {
 139              		.loc 1 93 0 discriminator 3
 140 003c 002A     		cmp	r2, #0
 141 003e E7D1     		bne	.L12
 142              	.L8:
 102:Generated_Source\PSoC6\pdl\drivers\peripheral\profile/cy_profile.c ****     }
 103:Generated_Source\PSoC6\pdl\drivers\peripheral\profile/cy_profile.c **** }
 143              		.loc 1 103 0 is_stmt 1
 144              		@ sp needed
 145 0040 7047     		bx	lr
 146              	.L14:
 147 0042 C046     		.align	2
 148              	.L13:
 149 0044 00002D40 		.word	1076690944
 150 0048 CC070000 		.word	1996
 151 004c 00000000 		.word	.LANCHOR0
 152              		.cfi_endproc
 153              	.LFE42:
 154              		.size	Cy_Profile_ISR, .-Cy_Profile_ISR
 155              		.section	.text.Cy_Profile_StartProfiling,"ax",%progbits
 156              		.align	2
 157              		.global	Cy_Profile_StartProfiling
 158              		.code	16
 159              		.thumb_func
 160              		.type	Cy_Profile_StartProfiling, %function
 161              	Cy_Profile_StartProfiling:
 162              	.LFB43:
 104:Generated_Source\PSoC6\pdl\drivers\peripheral\profile/cy_profile.c **** 
 105:Generated_Source\PSoC6\pdl\drivers\peripheral\profile/cy_profile.c **** 
 106:Generated_Source\PSoC6\pdl\drivers\peripheral\profile/cy_profile.c **** /* ========================================================================== */
 107:Generated_Source\PSoC6\pdl\drivers\peripheral\profile/cy_profile.c **** /* ==================      GENERAL PROFILE FUNCTIONS     ==================== */
 108:Generated_Source\PSoC6\pdl\drivers\peripheral\profile/cy_profile.c **** /* ========================================================================== */
 109:Generated_Source\PSoC6\pdl\drivers\peripheral\profile/cy_profile.c **** /*******************************************************************************
 110:Generated_Source\PSoC6\pdl\drivers\peripheral\profile/cy_profile.c **** * Function Name: Cy_Profile_StartProfiling
 111:Generated_Source\PSoC6\pdl\drivers\peripheral\profile/cy_profile.c **** ****************************************************************************//**
 112:Generated_Source\PSoC6\pdl\drivers\peripheral\profile/cy_profile.c **** *
 113:Generated_Source\PSoC6\pdl\drivers\peripheral\profile/cy_profile.c **** * Starts the profiling/measurement window.
 114:Generated_Source\PSoC6\pdl\drivers\peripheral\profile/cy_profile.c **** *
 115:Generated_Source\PSoC6\pdl\drivers\peripheral\profile/cy_profile.c **** * This operation allows the enabled profile counters to start counting.
 116:Generated_Source\PSoC6\pdl\drivers\peripheral\profile/cy_profile.c **** *
 117:Generated_Source\PSoC6\pdl\drivers\peripheral\profile/cy_profile.c **** * \note The profile interrupt should be enabled before calling this function
 118:Generated_Source\PSoC6\pdl\drivers\peripheral\profile/cy_profile.c **** * in order for the firmware to be notified when a counter overflow occurs.
 119:Generated_Source\PSoC6\pdl\drivers\peripheral\profile/cy_profile.c **** *
ARM GAS  C:\Users\gjl\AppData\Local\Temp\cct3iP5Z.s 			page 6


 120:Generated_Source\PSoC6\pdl\drivers\peripheral\profile/cy_profile.c **** * \funcusage
 121:Generated_Source\PSoC6\pdl\drivers\peripheral\profile/cy_profile.c **** * \snippet profile/profile_v1_0_sut_01.cydsn/main_cm4.c snippet_Cy_Profile_StartProfiling
 122:Generated_Source\PSoC6\pdl\drivers\peripheral\profile/cy_profile.c **** *
 123:Generated_Source\PSoC6\pdl\drivers\peripheral\profile/cy_profile.c **** *******************************************************************************/
 124:Generated_Source\PSoC6\pdl\drivers\peripheral\profile/cy_profile.c **** void Cy_Profile_StartProfiling(void)
 125:Generated_Source\PSoC6\pdl\drivers\peripheral\profile/cy_profile.c **** {
 163              		.loc 1 125 0
 164              		.cfi_startproc
 165              		@ args = 0, pretend = 0, frame = 0
 166              		@ frame_needed = 0, uses_anonymous_args = 0
 167              		@ link register save eliminated.
 168              	.LVL15:
 126:Generated_Source\PSoC6\pdl\drivers\peripheral\profile/cy_profile.c ****     uint32_t i;
 127:Generated_Source\PSoC6\pdl\drivers\peripheral\profile/cy_profile.c **** 
 128:Generated_Source\PSoC6\pdl\drivers\peripheral\profile/cy_profile.c ****     /* clear all of the counter array overflow variables */
 129:Generated_Source\PSoC6\pdl\drivers\peripheral\profile/cy_profile.c ****     for (i = 0UL; i < CY_N_ELMTS(cy_ep_ctrs); cy_ep_ctrs[i++].overflow = 0UL){}
 169              		.loc 1 129 0
 170 0000 0023     		movs	r3, #0
 171 0002 07E0     		b	.L16
 172              	.LVL16:
 173              	.L17:
 174              		.loc 1 129 0 is_stmt 0 discriminator 3
 175 0004 D900     		lsls	r1, r3, #3
 176 0006 C91A     		subs	r1, r1, r3
 177 0008 8A00     		lsls	r2, r1, #2
 178 000a 0549     		ldr	r1, .L18
 179 000c 8A18     		adds	r2, r1, r2
 180 000e 0021     		movs	r1, #0
 181 0010 5161     		str	r1, [r2, #20]
 182 0012 0133     		adds	r3, r3, #1
 183              	.LVL17:
 184              	.L16:
 185              		.loc 1 129 0 discriminator 1
 186 0014 072B     		cmp	r3, #7
 187 0016 F5D9     		bls	.L17
 130:Generated_Source\PSoC6\pdl\drivers\peripheral\profile/cy_profile.c ****     /* send the hardware command */
 131:Generated_Source\PSoC6\pdl\drivers\peripheral\profile/cy_profile.c ****     PROFILE->CMD = CY_PROFILE_START_TR;
 188              		.loc 1 131 0 is_stmt 1
 189 0018 0122     		movs	r2, #1
 190 001a 024B     		ldr	r3, .L18+4
 191              	.LVL18:
 192 001c 1A61     		str	r2, [r3, #16]
 132:Generated_Source\PSoC6\pdl\drivers\peripheral\profile/cy_profile.c **** }
 193              		.loc 1 132 0
 194              		@ sp needed
 195 001e 7047     		bx	lr
 196              	.L19:
 197              		.align	2
 198              	.L18:
 199 0020 00000000 		.word	.LANCHOR0
 200 0024 00002D40 		.word	1076690944
 201              		.cfi_endproc
 202              	.LFE43:
 203              		.size	Cy_Profile_StartProfiling, .-Cy_Profile_StartProfiling
 204              		.section	.text.Cy_Profile_ClearConfiguration,"ax",%progbits
 205              		.align	2
 206              		.global	Cy_Profile_ClearConfiguration
ARM GAS  C:\Users\gjl\AppData\Local\Temp\cct3iP5Z.s 			page 7


 207              		.code	16
 208              		.thumb_func
 209              		.type	Cy_Profile_ClearConfiguration, %function
 210              	Cy_Profile_ClearConfiguration:
 211              	.LFB44:
 133:Generated_Source\PSoC6\pdl\drivers\peripheral\profile/cy_profile.c **** 
 134:Generated_Source\PSoC6\pdl\drivers\peripheral\profile/cy_profile.c **** 
 135:Generated_Source\PSoC6\pdl\drivers\peripheral\profile/cy_profile.c **** /* ========================================================================== */
 136:Generated_Source\PSoC6\pdl\drivers\peripheral\profile/cy_profile.c **** /* ===================    COUNTER FUNCTIONS SECTION    ====================== */
 137:Generated_Source\PSoC6\pdl\drivers\peripheral\profile/cy_profile.c **** /* ========================================================================== */
 138:Generated_Source\PSoC6\pdl\drivers\peripheral\profile/cy_profile.c **** /*******************************************************************************
 139:Generated_Source\PSoC6\pdl\drivers\peripheral\profile/cy_profile.c **** * Function Name: Cy_Profile_ClearConfiguration
 140:Generated_Source\PSoC6\pdl\drivers\peripheral\profile/cy_profile.c **** ****************************************************************************//**
 141:Generated_Source\PSoC6\pdl\drivers\peripheral\profile/cy_profile.c **** *
 142:Generated_Source\PSoC6\pdl\drivers\peripheral\profile/cy_profile.c **** * Clears all counter configurations and sets all counters and overflow counters 
 143:Generated_Source\PSoC6\pdl\drivers\peripheral\profile/cy_profile.c **** * to 0. Calls Cy_Profile_ClearCounters() to clear counter registers.
 144:Generated_Source\PSoC6\pdl\drivers\peripheral\profile/cy_profile.c **** *
 145:Generated_Source\PSoC6\pdl\drivers\peripheral\profile/cy_profile.c **** * \funcusage
 146:Generated_Source\PSoC6\pdl\drivers\peripheral\profile/cy_profile.c **** * \snippet profile/profile_v1_0_sut_01.cydsn/main_cm4.c snippet_Cy_Profile_ClearConfiguration
 147:Generated_Source\PSoC6\pdl\drivers\peripheral\profile/cy_profile.c **** *
 148:Generated_Source\PSoC6\pdl\drivers\peripheral\profile/cy_profile.c **** *******************************************************************************/
 149:Generated_Source\PSoC6\pdl\drivers\peripheral\profile/cy_profile.c **** void Cy_Profile_ClearConfiguration(void)
 150:Generated_Source\PSoC6\pdl\drivers\peripheral\profile/cy_profile.c **** {
 212              		.loc 1 150 0
 213              		.cfi_startproc
 214              		@ args = 0, pretend = 0, frame = 0
 215              		@ frame_needed = 0, uses_anonymous_args = 0
 216 0000 10B5     		push	{r4, lr}
 217              		.cfi_def_cfa_offset 8
 218              		.cfi_offset 4, -8
 219              		.cfi_offset 14, -4
 151:Generated_Source\PSoC6\pdl\drivers\peripheral\profile/cy_profile.c ****     (void)memset((void *)cy_ep_ctrs, 0, sizeof(cy_ep_ctrs));
 220              		.loc 1 151 0
 221 0002 E022     		movs	r2, #224
 222 0004 0021     		movs	r1, #0
 223 0006 0448     		ldr	r0, .L21
 224 0008 FFF7FEFF 		bl	memset
 225              	.LVL19:
 226              	.LBB4:
 227              	.LBB5:
 228              		.file 2 "Generated_Source\\PSoC6\\pdl\\drivers\\peripheral\\profile\\cy_profile.h"
   1:Generated_Source\PSoC6\pdl\drivers\peripheral\profile/cy_profile.h **** /***************************************************************************//**
   2:Generated_Source\PSoC6\pdl\drivers\peripheral\profile/cy_profile.h **** * \file cy_profile.h
   3:Generated_Source\PSoC6\pdl\drivers\peripheral\profile/cy_profile.h **** * \version 1.0
   4:Generated_Source\PSoC6\pdl\drivers\peripheral\profile/cy_profile.h **** *
   5:Generated_Source\PSoC6\pdl\drivers\peripheral\profile/cy_profile.h **** * Provides an API declaration of the energy profiler driver.
   6:Generated_Source\PSoC6\pdl\drivers\peripheral\profile/cy_profile.h **** *
   7:Generated_Source\PSoC6\pdl\drivers\peripheral\profile/cy_profile.h **** ********************************************************************************
   8:Generated_Source\PSoC6\pdl\drivers\peripheral\profile/cy_profile.h **** * \copyright
   9:Generated_Source\PSoC6\pdl\drivers\peripheral\profile/cy_profile.h **** * Copyright 2016-2018, Cypress Semiconductor Corporation. All rights reserved.
  10:Generated_Source\PSoC6\pdl\drivers\peripheral\profile/cy_profile.h **** * You may use this file only in accordance with the license, terms, conditions,
  11:Generated_Source\PSoC6\pdl\drivers\peripheral\profile/cy_profile.h **** * disclaimers, and limitations in the end user license agreement accompanying
  12:Generated_Source\PSoC6\pdl\drivers\peripheral\profile/cy_profile.h **** * the software package with which this file was provided.
  13:Generated_Source\PSoC6\pdl\drivers\peripheral\profile/cy_profile.h **** *******************************************************************************/
  14:Generated_Source\PSoC6\pdl\drivers\peripheral\profile/cy_profile.h **** 
  15:Generated_Source\PSoC6\pdl\drivers\peripheral\profile/cy_profile.h **** /**
  16:Generated_Source\PSoC6\pdl\drivers\peripheral\profile/cy_profile.h **** * \defgroup group_energy_profiler Energy Profiler (Profile)
ARM GAS  C:\Users\gjl\AppData\Local\Temp\cct3iP5Z.s 			page 8


  17:Generated_Source\PSoC6\pdl\drivers\peripheral\profile/cy_profile.h **** * \{
  18:Generated_Source\PSoC6\pdl\drivers\peripheral\profile/cy_profile.h **** * 
  19:Generated_Source\PSoC6\pdl\drivers\peripheral\profile/cy_profile.h **** * The energy profiler driver is an API for configuring and using the profile 
  20:Generated_Source\PSoC6\pdl\drivers\peripheral\profile/cy_profile.h **** * hardware block. The profile block enables measurement of the signal activity
  21:Generated_Source\PSoC6\pdl\drivers\peripheral\profile/cy_profile.h **** * of select peripherals and monitor sources during a measurement window. Using
  22:Generated_Source\PSoC6\pdl\drivers\peripheral\profile/cy_profile.h **** * these measurements, it is possible to construct a profile of the energy consumed
  23:Generated_Source\PSoC6\pdl\drivers\peripheral\profile/cy_profile.h **** * in the device by scaling the individual peripheral actvities with appropriate
  24:Generated_Source\PSoC6\pdl\drivers\peripheral\profile/cy_profile.h **** * scaling (weight) factors. This gives the application the ability to monitor
  25:Generated_Source\PSoC6\pdl\drivers\peripheral\profile/cy_profile.h **** * the energy consumed by the internal resources with minimal CPU overhead and
  26:Generated_Source\PSoC6\pdl\drivers\peripheral\profile/cy_profile.h **** * without external monitoring hardware.
  27:Generated_Source\PSoC6\pdl\drivers\peripheral\profile/cy_profile.h **** *
  28:Generated_Source\PSoC6\pdl\drivers\peripheral\profile/cy_profile.h **** * \section group_profile_details Details
  29:Generated_Source\PSoC6\pdl\drivers\peripheral\profile/cy_profile.h **** *
  30:Generated_Source\PSoC6\pdl\drivers\peripheral\profile/cy_profile.h **** * \subsection group_profile_hardware Profile Hardware
  31:Generated_Source\PSoC6\pdl\drivers\peripheral\profile/cy_profile.h **** *
  32:Generated_Source\PSoC6\pdl\drivers\peripheral\profile/cy_profile.h **** * The profile hardware consists of a number of profile counters that accept specific
  33:Generated_Source\PSoC6\pdl\drivers\peripheral\profile/cy_profile.h **** * triggers for incrementing the count value. This allows the events of the source 
  34:Generated_Source\PSoC6\pdl\drivers\peripheral\profile/cy_profile.h **** * (such as the number of SCB0 bus accesses or the duration of time the BLE RX radio
  35:Generated_Source\PSoC6\pdl\drivers\peripheral\profile/cy_profile.h **** * is active) to be counted during the measurement window. The available monitor 
  36:Generated_Source\PSoC6\pdl\drivers\peripheral\profile/cy_profile.h **** * sources in the device can be found in the en_ep_mon_sel_t enum in the device 
  37:Generated_Source\PSoC6\pdl\drivers\peripheral\profile/cy_profile.h **** * configuration file (e.g. psoc62_config.h). These can be sourced to any of the
  38:Generated_Source\PSoC6\pdl\drivers\peripheral\profile/cy_profile.h **** * profile counters as triggers. There are two methods of using the monitor sources
  39:Generated_Source\PSoC6\pdl\drivers\peripheral\profile/cy_profile.h **** * in a profile counter.
  40:Generated_Source\PSoC6\pdl\drivers\peripheral\profile/cy_profile.h **** *
  41:Generated_Source\PSoC6\pdl\drivers\peripheral\profile/cy_profile.h **** * - Event: The count value is incremented when a pulse event signal is seen by the
  42:Generated_Source\PSoC6\pdl\drivers\peripheral\profile/cy_profile.h **** *   counter. This type of monitoring is suitable when the monitoring source of 
  43:Generated_Source\PSoC6\pdl\drivers\peripheral\profile/cy_profile.h **** *   interest needs to count the discrete events (such as the number of Flash read 
  44:Generated_Source\PSoC6\pdl\drivers\peripheral\profile/cy_profile.h **** *   accesses) happening in the measurement window.
  45:Generated_Source\PSoC6\pdl\drivers\peripheral\profile/cy_profile.h **** *
  46:Generated_Source\PSoC6\pdl\drivers\peripheral\profile/cy_profile.h **** * - Duration: The count value is incremented at every clock edge while the monitor
  47:Generated_Source\PSoC6\pdl\drivers\peripheral\profile/cy_profile.h **** *   signal is high. This type of monitoring is suitable when a signal is active for
  48:Generated_Source\PSoC6\pdl\drivers\peripheral\profile/cy_profile.h **** *   a finite amount of time (such as the time the BLE TX radio is active) and the
  49:Generated_Source\PSoC6\pdl\drivers\peripheral\profile/cy_profile.h **** *   duration needs to be expressed as number of clock cycles in the measurement window.
  50:Generated_Source\PSoC6\pdl\drivers\peripheral\profile/cy_profile.h **** *
  51:Generated_Source\PSoC6\pdl\drivers\peripheral\profile/cy_profile.h **** * Many of the available monitor sources are suitable for event type monitoring.
  52:Generated_Source\PSoC6\pdl\drivers\peripheral\profile/cy_profile.h **** * Using a duration type on these signals may not give valuable information. Review 
  53:Generated_Source\PSoC6\pdl\drivers\peripheral\profile/cy_profile.h **** * the device TRM for more information on the monitor sources and details on how they
  54:Generated_Source\PSoC6\pdl\drivers\peripheral\profile/cy_profile.h **** * should be used.
  55:Generated_Source\PSoC6\pdl\drivers\peripheral\profile/cy_profile.h **** *
  56:Generated_Source\PSoC6\pdl\drivers\peripheral\profile/cy_profile.h **** * \subsection group_profile_measurement_types Measurement Types
  57:Generated_Source\PSoC6\pdl\drivers\peripheral\profile/cy_profile.h **** *
  58:Generated_Source\PSoC6\pdl\drivers\peripheral\profile/cy_profile.h **** * Depending on the item of interest, energy measurement can be performed by using
  59:Generated_Source\PSoC6\pdl\drivers\peripheral\profile/cy_profile.h **** * the following methods.
  60:Generated_Source\PSoC6\pdl\drivers\peripheral\profile/cy_profile.h **** *
  61:Generated_Source\PSoC6\pdl\drivers\peripheral\profile/cy_profile.h **** * - Continuous measurement: A profile counter can be assigned a monitor signal of
  62:Generated_Source\PSoC6\pdl\drivers\peripheral\profile/cy_profile.h **** *   constant 1 (PROFILE_ONE), which sets the counter to increment at every (assigned)
  63:Generated_Source\PSoC6\pdl\drivers\peripheral\profile/cy_profile.h **** *   clock cycle. This can be used to give a reference time for the measurement window
  64:Generated_Source\PSoC6\pdl\drivers\peripheral\profile/cy_profile.h **** *   and also allows the construction of time stamps. For example, a software controlled
  65:Generated_Source\PSoC6\pdl\drivers\peripheral\profile/cy_profile.h **** *   GPIO can be "timestamped" by reading the counter value (on the fly) before it is
  66:Generated_Source\PSoC6\pdl\drivers\peripheral\profile/cy_profile.h **** *   toggled. When the measurement window ends, the energy contribution caused by the
  67:Generated_Source\PSoC6\pdl\drivers\peripheral\profile/cy_profile.h **** *   GPIO toggle can be incorporated into the final calculation.
  68:Generated_Source\PSoC6\pdl\drivers\peripheral\profile/cy_profile.h **** *
  69:Generated_Source\PSoC6\pdl\drivers\peripheral\profile/cy_profile.h **** * - Event measurement: Monitored events happening in a measurement window can be 
  70:Generated_Source\PSoC6\pdl\drivers\peripheral\profile/cy_profile.h **** *   used to increment a profile counter. This gives the activity numbers, which can
  71:Generated_Source\PSoC6\pdl\drivers\peripheral\profile/cy_profile.h **** *   then be multiplied by the instantaneous power numbers associated with the source
  72:Generated_Source\PSoC6\pdl\drivers\peripheral\profile/cy_profile.h **** *   to give the average energy consumption (Energy = Power x time). For example, the 
  73:Generated_Source\PSoC6\pdl\drivers\peripheral\profile/cy_profile.h **** *   energy consumped by an Operating System (OS) task can be estimated by monitoring
ARM GAS  C:\Users\gjl\AppData\Local\Temp\cct3iP5Z.s 			page 9


  74:Generated_Source\PSoC6\pdl\drivers\peripheral\profile/cy_profile.h **** *   the processor's active cycle count (E.g. CPUSS_MONITOR_CM4) and the Flash read
  75:Generated_Source\PSoC6\pdl\drivers\peripheral\profile/cy_profile.h **** *   accesses (CPUSS_MONITOR_FLASH). Note that these activity numbers can also be 
  76:Generated_Source\PSoC6\pdl\drivers\peripheral\profile/cy_profile.h **** *   timestamped using the continuous measurement method to differentiate between the
  77:Generated_Source\PSoC6\pdl\drivers\peripheral\profile/cy_profile.h **** *   different task switches. The activity numbers are then multiplied by the associated
  78:Generated_Source\PSoC6\pdl\drivers\peripheral\profile/cy_profile.h **** *   processor and flash access power numbers to give the average energy consumed by
  79:Generated_Source\PSoC6\pdl\drivers\peripheral\profile/cy_profile.h **** *   that task.
  80:Generated_Source\PSoC6\pdl\drivers\peripheral\profile/cy_profile.h **** *
  81:Generated_Source\PSoC6\pdl\drivers\peripheral\profile/cy_profile.h **** * - Duration measurement: A peripheral event such as the SMIF select signal can be 
  82:Generated_Source\PSoC6\pdl\drivers\peripheral\profile/cy_profile.h **** *   used by a profile counter to measure the time spent on XIP communication through the 
  83:Generated_Source\PSoC6\pdl\drivers\peripheral\profile/cy_profile.h **** *   SPI interface. This activity number can then be multiplied by the power associated
  84:Generated_Source\PSoC6\pdl\drivers\peripheral\profile/cy_profile.h **** *   with that activity to give the average energy consumed by that block during the
  85:Generated_Source\PSoC6\pdl\drivers\peripheral\profile/cy_profile.h **** *   measurement window. This type of monitoring should only be performed for signals
  86:Generated_Source\PSoC6\pdl\drivers\peripheral\profile/cy_profile.h **** *   that are difficult to track in software. For example, a combination of interrupts
  87:Generated_Source\PSoC6\pdl\drivers\peripheral\profile/cy_profile.h **** *   and time stamps can be used to track the activity of many peripherals in a continuous
  88:Generated_Source\PSoC6\pdl\drivers\peripheral\profile/cy_profile.h **** *   monitoring model. However tracking the activity of signals such the BLE radio
  89:Generated_Source\PSoC6\pdl\drivers\peripheral\profile/cy_profile.h **** *   should be done using the duration measurement method.
  90:Generated_Source\PSoC6\pdl\drivers\peripheral\profile/cy_profile.h **** *
  91:Generated_Source\PSoC6\pdl\drivers\peripheral\profile/cy_profile.h **** * - Low power measurement: The profile counters do not support measurement during chip 
  92:Generated_Source\PSoC6\pdl\drivers\peripheral\profile/cy_profile.h **** *   deep-sleep, hibernate and off states. i.e. the profile counters are meant for active
  93:Generated_Source\PSoC6\pdl\drivers\peripheral\profile/cy_profile.h **** *   run-time measurements only. In order to measure the time spent in low power modes (LPM),
  94:Generated_Source\PSoC6\pdl\drivers\peripheral\profile/cy_profile.h **** *   a real-time clock (RTC) should be used. Take a timestamp before LPM entry and a 
  95:Generated_Source\PSoC6\pdl\drivers\peripheral\profile/cy_profile.h **** *   timestamp upon LPM exit in a continuous measurement model. Then multiply the difference
  96:Generated_Source\PSoC6\pdl\drivers\peripheral\profile/cy_profile.h **** *   by the appropriate LPM power numbers.
  97:Generated_Source\PSoC6\pdl\drivers\peripheral\profile/cy_profile.h **** *
  98:Generated_Source\PSoC6\pdl\drivers\peripheral\profile/cy_profile.h **** * \subsection group_profile_usage Driver Usage
  99:Generated_Source\PSoC6\pdl\drivers\peripheral\profile/cy_profile.h **** *
 100:Generated_Source\PSoC6\pdl\drivers\peripheral\profile/cy_profile.h **** * At the highest level, the energy profiler must perform the following steps to 
 101:Generated_Source\PSoC6\pdl\drivers\peripheral\profile/cy_profile.h **** * obtain a measurement:
 102:Generated_Source\PSoC6\pdl\drivers\peripheral\profile/cy_profile.h **** *
 103:Generated_Source\PSoC6\pdl\drivers\peripheral\profile/cy_profile.h **** *  1. Initialize the profile hardware block.
 104:Generated_Source\PSoC6\pdl\drivers\peripheral\profile/cy_profile.h **** *  2. Initialize the profile interrupt (profile_interrupt_IRQn).
 105:Generated_Source\PSoC6\pdl\drivers\peripheral\profile/cy_profile.h **** *  3. Configure, initialize, and enable the profile counters.
 106:Generated_Source\PSoC6\pdl\drivers\peripheral\profile/cy_profile.h **** *  4. Enable the profile interrupt and start the profiling/measurement window.
 107:Generated_Source\PSoC6\pdl\drivers\peripheral\profile/cy_profile.h **** *  5. Perform run-time reads of the counters (if needed).
 108:Generated_Source\PSoC6\pdl\drivers\peripheral\profile/cy_profile.h **** *  6. Disable the profile interrupt and stop the profiling/measurement window.
 109:Generated_Source\PSoC6\pdl\drivers\peripheral\profile/cy_profile.h **** *  7. Read the counters and gather the results.
 110:Generated_Source\PSoC6\pdl\drivers\peripheral\profile/cy_profile.h **** *  8. Calculate the energy consumption.
 111:Generated_Source\PSoC6\pdl\drivers\peripheral\profile/cy_profile.h **** *
 112:Generated_Source\PSoC6\pdl\drivers\peripheral\profile/cy_profile.h **** * Refer to the SysInt driver on the details of configuring the profile hardware interrupt.
 113:Generated_Source\PSoC6\pdl\drivers\peripheral\profile/cy_profile.h **** *
 114:Generated_Source\PSoC6\pdl\drivers\peripheral\profile/cy_profile.h **** * The profile interrupt triggers when a counter overflow event is detected on any of the
 115:Generated_Source\PSoC6\pdl\drivers\peripheral\profile/cy_profile.h **** * enabled profile counters. A sample interrupt service routine Cy_Profile_ISR() is provided,
 116:Generated_Source\PSoC6\pdl\drivers\peripheral\profile/cy_profile.h **** * which can be used to update the internal counter states stored in RAM. Refer to the
 117:Generated_Source\PSoC6\pdl\drivers\peripheral\profile/cy_profile.h **** * Configuration Considerations for more information.
 118:Generated_Source\PSoC6\pdl\drivers\peripheral\profile/cy_profile.h **** *
 119:Generated_Source\PSoC6\pdl\drivers\peripheral\profile/cy_profile.h **** * \section group_profile_configuration Configuration Considerations
 120:Generated_Source\PSoC6\pdl\drivers\peripheral\profile/cy_profile.h **** * 
 121:Generated_Source\PSoC6\pdl\drivers\peripheral\profile/cy_profile.h **** * Each counter is a 32-bit register that counts either a number of clock cycles, 
 122:Generated_Source\PSoC6\pdl\drivers\peripheral\profile/cy_profile.h **** * or a number of events. It is possible to overflow the 32-bit register. To address
 123:Generated_Source\PSoC6\pdl\drivers\peripheral\profile/cy_profile.h **** * this issue, the driver implements a 32-bit overflow counter. Combined with the 32-bit
 124:Generated_Source\PSoC6\pdl\drivers\peripheral\profile/cy_profile.h **** * register, this gives a 64-bit counter for each monitored source. 
 125:Generated_Source\PSoC6\pdl\drivers\peripheral\profile/cy_profile.h **** *
 126:Generated_Source\PSoC6\pdl\drivers\peripheral\profile/cy_profile.h **** * When an overflow occurs, the profile hardware generates an interrupt. The interrupt is 
 127:Generated_Source\PSoC6\pdl\drivers\peripheral\profile/cy_profile.h **** * configured using the SysInt driver, where the sample interrupt handler Cy_Profile_ISR()
 128:Generated_Source\PSoC6\pdl\drivers\peripheral\profile/cy_profile.h **** * can be used as the ISR. The ISR increments the overflow counter for each profiling counter 
 129:Generated_Source\PSoC6\pdl\drivers\peripheral\profile/cy_profile.h **** * and clears the interrupt.
 130:Generated_Source\PSoC6\pdl\drivers\peripheral\profile/cy_profile.h **** *
ARM GAS  C:\Users\gjl\AppData\Local\Temp\cct3iP5Z.s 			page 10


 131:Generated_Source\PSoC6\pdl\drivers\peripheral\profile/cy_profile.h **** * \section group_profile_more_information More Information
 132:Generated_Source\PSoC6\pdl\drivers\peripheral\profile/cy_profile.h **** *
 133:Generated_Source\PSoC6\pdl\drivers\peripheral\profile/cy_profile.h **** * See the profiler chapter of the device technical reference manual (TRM).
 134:Generated_Source\PSoC6\pdl\drivers\peripheral\profile/cy_profile.h **** *
 135:Generated_Source\PSoC6\pdl\drivers\peripheral\profile/cy_profile.h **** * \section group_profile_MISRA MISRA-C Compliance
 136:Generated_Source\PSoC6\pdl\drivers\peripheral\profile/cy_profile.h **** * <table class="doxtable">
 137:Generated_Source\PSoC6\pdl\drivers\peripheral\profile/cy_profile.h **** *   <tr>
 138:Generated_Source\PSoC6\pdl\drivers\peripheral\profile/cy_profile.h **** *     <th>MISRA Rule</th>
 139:Generated_Source\PSoC6\pdl\drivers\peripheral\profile/cy_profile.h **** *     <th>Rule Class (Required/Advisory)</th>
 140:Generated_Source\PSoC6\pdl\drivers\peripheral\profile/cy_profile.h **** *     <th>Rule Description</th>
 141:Generated_Source\PSoC6\pdl\drivers\peripheral\profile/cy_profile.h **** *     <th>Description of Deviation(s)</th>
 142:Generated_Source\PSoC6\pdl\drivers\peripheral\profile/cy_profile.h **** *   </tr>
 143:Generated_Source\PSoC6\pdl\drivers\peripheral\profile/cy_profile.h **** *   <tr>
 144:Generated_Source\PSoC6\pdl\drivers\peripheral\profile/cy_profile.h **** *     <td>12.4</td>
 145:Generated_Source\PSoC6\pdl\drivers\peripheral\profile/cy_profile.h **** *     <td>R</td>
 146:Generated_Source\PSoC6\pdl\drivers\peripheral\profile/cy_profile.h **** *     <td>Right hand operand of '&&' or '||' is an expression with possible side effects.</td>
 147:Generated_Source\PSoC6\pdl\drivers\peripheral\profile/cy_profile.h **** *     <td>Function-like macros are used to achieve more efficient code.</td>
 148:Generated_Source\PSoC6\pdl\drivers\peripheral\profile/cy_profile.h **** *   </tr>
 149:Generated_Source\PSoC6\pdl\drivers\peripheral\profile/cy_profile.h **** *   <tr>
 150:Generated_Source\PSoC6\pdl\drivers\peripheral\profile/cy_profile.h **** *     <td>16.7</td>
 151:Generated_Source\PSoC6\pdl\drivers\peripheral\profile/cy_profile.h **** *     <td>A</td>
 152:Generated_Source\PSoC6\pdl\drivers\peripheral\profile/cy_profile.h **** *     <td>A pointer parameter can be of type 'pointer to const'.</td>
 153:Generated_Source\PSoC6\pdl\drivers\peripheral\profile/cy_profile.h **** *     <td>The pointer is cast for comparison purposes and thus can't be a const.</td>
 154:Generated_Source\PSoC6\pdl\drivers\peripheral\profile/cy_profile.h **** *   </tr>
 155:Generated_Source\PSoC6\pdl\drivers\peripheral\profile/cy_profile.h **** * </table>
 156:Generated_Source\PSoC6\pdl\drivers\peripheral\profile/cy_profile.h **** *
 157:Generated_Source\PSoC6\pdl\drivers\peripheral\profile/cy_profile.h **** * \section group_profile_changelog Changelog
 158:Generated_Source\PSoC6\pdl\drivers\peripheral\profile/cy_profile.h **** * <table class="doxtable">
 159:Generated_Source\PSoC6\pdl\drivers\peripheral\profile/cy_profile.h **** *   <tr><th>Version</th><th>Changes</th><th>Reason for Change</th></tr>
 160:Generated_Source\PSoC6\pdl\drivers\peripheral\profile/cy_profile.h **** *   <tr>
 161:Generated_Source\PSoC6\pdl\drivers\peripheral\profile/cy_profile.h **** *     <td>1.0</td>
 162:Generated_Source\PSoC6\pdl\drivers\peripheral\profile/cy_profile.h **** *     <td>Initial version</td>
 163:Generated_Source\PSoC6\pdl\drivers\peripheral\profile/cy_profile.h **** *     <td></td>
 164:Generated_Source\PSoC6\pdl\drivers\peripheral\profile/cy_profile.h **** *   </tr>
 165:Generated_Source\PSoC6\pdl\drivers\peripheral\profile/cy_profile.h **** * </table>
 166:Generated_Source\PSoC6\pdl\drivers\peripheral\profile/cy_profile.h **** *
 167:Generated_Source\PSoC6\pdl\drivers\peripheral\profile/cy_profile.h **** * \defgroup group_profile_macros Macros
 168:Generated_Source\PSoC6\pdl\drivers\peripheral\profile/cy_profile.h **** * \defgroup group_profile_functions Functions
 169:Generated_Source\PSoC6\pdl\drivers\peripheral\profile/cy_profile.h **** * \{
 170:Generated_Source\PSoC6\pdl\drivers\peripheral\profile/cy_profile.h **** *   \defgroup group_profile_functions_interrupt    Interrupt Functions
 171:Generated_Source\PSoC6\pdl\drivers\peripheral\profile/cy_profile.h **** *   \defgroup group_profile_functions_general      General Functions
 172:Generated_Source\PSoC6\pdl\drivers\peripheral\profile/cy_profile.h **** *   \defgroup group_profile_functions_counter      Counter Functions
 173:Generated_Source\PSoC6\pdl\drivers\peripheral\profile/cy_profile.h **** *   \defgroup group_profile_functions_calculation  Calculation Functions
 174:Generated_Source\PSoC6\pdl\drivers\peripheral\profile/cy_profile.h **** * \}
 175:Generated_Source\PSoC6\pdl\drivers\peripheral\profile/cy_profile.h **** * \defgroup group_profile_data_structures Data Structures
 176:Generated_Source\PSoC6\pdl\drivers\peripheral\profile/cy_profile.h **** * \defgroup group_profile_enums Enumerated Types
 177:Generated_Source\PSoC6\pdl\drivers\peripheral\profile/cy_profile.h **** */
 178:Generated_Source\PSoC6\pdl\drivers\peripheral\profile/cy_profile.h **** 
 179:Generated_Source\PSoC6\pdl\drivers\peripheral\profile/cy_profile.h **** #if !defined(CY_PROFILE_H)
 180:Generated_Source\PSoC6\pdl\drivers\peripheral\profile/cy_profile.h **** #define CY_PROFILE_H
 181:Generated_Source\PSoC6\pdl\drivers\peripheral\profile/cy_profile.h **** 
 182:Generated_Source\PSoC6\pdl\drivers\peripheral\profile/cy_profile.h **** #include "cy_device_headers.h"
 183:Generated_Source\PSoC6\pdl\drivers\peripheral\profile/cy_profile.h **** #include "syslib/cy_syslib.h"
 184:Generated_Source\PSoC6\pdl\drivers\peripheral\profile/cy_profile.h **** #include <stddef.h>
 185:Generated_Source\PSoC6\pdl\drivers\peripheral\profile/cy_profile.h **** 
 186:Generated_Source\PSoC6\pdl\drivers\peripheral\profile/cy_profile.h **** #ifndef CY_IP_MXPROFILE
 187:Generated_Source\PSoC6\pdl\drivers\peripheral\profile/cy_profile.h ****     #error "The PROFILE driver is not supported on this device"
ARM GAS  C:\Users\gjl\AppData\Local\Temp\cct3iP5Z.s 			page 11


 188:Generated_Source\PSoC6\pdl\drivers\peripheral\profile/cy_profile.h **** #endif
 189:Generated_Source\PSoC6\pdl\drivers\peripheral\profile/cy_profile.h **** 
 190:Generated_Source\PSoC6\pdl\drivers\peripheral\profile/cy_profile.h **** #if defined(__cplusplus)
 191:Generated_Source\PSoC6\pdl\drivers\peripheral\profile/cy_profile.h **** extern "C" {
 192:Generated_Source\PSoC6\pdl\drivers\peripheral\profile/cy_profile.h **** #endif /* __cplusplus */
 193:Generated_Source\PSoC6\pdl\drivers\peripheral\profile/cy_profile.h **** 
 194:Generated_Source\PSoC6\pdl\drivers\peripheral\profile/cy_profile.h **** /** \addtogroup group_profile_macros
 195:Generated_Source\PSoC6\pdl\drivers\peripheral\profile/cy_profile.h **** * \{
 196:Generated_Source\PSoC6\pdl\drivers\peripheral\profile/cy_profile.h **** */
 197:Generated_Source\PSoC6\pdl\drivers\peripheral\profile/cy_profile.h **** 
 198:Generated_Source\PSoC6\pdl\drivers\peripheral\profile/cy_profile.h **** /** Driver major version */
 199:Generated_Source\PSoC6\pdl\drivers\peripheral\profile/cy_profile.h **** #define CY_PROFILE_DRV_VERSION_MAJOR  1
 200:Generated_Source\PSoC6\pdl\drivers\peripheral\profile/cy_profile.h **** 
 201:Generated_Source\PSoC6\pdl\drivers\peripheral\profile/cy_profile.h **** /** Driver minor version */
 202:Generated_Source\PSoC6\pdl\drivers\peripheral\profile/cy_profile.h **** #define CY_PROFILE_DRV_VERSION_MINOR  0
 203:Generated_Source\PSoC6\pdl\drivers\peripheral\profile/cy_profile.h **** 
 204:Generated_Source\PSoC6\pdl\drivers\peripheral\profile/cy_profile.h **** /** Profile driver identifier */
 205:Generated_Source\PSoC6\pdl\drivers\peripheral\profile/cy_profile.h **** #define CY_PROFILE_ID   CY_PDL_DRV_ID(0x1EU)
 206:Generated_Source\PSoC6\pdl\drivers\peripheral\profile/cy_profile.h **** 
 207:Generated_Source\PSoC6\pdl\drivers\peripheral\profile/cy_profile.h **** /** Start profiling command for the CMD register */
 208:Generated_Source\PSoC6\pdl\drivers\peripheral\profile/cy_profile.h **** #define CY_PROFILE_START_TR    1UL  
 209:Generated_Source\PSoC6\pdl\drivers\peripheral\profile/cy_profile.h **** 
 210:Generated_Source\PSoC6\pdl\drivers\peripheral\profile/cy_profile.h **** /** Stop profiling command for the CMD register */
 211:Generated_Source\PSoC6\pdl\drivers\peripheral\profile/cy_profile.h **** #define CY_PROFILE_STOP_TR     2UL  
 212:Generated_Source\PSoC6\pdl\drivers\peripheral\profile/cy_profile.h **** 
 213:Generated_Source\PSoC6\pdl\drivers\peripheral\profile/cy_profile.h **** /** Command to clear all counter registers to 0 */
 214:Generated_Source\PSoC6\pdl\drivers\peripheral\profile/cy_profile.h **** #define CY_PROFILE_CLR_ALL_CNT 0x100UL
 215:Generated_Source\PSoC6\pdl\drivers\peripheral\profile/cy_profile.h **** 
 216:Generated_Source\PSoC6\pdl\drivers\peripheral\profile/cy_profile.h **** /** \} group_profile_macros */
 217:Generated_Source\PSoC6\pdl\drivers\peripheral\profile/cy_profile.h **** 
 218:Generated_Source\PSoC6\pdl\drivers\peripheral\profile/cy_profile.h **** /**
 219:Generated_Source\PSoC6\pdl\drivers\peripheral\profile/cy_profile.h **** * \addtogroup group_profile_enums
 220:Generated_Source\PSoC6\pdl\drivers\peripheral\profile/cy_profile.h **** * \{
 221:Generated_Source\PSoC6\pdl\drivers\peripheral\profile/cy_profile.h **** */
 222:Generated_Source\PSoC6\pdl\drivers\peripheral\profile/cy_profile.h **** 
 223:Generated_Source\PSoC6\pdl\drivers\peripheral\profile/cy_profile.h **** /**
 224:Generated_Source\PSoC6\pdl\drivers\peripheral\profile/cy_profile.h **** * Profile counter reference clock source. Used when duration monitoring.
 225:Generated_Source\PSoC6\pdl\drivers\peripheral\profile/cy_profile.h **** */
 226:Generated_Source\PSoC6\pdl\drivers\peripheral\profile/cy_profile.h **** typedef enum 
 227:Generated_Source\PSoC6\pdl\drivers\peripheral\profile/cy_profile.h **** {
 228:Generated_Source\PSoC6\pdl\drivers\peripheral\profile/cy_profile.h ****     CY_PROFILE_CLK_TIMER  = 0, /**< Timer clock (TimerClk) */
 229:Generated_Source\PSoC6\pdl\drivers\peripheral\profile/cy_profile.h ****     CY_PROFILE_CLK_IMO    = 1, /**< Internal main oscillator (IMO) */
 230:Generated_Source\PSoC6\pdl\drivers\peripheral\profile/cy_profile.h ****     CY_PROFILE_CLK_ECO    = 2, /**< External crystal oscillator (ECO) */
 231:Generated_Source\PSoC6\pdl\drivers\peripheral\profile/cy_profile.h ****     CY_PROFILE_CLK_LF     = 3, /**< Low-frequency clock (LFCLK) */
 232:Generated_Source\PSoC6\pdl\drivers\peripheral\profile/cy_profile.h ****     CY_PROFILE_CLK_HF     = 4, /**< High-Frequency clock (HFCLK0) */
 233:Generated_Source\PSoC6\pdl\drivers\peripheral\profile/cy_profile.h ****     CY_PROFILE_CLK_PERI   = 5, /**< Peripheral clock (PeriClk) */
 234:Generated_Source\PSoC6\pdl\drivers\peripheral\profile/cy_profile.h **** } cy_en_profile_ref_clk_t;
 235:Generated_Source\PSoC6\pdl\drivers\peripheral\profile/cy_profile.h **** 
 236:Generated_Source\PSoC6\pdl\drivers\peripheral\profile/cy_profile.h **** /**
 237:Generated_Source\PSoC6\pdl\drivers\peripheral\profile/cy_profile.h **** * Monitor method type.
 238:Generated_Source\PSoC6\pdl\drivers\peripheral\profile/cy_profile.h **** */
 239:Generated_Source\PSoC6\pdl\drivers\peripheral\profile/cy_profile.h **** typedef enum 
 240:Generated_Source\PSoC6\pdl\drivers\peripheral\profile/cy_profile.h **** {
 241:Generated_Source\PSoC6\pdl\drivers\peripheral\profile/cy_profile.h ****     CY_PROFILE_EVENT    = 0,  /**< Count (edge-detected) module events  */
 242:Generated_Source\PSoC6\pdl\drivers\peripheral\profile/cy_profile.h ****     CY_PROFILE_DURATION = 1,  /**< Count (level) duration in clock cycles */
 243:Generated_Source\PSoC6\pdl\drivers\peripheral\profile/cy_profile.h **** } cy_en_profile_duration_t;
 244:Generated_Source\PSoC6\pdl\drivers\peripheral\profile/cy_profile.h **** 
ARM GAS  C:\Users\gjl\AppData\Local\Temp\cct3iP5Z.s 			page 12


 245:Generated_Source\PSoC6\pdl\drivers\peripheral\profile/cy_profile.h **** /** Profiler status codes */
 246:Generated_Source\PSoC6\pdl\drivers\peripheral\profile/cy_profile.h **** typedef enum 
 247:Generated_Source\PSoC6\pdl\drivers\peripheral\profile/cy_profile.h **** {
 248:Generated_Source\PSoC6\pdl\drivers\peripheral\profile/cy_profile.h ****     CY_PROFILE_SUCCESS = 0x00U,                                      /**< Operation completed succe
 249:Generated_Source\PSoC6\pdl\drivers\peripheral\profile/cy_profile.h ****     CY_PROFILE_BAD_PARAM = CY_PROFILE_ID | CY_PDL_STATUS_ERROR | 1UL /**< Invalid input parameters 
 250:Generated_Source\PSoC6\pdl\drivers\peripheral\profile/cy_profile.h **** 
 251:Generated_Source\PSoC6\pdl\drivers\peripheral\profile/cy_profile.h ****  } cy_en_profile_status_t;
 252:Generated_Source\PSoC6\pdl\drivers\peripheral\profile/cy_profile.h **** 
 253:Generated_Source\PSoC6\pdl\drivers\peripheral\profile/cy_profile.h ****  /** \} group_profile_enums */
 254:Generated_Source\PSoC6\pdl\drivers\peripheral\profile/cy_profile.h **** 
 255:Generated_Source\PSoC6\pdl\drivers\peripheral\profile/cy_profile.h **** /**
 256:Generated_Source\PSoC6\pdl\drivers\peripheral\profile/cy_profile.h **** * \addtogroup group_profile_data_structures
 257:Generated_Source\PSoC6\pdl\drivers\peripheral\profile/cy_profile.h **** * \{
 258:Generated_Source\PSoC6\pdl\drivers\peripheral\profile/cy_profile.h **** */
 259:Generated_Source\PSoC6\pdl\drivers\peripheral\profile/cy_profile.h **** 
 260:Generated_Source\PSoC6\pdl\drivers\peripheral\profile/cy_profile.h **** /**
 261:Generated_Source\PSoC6\pdl\drivers\peripheral\profile/cy_profile.h **** * Profile counter control register structure. For each counter, holds the CTL register fields.
 262:Generated_Source\PSoC6\pdl\drivers\peripheral\profile/cy_profile.h **** */
 263:Generated_Source\PSoC6\pdl\drivers\peripheral\profile/cy_profile.h **** typedef struct
 264:Generated_Source\PSoC6\pdl\drivers\peripheral\profile/cy_profile.h **** {
 265:Generated_Source\PSoC6\pdl\drivers\peripheral\profile/cy_profile.h ****     cy_en_profile_duration_t  cntDuration; /**< 0 = event; 1 = duration */
 266:Generated_Source\PSoC6\pdl\drivers\peripheral\profile/cy_profile.h ****     cy_en_profile_ref_clk_t   refClkSel;   /**< The reference clock used by the counter */
 267:Generated_Source\PSoC6\pdl\drivers\peripheral\profile/cy_profile.h ****     en_ep_mon_sel_t           monSel;      /**< The monitor signal to be observed by the counter */
 268:Generated_Source\PSoC6\pdl\drivers\peripheral\profile/cy_profile.h **** } cy_stc_profile_ctr_ctl_t; 
 269:Generated_Source\PSoC6\pdl\drivers\peripheral\profile/cy_profile.h **** 
 270:Generated_Source\PSoC6\pdl\drivers\peripheral\profile/cy_profile.h **** /**
 271:Generated_Source\PSoC6\pdl\drivers\peripheral\profile/cy_profile.h **** * Software structure for holding a profile counter status and configuration information.
 272:Generated_Source\PSoC6\pdl\drivers\peripheral\profile/cy_profile.h **** */
 273:Generated_Source\PSoC6\pdl\drivers\peripheral\profile/cy_profile.h **** typedef struct
 274:Generated_Source\PSoC6\pdl\drivers\peripheral\profile/cy_profile.h **** {
 275:Generated_Source\PSoC6\pdl\drivers\peripheral\profile/cy_profile.h ****     uint8_t                   ctrNum;      /**< Profile counter number */ 
 276:Generated_Source\PSoC6\pdl\drivers\peripheral\profile/cy_profile.h ****     uint8_t                   used;        /**< 0 = available; 1 = used */
 277:Generated_Source\PSoC6\pdl\drivers\peripheral\profile/cy_profile.h ****     cy_stc_profile_ctr_ctl_t  ctlRegVals;  /**< Initial counter CTL register settings */
 278:Generated_Source\PSoC6\pdl\drivers\peripheral\profile/cy_profile.h ****     PROFILE_CNT_STRUCT_Type * cntAddr;     /**< Base address of the counter instance registers */
 279:Generated_Source\PSoC6\pdl\drivers\peripheral\profile/cy_profile.h ****     uint32_t                  ctlReg;      /**< Current CTL register value */
 280:Generated_Source\PSoC6\pdl\drivers\peripheral\profile/cy_profile.h ****     uint32_t                  cntReg;      /**< Current CNT register value */
 281:Generated_Source\PSoC6\pdl\drivers\peripheral\profile/cy_profile.h ****     uint32_t                  overflow;    /**< Extension of cntReg to form a 64-bit counter value 
 282:Generated_Source\PSoC6\pdl\drivers\peripheral\profile/cy_profile.h ****     uint32_t                  weight;      /**< Weighting factor for the counter */
 283:Generated_Source\PSoC6\pdl\drivers\peripheral\profile/cy_profile.h **** } cy_stc_profile_ctr_t;
 284:Generated_Source\PSoC6\pdl\drivers\peripheral\profile/cy_profile.h **** 
 285:Generated_Source\PSoC6\pdl\drivers\peripheral\profile/cy_profile.h **** /**
 286:Generated_Source\PSoC6\pdl\drivers\peripheral\profile/cy_profile.h **** * Pointer to a structure holding the status information for a profile counter.
 287:Generated_Source\PSoC6\pdl\drivers\peripheral\profile/cy_profile.h **** */
 288:Generated_Source\PSoC6\pdl\drivers\peripheral\profile/cy_profile.h **** typedef cy_stc_profile_ctr_t * cy_stc_profile_ctr_ptr_t;
 289:Generated_Source\PSoC6\pdl\drivers\peripheral\profile/cy_profile.h **** /** \} group_profile_data_structures */
 290:Generated_Source\PSoC6\pdl\drivers\peripheral\profile/cy_profile.h **** 
 291:Generated_Source\PSoC6\pdl\drivers\peripheral\profile/cy_profile.h **** /**
 292:Generated_Source\PSoC6\pdl\drivers\peripheral\profile/cy_profile.h **** * \addtogroup group_profile_functions
 293:Generated_Source\PSoC6\pdl\drivers\peripheral\profile/cy_profile.h **** * \{
 294:Generated_Source\PSoC6\pdl\drivers\peripheral\profile/cy_profile.h **** */
 295:Generated_Source\PSoC6\pdl\drivers\peripheral\profile/cy_profile.h **** 
 296:Generated_Source\PSoC6\pdl\drivers\peripheral\profile/cy_profile.h **** /**
 297:Generated_Source\PSoC6\pdl\drivers\peripheral\profile/cy_profile.h **** * \addtogroup group_profile_functions_interrupt
 298:Generated_Source\PSoC6\pdl\drivers\peripheral\profile/cy_profile.h **** * \{
 299:Generated_Source\PSoC6\pdl\drivers\peripheral\profile/cy_profile.h **** */
 300:Generated_Source\PSoC6\pdl\drivers\peripheral\profile/cy_profile.h **** /* ========================================================================== */
 301:Generated_Source\PSoC6\pdl\drivers\peripheral\profile/cy_profile.h **** /* ====================    INTERRUPT FUNCTION SECTION    ==================== */
ARM GAS  C:\Users\gjl\AppData\Local\Temp\cct3iP5Z.s 			page 13


 302:Generated_Source\PSoC6\pdl\drivers\peripheral\profile/cy_profile.h **** /* ========================================================================== */
 303:Generated_Source\PSoC6\pdl\drivers\peripheral\profile/cy_profile.h **** void Cy_Profile_ISR(void);
 304:Generated_Source\PSoC6\pdl\drivers\peripheral\profile/cy_profile.h **** /** \} group_profile_functions_interrupt */
 305:Generated_Source\PSoC6\pdl\drivers\peripheral\profile/cy_profile.h **** 
 306:Generated_Source\PSoC6\pdl\drivers\peripheral\profile/cy_profile.h **** /**
 307:Generated_Source\PSoC6\pdl\drivers\peripheral\profile/cy_profile.h **** * \addtogroup group_profile_functions_general
 308:Generated_Source\PSoC6\pdl\drivers\peripheral\profile/cy_profile.h **** * \{
 309:Generated_Source\PSoC6\pdl\drivers\peripheral\profile/cy_profile.h **** */
 310:Generated_Source\PSoC6\pdl\drivers\peripheral\profile/cy_profile.h **** __STATIC_INLINE void Cy_Profile_Init(void);
 311:Generated_Source\PSoC6\pdl\drivers\peripheral\profile/cy_profile.h **** __STATIC_INLINE void Cy_Profile_DeInit(void);
 312:Generated_Source\PSoC6\pdl\drivers\peripheral\profile/cy_profile.h **** void Cy_Profile_StartProfiling(void);
 313:Generated_Source\PSoC6\pdl\drivers\peripheral\profile/cy_profile.h **** __STATIC_INLINE void Cy_Profile_DeInit(void);
 314:Generated_Source\PSoC6\pdl\drivers\peripheral\profile/cy_profile.h **** __STATIC_INLINE void Cy_Profile_StopProfiling(void);
 315:Generated_Source\PSoC6\pdl\drivers\peripheral\profile/cy_profile.h **** __STATIC_INLINE uint32_t Cy_Profile_IsProfiling(void);
 316:Generated_Source\PSoC6\pdl\drivers\peripheral\profile/cy_profile.h **** 
 317:Generated_Source\PSoC6\pdl\drivers\peripheral\profile/cy_profile.h **** 
 318:Generated_Source\PSoC6\pdl\drivers\peripheral\profile/cy_profile.h **** /* ========================================================================== */
 319:Generated_Source\PSoC6\pdl\drivers\peripheral\profile/cy_profile.h **** /* ===============    GENERAL PROFILE FUNCTIONS SECTION     ================= */
 320:Generated_Source\PSoC6\pdl\drivers\peripheral\profile/cy_profile.h **** /* ========================================================================== */
 321:Generated_Source\PSoC6\pdl\drivers\peripheral\profile/cy_profile.h **** /*******************************************************************************
 322:Generated_Source\PSoC6\pdl\drivers\peripheral\profile/cy_profile.h **** * Function Name: Cy_Profile_Init
 323:Generated_Source\PSoC6\pdl\drivers\peripheral\profile/cy_profile.h **** ****************************************************************************//**
 324:Generated_Source\PSoC6\pdl\drivers\peripheral\profile/cy_profile.h **** *
 325:Generated_Source\PSoC6\pdl\drivers\peripheral\profile/cy_profile.h **** * Initializes and enables the profile hardware. 
 326:Generated_Source\PSoC6\pdl\drivers\peripheral\profile/cy_profile.h **** *
 327:Generated_Source\PSoC6\pdl\drivers\peripheral\profile/cy_profile.h **** * This function must be called once when energy profiling is desired. The 
 328:Generated_Source\PSoC6\pdl\drivers\peripheral\profile/cy_profile.h **** * operation does not start a profiling session.
 329:Generated_Source\PSoC6\pdl\drivers\peripheral\profile/cy_profile.h **** *
 330:Generated_Source\PSoC6\pdl\drivers\peripheral\profile/cy_profile.h **** * \note The profile interrupt must also be configured. \ref Cy_Profile_ISR() 
 331:Generated_Source\PSoC6\pdl\drivers\peripheral\profile/cy_profile.h **** * can be used as its handler.
 332:Generated_Source\PSoC6\pdl\drivers\peripheral\profile/cy_profile.h **** *
 333:Generated_Source\PSoC6\pdl\drivers\peripheral\profile/cy_profile.h **** * \funcusage
 334:Generated_Source\PSoC6\pdl\drivers\peripheral\profile/cy_profile.h **** * \snippet profile/profile_v1_0_sut_01.cydsn/main_cm4.c snippet_Cy_Profile_Init
 335:Generated_Source\PSoC6\pdl\drivers\peripheral\profile/cy_profile.h **** *
 336:Generated_Source\PSoC6\pdl\drivers\peripheral\profile/cy_profile.h **** *******************************************************************************/
 337:Generated_Source\PSoC6\pdl\drivers\peripheral\profile/cy_profile.h **** __STATIC_INLINE void Cy_Profile_Init(void)
 338:Generated_Source\PSoC6\pdl\drivers\peripheral\profile/cy_profile.h **** {
 339:Generated_Source\PSoC6\pdl\drivers\peripheral\profile/cy_profile.h ****     PROFILE->CTL = _VAL2FLD(PROFILE_CTL_ENABLED,  1UL/*enabled */) | 
 340:Generated_Source\PSoC6\pdl\drivers\peripheral\profile/cy_profile.h ****                    _VAL2FLD(PROFILE_CTL_WIN_MODE, 0UL/*start/stop mode*/);
 341:Generated_Source\PSoC6\pdl\drivers\peripheral\profile/cy_profile.h ****     PROFILE->INTR_MASK = 0UL; /* clear all counter interrupt mask bits */
 342:Generated_Source\PSoC6\pdl\drivers\peripheral\profile/cy_profile.h **** }
 343:Generated_Source\PSoC6\pdl\drivers\peripheral\profile/cy_profile.h **** 
 344:Generated_Source\PSoC6\pdl\drivers\peripheral\profile/cy_profile.h **** 
 345:Generated_Source\PSoC6\pdl\drivers\peripheral\profile/cy_profile.h **** /*******************************************************************************
 346:Generated_Source\PSoC6\pdl\drivers\peripheral\profile/cy_profile.h **** * Function Name: Cy_Profile_DeInit
 347:Generated_Source\PSoC6\pdl\drivers\peripheral\profile/cy_profile.h **** ****************************************************************************//**
 348:Generated_Source\PSoC6\pdl\drivers\peripheral\profile/cy_profile.h **** *
 349:Generated_Source\PSoC6\pdl\drivers\peripheral\profile/cy_profile.h **** * Clears the interrupt mask and disables the profile hardware. 
 350:Generated_Source\PSoC6\pdl\drivers\peripheral\profile/cy_profile.h **** *
 351:Generated_Source\PSoC6\pdl\drivers\peripheral\profile/cy_profile.h **** * This function should be called when energy profiling is no longer desired.
 352:Generated_Source\PSoC6\pdl\drivers\peripheral\profile/cy_profile.h **** *
 353:Generated_Source\PSoC6\pdl\drivers\peripheral\profile/cy_profile.h **** * \note The profile interrupt is not disabled by this operation and must be
 354:Generated_Source\PSoC6\pdl\drivers\peripheral\profile/cy_profile.h **** * disabled separately.
 355:Generated_Source\PSoC6\pdl\drivers\peripheral\profile/cy_profile.h **** *
 356:Generated_Source\PSoC6\pdl\drivers\peripheral\profile/cy_profile.h **** * \funcusage
 357:Generated_Source\PSoC6\pdl\drivers\peripheral\profile/cy_profile.h **** * \snippet profile/profile_v1_0_sut_01.cydsn/main_cm4.c snippet_Cy_Profile_DeInit
 358:Generated_Source\PSoC6\pdl\drivers\peripheral\profile/cy_profile.h **** *
ARM GAS  C:\Users\gjl\AppData\Local\Temp\cct3iP5Z.s 			page 14


 359:Generated_Source\PSoC6\pdl\drivers\peripheral\profile/cy_profile.h **** *******************************************************************************/
 360:Generated_Source\PSoC6\pdl\drivers\peripheral\profile/cy_profile.h **** __STATIC_INLINE void Cy_Profile_DeInit(void)
 361:Generated_Source\PSoC6\pdl\drivers\peripheral\profile/cy_profile.h **** {
 362:Generated_Source\PSoC6\pdl\drivers\peripheral\profile/cy_profile.h ****     PROFILE->CTL = _VAL2FLD(PROFILE_CTL_ENABLED, 0UL/*disabled */);
 363:Generated_Source\PSoC6\pdl\drivers\peripheral\profile/cy_profile.h ****     PROFILE->INTR_MASK = 0UL; /* clear all counter interrupt mask bits */
 364:Generated_Source\PSoC6\pdl\drivers\peripheral\profile/cy_profile.h **** }
 365:Generated_Source\PSoC6\pdl\drivers\peripheral\profile/cy_profile.h **** 
 366:Generated_Source\PSoC6\pdl\drivers\peripheral\profile/cy_profile.h **** 
 367:Generated_Source\PSoC6\pdl\drivers\peripheral\profile/cy_profile.h **** /*******************************************************************************
 368:Generated_Source\PSoC6\pdl\drivers\peripheral\profile/cy_profile.h **** * Function Name: Cy_Profile_StopProfiling
 369:Generated_Source\PSoC6\pdl\drivers\peripheral\profile/cy_profile.h **** ****************************************************************************//**
 370:Generated_Source\PSoC6\pdl\drivers\peripheral\profile/cy_profile.h **** *
 371:Generated_Source\PSoC6\pdl\drivers\peripheral\profile/cy_profile.h **** * Stops the profiling/measurement window.
 372:Generated_Source\PSoC6\pdl\drivers\peripheral\profile/cy_profile.h **** *
 373:Generated_Source\PSoC6\pdl\drivers\peripheral\profile/cy_profile.h **** * This operation prevents the enabled profile counters from counting.
 374:Generated_Source\PSoC6\pdl\drivers\peripheral\profile/cy_profile.h **** *
 375:Generated_Source\PSoC6\pdl\drivers\peripheral\profile/cy_profile.h **** * \note The profile interrupt should be disabled before calling this function.
 376:Generated_Source\PSoC6\pdl\drivers\peripheral\profile/cy_profile.h **** *
 377:Generated_Source\PSoC6\pdl\drivers\peripheral\profile/cy_profile.h **** * \funcusage
 378:Generated_Source\PSoC6\pdl\drivers\peripheral\profile/cy_profile.h **** * \snippet profile/profile_v1_0_sut_01.cydsn/main_cm4.c snippet_Cy_Profile_StopProfiling
 379:Generated_Source\PSoC6\pdl\drivers\peripheral\profile/cy_profile.h **** *
 380:Generated_Source\PSoC6\pdl\drivers\peripheral\profile/cy_profile.h **** *******************************************************************************/
 381:Generated_Source\PSoC6\pdl\drivers\peripheral\profile/cy_profile.h **** __STATIC_INLINE void Cy_Profile_StopProfiling(void)
 382:Generated_Source\PSoC6\pdl\drivers\peripheral\profile/cy_profile.h **** {
 383:Generated_Source\PSoC6\pdl\drivers\peripheral\profile/cy_profile.h ****     PROFILE->CMD = CY_PROFILE_STOP_TR;
 384:Generated_Source\PSoC6\pdl\drivers\peripheral\profile/cy_profile.h **** }
 385:Generated_Source\PSoC6\pdl\drivers\peripheral\profile/cy_profile.h **** 
 386:Generated_Source\PSoC6\pdl\drivers\peripheral\profile/cy_profile.h **** 
 387:Generated_Source\PSoC6\pdl\drivers\peripheral\profile/cy_profile.h **** /*******************************************************************************
 388:Generated_Source\PSoC6\pdl\drivers\peripheral\profile/cy_profile.h **** * Function Name: Cy_Profile_IsProfiling
 389:Generated_Source\PSoC6\pdl\drivers\peripheral\profile/cy_profile.h **** ****************************************************************************//**
 390:Generated_Source\PSoC6\pdl\drivers\peripheral\profile/cy_profile.h **** *
 391:Generated_Source\PSoC6\pdl\drivers\peripheral\profile/cy_profile.h **** * Reports the active status of the profiling window.
 392:Generated_Source\PSoC6\pdl\drivers\peripheral\profile/cy_profile.h **** *
 393:Generated_Source\PSoC6\pdl\drivers\peripheral\profile/cy_profile.h **** * \return 0 = profiling is not active; 1 = profiling is active
 394:Generated_Source\PSoC6\pdl\drivers\peripheral\profile/cy_profile.h **** *
 395:Generated_Source\PSoC6\pdl\drivers\peripheral\profile/cy_profile.h **** * \funcusage
 396:Generated_Source\PSoC6\pdl\drivers\peripheral\profile/cy_profile.h **** * \snippet profile/profile_v1_0_sut_01.cydsn/main_cm4.c snippet_Cy_Profile_IsProfiling
 397:Generated_Source\PSoC6\pdl\drivers\peripheral\profile/cy_profile.h **** *
 398:Generated_Source\PSoC6\pdl\drivers\peripheral\profile/cy_profile.h **** *******************************************************************************/
 399:Generated_Source\PSoC6\pdl\drivers\peripheral\profile/cy_profile.h **** __STATIC_INLINE uint32_t Cy_Profile_IsProfiling(void)
 400:Generated_Source\PSoC6\pdl\drivers\peripheral\profile/cy_profile.h **** {
 401:Generated_Source\PSoC6\pdl\drivers\peripheral\profile/cy_profile.h ****     return _FLD2VAL(PROFILE_STATUS_WIN_ACTIVE, PROFILE->STATUS);
 402:Generated_Source\PSoC6\pdl\drivers\peripheral\profile/cy_profile.h **** }
 403:Generated_Source\PSoC6\pdl\drivers\peripheral\profile/cy_profile.h **** /** \} group_profile_functions_general */
 404:Generated_Source\PSoC6\pdl\drivers\peripheral\profile/cy_profile.h **** 
 405:Generated_Source\PSoC6\pdl\drivers\peripheral\profile/cy_profile.h **** /**
 406:Generated_Source\PSoC6\pdl\drivers\peripheral\profile/cy_profile.h **** * \addtogroup group_profile_functions_counter
 407:Generated_Source\PSoC6\pdl\drivers\peripheral\profile/cy_profile.h **** * \{
 408:Generated_Source\PSoC6\pdl\drivers\peripheral\profile/cy_profile.h **** */
 409:Generated_Source\PSoC6\pdl\drivers\peripheral\profile/cy_profile.h **** void Cy_Profile_ClearConfiguration(void);
 410:Generated_Source\PSoC6\pdl\drivers\peripheral\profile/cy_profile.h **** __STATIC_INLINE void Cy_Profile_ClearCounters(void);
 411:Generated_Source\PSoC6\pdl\drivers\peripheral\profile/cy_profile.h **** cy_stc_profile_ctr_ptr_t Cy_Profile_ConfigureCounter(en_ep_mon_sel_t monitor, cy_en_profile_duratio
 412:Generated_Source\PSoC6\pdl\drivers\peripheral\profile/cy_profile.h **** cy_en_profile_status_t Cy_Profile_FreeCounter(cy_stc_profile_ctr_ptr_t ctrAddr);
 413:Generated_Source\PSoC6\pdl\drivers\peripheral\profile/cy_profile.h **** cy_en_profile_status_t Cy_Profile_EnableCounter(cy_stc_profile_ctr_ptr_t ctrAddr);
 414:Generated_Source\PSoC6\pdl\drivers\peripheral\profile/cy_profile.h **** cy_en_profile_status_t Cy_Profile_DisableCounter(cy_stc_profile_ctr_ptr_t ctrAddr);
 415:Generated_Source\PSoC6\pdl\drivers\peripheral\profile/cy_profile.h **** 
ARM GAS  C:\Users\gjl\AppData\Local\Temp\cct3iP5Z.s 			page 15


 416:Generated_Source\PSoC6\pdl\drivers\peripheral\profile/cy_profile.h **** /* ========================================================================== */
 417:Generated_Source\PSoC6\pdl\drivers\peripheral\profile/cy_profile.h **** /* ===================    COUNTER FUNCTIONS SECTION    ====================== */
 418:Generated_Source\PSoC6\pdl\drivers\peripheral\profile/cy_profile.h **** /* ========================================================================== */
 419:Generated_Source\PSoC6\pdl\drivers\peripheral\profile/cy_profile.h **** /*******************************************************************************
 420:Generated_Source\PSoC6\pdl\drivers\peripheral\profile/cy_profile.h **** * Function Name: Cy_Profile_ClearCounters
 421:Generated_Source\PSoC6\pdl\drivers\peripheral\profile/cy_profile.h **** ****************************************************************************//**
 422:Generated_Source\PSoC6\pdl\drivers\peripheral\profile/cy_profile.h **** *
 423:Generated_Source\PSoC6\pdl\drivers\peripheral\profile/cy_profile.h **** * Clears all hardware counters to 0.
 424:Generated_Source\PSoC6\pdl\drivers\peripheral\profile/cy_profile.h **** *
 425:Generated_Source\PSoC6\pdl\drivers\peripheral\profile/cy_profile.h **** * \funcusage
 426:Generated_Source\PSoC6\pdl\drivers\peripheral\profile/cy_profile.h **** * \snippet profile/profile_v1_0_sut_01.cydsn/main_cm4.c snippet_Cy_Profile_ClearCounters
 427:Generated_Source\PSoC6\pdl\drivers\peripheral\profile/cy_profile.h **** *
 428:Generated_Source\PSoC6\pdl\drivers\peripheral\profile/cy_profile.h **** *******************************************************************************/
 429:Generated_Source\PSoC6\pdl\drivers\peripheral\profile/cy_profile.h **** __STATIC_INLINE void Cy_Profile_ClearCounters(void)
 430:Generated_Source\PSoC6\pdl\drivers\peripheral\profile/cy_profile.h **** {
 431:Generated_Source\PSoC6\pdl\drivers\peripheral\profile/cy_profile.h ****     PROFILE->CMD = CY_PROFILE_CLR_ALL_CNT;
 229              		.loc 2 431 0
 230 000c 8022     		movs	r2, #128
 231 000e 5200     		lsls	r2, r2, #1
 232 0010 024B     		ldr	r3, .L21+4
 233 0012 1A61     		str	r2, [r3, #16]
 234              	.LBE5:
 235              	.LBE4:
 152:Generated_Source\PSoC6\pdl\drivers\peripheral\profile/cy_profile.c ****     Cy_Profile_ClearCounters();
 153:Generated_Source\PSoC6\pdl\drivers\peripheral\profile/cy_profile.c **** }
 236              		.loc 1 153 0
 237              		@ sp needed
 238 0014 10BD     		pop	{r4, pc}
 239              	.L22:
 240 0016 C046     		.align	2
 241              	.L21:
 242 0018 00000000 		.word	.LANCHOR0
 243 001c 00002D40 		.word	1076690944
 244              		.cfi_endproc
 245              	.LFE44:
 246              		.size	Cy_Profile_ClearConfiguration, .-Cy_Profile_ClearConfiguration
 247              		.section	.text.Cy_Profile_ConfigureCounter,"ax",%progbits
 248              		.align	2
 249              		.global	Cy_Profile_ConfigureCounter
 250              		.code	16
 251              		.thumb_func
 252              		.type	Cy_Profile_ConfigureCounter, %function
 253              	Cy_Profile_ConfigureCounter:
 254              	.LFB45:
 154:Generated_Source\PSoC6\pdl\drivers\peripheral\profile/cy_profile.c **** 
 155:Generated_Source\PSoC6\pdl\drivers\peripheral\profile/cy_profile.c **** 
 156:Generated_Source\PSoC6\pdl\drivers\peripheral\profile/cy_profile.c **** /*******************************************************************************
 157:Generated_Source\PSoC6\pdl\drivers\peripheral\profile/cy_profile.c **** * Function Name: Cy_Profile_ConfigureCounter
 158:Generated_Source\PSoC6\pdl\drivers\peripheral\profile/cy_profile.c **** ****************************************************************************//**
 159:Generated_Source\PSoC6\pdl\drivers\peripheral\profile/cy_profile.c **** *
 160:Generated_Source\PSoC6\pdl\drivers\peripheral\profile/cy_profile.c **** * Configures and assigns a hardware profile counter to the list of used counters.
 161:Generated_Source\PSoC6\pdl\drivers\peripheral\profile/cy_profile.c **** *
 162:Generated_Source\PSoC6\pdl\drivers\peripheral\profile/cy_profile.c **** * This function assigns an available profile counter to a slot in the internal 
 163:Generated_Source\PSoC6\pdl\drivers\peripheral\profile/cy_profile.c **** * software data structure and returns the handle for that slot location. The data
 164:Generated_Source\PSoC6\pdl\drivers\peripheral\profile/cy_profile.c **** * structure is used to keep track of the counter status and to implement a 64-bit
 165:Generated_Source\PSoC6\pdl\drivers\peripheral\profile/cy_profile.c **** * profile counter. If no counter slots are available, the function returns a
 166:Generated_Source\PSoC6\pdl\drivers\peripheral\profile/cy_profile.c **** * NULL pointer.
ARM GAS  C:\Users\gjl\AppData\Local\Temp\cct3iP5Z.s 			page 16


 167:Generated_Source\PSoC6\pdl\drivers\peripheral\profile/cy_profile.c **** * 
 168:Generated_Source\PSoC6\pdl\drivers\peripheral\profile/cy_profile.c **** * \param monitor The monitor source number
 169:Generated_Source\PSoC6\pdl\drivers\peripheral\profile/cy_profile.c **** *
 170:Generated_Source\PSoC6\pdl\drivers\peripheral\profile/cy_profile.c **** * \param duration Events are monitored (0), or duration is monitored (1)
 171:Generated_Source\PSoC6\pdl\drivers\peripheral\profile/cy_profile.c **** *
 172:Generated_Source\PSoC6\pdl\drivers\peripheral\profile/cy_profile.c **** * \param refClk Counter reference clock
 173:Generated_Source\PSoC6\pdl\drivers\peripheral\profile/cy_profile.c **** *
 174:Generated_Source\PSoC6\pdl\drivers\peripheral\profile/cy_profile.c **** * \param weight Weighting factor for the counter value
 175:Generated_Source\PSoC6\pdl\drivers\peripheral\profile/cy_profile.c **** * 
 176:Generated_Source\PSoC6\pdl\drivers\peripheral\profile/cy_profile.c **** * \return A pointer to the counter data structure. NULL if no counter is
 177:Generated_Source\PSoC6\pdl\drivers\peripheral\profile/cy_profile.c **** * available.
 178:Generated_Source\PSoC6\pdl\drivers\peripheral\profile/cy_profile.c **** *
 179:Generated_Source\PSoC6\pdl\drivers\peripheral\profile/cy_profile.c **** * \funcusage
 180:Generated_Source\PSoC6\pdl\drivers\peripheral\profile/cy_profile.c **** * \snippet profile/profile_v1_0_sut_01.cydsn/main_cm4.c snippet_Cy_Profile_ConfigureCounter
 181:Generated_Source\PSoC6\pdl\drivers\peripheral\profile/cy_profile.c **** *
 182:Generated_Source\PSoC6\pdl\drivers\peripheral\profile/cy_profile.c **** *******************************************************************************/
 183:Generated_Source\PSoC6\pdl\drivers\peripheral\profile/cy_profile.c **** cy_stc_profile_ctr_ptr_t Cy_Profile_ConfigureCounter(en_ep_mon_sel_t monitor, cy_en_profile_duratio
 184:Generated_Source\PSoC6\pdl\drivers\peripheral\profile/cy_profile.c ****                                                      cy_en_profile_ref_clk_t refClk,  uint32_t weig
 185:Generated_Source\PSoC6\pdl\drivers\peripheral\profile/cy_profile.c **** {
 255              		.loc 1 185 0
 256              		.cfi_startproc
 257              		@ args = 0, pretend = 0, frame = 8
 258              		@ frame_needed = 0, uses_anonymous_args = 0
 259              	.LVL20:
 260 0000 F0B5     		push	{r4, r5, r6, r7, lr}
 261              		.cfi_def_cfa_offset 20
 262              		.cfi_offset 4, -20
 263              		.cfi_offset 5, -16
 264              		.cfi_offset 6, -12
 265              		.cfi_offset 7, -8
 266              		.cfi_offset 14, -4
 267 0002 4746     		mov	r7, r8
 268 0004 80B4     		push	{r7}
 269              		.cfi_def_cfa_offset 24
 270              		.cfi_offset 8, -24
 271 0006 82B0     		sub	sp, sp, #8
 272              		.cfi_def_cfa_offset 32
 273 0008 9846     		mov	r8, r3
 274              	.LVL21:
 186:Generated_Source\PSoC6\pdl\drivers\peripheral\profile/cy_profile.c ****     cy_stc_profile_ctr_ptr_t retVal = NULL; /* error value if no counter is available */
 187:Generated_Source\PSoC6\pdl\drivers\peripheral\profile/cy_profile.c ****     volatile uint8_t i;
 188:Generated_Source\PSoC6\pdl\drivers\peripheral\profile/cy_profile.c ****     /* scan through the counters for an unused one */
 189:Generated_Source\PSoC6\pdl\drivers\peripheral\profile/cy_profile.c ****     for (i = 0u; (cy_ep_ctrs[i].used != 0u) && (i < CY_N_ELMTS(cy_ep_ctrs)); i++){}
 275              		.loc 1 189 0
 276 000a 0025     		movs	r5, #0
 277 000c 6C46     		mov	r4, sp
 278 000e E571     		strb	r5, [r4, #7]
 279 0010 05E0     		b	.L24
 280              	.L26:
 281              		.loc 1 189 0 is_stmt 0 discriminator 4
 282 0012 6C46     		mov	r4, sp
 283 0014 E51D     		adds	r5, r4, #7
 284 0016 E479     		ldrb	r4, [r4, #7]
 285 0018 0134     		adds	r4, r4, #1
 286 001a E4B2     		uxtb	r4, r4
 287 001c 2C70     		strb	r4, [r5]
 288              	.L24:
ARM GAS  C:\Users\gjl\AppData\Local\Temp\cct3iP5Z.s 			page 17


 289              		.loc 1 189 0 discriminator 1
 290 001e 6C46     		mov	r4, sp
 291 0020 E579     		ldrb	r5, [r4, #7]
 292 0022 EDB2     		uxtb	r5, r5
 293 0024 EC00     		lsls	r4, r5, #3
 294 0026 651B     		subs	r5, r4, r5
 295 0028 AC00     		lsls	r4, r5, #2
 296 002a 3A4D     		ldr	r5, .L29
 297 002c 2C19     		adds	r4, r5, r4
 298 002e 6478     		ldrb	r4, [r4, #1]
 299 0030 002C     		cmp	r4, #0
 300 0032 05D0     		beq	.L25
 301              		.loc 1 189 0 discriminator 3
 302 0034 6C46     		mov	r4, sp
 303 0036 0734     		adds	r4, r4, #7
 304 0038 2478     		ldrb	r4, [r4]
 305 003a E4B2     		uxtb	r4, r4
 306 003c 072C     		cmp	r4, #7
 307 003e E8D9     		bls	.L26
 308              	.L25:
 190:Generated_Source\PSoC6\pdl\drivers\peripheral\profile/cy_profile.c ****     if (i < CY_N_ELMTS(cy_ep_ctrs))
 309              		.loc 1 190 0 is_stmt 1
 310 0040 6C46     		mov	r4, sp
 311 0042 0734     		adds	r4, r4, #7
 312 0044 2478     		ldrb	r4, [r4]
 313 0046 E4B2     		uxtb	r4, r4
 314 0048 072C     		cmp	r4, #7
 315 004a 5DD8     		bhi	.L28
 191:Generated_Source\PSoC6\pdl\drivers\peripheral\profile/cy_profile.c ****     { /* found one, fill in its data structure */
 192:Generated_Source\PSoC6\pdl\drivers\peripheral\profile/cy_profile.c ****         cy_ep_ctrs[i].ctrNum = i;
 316              		.loc 1 192 0
 317 004c 6C46     		mov	r4, sp
 318 004e E679     		ldrb	r6, [r4, #7]
 319 0050 F7B2     		uxtb	r7, r6
 320 0052 E579     		ldrb	r5, [r4, #7]
 321 0054 AC46     		mov	ip, r5
 322 0056 2F4D     		ldr	r5, .L29
 323 0058 FE00     		lsls	r6, r7, #3
 324 005a F61B     		subs	r6, r6, r7
 325 005c B700     		lsls	r7, r6, #2
 326 005e 6646     		mov	r6, ip
 327 0060 EE55     		strb	r6, [r5, r7]
 193:Generated_Source\PSoC6\pdl\drivers\peripheral\profile/cy_profile.c ****         cy_ep_ctrs[i].used = 1u;
 328              		.loc 1 193 0
 329 0062 E779     		ldrb	r7, [r4, #7]
 330 0064 FFB2     		uxtb	r7, r7
 331 0066 FE00     		lsls	r6, r7, #3
 332 0068 F71B     		subs	r7, r6, r7
 333 006a BE00     		lsls	r6, r7, #2
 334 006c AE19     		adds	r6, r5, r6
 335 006e 0127     		movs	r7, #1
 336 0070 7770     		strb	r7, [r6, #1]
 194:Generated_Source\PSoC6\pdl\drivers\peripheral\profile/cy_profile.c ****         cy_ep_ctrs[i].cntAddr = (PROFILE_CNT_STRUCT_Type *)&(PROFILE->CNT_STRUCT[i]);
 337              		.loc 1 194 0
 338 0072 E679     		ldrb	r6, [r4, #7]
 339 0074 F6B2     		uxtb	r6, r6
 340 0076 B446     		mov	ip, r6
ARM GAS  C:\Users\gjl\AppData\Local\Temp\cct3iP5Z.s 			page 18


 341 0078 E679     		ldrb	r6, [r4, #7]
 342 007a 6746     		mov	r7, ip
 343 007c FF00     		lsls	r7, r7, #3
 344 007e 6346     		mov	r3, ip
 345              	.LVL22:
 346 0080 FF1A     		subs	r7, r7, r3
 347 0082 BF00     		lsls	r7, r7, #2
 348 0084 EF19     		adds	r7, r5, r7
 349 0086 3601     		lsls	r6, r6, #4
 350 0088 234B     		ldr	r3, .L29+4
 351 008a 9C46     		mov	ip, r3
 352 008c 6644     		add	r6, r6, ip
 353 008e BE60     		str	r6, [r7, #8]
 195:Generated_Source\PSoC6\pdl\drivers\peripheral\profile/cy_profile.c ****         cy_ep_ctrs[i].ctlRegVals.cntDuration = duration;
 354              		.loc 1 195 0
 355 0090 E779     		ldrb	r7, [r4, #7]
 356 0092 FFB2     		uxtb	r7, r7
 357 0094 FE00     		lsls	r6, r7, #3
 358 0096 F71B     		subs	r7, r6, r7
 359 0098 BE00     		lsls	r6, r7, #2
 360 009a AE19     		adds	r6, r5, r6
 361 009c B170     		strb	r1, [r6, #2]
 196:Generated_Source\PSoC6\pdl\drivers\peripheral\profile/cy_profile.c ****         cy_ep_ctrs[i].ctlRegVals.refClkSel = refClk;
 362              		.loc 1 196 0
 363 009e E679     		ldrb	r6, [r4, #7]
 364 00a0 F6B2     		uxtb	r6, r6
 365 00a2 F100     		lsls	r1, r6, #3
 366              	.LVL23:
 367 00a4 8E1B     		subs	r6, r1, r6
 368 00a6 B100     		lsls	r1, r6, #2
 369 00a8 6918     		adds	r1, r5, r1
 370 00aa CA70     		strb	r2, [r1, #3]
 197:Generated_Source\PSoC6\pdl\drivers\peripheral\profile/cy_profile.c ****         cy_ep_ctrs[i].ctlRegVals.monSel = monitor;
 371              		.loc 1 197 0
 372 00ac E179     		ldrb	r1, [r4, #7]
 373 00ae C9B2     		uxtb	r1, r1
 374 00b0 CA00     		lsls	r2, r1, #3
 375              	.LVL24:
 376 00b2 511A     		subs	r1, r2, r1
 377 00b4 8A00     		lsls	r2, r1, #2
 378 00b6 AA18     		adds	r2, r5, r2
 379 00b8 1071     		strb	r0, [r2, #4]
 198:Generated_Source\PSoC6\pdl\drivers\peripheral\profile/cy_profile.c ****         cy_ep_ctrs[i].overflow = 0UL;
 380              		.loc 1 198 0
 381 00ba E179     		ldrb	r1, [r4, #7]
 382 00bc C9B2     		uxtb	r1, r1
 383 00be CA00     		lsls	r2, r1, #3
 384 00c0 511A     		subs	r1, r2, r1
 385 00c2 8A00     		lsls	r2, r1, #2
 386 00c4 AA18     		adds	r2, r5, r2
 387 00c6 0021     		movs	r1, #0
 388 00c8 5161     		str	r1, [r2, #20]
 199:Generated_Source\PSoC6\pdl\drivers\peripheral\profile/cy_profile.c ****         cy_ep_ctrs[i].weight = weight;
 389              		.loc 1 199 0
 390 00ca E179     		ldrb	r1, [r4, #7]
 391 00cc C9B2     		uxtb	r1, r1
 392 00ce CA00     		lsls	r2, r1, #3
ARM GAS  C:\Users\gjl\AppData\Local\Temp\cct3iP5Z.s 			page 19


 393 00d0 511A     		subs	r1, r2, r1
 394 00d2 8A00     		lsls	r2, r1, #2
 395 00d4 AA18     		adds	r2, r5, r2
 396 00d6 4346     		mov	r3, r8
 397 00d8 9361     		str	r3, [r2, #24]
 200:Generated_Source\PSoC6\pdl\drivers\peripheral\profile/cy_profile.c ****         /* pass back the handle to (address of) the counter data structure */
 201:Generated_Source\PSoC6\pdl\drivers\peripheral\profile/cy_profile.c ****         retVal = &cy_ep_ctrs[i];
 398              		.loc 1 201 0
 399 00da E279     		ldrb	r2, [r4, #7]
 400 00dc D6B2     		uxtb	r6, r2
 401              	.LVL25:
 402 00de F400     		lsls	r4, r6, #3
 403 00e0 A31B     		subs	r3, r4, r6
 404 00e2 9800     		lsls	r0, r3, #2
 405              	.LVL26:
 406 00e4 2818     		adds	r0, r5, r0
 407              	.LVL27:
 202:Generated_Source\PSoC6\pdl\drivers\peripheral\profile/cy_profile.c ****         
 203:Generated_Source\PSoC6\pdl\drivers\peripheral\profile/cy_profile.c ****         /* Load the CTL register bitfields of the assigned counter. */
 204:Generated_Source\PSoC6\pdl\drivers\peripheral\profile/cy_profile.c ****         retVal->cntAddr->CTL =
 408              		.loc 1 204 0
 409 00e6 8168     		ldr	r1, [r0, #8]
 205:Generated_Source\PSoC6\pdl\drivers\peripheral\profile/cy_profile.c ****             _VAL2FLD(PROFILE_CNT_STRUCT_CTL_CNT_DURATION, retVal->ctlRegVals.cntDuration) |
 410              		.loc 1 205 0
 411 00e8 8378     		ldrb	r3, [r0, #2]
 412 00ea 0127     		movs	r7, #1
 413              	.LVL28:
 414 00ec 1F40     		ands	r7, r3
 206:Generated_Source\PSoC6\pdl\drivers\peripheral\profile/cy_profile.c ****             _VAL2FLD(PROFILE_CNT_STRUCT_CTL_REF_CLK_SEL,  retVal->ctlRegVals.refClkSel)   |
 415              		.loc 1 206 0
 416 00ee C278     		ldrb	r2, [r0, #3]
 417 00f0 1201     		lsls	r2, r2, #4
 418 00f2 7023     		movs	r3, #112
 419 00f4 1340     		ands	r3, r2
 205:Generated_Source\PSoC6\pdl\drivers\peripheral\profile/cy_profile.c ****             _VAL2FLD(PROFILE_CNT_STRUCT_CTL_CNT_DURATION, retVal->ctlRegVals.cntDuration) |
 420              		.loc 1 205 0
 421 00f6 3B43     		orrs	r3, r7
 207:Generated_Source\PSoC6\pdl\drivers\peripheral\profile/cy_profile.c ****             _VAL2FLD(PROFILE_CNT_STRUCT_CTL_MON_SEL,      retVal->ctlRegVals.monSel);
 422              		.loc 1 207 0
 423 00f8 0279     		ldrb	r2, [r0, #4]
 424 00fa 1204     		lsls	r2, r2, #16
 425 00fc FE24     		movs	r4, #254
 426 00fe E403     		lsls	r4, r4, #15
 427 0100 2240     		ands	r2, r4
 206:Generated_Source\PSoC6\pdl\drivers\peripheral\profile/cy_profile.c ****             _VAL2FLD(PROFILE_CNT_STRUCT_CTL_REF_CLK_SEL,  retVal->ctlRegVals.refClkSel)   |
 428              		.loc 1 206 0
 429 0102 1343     		orrs	r3, r2
 204:Generated_Source\PSoC6\pdl\drivers\peripheral\profile/cy_profile.c ****             _VAL2FLD(PROFILE_CNT_STRUCT_CTL_CNT_DURATION, retVal->ctlRegVals.cntDuration) |
 430              		.loc 1 204 0
 431 0104 0B60     		str	r3, [r1]
 432 0106 00E0     		b	.L27
 433              	.LVL29:
 434              	.L28:
 186:Generated_Source\PSoC6\pdl\drivers\peripheral\profile/cy_profile.c ****     volatile uint8_t i;
 435              		.loc 1 186 0
 436 0108 0020     		movs	r0, #0
 437              	.LVL30:
ARM GAS  C:\Users\gjl\AppData\Local\Temp\cct3iP5Z.s 			page 20


 438              	.L27:
 208:Generated_Source\PSoC6\pdl\drivers\peripheral\profile/cy_profile.c **** 
 209:Generated_Source\PSoC6\pdl\drivers\peripheral\profile/cy_profile.c ****     }
 210:Generated_Source\PSoC6\pdl\drivers\peripheral\profile/cy_profile.c ****     return (retVal);
 211:Generated_Source\PSoC6\pdl\drivers\peripheral\profile/cy_profile.c **** }
 439              		.loc 1 211 0
 440 010a 02B0     		add	sp, sp, #8
 441              		@ sp needed
 442              	.LVL31:
 443 010c 04BC     		pop	{r2}
 444 010e 9046     		mov	r8, r2
 445 0110 F0BD     		pop	{r4, r5, r6, r7, pc}
 446              	.L30:
 447 0112 C046     		.align	2
 448              	.L29:
 449 0114 00000000 		.word	.LANCHOR0
 450 0118 00082D40 		.word	1076692992
 451              		.cfi_endproc
 452              	.LFE45:
 453              		.size	Cy_Profile_ConfigureCounter, .-Cy_Profile_ConfigureCounter
 454              		.section	.text.Cy_Profile_FreeCounter,"ax",%progbits
 455              		.align	2
 456              		.global	Cy_Profile_FreeCounter
 457              		.code	16
 458              		.thumb_func
 459              		.type	Cy_Profile_FreeCounter, %function
 460              	Cy_Profile_FreeCounter:
 461              	.LFB46:
 212:Generated_Source\PSoC6\pdl\drivers\peripheral\profile/cy_profile.c **** 
 213:Generated_Source\PSoC6\pdl\drivers\peripheral\profile/cy_profile.c **** 
 214:Generated_Source\PSoC6\pdl\drivers\peripheral\profile/cy_profile.c **** /*******************************************************************************
 215:Generated_Source\PSoC6\pdl\drivers\peripheral\profile/cy_profile.c **** * Function Name: Cy_Profile_FreeCounter
 216:Generated_Source\PSoC6\pdl\drivers\peripheral\profile/cy_profile.c **** ****************************************************************************//**
 217:Generated_Source\PSoC6\pdl\drivers\peripheral\profile/cy_profile.c **** *
 218:Generated_Source\PSoC6\pdl\drivers\peripheral\profile/cy_profile.c **** * Frees up a counter from a previously-assigned monitor source.
 219:Generated_Source\PSoC6\pdl\drivers\peripheral\profile/cy_profile.c **** *
 220:Generated_Source\PSoC6\pdl\drivers\peripheral\profile/cy_profile.c **** * \ref Cy_Profile_ConfigureCounter() must have been called for this counter
 221:Generated_Source\PSoC6\pdl\drivers\peripheral\profile/cy_profile.c **** * before calling this function.
 222:Generated_Source\PSoC6\pdl\drivers\peripheral\profile/cy_profile.c **** *
 223:Generated_Source\PSoC6\pdl\drivers\peripheral\profile/cy_profile.c **** * \param ctrAddr The handle to the assigned counter (returned by calling
 224:Generated_Source\PSoC6\pdl\drivers\peripheral\profile/cy_profile.c **** * \ref Cy_Profile_ConfigureCounter()).
 225:Generated_Source\PSoC6\pdl\drivers\peripheral\profile/cy_profile.c **** * 
 226:Generated_Source\PSoC6\pdl\drivers\peripheral\profile/cy_profile.c **** * \return 
 227:Generated_Source\PSoC6\pdl\drivers\peripheral\profile/cy_profile.c **** * Status of the operation.
 228:Generated_Source\PSoC6\pdl\drivers\peripheral\profile/cy_profile.c **** *
 229:Generated_Source\PSoC6\pdl\drivers\peripheral\profile/cy_profile.c **** * \note The counter is not disabled by this function.
 230:Generated_Source\PSoC6\pdl\drivers\peripheral\profile/cy_profile.c **** *
 231:Generated_Source\PSoC6\pdl\drivers\peripheral\profile/cy_profile.c **** * \funcusage
 232:Generated_Source\PSoC6\pdl\drivers\peripheral\profile/cy_profile.c **** * \snippet profile/profile_v1_0_sut_01.cydsn/main_cm4.c snippet_Cy_Profile_FreeCounter
 233:Generated_Source\PSoC6\pdl\drivers\peripheral\profile/cy_profile.c **** *
 234:Generated_Source\PSoC6\pdl\drivers\peripheral\profile/cy_profile.c **** *******************************************************************************/
 235:Generated_Source\PSoC6\pdl\drivers\peripheral\profile/cy_profile.c **** cy_en_profile_status_t Cy_Profile_FreeCounter(cy_stc_profile_ctr_ptr_t ctrAddr)
 236:Generated_Source\PSoC6\pdl\drivers\peripheral\profile/cy_profile.c **** {
 462              		.loc 1 236 0
 463              		.cfi_startproc
 464              		@ args = 0, pretend = 0, frame = 0
 465              		@ frame_needed = 0, uses_anonymous_args = 0
ARM GAS  C:\Users\gjl\AppData\Local\Temp\cct3iP5Z.s 			page 21


 466              	.LVL32:
 467 0000 10B5     		push	{r4, lr}
 468              		.cfi_def_cfa_offset 8
 469              		.cfi_offset 4, -8
 470              		.cfi_offset 14, -4
 471 0002 0400     		movs	r4, r0
 472              	.LVL33:
 237:Generated_Source\PSoC6\pdl\drivers\peripheral\profile/cy_profile.c ****    cy_en_profile_status_t retStatus = CY_PROFILE_BAD_PARAM;
 238:Generated_Source\PSoC6\pdl\drivers\peripheral\profile/cy_profile.c ****    
 239:Generated_Source\PSoC6\pdl\drivers\peripheral\profile/cy_profile.c ****     retStatus = Cy_Profile_IsPtrValid(ctrAddr);
 473              		.loc 1 239 0
 474 0004 FFF7FEFF 		bl	Cy_Profile_IsPtrValid
 475              	.LVL34:
 240:Generated_Source\PSoC6\pdl\drivers\peripheral\profile/cy_profile.c ****     if (retStatus == CY_PROFILE_SUCCESS)
 476              		.loc 1 240 0
 477 0008 0028     		cmp	r0, #0
 478 000a 01D1     		bne	.L32
 241:Generated_Source\PSoC6\pdl\drivers\peripheral\profile/cy_profile.c ****     {
 242:Generated_Source\PSoC6\pdl\drivers\peripheral\profile/cy_profile.c ****         ctrAddr->used = 0u;
 479              		.loc 1 242 0
 480 000c 0023     		movs	r3, #0
 481 000e 6370     		strb	r3, [r4, #1]
 482              	.L32:
 243:Generated_Source\PSoC6\pdl\drivers\peripheral\profile/cy_profile.c ****     }
 244:Generated_Source\PSoC6\pdl\drivers\peripheral\profile/cy_profile.c ****     return (retStatus);
 245:Generated_Source\PSoC6\pdl\drivers\peripheral\profile/cy_profile.c **** }
 483              		.loc 1 245 0
 484              		@ sp needed
 485              	.LVL35:
 486 0010 10BD     		pop	{r4, pc}
 487              		.cfi_endproc
 488              	.LFE46:
 489              		.size	Cy_Profile_FreeCounter, .-Cy_Profile_FreeCounter
 490 0012 C046     		.section	.text.Cy_Profile_EnableCounter,"ax",%progbits
 491              		.align	2
 492              		.global	Cy_Profile_EnableCounter
 493              		.code	16
 494              		.thumb_func
 495              		.type	Cy_Profile_EnableCounter, %function
 496              	Cy_Profile_EnableCounter:
 497              	.LFB47:
 246:Generated_Source\PSoC6\pdl\drivers\peripheral\profile/cy_profile.c **** 
 247:Generated_Source\PSoC6\pdl\drivers\peripheral\profile/cy_profile.c **** 
 248:Generated_Source\PSoC6\pdl\drivers\peripheral\profile/cy_profile.c **** /*******************************************************************************
 249:Generated_Source\PSoC6\pdl\drivers\peripheral\profile/cy_profile.c **** * Function Name: Cy_Profile_EnableCounter
 250:Generated_Source\PSoC6\pdl\drivers\peripheral\profile/cy_profile.c **** ****************************************************************************//**
 251:Generated_Source\PSoC6\pdl\drivers\peripheral\profile/cy_profile.c **** *
 252:Generated_Source\PSoC6\pdl\drivers\peripheral\profile/cy_profile.c **** * Enables an assigned counter. 
 253:Generated_Source\PSoC6\pdl\drivers\peripheral\profile/cy_profile.c **** *
 254:Generated_Source\PSoC6\pdl\drivers\peripheral\profile/cy_profile.c **** * \ref Cy_Profile_ConfigureCounter() must have been called for this counter
 255:Generated_Source\PSoC6\pdl\drivers\peripheral\profile/cy_profile.c **** * before calling this function.
 256:Generated_Source\PSoC6\pdl\drivers\peripheral\profile/cy_profile.c **** *
 257:Generated_Source\PSoC6\pdl\drivers\peripheral\profile/cy_profile.c **** * \param ctrAddr The handle to the assigned counter, (returned by calling
 258:Generated_Source\PSoC6\pdl\drivers\peripheral\profile/cy_profile.c **** * \ref Cy_Profile_ConfigureCounter()).
 259:Generated_Source\PSoC6\pdl\drivers\peripheral\profile/cy_profile.c **** * 
 260:Generated_Source\PSoC6\pdl\drivers\peripheral\profile/cy_profile.c **** * \return 
 261:Generated_Source\PSoC6\pdl\drivers\peripheral\profile/cy_profile.c **** * Status of the operation.
ARM GAS  C:\Users\gjl\AppData\Local\Temp\cct3iP5Z.s 			page 22


 262:Generated_Source\PSoC6\pdl\drivers\peripheral\profile/cy_profile.c **** *
 263:Generated_Source\PSoC6\pdl\drivers\peripheral\profile/cy_profile.c **** * \funcusage
 264:Generated_Source\PSoC6\pdl\drivers\peripheral\profile/cy_profile.c **** * \snippet profile/profile_v1_0_sut_01.cydsn/main_cm4.c snippet_Cy_Profile_EnableCounter
 265:Generated_Source\PSoC6\pdl\drivers\peripheral\profile/cy_profile.c **** *
 266:Generated_Source\PSoC6\pdl\drivers\peripheral\profile/cy_profile.c **** *******************************************************************************/
 267:Generated_Source\PSoC6\pdl\drivers\peripheral\profile/cy_profile.c **** cy_en_profile_status_t Cy_Profile_EnableCounter(cy_stc_profile_ctr_ptr_t ctrAddr)
 268:Generated_Source\PSoC6\pdl\drivers\peripheral\profile/cy_profile.c **** {
 498              		.loc 1 268 0
 499              		.cfi_startproc
 500              		@ args = 0, pretend = 0, frame = 0
 501              		@ frame_needed = 0, uses_anonymous_args = 0
 502              	.LVL36:
 503 0000 70B5     		push	{r4, r5, r6, lr}
 504              		.cfi_def_cfa_offset 16
 505              		.cfi_offset 4, -16
 506              		.cfi_offset 5, -12
 507              		.cfi_offset 6, -8
 508              		.cfi_offset 14, -4
 509 0002 0400     		movs	r4, r0
 510              	.LVL37:
 269:Generated_Source\PSoC6\pdl\drivers\peripheral\profile/cy_profile.c ****     cy_en_profile_status_t retStatus = CY_PROFILE_BAD_PARAM;
 270:Generated_Source\PSoC6\pdl\drivers\peripheral\profile/cy_profile.c ****     
 271:Generated_Source\PSoC6\pdl\drivers\peripheral\profile/cy_profile.c ****     retStatus = Cy_Profile_IsPtrValid(ctrAddr);
 511              		.loc 1 271 0
 512 0004 FFF7FEFF 		bl	Cy_Profile_IsPtrValid
 513              	.LVL38:
 272:Generated_Source\PSoC6\pdl\drivers\peripheral\profile/cy_profile.c ****     if (retStatus == CY_PROFILE_SUCCESS)
 514              		.loc 1 272 0
 515 0008 0028     		cmp	r0, #0
 516 000a 0ED1     		bne	.L34
 273:Generated_Source\PSoC6\pdl\drivers\peripheral\profile/cy_profile.c ****     {
 274:Generated_Source\PSoC6\pdl\drivers\peripheral\profile/cy_profile.c ****         /* set the ENABLED bit */
 275:Generated_Source\PSoC6\pdl\drivers\peripheral\profile/cy_profile.c ****         ctrAddr->cntAddr->CTL |= _VAL2FLD(PROFILE_CNT_STRUCT_CTL_ENABLED, 1UL);
 517              		.loc 1 275 0
 518 000c A268     		ldr	r2, [r4, #8]
 519 000e 1368     		ldr	r3, [r2]
 520 0010 8021     		movs	r1, #128
 521 0012 0906     		lsls	r1, r1, #24
 522 0014 0B43     		orrs	r3, r1
 523 0016 1360     		str	r3, [r2]
 276:Generated_Source\PSoC6\pdl\drivers\peripheral\profile/cy_profile.c ****         /* set the INTR_MASK bit for the counter being used */
 277:Generated_Source\PSoC6\pdl\drivers\peripheral\profile/cy_profile.c ****         PROFILE->INTR_MASK |= (1UL << (ctrAddr->ctrNum));
 524              		.loc 1 277 0
 525 0018 0449     		ldr	r1, .L35
 526 001a F922     		movs	r2, #249
 527 001c D200     		lsls	r2, r2, #3
 528 001e 8D58     		ldr	r5, [r1, r2]
 529 0020 2478     		ldrb	r4, [r4]
 530              	.LVL39:
 531 0022 0123     		movs	r3, #1
 532 0024 A340     		lsls	r3, r3, r4
 533 0026 2B43     		orrs	r3, r5
 534 0028 8B50     		str	r3, [r1, r2]
 535              	.L34:
 278:Generated_Source\PSoC6\pdl\drivers\peripheral\profile/cy_profile.c ****     }
 279:Generated_Source\PSoC6\pdl\drivers\peripheral\profile/cy_profile.c ****     return (retStatus);
 280:Generated_Source\PSoC6\pdl\drivers\peripheral\profile/cy_profile.c **** }
ARM GAS  C:\Users\gjl\AppData\Local\Temp\cct3iP5Z.s 			page 23


 536              		.loc 1 280 0
 537              		@ sp needed
 538 002a 70BD     		pop	{r4, r5, r6, pc}
 539              	.L36:
 540              		.align	2
 541              	.L35:
 542 002c 00002D40 		.word	1076690944
 543              		.cfi_endproc
 544              	.LFE47:
 545              		.size	Cy_Profile_EnableCounter, .-Cy_Profile_EnableCounter
 546              		.section	.text.Cy_Profile_DisableCounter,"ax",%progbits
 547              		.align	2
 548              		.global	Cy_Profile_DisableCounter
 549              		.code	16
 550              		.thumb_func
 551              		.type	Cy_Profile_DisableCounter, %function
 552              	Cy_Profile_DisableCounter:
 553              	.LFB48:
 281:Generated_Source\PSoC6\pdl\drivers\peripheral\profile/cy_profile.c **** 
 282:Generated_Source\PSoC6\pdl\drivers\peripheral\profile/cy_profile.c **** 
 283:Generated_Source\PSoC6\pdl\drivers\peripheral\profile/cy_profile.c **** /*******************************************************************************
 284:Generated_Source\PSoC6\pdl\drivers\peripheral\profile/cy_profile.c **** * Function Name: Cy_Profile_DisableCounter
 285:Generated_Source\PSoC6\pdl\drivers\peripheral\profile/cy_profile.c **** ****************************************************************************//**
 286:Generated_Source\PSoC6\pdl\drivers\peripheral\profile/cy_profile.c **** *
 287:Generated_Source\PSoC6\pdl\drivers\peripheral\profile/cy_profile.c **** * Disables an assigned counter.
 288:Generated_Source\PSoC6\pdl\drivers\peripheral\profile/cy_profile.c **** *
 289:Generated_Source\PSoC6\pdl\drivers\peripheral\profile/cy_profile.c **** * \ref Cy_Profile_ConfigureCounter() must have been called for this counter
 290:Generated_Source\PSoC6\pdl\drivers\peripheral\profile/cy_profile.c **** * before calling this function.
 291:Generated_Source\PSoC6\pdl\drivers\peripheral\profile/cy_profile.c **** *
 292:Generated_Source\PSoC6\pdl\drivers\peripheral\profile/cy_profile.c **** * \param ctrAddr The handle to the assigned counter, (returned by calling
 293:Generated_Source\PSoC6\pdl\drivers\peripheral\profile/cy_profile.c **** * \ref Cy_Profile_ConfigureCounter()).
 294:Generated_Source\PSoC6\pdl\drivers\peripheral\profile/cy_profile.c **** * 
 295:Generated_Source\PSoC6\pdl\drivers\peripheral\profile/cy_profile.c **** * \return 
 296:Generated_Source\PSoC6\pdl\drivers\peripheral\profile/cy_profile.c **** * Status of the operation.
 297:Generated_Source\PSoC6\pdl\drivers\peripheral\profile/cy_profile.c **** *
 298:Generated_Source\PSoC6\pdl\drivers\peripheral\profile/cy_profile.c **** * \funcusage
 299:Generated_Source\PSoC6\pdl\drivers\peripheral\profile/cy_profile.c **** * \snippet profile/profile_v1_0_sut_01.cydsn/main_cm4.c snippet_Cy_Profile_DisableCounter
 300:Generated_Source\PSoC6\pdl\drivers\peripheral\profile/cy_profile.c **** *
 301:Generated_Source\PSoC6\pdl\drivers\peripheral\profile/cy_profile.c **** *******************************************************************************/
 302:Generated_Source\PSoC6\pdl\drivers\peripheral\profile/cy_profile.c **** cy_en_profile_status_t Cy_Profile_DisableCounter(cy_stc_profile_ctr_ptr_t ctrAddr)
 303:Generated_Source\PSoC6\pdl\drivers\peripheral\profile/cy_profile.c **** {
 554              		.loc 1 303 0
 555              		.cfi_startproc
 556              		@ args = 0, pretend = 0, frame = 0
 557              		@ frame_needed = 0, uses_anonymous_args = 0
 558              	.LVL40:
 559 0000 70B5     		push	{r4, r5, r6, lr}
 560              		.cfi_def_cfa_offset 16
 561              		.cfi_offset 4, -16
 562              		.cfi_offset 5, -12
 563              		.cfi_offset 6, -8
 564              		.cfi_offset 14, -4
 565 0002 0400     		movs	r4, r0
 304:Generated_Source\PSoC6\pdl\drivers\peripheral\profile/cy_profile.c ****     cy_en_profile_status_t retStatus = Cy_Profile_IsPtrValid(ctrAddr);
 566              		.loc 1 304 0
 567 0004 FFF7FEFF 		bl	Cy_Profile_IsPtrValid
 568              	.LVL41:
ARM GAS  C:\Users\gjl\AppData\Local\Temp\cct3iP5Z.s 			page 24


 305:Generated_Source\PSoC6\pdl\drivers\peripheral\profile/cy_profile.c ****     if (retStatus == CY_PROFILE_SUCCESS)
 569              		.loc 1 305 0
 570 0008 0028     		cmp	r0, #0
 571 000a 0DD1     		bne	.L38
 306:Generated_Source\PSoC6\pdl\drivers\peripheral\profile/cy_profile.c ****     {
 307:Generated_Source\PSoC6\pdl\drivers\peripheral\profile/cy_profile.c ****         /* clear the ENABLED bit */
 308:Generated_Source\PSoC6\pdl\drivers\peripheral\profile/cy_profile.c ****         ctrAddr->cntAddr->CTL &= ~(_VAL2FLD(PROFILE_CNT_STRUCT_CTL_ENABLED, 1UL));
 572              		.loc 1 308 0
 573 000c A268     		ldr	r2, [r4, #8]
 574 000e 1368     		ldr	r3, [r2]
 575 0010 5B00     		lsls	r3, r3, #1
 576 0012 5B08     		lsrs	r3, r3, #1
 577 0014 1360     		str	r3, [r2]
 309:Generated_Source\PSoC6\pdl\drivers\peripheral\profile/cy_profile.c ****         /* clear the INTR_MASK bit for the counter being used */
 310:Generated_Source\PSoC6\pdl\drivers\peripheral\profile/cy_profile.c ****         PROFILE->INTR_MASK &= ~(1UL << (ctrAddr->ctrNum));
 578              		.loc 1 310 0
 579 0016 054D     		ldr	r5, .L39
 580 0018 F921     		movs	r1, #249
 581 001a C900     		lsls	r1, r1, #3
 582 001c 6B58     		ldr	r3, [r5, r1]
 583 001e 2478     		ldrb	r4, [r4]
 584              	.LVL42:
 585 0020 0122     		movs	r2, #1
 586 0022 A240     		lsls	r2, r2, r4
 587 0024 9343     		bics	r3, r2
 588 0026 6B50     		str	r3, [r5, r1]
 589              	.L38:
 311:Generated_Source\PSoC6\pdl\drivers\peripheral\profile/cy_profile.c ****     }
 312:Generated_Source\PSoC6\pdl\drivers\peripheral\profile/cy_profile.c ****     return (retStatus);
 313:Generated_Source\PSoC6\pdl\drivers\peripheral\profile/cy_profile.c **** }
 590              		.loc 1 313 0
 591              		@ sp needed
 592 0028 70BD     		pop	{r4, r5, r6, pc}
 593              	.L40:
 594 002a C046     		.align	2
 595              	.L39:
 596 002c 00002D40 		.word	1076690944
 597              		.cfi_endproc
 598              	.LFE48:
 599              		.size	Cy_Profile_DisableCounter, .-Cy_Profile_DisableCounter
 600              		.section	.text.Cy_Profile_GetRawCount,"ax",%progbits
 601              		.align	2
 602              		.global	Cy_Profile_GetRawCount
 603              		.code	16
 604              		.thumb_func
 605              		.type	Cy_Profile_GetRawCount, %function
 606              	Cy_Profile_GetRawCount:
 607              	.LFB49:
 314:Generated_Source\PSoC6\pdl\drivers\peripheral\profile/cy_profile.c **** 
 315:Generated_Source\PSoC6\pdl\drivers\peripheral\profile/cy_profile.c **** 
 316:Generated_Source\PSoC6\pdl\drivers\peripheral\profile/cy_profile.c **** /* ========================================================================== */
 317:Generated_Source\PSoC6\pdl\drivers\peripheral\profile/cy_profile.c **** /* ==================    CALCULATION FUNCTIONS SECTION    =================== */
 318:Generated_Source\PSoC6\pdl\drivers\peripheral\profile/cy_profile.c **** /* ========================================================================== */
 319:Generated_Source\PSoC6\pdl\drivers\peripheral\profile/cy_profile.c **** /*******************************************************************************
 320:Generated_Source\PSoC6\pdl\drivers\peripheral\profile/cy_profile.c **** * Function Name: Cy_Profile_GetRawCount
 321:Generated_Source\PSoC6\pdl\drivers\peripheral\profile/cy_profile.c **** ****************************************************************************//**
 322:Generated_Source\PSoC6\pdl\drivers\peripheral\profile/cy_profile.c **** *
ARM GAS  C:\Users\gjl\AppData\Local\Temp\cct3iP5Z.s 			page 25


 323:Generated_Source\PSoC6\pdl\drivers\peripheral\profile/cy_profile.c **** * Reports the raw count value for a specified counter.
 324:Generated_Source\PSoC6\pdl\drivers\peripheral\profile/cy_profile.c **** *
 325:Generated_Source\PSoC6\pdl\drivers\peripheral\profile/cy_profile.c **** * \param ctrAddr The handle to the assigned counter, (returned by calling
 326:Generated_Source\PSoC6\pdl\drivers\peripheral\profile/cy_profile.c **** * \ref Cy_Profile_ConfigureCounter()).
 327:Generated_Source\PSoC6\pdl\drivers\peripheral\profile/cy_profile.c **** *
 328:Generated_Source\PSoC6\pdl\drivers\peripheral\profile/cy_profile.c **** * \param result Output parameter used to write in the result.
 329:Generated_Source\PSoC6\pdl\drivers\peripheral\profile/cy_profile.c **** * 
 330:Generated_Source\PSoC6\pdl\drivers\peripheral\profile/cy_profile.c **** * \return 
 331:Generated_Source\PSoC6\pdl\drivers\peripheral\profile/cy_profile.c **** * Status of the operation.
 332:Generated_Source\PSoC6\pdl\drivers\peripheral\profile/cy_profile.c **** *
 333:Generated_Source\PSoC6\pdl\drivers\peripheral\profile/cy_profile.c **** * \funcusage
 334:Generated_Source\PSoC6\pdl\drivers\peripheral\profile/cy_profile.c **** * \snippet profile/profile_v1_0_sut_01.cydsn/main_cm4.c snippet_Cy_Profile_GetRawCount
 335:Generated_Source\PSoC6\pdl\drivers\peripheral\profile/cy_profile.c **** *
 336:Generated_Source\PSoC6\pdl\drivers\peripheral\profile/cy_profile.c **** *******************************************************************************/
 337:Generated_Source\PSoC6\pdl\drivers\peripheral\profile/cy_profile.c **** cy_en_profile_status_t Cy_Profile_GetRawCount(cy_stc_profile_ctr_ptr_t ctrAddr, uint64_t *result)
 338:Generated_Source\PSoC6\pdl\drivers\peripheral\profile/cy_profile.c **** {
 608              		.loc 1 338 0
 609              		.cfi_startproc
 610              		@ args = 0, pretend = 0, frame = 0
 611              		@ frame_needed = 0, uses_anonymous_args = 0
 612              	.LVL43:
 613 0000 70B5     		push	{r4, r5, r6, lr}
 614              		.cfi_def_cfa_offset 16
 615              		.cfi_offset 4, -16
 616              		.cfi_offset 5, -12
 617              		.cfi_offset 6, -8
 618              		.cfi_offset 14, -4
 619 0002 0400     		movs	r4, r0
 620 0004 0D00     		movs	r5, r1
 339:Generated_Source\PSoC6\pdl\drivers\peripheral\profile/cy_profile.c ****     cy_en_profile_status_t retStatus = Cy_Profile_IsPtrValid(ctrAddr);
 621              		.loc 1 339 0
 622 0006 FFF7FEFF 		bl	Cy_Profile_IsPtrValid
 623              	.LVL44:
 340:Generated_Source\PSoC6\pdl\drivers\peripheral\profile/cy_profile.c ****     if (retStatus == CY_PROFILE_SUCCESS)
 624              		.loc 1 340 0
 625 000a 0028     		cmp	r0, #0
 626 000c 07D1     		bne	.L42
 341:Generated_Source\PSoC6\pdl\drivers\peripheral\profile/cy_profile.c ****     {
 342:Generated_Source\PSoC6\pdl\drivers\peripheral\profile/cy_profile.c ****         /* read the counter control register, and the counter current value */
 343:Generated_Source\PSoC6\pdl\drivers\peripheral\profile/cy_profile.c ****         ctrAddr->ctlReg = ctrAddr->cntAddr->CTL;
 627              		.loc 1 343 0
 628 000e A368     		ldr	r3, [r4, #8]
 629 0010 1A68     		ldr	r2, [r3]
 630 0012 E260     		str	r2, [r4, #12]
 344:Generated_Source\PSoC6\pdl\drivers\peripheral\profile/cy_profile.c ****         ctrAddr->cntReg = ctrAddr->cntAddr->CNT;
 631              		.loc 1 344 0
 632 0014 9B68     		ldr	r3, [r3, #8]
 633 0016 2361     		str	r3, [r4, #16]
 345:Generated_Source\PSoC6\pdl\drivers\peripheral\profile/cy_profile.c **** 
 346:Generated_Source\PSoC6\pdl\drivers\peripheral\profile/cy_profile.c ****         /* report the count with overflow */
 347:Generated_Source\PSoC6\pdl\drivers\peripheral\profile/cy_profile.c ****         *result = ((uint64_t)(ctrAddr->overflow) << 32) | (uint64_t)(ctrAddr->cntReg);
 634              		.loc 1 347 0
 635 0018 6269     		ldr	r2, [r4, #20]
 636 001a 6A60     		str	r2, [r5, #4]
 637 001c 2B60     		str	r3, [r5]
 638              	.L42:
 348:Generated_Source\PSoC6\pdl\drivers\peripheral\profile/cy_profile.c ****     }
ARM GAS  C:\Users\gjl\AppData\Local\Temp\cct3iP5Z.s 			page 26


 349:Generated_Source\PSoC6\pdl\drivers\peripheral\profile/cy_profile.c ****     return (retStatus);
 350:Generated_Source\PSoC6\pdl\drivers\peripheral\profile/cy_profile.c **** }
 639              		.loc 1 350 0
 640              		@ sp needed
 641              	.LVL45:
 642              	.LVL46:
 643 001e 70BD     		pop	{r4, r5, r6, pc}
 644              		.cfi_endproc
 645              	.LFE49:
 646              		.size	Cy_Profile_GetRawCount, .-Cy_Profile_GetRawCount
 647              		.global	__aeabi_lmul
 648              		.section	.text.Cy_Profile_GetWeightedCount,"ax",%progbits
 649              		.align	2
 650              		.global	Cy_Profile_GetWeightedCount
 651              		.code	16
 652              		.thumb_func
 653              		.type	Cy_Profile_GetWeightedCount, %function
 654              	Cy_Profile_GetWeightedCount:
 655              	.LFB50:
 351:Generated_Source\PSoC6\pdl\drivers\peripheral\profile/cy_profile.c **** 
 352:Generated_Source\PSoC6\pdl\drivers\peripheral\profile/cy_profile.c **** /*******************************************************************************
 353:Generated_Source\PSoC6\pdl\drivers\peripheral\profile/cy_profile.c **** * Function Name: Cy_Profile_GetWeightedCount
 354:Generated_Source\PSoC6\pdl\drivers\peripheral\profile/cy_profile.c **** ****************************************************************************//**
 355:Generated_Source\PSoC6\pdl\drivers\peripheral\profile/cy_profile.c **** *
 356:Generated_Source\PSoC6\pdl\drivers\peripheral\profile/cy_profile.c **** * Reports the count value for a specified counter, multiplied by the weight
 357:Generated_Source\PSoC6\pdl\drivers\peripheral\profile/cy_profile.c **** * factor for that counter.
 358:Generated_Source\PSoC6\pdl\drivers\peripheral\profile/cy_profile.c **** *
 359:Generated_Source\PSoC6\pdl\drivers\peripheral\profile/cy_profile.c **** * \param ctrAddr The handle to the assigned counter, (returned by calling
 360:Generated_Source\PSoC6\pdl\drivers\peripheral\profile/cy_profile.c **** * \ref Cy_Profile_ConfigureCounter()).
 361:Generated_Source\PSoC6\pdl\drivers\peripheral\profile/cy_profile.c **** *
 362:Generated_Source\PSoC6\pdl\drivers\peripheral\profile/cy_profile.c **** * \param result Output parameter used to write in the result.
 363:Generated_Source\PSoC6\pdl\drivers\peripheral\profile/cy_profile.c **** * 
 364:Generated_Source\PSoC6\pdl\drivers\peripheral\profile/cy_profile.c **** * \return 
 365:Generated_Source\PSoC6\pdl\drivers\peripheral\profile/cy_profile.c **** * Status of the operation.
 366:Generated_Source\PSoC6\pdl\drivers\peripheral\profile/cy_profile.c **** *
 367:Generated_Source\PSoC6\pdl\drivers\peripheral\profile/cy_profile.c **** * \funcusage
 368:Generated_Source\PSoC6\pdl\drivers\peripheral\profile/cy_profile.c **** * \snippet profile/profile_v1_0_sut_01.cydsn/main_cm4.c snippet_Cy_Profile_GetWeightedCount
 369:Generated_Source\PSoC6\pdl\drivers\peripheral\profile/cy_profile.c **** *
 370:Generated_Source\PSoC6\pdl\drivers\peripheral\profile/cy_profile.c **** *******************************************************************************/
 371:Generated_Source\PSoC6\pdl\drivers\peripheral\profile/cy_profile.c **** cy_en_profile_status_t Cy_Profile_GetWeightedCount(cy_stc_profile_ctr_ptr_t ctrAddr, uint64_t *resu
 372:Generated_Source\PSoC6\pdl\drivers\peripheral\profile/cy_profile.c **** {
 656              		.loc 1 372 0
 657              		.cfi_startproc
 658              		@ args = 0, pretend = 0, frame = 8
 659              		@ frame_needed = 0, uses_anonymous_args = 0
 660              	.LVL47:
 661 0000 70B5     		push	{r4, r5, r6, lr}
 662              		.cfi_def_cfa_offset 16
 663              		.cfi_offset 4, -16
 664              		.cfi_offset 5, -12
 665              		.cfi_offset 6, -8
 666              		.cfi_offset 14, -4
 667 0002 82B0     		sub	sp, sp, #8
 668              		.cfi_def_cfa_offset 24
 669 0004 0500     		movs	r5, r0
 670 0006 0E00     		movs	r6, r1
 373:Generated_Source\PSoC6\pdl\drivers\peripheral\profile/cy_profile.c ****     uint64_t temp;
ARM GAS  C:\Users\gjl\AppData\Local\Temp\cct3iP5Z.s 			page 27


 374:Generated_Source\PSoC6\pdl\drivers\peripheral\profile/cy_profile.c ****     cy_en_profile_status_t retStatus = Cy_Profile_GetRawCount(ctrAddr, &temp);
 671              		.loc 1 374 0
 672 0008 6946     		mov	r1, sp
 673              	.LVL48:
 674 000a FFF7FEFF 		bl	Cy_Profile_GetRawCount
 675              	.LVL49:
 676 000e 041E     		subs	r4, r0, #0
 677              	.LVL50:
 375:Generated_Source\PSoC6\pdl\drivers\peripheral\profile/cy_profile.c ****     if (retStatus == CY_PROFILE_SUCCESS)
 678              		.loc 1 375 0
 679 0010 07D1     		bne	.L44
 376:Generated_Source\PSoC6\pdl\drivers\peripheral\profile/cy_profile.c ****     {
 377:Generated_Source\PSoC6\pdl\drivers\peripheral\profile/cy_profile.c ****         /* calculate weighted count */
 378:Generated_Source\PSoC6\pdl\drivers\peripheral\profile/cy_profile.c ****         *result = temp * (uint64_t)(ctrAddr->weight);
 680              		.loc 1 378 0
 681 0012 A869     		ldr	r0, [r5, #24]
 682              	.LVL51:
 683 0014 009A     		ldr	r2, [sp]
 684 0016 019B     		ldr	r3, [sp, #4]
 685 0018 0021     		movs	r1, #0
 686 001a FFF7FEFF 		bl	__aeabi_lmul
 687              	.LVL52:
 688 001e 3060     		str	r0, [r6]
 689 0020 7160     		str	r1, [r6, #4]
 690              	.L44:
 379:Generated_Source\PSoC6\pdl\drivers\peripheral\profile/cy_profile.c ****     }
 380:Generated_Source\PSoC6\pdl\drivers\peripheral\profile/cy_profile.c ****     return (retStatus);
 381:Generated_Source\PSoC6\pdl\drivers\peripheral\profile/cy_profile.c **** }
 691              		.loc 1 381 0
 692 0022 2000     		movs	r0, r4
 693 0024 02B0     		add	sp, sp, #8
 694              		@ sp needed
 695              	.LVL53:
 696              	.LVL54:
 697              	.LVL55:
 698 0026 70BD     		pop	{r4, r5, r6, pc}
 699              		.cfi_endproc
 700              	.LFE50:
 701              		.size	Cy_Profile_GetWeightedCount, .-Cy_Profile_GetWeightedCount
 702              		.section	.text.Cy_Profile_GetSumWeightedCounts,"ax",%progbits
 703              		.align	2
 704              		.global	Cy_Profile_GetSumWeightedCounts
 705              		.code	16
 706              		.thumb_func
 707              		.type	Cy_Profile_GetSumWeightedCounts, %function
 708              	Cy_Profile_GetSumWeightedCounts:
 709              	.LFB51:
 382:Generated_Source\PSoC6\pdl\drivers\peripheral\profile/cy_profile.c **** 
 383:Generated_Source\PSoC6\pdl\drivers\peripheral\profile/cy_profile.c **** /*******************************************************************************
 384:Generated_Source\PSoC6\pdl\drivers\peripheral\profile/cy_profile.c **** * Function Name: Cy_Profile_GetSumWeightedCounts
 385:Generated_Source\PSoC6\pdl\drivers\peripheral\profile/cy_profile.c **** ****************************************************************************//**
 386:Generated_Source\PSoC6\pdl\drivers\peripheral\profile/cy_profile.c **** *
 387:Generated_Source\PSoC6\pdl\drivers\peripheral\profile/cy_profile.c **** * Reports the weighted sum result of the first n number of counter count values
 388:Generated_Source\PSoC6\pdl\drivers\peripheral\profile/cy_profile.c **** * starting from the specified profile counter data structure base address.
 389:Generated_Source\PSoC6\pdl\drivers\peripheral\profile/cy_profile.c **** *
 390:Generated_Source\PSoC6\pdl\drivers\peripheral\profile/cy_profile.c **** * Each count value is multiplied by its weighing factor before the summing
 391:Generated_Source\PSoC6\pdl\drivers\peripheral\profile/cy_profile.c **** * operation is performed.
ARM GAS  C:\Users\gjl\AppData\Local\Temp\cct3iP5Z.s 			page 28


 392:Generated_Source\PSoC6\pdl\drivers\peripheral\profile/cy_profile.c **** *
 393:Generated_Source\PSoC6\pdl\drivers\peripheral\profile/cy_profile.c **** * \param ptrsArray Base address of the profile counter data structure
 394:Generated_Source\PSoC6\pdl\drivers\peripheral\profile/cy_profile.c **** *
 395:Generated_Source\PSoC6\pdl\drivers\peripheral\profile/cy_profile.c **** * \param numCounters Number of measured counters in ptrsArray[]
 396:Generated_Source\PSoC6\pdl\drivers\peripheral\profile/cy_profile.c **** *
 397:Generated_Source\PSoC6\pdl\drivers\peripheral\profile/cy_profile.c **** * \return
 398:Generated_Source\PSoC6\pdl\drivers\peripheral\profile/cy_profile.c **** * The weighted sum of the specified counters
 399:Generated_Source\PSoC6\pdl\drivers\peripheral\profile/cy_profile.c **** *
 400:Generated_Source\PSoC6\pdl\drivers\peripheral\profile/cy_profile.c **** * \funcusage
 401:Generated_Source\PSoC6\pdl\drivers\peripheral\profile/cy_profile.c **** * \snippet profile/profile_v1_0_sut_01.cydsn/main_cm4.c snippet_Cy_Profile_GetSumWeightedCounts
 402:Generated_Source\PSoC6\pdl\drivers\peripheral\profile/cy_profile.c **** *
 403:Generated_Source\PSoC6\pdl\drivers\peripheral\profile/cy_profile.c **** *******************************************************************************/
 404:Generated_Source\PSoC6\pdl\drivers\peripheral\profile/cy_profile.c **** uint64_t Cy_Profile_GetSumWeightedCounts(cy_stc_profile_ctr_ptr_t ptrsArray[],
 405:Generated_Source\PSoC6\pdl\drivers\peripheral\profile/cy_profile.c ****                                     uint32_t numCounters)
 406:Generated_Source\PSoC6\pdl\drivers\peripheral\profile/cy_profile.c **** {
 710              		.loc 1 406 0
 711              		.cfi_startproc
 712              		@ args = 0, pretend = 0, frame = 8
 713              		@ frame_needed = 0, uses_anonymous_args = 0
 714              	.LVL56:
 715 0000 F0B5     		push	{r4, r5, r6, r7, lr}
 716              		.cfi_def_cfa_offset 20
 717              		.cfi_offset 4, -20
 718              		.cfi_offset 5, -16
 719              		.cfi_offset 6, -12
 720              		.cfi_offset 7, -8
 721              		.cfi_offset 14, -4
 722 0002 4746     		mov	r7, r8
 723 0004 80B4     		push	{r7}
 724              		.cfi_def_cfa_offset 24
 725              		.cfi_offset 8, -24
 726 0006 82B0     		sub	sp, sp, #8
 727              		.cfi_def_cfa_offset 32
 728 0008 8046     		mov	r8, r0
 729 000a 0D00     		movs	r5, r1
 730              	.LVL57:
 407:Generated_Source\PSoC6\pdl\drivers\peripheral\profile/cy_profile.c ****     uint64_t daSum = (uint64_t)0ul;
 408:Generated_Source\PSoC6\pdl\drivers\peripheral\profile/cy_profile.c ****     uint64_t num;
 409:Generated_Source\PSoC6\pdl\drivers\peripheral\profile/cy_profile.c ****     uint32_t i;
 410:Generated_Source\PSoC6\pdl\drivers\peripheral\profile/cy_profile.c **** 
 411:Generated_Source\PSoC6\pdl\drivers\peripheral\profile/cy_profile.c ****     for (i = 0ul; i < numCounters; i++)
 731              		.loc 1 411 0
 732 000c 0024     		movs	r4, #0
 407:Generated_Source\PSoC6\pdl\drivers\peripheral\profile/cy_profile.c ****     uint64_t daSum = (uint64_t)0ul;
 733              		.loc 1 407 0
 734 000e 0026     		movs	r6, #0
 735 0010 0027     		movs	r7, #0
 736              		.loc 1 411 0
 737 0012 0CE0     		b	.L46
 738              	.LVL58:
 739              	.L48:
 412:Generated_Source\PSoC6\pdl\drivers\peripheral\profile/cy_profile.c ****     {
 413:Generated_Source\PSoC6\pdl\drivers\peripheral\profile/cy_profile.c ****         /* ignore error reported by Ep_GetWeightedCount() */
 414:Generated_Source\PSoC6\pdl\drivers\peripheral\profile/cy_profile.c ****         if (Cy_Profile_GetWeightedCount(ptrsArray[i], &num) == CY_PROFILE_SUCCESS)
 740              		.loc 1 414 0
 741 0014 A300     		lsls	r3, r4, #2
 742 0016 4246     		mov	r2, r8
ARM GAS  C:\Users\gjl\AppData\Local\Temp\cct3iP5Z.s 			page 29


 743 0018 D058     		ldr	r0, [r2, r3]
 744 001a 6946     		mov	r1, sp
 745 001c FFF7FEFF 		bl	Cy_Profile_GetWeightedCount
 746              	.LVL59:
 747 0020 0028     		cmp	r0, #0
 748 0022 03D1     		bne	.L47
 415:Generated_Source\PSoC6\pdl\drivers\peripheral\profile/cy_profile.c ****         {
 416:Generated_Source\PSoC6\pdl\drivers\peripheral\profile/cy_profile.c ****             daSum += num;
 749              		.loc 1 416 0
 750 0024 009A     		ldr	r2, [sp]
 751 0026 019B     		ldr	r3, [sp, #4]
 752 0028 B618     		adds	r6, r6, r2
 753 002a 5F41     		adcs	r7, r7, r3
 754              	.LVL60:
 755              	.L47:
 411:Generated_Source\PSoC6\pdl\drivers\peripheral\profile/cy_profile.c ****     {
 756              		.loc 1 411 0 discriminator 2
 757 002c 0134     		adds	r4, r4, #1
 758              	.LVL61:
 759              	.L46:
 411:Generated_Source\PSoC6\pdl\drivers\peripheral\profile/cy_profile.c ****     {
 760              		.loc 1 411 0 is_stmt 0 discriminator 1
 761 002e AC42     		cmp	r4, r5
 762 0030 F0D3     		bcc	.L48
 417:Generated_Source\PSoC6\pdl\drivers\peripheral\profile/cy_profile.c ****         }
 418:Generated_Source\PSoC6\pdl\drivers\peripheral\profile/cy_profile.c ****     }
 419:Generated_Source\PSoC6\pdl\drivers\peripheral\profile/cy_profile.c ****     
 420:Generated_Source\PSoC6\pdl\drivers\peripheral\profile/cy_profile.c ****     return (daSum);
 421:Generated_Source\PSoC6\pdl\drivers\peripheral\profile/cy_profile.c **** }
 763              		.loc 1 421 0 is_stmt 1
 764 0032 3000     		movs	r0, r6
 765 0034 3900     		movs	r1, r7
 766 0036 02B0     		add	sp, sp, #8
 767              		@ sp needed
 768              	.LVL62:
 769              	.LVL63:
 770              	.LVL64:
 771              	.LVL65:
 772 0038 04BC     		pop	{r2}
 773 003a 9046     		mov	r8, r2
 774 003c F0BD     		pop	{r4, r5, r6, r7, pc}
 775              		.cfi_endproc
 776              	.LFE51:
 777              		.size	Cy_Profile_GetSumWeightedCounts, .-Cy_Profile_GetSumWeightedCounts
 778 003e C046     		.bss
 779              		.align	2
 780              		.set	.LANCHOR0,. + 0
 781              		.type	cy_ep_ctrs, %object
 782              		.size	cy_ep_ctrs, 224
 783              	cy_ep_ctrs:
 784 0000 00000000 		.space	224
 784      00000000 
 784      00000000 
 784      00000000 
 784      00000000 
 785              		.text
 786              	.Letext0:
ARM GAS  C:\Users\gjl\AppData\Local\Temp\cct3iP5Z.s 			page 30


 787              		.file 3 "c:\\program files (x86)\\cypress\\psoc creator\\4.2\\psoc creator\\import\\gnu\\arm\\5.4.
 788              		.file 4 "c:\\program files (x86)\\cypress\\psoc creator\\4.2\\psoc creator\\import\\gnu\\arm\\5.4.
 789              		.file 5 "Generated_Source\\PSoC6\\pdl\\devices/psoc6/psoc63/include/psoc63_config.h"
 790              		.file 6 "Generated_Source\\PSoC6\\pdl\\devices/psoc6/ip/cyip_profile.h"