ARM GAS  C:\Users\gjl\AppData\Local\Temp\cceefPQd.s 			page 1


   1              		.syntax unified
   2              		.cpu cortex-m0plus
   3              		.fpu softvfp
   4              		.eabi_attribute 20, 1
   5              		.eabi_attribute 21, 1
   6              		.eabi_attribute 23, 3
   7              		.eabi_attribute 24, 1
   8              		.eabi_attribute 25, 1
   9              		.eabi_attribute 26, 1
  10              		.eabi_attribute 30, 1
  11              		.eabi_attribute 34, 0
  12              		.eabi_attribute 18, 4
  13              		.thumb
  14              		.syntax unified
  15              		.file	"cy_sysclk.c"
  16              		.text
  17              	.Ltext0:
  18              		.cfi_sections	.debug_frame
  19              		.global	__aeabi_ui2f
  20              		.global	__aeabi_fdiv
  21              		.global	__aeabi_fadd
  22              		.global	__aeabi_f2d
  23              		.global	__aeabi_d2f
  24              		.global	__aeabi_fmul
  25              		.global	__aeabi_f2uiz
  26              		.global	__aeabi_fcmpge
  27              		.global	__aeabi_fcmplt
  28              		.global	__aeabi_fcmpgt
  29              		.section	.text.Cy_SysClk_EcoConfigure,"ax",%progbits
  30              		.align	2
  31              		.global	Cy_SysClk_EcoConfigure
  32              		.code	16
  33              		.thumb_func
  34              		.type	Cy_SysClk_EcoConfigure, %function
  35              	Cy_SysClk_EcoConfigure:
  36              	.LFB126:
  37              		.file 1 "Generated_Source\\PSoC6\\pdl\\drivers\\peripheral\\sysclk\\cy_sysclk.c"
   1:Generated_Source\PSoC6\pdl\drivers\peripheral\sysclk/cy_sysclk.c **** /***************************************************************************//**
   2:Generated_Source\PSoC6\pdl\drivers\peripheral\sysclk/cy_sysclk.c **** * \file cy_sysclk.c
   3:Generated_Source\PSoC6\pdl\drivers\peripheral\sysclk/cy_sysclk.c **** * \version 1.10.1
   4:Generated_Source\PSoC6\pdl\drivers\peripheral\sysclk/cy_sysclk.c **** *
   5:Generated_Source\PSoC6\pdl\drivers\peripheral\sysclk/cy_sysclk.c **** * Provides an API implementation of the sysclk driver.
   6:Generated_Source\PSoC6\pdl\drivers\peripheral\sysclk/cy_sysclk.c **** *
   7:Generated_Source\PSoC6\pdl\drivers\peripheral\sysclk/cy_sysclk.c **** ********************************************************************************
   8:Generated_Source\PSoC6\pdl\drivers\peripheral\sysclk/cy_sysclk.c **** * \copyright
   9:Generated_Source\PSoC6\pdl\drivers\peripheral\sysclk/cy_sysclk.c **** * Copyright 2016-2018, Cypress Semiconductor Corporation. All rights reserved.
  10:Generated_Source\PSoC6\pdl\drivers\peripheral\sysclk/cy_sysclk.c **** * You may use this file only in accordance with the license, terms, conditions,
  11:Generated_Source\PSoC6\pdl\drivers\peripheral\sysclk/cy_sysclk.c **** * disclaimers, and limitations in the end user license agreement accompanying
  12:Generated_Source\PSoC6\pdl\drivers\peripheral\sysclk/cy_sysclk.c **** * the software package with which this file was provided.
  13:Generated_Source\PSoC6\pdl\drivers\peripheral\sysclk/cy_sysclk.c **** *******************************************************************************/
  14:Generated_Source\PSoC6\pdl\drivers\peripheral\sysclk/cy_sysclk.c **** 
  15:Generated_Source\PSoC6\pdl\drivers\peripheral\sysclk/cy_sysclk.c **** 
  16:Generated_Source\PSoC6\pdl\drivers\peripheral\sysclk/cy_sysclk.c **** #include "cy_sysclk.h"
  17:Generated_Source\PSoC6\pdl\drivers\peripheral\sysclk/cy_sysclk.c **** #include "syslib/cy_syslib.h"
  18:Generated_Source\PSoC6\pdl\drivers\peripheral\sysclk/cy_sysclk.c **** #include <math.h>
  19:Generated_Source\PSoC6\pdl\drivers\peripheral\sysclk/cy_sysclk.c **** #include <stdlib.h>
  20:Generated_Source\PSoC6\pdl\drivers\peripheral\sysclk/cy_sysclk.c **** 
ARM GAS  C:\Users\gjl\AppData\Local\Temp\cceefPQd.s 			page 2


  21:Generated_Source\PSoC6\pdl\drivers\peripheral\sysclk/cy_sysclk.c **** #if defined(__cplusplus)
  22:Generated_Source\PSoC6\pdl\drivers\peripheral\sysclk/cy_sysclk.c **** extern "C" {
  23:Generated_Source\PSoC6\pdl\drivers\peripheral\sysclk/cy_sysclk.c **** #endif /* __cplusplus */
  24:Generated_Source\PSoC6\pdl\drivers\peripheral\sysclk/cy_sysclk.c **** 
  25:Generated_Source\PSoC6\pdl\drivers\peripheral\sysclk/cy_sysclk.c **** /* # of elements in an array */
  26:Generated_Source\PSoC6\pdl\drivers\peripheral\sysclk/cy_sysclk.c **** #define  CY_SYSCLK_N_ELMTS(a)  (sizeof(a) / sizeof((a)[0]))
  27:Generated_Source\PSoC6\pdl\drivers\peripheral\sysclk/cy_sysclk.c **** 
  28:Generated_Source\PSoC6\pdl\drivers\peripheral\sysclk/cy_sysclk.c **** /* ========================================================================== */
  29:Generated_Source\PSoC6\pdl\drivers\peripheral\sysclk/cy_sysclk.c **** /* ===========================    ECO SECTION    ============================ */
  30:Generated_Source\PSoC6\pdl\drivers\peripheral\sysclk/cy_sysclk.c **** /* ========================================================================== */
  31:Generated_Source\PSoC6\pdl\drivers\peripheral\sysclk/cy_sysclk.c **** /**
  32:Generated_Source\PSoC6\pdl\drivers\peripheral\sysclk/cy_sysclk.c **** * \addtogroup group_sysclk_eco_funcs
  33:Generated_Source\PSoC6\pdl\drivers\peripheral\sysclk/cy_sysclk.c **** * \{
  34:Generated_Source\PSoC6\pdl\drivers\peripheral\sysclk/cy_sysclk.c **** */
  35:Generated_Source\PSoC6\pdl\drivers\peripheral\sysclk/cy_sysclk.c **** /*******************************************************************************
  36:Generated_Source\PSoC6\pdl\drivers\peripheral\sysclk/cy_sysclk.c **** * Function Name: Cy_SysClk_EcoConfigure
  37:Generated_Source\PSoC6\pdl\drivers\peripheral\sysclk/cy_sysclk.c **** ****************************************************************************//**
  38:Generated_Source\PSoC6\pdl\drivers\peripheral\sysclk/cy_sysclk.c **** *
  39:Generated_Source\PSoC6\pdl\drivers\peripheral\sysclk/cy_sysclk.c **** * Configures the external crystal oscillator (ECO) trim bits based on crystal 
  40:Generated_Source\PSoC6\pdl\drivers\peripheral\sysclk/cy_sysclk.c **** * characteristics. This function should be called only when the ECO is disabled.
  41:Generated_Source\PSoC6\pdl\drivers\peripheral\sysclk/cy_sysclk.c **** *
  42:Generated_Source\PSoC6\pdl\drivers\peripheral\sysclk/cy_sysclk.c **** * \param freq Operating frequency of the crystal in Hz.
  43:Generated_Source\PSoC6\pdl\drivers\peripheral\sysclk/cy_sysclk.c **** *
  44:Generated_Source\PSoC6\pdl\drivers\peripheral\sysclk/cy_sysclk.c **** * \param cLoad Crystal load capacitance in pF.
  45:Generated_Source\PSoC6\pdl\drivers\peripheral\sysclk/cy_sysclk.c **** *
  46:Generated_Source\PSoC6\pdl\drivers\peripheral\sysclk/cy_sysclk.c **** * \param esr Effective series resistance of the crystal in ohms.
  47:Generated_Source\PSoC6\pdl\drivers\peripheral\sysclk/cy_sysclk.c **** *
  48:Generated_Source\PSoC6\pdl\drivers\peripheral\sysclk/cy_sysclk.c **** * \param driveLevel Crystal drive level in uW.
  49:Generated_Source\PSoC6\pdl\drivers\peripheral\sysclk/cy_sysclk.c **** *
  50:Generated_Source\PSoC6\pdl\drivers\peripheral\sysclk/cy_sysclk.c **** * \return Error / status code:<br>
  51:Generated_Source\PSoC6\pdl\drivers\peripheral\sysclk/cy_sysclk.c **** * CY_SYSCLK_SUCCESS - ECO configuration completed successfully<br>
  52:Generated_Source\PSoC6\pdl\drivers\peripheral\sysclk/cy_sysclk.c **** * CY_SYSCLK_BAD_PARAM - One or more invalid parameters<br>
  53:Generated_Source\PSoC6\pdl\drivers\peripheral\sysclk/cy_sysclk.c **** * CY_SYSCLK_INVALID_STATE - ECO already enabled
  54:Generated_Source\PSoC6\pdl\drivers\peripheral\sysclk/cy_sysclk.c **** *
  55:Generated_Source\PSoC6\pdl\drivers\peripheral\sysclk/cy_sysclk.c **** * \note
  56:Generated_Source\PSoC6\pdl\drivers\peripheral\sysclk/cy_sysclk.c **** * The following calculations are implemented, generally in floating point:
  57:Generated_Source\PSoC6\pdl\drivers\peripheral\sysclk/cy_sysclk.c **** *
  58:Generated_Source\PSoC6\pdl\drivers\peripheral\sysclk/cy_sysclk.c **** * \verbatim
  59:Generated_Source\PSoC6\pdl\drivers\peripheral\sysclk/cy_sysclk.c **** *   freqMHz = freq / 1000000
  60:Generated_Source\PSoC6\pdl\drivers\peripheral\sysclk/cy_sysclk.c **** *   max amplitude Vpp = 1000 * sqrt(drivelevel / 2 / esr) / 3.14 / freqMHz / cLoad
  61:Generated_Source\PSoC6\pdl\drivers\peripheral\sysclk/cy_sysclk.c **** *   gm_min mA/V = 5 * 4 * 3.14 * 3.14 * freqMhz^2 * cLoad^2 * 4 * esr / 1000000000
  62:Generated_Source\PSoC6\pdl\drivers\peripheral\sysclk/cy_sysclk.c **** *   Number of amplifier sections = INT(gm_min / 4.5)
  63:Generated_Source\PSoC6\pdl\drivers\peripheral\sysclk/cy_sysclk.c **** *
  64:Generated_Source\PSoC6\pdl\drivers\peripheral\sysclk/cy_sysclk.c **** *   As a result of the above calculations, max amplitude must be >= 0.5, and the
  65:Generated_Source\PSoC6\pdl\drivers\peripheral\sysclk/cy_sysclk.c **** *   number of amplifier sections must be <= 3, otherwise this function returns with
  66:Generated_Source\PSoC6\pdl\drivers\peripheral\sysclk/cy_sysclk.c **** *   a parameter error.
  67:Generated_Source\PSoC6\pdl\drivers\peripheral\sysclk/cy_sysclk.c **** *
  68:Generated_Source\PSoC6\pdl\drivers\peripheral\sysclk/cy_sysclk.c **** *   atrim = if (max amplitude < 0.5) then error
  69:Generated_Source\PSoC6\pdl\drivers\peripheral\sysclk/cy_sysclk.c **** *           else 2 * the following:
  70:Generated_Source\PSoC6\pdl\drivers\peripheral\sysclk/cy_sysclk.c **** *                    max amplitude < 0.6: 0
  71:Generated_Source\PSoC6\pdl\drivers\peripheral\sysclk/cy_sysclk.c **** *                    max amplitude < 0.7: 1
  72:Generated_Source\PSoC6\pdl\drivers\peripheral\sysclk/cy_sysclk.c **** *                    max amplitude < 0.8: 2
  73:Generated_Source\PSoC6\pdl\drivers\peripheral\sysclk/cy_sysclk.c **** *                    max amplitude < 0.9: 3
  74:Generated_Source\PSoC6\pdl\drivers\peripheral\sysclk/cy_sysclk.c **** *                    max amplitude < 1.15: 5
  75:Generated_Source\PSoC6\pdl\drivers\peripheral\sysclk/cy_sysclk.c **** *                    max amplitude < 1.275: 6
  76:Generated_Source\PSoC6\pdl\drivers\peripheral\sysclk/cy_sysclk.c **** *                    max amplitude >= 1.275: 7
  77:Generated_Source\PSoC6\pdl\drivers\peripheral\sysclk/cy_sysclk.c **** *   wdtrim = if (max amplitude < 0.5) then error
ARM GAS  C:\Users\gjl\AppData\Local\Temp\cceefPQd.s 			page 3


  78:Generated_Source\PSoC6\pdl\drivers\peripheral\sysclk/cy_sysclk.c **** *            else 2 * the following:
  79:Generated_Source\PSoC6\pdl\drivers\peripheral\sysclk/cy_sysclk.c **** *                     max amplitude < 1.2: INT(5 * max amplitude) - 2
  80:Generated_Source\PSoC6\pdl\drivers\peripheral\sysclk/cy_sysclk.c **** *                     max amplitude >= 1.2: 3
  81:Generated_Source\PSoC6\pdl\drivers\peripheral\sysclk/cy_sysclk.c **** *   gtrim = if (number of amplifier sections > 3) then error
  82:Generated_Source\PSoC6\pdl\drivers\peripheral\sysclk/cy_sysclk.c **** *           else the following:
  83:Generated_Source\PSoC6\pdl\drivers\peripheral\sysclk/cy_sysclk.c **** *                number of amplifier sections > 1: number of amplifier sections
  84:Generated_Source\PSoC6\pdl\drivers\peripheral\sysclk/cy_sysclk.c **** *                number of amplifier sections = 1: 0
  85:Generated_Source\PSoC6\pdl\drivers\peripheral\sysclk/cy_sysclk.c **** *                number of amplifier sections < 1: 1
  86:Generated_Source\PSoC6\pdl\drivers\peripheral\sysclk/cy_sysclk.c **** *   rtrim = if (gtrim = error) then error
  87:Generated_Source\PSoC6\pdl\drivers\peripheral\sysclk/cy_sysclk.c **** *           else the following:
  88:Generated_Source\PSoC6\pdl\drivers\peripheral\sysclk/cy_sysclk.c **** *                freqMHz > 26.8: 0
  89:Generated_Source\PSoC6\pdl\drivers\peripheral\sysclk/cy_sysclk.c **** *                freqMHz > 23.33: 1
  90:Generated_Source\PSoC6\pdl\drivers\peripheral\sysclk/cy_sysclk.c **** *                freqMHz > 16.5: 2
  91:Generated_Source\PSoC6\pdl\drivers\peripheral\sysclk/cy_sysclk.c **** *                freqMHz <= 16.5: 3
  92:Generated_Source\PSoC6\pdl\drivers\peripheral\sysclk/cy_sysclk.c **** *   ftrim = if (atrim = error) then error
  93:Generated_Source\PSoC6\pdl\drivers\peripheral\sysclk/cy_sysclk.c **** *           else INT(atrim / 2)
  94:Generated_Source\PSoC6\pdl\drivers\peripheral\sysclk/cy_sysclk.c **** * \endverbatim
  95:Generated_Source\PSoC6\pdl\drivers\peripheral\sysclk/cy_sysclk.c **** *
  96:Generated_Source\PSoC6\pdl\drivers\peripheral\sysclk/cy_sysclk.c **** * \funcusage
  97:Generated_Source\PSoC6\pdl\drivers\peripheral\sysclk/cy_sysclk.c **** * \snippet sysclk/sysclk_v1_10_sut_01.cydsn/main_cm4.c snippet_Cy_SysClk_EcoConfigure
  98:Generated_Source\PSoC6\pdl\drivers\peripheral\sysclk/cy_sysclk.c **** *
  99:Generated_Source\PSoC6\pdl\drivers\peripheral\sysclk/cy_sysclk.c **** *******************************************************************************/
 100:Generated_Source\PSoC6\pdl\drivers\peripheral\sysclk/cy_sysclk.c **** cy_en_sysclk_status_t Cy_SysClk_EcoConfigure(uint32_t freq, uint32_t cLoad, uint32_t esr, uint32_t 
 101:Generated_Source\PSoC6\pdl\drivers\peripheral\sysclk/cy_sysclk.c **** {
  38              		.loc 1 101 0
  39              		.cfi_startproc
  40              		@ args = 0, pretend = 0, frame = 0
  41              		@ frame_needed = 0, uses_anonymous_args = 0
  42              	.LVL0:
  43 0000 F8B5     		push	{r3, r4, r5, r6, r7, lr}
  44              		.cfi_def_cfa_offset 24
  45              		.cfi_offset 3, -24
  46              		.cfi_offset 4, -20
  47              		.cfi_offset 5, -16
  48              		.cfi_offset 6, -12
  49              		.cfi_offset 7, -8
  50              		.cfi_offset 14, -4
  51 0002 0C00     		movs	r4, r1
  52 0004 1500     		movs	r5, r2
  53 0006 1E00     		movs	r6, r3
  54              	.LVL1:
 102:Generated_Source\PSoC6\pdl\drivers\peripheral\sysclk/cy_sysclk.c ****     /* error if ECO is not disabled - any of the 3 enable bits are set */
 103:Generated_Source\PSoC6\pdl\drivers\peripheral\sysclk/cy_sysclk.c ****     cy_en_sysclk_status_t rtnval = CY_SYSCLK_INVALID_STATE;
 104:Generated_Source\PSoC6\pdl\drivers\peripheral\sysclk/cy_sysclk.c ****     if ((SRSS->CLK_ECO_CONFIG & 0xE0000000ul) == 0ul)
  55              		.loc 1 104 0
  56 0008 6C4B     		ldr	r3, .L32
  57              	.LVL2:
  58 000a 6D4A     		ldr	r2, .L32+4
  59              	.LVL3:
  60 000c D358     		ldr	r3, [r2, r3]
  61 000e 5B0F     		lsrs	r3, r3, #29
  62 0010 00D0     		beq	.LCB28
  63 0012 CDE0     		b	.L11	@long jump
  64              	.LCB28:
  65              	.LBB29:
 105:Generated_Source\PSoC6\pdl\drivers\peripheral\sysclk/cy_sysclk.c ****     {
 106:Generated_Source\PSoC6\pdl\drivers\peripheral\sysclk/cy_sysclk.c ****         /* calculate intemediate values */
ARM GAS  C:\Users\gjl\AppData\Local\Temp\cceefPQd.s 			page 4


 107:Generated_Source\PSoC6\pdl\drivers\peripheral\sysclk/cy_sysclk.c ****         float32_t freqMHz = (float32_t)freq / 1000000.0f;
  66              		.loc 1 107 0
  67 0014 FFF7FEFF 		bl	__aeabi_ui2f
  68              	.LVL4:
  69 0018 6A49     		ldr	r1, .L32+8
  70 001a FFF7FEFF 		bl	__aeabi_fdiv
  71              	.LVL5:
  72 001e 071C     		adds	r7, r0, #0
  73              	.LVL6:
 108:Generated_Source\PSoC6\pdl\drivers\peripheral\sysclk/cy_sysclk.c ****         float32_t maxAmplitude =
 109:Generated_Source\PSoC6\pdl\drivers\peripheral\sysclk/cy_sysclk.c ****             (1000.0f * ((float32_t)sqrt((float64_t)((float32_t)driveLevel / (2.0f * (float32_t)esr)
  74              		.loc 1 109 0
  75 0020 3000     		movs	r0, r6
  76              	.LVL7:
  77 0022 FFF7FEFF 		bl	__aeabi_ui2f
  78              	.LVL8:
  79 0026 061C     		adds	r6, r0, #0
  80              	.LVL9:
  81 0028 2800     		movs	r0, r5
  82 002a FFF7FEFF 		bl	__aeabi_ui2f
  83              	.LVL10:
  84 002e 011C     		adds	r1, r0, #0
  85 0030 FFF7FEFF 		bl	__aeabi_fadd
  86              	.LVL11:
  87 0034 011C     		adds	r1, r0, #0
  88 0036 301C     		adds	r0, r6, #0
  89 0038 FFF7FEFF 		bl	__aeabi_fdiv
  90              	.LVL12:
  91 003c 051C     		adds	r5, r0, #0
  92              	.LVL13:
  93 003e 281C     		adds	r0, r5, #0
  94 0040 FFF7FEFF 		bl	__aeabi_f2d
  95              	.LVL14:
  96 0044 FFF7FEFF 		bl	sqrt
  97              	.LVL15:
  98 0048 FFF7FEFF 		bl	__aeabi_d2f
  99              	.LVL16:
 100 004c 5E49     		ldr	r1, .L32+12
 101 004e FFF7FEFF 		bl	__aeabi_fmul
 102              	.LVL17:
 103 0052 051C     		adds	r5, r0, #0
 110:Generated_Source\PSoC6\pdl\drivers\peripheral\sysclk/cy_sysclk.c ****             (3.14f * freqMHz * (float32_t)cLoad);
 104              		.loc 1 110 0
 105 0054 5D49     		ldr	r1, .L32+16
 106 0056 381C     		adds	r0, r7, #0
 107 0058 FFF7FEFF 		bl	__aeabi_fmul
 108              	.LVL18:
 109 005c 061C     		adds	r6, r0, #0
 110 005e 2000     		movs	r0, r4
 111 0060 FFF7FEFF 		bl	__aeabi_ui2f
 112              	.LVL19:
 113 0064 041C     		adds	r4, r0, #0
 114              	.LVL20:
 115 0066 011C     		adds	r1, r0, #0
 116 0068 301C     		adds	r0, r6, #0
 117 006a FFF7FEFF 		bl	__aeabi_fmul
 118              	.LVL21:
ARM GAS  C:\Users\gjl\AppData\Local\Temp\cceefPQd.s 			page 5


 119 006e 011C     		adds	r1, r0, #0
 108:Generated_Source\PSoC6\pdl\drivers\peripheral\sysclk/cy_sysclk.c ****         float32_t maxAmplitude =
 120              		.loc 1 108 0
 121 0070 281C     		adds	r0, r5, #0
 122 0072 FFF7FEFF 		bl	__aeabi_fdiv
 123              	.LVL22:
 124 0076 051C     		adds	r5, r0, #0
 125              	.LVL23:
 111:Generated_Source\PSoC6\pdl\drivers\peripheral\sysclk/cy_sysclk.c ****         float32_t gm_min =
 112:Generated_Source\PSoC6\pdl\drivers\peripheral\sysclk/cy_sysclk.c ****             (788.8f /*5 * 4 * 3.14 * 3.14 * 4*/ * freqMHz * freqMHz * (float32_t)cLoad * (float32_t
 126              		.loc 1 112 0
 127 0078 5549     		ldr	r1, .L32+20
 128 007a 381C     		adds	r0, r7, #0
 129              	.LVL24:
 130 007c FFF7FEFF 		bl	__aeabi_fmul
 131              	.LVL25:
 132 0080 011C     		adds	r1, r0, #0
 133 0082 381C     		adds	r0, r7, #0
 134 0084 FFF7FEFF 		bl	__aeabi_fmul
 135              	.LVL26:
 136 0088 011C     		adds	r1, r0, #0
 137 008a 201C     		adds	r0, r4, #0
 138 008c FFF7FEFF 		bl	__aeabi_fmul
 139              	.LVL27:
 140 0090 011C     		adds	r1, r0, #0
 141 0092 201C     		adds	r0, r4, #0
 142 0094 FFF7FEFF 		bl	__aeabi_fmul
 143              	.LVL28:
 111:Generated_Source\PSoC6\pdl\drivers\peripheral\sysclk/cy_sysclk.c ****         float32_t gm_min =
 144              		.loc 1 111 0
 145 0098 4E49     		ldr	r1, .L32+24
 146 009a FFF7FEFF 		bl	__aeabi_fdiv
 147              	.LVL29:
 113:Generated_Source\PSoC6\pdl\drivers\peripheral\sysclk/cy_sysclk.c ****             1000000000.0f;
 114:Generated_Source\PSoC6\pdl\drivers\peripheral\sysclk/cy_sysclk.c ****         uint32_t nAmpSections = (uint32_t)(gm_min / 4.5f);
 148              		.loc 1 114 0
 149 009e 4E49     		ldr	r1, .L32+28
 150 00a0 FFF7FEFF 		bl	__aeabi_fdiv
 151              	.LVL30:
 152 00a4 FFF7FEFF 		bl	__aeabi_f2uiz
 153              	.LVL31:
 154 00a8 0400     		movs	r4, r0
 155              	.LVL32:
 115:Generated_Source\PSoC6\pdl\drivers\peripheral\sysclk/cy_sysclk.c **** 
 116:Generated_Source\PSoC6\pdl\drivers\peripheral\sysclk/cy_sysclk.c ****         /* Error if input parameters cause erroneous intermediate values. */
 117:Generated_Source\PSoC6\pdl\drivers\peripheral\sysclk/cy_sysclk.c ****         rtnval = CY_SYSCLK_BAD_PARAM;
 118:Generated_Source\PSoC6\pdl\drivers\peripheral\sysclk/cy_sysclk.c ****         if ((maxAmplitude >= 0.5f) && (nAmpSections <= 3ul))
 156              		.loc 1 118 0
 157 00aa FC21     		movs	r1, #252
 158 00ac 8905     		lsls	r1, r1, #22
 159 00ae 281C     		adds	r0, r5, #0
 160              	.LVL33:
 161 00b0 FFF7FEFF 		bl	__aeabi_fcmpge
 162              	.LVL34:
 163 00b4 0028     		cmp	r0, #0
 164 00b6 7DD0     		beq	.L28
 165              		.loc 1 118 0 is_stmt 0 discriminator 1
ARM GAS  C:\Users\gjl\AppData\Local\Temp\cceefPQd.s 			page 6


 166 00b8 032C     		cmp	r4, #3
 167 00ba 7DD8     		bhi	.L13
 168              	.LBB30:
 119:Generated_Source\PSoC6\pdl\drivers\peripheral\sysclk/cy_sysclk.c ****         {
 120:Generated_Source\PSoC6\pdl\drivers\peripheral\sysclk/cy_sysclk.c ****             uint32_t atrim, wdtrim, gtrim, rtrim, ftrim, reg;
 121:Generated_Source\PSoC6\pdl\drivers\peripheral\sysclk/cy_sysclk.c **** 
 122:Generated_Source\PSoC6\pdl\drivers\peripheral\sysclk/cy_sysclk.c ****             atrim = 2ul * ((maxAmplitude < 0.6f) ? 0ul :
 169              		.loc 1 122 0 is_stmt 1
 170 00bc 4749     		ldr	r1, .L32+32
 171 00be 281C     		adds	r0, r5, #0
 172 00c0 FFF7FEFF 		bl	__aeabi_fcmplt
 173              	.LVL35:
 174 00c4 0028     		cmp	r0, #0
 175 00c6 1FD1     		bne	.L14
 176              		.loc 1 122 0 is_stmt 0 discriminator 2
 177 00c8 4549     		ldr	r1, .L32+36
 178 00ca 281C     		adds	r0, r5, #0
 179 00cc FFF7FEFF 		bl	__aeabi_fcmplt
 180              	.LVL36:
 181 00d0 0028     		cmp	r0, #0
 182 00d2 1BD1     		bne	.L15
 183              		.loc 1 122 0 discriminator 5
 184 00d4 4349     		ldr	r1, .L32+40
 185 00d6 281C     		adds	r0, r5, #0
 186 00d8 FFF7FEFF 		bl	__aeabi_fcmplt
 187              	.LVL37:
 188 00dc 0028     		cmp	r0, #0
 189 00de 17D1     		bne	.L16
 190              		.loc 1 122 0 discriminator 8
 191 00e0 4149     		ldr	r1, .L32+44
 192 00e2 281C     		adds	r0, r5, #0
 193 00e4 FFF7FEFF 		bl	__aeabi_fcmplt
 194              	.LVL38:
 195 00e8 0028     		cmp	r0, #0
 196 00ea 13D1     		bne	.L17
 197              		.loc 1 122 0 discriminator 11
 198 00ec 3F49     		ldr	r1, .L32+48
 199 00ee 281C     		adds	r0, r5, #0
 200 00f0 FFF7FEFF 		bl	__aeabi_fcmplt
 201              	.LVL39:
 202 00f4 0028     		cmp	r0, #0
 203 00f6 0FD1     		bne	.L18
 204              		.loc 1 122 0 discriminator 14
 205 00f8 3D49     		ldr	r1, .L32+52
 206 00fa 281C     		adds	r0, r5, #0
 207 00fc FFF7FEFF 		bl	__aeabi_fcmplt
 208              	.LVL40:
 209 0100 0028     		cmp	r0, #0
 210 0102 0BD0     		beq	.L29
 211              		.loc 1 122 0
 212 0104 0C26     		movs	r6, #12
 213 0106 0AE0     		b	.L4
 214              	.L14:
 215 0108 0026     		movs	r6, #0
 216 010a 08E0     		b	.L4
 217              	.L15:
 218 010c 0226     		movs	r6, #2
ARM GAS  C:\Users\gjl\AppData\Local\Temp\cceefPQd.s 			page 7


 219 010e 06E0     		b	.L4
 220              	.L16:
 221 0110 0426     		movs	r6, #4
 222 0112 04E0     		b	.L4
 223              	.L17:
 224 0114 0626     		movs	r6, #6
 225 0116 02E0     		b	.L4
 226              	.L18:
 227 0118 0A26     		movs	r6, #10
 228 011a 00E0     		b	.L4
 229              	.L29:
 230 011c 0E26     		movs	r6, #14
 231              	.L4:
 232              	.LVL41:
 123:Generated_Source\PSoC6\pdl\drivers\peripheral\sysclk/cy_sysclk.c ****                            ((maxAmplitude < 0.7f) ? 1ul :
 124:Generated_Source\PSoC6\pdl\drivers\peripheral\sysclk/cy_sysclk.c ****                             ((maxAmplitude < 0.8f) ? 2ul :
 125:Generated_Source\PSoC6\pdl\drivers\peripheral\sysclk/cy_sysclk.c ****                              ((maxAmplitude < 0.9f) ? 3ul :
 126:Generated_Source\PSoC6\pdl\drivers\peripheral\sysclk/cy_sysclk.c ****                               ((maxAmplitude < 1.15f) ? 5ul :
 127:Generated_Source\PSoC6\pdl\drivers\peripheral\sysclk/cy_sysclk.c ****                                ((maxAmplitude < 1.275f) ? 6ul : 7ul))))));
 128:Generated_Source\PSoC6\pdl\drivers\peripheral\sysclk/cy_sysclk.c **** 
 129:Generated_Source\PSoC6\pdl\drivers\peripheral\sysclk/cy_sysclk.c ****             wdtrim = 2ul * ((maxAmplitude < 1.2f) ? (uint32_t)(5.0f * maxAmplitude) - 2ul : 3ul);
 233              		.loc 1 129 0 is_stmt 1 discriminator 24
 234 011e 3549     		ldr	r1, .L32+56
 235 0120 281C     		adds	r0, r5, #0
 236 0122 FFF7FEFF 		bl	__aeabi_fcmplt
 237              	.LVL42:
 238 0126 0028     		cmp	r0, #0
 239 0128 09D0     		beq	.L30
 240              		.loc 1 129 0 is_stmt 0 discriminator 1
 241 012a 3349     		ldr	r1, .L32+60
 242 012c 281C     		adds	r0, r5, #0
 243 012e FFF7FEFF 		bl	__aeabi_fmul
 244              	.LVL43:
 245 0132 FFF7FEFF 		bl	__aeabi_f2uiz
 246              	.LVL44:
 247 0136 314B     		ldr	r3, .L32+64
 248 0138 C518     		adds	r5, r0, r3
 249              	.LVL45:
 250 013a 6D00     		lsls	r5, r5, #1
 251 013c 00E0     		b	.L6
 252              	.LVL46:
 253              	.L30:
 254              		.loc 1 129 0
 255 013e 0625     		movs	r5, #6
 256              	.LVL47:
 257              	.L6:
 130:Generated_Source\PSoC6\pdl\drivers\peripheral\sysclk/cy_sysclk.c **** 
 131:Generated_Source\PSoC6\pdl\drivers\peripheral\sysclk/cy_sysclk.c ****             gtrim = ((nAmpSections > 1ul) ? nAmpSections :
 258              		.loc 1 131 0 is_stmt 1 discriminator 4
 259 0140 012C     		cmp	r4, #1
 260 0142 03D8     		bhi	.L8
 132:Generated_Source\PSoC6\pdl\drivers\peripheral\sysclk/cy_sysclk.c ****                      ((nAmpSections == 1ul) ? 0ul : 1ul));
 261              		.loc 1 132 0 discriminator 1
 262 0144 013C     		subs	r4, r4, #1
 263              	.LVL48:
 264 0146 631E     		subs	r3, r4, #1
 265 0148 9C41     		sbcs	r4, r4, r3
ARM GAS  C:\Users\gjl\AppData\Local\Temp\cceefPQd.s 			page 8


 266              	.LVL49:
 267 014a E4B2     		uxtb	r4, r4
 268              	.L8:
 269              	.LVL50:
 133:Generated_Source\PSoC6\pdl\drivers\peripheral\sysclk/cy_sysclk.c **** 
 134:Generated_Source\PSoC6\pdl\drivers\peripheral\sysclk/cy_sysclk.c ****             rtrim = ((freqMHz > 26.8f) ? 0ul :
 270              		.loc 1 134 0 discriminator 4
 271 014c 2C49     		ldr	r1, .L32+68
 272 014e 381C     		adds	r0, r7, #0
 273 0150 FFF7FEFF 		bl	__aeabi_fcmpgt
 274              	.LVL51:
 275 0154 0028     		cmp	r0, #0
 276 0156 0DD1     		bne	.L21
 135:Generated_Source\PSoC6\pdl\drivers\peripheral\sysclk/cy_sysclk.c ****                      ((freqMHz > 23.33f) ? 1ul :
 277              		.loc 1 135 0
 278 0158 2A49     		ldr	r1, .L32+72
 279 015a 381C     		adds	r0, r7, #0
 280 015c FFF7FEFF 		bl	__aeabi_fcmpgt
 281              	.LVL52:
 282 0160 0028     		cmp	r0, #0
 283 0162 09D1     		bne	.L22
 136:Generated_Source\PSoC6\pdl\drivers\peripheral\sysclk/cy_sysclk.c ****                       ((freqMHz > 16.5f) ? 2ul : 3ul)));
 284              		.loc 1 136 0
 285 0164 2849     		ldr	r1, .L32+76
 286 0166 381C     		adds	r0, r7, #0
 287 0168 FFF7FEFF 		bl	__aeabi_fcmpgt
 288              	.LVL53:
 289 016c 0028     		cmp	r0, #0
 290 016e 05D0     		beq	.L31
 291 0170 0227     		movs	r7, #2
 292              	.LVL54:
 293 0172 04E0     		b	.L9
 294              	.LVL55:
 295              	.L21:
 134:Generated_Source\PSoC6\pdl\drivers\peripheral\sysclk/cy_sysclk.c ****                      ((freqMHz > 23.33f) ? 1ul :
 296              		.loc 1 134 0
 297 0174 0027     		movs	r7, #0
 298              	.LVL56:
 299 0176 02E0     		b	.L9
 300              	.LVL57:
 301              	.L22:
 135:Generated_Source\PSoC6\pdl\drivers\peripheral\sysclk/cy_sysclk.c ****                      ((freqMHz > 23.33f) ? 1ul :
 302              		.loc 1 135 0
 303 0178 0127     		movs	r7, #1
 304              	.LVL58:
 305 017a 00E0     		b	.L9
 306              	.LVL59:
 307              	.L31:
 308              		.loc 1 136 0
 309 017c 0327     		movs	r7, #3
 310              	.LVL60:
 311              	.L9:
 137:Generated_Source\PSoC6\pdl\drivers\peripheral\sysclk/cy_sysclk.c **** 
 138:Generated_Source\PSoC6\pdl\drivers\peripheral\sysclk/cy_sysclk.c ****             ftrim = atrim / 2ul;
 139:Generated_Source\PSoC6\pdl\drivers\peripheral\sysclk/cy_sysclk.c **** 
 140:Generated_Source\PSoC6\pdl\drivers\peripheral\sysclk/cy_sysclk.c ****             /* update all fields of trim control register with one write, without
 141:Generated_Source\PSoC6\pdl\drivers\peripheral\sysclk/cy_sysclk.c ****                changing the ITRIM field in bits [21:16]:
ARM GAS  C:\Users\gjl\AppData\Local\Temp\cceefPQd.s 			page 9


 142:Generated_Source\PSoC6\pdl\drivers\peripheral\sysclk/cy_sysclk.c ****                  gtrim:  bits [13:12]
 143:Generated_Source\PSoC6\pdl\drivers\peripheral\sysclk/cy_sysclk.c ****                  rtrim:  bits [11:10]
 144:Generated_Source\PSoC6\pdl\drivers\peripheral\sysclk/cy_sysclk.c ****                  ftrim:  bits  [9:8]
 145:Generated_Source\PSoC6\pdl\drivers\peripheral\sysclk/cy_sysclk.c ****                  atrim:  bits  [7:4]
 146:Generated_Source\PSoC6\pdl\drivers\peripheral\sysclk/cy_sysclk.c ****                  wdtrim: bits  [2:0]
 147:Generated_Source\PSoC6\pdl\drivers\peripheral\sysclk/cy_sysclk.c ****             */
 148:Generated_Source\PSoC6\pdl\drivers\peripheral\sysclk/cy_sysclk.c ****             reg = (SRSS->CLK_TRIM_ECO_CTL & ~0x3FFFul);
 312              		.loc 1 148 0 discriminator 2
 313 017e 1049     		ldr	r1, .L32+4
 314 0180 224A     		ldr	r2, .L32+80
 315 0182 8858     		ldr	r0, [r1, r2]
 316 0184 800B     		lsrs	r0, r0, #14
 317 0186 8003     		lsls	r0, r0, #14
 318              	.LVL61:
 149:Generated_Source\PSoC6\pdl\drivers\peripheral\sysclk/cy_sysclk.c ****             reg |= (gtrim  & 3ul)    << 12;
 319              		.loc 1 149 0 discriminator 2
 320 0188 2403     		lsls	r4, r4, #12
 321              	.LVL62:
 322 018a C023     		movs	r3, #192
 323 018c 9B01     		lsls	r3, r3, #6
 324 018e 1C40     		ands	r4, r3
 325 0190 0443     		orrs	r4, r0
 326              	.LVL63:
 150:Generated_Source\PSoC6\pdl\drivers\peripheral\sysclk/cy_sysclk.c ****             reg |= (rtrim  & 3ul)    << 10;
 327              		.loc 1 150 0 discriminator 2
 328 0192 BB02     		lsls	r3, r7, #10
 329 0194 1C43     		orrs	r4, r3
 330              	.LVL64:
 151:Generated_Source\PSoC6\pdl\drivers\peripheral\sysclk/cy_sysclk.c ****             reg |= (ftrim  & 3ul)    << 8;
 331              		.loc 1 151 0 discriminator 2
 332 0196 F001     		lsls	r0, r6, #7
 333 0198 C023     		movs	r3, #192
 334 019a 9B00     		lsls	r3, r3, #2
 335 019c 0340     		ands	r3, r0
 336 019e 1C43     		orrs	r4, r3
 337              	.LVL65:
 152:Generated_Source\PSoC6\pdl\drivers\peripheral\sysclk/cy_sysclk.c ****             reg |= (atrim  & 0x0Ful) << 4;
 338              		.loc 1 152 0 discriminator 2
 339 01a0 3601     		lsls	r6, r6, #4
 340              	.LVL66:
 341 01a2 2643     		orrs	r6, r4
 342              	.LVL67:
 153:Generated_Source\PSoC6\pdl\drivers\peripheral\sysclk/cy_sysclk.c ****             reg |= (wdtrim & 7ul);
 343              		.loc 1 153 0 discriminator 2
 344 01a4 0720     		movs	r0, #7
 345 01a6 0540     		ands	r5, r0
 346              	.LVL68:
 347 01a8 2E43     		orrs	r6, r5
 348              	.LVL69:
 154:Generated_Source\PSoC6\pdl\drivers\peripheral\sysclk/cy_sysclk.c ****             SRSS->CLK_TRIM_ECO_CTL = reg;
 349              		.loc 1 154 0 discriminator 2
 350 01aa 8E50     		str	r6, [r1, r2]
 351              	.LVL70:
 155:Generated_Source\PSoC6\pdl\drivers\peripheral\sysclk/cy_sysclk.c **** 
 156:Generated_Source\PSoC6\pdl\drivers\peripheral\sysclk/cy_sysclk.c ****             rtnval = CY_SYSCLK_SUCCESS;
 352              		.loc 1 156 0 discriminator 2
 353 01ac 0020     		movs	r0, #0
ARM GAS  C:\Users\gjl\AppData\Local\Temp\cceefPQd.s 			page 10


 354 01ae 04E0     		b	.L2
 355              	.LVL71:
 356              	.L11:
 357              	.LBE30:
 358              	.LBE29:
 103:Generated_Source\PSoC6\pdl\drivers\peripheral\sysclk/cy_sysclk.c ****     if ((SRSS->CLK_ECO_CONFIG & 0xE0000000ul) == 0ul)
 359              		.loc 1 103 0
 360 01b0 1748     		ldr	r0, .L32+84
 361              	.LVL72:
 362 01b2 02E0     		b	.L2
 363              	.LVL73:
 364              	.L28:
 365              	.LBB31:
 117:Generated_Source\PSoC6\pdl\drivers\peripheral\sysclk/cy_sysclk.c ****         if ((maxAmplitude >= 0.5f) && (nAmpSections <= 3ul))
 366              		.loc 1 117 0
 367 01b4 1748     		ldr	r0, .L32+88
 368 01b6 00E0     		b	.L2
 369              	.L13:
 370 01b8 1648     		ldr	r0, .L32+88
 371              	.LVL74:
 372              	.L2:
 373              	.LBE31:
 157:Generated_Source\PSoC6\pdl\drivers\peripheral\sysclk/cy_sysclk.c ****         } /* if valid parameters */
 158:Generated_Source\PSoC6\pdl\drivers\peripheral\sysclk/cy_sysclk.c ****     } /* if ECO not enabled */
 159:Generated_Source\PSoC6\pdl\drivers\peripheral\sysclk/cy_sysclk.c **** 
 160:Generated_Source\PSoC6\pdl\drivers\peripheral\sysclk/cy_sysclk.c ****     return (rtnval);
 161:Generated_Source\PSoC6\pdl\drivers\peripheral\sysclk/cy_sysclk.c **** }
 374              		.loc 1 161 0
 375              		@ sp needed
 376 01ba F8BD     		pop	{r3, r4, r5, r6, r7, pc}
 377              	.L33:
 378              		.align	2
 379              	.L32:
 380 01bc 2C050000 		.word	1324
 381 01c0 00002640 		.word	1076232192
 382 01c4 00247449 		.word	1232348160
 383 01c8 00007A44 		.word	1148846080
 384 01cc C3F54840 		.word	1078523331
 385 01d0 33334544 		.word	1145385779
 386 01d4 286B6E4E 		.word	1315859240
 387 01d8 00009040 		.word	1083179008
 388 01dc 9A99193F 		.word	1058642330
 389 01e0 3333333F 		.word	1060320051
 390 01e4 CDCC4C3F 		.word	1061997773
 391 01e8 6666663F 		.word	1063675494
 392 01ec 3333933F 		.word	1066611507
 393 01f0 3333A33F 		.word	1067660083
 394 01f4 9A99993F 		.word	1067030938
 395 01f8 0000A040 		.word	1084227584
 396 01fc FEFFFF7F 		.word	2147483646
 397 0200 6666D641 		.word	1104569958
 398 0204 D7A3BA41 		.word	1102750679
 399 0208 00008441 		.word	1099169792
 400 020c 20FF0000 		.word	65312
 401 0210 03004A00 		.word	4849667
 402 0214 01004A00 		.word	4849665
 403              		.cfi_endproc
ARM GAS  C:\Users\gjl\AppData\Local\Temp\cceefPQd.s 			page 11


 404              	.LFE126:
 405              		.size	Cy_SysClk_EcoConfigure, .-Cy_SysClk_EcoConfigure
 406              		.section	.text.Cy_SysClk_EcoEnable,"ax",%progbits
 407              		.align	2
 408              		.global	Cy_SysClk_EcoEnable
 409              		.code	16
 410              		.thumb_func
 411              		.type	Cy_SysClk_EcoEnable, %function
 412              	Cy_SysClk_EcoEnable:
 413              	.LFB127:
 162:Generated_Source\PSoC6\pdl\drivers\peripheral\sysclk/cy_sysclk.c **** 
 163:Generated_Source\PSoC6\pdl\drivers\peripheral\sysclk/cy_sysclk.c **** /*******************************************************************************
 164:Generated_Source\PSoC6\pdl\drivers\peripheral\sysclk/cy_sysclk.c **** * Function Name: Cy_SysClk_EcoEnable
 165:Generated_Source\PSoC6\pdl\drivers\peripheral\sysclk/cy_sysclk.c **** ****************************************************************************//**
 166:Generated_Source\PSoC6\pdl\drivers\peripheral\sysclk/cy_sysclk.c **** *
 167:Generated_Source\PSoC6\pdl\drivers\peripheral\sysclk/cy_sysclk.c **** * Enables the external crystal oscillator (ECO). This function should be called
 168:Generated_Source\PSoC6\pdl\drivers\peripheral\sysclk/cy_sysclk.c **** * after \ref Cy_SysClk_EcoConfigure.
 169:Generated_Source\PSoC6\pdl\drivers\peripheral\sysclk/cy_sysclk.c **** *
 170:Generated_Source\PSoC6\pdl\drivers\peripheral\sysclk/cy_sysclk.c **** * \param timeoutus Amount of time in microseconds to wait for the ECO to lock.
 171:Generated_Source\PSoC6\pdl\drivers\peripheral\sysclk/cy_sysclk.c **** * If a lock does not occur, the ECO is stopped. To avoid waiting for a lock, set
 172:Generated_Source\PSoC6\pdl\drivers\peripheral\sysclk/cy_sysclk.c **** * this parameter to 0.
 173:Generated_Source\PSoC6\pdl\drivers\peripheral\sysclk/cy_sysclk.c **** *
 174:Generated_Source\PSoC6\pdl\drivers\peripheral\sysclk/cy_sysclk.c **** * \return Error / status code:<br>
 175:Generated_Source\PSoC6\pdl\drivers\peripheral\sysclk/cy_sysclk.c **** * CY_SYSCLK_SUCCESS - ECO locked<br>
 176:Generated_Source\PSoC6\pdl\drivers\peripheral\sysclk/cy_sysclk.c **** * CY_SYSCLK_TIMEOUT - ECO timed out and did not lock
 177:Generated_Source\PSoC6\pdl\drivers\peripheral\sysclk/cy_sysclk.c **** * CY_SYSCLK_INVALID_STATE - ECO already enabled
 178:Generated_Source\PSoC6\pdl\drivers\peripheral\sysclk/cy_sysclk.c **** *
 179:Generated_Source\PSoC6\pdl\drivers\peripheral\sysclk/cy_sysclk.c **** * \funcusage
 180:Generated_Source\PSoC6\pdl\drivers\peripheral\sysclk/cy_sysclk.c **** * \snippet sysclk/sysclk_v1_10_sut_01.cydsn/main_cm4.c snippet_Cy_SysClk_EcoEnable
 181:Generated_Source\PSoC6\pdl\drivers\peripheral\sysclk/cy_sysclk.c **** *
 182:Generated_Source\PSoC6\pdl\drivers\peripheral\sysclk/cy_sysclk.c **** *******************************************************************************/
 183:Generated_Source\PSoC6\pdl\drivers\peripheral\sysclk/cy_sysclk.c **** cy_en_sysclk_status_t Cy_SysClk_EcoEnable(uint32_t timeoutus)
 184:Generated_Source\PSoC6\pdl\drivers\peripheral\sysclk/cy_sysclk.c **** {
 414              		.loc 1 184 0
 415              		.cfi_startproc
 416              		@ args = 0, pretend = 0, frame = 0
 417              		@ frame_needed = 0, uses_anonymous_args = 0
 418              	.LVL75:
 419 0000 10B5     		push	{r4, lr}
 420              		.cfi_def_cfa_offset 8
 421              		.cfi_offset 4, -8
 422              		.cfi_offset 14, -4
 423 0002 0400     		movs	r4, r0
 424              	.LVL76:
 185:Generated_Source\PSoC6\pdl\drivers\peripheral\sysclk/cy_sysclk.c ****     cy_en_sysclk_status_t rtnval = CY_SYSCLK_INVALID_STATE;
 186:Generated_Source\PSoC6\pdl\drivers\peripheral\sysclk/cy_sysclk.c **** 
 187:Generated_Source\PSoC6\pdl\drivers\peripheral\sysclk/cy_sysclk.c ****     /* invalid state error if ECO is already enabled */
 188:Generated_Source\PSoC6\pdl\drivers\peripheral\sysclk/cy_sysclk.c ****     if (_FLD2VAL(SRSS_CLK_ECO_CONFIG_ECO_EN, SRSS->CLK_ECO_CONFIG) == 0ul) /* 1 = enabled */
 425              		.loc 1 188 0
 426 0004 104B     		ldr	r3, .L41
 427 0006 114A     		ldr	r2, .L41+4
 428 0008 D358     		ldr	r3, [r2, r3]
 429 000a 002B     		cmp	r3, #0
 430 000c 17DB     		blt	.L39
 189:Generated_Source\PSoC6\pdl\drivers\peripheral\sysclk/cy_sysclk.c ****     {
 190:Generated_Source\PSoC6\pdl\drivers\peripheral\sysclk/cy_sysclk.c ****         /* first set ECO enable */
 191:Generated_Source\PSoC6\pdl\drivers\peripheral\sysclk/cy_sysclk.c ****         SRSS->CLK_ECO_CONFIG |= _VAL2FLD(SRSS_CLK_ECO_CONFIG_ECO_EN, 1ul); /* 1 = enable */
ARM GAS  C:\Users\gjl\AppData\Local\Temp\cceefPQd.s 			page 12


 431              		.loc 1 191 0
 432 000e 1100     		movs	r1, r2
 433 0010 0D4A     		ldr	r2, .L41
 434 0012 8B58     		ldr	r3, [r1, r2]
 435 0014 8020     		movs	r0, #128
 436              	.LVL77:
 437 0016 0006     		lsls	r0, r0, #24
 438 0018 0343     		orrs	r3, r0
 439 001a 8B50     		str	r3, [r1, r2]
 192:Generated_Source\PSoC6\pdl\drivers\peripheral\sysclk/cy_sysclk.c **** 
 193:Generated_Source\PSoC6\pdl\drivers\peripheral\sysclk/cy_sysclk.c ****         /* now do the timeout wait for ECO_STATUS, bit ECO_OK */
 194:Generated_Source\PSoC6\pdl\drivers\peripheral\sysclk/cy_sysclk.c ****         for (;
 440              		.loc 1 194 0
 441 001c 03E0     		b	.L36
 442              	.L38:
 195:Generated_Source\PSoC6\pdl\drivers\peripheral\sysclk/cy_sysclk.c ****              ((_FLD2VAL(SRSS_CLK_ECO_STATUS_ECO_READY, SRSS->CLK_ECO_STATUS) == 0ul)) &&(timeoutus 
 196:Generated_Source\PSoC6\pdl\drivers\peripheral\sysclk/cy_sysclk.c ****              timeoutus--)
 197:Generated_Source\PSoC6\pdl\drivers\peripheral\sysclk/cy_sysclk.c ****         {
 198:Generated_Source\PSoC6\pdl\drivers\peripheral\sysclk/cy_sysclk.c ****             Cy_SysLib_DelayUs(1u);
 443              		.loc 1 198 0
 444 001e 0120     		movs	r0, #1
 445 0020 FFF7FEFF 		bl	Cy_SysLib_DelayUs
 446              	.LVL78:
 196:Generated_Source\PSoC6\pdl\drivers\peripheral\sysclk/cy_sysclk.c ****         {
 447              		.loc 1 196 0
 448 0024 013C     		subs	r4, r4, #1
 449              	.LVL79:
 450              	.L36:
 195:Generated_Source\PSoC6\pdl\drivers\peripheral\sysclk/cy_sysclk.c ****              ((_FLD2VAL(SRSS_CLK_ECO_STATUS_ECO_READY, SRSS->CLK_ECO_STATUS) == 0ul)) &&(timeoutus 
 451              		.loc 1 195 0
 452 0026 A623     		movs	r3, #166
 453 0028 DB00     		lsls	r3, r3, #3
 454 002a 084A     		ldr	r2, .L41+4
 455 002c D358     		ldr	r3, [r2, r3]
 194:Generated_Source\PSoC6\pdl\drivers\peripheral\sysclk/cy_sysclk.c ****              ((_FLD2VAL(SRSS_CLK_ECO_STATUS_ECO_READY, SRSS->CLK_ECO_STATUS) == 0ul)) &&(timeoutus 
 456              		.loc 1 194 0
 457 002e 9B07     		lsls	r3, r3, #30
 458 0030 01D4     		bmi	.L37
 195:Generated_Source\PSoC6\pdl\drivers\peripheral\sysclk/cy_sysclk.c ****              ((_FLD2VAL(SRSS_CLK_ECO_STATUS_ECO_READY, SRSS->CLK_ECO_STATUS) == 0ul)) &&(timeoutus 
 459              		.loc 1 195 0
 460 0032 002C     		cmp	r4, #0
 461 0034 F3D1     		bne	.L38
 462              	.L37:
 199:Generated_Source\PSoC6\pdl\drivers\peripheral\sysclk/cy_sysclk.c ****         }
 200:Generated_Source\PSoC6\pdl\drivers\peripheral\sysclk/cy_sysclk.c ****         rtnval = ((timeoutus == 0ul) ? CY_SYSCLK_TIMEOUT : CY_SYSCLK_SUCCESS);
 463              		.loc 1 200 0
 464 0036 002C     		cmp	r4, #0
 465 0038 03D1     		bne	.L40
 466 003a 0548     		ldr	r0, .L41+8
 467 003c 02E0     		b	.L35
 468              	.LVL80:
 469              	.L39:
 185:Generated_Source\PSoC6\pdl\drivers\peripheral\sysclk/cy_sysclk.c **** 
 470              		.loc 1 185 0
 471 003e 0548     		ldr	r0, .L41+12
 472              	.LVL81:
 473 0040 00E0     		b	.L35
ARM GAS  C:\Users\gjl\AppData\Local\Temp\cceefPQd.s 			page 13


 474              	.L40:
 475              		.loc 1 200 0
 476 0042 0020     		movs	r0, #0
 477              	.L35:
 478              	.LVL82:
 201:Generated_Source\PSoC6\pdl\drivers\peripheral\sysclk/cy_sysclk.c ****     }
 202:Generated_Source\PSoC6\pdl\drivers\peripheral\sysclk/cy_sysclk.c ****     return (rtnval);
 203:Generated_Source\PSoC6\pdl\drivers\peripheral\sysclk/cy_sysclk.c **** }
 479              		.loc 1 203 0
 480              		@ sp needed
 481              	.LVL83:
 482 0044 10BD     		pop	{r4, pc}
 483              	.L42:
 484 0046 C046     		.align	2
 485              	.L41:
 486 0048 2C050000 		.word	1324
 487 004c 00002640 		.word	1076232192
 488 0050 02004A00 		.word	4849666
 489 0054 03004A00 		.word	4849667
 490              		.cfi_endproc
 491              	.LFE127:
 492              		.size	Cy_SysClk_EcoEnable, .-Cy_SysClk_EcoEnable
 493              		.section	.text.Cy_SysClk_ClkPathSetSource,"ax",%progbits
 494              		.align	2
 495              		.global	Cy_SysClk_ClkPathSetSource
 496              		.code	16
 497              		.thumb_func
 498              		.type	Cy_SysClk_ClkPathSetSource, %function
 499              	Cy_SysClk_ClkPathSetSource:
 500              	.LFB128:
 204:Generated_Source\PSoC6\pdl\drivers\peripheral\sysclk/cy_sysclk.c **** /** \} group_sysclk_eco_funcs */
 205:Generated_Source\PSoC6\pdl\drivers\peripheral\sysclk/cy_sysclk.c **** 
 206:Generated_Source\PSoC6\pdl\drivers\peripheral\sysclk/cy_sysclk.c **** 
 207:Generated_Source\PSoC6\pdl\drivers\peripheral\sysclk/cy_sysclk.c **** /* ========================================================================== */
 208:Generated_Source\PSoC6\pdl\drivers\peripheral\sysclk/cy_sysclk.c **** /* ====================    INPUT MULTIPLEXER SECTION    ===================== */
 209:Generated_Source\PSoC6\pdl\drivers\peripheral\sysclk/cy_sysclk.c **** /* ========================================================================== */
 210:Generated_Source\PSoC6\pdl\drivers\peripheral\sysclk/cy_sysclk.c **** /**
 211:Generated_Source\PSoC6\pdl\drivers\peripheral\sysclk/cy_sysclk.c **** * \addtogroup group_sysclk_path_src_funcs
 212:Generated_Source\PSoC6\pdl\drivers\peripheral\sysclk/cy_sysclk.c **** * \{
 213:Generated_Source\PSoC6\pdl\drivers\peripheral\sysclk/cy_sysclk.c **** */
 214:Generated_Source\PSoC6\pdl\drivers\peripheral\sysclk/cy_sysclk.c **** /*******************************************************************************
 215:Generated_Source\PSoC6\pdl\drivers\peripheral\sysclk/cy_sysclk.c **** * Function Name: Cy_SysClk_ClkPathSetSource
 216:Generated_Source\PSoC6\pdl\drivers\peripheral\sysclk/cy_sysclk.c **** ****************************************************************************//**
 217:Generated_Source\PSoC6\pdl\drivers\peripheral\sysclk/cy_sysclk.c **** *
 218:Generated_Source\PSoC6\pdl\drivers\peripheral\sysclk/cy_sysclk.c **** * Configures the source for the specified clock path.
 219:Generated_Source\PSoC6\pdl\drivers\peripheral\sysclk/cy_sysclk.c **** *
 220:Generated_Source\PSoC6\pdl\drivers\peripheral\sysclk/cy_sysclk.c **** * \param clkPath Selects which clock path to configure; 0 is the first clock
 221:Generated_Source\PSoC6\pdl\drivers\peripheral\sysclk/cy_sysclk.c **** * path, which is the FLL.
 222:Generated_Source\PSoC6\pdl\drivers\peripheral\sysclk/cy_sysclk.c **** *
 223:Generated_Source\PSoC6\pdl\drivers\peripheral\sysclk/cy_sysclk.c **** * \param source \ref cy_en_clkpath_in_sources_t
 224:Generated_Source\PSoC6\pdl\drivers\peripheral\sysclk/cy_sysclk.c **** *
 225:Generated_Source\PSoC6\pdl\drivers\peripheral\sysclk/cy_sysclk.c **** * \return \ref cy_en_sysclk_status_t
 226:Generated_Source\PSoC6\pdl\drivers\peripheral\sysclk/cy_sysclk.c **** *
 227:Generated_Source\PSoC6\pdl\drivers\peripheral\sysclk/cy_sysclk.c **** * \note
 228:Generated_Source\PSoC6\pdl\drivers\peripheral\sysclk/cy_sysclk.c **** * If calling this function changes an FLL or PLL input frequency, disable the FLL
 229:Generated_Source\PSoC6\pdl\drivers\peripheral\sysclk/cy_sysclk.c **** * or PLL before calling this function. After calling this function, call the FLL
 230:Generated_Source\PSoC6\pdl\drivers\peripheral\sysclk/cy_sysclk.c **** * or PLL configure function, for example \ref Cy_SysClk_FllConfigure().
ARM GAS  C:\Users\gjl\AppData\Local\Temp\cceefPQd.s 			page 14


 231:Generated_Source\PSoC6\pdl\drivers\peripheral\sysclk/cy_sysclk.c **** *
 232:Generated_Source\PSoC6\pdl\drivers\peripheral\sysclk/cy_sysclk.c **** * \funcusage
 233:Generated_Source\PSoC6\pdl\drivers\peripheral\sysclk/cy_sysclk.c **** * \snippet sysclk/sysclk_v1_10_sut_01.cydsn/main_cm4.c snippet_Cy_SysClk_ClkPathSetSource
 234:Generated_Source\PSoC6\pdl\drivers\peripheral\sysclk/cy_sysclk.c **** *
 235:Generated_Source\PSoC6\pdl\drivers\peripheral\sysclk/cy_sysclk.c **** *******************************************************************************/
 236:Generated_Source\PSoC6\pdl\drivers\peripheral\sysclk/cy_sysclk.c **** cy_en_sysclk_status_t Cy_SysClk_ClkPathSetSource(uint32_t clkPath, cy_en_clkpath_in_sources_t sourc
 237:Generated_Source\PSoC6\pdl\drivers\peripheral\sysclk/cy_sysclk.c **** {
 501              		.loc 1 237 0
 502              		.cfi_startproc
 503              		@ args = 0, pretend = 0, frame = 0
 504              		@ frame_needed = 0, uses_anonymous_args = 0
 505              		@ link register save eliminated.
 506              	.LVL84:
 238:Generated_Source\PSoC6\pdl\drivers\peripheral\sysclk/cy_sysclk.c ****     cy_en_sysclk_status_t retval = CY_SYSCLK_BAD_PARAM;
 239:Generated_Source\PSoC6\pdl\drivers\peripheral\sysclk/cy_sysclk.c ****     if ((clkPath < SRSS_NUM_CLKPATH) &&
 507              		.loc 1 239 0
 508 0000 0428     		cmp	r0, #4
 509 0002 1DD8     		bhi	.L47
 510              		.loc 1 239 0 is_stmt 0 discriminator 1
 511 0004 0429     		cmp	r1, #4
 512 0006 04D9     		bls	.L45
 240:Generated_Source\PSoC6\pdl\drivers\peripheral\sysclk/cy_sysclk.c ****         ((source <= CY_SYSCLK_CLKPATH_IN_DSIMUX) ||
 241:Generated_Source\PSoC6\pdl\drivers\peripheral\sysclk/cy_sysclk.c ****          ((CY_SYSCLK_CLKPATH_IN_DSI <= source) && (source <= CY_SYSCLK_CLKPATH_IN_PILO))))
 513              		.loc 1 241 0 is_stmt 1
 514 0008 4B1E     		subs	r3, r1, #1
 515 000a FF3B     		subs	r3, r3, #255
 516 000c 9BB2     		uxth	r3, r3
 240:Generated_Source\PSoC6\pdl\drivers\peripheral\sysclk/cy_sysclk.c ****         ((source <= CY_SYSCLK_CLKPATH_IN_DSIMUX) ||
 517              		.loc 1 240 0
 518 000e 132B     		cmp	r3, #19
 519 0010 18D8     		bhi	.L48
 520              	.L45:
 242:Generated_Source\PSoC6\pdl\drivers\peripheral\sysclk/cy_sysclk.c ****     {
 243:Generated_Source\PSoC6\pdl\drivers\peripheral\sysclk/cy_sysclk.c ****         if (source >= CY_SYSCLK_CLKPATH_IN_DSI)
 521              		.loc 1 243 0
 522 0012 FF29     		cmp	r1, #255
 523 0014 0CD9     		bls	.L46
 244:Generated_Source\PSoC6\pdl\drivers\peripheral\sysclk/cy_sysclk.c ****         {
 245:Generated_Source\PSoC6\pdl\drivers\peripheral\sysclk/cy_sysclk.c ****             SRSS->CLK_DSI_SELECT[clkPath] = _VAL2FLD(SRSS_CLK_DSI_SELECT_DSI_MUX, (uint32_t)source)
 524              		.loc 1 245 0
 525 0016 1F23     		movs	r3, #31
 526 0018 1940     		ands	r1, r3
 527              	.LVL85:
 528 001a 0B4A     		ldr	r2, .L49
 529 001c 0300     		movs	r3, r0
 530 001e C033     		adds	r3, r3, #192
 531 0020 9B00     		lsls	r3, r3, #2
 532 0022 9950     		str	r1, [r3, r2]
 246:Generated_Source\PSoC6\pdl\drivers\peripheral\sysclk/cy_sysclk.c ****             SRSS->CLK_PATH_SELECT[clkPath] = _VAL2FLD(SRSS_CLK_PATH_SELECT_PATH_MUX, (uint32_t)CY_S
 533              		.loc 1 246 0
 534 0024 D030     		adds	r0, r0, #208
 535              	.LVL86:
 536 0026 8000     		lsls	r0, r0, #2
 537              	.LVL87:
 538 0028 0423     		movs	r3, #4
 539 002a 8350     		str	r3, [r0, r2]
 247:Generated_Source\PSoC6\pdl\drivers\peripheral\sysclk/cy_sysclk.c ****         }
ARM GAS  C:\Users\gjl\AppData\Local\Temp\cceefPQd.s 			page 15


 248:Generated_Source\PSoC6\pdl\drivers\peripheral\sysclk/cy_sysclk.c ****         else
 249:Generated_Source\PSoC6\pdl\drivers\peripheral\sysclk/cy_sysclk.c ****         {
 250:Generated_Source\PSoC6\pdl\drivers\peripheral\sysclk/cy_sysclk.c ****             SRSS->CLK_PATH_SELECT[clkPath] = _VAL2FLD(SRSS_CLK_PATH_SELECT_PATH_MUX, (uint32_t)sour
 251:Generated_Source\PSoC6\pdl\drivers\peripheral\sysclk/cy_sysclk.c ****         }
 252:Generated_Source\PSoC6\pdl\drivers\peripheral\sysclk/cy_sysclk.c ****         retval = CY_SYSCLK_SUCCESS;
 540              		.loc 1 252 0
 541 002c 0020     		movs	r0, #0
 542 002e 0AE0     		b	.L44
 543              	.LVL88:
 544              	.L46:
 250:Generated_Source\PSoC6\pdl\drivers\peripheral\sysclk/cy_sysclk.c ****         }
 545              		.loc 1 250 0
 546 0030 0723     		movs	r3, #7
 547 0032 1940     		ands	r1, r3
 548              	.LVL89:
 549 0034 D030     		adds	r0, r0, #208
 550              	.LVL90:
 551 0036 8000     		lsls	r0, r0, #2
 552              	.LVL91:
 553 0038 034B     		ldr	r3, .L49
 554 003a C150     		str	r1, [r0, r3]
 555              		.loc 1 252 0
 556 003c 0020     		movs	r0, #0
 557 003e 02E0     		b	.L44
 558              	.LVL92:
 559              	.L47:
 238:Generated_Source\PSoC6\pdl\drivers\peripheral\sysclk/cy_sysclk.c ****     if ((clkPath < SRSS_NUM_CLKPATH) &&
 560              		.loc 1 238 0
 561 0040 0248     		ldr	r0, .L49+4
 562              	.LVL93:
 563 0042 00E0     		b	.L44
 564              	.LVL94:
 565              	.L48:
 566 0044 0148     		ldr	r0, .L49+4
 567              	.LVL95:
 568              	.L44:
 253:Generated_Source\PSoC6\pdl\drivers\peripheral\sysclk/cy_sysclk.c ****     }
 254:Generated_Source\PSoC6\pdl\drivers\peripheral\sysclk/cy_sysclk.c ****     return (retval);
 255:Generated_Source\PSoC6\pdl\drivers\peripheral\sysclk/cy_sysclk.c **** }
 569              		.loc 1 255 0
 570              		@ sp needed
 571 0046 7047     		bx	lr
 572              	.L50:
 573              		.align	2
 574              	.L49:
 575 0048 00002640 		.word	1076232192
 576 004c 01004A00 		.word	4849665
 577              		.cfi_endproc
 578              	.LFE128:
 579              		.size	Cy_SysClk_ClkPathSetSource, .-Cy_SysClk_ClkPathSetSource
 580              		.section	.text.Cy_SysClk_ClkPathGetSource,"ax",%progbits
 581              		.align	2
 582              		.global	Cy_SysClk_ClkPathGetSource
 583              		.code	16
 584              		.thumb_func
 585              		.type	Cy_SysClk_ClkPathGetSource, %function
 586              	Cy_SysClk_ClkPathGetSource:
ARM GAS  C:\Users\gjl\AppData\Local\Temp\cceefPQd.s 			page 16


 587              	.LFB129:
 256:Generated_Source\PSoC6\pdl\drivers\peripheral\sysclk/cy_sysclk.c **** 
 257:Generated_Source\PSoC6\pdl\drivers\peripheral\sysclk/cy_sysclk.c **** /*******************************************************************************
 258:Generated_Source\PSoC6\pdl\drivers\peripheral\sysclk/cy_sysclk.c **** * Function Name: Cy_SysClk_ClkPathGetSource
 259:Generated_Source\PSoC6\pdl\drivers\peripheral\sysclk/cy_sysclk.c **** ****************************************************************************//**
 260:Generated_Source\PSoC6\pdl\drivers\peripheral\sysclk/cy_sysclk.c **** *
 261:Generated_Source\PSoC6\pdl\drivers\peripheral\sysclk/cy_sysclk.c **** * Reports which source is selected for the path mux.
 262:Generated_Source\PSoC6\pdl\drivers\peripheral\sysclk/cy_sysclk.c **** *
 263:Generated_Source\PSoC6\pdl\drivers\peripheral\sysclk/cy_sysclk.c **** * \param clkPath Selects which clock path to report; 0 is the first clock path,
 264:Generated_Source\PSoC6\pdl\drivers\peripheral\sysclk/cy_sysclk.c **** * which is the FLL.
 265:Generated_Source\PSoC6\pdl\drivers\peripheral\sysclk/cy_sysclk.c **** *
 266:Generated_Source\PSoC6\pdl\drivers\peripheral\sysclk/cy_sysclk.c **** * \return \ref cy_en_clkpath_in_sources_t
 267:Generated_Source\PSoC6\pdl\drivers\peripheral\sysclk/cy_sysclk.c **** *
 268:Generated_Source\PSoC6\pdl\drivers\peripheral\sysclk/cy_sysclk.c **** * \funcusage
 269:Generated_Source\PSoC6\pdl\drivers\peripheral\sysclk/cy_sysclk.c **** * \snippet sysclk/sysclk_v1_10_sut_01.cydsn/main_cm4.c snippet_Cy_SysClk_ClkPathGetSource
 270:Generated_Source\PSoC6\pdl\drivers\peripheral\sysclk/cy_sysclk.c **** *
 271:Generated_Source\PSoC6\pdl\drivers\peripheral\sysclk/cy_sysclk.c **** *******************************************************************************/
 272:Generated_Source\PSoC6\pdl\drivers\peripheral\sysclk/cy_sysclk.c **** cy_en_clkpath_in_sources_t Cy_SysClk_ClkPathGetSource(uint32_t clkPath)
 273:Generated_Source\PSoC6\pdl\drivers\peripheral\sysclk/cy_sysclk.c **** {
 588              		.loc 1 273 0
 589              		.cfi_startproc
 590              		@ args = 0, pretend = 0, frame = 0
 591              		@ frame_needed = 0, uses_anonymous_args = 0
 592              	.LVL96:
 593 0000 10B5     		push	{r4, lr}
 594              		.cfi_def_cfa_offset 8
 595              		.cfi_offset 4, -8
 596              		.cfi_offset 14, -4
 597 0002 0400     		movs	r4, r0
 274:Generated_Source\PSoC6\pdl\drivers\peripheral\sysclk/cy_sysclk.c ****     CY_ASSERT_L1(clkPath < SRSS_NUM_CLKPATH);
 598              		.loc 1 274 0
 599 0004 0428     		cmp	r0, #4
 600 0006 04D9     		bls	.L52
 601              		.loc 1 274 0 is_stmt 0 discriminator 1
 602 0008 8921     		movs	r1, #137
 603 000a 4900     		lsls	r1, r1, #1
 604 000c 0A48     		ldr	r0, .L54
 605              	.LVL97:
 606 000e FFF7FEFF 		bl	Cy_SysLib_AssertFailed
 607              	.LVL98:
 608              	.L52:
 275:Generated_Source\PSoC6\pdl\drivers\peripheral\sysclk/cy_sysclk.c ****     cy_en_clkpath_in_sources_t rtnval =
 276:Generated_Source\PSoC6\pdl\drivers\peripheral\sysclk/cy_sysclk.c ****         (cy_en_clkpath_in_sources_t )_FLD2VAL(SRSS_CLK_PATH_SELECT_PATH_MUX, SRSS->CLK_PATH_SELECT[
 609              		.loc 1 276 0 is_stmt 1
 610 0012 2300     		movs	r3, r4
 611 0014 D033     		adds	r3, r3, #208
 612 0016 9B00     		lsls	r3, r3, #2
 613 0018 084A     		ldr	r2, .L54+4
 614 001a 9858     		ldr	r0, [r3, r2]
 275:Generated_Source\PSoC6\pdl\drivers\peripheral\sysclk/cy_sysclk.c ****     cy_en_clkpath_in_sources_t rtnval =
 615              		.loc 1 275 0
 616 001c 0723     		movs	r3, #7
 617 001e 1840     		ands	r0, r3
 618              	.LVL99:
 277:Generated_Source\PSoC6\pdl\drivers\peripheral\sysclk/cy_sysclk.c ****     if (rtnval == CY_SYSCLK_CLKPATH_IN_DSIMUX)
 619              		.loc 1 277 0
 620 0020 0428     		cmp	r0, #4
ARM GAS  C:\Users\gjl\AppData\Local\Temp\cceefPQd.s 			page 17


 621 0022 07D1     		bne	.L53
 278:Generated_Source\PSoC6\pdl\drivers\peripheral\sysclk/cy_sysclk.c ****     {
 279:Generated_Source\PSoC6\pdl\drivers\peripheral\sysclk/cy_sysclk.c ****         rtnval = (cy_en_clkpath_in_sources_t)(CY_SYSCLK_CLKPATH_IN_DSI |
 280:Generated_Source\PSoC6\pdl\drivers\peripheral\sysclk/cy_sysclk.c ****                     (_FLD2VAL(SRSS_CLK_DSI_SELECT_DSI_MUX, SRSS->CLK_DSI_SELECT[clkPath])));
 622              		.loc 1 280 0
 623 0024 C034     		adds	r4, r4, #192
 624              	.LVL100:
 625 0026 A400     		lsls	r4, r4, #2
 626              	.LVL101:
 627 0028 A358     		ldr	r3, [r4, r2]
 279:Generated_Source\PSoC6\pdl\drivers\peripheral\sysclk/cy_sysclk.c ****                     (_FLD2VAL(SRSS_CLK_DSI_SELECT_DSI_MUX, SRSS->CLK_DSI_SELECT[clkPath])));
 628              		.loc 1 279 0
 629 002a 1B30     		adds	r0, r0, #27
 630              	.LVL102:
 631 002c 1840     		ands	r0, r3
 632              	.LVL103:
 633 002e 8023     		movs	r3, #128
 634 0030 5B00     		lsls	r3, r3, #1
 635 0032 1843     		orrs	r0, r3
 636              	.LVL104:
 637              	.L53:
 281:Generated_Source\PSoC6\pdl\drivers\peripheral\sysclk/cy_sysclk.c ****     }
 282:Generated_Source\PSoC6\pdl\drivers\peripheral\sysclk/cy_sysclk.c ****     return rtnval;
 283:Generated_Source\PSoC6\pdl\drivers\peripheral\sysclk/cy_sysclk.c **** }
 638              		.loc 1 283 0
 639              		@ sp needed
 640 0034 10BD     		pop	{r4, pc}
 641              	.L55:
 642 0036 C046     		.align	2
 643              	.L54:
 644 0038 00000000 		.word	.LC3
 645 003c 00002640 		.word	1076232192
 646              		.cfi_endproc
 647              	.LFE129:
 648              		.size	Cy_SysClk_ClkPathGetSource, .-Cy_SysClk_ClkPathGetSource
 649              		.section	.text.Cy_SysClk_FllManualConfigure,"ax",%progbits
 650              		.align	2
 651              		.global	Cy_SysClk_FllManualConfigure
 652              		.code	16
 653              		.thumb_func
 654              		.type	Cy_SysClk_FllManualConfigure, %function
 655              	Cy_SysClk_FllManualConfigure:
 656              	.LFB131:
 284:Generated_Source\PSoC6\pdl\drivers\peripheral\sysclk/cy_sysclk.c **** /** \} group_sysclk_path_src_funcs */
 285:Generated_Source\PSoC6\pdl\drivers\peripheral\sysclk/cy_sysclk.c **** 
 286:Generated_Source\PSoC6\pdl\drivers\peripheral\sysclk/cy_sysclk.c **** 
 287:Generated_Source\PSoC6\pdl\drivers\peripheral\sysclk/cy_sysclk.c **** /* ========================================================================== */
 288:Generated_Source\PSoC6\pdl\drivers\peripheral\sysclk/cy_sysclk.c **** /* ===========================    FLL SECTION    ============================ */
 289:Generated_Source\PSoC6\pdl\drivers\peripheral\sysclk/cy_sysclk.c **** /* ========================================================================== */
 290:Generated_Source\PSoC6\pdl\drivers\peripheral\sysclk/cy_sysclk.c **** /* min and max FLL output frequencies, in Hz */
 291:Generated_Source\PSoC6\pdl\drivers\peripheral\sysclk/cy_sysclk.c **** #define  CY_SYSCLK_MIN_FLL_CCO_OUTPUT_FREQ  48000000ul
 292:Generated_Source\PSoC6\pdl\drivers\peripheral\sysclk/cy_sysclk.c **** #define  CY_SYSCLK_MIN_FLL_OUTPUT_FREQ     (CY_SYSCLK_MIN_FLL_CCO_OUTPUT_FREQ / 2u)
 293:Generated_Source\PSoC6\pdl\drivers\peripheral\sysclk/cy_sysclk.c **** #define  CY_SYSCLK_MAX_FLL_OUTPUT_FREQ     100000000ul
 294:Generated_Source\PSoC6\pdl\drivers\peripheral\sysclk/cy_sysclk.c **** 
 295:Generated_Source\PSoC6\pdl\drivers\peripheral\sysclk/cy_sysclk.c **** /**
 296:Generated_Source\PSoC6\pdl\drivers\peripheral\sysclk/cy_sysclk.c **** * \addtogroup group_sysclk_fll_funcs
 297:Generated_Source\PSoC6\pdl\drivers\peripheral\sysclk/cy_sysclk.c **** * \{
ARM GAS  C:\Users\gjl\AppData\Local\Temp\cceefPQd.s 			page 18


 298:Generated_Source\PSoC6\pdl\drivers\peripheral\sysclk/cy_sysclk.c **** */
 299:Generated_Source\PSoC6\pdl\drivers\peripheral\sysclk/cy_sysclk.c **** /*******************************************************************************
 300:Generated_Source\PSoC6\pdl\drivers\peripheral\sysclk/cy_sysclk.c **** * Function Name: Cy_SysClk_FllConfigure
 301:Generated_Source\PSoC6\pdl\drivers\peripheral\sysclk/cy_sysclk.c **** ****************************************************************************//**
 302:Generated_Source\PSoC6\pdl\drivers\peripheral\sysclk/cy_sysclk.c **** *
 303:Generated_Source\PSoC6\pdl\drivers\peripheral\sysclk/cy_sysclk.c **** * Configures the FLL, for best accuracy optimization.
 304:Generated_Source\PSoC6\pdl\drivers\peripheral\sysclk/cy_sysclk.c **** *
 305:Generated_Source\PSoC6\pdl\drivers\peripheral\sysclk/cy_sysclk.c **** * \param inputFreq frequency of input source, in Hz
 306:Generated_Source\PSoC6\pdl\drivers\peripheral\sysclk/cy_sysclk.c **** *
 307:Generated_Source\PSoC6\pdl\drivers\peripheral\sysclk/cy_sysclk.c **** * \param outputFreq Desired FLL output frequency, in Hz. Allowable range is
 308:Generated_Source\PSoC6\pdl\drivers\peripheral\sysclk/cy_sysclk.c **** * 24 MHz to 100 MHz. In all cases, FLL_OUTPUT_DIV must be set; the output divide
 309:Generated_Source\PSoC6\pdl\drivers\peripheral\sysclk/cy_sysclk.c **** * by 2 option is required.
 310:Generated_Source\PSoC6\pdl\drivers\peripheral\sysclk/cy_sysclk.c **** *
 311:Generated_Source\PSoC6\pdl\drivers\peripheral\sysclk/cy_sysclk.c **** * \param outputMode \ref cy_en_fll_pll_output_mode_t
 312:Generated_Source\PSoC6\pdl\drivers\peripheral\sysclk/cy_sysclk.c **** * If output mode is bypass, then the output frequency equals the input source
 313:Generated_Source\PSoC6\pdl\drivers\peripheral\sysclk/cy_sysclk.c **** * frequency regardless of the frequency parameter values.
 314:Generated_Source\PSoC6\pdl\drivers\peripheral\sysclk/cy_sysclk.c **** *
 315:Generated_Source\PSoC6\pdl\drivers\peripheral\sysclk/cy_sysclk.c **** * \return  Error / status code:<br>
 316:Generated_Source\PSoC6\pdl\drivers\peripheral\sysclk/cy_sysclk.c **** * CY_SYSCLK_SUCCESS - FLL successfully configured<br>
 317:Generated_Source\PSoC6\pdl\drivers\peripheral\sysclk/cy_sysclk.c **** * CY_SYSCLK_INVALID_STATE - FLL not configured because it is enabled<br>
 318:Generated_Source\PSoC6\pdl\drivers\peripheral\sysclk/cy_sysclk.c **** * CY_SYSCLK_BAD_PARAM - desired output frequency is out of valid range
 319:Generated_Source\PSoC6\pdl\drivers\peripheral\sysclk/cy_sysclk.c **** *
 320:Generated_Source\PSoC6\pdl\drivers\peripheral\sysclk/cy_sysclk.c **** * \note
 321:Generated_Source\PSoC6\pdl\drivers\peripheral\sysclk/cy_sysclk.c **** * Call this function after changing the FLL input frequency, for example if
 322:Generated_Source\PSoC6\pdl\drivers\peripheral\sysclk/cy_sysclk.c **** * \ref Cy_SysClk_ClkPathSetSource() is called.
 323:Generated_Source\PSoC6\pdl\drivers\peripheral\sysclk/cy_sysclk.c **** * \note
 324:Generated_Source\PSoC6\pdl\drivers\peripheral\sysclk/cy_sysclk.c **** * Do not call this function when the FLL is enabled. If it is, then this function
 325:Generated_Source\PSoC6\pdl\drivers\peripheral\sysclk/cy_sysclk.c **** * returns immediately with an error return value and no register updates.
 326:Generated_Source\PSoC6\pdl\drivers\peripheral\sysclk/cy_sysclk.c **** *
 327:Generated_Source\PSoC6\pdl\drivers\peripheral\sysclk/cy_sysclk.c **** * \funcusage
 328:Generated_Source\PSoC6\pdl\drivers\peripheral\sysclk/cy_sysclk.c **** * \snippet sysclk/sysclk_v1_10_sut_01.cydsn/main_cm4.c snippet_Cy_SysClk_FllConfigure
 329:Generated_Source\PSoC6\pdl\drivers\peripheral\sysclk/cy_sysclk.c **** *
 330:Generated_Source\PSoC6\pdl\drivers\peripheral\sysclk/cy_sysclk.c **** *******************************************************************************/
 331:Generated_Source\PSoC6\pdl\drivers\peripheral\sysclk/cy_sysclk.c **** cy_en_sysclk_status_t Cy_SysClk_FllConfigure(uint32_t inputFreq, uint32_t outputFreq, cy_en_fll_pll
 332:Generated_Source\PSoC6\pdl\drivers\peripheral\sysclk/cy_sysclk.c **** {
 333:Generated_Source\PSoC6\pdl\drivers\peripheral\sysclk/cy_sysclk.c ****     cy_en_sysclk_status_t returnStatus = CY_SYSCLK_SUCCESS;
 334:Generated_Source\PSoC6\pdl\drivers\peripheral\sysclk/cy_sysclk.c **** 
 335:Generated_Source\PSoC6\pdl\drivers\peripheral\sysclk/cy_sysclk.c ****     /* check for errors */
 336:Generated_Source\PSoC6\pdl\drivers\peripheral\sysclk/cy_sysclk.c ****     if (_FLD2VAL(SRSS_CLK_FLL_CONFIG_FLL_ENABLE, SRSS->CLK_FLL_CONFIG) != 0u) /* 1 = enabled */
 337:Generated_Source\PSoC6\pdl\drivers\peripheral\sysclk/cy_sysclk.c ****     {
 338:Generated_Source\PSoC6\pdl\drivers\peripheral\sysclk/cy_sysclk.c ****         returnStatus = CY_SYSCLK_INVALID_STATE;
 339:Generated_Source\PSoC6\pdl\drivers\peripheral\sysclk/cy_sysclk.c ****     }
 340:Generated_Source\PSoC6\pdl\drivers\peripheral\sysclk/cy_sysclk.c ****     else if ((outputFreq < CY_SYSCLK_MIN_FLL_OUTPUT_FREQ) || (CY_SYSCLK_MAX_FLL_OUTPUT_FREQ < outpu
 341:Generated_Source\PSoC6\pdl\drivers\peripheral\sysclk/cy_sysclk.c ****     {
 342:Generated_Source\PSoC6\pdl\drivers\peripheral\sysclk/cy_sysclk.c ****         returnStatus = CY_SYSCLK_BAD_PARAM;
 343:Generated_Source\PSoC6\pdl\drivers\peripheral\sysclk/cy_sysclk.c ****     }
 344:Generated_Source\PSoC6\pdl\drivers\peripheral\sysclk/cy_sysclk.c ****     else if (((float32_t)outputFreq / (float32_t)inputFreq) < 2.2f) /* check output/input frequency
 345:Generated_Source\PSoC6\pdl\drivers\peripheral\sysclk/cy_sysclk.c ****     {
 346:Generated_Source\PSoC6\pdl\drivers\peripheral\sysclk/cy_sysclk.c ****         returnStatus = CY_SYSCLK_BAD_PARAM;
 347:Generated_Source\PSoC6\pdl\drivers\peripheral\sysclk/cy_sysclk.c ****     }
 348:Generated_Source\PSoC6\pdl\drivers\peripheral\sysclk/cy_sysclk.c ****     else
 349:Generated_Source\PSoC6\pdl\drivers\peripheral\sysclk/cy_sysclk.c ****     { /* return status is OK */
 350:Generated_Source\PSoC6\pdl\drivers\peripheral\sysclk/cy_sysclk.c ****     }
 351:Generated_Source\PSoC6\pdl\drivers\peripheral\sysclk/cy_sysclk.c **** 
 352:Generated_Source\PSoC6\pdl\drivers\peripheral\sysclk/cy_sysclk.c ****     /* no error */
 353:Generated_Source\PSoC6\pdl\drivers\peripheral\sysclk/cy_sysclk.c ****     if (returnStatus == CY_SYSCLK_SUCCESS) /* no errors */
 354:Generated_Source\PSoC6\pdl\drivers\peripheral\sysclk/cy_sysclk.c ****     {
ARM GAS  C:\Users\gjl\AppData\Local\Temp\cceefPQd.s 			page 19


 355:Generated_Source\PSoC6\pdl\drivers\peripheral\sysclk/cy_sysclk.c ****         /* If output mode is bypass (input routed directly to output), then done.
 356:Generated_Source\PSoC6\pdl\drivers\peripheral\sysclk/cy_sysclk.c ****            The output frequency equals the input frequency regardless of the
 357:Generated_Source\PSoC6\pdl\drivers\peripheral\sysclk/cy_sysclk.c ****            frequency parameters. */
 358:Generated_Source\PSoC6\pdl\drivers\peripheral\sysclk/cy_sysclk.c ****         if (outputMode != CY_SYSCLK_FLLPLL_OUTPUT_INPUT)
 359:Generated_Source\PSoC6\pdl\drivers\peripheral\sysclk/cy_sysclk.c ****         {
 360:Generated_Source\PSoC6\pdl\drivers\peripheral\sysclk/cy_sysclk.c ****             cy_stc_fll_manual_config_t config;
 361:Generated_Source\PSoC6\pdl\drivers\peripheral\sysclk/cy_sysclk.c ****             uint32_t ccoFreq;
 362:Generated_Source\PSoC6\pdl\drivers\peripheral\sysclk/cy_sysclk.c ****             bool wcoSource = ((Cy_SysClk_ClkPathGetSource(0ul/*FLL*/) == CY_SYSCLK_CLKPATH_IN_WCO) 
 363:Generated_Source\PSoC6\pdl\drivers\peripheral\sysclk/cy_sysclk.c **** 
 364:Generated_Source\PSoC6\pdl\drivers\peripheral\sysclk/cy_sysclk.c ****             config.outputMode = outputMode;
 365:Generated_Source\PSoC6\pdl\drivers\peripheral\sysclk/cy_sysclk.c ****             /* 1. Output division by 2 is always required. */
 366:Generated_Source\PSoC6\pdl\drivers\peripheral\sysclk/cy_sysclk.c ****             config.enableOutputDiv = (bool)(1ul);
 367:Generated_Source\PSoC6\pdl\drivers\peripheral\sysclk/cy_sysclk.c ****             /* 2. Compute the target CCO frequency from the target output frequency and output divi
 368:Generated_Source\PSoC6\pdl\drivers\peripheral\sysclk/cy_sysclk.c ****             ccoFreq = outputFreq * ((uint32_t)(config.enableOutputDiv) + 1ul);
 369:Generated_Source\PSoC6\pdl\drivers\peripheral\sysclk/cy_sysclk.c ****             /* 3. Compute the CCO range value from the CCO frequency */
 370:Generated_Source\PSoC6\pdl\drivers\peripheral\sysclk/cy_sysclk.c ****             config.ccoRange = ((ccoFreq >= 150339200ul) ? CY_SYSCLK_FLL_CCO_RANGE4 :
 371:Generated_Source\PSoC6\pdl\drivers\peripheral\sysclk/cy_sysclk.c ****                                ((ccoFreq >= 113009380ul) ? CY_SYSCLK_FLL_CCO_RANGE3 :
 372:Generated_Source\PSoC6\pdl\drivers\peripheral\sysclk/cy_sysclk.c ****                                 ((ccoFreq >=  84948700ul) ? CY_SYSCLK_FLL_CCO_RANGE2 :
 373:Generated_Source\PSoC6\pdl\drivers\peripheral\sysclk/cy_sysclk.c ****                                  ((ccoFreq >=  63855600ul) ? CY_SYSCLK_FLL_CCO_RANGE1 : CY_SYSCLK_F
 374:Generated_Source\PSoC6\pdl\drivers\peripheral\sysclk/cy_sysclk.c ****             {
 375:Generated_Source\PSoC6\pdl\drivers\peripheral\sysclk/cy_sysclk.c ****                 /* constants indexed by ccoRange */
 376:Generated_Source\PSoC6\pdl\drivers\peripheral\sysclk/cy_sysclk.c ****                 const float32_t trimSteps[] = {0.0011034f, 0.001102f, 0.0011f, 0.0011f, 0.00117062f
 377:Generated_Source\PSoC6\pdl\drivers\peripheral\sysclk/cy_sysclk.c ****                 const float32_t fMargin[] = {43600000.0f, 58100000.0f, 77200000.0f, 103000000.0f, 1
 378:Generated_Source\PSoC6\pdl\drivers\peripheral\sysclk/cy_sysclk.c **** 
 379:Generated_Source\PSoC6\pdl\drivers\peripheral\sysclk/cy_sysclk.c ****             /* 4. Compute the FLL reference divider value.
 380:Generated_Source\PSoC6\pdl\drivers\peripheral\sysclk/cy_sysclk.c ****                   refDiv is a constant if the WCO is the FLL source, otherwise the formula is
 381:Generated_Source\PSoC6\pdl\drivers\peripheral\sysclk/cy_sysclk.c ****                   refDiv = ROUNDUP((inputFreq / outputFreq) * 250) */
 382:Generated_Source\PSoC6\pdl\drivers\peripheral\sysclk/cy_sysclk.c ****                 config.refDiv = wcoSource ? 19u :
 383:Generated_Source\PSoC6\pdl\drivers\peripheral\sysclk/cy_sysclk.c ****                                             ((uint16_t)ceilf(((float32_t)inputFreq / (float32_t)out
 384:Generated_Source\PSoC6\pdl\drivers\peripheral\sysclk/cy_sysclk.c ****             /* 5. Compute the FLL multiplier value.
 385:Generated_Source\PSoC6\pdl\drivers\peripheral\sysclk/cy_sysclk.c ****                   Formula is fllMult = ccoFreq / (inputFreq / refDiv) */
 386:Generated_Source\PSoC6\pdl\drivers\peripheral\sysclk/cy_sysclk.c ****                 config.fllMult = CY_SYSCLK_DIV_ROUNDUP(ccoFreq, CY_SYSCLK_DIV_ROUND(inputFreq, conf
 387:Generated_Source\PSoC6\pdl\drivers\peripheral\sysclk/cy_sysclk.c ****             /* 6. Compute the lock tolerance.
 388:Generated_Source\PSoC6\pdl\drivers\peripheral\sysclk/cy_sysclk.c ****                   Formula is lock tolerance = 1.5 * fllMult * (((1 + CCO accuracy) / (1 - source cl
 389:Generated_Source\PSoC6\pdl\drivers\peripheral\sysclk/cy_sysclk.c ****                   We assume CCO accuracy is 0.25%.
 390:Generated_Source\PSoC6\pdl\drivers\peripheral\sysclk/cy_sysclk.c ****                   We assume the source clock accuracy = 1%. This is the accuracy of the IMO.
 391:Generated_Source\PSoC6\pdl\drivers\peripheral\sysclk/cy_sysclk.c ****                   Therefore the formula is lock tolerance = 1.5 * fllMult * 0.012626 = 0.018939 * f
 392:Generated_Source\PSoC6\pdl\drivers\peripheral\sysclk/cy_sysclk.c ****                 config.lockTolerance = (uint16_t)ceilf((float32_t)(config.fllMult) * 0.018939f);
 393:Generated_Source\PSoC6\pdl\drivers\peripheral\sysclk/cy_sysclk.c ****             /* 7. Compute the CCO igain and pgain. */
 394:Generated_Source\PSoC6\pdl\drivers\peripheral\sysclk/cy_sysclk.c ****                 {
 395:Generated_Source\PSoC6\pdl\drivers\peripheral\sysclk/cy_sysclk.c ****                     /* intermediate parameters */
 396:Generated_Source\PSoC6\pdl\drivers\peripheral\sysclk/cy_sysclk.c ****                     float32_t kcco = (trimSteps[config.ccoRange] * fMargin[config.ccoRange]) / 1000
 397:Generated_Source\PSoC6\pdl\drivers\peripheral\sysclk/cy_sysclk.c ****                     float32_t ki_p = (0.85f / (kcco * ((float32_t)(config.refDiv) / (float32_t)inpu
 398:Generated_Source\PSoC6\pdl\drivers\peripheral\sysclk/cy_sysclk.c **** 
 399:Generated_Source\PSoC6\pdl\drivers\peripheral\sysclk/cy_sysclk.c ****                     /* igain and pgain bitfield values correspond to: 1/256, 1/128, ..., 4, 8 */
 400:Generated_Source\PSoC6\pdl\drivers\peripheral\sysclk/cy_sysclk.c ****                     const float32_t gains[] = {0.00390625f, 0.0078125f, 0.015625f, 0.03125f, 0.0625
 401:Generated_Source\PSoC6\pdl\drivers\peripheral\sysclk/cy_sysclk.c ****                                                0.5f, 1.0f, 2.0f, 4.0f, 8.0f};
 402:Generated_Source\PSoC6\pdl\drivers\peripheral\sysclk/cy_sysclk.c **** 
 403:Generated_Source\PSoC6\pdl\drivers\peripheral\sysclk/cy_sysclk.c ****                     /* find the largest IGAIN value that is less than or equal to ki_p */
 404:Generated_Source\PSoC6\pdl\drivers\peripheral\sysclk/cy_sysclk.c ****                     for(config.igain = CY_SYSCLK_N_ELMTS(gains) - 1ul;
 405:Generated_Source\PSoC6\pdl\drivers\peripheral\sysclk/cy_sysclk.c ****                         (gains[config.igain] > ki_p) && (config.igain != 0ul); config.igain--){}
 406:Generated_Source\PSoC6\pdl\drivers\peripheral\sysclk/cy_sysclk.c ****                     /* decrement igain if the WCO is the FLL source */
 407:Generated_Source\PSoC6\pdl\drivers\peripheral\sysclk/cy_sysclk.c ****                     if (wcoSource && (config.igain > 0u))
 408:Generated_Source\PSoC6\pdl\drivers\peripheral\sysclk/cy_sysclk.c ****                     {
 409:Generated_Source\PSoC6\pdl\drivers\peripheral\sysclk/cy_sysclk.c ****                         config.igain--;
 410:Generated_Source\PSoC6\pdl\drivers\peripheral\sysclk/cy_sysclk.c ****                     }
 411:Generated_Source\PSoC6\pdl\drivers\peripheral\sysclk/cy_sysclk.c ****                     /* then find the largest PGAIN value that is less than or equal to ki_p - gains
ARM GAS  C:\Users\gjl\AppData\Local\Temp\cceefPQd.s 			page 20


 412:Generated_Source\PSoC6\pdl\drivers\peripheral\sysclk/cy_sysclk.c ****                     for(config.pgain = CY_SYSCLK_N_ELMTS(gains) - 1ul;
 413:Generated_Source\PSoC6\pdl\drivers\peripheral\sysclk/cy_sysclk.c ****                         (gains[config.pgain] > (ki_p - gains[config.igain])) && (config.pgain != 0u
 414:Generated_Source\PSoC6\pdl\drivers\peripheral\sysclk/cy_sysclk.c ****                         config.pgain--){}
 415:Generated_Source\PSoC6\pdl\drivers\peripheral\sysclk/cy_sysclk.c ****                     /* decrement pgain if the WCO is the FLL source */
 416:Generated_Source\PSoC6\pdl\drivers\peripheral\sysclk/cy_sysclk.c ****                     if (wcoSource && (config.pgain > 0u))
 417:Generated_Source\PSoC6\pdl\drivers\peripheral\sysclk/cy_sysclk.c ****                     {
 418:Generated_Source\PSoC6\pdl\drivers\peripheral\sysclk/cy_sysclk.c ****                         config.pgain--;
 419:Generated_Source\PSoC6\pdl\drivers\peripheral\sysclk/cy_sysclk.c ****                     }
 420:Generated_Source\PSoC6\pdl\drivers\peripheral\sysclk/cy_sysclk.c ****                 }
 421:Generated_Source\PSoC6\pdl\drivers\peripheral\sysclk/cy_sysclk.c ****             /* 8. Compute the CCO_FREQ bits in CLK_FLL_CONFIG4 register. */
 422:Generated_Source\PSoC6\pdl\drivers\peripheral\sysclk/cy_sysclk.c ****                 config.cco_Freq = (uint16_t)
 423:Generated_Source\PSoC6\pdl\drivers\peripheral\sysclk/cy_sysclk.c ****                     (floor(log((float32_t)ccoFreq / fMargin[config.ccoRange]) /
 424:Generated_Source\PSoC6\pdl\drivers\peripheral\sysclk/cy_sysclk.c ****                            log(1.0f + trimSteps[config.ccoRange])));
 425:Generated_Source\PSoC6\pdl\drivers\peripheral\sysclk/cy_sysclk.c ****             }
 426:Generated_Source\PSoC6\pdl\drivers\peripheral\sysclk/cy_sysclk.c ****             /* 9. Compute the settling count, using a 1-usec settling time.
 427:Generated_Source\PSoC6\pdl\drivers\peripheral\sysclk/cy_sysclk.c ****                   Use a constant if the WCO is the FLL source. */
 428:Generated_Source\PSoC6\pdl\drivers\peripheral\sysclk/cy_sysclk.c ****             {
 429:Generated_Source\PSoC6\pdl\drivers\peripheral\sysclk/cy_sysclk.c ****                 float32_t ttref   = (float32_t)config.refDiv / ((float32_t)inputFreq / 1000.0f);
 430:Generated_Source\PSoC6\pdl\drivers\peripheral\sysclk/cy_sysclk.c ****                 float32_t testval = 6000.0f / (float32_t)outputFreq;
 431:Generated_Source\PSoC6\pdl\drivers\peripheral\sysclk/cy_sysclk.c ****                 float32_t divval  = ceil((float32_t)inputFreq * 0.000001f);
 432:Generated_Source\PSoC6\pdl\drivers\peripheral\sysclk/cy_sysclk.c ****                 float32_t altval  = ceil((divval / ttref) + 1.0f);
 433:Generated_Source\PSoC6\pdl\drivers\peripheral\sysclk/cy_sysclk.c ****                 config.settlingCount = (uint16)(wcoSource ? 200u : 
 434:Generated_Source\PSoC6\pdl\drivers\peripheral\sysclk/cy_sysclk.c ****                                                 ((ttref > testval) ? divval :
 435:Generated_Source\PSoC6\pdl\drivers\peripheral\sysclk/cy_sysclk.c ****                                                  ((divval > altval) ? divval : altval)));
 436:Generated_Source\PSoC6\pdl\drivers\peripheral\sysclk/cy_sysclk.c ****             }
 437:Generated_Source\PSoC6\pdl\drivers\peripheral\sysclk/cy_sysclk.c ****             /* configure FLL based on calculated values */
 438:Generated_Source\PSoC6\pdl\drivers\peripheral\sysclk/cy_sysclk.c ****             returnStatus = Cy_SysClk_FllManualConfigure(&config);
 439:Generated_Source\PSoC6\pdl\drivers\peripheral\sysclk/cy_sysclk.c ****         } /* if not bypass output mode */
 440:Generated_Source\PSoC6\pdl\drivers\peripheral\sysclk/cy_sysclk.c **** 
 441:Generated_Source\PSoC6\pdl\drivers\peripheral\sysclk/cy_sysclk.c ****         else
 442:Generated_Source\PSoC6\pdl\drivers\peripheral\sysclk/cy_sysclk.c ****         { /* bypass mode */
 443:Generated_Source\PSoC6\pdl\drivers\peripheral\sysclk/cy_sysclk.c ****             /* update CLK_FLL_CONFIG3 register with divide by 2 parameter */
 444:Generated_Source\PSoC6\pdl\drivers\peripheral\sysclk/cy_sysclk.c ****             CY_SYSCLK_CLR_SET(SRSS->CLK_FLL_CONFIG3, SRSS_CLK_FLL_CONFIG3_BYPASS_SEL, (uint32_t)out
 445:Generated_Source\PSoC6\pdl\drivers\peripheral\sysclk/cy_sysclk.c ****         }
 446:Generated_Source\PSoC6\pdl\drivers\peripheral\sysclk/cy_sysclk.c ****     } /* if no error */
 447:Generated_Source\PSoC6\pdl\drivers\peripheral\sysclk/cy_sysclk.c **** 
 448:Generated_Source\PSoC6\pdl\drivers\peripheral\sysclk/cy_sysclk.c ****     return (returnStatus);
 449:Generated_Source\PSoC6\pdl\drivers\peripheral\sysclk/cy_sysclk.c **** }
 450:Generated_Source\PSoC6\pdl\drivers\peripheral\sysclk/cy_sysclk.c **** 
 451:Generated_Source\PSoC6\pdl\drivers\peripheral\sysclk/cy_sysclk.c **** /*******************************************************************************
 452:Generated_Source\PSoC6\pdl\drivers\peripheral\sysclk/cy_sysclk.c **** * Function Name: Cy_SysClk_FllManualConfigure
 453:Generated_Source\PSoC6\pdl\drivers\peripheral\sysclk/cy_sysclk.c **** ****************************************************************************//**
 454:Generated_Source\PSoC6\pdl\drivers\peripheral\sysclk/cy_sysclk.c **** *
 455:Generated_Source\PSoC6\pdl\drivers\peripheral\sysclk/cy_sysclk.c **** * Manually configures the FLL based on user inputs.
 456:Generated_Source\PSoC6\pdl\drivers\peripheral\sysclk/cy_sysclk.c **** *
 457:Generated_Source\PSoC6\pdl\drivers\peripheral\sysclk/cy_sysclk.c **** * \param config \ref cy_stc_fll_manual_config_t
 458:Generated_Source\PSoC6\pdl\drivers\peripheral\sysclk/cy_sysclk.c **** *
 459:Generated_Source\PSoC6\pdl\drivers\peripheral\sysclk/cy_sysclk.c **** * \return  Error / status code:<br>
 460:Generated_Source\PSoC6\pdl\drivers\peripheral\sysclk/cy_sysclk.c **** * CY_SYSCLK_SUCCESS - FLL successfully configured<br>
 461:Generated_Source\PSoC6\pdl\drivers\peripheral\sysclk/cy_sysclk.c **** * CY_SYSCLK_INVALID_STATE - FLL not configured because it is enabled
 462:Generated_Source\PSoC6\pdl\drivers\peripheral\sysclk/cy_sysclk.c **** *
 463:Generated_Source\PSoC6\pdl\drivers\peripheral\sysclk/cy_sysclk.c **** * \note
 464:Generated_Source\PSoC6\pdl\drivers\peripheral\sysclk/cy_sysclk.c **** * Call this function after changing the FLL input frequency, for example if
 465:Generated_Source\PSoC6\pdl\drivers\peripheral\sysclk/cy_sysclk.c **** * \ref Cy_SysClk_ClkPathSetSource() is called.
 466:Generated_Source\PSoC6\pdl\drivers\peripheral\sysclk/cy_sysclk.c **** * \note
 467:Generated_Source\PSoC6\pdl\drivers\peripheral\sysclk/cy_sysclk.c **** * Do not call this function when the FLL is enabled. If it is, then this function
 468:Generated_Source\PSoC6\pdl\drivers\peripheral\sysclk/cy_sysclk.c **** * returns immediately with an error return value and no register updates.
ARM GAS  C:\Users\gjl\AppData\Local\Temp\cceefPQd.s 			page 21


 469:Generated_Source\PSoC6\pdl\drivers\peripheral\sysclk/cy_sysclk.c **** *
 470:Generated_Source\PSoC6\pdl\drivers\peripheral\sysclk/cy_sysclk.c **** * \funcusage
 471:Generated_Source\PSoC6\pdl\drivers\peripheral\sysclk/cy_sysclk.c **** * \snippet sysclk/sysclk_v1_10_sut_01.cydsn/main_cm4.c snippet_Cy_SysClk_FllManualConfigure
 472:Generated_Source\PSoC6\pdl\drivers\peripheral\sysclk/cy_sysclk.c **** *
 473:Generated_Source\PSoC6\pdl\drivers\peripheral\sysclk/cy_sysclk.c **** *******************************************************************************/
 474:Generated_Source\PSoC6\pdl\drivers\peripheral\sysclk/cy_sysclk.c **** cy_en_sysclk_status_t Cy_SysClk_FllManualConfigure(const cy_stc_fll_manual_config_t *config)
 475:Generated_Source\PSoC6\pdl\drivers\peripheral\sysclk/cy_sysclk.c **** {
 657              		.loc 1 475 0
 658              		.cfi_startproc
 659              		@ args = 0, pretend = 0, frame = 0
 660              		@ frame_needed = 0, uses_anonymous_args = 0
 661              	.LVL105:
 662 0000 70B5     		push	{r4, r5, r6, lr}
 663              		.cfi_def_cfa_offset 16
 664              		.cfi_offset 4, -16
 665              		.cfi_offset 5, -12
 666              		.cfi_offset 6, -8
 667              		.cfi_offset 14, -4
 668 0002 041E     		subs	r4, r0, #0
 669              	.LVL106:
 476:Generated_Source\PSoC6\pdl\drivers\peripheral\sysclk/cy_sysclk.c ****     cy_en_sysclk_status_t returnStatus = CY_SYSCLK_SUCCESS;
 477:Generated_Source\PSoC6\pdl\drivers\peripheral\sysclk/cy_sysclk.c **** 
 478:Generated_Source\PSoC6\pdl\drivers\peripheral\sysclk/cy_sysclk.c ****     CY_ASSERT_L1(config != NULL);
 670              		.loc 1 478 0
 671 0004 04D1     		bne	.L57
 672              		.loc 1 478 0 is_stmt 0 discriminator 1
 673 0006 EF21     		movs	r1, #239
 674 0008 4900     		lsls	r1, r1, #1
 675 000a 4C48     		ldr	r0, .L69
 676              	.LVL107:
 677 000c FFF7FEFF 		bl	Cy_SysLib_AssertFailed
 678              	.LVL108:
 679              	.L57:
 479:Generated_Source\PSoC6\pdl\drivers\peripheral\sysclk/cy_sysclk.c ****     /* check for errors */
 480:Generated_Source\PSoC6\pdl\drivers\peripheral\sysclk/cy_sysclk.c ****     if (_FLD2VAL(SRSS_CLK_FLL_CONFIG_FLL_ENABLE, SRSS->CLK_FLL_CONFIG) != 0u) /* 1 = enabled */
 680              		.loc 1 480 0 is_stmt 1
 681 0010 B023     		movs	r3, #176
 682 0012 DB00     		lsls	r3, r3, #3
 683 0014 4A4A     		ldr	r2, .L69+4
 684 0016 D358     		ldr	r3, [r2, r3]
 685 0018 002B     		cmp	r3, #0
 686 001a 01DB     		blt	.L68
 476:Generated_Source\PSoC6\pdl\drivers\peripheral\sysclk/cy_sysclk.c ****     cy_en_sysclk_status_t returnStatus = CY_SYSCLK_SUCCESS;
 687              		.loc 1 476 0
 688 001c 0025     		movs	r5, #0
 689 001e 00E0     		b	.L58
 690              	.L68:
 481:Generated_Source\PSoC6\pdl\drivers\peripheral\sysclk/cy_sysclk.c ****     {
 482:Generated_Source\PSoC6\pdl\drivers\peripheral\sysclk/cy_sysclk.c ****         returnStatus = CY_SYSCLK_INVALID_STATE;
 691              		.loc 1 482 0
 692 0020 484D     		ldr	r5, .L69+8
 693              	.L58:
 694              	.LVL109:
 483:Generated_Source\PSoC6\pdl\drivers\peripheral\sysclk/cy_sysclk.c ****     }
 484:Generated_Source\PSoC6\pdl\drivers\peripheral\sysclk/cy_sysclk.c ****     else
 485:Generated_Source\PSoC6\pdl\drivers\peripheral\sysclk/cy_sysclk.c ****     { /* return status is OK */
 486:Generated_Source\PSoC6\pdl\drivers\peripheral\sysclk/cy_sysclk.c ****     }
ARM GAS  C:\Users\gjl\AppData\Local\Temp\cceefPQd.s 			page 22


 487:Generated_Source\PSoC6\pdl\drivers\peripheral\sysclk/cy_sysclk.c **** 
 488:Generated_Source\PSoC6\pdl\drivers\peripheral\sysclk/cy_sysclk.c ****     /* no error */
 489:Generated_Source\PSoC6\pdl\drivers\peripheral\sysclk/cy_sysclk.c ****     if (returnStatus == CY_SYSCLK_SUCCESS) /* no errors */
 695              		.loc 1 489 0
 696 0022 002D     		cmp	r5, #0
 697 0024 00D0     		beq	.LCB695
 698 0026 86E0     		b	.L59	@long jump
 699              	.LCB695:
 700              	.LBB32:
 490:Generated_Source\PSoC6\pdl\drivers\peripheral\sysclk/cy_sysclk.c ****     {
 491:Generated_Source\PSoC6\pdl\drivers\peripheral\sysclk/cy_sysclk.c ****         /* update CLK_FLL_CONFIG register with 2 parameters; FLL_ENABLE is already 0 */
 492:Generated_Source\PSoC6\pdl\drivers\peripheral\sysclk/cy_sysclk.c ****         /* asserts just check for bitfield overflow */
 493:Generated_Source\PSoC6\pdl\drivers\peripheral\sysclk/cy_sysclk.c ****         CY_ASSERT_L1(config->fllMult <= (SRSS_CLK_FLL_CONFIG_FLL_MULT_Msk >> SRSS_CLK_FLL_CONFIG_FL
 701              		.loc 1 493 0
 702 0028 474B     		ldr	r3, .L69+12
 703 002a 2268     		ldr	r2, [r4]
 704 002c 9A42     		cmp	r2, r3
 705 002e 04D9     		bls	.L60
 706              		.loc 1 493 0 is_stmt 0 discriminator 1
 707 0030 EE21     		movs	r1, #238
 708 0032 FF31     		adds	r1, r1, #255
 709 0034 4148     		ldr	r0, .L69
 710 0036 FFF7FEFF 		bl	Cy_SysLib_AssertFailed
 711              	.LVL110:
 712              	.L60:
 494:Generated_Source\PSoC6\pdl\drivers\peripheral\sysclk/cy_sysclk.c ****         uint32_t reg = _VAL2FLD(SRSS_CLK_FLL_CONFIG_FLL_MULT, config->fllMult);
 713              		.loc 1 494 0 is_stmt 1
 714 003a 2368     		ldr	r3, [r4]
 715 003c 9B03     		lsls	r3, r3, #14
 716 003e 990B     		lsrs	r1, r3, #14
 717              	.LVL111:
 495:Generated_Source\PSoC6\pdl\drivers\peripheral\sysclk/cy_sysclk.c ****         /* no assert check for enableOutputDiv, because it's a type boolean */
 496:Generated_Source\PSoC6\pdl\drivers\peripheral\sysclk/cy_sysclk.c ****         SRSS->CLK_FLL_CONFIG = reg | _VAL2FLD(SRSS_CLK_FLL_CONFIG_FLL_OUTPUT_DIV, (uint32_t)(config
 718              		.loc 1 496 0
 719 0040 E379     		ldrb	r3, [r4, #7]
 720 0042 1B06     		lsls	r3, r3, #24
 721 0044 8022     		movs	r2, #128
 722 0046 5204     		lsls	r2, r2, #17
 723 0048 1340     		ands	r3, r2
 724 004a 0B43     		orrs	r3, r1
 725 004c B022     		movs	r2, #176
 726 004e D200     		lsls	r2, r2, #3
 727 0050 3B49     		ldr	r1, .L69+4
 728              	.LVL112:
 729 0052 8B50     		str	r3, [r1, r2]
 730              	.LVL113:
 497:Generated_Source\PSoC6\pdl\drivers\peripheral\sysclk/cy_sysclk.c **** 
 498:Generated_Source\PSoC6\pdl\drivers\peripheral\sysclk/cy_sysclk.c ****         /* update CLK_FLL_CONFIG2 register with 2 parameters */
 499:Generated_Source\PSoC6\pdl\drivers\peripheral\sysclk/cy_sysclk.c ****         /* asserts just check for bitfield overflow */
 500:Generated_Source\PSoC6\pdl\drivers\peripheral\sysclk/cy_sysclk.c ****         CY_ASSERT_L1(config->refDiv <= (SRSS_CLK_FLL_CONFIG2_FLL_REF_DIV_Msk >> SRSS_CLK_FLL_CONFIG
 731              		.loc 1 500 0
 732 0054 A288     		ldrh	r2, [r4, #4]
 733 0056 3D4B     		ldr	r3, .L69+16
 734 0058 9A42     		cmp	r2, r3
 735 005a 04D9     		bls	.L61
 736              		.loc 1 500 0 is_stmt 0 discriminator 1
 737 005c FA21     		movs	r1, #250
ARM GAS  C:\Users\gjl\AppData\Local\Temp\cceefPQd.s 			page 23


 738 005e 4900     		lsls	r1, r1, #1
 739 0060 3648     		ldr	r0, .L69
 740 0062 FFF7FEFF 		bl	Cy_SysLib_AssertFailed
 741              	.LVL114:
 742              	.L61:
 501:Generated_Source\PSoC6\pdl\drivers\peripheral\sysclk/cy_sysclk.c ****         CY_ASSERT_L1(config->lockTolerance <= (SRSS_CLK_FLL_CONFIG2_LOCK_TOL_Msk >> SRSS_CLK_FLL_CO
 743              		.loc 1 501 0 is_stmt 1
 744 0066 2289     		ldrh	r2, [r4, #8]
 745 0068 394B     		ldr	r3, .L69+20
 746 006a 9A42     		cmp	r2, r3
 747 006c 04D9     		bls	.L62
 748              		.loc 1 501 0 is_stmt 0 discriminator 1
 749 006e F621     		movs	r1, #246
 750 0070 FF31     		adds	r1, r1, #255
 751 0072 3248     		ldr	r0, .L69
 752 0074 FFF7FEFF 		bl	Cy_SysLib_AssertFailed
 753              	.LVL115:
 754              	.L62:
 502:Generated_Source\PSoC6\pdl\drivers\peripheral\sysclk/cy_sysclk.c ****         reg = _VAL2FLD(SRSS_CLK_FLL_CONFIG2_FLL_REF_DIV, config->refDiv);
 755              		.loc 1 502 0 is_stmt 1
 756 0078 A388     		ldrh	r3, [r4, #4]
 757 007a DB04     		lsls	r3, r3, #19
 758 007c D90C     		lsrs	r1, r3, #19
 759              	.LVL116:
 503:Generated_Source\PSoC6\pdl\drivers\peripheral\sysclk/cy_sysclk.c ****         SRSS->CLK_FLL_CONFIG2 = reg | _VAL2FLD(SRSS_CLK_FLL_CONFIG2_LOCK_TOL, config->lockTolerance
 760              		.loc 1 503 0
 761 007e 2389     		ldrh	r3, [r4, #8]
 762 0080 1B04     		lsls	r3, r3, #16
 763 0082 344A     		ldr	r2, .L69+24
 764 0084 1340     		ands	r3, r2
 765 0086 0B43     		orrs	r3, r1
 766 0088 334A     		ldr	r2, .L69+28
 767 008a 2D49     		ldr	r1, .L69+4
 768              	.LVL117:
 769 008c 8B50     		str	r3, [r1, r2]
 770              	.LVL118:
 504:Generated_Source\PSoC6\pdl\drivers\peripheral\sysclk/cy_sysclk.c **** 
 505:Generated_Source\PSoC6\pdl\drivers\peripheral\sysclk/cy_sysclk.c ****         /* update CLK_FLL_CONFIG3 register with 4 parameters */
 506:Generated_Source\PSoC6\pdl\drivers\peripheral\sysclk/cy_sysclk.c ****         /* asserts just check for bitfield overflow */
 507:Generated_Source\PSoC6\pdl\drivers\peripheral\sysclk/cy_sysclk.c ****         CY_ASSERT_L1(config->igain <= (SRSS_CLK_FLL_CONFIG3_FLL_LF_IGAIN_Msk >> SRSS_CLK_FLL_CONFIG
 771              		.loc 1 507 0
 772 008e A37A     		ldrb	r3, [r4, #10]
 773 0090 0F2B     		cmp	r3, #15
 774 0092 04D9     		bls	.L63
 775              		.loc 1 507 0 is_stmt 0 discriminator 1
 776 0094 FC21     		movs	r1, #252
 777 0096 FF31     		adds	r1, r1, #255
 778 0098 2848     		ldr	r0, .L69
 779 009a FFF7FEFF 		bl	Cy_SysLib_AssertFailed
 780              	.LVL119:
 781              	.L63:
 508:Generated_Source\PSoC6\pdl\drivers\peripheral\sysclk/cy_sysclk.c ****         CY_ASSERT_L1(config->pgain <= (SRSS_CLK_FLL_CONFIG3_FLL_LF_PGAIN_Msk >> SRSS_CLK_FLL_CONFIG
 782              		.loc 1 508 0 is_stmt 1
 783 009e E37A     		ldrb	r3, [r4, #11]
 784 00a0 0F2B     		cmp	r3, #15
 785 00a2 04D9     		bls	.L64
 786              		.loc 1 508 0 is_stmt 0 discriminator 1
ARM GAS  C:\Users\gjl\AppData\Local\Temp\cceefPQd.s 			page 24


 787 00a4 FE21     		movs	r1, #254
 788 00a6 4900     		lsls	r1, r1, #1
 789 00a8 2448     		ldr	r0, .L69
 790 00aa FFF7FEFF 		bl	Cy_SysLib_AssertFailed
 791              	.LVL120:
 792              	.L64:
 509:Generated_Source\PSoC6\pdl\drivers\peripheral\sysclk/cy_sysclk.c ****         CY_ASSERT_L1(config->settlingCount <= (SRSS_CLK_FLL_CONFIG3_SETTLING_COUNT_Msk >> SRSS_CLK_
 793              		.loc 1 509 0 is_stmt 1
 794 00ae A289     		ldrh	r2, [r4, #12]
 795 00b0 264B     		ldr	r3, .L69+16
 796 00b2 9A42     		cmp	r2, r3
 797 00b4 04D9     		bls	.L65
 798              		.loc 1 509 0 is_stmt 0 discriminator 1
 799 00b6 FE21     		movs	r1, #254
 800 00b8 FF31     		adds	r1, r1, #255
 801 00ba 2048     		ldr	r0, .L69
 802 00bc FFF7FEFF 		bl	Cy_SysLib_AssertFailed
 803              	.LVL121:
 804              	.L65:
 510:Generated_Source\PSoC6\pdl\drivers\peripheral\sysclk/cy_sysclk.c ****         reg  = _VAL2FLD(SRSS_CLK_FLL_CONFIG3_FLL_LF_IGAIN, config->igain);
 805              		.loc 1 510 0 is_stmt 1
 806 00c0 A37A     		ldrb	r3, [r4, #10]
 807 00c2 0F21     		movs	r1, #15
 808 00c4 1940     		ands	r1, r3
 809              	.LVL122:
 511:Generated_Source\PSoC6\pdl\drivers\peripheral\sysclk/cy_sysclk.c ****         reg |= _VAL2FLD(SRSS_CLK_FLL_CONFIG3_FLL_LF_PGAIN, config->pgain);
 810              		.loc 1 511 0
 811 00c6 E27A     		ldrb	r2, [r4, #11]
 812 00c8 1201     		lsls	r2, r2, #4
 813 00ca FF23     		movs	r3, #255
 814 00cc 1340     		ands	r3, r2
 815 00ce 0B43     		orrs	r3, r1
 816              	.LVL123:
 512:Generated_Source\PSoC6\pdl\drivers\peripheral\sysclk/cy_sysclk.c ****         reg |= _VAL2FLD(SRSS_CLK_FLL_CONFIG3_SETTLING_COUNT, config->settlingCount);
 817              		.loc 1 512 0
 818 00d0 A289     		ldrh	r2, [r4, #12]
 819 00d2 1202     		lsls	r2, r2, #8
 820 00d4 2149     		ldr	r1, .L69+32
 821 00d6 0A40     		ands	r2, r1
 822 00d8 1343     		orrs	r3, r2
 823              	.LVL124:
 513:Generated_Source\PSoC6\pdl\drivers\peripheral\sysclk/cy_sysclk.c ****         SRSS->CLK_FLL_CONFIG3 = reg | _VAL2FLD(SRSS_CLK_FLL_CONFIG3_BYPASS_SEL, (uint32_t)(config->
 824              		.loc 1 513 0
 825 00da A27B     		ldrb	r2, [r4, #14]
 826 00dc 1207     		lsls	r2, r2, #28
 827 00de C021     		movs	r1, #192
 828 00e0 8905     		lsls	r1, r1, #22
 829 00e2 0A40     		ands	r2, r1
 830 00e4 1343     		orrs	r3, r2
 831              	.LVL125:
 832 00e6 B122     		movs	r2, #177
 833 00e8 D200     		lsls	r2, r2, #3
 834 00ea 1549     		ldr	r1, .L69+4
 835 00ec 8B50     		str	r3, [r1, r2]
 836              	.LVL126:
 514:Generated_Source\PSoC6\pdl\drivers\peripheral\sysclk/cy_sysclk.c **** 
 515:Generated_Source\PSoC6\pdl\drivers\peripheral\sysclk/cy_sysclk.c ****         /* update CLK_FLL_CONFIG4 register with 1 parameter; preserve other bits */
ARM GAS  C:\Users\gjl\AppData\Local\Temp\cceefPQd.s 			page 25


 516:Generated_Source\PSoC6\pdl\drivers\peripheral\sysclk/cy_sysclk.c ****         /* asserts just check for bitfield overflow */
 517:Generated_Source\PSoC6\pdl\drivers\peripheral\sysclk/cy_sysclk.c ****         CY_ASSERT_L1(config->ccoRange <= (SRSS_CLK_FLL_CONFIG4_CCO_RANGE_Msk >> SRSS_CLK_FLL_CONFIG
 837              		.loc 1 517 0
 838 00ee A379     		ldrb	r3, [r4, #6]
 839 00f0 072B     		cmp	r3, #7
 840 00f2 03D9     		bls	.L66
 841              		.loc 1 517 0 is_stmt 0 discriminator 1
 842 00f4 1A49     		ldr	r1, .L69+36
 843 00f6 1148     		ldr	r0, .L69
 844 00f8 FFF7FEFF 		bl	Cy_SysLib_AssertFailed
 845              	.LVL127:
 846              	.L66:
 518:Generated_Source\PSoC6\pdl\drivers\peripheral\sysclk/cy_sysclk.c ****         CY_ASSERT_L1(config->cco_Freq <= (SRSS_CLK_FLL_CONFIG4_CCO_FREQ_Msk >> SRSS_CLK_FLL_CONFIG4
 847              		.loc 1 518 0 is_stmt 1
 848 00fc 228A     		ldrh	r2, [r4, #16]
 849 00fe 144B     		ldr	r3, .L69+20
 850 0100 9A42     		cmp	r2, r3
 851 0102 03D9     		bls	.L67
 852              		.loc 1 518 0 is_stmt 0 discriminator 1
 853 0104 1749     		ldr	r1, .L69+40
 854 0106 0D48     		ldr	r0, .L69
 855 0108 FFF7FEFF 		bl	Cy_SysLib_AssertFailed
 856              	.LVL128:
 857              	.L67:
 519:Generated_Source\PSoC6\pdl\drivers\peripheral\sysclk/cy_sysclk.c ****         CY_SYSCLK_CLR_SET(SRSS->CLK_FLL_CONFIG4, SRSS_CLK_FLL_CONFIG4_CCO_RANGE, (uint32_t)(config-
 858              		.loc 1 519 0 is_stmt 1
 859 010c 0C48     		ldr	r0, .L69+4
 860 010e 1649     		ldr	r1, .L69+44
 861 0110 4658     		ldr	r6, [r0, r1]
 862 0112 164B     		ldr	r3, .L69+48
 863 0114 1E40     		ands	r6, r3
 864 0116 A379     		ldrb	r3, [r4, #6]
 865 0118 1B02     		lsls	r3, r3, #8
 866 011a E022     		movs	r2, #224
 867 011c D200     		lsls	r2, r2, #3
 868 011e 1340     		ands	r3, r2
 869 0120 3343     		orrs	r3, r6
 870 0122 4350     		str	r3, [r0, r1]
 520:Generated_Source\PSoC6\pdl\drivers\peripheral\sysclk/cy_sysclk.c ****         CY_SYSCLK_CLR_SET(SRSS->CLK_FLL_CONFIG4, SRSS_CLK_FLL_CONFIG4_CCO_FREQ, (uint32_t)(config->
 871              		.loc 1 520 0
 872 0124 4658     		ldr	r6, [r0, r1]
 873 0126 124B     		ldr	r3, .L69+52
 874 0128 1E40     		ands	r6, r3
 875 012a 238A     		ldrh	r3, [r4, #16]
 876 012c 1B04     		lsls	r3, r3, #16
 877 012e 094A     		ldr	r2, .L69+24
 878 0130 1340     		ands	r3, r2
 879 0132 3343     		orrs	r3, r6
 880 0134 4350     		str	r3, [r0, r1]
 881              	.L59:
 882              	.LBE32:
 521:Generated_Source\PSoC6\pdl\drivers\peripheral\sysclk/cy_sysclk.c ****     } /* if no error */
 522:Generated_Source\PSoC6\pdl\drivers\peripheral\sysclk/cy_sysclk.c **** 
 523:Generated_Source\PSoC6\pdl\drivers\peripheral\sysclk/cy_sysclk.c ****     return (returnStatus);
 524:Generated_Source\PSoC6\pdl\drivers\peripheral\sysclk/cy_sysclk.c **** }
 883              		.loc 1 524 0
 884 0136 2800     		movs	r0, r5
ARM GAS  C:\Users\gjl\AppData\Local\Temp\cceefPQd.s 			page 26


 885              		@ sp needed
 886              	.LVL129:
 887              	.LVL130:
 888 0138 70BD     		pop	{r4, r5, r6, pc}
 889              	.L70:
 890 013a C046     		.align	2
 891              	.L69:
 892 013c 00000000 		.word	.LC3
 893 0140 00002640 		.word	1076232192
 894 0144 03004A00 		.word	4849667
 895 0148 FFFF0300 		.word	262143
 896 014c FF1F0000 		.word	8191
 897 0150 FF010000 		.word	511
 898 0154 0000FF01 		.word	33488896
 899 0158 84050000 		.word	1412
 900 015c 00FF1F00 		.word	2096896
 901 0160 05020000 		.word	517
 902 0164 06020000 		.word	518
 903 0168 8C050000 		.word	1420
 904 016c FFF8FFFF 		.word	-1793
 905 0170 FFFF00FE 		.word	-33488897
 906              		.cfi_endproc
 907              	.LFE131:
 908              		.size	Cy_SysClk_FllManualConfigure, .-Cy_SysClk_FllManualConfigure
 909              		.global	__aeabi_uidiv
 910              		.global	__aeabi_fsub
 911              		.global	__aeabi_ddiv
 912              		.global	__aeabi_d2uiz
 913              		.section	.text.Cy_SysClk_FllConfigure,"ax",%progbits
 914              		.align	2
 915              		.global	Cy_SysClk_FllConfigure
 916              		.code	16
 917              		.thumb_func
 918              		.type	Cy_SysClk_FllConfigure, %function
 919              	Cy_SysClk_FllConfigure:
 920              	.LFB130:
 332:Generated_Source\PSoC6\pdl\drivers\peripheral\sysclk/cy_sysclk.c ****     cy_en_sysclk_status_t returnStatus = CY_SYSCLK_SUCCESS;
 921              		.loc 1 332 0
 922              		.cfi_startproc
 923              		@ args = 0, pretend = 0, frame = 128
 924              		@ frame_needed = 0, uses_anonymous_args = 0
 925              	.LVL131:
 926 0000 F0B5     		push	{r4, r5, r6, r7, lr}
 927              		.cfi_def_cfa_offset 20
 928              		.cfi_offset 4, -20
 929              		.cfi_offset 5, -16
 930              		.cfi_offset 6, -12
 931              		.cfi_offset 7, -8
 932              		.cfi_offset 14, -4
 933 0002 5746     		mov	r7, r10
 934 0004 4646     		mov	r6, r8
 935 0006 C0B4     		push	{r6, r7}
 936              		.cfi_def_cfa_offset 28
 937              		.cfi_offset 8, -28
 938              		.cfi_offset 10, -24
 939 0008 A1B0     		sub	sp, sp, #132
 940              		.cfi_def_cfa_offset 160
ARM GAS  C:\Users\gjl\AppData\Local\Temp\cceefPQd.s 			page 27


 941 000a 0400     		movs	r4, r0
 942 000c 0090     		str	r0, [sp]
 943 000e 0D00     		movs	r5, r1
 944 0010 1600     		movs	r6, r2
 945              	.LVL132:
 336:Generated_Source\PSoC6\pdl\drivers\peripheral\sysclk/cy_sysclk.c ****     {
 946              		.loc 1 336 0
 947 0012 B023     		movs	r3, #176
 948 0014 DB00     		lsls	r3, r3, #3
 949 0016 BC4A     		ldr	r2, .L106
 950              	.LVL133:
 951 0018 D358     		ldr	r3, [r2, r3]
 952 001a 002B     		cmp	r3, #0
 953 001c 15DB     		blt	.L92
 340:Generated_Source\PSoC6\pdl\drivers\peripheral\sysclk/cy_sysclk.c ****     {
 954              		.loc 1 340 0
 955 001e BB4A     		ldr	r2, .L106+4
 956 0020 BB4B     		ldr	r3, .L106+8
 957 0022 CB18     		adds	r3, r1, r3
 958 0024 9342     		cmp	r3, r2
 959 0026 12D8     		bhi	.L93
 344:Generated_Source\PSoC6\pdl\drivers\peripheral\sysclk/cy_sysclk.c ****     {
 960              		.loc 1 344 0
 961 0028 0800     		movs	r0, r1
 962              	.LVL134:
 963 002a FFF7FEFF 		bl	__aeabi_ui2f
 964              	.LVL135:
 965 002e 071C     		adds	r7, r0, #0
 966 0030 2000     		movs	r0, r4
 967 0032 FFF7FEFF 		bl	__aeabi_ui2f
 968              	.LVL136:
 969 0036 011C     		adds	r1, r0, #0
 970 0038 381C     		adds	r0, r7, #0
 971 003a FFF7FEFF 		bl	__aeabi_fdiv
 972              	.LVL137:
 973 003e B549     		ldr	r1, .L106+12
 974 0040 FFF7FEFF 		bl	__aeabi_fcmplt
 975              	.LVL138:
 976 0044 0028     		cmp	r0, #0
 977 0046 04D1     		bne	.L94
 978 0048 04E0     		b	.L72
 979              	.LVL139:
 980              	.L92:
 338:Generated_Source\PSoC6\pdl\drivers\peripheral\sysclk/cy_sysclk.c ****     }
 981              		.loc 1 338 0
 982 004a B348     		ldr	r0, .L106+16
 983              	.LVL140:
 984 004c 02E0     		b	.L72
 985              	.LVL141:
 986              	.L93:
 342:Generated_Source\PSoC6\pdl\drivers\peripheral\sysclk/cy_sysclk.c ****     }
 987              		.loc 1 342 0
 988 004e B348     		ldr	r0, .L106+20
 989              	.LVL142:
 990 0050 00E0     		b	.L72
 991              	.LVL143:
 992              	.L94:
ARM GAS  C:\Users\gjl\AppData\Local\Temp\cceefPQd.s 			page 28


 346:Generated_Source\PSoC6\pdl\drivers\peripheral\sysclk/cy_sysclk.c ****     }
 993              		.loc 1 346 0
 994 0052 B248     		ldr	r0, .L106+20
 995              	.L72:
 996              	.LVL144:
 353:Generated_Source\PSoC6\pdl\drivers\peripheral\sysclk/cy_sysclk.c ****     {
 997              		.loc 1 353 0
 998 0054 0028     		cmp	r0, #0
 999 0056 00D0     		beq	.LCB984
 1000 0058 51E1     		b	.L73	@long jump
 1001              	.LCB984:
 358:Generated_Source\PSoC6\pdl\drivers\peripheral\sysclk/cy_sysclk.c ****         {
 1002              		.loc 1 358 0
 1003 005a 022E     		cmp	r6, #2
 1004 005c 00D1     		bne	.LCB986
 1005 005e 42E1     		b	.L74	@long jump
 1006              	.LCB986:
 1007              	.LBB33:
 362:Generated_Source\PSoC6\pdl\drivers\peripheral\sysclk/cy_sysclk.c **** 
 1008              		.loc 1 362 0
 1009 0060 FFF7FEFF 		bl	Cy_SysClk_ClkPathGetSource
 1010              	.LVL145:
 1011 0064 8046     		mov	r8, r0
 1012              	.LVL146:
 364:Generated_Source\PSoC6\pdl\drivers\peripheral\sysclk/cy_sysclk.c ****             /* 1. Output division by 2 is always required. */
 1013              		.loc 1 364 0
 1014 0066 05AB     		add	r3, sp, #20
 1015 0068 9E73     		strb	r6, [r3, #14]
 366:Generated_Source\PSoC6\pdl\drivers\peripheral\sysclk/cy_sysclk.c ****             /* 2. Compute the target CCO frequency from the target output frequency and output divi
 1016              		.loc 1 366 0
 1017 006a 0122     		movs	r2, #1
 1018 006c DA71     		strb	r2, [r3, #7]
 368:Generated_Source\PSoC6\pdl\drivers\peripheral\sysclk/cy_sysclk.c ****             /* 3. Compute the CCO range value from the CCO frequency */
 1019              		.loc 1 368 0
 1020 006e 6F00     		lsls	r7, r5, #1
 1021              	.LVL147:
 370:Generated_Source\PSoC6\pdl\drivers\peripheral\sysclk/cy_sysclk.c ****                                ((ccoFreq >= 113009380ul) ? CY_SYSCLK_FLL_CCO_RANGE3 :
 1022              		.loc 1 370 0
 1023 0070 AB4B     		ldr	r3, .L106+24
 1024 0072 9F42     		cmp	r7, r3
 1025 0074 0BD8     		bhi	.L95
 370:Generated_Source\PSoC6\pdl\drivers\peripheral\sysclk/cy_sysclk.c ****                                ((ccoFreq >= 113009380ul) ? CY_SYSCLK_FLL_CCO_RANGE3 :
 1026              		.loc 1 370 0 is_stmt 0 discriminator 1
 1027 0076 AB4B     		ldr	r3, .L106+28
 1028 0078 9F42     		cmp	r7, r3
 1029 007a 0BD8     		bhi	.L96
 370:Generated_Source\PSoC6\pdl\drivers\peripheral\sysclk/cy_sysclk.c ****                                ((ccoFreq >= 113009380ul) ? CY_SYSCLK_FLL_CCO_RANGE3 :
 1030              		.loc 1 370 0 discriminator 3
 1031 007c AA4B     		ldr	r3, .L106+32
 1032 007e 9F42     		cmp	r7, r3
 1033 0080 0BD8     		bhi	.L97
 373:Generated_Source\PSoC6\pdl\drivers\peripheral\sysclk/cy_sysclk.c ****             {
 1034              		.loc 1 373 0 is_stmt 1 discriminator 5
 1035 0082 AA4B     		ldr	r3, .L106+36
 1036 0084 BB42     		cmp	r3, r7
 1037 0086 9B41     		sbcs	r3, r3, r3
 1038 0088 5B42     		rsbs	r3, r3, #0
ARM GAS  C:\Users\gjl\AppData\Local\Temp\cceefPQd.s 			page 29


 1039 008a 9A46     		mov	r10, r3
 1040 008c 07E0     		b	.L75
 1041              	.L95:
 370:Generated_Source\PSoC6\pdl\drivers\peripheral\sysclk/cy_sysclk.c ****                                ((ccoFreq >= 113009380ul) ? CY_SYSCLK_FLL_CCO_RANGE3 :
 1042              		.loc 1 370 0
 1043 008e 0423     		movs	r3, #4
 1044 0090 9A46     		mov	r10, r3
 1045 0092 04E0     		b	.L75
 1046              	.L96:
 1047 0094 0323     		movs	r3, #3
 1048 0096 9A46     		mov	r10, r3
 1049 0098 01E0     		b	.L75
 1050              	.L97:
 1051 009a 0223     		movs	r3, #2
 1052 009c 9A46     		mov	r10, r3
 1053              	.L75:
 370:Generated_Source\PSoC6\pdl\drivers\peripheral\sysclk/cy_sysclk.c ****                                ((ccoFreq >= 113009380ul) ? CY_SYSCLK_FLL_CCO_RANGE3 :
 1054              		.loc 1 370 0 is_stmt 0 discriminator 12
 1055 009e 05AB     		add	r3, sp, #20
 1056 00a0 5246     		mov	r2, r10
 1057 00a2 9A71     		strb	r2, [r3, #6]
 1058              	.LBB34:
 376:Generated_Source\PSoC6\pdl\drivers\peripheral\sysclk/cy_sysclk.c ****                 const float32_t fMargin[] = {43600000.0f, 58100000.0f, 77200000.0f, 103000000.0f, 1
 1059              		.loc 1 376 0 is_stmt 1 discriminator 12
 1060 00a4 0AA8     		add	r0, sp, #40
 1061              	.LVL148:
 1062 00a6 A24B     		ldr	r3, .L106+40
 1063 00a8 0200     		movs	r2, r0
 1064 00aa 1900     		movs	r1, r3
 1065 00ac 51C9     		ldmia	r1!, {r0, r4, r6}
 1066 00ae 51C2     		stmia	r2!, {r0, r4, r6}
 1067              	.LVL149:
 1068 00b0 11C9     		ldmia	r1!, {r0, r4}
 1069 00b2 11C2     		stmia	r2!, {r0, r4}
 377:Generated_Source\PSoC6\pdl\drivers\peripheral\sysclk/cy_sysclk.c **** 
 1070              		.loc 1 377 0 discriminator 12
 1071 00b4 0FA9     		add	r1, sp, #60
 1072 00b6 1433     		adds	r3, r3, #20
 1073 00b8 0A00     		movs	r2, r1
 1074 00ba 13CB     		ldmia	r3!, {r0, r1, r4}
 1075 00bc 13C2     		stmia	r2!, {r0, r1, r4}
 1076 00be 03CB     		ldmia	r3!, {r0, r1}
 1077 00c0 03C2     		stmia	r2!, {r0, r1}
 382:Generated_Source\PSoC6\pdl\drivers\peripheral\sysclk/cy_sysclk.c ****                                             ((uint16_t)ceilf(((float32_t)inputFreq / (float32_t)out
 1078              		.loc 1 382 0 discriminator 12
 1079 00c2 1223     		movs	r3, #18
 1080 00c4 FF33     		adds	r3, r3, #255
 1081 00c6 9845     		cmp	r8, r3
 1082 00c8 13D0     		beq	.L98
 383:Generated_Source\PSoC6\pdl\drivers\peripheral\sysclk/cy_sysclk.c ****             /* 5. Compute the FLL multiplier value.
 1083              		.loc 1 383 0 discriminator 2
 1084 00ca 0098     		ldr	r0, [sp]
 1085 00cc FFF7FEFF 		bl	__aeabi_ui2f
 1086              	.LVL150:
 1087 00d0 061C     		adds	r6, r0, #0
 1088 00d2 2800     		movs	r0, r5
 1089 00d4 FFF7FEFF 		bl	__aeabi_ui2f
ARM GAS  C:\Users\gjl\AppData\Local\Temp\cceefPQd.s 			page 30


 1090              	.LVL151:
 1091 00d8 011C     		adds	r1, r0, #0
 1092 00da 301C     		adds	r0, r6, #0
 1093 00dc FFF7FEFF 		bl	__aeabi_fdiv
 1094              	.LVL152:
 1095 00e0 9449     		ldr	r1, .L106+44
 1096 00e2 FFF7FEFF 		bl	__aeabi_fmul
 1097              	.LVL153:
 1098 00e6 FFF7FEFF 		bl	ceilf
 1099              	.LVL154:
 382:Generated_Source\PSoC6\pdl\drivers\peripheral\sysclk/cy_sysclk.c ****                                             ((uint16_t)ceilf(((float32_t)inputFreq / (float32_t)out
 1100              		.loc 1 382 0 discriminator 2
 1101 00ea FFF7FEFF 		bl	__aeabi_f2uiz
 1102              	.LVL155:
 1103 00ee 84B2     		uxth	r4, r0
 1104 00f0 00E0     		b	.L76
 1105              	.L98:
 382:Generated_Source\PSoC6\pdl\drivers\peripheral\sysclk/cy_sysclk.c ****                                             ((uint16_t)ceilf(((float32_t)inputFreq / (float32_t)out
 1106              		.loc 1 382 0 is_stmt 0
 1107 00f2 1324     		movs	r4, #19
 1108              	.L76:
 382:Generated_Source\PSoC6\pdl\drivers\peripheral\sysclk/cy_sysclk.c ****                                             ((uint16_t)ceilf(((float32_t)inputFreq / (float32_t)out
 1109              		.loc 1 382 0 discriminator 4
 1110 00f4 05AE     		add	r6, sp, #20
 1111 00f6 B480     		strh	r4, [r6, #4]
 386:Generated_Source\PSoC6\pdl\drivers\peripheral\sysclk/cy_sysclk.c ****             /* 6. Compute the lock tolerance.
 1112              		.loc 1 386 0 is_stmt 1 discriminator 4
 1113 00f8 6008     		lsrs	r0, r4, #1
 1114 00fa 009B     		ldr	r3, [sp]
 1115 00fc 9C46     		mov	ip, r3
 1116 00fe 6044     		add	r0, r0, ip
 1117 0100 2100     		movs	r1, r4
 1118 0102 FFF7FEFF 		bl	__aeabi_uidiv
 1119              	.LVL156:
 1120 0106 0100     		movs	r1, r0
 1121 0108 781E     		subs	r0, r7, #1
 1122 010a FFF7FEFF 		bl	__aeabi_uidiv
 1123              	.LVL157:
 1124 010e 0130     		adds	r0, r0, #1
 1125 0110 0590     		str	r0, [sp, #20]
 392:Generated_Source\PSoC6\pdl\drivers\peripheral\sysclk/cy_sysclk.c ****             /* 7. Compute the CCO igain and pgain. */
 1126              		.loc 1 392 0 discriminator 4
 1127 0112 FFF7FEFF 		bl	__aeabi_ui2f
 1128              	.LVL158:
 1129 0116 8849     		ldr	r1, .L106+48
 1130 0118 FFF7FEFF 		bl	__aeabi_fmul
 1131              	.LVL159:
 1132 011c FFF7FEFF 		bl	ceilf
 1133              	.LVL160:
 1134 0120 FFF7FEFF 		bl	__aeabi_f2uiz
 1135              	.LVL161:
 1136 0124 3081     		strh	r0, [r6, #8]
 1137              	.LBB35:
 396:Generated_Source\PSoC6\pdl\drivers\peripheral\sysclk/cy_sysclk.c ****                     float32_t ki_p = (0.85f / (kcco * ((float32_t)(config.refDiv) / (float32_t)inpu
 1138              		.loc 1 396 0 discriminator 4
 1139 0126 5246     		mov	r2, r10
 1140 0128 9300     		lsls	r3, r2, #2
ARM GAS  C:\Users\gjl\AppData\Local\Temp\cceefPQd.s 			page 31


 1141 012a 0AAA     		add	r2, sp, #40
 1142 012c 9858     		ldr	r0, [r3, r2]
 1143 012e 0FAA     		add	r2, sp, #60
 1144 0130 9A58     		ldr	r2, [r3, r2]
 1145 0132 0192     		str	r2, [sp, #4]
 1146 0134 111C     		adds	r1, r2, #0
 1147 0136 FFF7FEFF 		bl	__aeabi_fmul
 1148              	.LVL162:
 1149 013a 8049     		ldr	r1, .L106+52
 1150 013c FFF7FEFF 		bl	__aeabi_fdiv
 1151              	.LVL163:
 1152 0140 0390     		str	r0, [sp, #12]
 1153              	.LVL164:
 397:Generated_Source\PSoC6\pdl\drivers\peripheral\sysclk/cy_sysclk.c **** 
 1154              		.loc 1 397 0 discriminator 4
 1155 0142 2000     		movs	r0, r4
 1156              	.LVL165:
 1157 0144 FFF7FEFF 		bl	__aeabi_ui2f
 1158              	.LVL166:
 1159 0148 041C     		adds	r4, r0, #0
 1160 014a 0098     		ldr	r0, [sp]
 1161 014c FFF7FEFF 		bl	__aeabi_ui2f
 1162              	.LVL167:
 1163 0150 011C     		adds	r1, r0, #0
 1164 0152 0290     		str	r0, [sp, #8]
 1165 0154 201C     		adds	r0, r4, #0
 1166 0156 FFF7FEFF 		bl	__aeabi_fdiv
 1167              	.LVL168:
 1168 015a 011C     		adds	r1, r0, #0
 1169 015c 0398     		ldr	r0, [sp, #12]
 1170 015e FFF7FEFF 		bl	__aeabi_fmul
 1171              	.LVL169:
 1172 0162 011C     		adds	r1, r0, #0
 1173 0164 7648     		ldr	r0, .L106+56
 1174 0166 FFF7FEFF 		bl	__aeabi_fdiv
 1175              	.LVL170:
 1176 016a 7449     		ldr	r1, .L106+52
 1177 016c FFF7FEFF 		bl	__aeabi_fdiv
 1178              	.LVL171:
 1179 0170 0090     		str	r0, [sp]
 1180              	.LVL172:
 400:Generated_Source\PSoC6\pdl\drivers\peripheral\sysclk/cy_sysclk.c ****                                                0.5f, 1.0f, 2.0f, 4.0f, 8.0f};
 1181              		.loc 1 400 0 discriminator 4
 1182 0172 14A9     		add	r1, sp, #80
 1183 0174 6E4B     		ldr	r3, .L106+40
 1184 0176 2833     		adds	r3, r3, #40
 1185 0178 0A00     		movs	r2, r1
 1186 017a 13CB     		ldmia	r3!, {r0, r1, r4}
 1187 017c 13C2     		stmia	r2!, {r0, r1, r4}
 1188              	.LVL173:
 1189 017e 13CB     		ldmia	r3!, {r0, r1, r4}
 1190 0180 13C2     		stmia	r2!, {r0, r1, r4}
 1191 0182 13CB     		ldmia	r3!, {r0, r1, r4}
 1192 0184 13C2     		stmia	r2!, {r0, r1, r4}
 1193 0186 13CB     		ldmia	r3!, {r0, r1, r4}
 1194 0188 13C2     		stmia	r2!, {r0, r1, r4}
 404:Generated_Source\PSoC6\pdl\drivers\peripheral\sysclk/cy_sysclk.c ****                         (gains[config.igain] > ki_p) && (config.igain != 0ul); config.igain--){}
ARM GAS  C:\Users\gjl\AppData\Local\Temp\cceefPQd.s 			page 32


 1195              		.loc 1 404 0 discriminator 4
 1196 018a 0B23     		movs	r3, #11
 1197 018c B372     		strb	r3, [r6, #10]
 1198 018e 02E0     		b	.L77
 1199              	.L80:
 405:Generated_Source\PSoC6\pdl\drivers\peripheral\sysclk/cy_sysclk.c ****                     /* decrement igain if the WCO is the FLL source */
 1200              		.loc 1 405 0 discriminator 1
 1201 0190 013E     		subs	r6, r6, #1
 1202 0192 05AB     		add	r3, sp, #20
 1203 0194 9E72     		strb	r6, [r3, #10]
 1204              	.L77:
 1205 0196 05AB     		add	r3, sp, #20
 1206 0198 9E7A     		ldrb	r6, [r3, #10]
 1207 019a B200     		lsls	r2, r6, #2
 1208 019c 14AB     		add	r3, sp, #80
 1209 019e D158     		ldr	r1, [r2, r3]
 404:Generated_Source\PSoC6\pdl\drivers\peripheral\sysclk/cy_sysclk.c ****                         (gains[config.igain] > ki_p) && (config.igain != 0ul); config.igain--){}
 1210              		.loc 1 404 0 discriminator 1
 1211 01a0 0098     		ldr	r0, [sp]
 1212 01a2 FFF7FEFF 		bl	__aeabi_fcmplt
 1213              	.LVL174:
 1214 01a6 0028     		cmp	r0, #0
 1215 01a8 01D0     		beq	.L78
 405:Generated_Source\PSoC6\pdl\drivers\peripheral\sysclk/cy_sysclk.c ****                     /* decrement igain if the WCO is the FLL source */
 1216              		.loc 1 405 0 discriminator 2
 1217 01aa 002E     		cmp	r6, #0
 1218 01ac F0D1     		bne	.L80
 1219              	.L78:
 407:Generated_Source\PSoC6\pdl\drivers\peripheral\sysclk/cy_sysclk.c ****                     {
 1220              		.loc 1 407 0
 1221 01ae 1223     		movs	r3, #18
 1222 01b0 FF33     		adds	r3, r3, #255
 1223 01b2 9845     		cmp	r8, r3
 1224 01b4 04D1     		bne	.L81
 407:Generated_Source\PSoC6\pdl\drivers\peripheral\sysclk/cy_sysclk.c ****                     {
 1225              		.loc 1 407 0 is_stmt 0 discriminator 1
 1226 01b6 002E     		cmp	r6, #0
 1227 01b8 02D0     		beq	.L81
 409:Generated_Source\PSoC6\pdl\drivers\peripheral\sysclk/cy_sysclk.c ****                     }
 1228              		.loc 1 409 0 is_stmt 1
 1229 01ba 013E     		subs	r6, r6, #1
 1230 01bc 05AB     		add	r3, sp, #20
 1231 01be 9E72     		strb	r6, [r3, #10]
 1232              	.L81:
 412:Generated_Source\PSoC6\pdl\drivers\peripheral\sysclk/cy_sysclk.c ****                         (gains[config.pgain] > (ki_p - gains[config.igain])) && (config.pgain != 0u
 1233              		.loc 1 412 0
 1234 01c0 0B22     		movs	r2, #11
 1235 01c2 05AB     		add	r3, sp, #20
 1236 01c4 DA72     		strb	r2, [r3, #11]
 1237 01c6 02E0     		b	.L82
 1238              	.L85:
 414:Generated_Source\PSoC6\pdl\drivers\peripheral\sysclk/cy_sysclk.c ****                     /* decrement pgain if the WCO is the FLL source */
 1239              		.loc 1 414 0
 1240 01c8 013E     		subs	r6, r6, #1
 1241 01ca 05AB     		add	r3, sp, #20
 1242 01cc DE72     		strb	r6, [r3, #11]
 1243              	.L82:
ARM GAS  C:\Users\gjl\AppData\Local\Temp\cceefPQd.s 			page 33


 413:Generated_Source\PSoC6\pdl\drivers\peripheral\sysclk/cy_sysclk.c ****                         config.pgain--){}
 1244              		.loc 1 413 0 discriminator 1
 1245 01ce 05AB     		add	r3, sp, #20
 1246 01d0 DE7A     		ldrb	r6, [r3, #11]
 1247 01d2 14AA     		add	r2, sp, #80
 1248 01d4 B100     		lsls	r1, r6, #2
 1249 01d6 8C58     		ldr	r4, [r1, r2]
 1250 01d8 9B7A     		ldrb	r3, [r3, #10]
 1251 01da 9B00     		lsls	r3, r3, #2
 1252 01dc 9958     		ldr	r1, [r3, r2]
 1253 01de 0098     		ldr	r0, [sp]
 1254 01e0 FFF7FEFF 		bl	__aeabi_fsub
 1255              	.LVL175:
 1256 01e4 011C     		adds	r1, r0, #0
 412:Generated_Source\PSoC6\pdl\drivers\peripheral\sysclk/cy_sysclk.c ****                         (gains[config.pgain] > (ki_p - gains[config.igain])) && (config.pgain != 0u
 1257              		.loc 1 412 0 discriminator 1
 1258 01e6 201C     		adds	r0, r4, #0
 1259 01e8 FFF7FEFF 		bl	__aeabi_fcmpgt
 1260              	.LVL176:
 1261 01ec 0028     		cmp	r0, #0
 1262 01ee 01D0     		beq	.L83
 413:Generated_Source\PSoC6\pdl\drivers\peripheral\sysclk/cy_sysclk.c ****                         config.pgain--){}
 1263              		.loc 1 413 0
 1264 01f0 002E     		cmp	r6, #0
 1265 01f2 E9D1     		bne	.L85
 1266              	.L83:
 416:Generated_Source\PSoC6\pdl\drivers\peripheral\sysclk/cy_sysclk.c ****                     {
 1267              		.loc 1 416 0
 1268 01f4 1223     		movs	r3, #18
 1269 01f6 FF33     		adds	r3, r3, #255
 1270 01f8 9845     		cmp	r8, r3
 1271 01fa 04D1     		bne	.L86
 416:Generated_Source\PSoC6\pdl\drivers\peripheral\sysclk/cy_sysclk.c ****                     {
 1272              		.loc 1 416 0 is_stmt 0 discriminator 1
 1273 01fc 002E     		cmp	r6, #0
 1274 01fe 02D0     		beq	.L86
 418:Generated_Source\PSoC6\pdl\drivers\peripheral\sysclk/cy_sysclk.c ****                     }
 1275              		.loc 1 418 0 is_stmt 1
 1276 0200 013E     		subs	r6, r6, #1
 1277 0202 05AB     		add	r3, sp, #20
 1278 0204 DE72     		strb	r6, [r3, #11]
 1279              	.L86:
 1280              	.LBE35:
 423:Generated_Source\PSoC6\pdl\drivers\peripheral\sysclk/cy_sysclk.c ****                            log(1.0f + trimSteps[config.ccoRange])));
 1281              		.loc 1 423 0
 1282 0206 3800     		movs	r0, r7
 1283 0208 FFF7FEFF 		bl	__aeabi_ui2f
 1284              	.LVL177:
 1285 020c 0199     		ldr	r1, [sp, #4]
 1286 020e FFF7FEFF 		bl	__aeabi_fdiv
 1287              	.LVL178:
 1288 0212 FFF7FEFF 		bl	__aeabi_f2d
 1289              	.LVL179:
 1290 0216 FFF7FEFF 		bl	log
 1291              	.LVL180:
 1292 021a 0600     		movs	r6, r0
 1293 021c 0F00     		movs	r7, r1
ARM GAS  C:\Users\gjl\AppData\Local\Temp\cceefPQd.s 			page 34


 1294              	.LVL181:
 424:Generated_Source\PSoC6\pdl\drivers\peripheral\sysclk/cy_sysclk.c ****             }
 1295              		.loc 1 424 0
 1296 021e 05AC     		add	r4, sp, #20
 1297 0220 A379     		ldrb	r3, [r4, #6]
 1298 0222 9B00     		lsls	r3, r3, #2
 1299 0224 0AAA     		add	r2, sp, #40
 1300 0226 9858     		ldr	r0, [r3, r2]
 1301 0228 FE21     		movs	r1, #254
 1302 022a 8905     		lsls	r1, r1, #22
 1303 022c FFF7FEFF 		bl	__aeabi_fadd
 1304              	.LVL182:
 1305 0230 FFF7FEFF 		bl	__aeabi_f2d
 1306              	.LVL183:
 1307 0234 FFF7FEFF 		bl	log
 1308              	.LVL184:
 1309 0238 0200     		movs	r2, r0
 1310 023a 0B00     		movs	r3, r1
 423:Generated_Source\PSoC6\pdl\drivers\peripheral\sysclk/cy_sysclk.c ****                            log(1.0f + trimSteps[config.ccoRange])));
 1311              		.loc 1 423 0
 1312 023c 3000     		movs	r0, r6
 1313 023e 3900     		movs	r1, r7
 1314 0240 FFF7FEFF 		bl	__aeabi_ddiv
 1315              	.LVL185:
 1316 0244 FFF7FEFF 		bl	floor
 1317              	.LVL186:
 422:Generated_Source\PSoC6\pdl\drivers\peripheral\sysclk/cy_sysclk.c ****                     (floor(log((float32_t)ccoFreq / fMargin[config.ccoRange]) /
 1318              		.loc 1 422 0
 1319 0248 FFF7FEFF 		bl	__aeabi_d2uiz
 1320              	.LVL187:
 1321 024c 2082     		strh	r0, [r4, #16]
 1322              	.LBE34:
 1323              	.LBB36:
 429:Generated_Source\PSoC6\pdl\drivers\peripheral\sysclk/cy_sysclk.c ****                 float32_t testval = 6000.0f / (float32_t)outputFreq;
 1324              		.loc 1 429 0
 1325 024e A088     		ldrh	r0, [r4, #4]
 1326 0250 FFF7FEFF 		bl	__aeabi_ui2f
 1327              	.LVL188:
 1328 0254 041C     		adds	r4, r0, #0
 1329 0256 3949     		ldr	r1, .L106+52
 1330 0258 029F     		ldr	r7, [sp, #8]
 1331 025a 381C     		adds	r0, r7, #0
 1332 025c FFF7FEFF 		bl	__aeabi_fdiv
 1333              	.LVL189:
 1334 0260 011C     		adds	r1, r0, #0
 1335 0262 201C     		adds	r0, r4, #0
 1336 0264 FFF7FEFF 		bl	__aeabi_fdiv
 1337              	.LVL190:
 1338 0268 061C     		adds	r6, r0, #0
 1339              	.LVL191:
 430:Generated_Source\PSoC6\pdl\drivers\peripheral\sysclk/cy_sysclk.c ****                 float32_t divval  = ceil((float32_t)inputFreq * 0.000001f);
 1340              		.loc 1 430 0
 1341 026a 2800     		movs	r0, r5
 1342              	.LVL192:
 1343 026c FFF7FEFF 		bl	__aeabi_ui2f
 1344              	.LVL193:
 1345 0270 011C     		adds	r1, r0, #0
ARM GAS  C:\Users\gjl\AppData\Local\Temp\cceefPQd.s 			page 35


 1346 0272 3448     		ldr	r0, .L106+60
 1347 0274 FFF7FEFF 		bl	__aeabi_fdiv
 1348              	.LVL194:
 1349 0278 051C     		adds	r5, r0, #0
 1350              	.LVL195:
 431:Generated_Source\PSoC6\pdl\drivers\peripheral\sysclk/cy_sysclk.c ****                 float32_t altval  = ceil((divval / ttref) + 1.0f);
 1351              		.loc 1 431 0
 1352 027a 3349     		ldr	r1, .L106+64
 1353 027c 381C     		adds	r0, r7, #0
 1354              	.LVL196:
 1355 027e FFF7FEFF 		bl	__aeabi_fmul
 1356              	.LVL197:
 1357 0282 FFF7FEFF 		bl	ceilf
 1358              	.LVL198:
 1359 0286 041C     		adds	r4, r0, #0
 1360              	.LVL199:
 432:Generated_Source\PSoC6\pdl\drivers\peripheral\sysclk/cy_sysclk.c ****                 config.settlingCount = (uint16)(wcoSource ? 200u : 
 1361              		.loc 1 432 0
 1362 0288 311C     		adds	r1, r6, #0
 1363 028a FFF7FEFF 		bl	__aeabi_fdiv
 1364              	.LVL200:
 1365 028e FE21     		movs	r1, #254
 1366 0290 8905     		lsls	r1, r1, #22
 1367 0292 FFF7FEFF 		bl	__aeabi_fadd
 1368              	.LVL201:
 1369 0296 FFF7FEFF 		bl	ceilf
 1370              	.LVL202:
 1371 029a 071C     		adds	r7, r0, #0
 1372              	.LVL203:
 433:Generated_Source\PSoC6\pdl\drivers\peripheral\sysclk/cy_sysclk.c ****                                                 ((ttref > testval) ? divval :
 1373              		.loc 1 433 0
 1374 029c 1223     		movs	r3, #18
 1375 029e FF33     		adds	r3, r3, #255
 1376 02a0 9845     		cmp	r8, r3
 1377 02a2 1AD0     		beq	.L99
 433:Generated_Source\PSoC6\pdl\drivers\peripheral\sysclk/cy_sysclk.c ****                                                 ((ttref > testval) ? divval :
 1378              		.loc 1 433 0 is_stmt 0 discriminator 1
 1379 02a4 291C     		adds	r1, r5, #0
 1380 02a6 301C     		adds	r0, r6, #0
 1381              	.LVL204:
 1382 02a8 FFF7FEFF 		bl	__aeabi_fcmpgt
 1383              	.LVL205:
 1384 02ac 0028     		cmp	r0, #0
 1385 02ae 04D0     		beq	.L104
 433:Generated_Source\PSoC6\pdl\drivers\peripheral\sysclk/cy_sysclk.c ****                                                 ((ttref > testval) ? divval :
 1386              		.loc 1 433 0 discriminator 3
 1387 02b0 201C     		adds	r0, r4, #0
 1388 02b2 FFF7FEFF 		bl	__aeabi_f2uiz
 1389              	.LVL206:
 1390 02b6 83B2     		uxth	r3, r0
 1391 02b8 10E0     		b	.L87
 1392              	.L104:
 433:Generated_Source\PSoC6\pdl\drivers\peripheral\sysclk/cy_sysclk.c ****                                                 ((ttref > testval) ? divval :
 1393              		.loc 1 433 0 discriminator 4
 1394 02ba 391C     		adds	r1, r7, #0
 1395 02bc 201C     		adds	r0, r4, #0
 1396 02be FFF7FEFF 		bl	__aeabi_fcmpgt
ARM GAS  C:\Users\gjl\AppData\Local\Temp\cceefPQd.s 			page 36


 1397              	.LVL207:
 1398 02c2 0028     		cmp	r0, #0
 1399 02c4 04D0     		beq	.L105
 433:Generated_Source\PSoC6\pdl\drivers\peripheral\sysclk/cy_sysclk.c ****                                                 ((ttref > testval) ? divval :
 1400              		.loc 1 433 0 discriminator 6
 1401 02c6 201C     		adds	r0, r4, #0
 1402 02c8 FFF7FEFF 		bl	__aeabi_f2uiz
 1403              	.LVL208:
 1404 02cc 83B2     		uxth	r3, r0
 1405 02ce 05E0     		b	.L87
 1406              	.L105:
 433:Generated_Source\PSoC6\pdl\drivers\peripheral\sysclk/cy_sysclk.c ****                                                 ((ttref > testval) ? divval :
 1407              		.loc 1 433 0 discriminator 7
 1408 02d0 381C     		adds	r0, r7, #0
 1409 02d2 FFF7FEFF 		bl	__aeabi_f2uiz
 1410              	.LVL209:
 1411 02d6 83B2     		uxth	r3, r0
 1412 02d8 00E0     		b	.L87
 1413              	.LVL210:
 1414              	.L99:
 433:Generated_Source\PSoC6\pdl\drivers\peripheral\sysclk/cy_sysclk.c ****                                                 ((ttref > testval) ? divval :
 1415              		.loc 1 433 0
 1416 02da C823     		movs	r3, #200
 1417              	.LVL211:
 1418              	.L87:
 433:Generated_Source\PSoC6\pdl\drivers\peripheral\sysclk/cy_sysclk.c ****                                                 ((ttref > testval) ? divval :
 1419              		.loc 1 433 0 discriminator 12
 1420 02dc 05A8     		add	r0, sp, #20
 1421 02de 8381     		strh	r3, [r0, #12]
 1422              	.LBE36:
 438:Generated_Source\PSoC6\pdl\drivers\peripheral\sysclk/cy_sysclk.c ****         } /* if not bypass output mode */
 1423              		.loc 1 438 0 is_stmt 1 discriminator 12
 1424 02e0 FFF7FEFF 		bl	Cy_SysClk_FllManualConfigure
 1425              	.LVL212:
 1426              	.LBE33:
 1427 02e4 0BE0     		b	.L73
 1428              	.LVL213:
 1429              	.L74:
 444:Generated_Source\PSoC6\pdl\drivers\peripheral\sysclk/cy_sysclk.c ****         }
 1430              		.loc 1 444 0
 1431 02e6 084C     		ldr	r4, .L106
 1432              	.LVL214:
 1433 02e8 B121     		movs	r1, #177
 1434 02ea C900     		lsls	r1, r1, #3
 1435 02ec 6258     		ldr	r2, [r4, r1]
 1436 02ee 174B     		ldr	r3, .L106+68
 1437 02f0 1A40     		ands	r2, r3
 1438 02f2 3607     		lsls	r6, r6, #28
 1439 02f4 C023     		movs	r3, #192
 1440 02f6 9B05     		lsls	r3, r3, #22
 1441 02f8 1E40     		ands	r6, r3
 1442 02fa 1643     		orrs	r6, r2
 1443 02fc 6650     		str	r6, [r4, r1]
 1444              	.LVL215:
 1445              	.L73:
 449:Generated_Source\PSoC6\pdl\drivers\peripheral\sysclk/cy_sysclk.c **** 
 1446              		.loc 1 449 0
ARM GAS  C:\Users\gjl\AppData\Local\Temp\cceefPQd.s 			page 37


 1447 02fe 21B0     		add	sp, sp, #132
 1448              		@ sp needed
 1449 0300 0CBC     		pop	{r2, r3}
 1450 0302 9046     		mov	r8, r2
 1451 0304 9A46     		mov	r10, r3
 1452 0306 F0BD     		pop	{r4, r5, r6, r7, pc}
 1453              	.L107:
 1454              		.align	2
 1455              	.L106:
 1456 0308 00002640 		.word	1076232192
 1457 030c 00AB8704 		.word	76000000
 1458 0310 00CA91FE 		.word	-24000000
 1459 0314 CDCC0C40 		.word	1074580685
 1460 0318 03004A00 		.word	4849667
 1461 031c 01004A00 		.word	4849665
 1462 0320 7FFEF508 		.word	150339199
 1463 0324 E362BC06 		.word	113009379
 1464 0328 DB361005 		.word	84948699
 1465 032c EF5BCE03 		.word	63855599
 1466 0330 00000000 		.word	.LANCHOR0
 1467 0334 00007A43 		.word	1132068864
 1468 0338 F6259B3C 		.word	1016800758
 1469 033c 00007A44 		.word	1148846080
 1470 0340 9A99593F 		.word	1062836634
 1471 0344 0080BB45 		.word	1169915904
 1472 0348 BD378635 		.word	897988541
 1473 034c FFFFFFCF 		.word	-805306369
 1474              		.cfi_endproc
 1475              	.LFE130:
 1476              		.size	Cy_SysClk_FllConfigure, .-Cy_SysClk_FllConfigure
 1477              		.section	.text.Cy_SysClk_FllGetConfiguration,"ax",%progbits
 1478              		.align	2
 1479              		.global	Cy_SysClk_FllGetConfiguration
 1480              		.code	16
 1481              		.thumb_func
 1482              		.type	Cy_SysClk_FllGetConfiguration, %function
 1483              	Cy_SysClk_FllGetConfiguration:
 1484              	.LFB132:
 525:Generated_Source\PSoC6\pdl\drivers\peripheral\sysclk/cy_sysclk.c **** 
 526:Generated_Source\PSoC6\pdl\drivers\peripheral\sysclk/cy_sysclk.c **** /*******************************************************************************
 527:Generated_Source\PSoC6\pdl\drivers\peripheral\sysclk/cy_sysclk.c **** * Function Name: Cy_SysClk_FllGetConfiguration
 528:Generated_Source\PSoC6\pdl\drivers\peripheral\sysclk/cy_sysclk.c **** ****************************************************************************//**
 529:Generated_Source\PSoC6\pdl\drivers\peripheral\sysclk/cy_sysclk.c **** *
 530:Generated_Source\PSoC6\pdl\drivers\peripheral\sysclk/cy_sysclk.c **** * Reports the FLL configuration settings.
 531:Generated_Source\PSoC6\pdl\drivers\peripheral\sysclk/cy_sysclk.c **** *
 532:Generated_Source\PSoC6\pdl\drivers\peripheral\sysclk/cy_sysclk.c **** * \param config \ref cy_stc_fll_manual_config_t
 533:Generated_Source\PSoC6\pdl\drivers\peripheral\sysclk/cy_sysclk.c **** *
 534:Generated_Source\PSoC6\pdl\drivers\peripheral\sysclk/cy_sysclk.c **** * \funcusage
 535:Generated_Source\PSoC6\pdl\drivers\peripheral\sysclk/cy_sysclk.c **** * \snippet sysclk/sysclk_v1_10_sut_01.cydsn/main_cm4.c snippet_Cy_SysClk_FllGetConfiguration
 536:Generated_Source\PSoC6\pdl\drivers\peripheral\sysclk/cy_sysclk.c **** *
 537:Generated_Source\PSoC6\pdl\drivers\peripheral\sysclk/cy_sysclk.c **** *******************************************************************************/
 538:Generated_Source\PSoC6\pdl\drivers\peripheral\sysclk/cy_sysclk.c **** void Cy_SysClk_FllGetConfiguration(cy_stc_fll_manual_config_t *config)
 539:Generated_Source\PSoC6\pdl\drivers\peripheral\sysclk/cy_sysclk.c **** {
 1485              		.loc 1 539 0
 1486              		.cfi_startproc
 1487              		@ args = 0, pretend = 0, frame = 0
 1488              		@ frame_needed = 0, uses_anonymous_args = 0
ARM GAS  C:\Users\gjl\AppData\Local\Temp\cceefPQd.s 			page 38


 1489              	.LVL216:
 1490 0000 10B5     		push	{r4, lr}
 1491              		.cfi_def_cfa_offset 8
 1492              		.cfi_offset 4, -8
 1493              		.cfi_offset 14, -4
 1494 0002 041E     		subs	r4, r0, #0
 540:Generated_Source\PSoC6\pdl\drivers\peripheral\sysclk/cy_sysclk.c ****     CY_ASSERT_L1(config != NULL);
 1495              		.loc 1 540 0
 1496 0004 04D1     		bne	.L109
 1497              		.loc 1 540 0 is_stmt 0 discriminator 1
 1498 0006 8721     		movs	r1, #135
 1499 0008 8900     		lsls	r1, r1, #2
 1500 000a 1848     		ldr	r0, .L110
 1501              	.LVL217:
 1502 000c FFF7FEFF 		bl	Cy_SysLib_AssertFailed
 1503              	.LVL218:
 1504              	.L109:
 541:Generated_Source\PSoC6\pdl\drivers\peripheral\sysclk/cy_sysclk.c ****     /* read 2 parameters from CLK_FLL_CONFIG register */
 542:Generated_Source\PSoC6\pdl\drivers\peripheral\sysclk/cy_sysclk.c ****     uint32_t tempReg = SRSS->CLK_FLL_CONFIG;
 1505              		.loc 1 542 0 is_stmt 1
 1506 0010 1749     		ldr	r1, .L110+4
 1507 0012 B023     		movs	r3, #176
 1508 0014 DB00     		lsls	r3, r3, #3
 1509 0016 CB58     		ldr	r3, [r1, r3]
 1510              	.LVL219:
 543:Generated_Source\PSoC6\pdl\drivers\peripheral\sysclk/cy_sysclk.c ****     config->fllMult         = _FLD2VAL(SRSS_CLK_FLL_CONFIG_FLL_MULT, tempReg);
 1511              		.loc 1 543 0
 1512 0018 9A03     		lsls	r2, r3, #14
 1513 001a 920B     		lsrs	r2, r2, #14
 1514 001c 2260     		str	r2, [r4]
 544:Generated_Source\PSoC6\pdl\drivers\peripheral\sysclk/cy_sysclk.c ****     config->enableOutputDiv = (bool)_FLD2VAL(SRSS_CLK_FLL_CONFIG_FLL_OUTPUT_DIV, tempReg);
 1515              		.loc 1 544 0
 1516 001e 1B0E     		lsrs	r3, r3, #24
 1517              	.LVL220:
 1518 0020 0122     		movs	r2, #1
 1519 0022 1340     		ands	r3, r2
 1520 0024 E371     		strb	r3, [r4, #7]
 545:Generated_Source\PSoC6\pdl\drivers\peripheral\sysclk/cy_sysclk.c ****     /* read 2 parameters from CLK_FLL_CONFIG2 register */
 546:Generated_Source\PSoC6\pdl\drivers\peripheral\sysclk/cy_sysclk.c ****     tempReg = SRSS->CLK_FLL_CONFIG2;
 1521              		.loc 1 546 0
 1522 0026 134B     		ldr	r3, .L110+8
 1523 0028 CB58     		ldr	r3, [r1, r3]
 1524              	.LVL221:
 547:Generated_Source\PSoC6\pdl\drivers\peripheral\sysclk/cy_sysclk.c ****     config->refDiv          = _FLD2VAL(SRSS_CLK_FLL_CONFIG2_FLL_REF_DIV, tempReg);
 1525              		.loc 1 547 0
 1526 002a DA04     		lsls	r2, r3, #19
 1527 002c D20C     		lsrs	r2, r2, #19
 1528 002e A280     		strh	r2, [r4, #4]
 548:Generated_Source\PSoC6\pdl\drivers\peripheral\sysclk/cy_sysclk.c ****     config->lockTolerance   = _FLD2VAL(SRSS_CLK_FLL_CONFIG2_LOCK_TOL, tempReg);
 1529              		.loc 1 548 0
 1530 0030 1B0C     		lsrs	r3, r3, #16
 1531              	.LVL222:
 1532 0032 DB05     		lsls	r3, r3, #23
 1533 0034 DB0D     		lsrs	r3, r3, #23
 1534 0036 2381     		strh	r3, [r4, #8]
 549:Generated_Source\PSoC6\pdl\drivers\peripheral\sysclk/cy_sysclk.c ****     /* read 4 parameters from CLK_FLL_CONFIG3 register */
 550:Generated_Source\PSoC6\pdl\drivers\peripheral\sysclk/cy_sysclk.c ****     tempReg = SRSS->CLK_FLL_CONFIG3;
ARM GAS  C:\Users\gjl\AppData\Local\Temp\cceefPQd.s 			page 39


 1535              		.loc 1 550 0
 1536 0038 B123     		movs	r3, #177
 1537 003a DB00     		lsls	r3, r3, #3
 1538 003c CB58     		ldr	r3, [r1, r3]
 1539              	.LVL223:
 551:Generated_Source\PSoC6\pdl\drivers\peripheral\sysclk/cy_sysclk.c ****     config->igain           = _FLD2VAL(SRSS_CLK_FLL_CONFIG3_FLL_LF_IGAIN, tempReg);
 1540              		.loc 1 551 0
 1541 003e 0F20     		movs	r0, #15
 1542 0040 0200     		movs	r2, r0
 1543 0042 1A40     		ands	r2, r3
 1544 0044 A272     		strb	r2, [r4, #10]
 552:Generated_Source\PSoC6\pdl\drivers\peripheral\sysclk/cy_sysclk.c ****     config->pgain           = _FLD2VAL(SRSS_CLK_FLL_CONFIG3_FLL_LF_PGAIN, tempReg);
 1545              		.loc 1 552 0
 1546 0046 1A09     		lsrs	r2, r3, #4
 1547 0048 0240     		ands	r2, r0
 1548 004a E272     		strb	r2, [r4, #11]
 553:Generated_Source\PSoC6\pdl\drivers\peripheral\sysclk/cy_sysclk.c ****     config->settlingCount   = _FLD2VAL(SRSS_CLK_FLL_CONFIG3_SETTLING_COUNT, tempReg);
 1549              		.loc 1 553 0
 1550 004c 1A0A     		lsrs	r2, r3, #8
 1551 004e D204     		lsls	r2, r2, #19
 1552 0050 D20C     		lsrs	r2, r2, #19
 1553 0052 A281     		strh	r2, [r4, #12]
 554:Generated_Source\PSoC6\pdl\drivers\peripheral\sysclk/cy_sysclk.c ****     config->outputMode      = (cy_en_fll_pll_output_mode_t)_FLD2VAL(SRSS_CLK_FLL_CONFIG3_BYPASS_SEL
 1554              		.loc 1 554 0
 1555 0054 1B0F     		lsrs	r3, r3, #28
 1556              	.LVL224:
 1557 0056 0322     		movs	r2, #3
 1558 0058 1340     		ands	r3, r2
 1559 005a A373     		strb	r3, [r4, #14]
 555:Generated_Source\PSoC6\pdl\drivers\peripheral\sysclk/cy_sysclk.c ****     /* read 1 parameter from CLK_FLL_CONFIG4 register */
 556:Generated_Source\PSoC6\pdl\drivers\peripheral\sysclk/cy_sysclk.c ****     config->ccoRange        = (cy_en_fll_cco_ranges_t)_FLD2VAL(SRSS_CLK_FLL_CONFIG4_CCO_RANGE, SRSS
 1560              		.loc 1 556 0
 1561 005c 064B     		ldr	r3, .L110+12
 1562 005e CB58     		ldr	r3, [r1, r3]
 1563 0060 1B0A     		lsrs	r3, r3, #8
 1564 0062 0432     		adds	r2, r2, #4
 1565 0064 1340     		ands	r3, r2
 1566 0066 A371     		strb	r3, [r4, #6]
 557:Generated_Source\PSoC6\pdl\drivers\peripheral\sysclk/cy_sysclk.c **** }
 1567              		.loc 1 557 0
 1568              		@ sp needed
 1569              	.LVL225:
 1570 0068 10BD     		pop	{r4, pc}
 1571              	.L111:
 1572 006a C046     		.align	2
 1573              	.L110:
 1574 006c 00000000 		.word	.LC3
 1575 0070 00002640 		.word	1076232192
 1576 0074 84050000 		.word	1412
 1577 0078 8C050000 		.word	1420
 1578              		.cfi_endproc
 1579              	.LFE132:
 1580              		.size	Cy_SysClk_FllGetConfiguration, .-Cy_SysClk_FllGetConfiguration
 1581              		.section	.text.Cy_SysClk_FllEnable,"ax",%progbits
 1582              		.align	2
 1583              		.global	Cy_SysClk_FllEnable
 1584              		.code	16
ARM GAS  C:\Users\gjl\AppData\Local\Temp\cceefPQd.s 			page 40


 1585              		.thumb_func
 1586              		.type	Cy_SysClk_FllEnable, %function
 1587              	Cy_SysClk_FllEnable:
 1588              	.LFB133:
 558:Generated_Source\PSoC6\pdl\drivers\peripheral\sysclk/cy_sysclk.c **** 
 559:Generated_Source\PSoC6\pdl\drivers\peripheral\sysclk/cy_sysclk.c **** /*******************************************************************************
 560:Generated_Source\PSoC6\pdl\drivers\peripheral\sysclk/cy_sysclk.c **** * Function Name: Cy_SysClk_FllEnable
 561:Generated_Source\PSoC6\pdl\drivers\peripheral\sysclk/cy_sysclk.c **** ****************************************************************************//**
 562:Generated_Source\PSoC6\pdl\drivers\peripheral\sysclk/cy_sysclk.c **** *
 563:Generated_Source\PSoC6\pdl\drivers\peripheral\sysclk/cy_sysclk.c **** * Enables the FLL. The FLL should be configured before calling this function.
 564:Generated_Source\PSoC6\pdl\drivers\peripheral\sysclk/cy_sysclk.c **** *
 565:Generated_Source\PSoC6\pdl\drivers\peripheral\sysclk/cy_sysclk.c **** * \param timeoutus amount of time in micro seconds to wait for FLL to lock.
 566:Generated_Source\PSoC6\pdl\drivers\peripheral\sysclk/cy_sysclk.c **** * If lock doesn't occur, FLL is stopped. To avoid waiting for lock set this to 0,
 567:Generated_Source\PSoC6\pdl\drivers\peripheral\sysclk/cy_sysclk.c **** * and manually check for lock using \ref Cy_SysClk_FllLocked.
 568:Generated_Source\PSoC6\pdl\drivers\peripheral\sysclk/cy_sysclk.c **** *
 569:Generated_Source\PSoC6\pdl\drivers\peripheral\sysclk/cy_sysclk.c **** * \return Error / status code:<br>
 570:Generated_Source\PSoC6\pdl\drivers\peripheral\sysclk/cy_sysclk.c **** * CY_SYSCLK_SUCCESS - FLL successfully enabled<br>
 571:Generated_Source\PSoC6\pdl\drivers\peripheral\sysclk/cy_sysclk.c **** * CY_SYSCLK_TIMEOUT - Timeout waiting for FLL lock
 572:Generated_Source\PSoC6\pdl\drivers\peripheral\sysclk/cy_sysclk.c **** *
 573:Generated_Source\PSoC6\pdl\drivers\peripheral\sysclk/cy_sysclk.c **** * \note
 574:Generated_Source\PSoC6\pdl\drivers\peripheral\sysclk/cy_sysclk.c **** * While waiting for the FLL to lock, the FLL bypass mode is set to \ref CY_SYSCLK_FLLPLL_OUTPUT_INP
 575:Generated_Source\PSoC6\pdl\drivers\peripheral\sysclk/cy_sysclk.c **** * After the FLL is locked, the FLL bypass mdoe is then set to \ref CY_SYSCLK_FLLPLL_OUTPUT_OUTPUT.
 576:Generated_Source\PSoC6\pdl\drivers\peripheral\sysclk/cy_sysclk.c **** *
 577:Generated_Source\PSoC6\pdl\drivers\peripheral\sysclk/cy_sysclk.c **** * \funcusage
 578:Generated_Source\PSoC6\pdl\drivers\peripheral\sysclk/cy_sysclk.c **** * \snippet sysclk/sysclk_v1_10_sut_01.cydsn/main_cm4.c snippet_Cy_SysClk_FllEnable
 579:Generated_Source\PSoC6\pdl\drivers\peripheral\sysclk/cy_sysclk.c **** *
 580:Generated_Source\PSoC6\pdl\drivers\peripheral\sysclk/cy_sysclk.c **** *******************************************************************************/
 581:Generated_Source\PSoC6\pdl\drivers\peripheral\sysclk/cy_sysclk.c **** cy_en_sysclk_status_t Cy_SysClk_FllEnable(uint32_t timeoutus)
 582:Generated_Source\PSoC6\pdl\drivers\peripheral\sysclk/cy_sysclk.c **** {
 1589              		.loc 1 582 0
 1590              		.cfi_startproc
 1591              		@ args = 0, pretend = 0, frame = 0
 1592              		@ frame_needed = 0, uses_anonymous_args = 0
 1593              	.LVL226:
 1594 0000 70B5     		push	{r4, r5, r6, lr}
 1595              		.cfi_def_cfa_offset 16
 1596              		.cfi_offset 4, -16
 1597              		.cfi_offset 5, -12
 1598              		.cfi_offset 6, -8
 1599              		.cfi_offset 14, -4
 1600 0002 0500     		movs	r5, r0
 1601              	.LVL227:
 583:Generated_Source\PSoC6\pdl\drivers\peripheral\sysclk/cy_sysclk.c ****     cy_en_sysclk_status_t rtnval;
 584:Generated_Source\PSoC6\pdl\drivers\peripheral\sysclk/cy_sysclk.c ****     bool nonZeroTimeout = (timeoutus != 0ul);
 585:Generated_Source\PSoC6\pdl\drivers\peripheral\sysclk/cy_sysclk.c **** 
 586:Generated_Source\PSoC6\pdl\drivers\peripheral\sysclk/cy_sysclk.c ****     /* first set the CCO enable bit */
 587:Generated_Source\PSoC6\pdl\drivers\peripheral\sysclk/cy_sysclk.c ****     SRSS->CLK_FLL_CONFIG4 |= _VAL2FLD(SRSS_CLK_FLL_CONFIG4_CCO_ENABLE, 1ul); /* 1 = enable */
 1602              		.loc 1 587 0
 1603 0004 2D49     		ldr	r1, .L125
 1604 0006 2E4A     		ldr	r2, .L125+4
 1605 0008 8B58     		ldr	r3, [r1, r2]
 1606 000a 8020     		movs	r0, #128
 1607              	.LVL228:
 1608 000c 0006     		lsls	r0, r0, #24
 1609 000e 0343     		orrs	r3, r0
 1610 0010 8B50     		str	r3, [r1, r2]
 588:Generated_Source\PSoC6\pdl\drivers\peripheral\sysclk/cy_sysclk.c **** 
ARM GAS  C:\Users\gjl\AppData\Local\Temp\cceefPQd.s 			page 41


 589:Generated_Source\PSoC6\pdl\drivers\peripheral\sysclk/cy_sysclk.c ****     /* Wait until CCO is ready */
 590:Generated_Source\PSoC6\pdl\drivers\peripheral\sysclk/cy_sysclk.c ****     for (; (_FLD2VAL(SRSS_CLK_FLL_STATUS_CCO_READY, SRSS->CLK_FLL_STATUS) == 0ul) &&
 1611              		.loc 1 590 0
 1612 0012 2C00     		movs	r4, r5
 1613 0014 03E0     		b	.L113
 1614              	.LVL229:
 1615              	.L115:
 591:Generated_Source\PSoC6\pdl\drivers\peripheral\sysclk/cy_sysclk.c ****            (timeoutus != 0ul);
 592:Generated_Source\PSoC6\pdl\drivers\peripheral\sysclk/cy_sysclk.c ****          timeoutus--)
 593:Generated_Source\PSoC6\pdl\drivers\peripheral\sysclk/cy_sysclk.c ****     {
 594:Generated_Source\PSoC6\pdl\drivers\peripheral\sysclk/cy_sysclk.c ****         Cy_SysLib_DelayUs(1u);
 1616              		.loc 1 594 0
 1617 0016 0120     		movs	r0, #1
 1618 0018 FFF7FEFF 		bl	Cy_SysLib_DelayUs
 1619              	.LVL230:
 592:Generated_Source\PSoC6\pdl\drivers\peripheral\sysclk/cy_sysclk.c ****     {
 1620              		.loc 1 592 0
 1621 001c 013C     		subs	r4, r4, #1
 1622              	.LVL231:
 1623              	.L113:
 590:Generated_Source\PSoC6\pdl\drivers\peripheral\sysclk/cy_sysclk.c ****            (timeoutus != 0ul);
 1624              		.loc 1 590 0
 1625 001e B223     		movs	r3, #178
 1626 0020 DB00     		lsls	r3, r3, #3
 1627 0022 264A     		ldr	r2, .L125
 1628 0024 D358     		ldr	r3, [r2, r3]
 1629 0026 5B07     		lsls	r3, r3, #29
 1630 0028 01D4     		bmi	.L114
 590:Generated_Source\PSoC6\pdl\drivers\peripheral\sysclk/cy_sysclk.c ****            (timeoutus != 0ul);
 1631              		.loc 1 590 0 is_stmt 0 discriminator 1
 1632 002a 002C     		cmp	r4, #0
 1633 002c F3D1     		bne	.L115
 1634              	.L114:
 595:Generated_Source\PSoC6\pdl\drivers\peripheral\sysclk/cy_sysclk.c ****     }
 596:Generated_Source\PSoC6\pdl\drivers\peripheral\sysclk/cy_sysclk.c **** 
 597:Generated_Source\PSoC6\pdl\drivers\peripheral\sysclk/cy_sysclk.c ****     /* Set the FLL bypass mode to 2 */
 598:Generated_Source\PSoC6\pdl\drivers\peripheral\sysclk/cy_sysclk.c ****     CY_SYSCLK_CLR_SET(SRSS->CLK_FLL_CONFIG3, SRSS_CLK_FLL_CONFIG3_BYPASS_SEL, (uint32_t)CY_SYSCLK_F
 1635              		.loc 1 598 0 is_stmt 1
 1636 002e 2349     		ldr	r1, .L125
 1637 0030 B122     		movs	r2, #177
 1638 0032 D200     		lsls	r2, r2, #3
 1639 0034 8858     		ldr	r0, [r1, r2]
 1640 0036 234B     		ldr	r3, .L125+8
 1641 0038 0340     		ands	r3, r0
 1642 003a 8020     		movs	r0, #128
 1643 003c 8005     		lsls	r0, r0, #22
 1644 003e 0343     		orrs	r3, r0
 1645 0040 8B50     		str	r3, [r1, r2]
 599:Generated_Source\PSoC6\pdl\drivers\peripheral\sysclk/cy_sysclk.c **** 
 600:Generated_Source\PSoC6\pdl\drivers\peripheral\sysclk/cy_sysclk.c ****     /* Set the FLL enable bit, if CCO is ready */
 601:Generated_Source\PSoC6\pdl\drivers\peripheral\sysclk/cy_sysclk.c ****     if ((!nonZeroTimeout) || (nonZeroTimeout && (timeoutus != 0ul)))
 1646              		.loc 1 601 0
 1647 0042 002D     		cmp	r5, #0
 1648 0044 02D0     		beq	.L116
 1649              		.loc 1 601 0 is_stmt 0 discriminator 1
 1650 0046 0ED0     		beq	.L118
 1651              		.loc 1 601 0 discriminator 2
ARM GAS  C:\Users\gjl\AppData\Local\Temp\cceefPQd.s 			page 42


 1652 0048 002C     		cmp	r4, #0
 1653 004a 0CD0     		beq	.L118
 1654              	.L116:
 602:Generated_Source\PSoC6\pdl\drivers\peripheral\sysclk/cy_sysclk.c ****     {
 603:Generated_Source\PSoC6\pdl\drivers\peripheral\sysclk/cy_sysclk.c ****         SRSS->CLK_FLL_CONFIG |= _VAL2FLD(SRSS_CLK_FLL_CONFIG_FLL_ENABLE, 1ul); /* 1 = enable */
 1655              		.loc 1 603 0 is_stmt 1
 1656 004c 1B49     		ldr	r1, .L125
 1657 004e B022     		movs	r2, #176
 1658 0050 D200     		lsls	r2, r2, #3
 1659 0052 8B58     		ldr	r3, [r1, r2]
 1660 0054 8020     		movs	r0, #128
 1661 0056 0006     		lsls	r0, r0, #24
 1662 0058 0343     		orrs	r3, r0
 1663 005a 8B50     		str	r3, [r1, r2]
 1664 005c 03E0     		b	.L118
 1665              	.L120:
 604:Generated_Source\PSoC6\pdl\drivers\peripheral\sysclk/cy_sysclk.c ****     }
 605:Generated_Source\PSoC6\pdl\drivers\peripheral\sysclk/cy_sysclk.c **** 
 606:Generated_Source\PSoC6\pdl\drivers\peripheral\sysclk/cy_sysclk.c ****     /* now do the timeout wait for FLL_STATUS, bit LOCKED */
 607:Generated_Source\PSoC6\pdl\drivers\peripheral\sysclk/cy_sysclk.c ****     for (; (_FLD2VAL(SRSS_CLK_FLL_STATUS_LOCKED, SRSS->CLK_FLL_STATUS) == 0ul) &&
 608:Generated_Source\PSoC6\pdl\drivers\peripheral\sysclk/cy_sysclk.c ****            (timeoutus != 0ul);
 609:Generated_Source\PSoC6\pdl\drivers\peripheral\sysclk/cy_sysclk.c ****          timeoutus--)
 610:Generated_Source\PSoC6\pdl\drivers\peripheral\sysclk/cy_sysclk.c ****     {
 611:Generated_Source\PSoC6\pdl\drivers\peripheral\sysclk/cy_sysclk.c ****         Cy_SysLib_DelayUs(1u);
 1666              		.loc 1 611 0
 1667 005e 0120     		movs	r0, #1
 1668 0060 FFF7FEFF 		bl	Cy_SysLib_DelayUs
 1669              	.LVL232:
 609:Generated_Source\PSoC6\pdl\drivers\peripheral\sysclk/cy_sysclk.c ****     {
 1670              		.loc 1 609 0
 1671 0064 013C     		subs	r4, r4, #1
 1672              	.LVL233:
 1673              	.L118:
 607:Generated_Source\PSoC6\pdl\drivers\peripheral\sysclk/cy_sysclk.c ****            (timeoutus != 0ul);
 1674              		.loc 1 607 0
 1675 0066 B223     		movs	r3, #178
 1676 0068 DB00     		lsls	r3, r3, #3
 1677 006a 144A     		ldr	r2, .L125
 1678 006c D358     		ldr	r3, [r2, r3]
 1679 006e DB07     		lsls	r3, r3, #31
 1680 0070 01D4     		bmi	.L119
 607:Generated_Source\PSoC6\pdl\drivers\peripheral\sysclk/cy_sysclk.c ****            (timeoutus != 0ul);
 1681              		.loc 1 607 0 is_stmt 0 discriminator 1
 1682 0072 002C     		cmp	r4, #0
 1683 0074 F3D1     		bne	.L120
 1684              	.L119:
 612:Generated_Source\PSoC6\pdl\drivers\peripheral\sysclk/cy_sysclk.c ****     }
 613:Generated_Source\PSoC6\pdl\drivers\peripheral\sysclk/cy_sysclk.c **** 
 614:Generated_Source\PSoC6\pdl\drivers\peripheral\sysclk/cy_sysclk.c ****     /* If lock doesn't occur, FLL is stopped. */
 615:Generated_Source\PSoC6\pdl\drivers\peripheral\sysclk/cy_sysclk.c ****     if (nonZeroTimeout && (timeoutus == 0ul))
 1685              		.loc 1 615 0 is_stmt 1
 1686 0076 002D     		cmp	r5, #0
 1687 0078 0ED0     		beq	.L121
 1688              		.loc 1 615 0 is_stmt 0 discriminator 1
 1689 007a 002C     		cmp	r4, #0
 1690 007c 0CD1     		bne	.L121
 1691              	.LBB37:
ARM GAS  C:\Users\gjl\AppData\Local\Temp\cceefPQd.s 			page 43


 1692              	.LBB38:
 1693              		.file 2 "Generated_Source\\PSoC6\\pdl\\drivers\\peripheral\\sysclk\\cy_sysclk.h"
   1:Generated_Source\PSoC6\pdl\drivers\peripheral\sysclk/cy_sysclk.h **** /***************************************************************************//**
   2:Generated_Source\PSoC6\pdl\drivers\peripheral\sysclk/cy_sysclk.h **** * \file cy_sysclk.h
   3:Generated_Source\PSoC6\pdl\drivers\peripheral\sysclk/cy_sysclk.h **** * \version 1.10.1
   4:Generated_Source\PSoC6\pdl\drivers\peripheral\sysclk/cy_sysclk.h **** *
   5:Generated_Source\PSoC6\pdl\drivers\peripheral\sysclk/cy_sysclk.h **** * Provides an API declaration of the sysclk driver.
   6:Generated_Source\PSoC6\pdl\drivers\peripheral\sysclk/cy_sysclk.h **** *
   7:Generated_Source\PSoC6\pdl\drivers\peripheral\sysclk/cy_sysclk.h **** ********************************************************************************
   8:Generated_Source\PSoC6\pdl\drivers\peripheral\sysclk/cy_sysclk.h **** * \copyright
   9:Generated_Source\PSoC6\pdl\drivers\peripheral\sysclk/cy_sysclk.h **** * Copyright 2016-2018, Cypress Semiconductor Corporation. All rights reserved.
  10:Generated_Source\PSoC6\pdl\drivers\peripheral\sysclk/cy_sysclk.h **** * You may use this file only in accordance with the license, terms, conditions,
  11:Generated_Source\PSoC6\pdl\drivers\peripheral\sysclk/cy_sysclk.h **** * disclaimers, and limitations in the end user license agreement accompanying
  12:Generated_Source\PSoC6\pdl\drivers\peripheral\sysclk/cy_sysclk.h **** * the software package with which this file was provided.
  13:Generated_Source\PSoC6\pdl\drivers\peripheral\sysclk/cy_sysclk.h **** *******************************************************************************/
  14:Generated_Source\PSoC6\pdl\drivers\peripheral\sysclk/cy_sysclk.h **** 
  15:Generated_Source\PSoC6\pdl\drivers\peripheral\sysclk/cy_sysclk.h **** /**
  16:Generated_Source\PSoC6\pdl\drivers\peripheral\sysclk/cy_sysclk.h **** * \defgroup group_sysclk System Clock (SysClk)
  17:Generated_Source\PSoC6\pdl\drivers\peripheral\sysclk/cy_sysclk.h **** * \{
  18:Generated_Source\PSoC6\pdl\drivers\peripheral\sysclk/cy_sysclk.h **** * The System Clock (SysClk) driver contains the API for configuring system and
  19:Generated_Source\PSoC6\pdl\drivers\peripheral\sysclk/cy_sysclk.h **** * peripheral clocks. Firmware uses the API to configure , enable, or disable
  20:Generated_Source\PSoC6\pdl\drivers\peripheral\sysclk/cy_sysclk.h **** * a clock.
  21:Generated_Source\PSoC6\pdl\drivers\peripheral\sysclk/cy_sysclk.h **** * 
  22:Generated_Source\PSoC6\pdl\drivers\peripheral\sysclk/cy_sysclk.h **** * The clock system includes a variety of resources that can vary per device, including:
  23:Generated_Source\PSoC6\pdl\drivers\peripheral\sysclk/cy_sysclk.h **** * - Internal clock sources such as internal oscillators
  24:Generated_Source\PSoC6\pdl\drivers\peripheral\sysclk/cy_sysclk.h **** * - External clock sources such as crystal oscillators or a signal on an I/O pin
  25:Generated_Source\PSoC6\pdl\drivers\peripheral\sysclk/cy_sysclk.h **** * - Generated clocks such as an FLL, a PLL, and peripheral clocks
  26:Generated_Source\PSoC6\pdl\drivers\peripheral\sysclk/cy_sysclk.h **** *
  27:Generated_Source\PSoC6\pdl\drivers\peripheral\sysclk/cy_sysclk.h **** * Consult the Technical Reference Manual for your device for details of the 
  28:Generated_Source\PSoC6\pdl\drivers\peripheral\sysclk/cy_sysclk.h **** * clock system.
  29:Generated_Source\PSoC6\pdl\drivers\peripheral\sysclk/cy_sysclk.h **** *
  30:Generated_Source\PSoC6\pdl\drivers\peripheral\sysclk/cy_sysclk.h **** * The PDL defines clock system capabilities in:\n
  31:Generated_Source\PSoC6\pdl\drivers\peripheral\sysclk/cy_sysclk.h **** * devices\<family\>/<series\>/include\<series\>_config.h. (E.g.
  32:Generated_Source\PSoC6\pdl\drivers\peripheral\sysclk/cy_sysclk.h **** * devices/psoc6/psoc63/include/psoc63_config.h). 
  33:Generated_Source\PSoC6\pdl\drivers\peripheral\sysclk/cy_sysclk.h **** * User-configurable clock speeds are defined in the file system_<series>.h.
  34:Generated_Source\PSoC6\pdl\drivers\peripheral\sysclk/cy_sysclk.h **** *
  35:Generated_Source\PSoC6\pdl\drivers\peripheral\sysclk/cy_sysclk.h **** * As an illustration of the clocking system, the following diagram shows the
  36:Generated_Source\PSoC6\pdl\drivers\peripheral\sysclk/cy_sysclk.h **** * PSoC 63 series clock tree. The actual tree may vary depending on the device series.
  37:Generated_Source\PSoC6\pdl\drivers\peripheral\sysclk/cy_sysclk.h **** * ![](sysclk_tree.png)
  38:Generated_Source\PSoC6\pdl\drivers\peripheral\sysclk/cy_sysclk.h **** *
  39:Generated_Source\PSoC6\pdl\drivers\peripheral\sysclk/cy_sysclk.h **** * The sysclk driver supports multiple peripheral clocks, as well as the fast 
  40:Generated_Source\PSoC6\pdl\drivers\peripheral\sysclk/cy_sysclk.h **** * clock, slow clock, backup domain clock, timer clock, and pump clock. The API
  41:Generated_Source\PSoC6\pdl\drivers\peripheral\sysclk/cy_sysclk.h **** * for any given clock contains the functions to manage that clock. Functions
  42:Generated_Source\PSoC6\pdl\drivers\peripheral\sysclk/cy_sysclk.h **** * for clock measurement and trimming are also provided.
  43:Generated_Source\PSoC6\pdl\drivers\peripheral\sysclk/cy_sysclk.h **** *
  44:Generated_Source\PSoC6\pdl\drivers\peripheral\sysclk/cy_sysclk.h **** * \section group_sysclk_configuration Configuration Considerations
  45:Generated_Source\PSoC6\pdl\drivers\peripheral\sysclk/cy_sysclk.h **** * The availability of clock functions depend on the availability of the chip
  46:Generated_Source\PSoC6\pdl\drivers\peripheral\sysclk/cy_sysclk.h **** * resources that support those functions. Consult the device TRM before
  47:Generated_Source\PSoC6\pdl\drivers\peripheral\sysclk/cy_sysclk.h **** * attempting to use these functions.
  48:Generated_Source\PSoC6\pdl\drivers\peripheral\sysclk/cy_sysclk.h **** *
  49:Generated_Source\PSoC6\pdl\drivers\peripheral\sysclk/cy_sysclk.h **** * LPActive and LPSleep power modes limit the maximum clock frequency allowed
  50:Generated_Source\PSoC6\pdl\drivers\peripheral\sysclk/cy_sysclk.h **** * on the device. Refer to the SysPm driver and the TRM for details.
  51:Generated_Source\PSoC6\pdl\drivers\peripheral\sysclk/cy_sysclk.h **** *
  52:Generated_Source\PSoC6\pdl\drivers\peripheral\sysclk/cy_sysclk.h **** * \section group_sysclk_more_information More Information
  53:Generated_Source\PSoC6\pdl\drivers\peripheral\sysclk/cy_sysclk.h **** * Refer to the technical reference manual (TRM) and the device datasheet.
  54:Generated_Source\PSoC6\pdl\drivers\peripheral\sysclk/cy_sysclk.h **** *
  55:Generated_Source\PSoC6\pdl\drivers\peripheral\sysclk/cy_sysclk.h **** * \section group_sysclk_MISRA MISRA-C Compliance
ARM GAS  C:\Users\gjl\AppData\Local\Temp\cceefPQd.s 			page 44


  56:Generated_Source\PSoC6\pdl\drivers\peripheral\sysclk/cy_sysclk.h **** * <table class="doxtable">
  57:Generated_Source\PSoC6\pdl\drivers\peripheral\sysclk/cy_sysclk.h **** *   <tr>
  58:Generated_Source\PSoC6\pdl\drivers\peripheral\sysclk/cy_sysclk.h **** *     <th>MISRA Rule</th>
  59:Generated_Source\PSoC6\pdl\drivers\peripheral\sysclk/cy_sysclk.h **** *     <th>Rule Class (Required/Advisory)</th>
  60:Generated_Source\PSoC6\pdl\drivers\peripheral\sysclk/cy_sysclk.h **** *     <th>Rule Description</th>
  61:Generated_Source\PSoC6\pdl\drivers\peripheral\sysclk/cy_sysclk.h **** *     <th>Description of Deviation(s)</th>
  62:Generated_Source\PSoC6\pdl\drivers\peripheral\sysclk/cy_sysclk.h **** *   </tr>
  63:Generated_Source\PSoC6\pdl\drivers\peripheral\sysclk/cy_sysclk.h **** *   <tr>
  64:Generated_Source\PSoC6\pdl\drivers\peripheral\sysclk/cy_sysclk.h **** *     <td>1.2</td>
  65:Generated_Source\PSoC6\pdl\drivers\peripheral\sysclk/cy_sysclk.h **** *     <td>R</td>
  66:Generated_Source\PSoC6\pdl\drivers\peripheral\sysclk/cy_sysclk.h **** *     <td>No reliance on undefined behavior.</td>
  67:Generated_Source\PSoC6\pdl\drivers\peripheral\sysclk/cy_sysclk.h **** *     <td>Calculation of an absolute value in the FLL and PLL configuration.</td>
  68:Generated_Source\PSoC6\pdl\drivers\peripheral\sysclk/cy_sysclk.h **** *   </tr>
  69:Generated_Source\PSoC6\pdl\drivers\peripheral\sysclk/cy_sysclk.h **** *   <tr>
  70:Generated_Source\PSoC6\pdl\drivers\peripheral\sysclk/cy_sysclk.h **** *     <td>5.6</td>
  71:Generated_Source\PSoC6\pdl\drivers\peripheral\sysclk/cy_sysclk.h **** *     <td>R</td>
  72:Generated_Source\PSoC6\pdl\drivers\peripheral\sysclk/cy_sysclk.h **** *     <td>No identifier in one name space should have the same spelling as an identifier in another
  73:Generated_Source\PSoC6\pdl\drivers\peripheral\sysclk/cy_sysclk.h **** *         exception of structure member and union member names.</td>
  74:Generated_Source\PSoC6\pdl\drivers\peripheral\sysclk/cy_sysclk.h **** *     <td>The "mode" and "retval" are used as a structure/union member they are a label, tag or ord
  75:Generated_Source\PSoC6\pdl\drivers\peripheral\sysclk/cy_sysclk.h **** *         identifier.</td>
  76:Generated_Source\PSoC6\pdl\drivers\peripheral\sysclk/cy_sysclk.h **** *   </tr>
  77:Generated_Source\PSoC6\pdl\drivers\peripheral\sysclk/cy_sysclk.h **** *   <tr>
  78:Generated_Source\PSoC6\pdl\drivers\peripheral\sysclk/cy_sysclk.h **** *     <td>10.1</td>
  79:Generated_Source\PSoC6\pdl\drivers\peripheral\sysclk/cy_sysclk.h **** *     <td>R</td>
  80:Generated_Source\PSoC6\pdl\drivers\peripheral\sysclk/cy_sysclk.h **** *     <td>The value of an expression of integer type shall not be implicitly converted to a differe
  81:Generated_Source\PSoC6\pdl\drivers\peripheral\sysclk/cy_sysclk.h **** *         if the expression is complex.</td>
  82:Generated_Source\PSoC6\pdl\drivers\peripheral\sysclk/cy_sysclk.h **** *     <td>Use of a Cypress defined macro to access memory mapped objects.
  83:Generated_Source\PSoC6\pdl\drivers\peripheral\sysclk/cy_sysclk.h **** *         Use of a Cypress defined macro to divide with rounding.</td>
  84:Generated_Source\PSoC6\pdl\drivers\peripheral\sysclk/cy_sysclk.h **** *   </tr>
  85:Generated_Source\PSoC6\pdl\drivers\peripheral\sysclk/cy_sysclk.h **** *   <tr>
  86:Generated_Source\PSoC6\pdl\drivers\peripheral\sysclk/cy_sysclk.h **** *     <td>10.2</td>
  87:Generated_Source\PSoC6\pdl\drivers\peripheral\sysclk/cy_sysclk.h **** *     <td>R</td>
  88:Generated_Source\PSoC6\pdl\drivers\peripheral\sysclk/cy_sysclk.h **** *     <td>The value of an expression of floating type shall not be implicitly converted to a differ
  89:Generated_Source\PSoC6\pdl\drivers\peripheral\sysclk/cy_sysclk.h **** *         a) it is not a conversion to a wider floating type, or
  90:Generated_Source\PSoC6\pdl\drivers\peripheral\sysclk/cy_sysclk.h **** *         b) the expression is complex, or
  91:Generated_Source\PSoC6\pdl\drivers\peripheral\sysclk/cy_sysclk.h **** *         c) the expression is a function argument, or
  92:Generated_Source\PSoC6\pdl\drivers\peripheral\sysclk/cy_sysclk.h **** *         d) the expression is a return expression.</td>
  93:Generated_Source\PSoC6\pdl\drivers\peripheral\sysclk/cy_sysclk.h **** *     <td>The operands of this relational operator are expressions of different "essential type" ca
  94:Generated_Source\PSoC6\pdl\drivers\peripheral\sysclk/cy_sysclk.h **** *         (enum and unsigned).</td>
  95:Generated_Source\PSoC6\pdl\drivers\peripheral\sysclk/cy_sysclk.h **** *   </tr>
  96:Generated_Source\PSoC6\pdl\drivers\peripheral\sysclk/cy_sysclk.h **** *   <tr>
  97:Generated_Source\PSoC6\pdl\drivers\peripheral\sysclk/cy_sysclk.h **** *     <td>10.3</td>
  98:Generated_Source\PSoC6\pdl\drivers\peripheral\sysclk/cy_sysclk.h **** *     <td>R</td>
  99:Generated_Source\PSoC6\pdl\drivers\peripheral\sysclk/cy_sysclk.h **** *     <td>A composite integer expression is being cast to a wider type.</td>
 100:Generated_Source\PSoC6\pdl\drivers\peripheral\sysclk/cy_sysclk.h **** *     <td>Use of a Cypress defined macro to access memory-mapped objects. Calculating the clock par
 101:Generated_Source\PSoC6\pdl\drivers\peripheral\sysclk/cy_sysclk.h **** *   </tr>
 102:Generated_Source\PSoC6\pdl\drivers\peripheral\sysclk/cy_sysclk.h **** *   <tr>
 103:Generated_Source\PSoC6\pdl\drivers\peripheral\sysclk/cy_sysclk.h **** *     <td>10.4</td>
 104:Generated_Source\PSoC6\pdl\drivers\peripheral\sysclk/cy_sysclk.h **** *     <td>R</td>
 105:Generated_Source\PSoC6\pdl\drivers\peripheral\sysclk/cy_sysclk.h **** *     <td>A composite floating point expression is being cast to double, or unsigned.</td>
 106:Generated_Source\PSoC6\pdl\drivers\peripheral\sysclk/cy_sysclk.h **** *     <td>Use of the C library sqrt() function. Casting a floating-point calculation result to an i
 107:Generated_Source\PSoC6\pdl\drivers\peripheral\sysclk/cy_sysclk.h **** *   </tr>
 108:Generated_Source\PSoC6\pdl\drivers\peripheral\sysclk/cy_sysclk.h **** *   <tr>
 109:Generated_Source\PSoC6\pdl\drivers\peripheral\sysclk/cy_sysclk.h **** *     <td>10.5</td>
 110:Generated_Source\PSoC6\pdl\drivers\peripheral\sysclk/cy_sysclk.h **** *     <td>R</td>
 111:Generated_Source\PSoC6\pdl\drivers\peripheral\sysclk/cy_sysclk.h **** *     <td>The value of an expression of integer type shall not be implicitly converted to a differe
 112:Generated_Source\PSoC6\pdl\drivers\peripheral\sysclk/cy_sysclk.h **** *         if the expression is complex.</td>
ARM GAS  C:\Users\gjl\AppData\Local\Temp\cceefPQd.s 			page 45


 113:Generated_Source\PSoC6\pdl\drivers\peripheral\sysclk/cy_sysclk.h **** *     <td>Use of a Cypress defined macro to access memory-mapped objects.</td>
 114:Generated_Source\PSoC6\pdl\drivers\peripheral\sysclk/cy_sysclk.h **** *   </tr>
 115:Generated_Source\PSoC6\pdl\drivers\peripheral\sysclk/cy_sysclk.h **** *   <tr>
 116:Generated_Source\PSoC6\pdl\drivers\peripheral\sysclk/cy_sysclk.h **** *     <td>12.1</td>
 117:Generated_Source\PSoC6\pdl\drivers\peripheral\sysclk/cy_sysclk.h **** *     <td>A</td>
 118:Generated_Source\PSoC6\pdl\drivers\peripheral\sysclk/cy_sysclk.h **** *     <td>Extra parentheses recommended.</td>
 119:Generated_Source\PSoC6\pdl\drivers\peripheral\sysclk/cy_sysclk.h **** *     <td>Ternary operator uses constants; extra parentheses not needed.</td>
 120:Generated_Source\PSoC6\pdl\drivers\peripheral\sysclk/cy_sysclk.h **** *   </tr>
 121:Generated_Source\PSoC6\pdl\drivers\peripheral\sysclk/cy_sysclk.h **** *   <tr>
 122:Generated_Source\PSoC6\pdl\drivers\peripheral\sysclk/cy_sysclk.h **** *     <td>12.2</td>
 123:Generated_Source\PSoC6\pdl\drivers\peripheral\sysclk/cy_sysclk.h **** *     <td>A</td>
 124:Generated_Source\PSoC6\pdl\drivers\peripheral\sysclk/cy_sysclk.h **** *     <td>The value of an expression must be the same under any order of evaluation that the standa
 125:Generated_Source\PSoC6\pdl\drivers\peripheral\sysclk/cy_sysclk.h **** *     <td>The "rtnval" is modified more than once between the sequence points - the evaluation orde
 126:Generated_Source\PSoC6\pdl\drivers\peripheral\sysclk/cy_sysclk.h **** *   </tr>
 127:Generated_Source\PSoC6\pdl\drivers\peripheral\sysclk/cy_sysclk.h **** *   <tr>
 128:Generated_Source\PSoC6\pdl\drivers\peripheral\sysclk/cy_sysclk.h **** *     <td>12.4</td>
 129:Generated_Source\PSoC6\pdl\drivers\peripheral\sysclk/cy_sysclk.h **** *     <td>A</td>
 130:Generated_Source\PSoC6\pdl\drivers\peripheral\sysclk/cy_sysclk.h **** *     <td>The right hand operand of a logical && or || operator shall not contain side effects.</td
 131:Generated_Source\PSoC6\pdl\drivers\peripheral\sysclk/cy_sysclk.h **** *     <td>No side effect in this case.</td>
 132:Generated_Source\PSoC6\pdl\drivers\peripheral\sysclk/cy_sysclk.h **** *   </tr>
 133:Generated_Source\PSoC6\pdl\drivers\peripheral\sysclk/cy_sysclk.h **** *   <tr>
 134:Generated_Source\PSoC6\pdl\drivers\peripheral\sysclk/cy_sysclk.h **** *     <td>13.4</td>
 135:Generated_Source\PSoC6\pdl\drivers\peripheral\sysclk/cy_sysclk.h **** *     <td>R</td>
 136:Generated_Source\PSoC6\pdl\drivers\peripheral\sysclk/cy_sysclk.h **** *     <td>The controlling expression of a for statement shall not contain any objects of floating t
 137:Generated_Source\PSoC6\pdl\drivers\peripheral\sysclk/cy_sysclk.h **** *     <td>Scanning through a list of floating point values.</td>
 138:Generated_Source\PSoC6\pdl\drivers\peripheral\sysclk/cy_sysclk.h **** *   </tr>
 139:Generated_Source\PSoC6\pdl\drivers\peripheral\sysclk/cy_sysclk.h **** *   <tr>
 140:Generated_Source\PSoC6\pdl\drivers\peripheral\sysclk/cy_sysclk.h **** *     <td>16.7</td>
 141:Generated_Source\PSoC6\pdl\drivers\peripheral\sysclk/cy_sysclk.h **** *     <td>R</td>
 142:Generated_Source\PSoC6\pdl\drivers\peripheral\sysclk/cy_sysclk.h **** *     <td>The object addressed by the pointer parameter is not modified and so the pointer could be
 143:Generated_Source\PSoC6\pdl\drivers\peripheral\sysclk/cy_sysclk.h **** *         type 'pointer to const'.</td>
 144:Generated_Source\PSoC6\pdl\drivers\peripheral\sysclk/cy_sysclk.h **** *     <td>The callback function for system power management (SysPm) must be of generic callback typ
 145:Generated_Source\PSoC6\pdl\drivers\peripheral\sysclk/cy_sysclk.h **** *         contains non-const pointer parameter.</td>
 146:Generated_Source\PSoC6\pdl\drivers\peripheral\sysclk/cy_sysclk.h **** *   </tr>
 147:Generated_Source\PSoC6\pdl\drivers\peripheral\sysclk/cy_sysclk.h **** *   <tr>
 148:Generated_Source\PSoC6\pdl\drivers\peripheral\sysclk/cy_sysclk.h **** *     <td>18.4</td>
 149:Generated_Source\PSoC6\pdl\drivers\peripheral\sysclk/cy_sysclk.h **** *     <td>R</td>
 150:Generated_Source\PSoC6\pdl\drivers\peripheral\sysclk/cy_sysclk.h **** *     <td>Unions shall not be used.</td>
 151:Generated_Source\PSoC6\pdl\drivers\peripheral\sysclk/cy_sysclk.h **** *     <td>The clock path in \ref Cy_SysClk_PeriphGetFrequency() uses either FLL or PLL.</td>
 152:Generated_Source\PSoC6\pdl\drivers\peripheral\sysclk/cy_sysclk.h **** *   </tr>
 153:Generated_Source\PSoC6\pdl\drivers\peripheral\sysclk/cy_sysclk.h **** *   <tr>
 154:Generated_Source\PSoC6\pdl\drivers\peripheral\sysclk/cy_sysclk.h **** *     <td>19.4</td>
 155:Generated_Source\PSoC6\pdl\drivers\peripheral\sysclk/cy_sysclk.h **** *     <td>R</td>
 156:Generated_Source\PSoC6\pdl\drivers\peripheral\sysclk/cy_sysclk.h **** *     <td>Macros shall only expand to a limited set of constructs.</td>
 157:Generated_Source\PSoC6\pdl\drivers\peripheral\sysclk/cy_sysclk.h **** *     <td>The macro CY_SYSCLK_CLR_SET uses a concatenate operation,
 158:Generated_Source\PSoC6\pdl\drivers\peripheral\sysclk/cy_sysclk.h **** *         so one of the macro parameters cannot be enclosed in parentheses.</td>
 159:Generated_Source\PSoC6\pdl\drivers\peripheral\sysclk/cy_sysclk.h **** *   </tr>
 160:Generated_Source\PSoC6\pdl\drivers\peripheral\sysclk/cy_sysclk.h **** * </table>
 161:Generated_Source\PSoC6\pdl\drivers\peripheral\sysclk/cy_sysclk.h **** *
 162:Generated_Source\PSoC6\pdl\drivers\peripheral\sysclk/cy_sysclk.h **** *
 163:Generated_Source\PSoC6\pdl\drivers\peripheral\sysclk/cy_sysclk.h **** * \section group_sysclk_changelog Changelog
 164:Generated_Source\PSoC6\pdl\drivers\peripheral\sysclk/cy_sysclk.h **** * <table class="doxtable">
 165:Generated_Source\PSoC6\pdl\drivers\peripheral\sysclk/cy_sysclk.h **** *   <tr><th>Version</th><th>Changes</th><th>Reason for Change</th></tr>
 166:Generated_Source\PSoC6\pdl\drivers\peripheral\sysclk/cy_sysclk.h **** *   <tr>
 167:Generated_Source\PSoC6\pdl\drivers\peripheral\sysclk/cy_sysclk.h **** *     <td>1.10.1</td>
 168:Generated_Source\PSoC6\pdl\drivers\peripheral\sysclk/cy_sysclk.h **** *     <td>Renamed Power Management section to Low Power Callback section</td>
 169:Generated_Source\PSoC6\pdl\drivers\peripheral\sysclk/cy_sysclk.h **** *     <td>Documentation update and clarification</td>
ARM GAS  C:\Users\gjl\AppData\Local\Temp\cceefPQd.s 			page 46


 170:Generated_Source\PSoC6\pdl\drivers\peripheral\sysclk/cy_sysclk.h **** *   </tr>
 171:Generated_Source\PSoC6\pdl\drivers\peripheral\sysclk/cy_sysclk.h **** *   <tr>
 172:Generated_Source\PSoC6\pdl\drivers\peripheral\sysclk/cy_sysclk.h **** *     <td rowspan="5">1.10</td>
 173:Generated_Source\PSoC6\pdl\drivers\peripheral\sysclk/cy_sysclk.h **** *     <td>Updated FLL parameter calculation</td>
 174:Generated_Source\PSoC6\pdl\drivers\peripheral\sysclk/cy_sysclk.h **** *     <td>Support low frequency sources</td>
 175:Generated_Source\PSoC6\pdl\drivers\peripheral\sysclk/cy_sysclk.h **** *   </tr>
 176:Generated_Source\PSoC6\pdl\drivers\peripheral\sysclk/cy_sysclk.h **** *   <tr>
 177:Generated_Source\PSoC6\pdl\drivers\peripheral\sysclk/cy_sysclk.h **** *     <td>Added Cy_SysClk_PiloSetTrim() and Cy_SysclkPiloGetTrim() functions</td>
 178:Generated_Source\PSoC6\pdl\drivers\peripheral\sysclk/cy_sysclk.h **** *     <td>Support PILO manual trims</td>
 179:Generated_Source\PSoC6\pdl\drivers\peripheral\sysclk/cy_sysclk.h **** *   </tr>
 180:Generated_Source\PSoC6\pdl\drivers\peripheral\sysclk/cy_sysclk.h **** *   <tr>
 181:Generated_Source\PSoC6\pdl\drivers\peripheral\sysclk/cy_sysclk.h **** *     <td>Made Cy_SysClk_FllLostLock() function dependent on SRSS v1</td>
 182:Generated_Source\PSoC6\pdl\drivers\peripheral\sysclk/cy_sysclk.h **** *     <td>Feature is not supported in SRSS v1</td>
 183:Generated_Source\PSoC6\pdl\drivers\peripheral\sysclk/cy_sysclk.h **** *   </tr>
 184:Generated_Source\PSoC6\pdl\drivers\peripheral\sysclk/cy_sysclk.h **** *   <tr>
 185:Generated_Source\PSoC6\pdl\drivers\peripheral\sysclk/cy_sysclk.h **** *     <td>Updated Cy_SysClk_DeepSleepCallback() to save/restore both FLL and PLL settings</td>
 186:Generated_Source\PSoC6\pdl\drivers\peripheral\sysclk/cy_sysclk.h **** *     <td>The function should return when the lock is established or a timeout has occurred</td>
 187:Generated_Source\PSoC6\pdl\drivers\peripheral\sysclk/cy_sysclk.h **** *   </tr>
 188:Generated_Source\PSoC6\pdl\drivers\peripheral\sysclk/cy_sysclk.h **** *   <tr>
 189:Generated_Source\PSoC6\pdl\drivers\peripheral\sysclk/cy_sysclk.h **** *     <td>General documentation updates</td>
 190:Generated_Source\PSoC6\pdl\drivers\peripheral\sysclk/cy_sysclk.h **** *     <td></td>
 191:Generated_Source\PSoC6\pdl\drivers\peripheral\sysclk/cy_sysclk.h **** *   </tr>
 192:Generated_Source\PSoC6\pdl\drivers\peripheral\sysclk/cy_sysclk.h **** *   <tr>
 193:Generated_Source\PSoC6\pdl\drivers\peripheral\sysclk/cy_sysclk.h **** *     <td>1.0</td>
 194:Generated_Source\PSoC6\pdl\drivers\peripheral\sysclk/cy_sysclk.h **** *     <td>Initial version</td>
 195:Generated_Source\PSoC6\pdl\drivers\peripheral\sysclk/cy_sysclk.h **** *     <td></td>
 196:Generated_Source\PSoC6\pdl\drivers\peripheral\sysclk/cy_sysclk.h **** *   </tr>
 197:Generated_Source\PSoC6\pdl\drivers\peripheral\sysclk/cy_sysclk.h **** * </table>
 198:Generated_Source\PSoC6\pdl\drivers\peripheral\sysclk/cy_sysclk.h **** *
 199:Generated_Source\PSoC6\pdl\drivers\peripheral\sysclk/cy_sysclk.h **** * \defgroup group_sysclk_macros           Macros
 200:Generated_Source\PSoC6\pdl\drivers\peripheral\sysclk/cy_sysclk.h **** * \{
 201:Generated_Source\PSoC6\pdl\drivers\peripheral\sysclk/cy_sysclk.h **** * \}
 202:Generated_Source\PSoC6\pdl\drivers\peripheral\sysclk/cy_sysclk.h **** * \defgroup group_sysclk_enums           General Enumerated Types
 203:Generated_Source\PSoC6\pdl\drivers\peripheral\sysclk/cy_sysclk.h **** * \{
 204:Generated_Source\PSoC6\pdl\drivers\peripheral\sysclk/cy_sysclk.h **** *   \defgroup group_sysclk_returns         Function return values
 205:Generated_Source\PSoC6\pdl\drivers\peripheral\sysclk/cy_sysclk.h **** * \}
 206:Generated_Source\PSoC6\pdl\drivers\peripheral\sysclk/cy_sysclk.h **** * \defgroup group_sysclk_eco             External Crystal Oscillator (ECO)
 207:Generated_Source\PSoC6\pdl\drivers\peripheral\sysclk/cy_sysclk.h **** * \{
 208:Generated_Source\PSoC6\pdl\drivers\peripheral\sysclk/cy_sysclk.h **** *   The External Crystal Oscillator (ECO) is a clock source that consists
 209:Generated_Source\PSoC6\pdl\drivers\peripheral\sysclk/cy_sysclk.h **** *   of an oscillator circuit that drives an external crystal through its
 210:Generated_Source\PSoC6\pdl\drivers\peripheral\sysclk/cy_sysclk.h **** *   dedicated ECO pins. The ECO is a source clock that can be used to
 211:Generated_Source\PSoC6\pdl\drivers\peripheral\sysclk/cy_sysclk.h **** *   source one or more clock paths (Refer to \ref group_sysclk_path_src).
 212:Generated_Source\PSoC6\pdl\drivers\peripheral\sysclk/cy_sysclk.h **** *   These clock paths can then source the processors and peripherals in
 213:Generated_Source\PSoC6\pdl\drivers\peripheral\sysclk/cy_sysclk.h **** *   the device.
 214:Generated_Source\PSoC6\pdl\drivers\peripheral\sysclk/cy_sysclk.h **** *
 215:Generated_Source\PSoC6\pdl\drivers\peripheral\sysclk/cy_sysclk.h **** *   The ECO relies on the presence of an external crystal. The pins
 216:Generated_Source\PSoC6\pdl\drivers\peripheral\sysclk/cy_sysclk.h **** *   connected to this crystal must be configured to operate in analog
 217:Generated_Source\PSoC6\pdl\drivers\peripheral\sysclk/cy_sysclk.h **** *   drive mode with HSIOM connection set to GPIO control (HSIOM_SEL_GPIO).
 218:Generated_Source\PSoC6\pdl\drivers\peripheral\sysclk/cy_sysclk.h **** *
 219:Generated_Source\PSoC6\pdl\drivers\peripheral\sysclk/cy_sysclk.h **** *   \defgroup group_sysclk_eco_funcs       Functions
 220:Generated_Source\PSoC6\pdl\drivers\peripheral\sysclk/cy_sysclk.h **** * \}
 221:Generated_Source\PSoC6\pdl\drivers\peripheral\sysclk/cy_sysclk.h **** * \defgroup group_sysclk_path_src           Clock Path Source
 222:Generated_Source\PSoC6\pdl\drivers\peripheral\sysclk/cy_sysclk.h **** * \{
 223:Generated_Source\PSoC6\pdl\drivers\peripheral\sysclk/cy_sysclk.h **** *   Clock paths are a series of multiplexers that allow a source clock
 224:Generated_Source\PSoC6\pdl\drivers\peripheral\sysclk/cy_sysclk.h **** *   to drive multiple clocking resources down the chain. These paths are
 225:Generated_Source\PSoC6\pdl\drivers\peripheral\sysclk/cy_sysclk.h **** *   used for active domain clocks that are not operational during chip 
 226:Generated_Source\PSoC6\pdl\drivers\peripheral\sysclk/cy_sysclk.h **** *   deep-sleep, hibernate and off modes. Illustrated below is a diagram
ARM GAS  C:\Users\gjl\AppData\Local\Temp\cceefPQd.s 			page 47


 227:Generated_Source\PSoC6\pdl\drivers\peripheral\sysclk/cy_sysclk.h **** *   of the clock paths for the PSoC 63 series, showing the first three
 228:Generated_Source\PSoC6\pdl\drivers\peripheral\sysclk/cy_sysclk.h **** *   clock paths. The source clocks for these paths are highlighted in
 229:Generated_Source\PSoC6\pdl\drivers\peripheral\sysclk/cy_sysclk.h **** *   the red box.
 230:Generated_Source\PSoC6\pdl\drivers\peripheral\sysclk/cy_sysclk.h **** *
 231:Generated_Source\PSoC6\pdl\drivers\peripheral\sysclk/cy_sysclk.h **** *   - IMO: 8 MHz Internal Main Oscillator (Default)
 232:Generated_Source\PSoC6\pdl\drivers\peripheral\sysclk/cy_sysclk.h **** *   - EXTCLK: External clock (signal brought in through dedicated pins)
 233:Generated_Source\PSoC6\pdl\drivers\peripheral\sysclk/cy_sysclk.h **** *   - ECO: External Crystal Oscillator (requires external crystal on dedicated pins)
 234:Generated_Source\PSoC6\pdl\drivers\peripheral\sysclk/cy_sysclk.h **** *   - ALTHF: Select on-chip signals (e.g. BLE ECO)
 235:Generated_Source\PSoC6\pdl\drivers\peripheral\sysclk/cy_sysclk.h **** *   - Digital Signal (DSI): Digital signal from a UDB source
 236:Generated_Source\PSoC6\pdl\drivers\peripheral\sysclk/cy_sysclk.h **** *
 237:Generated_Source\PSoC6\pdl\drivers\peripheral\sysclk/cy_sysclk.h **** *   Some clock paths such as path 0 and path 1 have additional resources
 238:Generated_Source\PSoC6\pdl\drivers\peripheral\sysclk/cy_sysclk.h **** *   that can be utilized to provide a higher frequency clock. For example, 
 239:Generated_Source\PSoC6\pdl\drivers\peripheral\sysclk/cy_sysclk.h **** *   path 0 source clock can be used as the reference clock for the FLL and 
 240:Generated_Source\PSoC6\pdl\drivers\peripheral\sysclk/cy_sysclk.h **** *   path 1 source clock can be used as the reference clock for the PLL.
 241:Generated_Source\PSoC6\pdl\drivers\peripheral\sysclk/cy_sysclk.h **** *
 242:Generated_Source\PSoC6\pdl\drivers\peripheral\sysclk/cy_sysclk.h **** *   ![](sysclk_path_source.png)
 243:Generated_Source\PSoC6\pdl\drivers\peripheral\sysclk/cy_sysclk.h **** *
 244:Generated_Source\PSoC6\pdl\drivers\peripheral\sysclk/cy_sysclk.h **** *   \note The PDL driver cannot configure a clock path to use Digital Signal
 245:Generated_Source\PSoC6\pdl\drivers\peripheral\sysclk/cy_sysclk.h **** *   Interconnect (DSI) outputs as sources. This must be done through DSI
 246:Generated_Source\PSoC6\pdl\drivers\peripheral\sysclk/cy_sysclk.h **** *   configuration tool such as PSoC Creator.
 247:Generated_Source\PSoC6\pdl\drivers\peripheral\sysclk/cy_sysclk.h **** *
 248:Generated_Source\PSoC6\pdl\drivers\peripheral\sysclk/cy_sysclk.h **** *   \defgroup group_sysclk_path_src_funcs     Functions
 249:Generated_Source\PSoC6\pdl\drivers\peripheral\sysclk/cy_sysclk.h **** *   \defgroup group_sysclk_path_src_enums     Enumerated Types
 250:Generated_Source\PSoC6\pdl\drivers\peripheral\sysclk/cy_sysclk.h **** * \}
 251:Generated_Source\PSoC6\pdl\drivers\peripheral\sysclk/cy_sysclk.h **** * \defgroup group_sysclk_fll             Frequency Locked Loop (FLL)
 252:Generated_Source\PSoC6\pdl\drivers\peripheral\sysclk/cy_sysclk.h **** * \{
 253:Generated_Source\PSoC6\pdl\drivers\peripheral\sysclk/cy_sysclk.h **** *   The FLL is a clock generation circuit that can be used to produce a
 254:Generated_Source\PSoC6\pdl\drivers\peripheral\sysclk/cy_sysclk.h **** *   higher frequency clock from a reference clock. The output clock exhibits
 255:Generated_Source\PSoC6\pdl\drivers\peripheral\sysclk/cy_sysclk.h **** *   some characteristics of the reference clock such as the accuracy of the
 256:Generated_Source\PSoC6\pdl\drivers\peripheral\sysclk/cy_sysclk.h **** *   source. However other attributes such as the clock phase are not preserved.
 257:Generated_Source\PSoC6\pdl\drivers\peripheral\sysclk/cy_sysclk.h **** *   The FLL is similar in purpose to a (Phase locked loop) PLL but they are
 258:Generated_Source\PSoC6\pdl\drivers\peripheral\sysclk/cy_sysclk.h **** *   not equivalent.
 259:Generated_Source\PSoC6\pdl\drivers\peripheral\sysclk/cy_sysclk.h **** *
 260:Generated_Source\PSoC6\pdl\drivers\peripheral\sysclk/cy_sysclk.h **** *   - They may have different frequency ranges.
 261:Generated_Source\PSoC6\pdl\drivers\peripheral\sysclk/cy_sysclk.h **** *   - The FLL starts up (locks) faster and consumes less current than the PLL.
 262:Generated_Source\PSoC6\pdl\drivers\peripheral\sysclk/cy_sysclk.h **** *   - The FLL accepts a source clock with lower frequency than PLL, such as the WCO (32 KHz). 
 263:Generated_Source\PSoC6\pdl\drivers\peripheral\sysclk/cy_sysclk.h **** *   - The FLL does not lock phase. The hardware consist of a counter with a
 264:Generated_Source\PSoC6\pdl\drivers\peripheral\sysclk/cy_sysclk.h **** *     current-controlled oscillator (CCO). The counter counts the number of output
 265:Generated_Source\PSoC6\pdl\drivers\peripheral\sysclk/cy_sysclk.h **** *     clock edges in a reference clock period and adjusts the CCO until the
 266:Generated_Source\PSoC6\pdl\drivers\peripheral\sysclk/cy_sysclk.h **** *     expected ratio is achieved (locked). After initial lock, the CCO is
 267:Generated_Source\PSoC6\pdl\drivers\peripheral\sysclk/cy_sysclk.h **** *     adjusted dynamically to keep the ratio within tolerance. The lock tolerance
 268:Generated_Source\PSoC6\pdl\drivers\peripheral\sysclk/cy_sysclk.h **** *     is user-adjustable.
 269:Generated_Source\PSoC6\pdl\drivers\peripheral\sysclk/cy_sysclk.h **** *   ![](sysclk_fll.png)
 270:Generated_Source\PSoC6\pdl\drivers\peripheral\sysclk/cy_sysclk.h **** *
 271:Generated_Source\PSoC6\pdl\drivers\peripheral\sysclk/cy_sysclk.h **** *   The SysClk driver supports two models for configuring the FLL. The first
 272:Generated_Source\PSoC6\pdl\drivers\peripheral\sysclk/cy_sysclk.h **** *   model is to call the Cy_SysClk_FllConfigure() function, which calculates the 
 273:Generated_Source\PSoC6\pdl\drivers\peripheral\sysclk/cy_sysclk.h **** *   necessary parameters for the FLL at run-time. This may be necessary for dynamic
 274:Generated_Source\PSoC6\pdl\drivers\peripheral\sysclk/cy_sysclk.h **** *   run-time changes to the FLL. However this method is slow as it needs to perform 
 275:Generated_Source\PSoC6\pdl\drivers\peripheral\sysclk/cy_sysclk.h **** *   the calculation before configuring the FLL. The other model is to call 
 276:Generated_Source\PSoC6\pdl\drivers\peripheral\sysclk/cy_sysclk.h **** *   Cy_SysClk_FllManualConfigure() function with pre-calculated parameter values. 
 277:Generated_Source\PSoC6\pdl\drivers\peripheral\sysclk/cy_sysclk.h **** *   This method is faster but requires prior knowledge of the necessary parameters.
 278:Generated_Source\PSoC6\pdl\drivers\peripheral\sysclk/cy_sysclk.h **** *   Consult the device TRM for the FLL calculation equations.
 279:Generated_Source\PSoC6\pdl\drivers\peripheral\sysclk/cy_sysclk.h **** *
 280:Generated_Source\PSoC6\pdl\drivers\peripheral\sysclk/cy_sysclk.h **** *   \defgroup group_sysclk_fll_funcs       Functions
 281:Generated_Source\PSoC6\pdl\drivers\peripheral\sysclk/cy_sysclk.h **** *   \defgroup group_sysclk_fll_structs     Data Structures
 282:Generated_Source\PSoC6\pdl\drivers\peripheral\sysclk/cy_sysclk.h **** *   \defgroup group_sysclk_fll_enums       Enumerated Types
 283:Generated_Source\PSoC6\pdl\drivers\peripheral\sysclk/cy_sysclk.h **** * \}
ARM GAS  C:\Users\gjl\AppData\Local\Temp\cceefPQd.s 			page 48


 284:Generated_Source\PSoC6\pdl\drivers\peripheral\sysclk/cy_sysclk.h **** * \defgroup group_sysclk_pll             Phase Locked Loop (PLL)
 285:Generated_Source\PSoC6\pdl\drivers\peripheral\sysclk/cy_sysclk.h **** * \{
 286:Generated_Source\PSoC6\pdl\drivers\peripheral\sysclk/cy_sysclk.h **** *   The PLL is a clock generation circuit that can be used to produce a
 287:Generated_Source\PSoC6\pdl\drivers\peripheral\sysclk/cy_sysclk.h **** *   higher frequency clock from a reference clock. The output clock exhibits
 288:Generated_Source\PSoC6\pdl\drivers\peripheral\sysclk/cy_sysclk.h **** *   characteristics of the reference clock such as the accuracy of the source
 289:Generated_Source\PSoC6\pdl\drivers\peripheral\sysclk/cy_sysclk.h **** *   and its phase. The PLL is similar in purpose to a (Frequency locked loop) FLL
 290:Generated_Source\PSoC6\pdl\drivers\peripheral\sysclk/cy_sysclk.h **** *   but they are not equivalent.
 291:Generated_Source\PSoC6\pdl\drivers\peripheral\sysclk/cy_sysclk.h **** *
 292:Generated_Source\PSoC6\pdl\drivers\peripheral\sysclk/cy_sysclk.h **** *   - They may have different frequency ranges.
 293:Generated_Source\PSoC6\pdl\drivers\peripheral\sysclk/cy_sysclk.h **** *   - The PLL starts up more slowly and consumes more current than the FLL.
 294:Generated_Source\PSoC6\pdl\drivers\peripheral\sysclk/cy_sysclk.h **** *   - The PLL requires a higher frequency source clock than PLL. 
 295:Generated_Source\PSoC6\pdl\drivers\peripheral\sysclk/cy_sysclk.h **** *   ![](sysclk_pll.png)
 296:Generated_Source\PSoC6\pdl\drivers\peripheral\sysclk/cy_sysclk.h **** *
 297:Generated_Source\PSoC6\pdl\drivers\peripheral\sysclk/cy_sysclk.h **** *   The SysClk driver supports two models for configuring the PLL. The first
 298:Generated_Source\PSoC6\pdl\drivers\peripheral\sysclk/cy_sysclk.h **** *   model is to call the Cy_SysClk_PllConfigure() function, which calculates the 
 299:Generated_Source\PSoC6\pdl\drivers\peripheral\sysclk/cy_sysclk.h **** *   necessary parameters for the PLL at run-time. This may be necessary for dynamic
 300:Generated_Source\PSoC6\pdl\drivers\peripheral\sysclk/cy_sysclk.h **** *   run-time changes to the PLL. However this method is slow as it needs to perform 
 301:Generated_Source\PSoC6\pdl\drivers\peripheral\sysclk/cy_sysclk.h **** *   the calculation before configuring the PLL. The other model is to call 
 302:Generated_Source\PSoC6\pdl\drivers\peripheral\sysclk/cy_sysclk.h **** *   Cy_SysClk_PllManualConfigure() function with pre-calculated parameter values. 
 303:Generated_Source\PSoC6\pdl\drivers\peripheral\sysclk/cy_sysclk.h **** *   This method is faster but requires prior knowledge of the necessary parameters.
 304:Generated_Source\PSoC6\pdl\drivers\peripheral\sysclk/cy_sysclk.h **** *   Consult the device TRM for the PLL calculation equations.
 305:Generated_Source\PSoC6\pdl\drivers\peripheral\sysclk/cy_sysclk.h **** *
 306:Generated_Source\PSoC6\pdl\drivers\peripheral\sysclk/cy_sysclk.h **** *   \defgroup group_sysclk_pll_funcs       Functions
 307:Generated_Source\PSoC6\pdl\drivers\peripheral\sysclk/cy_sysclk.h **** *   \defgroup group_sysclk_pll_structs     Data Structures
 308:Generated_Source\PSoC6\pdl\drivers\peripheral\sysclk/cy_sysclk.h **** * \}
 309:Generated_Source\PSoC6\pdl\drivers\peripheral\sysclk/cy_sysclk.h **** * \defgroup group_sysclk_ilo             Internal Low-Speed Oscillator (ILO)
 310:Generated_Source\PSoC6\pdl\drivers\peripheral\sysclk/cy_sysclk.h **** * \{
 311:Generated_Source\PSoC6\pdl\drivers\peripheral\sysclk/cy_sysclk.h **** *   The ILO operates with no external components and outputs a stable clock at
 312:Generated_Source\PSoC6\pdl\drivers\peripheral\sysclk/cy_sysclk.h **** *   32.768 kHz nominal. The ILO is relatively low power and low accuracy. It is 
 313:Generated_Source\PSoC6\pdl\drivers\peripheral\sysclk/cy_sysclk.h **** *   available in all power modes and can be used as a source for the Backup domain clock.
 314:Generated_Source\PSoC6\pdl\drivers\peripheral\sysclk/cy_sysclk.h **** *   ![](sysclk_backup.png)
 315:Generated_Source\PSoC6\pdl\drivers\peripheral\sysclk/cy_sysclk.h **** *
 316:Generated_Source\PSoC6\pdl\drivers\peripheral\sysclk/cy_sysclk.h **** *   To ensure the ILO remains active in Hibernate mode, and across power-on-reset
 317:Generated_Source\PSoC6\pdl\drivers\peripheral\sysclk/cy_sysclk.h **** *   (POR) or brown out detect (BOD), firmware must call Cy_SysClk_IloHibernateOn(). 
 318:Generated_Source\PSoC6\pdl\drivers\peripheral\sysclk/cy_sysclk.h **** *
 319:Generated_Source\PSoC6\pdl\drivers\peripheral\sysclk/cy_sysclk.h **** *   Additionally, the ILO clock can be trimmed to +/- 1.5% of nominal frequency using
 320:Generated_Source\PSoC6\pdl\drivers\peripheral\sysclk/cy_sysclk.h **** *   a higher precision clock source. Use the \ref group_sysclk_calclk API to measure 
 321:Generated_Source\PSoC6\pdl\drivers\peripheral\sysclk/cy_sysclk.h **** *   the current ILO frequency before trimming.
 322:Generated_Source\PSoC6\pdl\drivers\peripheral\sysclk/cy_sysclk.h **** *
 323:Generated_Source\PSoC6\pdl\drivers\peripheral\sysclk/cy_sysclk.h **** *   \note The ILO is always the source clock for the \ref group_wdt. Therefore:
 324:Generated_Source\PSoC6\pdl\drivers\peripheral\sysclk/cy_sysclk.h **** *   - The WDT must be unlocked when making an ILO function call in the PDL
 325:Generated_Source\PSoC6\pdl\drivers\peripheral\sysclk/cy_sysclk.h **** *   - It is recommended to always have the ILO enabled
 326:Generated_Source\PSoC6\pdl\drivers\peripheral\sysclk/cy_sysclk.h **** *
 327:Generated_Source\PSoC6\pdl\drivers\peripheral\sysclk/cy_sysclk.h **** *   \defgroup group_sysclk_ilo_funcs       Functions
 328:Generated_Source\PSoC6\pdl\drivers\peripheral\sysclk/cy_sysclk.h **** * \}
 329:Generated_Source\PSoC6\pdl\drivers\peripheral\sysclk/cy_sysclk.h **** * \defgroup group_sysclk_pilo            Precision Internal Low-Speed Oscillator (PILO)
 330:Generated_Source\PSoC6\pdl\drivers\peripheral\sysclk/cy_sysclk.h **** * \{
 331:Generated_Source\PSoC6\pdl\drivers\peripheral\sysclk/cy_sysclk.h **** *   PILO provides a higher accuracy 32.768 kHz clock than the \ref group_sysclk_ilo "ILO".
 332:Generated_Source\PSoC6\pdl\drivers\peripheral\sysclk/cy_sysclk.h **** *   When periodically calibrated using a high-accuracy clock such as the
 333:Generated_Source\PSoC6\pdl\drivers\peripheral\sysclk/cy_sysclk.h **** *   \ref group_sysclk_eco "ECO", the PILO can achieve 250 ppm accuracy of nominal frequency.
 334:Generated_Source\PSoC6\pdl\drivers\peripheral\sysclk/cy_sysclk.h **** *   The PILO is capable of operating in device Active, Sleep and Deep-Sleep power modes. 
 335:Generated_Source\PSoC6\pdl\drivers\peripheral\sysclk/cy_sysclk.h **** *   It is not available in Hibernate mode.
 336:Generated_Source\PSoC6\pdl\drivers\peripheral\sysclk/cy_sysclk.h **** *
 337:Generated_Source\PSoC6\pdl\drivers\peripheral\sysclk/cy_sysclk.h **** *   The PILO can be used as a source for the \ref group_sysclk_clk_lf. However,
 338:Generated_Source\PSoC6\pdl\drivers\peripheral\sysclk/cy_sysclk.h **** *   because PILO is disabled in Hibernate mode, RTC timers cannot operate in this mode
 339:Generated_Source\PSoC6\pdl\drivers\peripheral\sysclk/cy_sysclk.h **** *   when clocked using the PILO. Instead, either the \ref group_sysclk_ilo "ILO" or
 340:Generated_Source\PSoC6\pdl\drivers\peripheral\sysclk/cy_sysclk.h **** *   \ref group_sysclk_wco "WCO" should be used when hibernate operation is required. 
ARM GAS  C:\Users\gjl\AppData\Local\Temp\cceefPQd.s 			page 49


 341:Generated_Source\PSoC6\pdl\drivers\peripheral\sysclk/cy_sysclk.h **** *
 342:Generated_Source\PSoC6\pdl\drivers\peripheral\sysclk/cy_sysclk.h **** *   ![](sysclk_backup.png)
 343:Generated_Source\PSoC6\pdl\drivers\peripheral\sysclk/cy_sysclk.h **** *
 344:Generated_Source\PSoC6\pdl\drivers\peripheral\sysclk/cy_sysclk.h **** *   Periodic calibration to a high-accuracy clock (such as ECO) is required to
 345:Generated_Source\PSoC6\pdl\drivers\peripheral\sysclk/cy_sysclk.h **** *   maintain accuracy. The application should use the functions described in the 
 346:Generated_Source\PSoC6\pdl\drivers\peripheral\sysclk/cy_sysclk.h **** *   \ref group_sysclk_calclk API to measure the current PILO frequency before trimming.
 347:Generated_Source\PSoC6\pdl\drivers\peripheral\sysclk/cy_sysclk.h **** *
 348:Generated_Source\PSoC6\pdl\drivers\peripheral\sysclk/cy_sysclk.h **** *   \defgroup group_sysclk_pilo_funcs      Functions
 349:Generated_Source\PSoC6\pdl\drivers\peripheral\sysclk/cy_sysclk.h **** * \}
 350:Generated_Source\PSoC6\pdl\drivers\peripheral\sysclk/cy_sysclk.h **** * \defgroup group_sysclk_calclk          Clock Measurement
 351:Generated_Source\PSoC6\pdl\drivers\peripheral\sysclk/cy_sysclk.h **** * \{
 352:Generated_Source\PSoC6\pdl\drivers\peripheral\sysclk/cy_sysclk.h **** *   These functions measure the frequency of a specified clock relative to a
 353:Generated_Source\PSoC6\pdl\drivers\peripheral\sysclk/cy_sysclk.h **** *   reference clock. They are typically called in the following order:
 354:Generated_Source\PSoC6\pdl\drivers\peripheral\sysclk/cy_sysclk.h **** *
 355:Generated_Source\PSoC6\pdl\drivers\peripheral\sysclk/cy_sysclk.h **** *   1. Specify the measured clock, the count, and the reference clock
 356:Generated_Source\PSoC6\pdl\drivers\peripheral\sysclk/cy_sysclk.h **** *   2. Start the counters
 357:Generated_Source\PSoC6\pdl\drivers\peripheral\sysclk/cy_sysclk.h **** *   3. Wait for the measurement counter to finish counting
 358:Generated_Source\PSoC6\pdl\drivers\peripheral\sysclk/cy_sysclk.h **** *   4. Retrieve the measured frequency
 359:Generated_Source\PSoC6\pdl\drivers\peripheral\sysclk/cy_sysclk.h **** *
 360:Generated_Source\PSoC6\pdl\drivers\peripheral\sysclk/cy_sysclk.h **** *   \note These functions may also be used as part of a clock trimming
 361:Generated_Source\PSoC6\pdl\drivers\peripheral\sysclk/cy_sysclk.h **** *   process. Refer to the \ref group_sysclk_trim "Clock Trim" API.
 362:Generated_Source\PSoC6\pdl\drivers\peripheral\sysclk/cy_sysclk.h **** *
 363:Generated_Source\PSoC6\pdl\drivers\peripheral\sysclk/cy_sysclk.h **** *   \defgroup group_sysclk_calclk_funcs    Functions
 364:Generated_Source\PSoC6\pdl\drivers\peripheral\sysclk/cy_sysclk.h **** *   \defgroup group_sysclk_calclk_enums    Enumerated Types
 365:Generated_Source\PSoC6\pdl\drivers\peripheral\sysclk/cy_sysclk.h **** * \}
 366:Generated_Source\PSoC6\pdl\drivers\peripheral\sysclk/cy_sysclk.h **** * \defgroup group_sysclk_trim            Clock Trim (ILO, PILO)
 367:Generated_Source\PSoC6\pdl\drivers\peripheral\sysclk/cy_sysclk.h **** * \{
 368:Generated_Source\PSoC6\pdl\drivers\peripheral\sysclk/cy_sysclk.h **** *   These functions perform a single trim operation on the ILO or PILO. Each
 369:Generated_Source\PSoC6\pdl\drivers\peripheral\sysclk/cy_sysclk.h **** *   function's parameter is the actual frequency of the clock. To measure the
 370:Generated_Source\PSoC6\pdl\drivers\peripheral\sysclk/cy_sysclk.h **** *   frequency, use the functions described in the \ref group_sysclk_calclk API.
 371:Generated_Source\PSoC6\pdl\drivers\peripheral\sysclk/cy_sysclk.h **** *
 372:Generated_Source\PSoC6\pdl\drivers\peripheral\sysclk/cy_sysclk.h **** *   To trim the clock as close as possible to the target frequency, multiple
 373:Generated_Source\PSoC6\pdl\drivers\peripheral\sysclk/cy_sysclk.h **** *   calls to the trim function may be needed. A typical usage example is to:
 374:Generated_Source\PSoC6\pdl\drivers\peripheral\sysclk/cy_sysclk.h **** *   1. Call the clock measurement functions to get the actual frequency of the clock
 375:Generated_Source\PSoC6\pdl\drivers\peripheral\sysclk/cy_sysclk.h **** *   2. Call the trim function, passing in the measured frequency
 376:Generated_Source\PSoC6\pdl\drivers\peripheral\sysclk/cy_sysclk.h **** *   3. Repeat the above until the trim function reports that the clock is trimmed to within limits.
 377:Generated_Source\PSoC6\pdl\drivers\peripheral\sysclk/cy_sysclk.h **** *
 378:Generated_Source\PSoC6\pdl\drivers\peripheral\sysclk/cy_sysclk.h **** *   \defgroup group_sysclk_trim_funcs      Functions
 379:Generated_Source\PSoC6\pdl\drivers\peripheral\sysclk/cy_sysclk.h **** * \}
 380:Generated_Source\PSoC6\pdl\drivers\peripheral\sysclk/cy_sysclk.h **** * \defgroup group_sysclk_pm              Low Power Callback
 381:Generated_Source\PSoC6\pdl\drivers\peripheral\sysclk/cy_sysclk.h **** * \{
 382:Generated_Source\PSoC6\pdl\drivers\peripheral\sysclk/cy_sysclk.h **** *   Entering and exiting low power modes require compatible clock configurations
 383:Generated_Source\PSoC6\pdl\drivers\peripheral\sysclk/cy_sysclk.h **** *   to be set before entering low power and restored upon wake-up and exit. The
 384:Generated_Source\PSoC6\pdl\drivers\peripheral\sysclk/cy_sysclk.h **** *   SysClk driver provides a Cy_SysClk_DeepSleepCallback() function to support
 385:Generated_Source\PSoC6\pdl\drivers\peripheral\sysclk/cy_sysclk.h **** *   deep-sleep mode entry. 
 386:Generated_Source\PSoC6\pdl\drivers\peripheral\sysclk/cy_sysclk.h **** *
 387:Generated_Source\PSoC6\pdl\drivers\peripheral\sysclk/cy_sysclk.h **** *   This function can be called either by itself before initiating low-power mode
 388:Generated_Source\PSoC6\pdl\drivers\peripheral\sysclk/cy_sysclk.h **** *   entry or it can be used in conjunction with the SysPm driver as a registered 
 389:Generated_Source\PSoC6\pdl\drivers\peripheral\sysclk/cy_sysclk.h **** *   callback. To do so, register this function as a callback before calling 
 390:Generated_Source\PSoC6\pdl\drivers\peripheral\sysclk/cy_sysclk.h **** *   Cy_SysPm_DeepSleep(). Specify \ref CY_SYSPM_DEEPSLEEP as the callback type, 
 391:Generated_Source\PSoC6\pdl\drivers\peripheral\sysclk/cy_sysclk.h **** *   and call Cy_SysPm_RegisterCallback().
 392:Generated_Source\PSoC6\pdl\drivers\peripheral\sysclk/cy_sysclk.h **** *   
 393:Generated_Source\PSoC6\pdl\drivers\peripheral\sysclk/cy_sysclk.h **** *   \note If the FLL or PLL source is the ECO, this function must be called.
 394:Generated_Source\PSoC6\pdl\drivers\peripheral\sysclk/cy_sysclk.h **** *
 395:Generated_Source\PSoC6\pdl\drivers\peripheral\sysclk/cy_sysclk.h **** *   \defgroup group_sysclk_pm_funcs        Functions
 396:Generated_Source\PSoC6\pdl\drivers\peripheral\sysclk/cy_sysclk.h **** * \}
 397:Generated_Source\PSoC6\pdl\drivers\peripheral\sysclk/cy_sysclk.h **** * \defgroup group_sysclk_wco             Watch Crystal Oscillator (WCO)
ARM GAS  C:\Users\gjl\AppData\Local\Temp\cceefPQd.s 			page 50


 398:Generated_Source\PSoC6\pdl\drivers\peripheral\sysclk/cy_sysclk.h **** * \{
 399:Generated_Source\PSoC6\pdl\drivers\peripheral\sysclk/cy_sysclk.h **** *   The WCO is a highly accurate 32.768 kHz clock source capable of operating
 400:Generated_Source\PSoC6\pdl\drivers\peripheral\sysclk/cy_sysclk.h **** *   in all power modes (excluding the Off mode). It is the primary clock source for
 401:Generated_Source\PSoC6\pdl\drivers\peripheral\sysclk/cy_sysclk.h **** *   the backup domain clock, which is used by the real-time clock (RTC). The 
 402:Generated_Source\PSoC6\pdl\drivers\peripheral\sysclk/cy_sysclk.h **** *   WCO can also be used as a source for the low-frequency clock to support other
 403:Generated_Source\PSoC6\pdl\drivers\peripheral\sysclk/cy_sysclk.h **** *   low power mode peripherals.
 404:Generated_Source\PSoC6\pdl\drivers\peripheral\sysclk/cy_sysclk.h **** *
 405:Generated_Source\PSoC6\pdl\drivers\peripheral\sysclk/cy_sysclk.h **** *   ![](sysclk_backup.png)
 406:Generated_Source\PSoC6\pdl\drivers\peripheral\sysclk/cy_sysclk.h **** *
 407:Generated_Source\PSoC6\pdl\drivers\peripheral\sysclk/cy_sysclk.h **** *   The WCO requires the configuration of the dedicated WCO pins (SRSS_WCO_IN_PIN,
 408:Generated_Source\PSoC6\pdl\drivers\peripheral\sysclk/cy_sysclk.h **** *   SRSS_WCO_OUT_PIN). These must be configured as Analog Hi-Z drive modes and the
 409:Generated_Source\PSoC6\pdl\drivers\peripheral\sysclk/cy_sysclk.h **** *   HSIOM selection set to GPIO. The WCO can also be used in bypass mode, where
 410:Generated_Source\PSoC6\pdl\drivers\peripheral\sysclk/cy_sysclk.h **** *   an external 32.768 kHz square wave is brought in directly through the 
 411:Generated_Source\PSoC6\pdl\drivers\peripheral\sysclk/cy_sysclk.h **** *   SRSS_WCO_OUT_PIN pin.
 412:Generated_Source\PSoC6\pdl\drivers\peripheral\sysclk/cy_sysclk.h **** *
 413:Generated_Source\PSoC6\pdl\drivers\peripheral\sysclk/cy_sysclk.h **** *   Some devices support a built-in clock supervisor (CSV) in the WCO. The clock
 414:Generated_Source\PSoC6\pdl\drivers\peripheral\sysclk/cy_sysclk.h **** *   supervisor detects if the WCO has been lost; that is, the WCO is no longer 
 415:Generated_Source\PSoC6\pdl\drivers\peripheral\sysclk/cy_sysclk.h **** *   producing clock pulses. The CSV does this by checking to ensure there is at 
 416:Generated_Source\PSoC6\pdl\drivers\peripheral\sysclk/cy_sysclk.h **** *   least one WCO clock pulse within a certain time window. The ILO or PILO can be
 417:Generated_Source\PSoC6\pdl\drivers\peripheral\sysclk/cy_sysclk.h **** *   the supervising clock. Firmware can configure the CSV to trigger a fault,
 418:Generated_Source\PSoC6\pdl\drivers\peripheral\sysclk/cy_sysclk.h **** *   a reset, or both after specified cycles of the supervising clock.
 419:Generated_Source\PSoC6\pdl\drivers\peripheral\sysclk/cy_sysclk.h **** *
 420:Generated_Source\PSoC6\pdl\drivers\peripheral\sysclk/cy_sysclk.h **** *   \defgroup group_sysclk_wco_funcs       Functions
 421:Generated_Source\PSoC6\pdl\drivers\peripheral\sysclk/cy_sysclk.h **** *   \defgroup group_sysclk_wco_structs     Data Structures
 422:Generated_Source\PSoC6\pdl\drivers\peripheral\sysclk/cy_sysclk.h **** *   \defgroup group_sysclk_wco_enums       Enumerated Types
 423:Generated_Source\PSoC6\pdl\drivers\peripheral\sysclk/cy_sysclk.h **** * \}
 424:Generated_Source\PSoC6\pdl\drivers\peripheral\sysclk/cy_sysclk.h **** * \defgroup group_sysclk_clk_hf          High-Frequency Clocks
 425:Generated_Source\PSoC6\pdl\drivers\peripheral\sysclk/cy_sysclk.h **** * \{
 426:Generated_Source\PSoC6\pdl\drivers\peripheral\sysclk/cy_sysclk.h **** *   Multiple high frequency clocks (CLK_HF) are available in the device. For example,
 427:Generated_Source\PSoC6\pdl\drivers\peripheral\sysclk/cy_sysclk.h **** *   PSoC 63 series has five high-frequency root clocks. Each CLK_HF has a particular
 428:Generated_Source\PSoC6\pdl\drivers\peripheral\sysclk/cy_sysclk.h **** *   connection and chip-specific destination on the device.
 429:Generated_Source\PSoC6\pdl\drivers\peripheral\sysclk/cy_sysclk.h **** *
 430:Generated_Source\PSoC6\pdl\drivers\peripheral\sysclk/cy_sysclk.h **** *   |Name     |Description                                             |
 431:Generated_Source\PSoC6\pdl\drivers\peripheral\sysclk/cy_sysclk.h **** *   |:--------|:-------------------------------------------------------|
 432:Generated_Source\PSoC6\pdl\drivers\peripheral\sysclk/cy_sysclk.h **** *   |CLK_HF[0]| Root clock for CPUs, PERI, and AHB infrastructure      |
 433:Generated_Source\PSoC6\pdl\drivers\peripheral\sysclk/cy_sysclk.h **** *   |CLK_HF[1]| Root clock for the PDM/PCM and I2S audio subsystem     |
 434:Generated_Source\PSoC6\pdl\drivers\peripheral\sysclk/cy_sysclk.h **** *   |CLK_HF[2]| Root clock for the Serial Memory Interface subsystem   |
 435:Generated_Source\PSoC6\pdl\drivers\peripheral\sysclk/cy_sysclk.h **** *   |CLK_HF[3]| Root clock for USB communications                      |
 436:Generated_Source\PSoC6\pdl\drivers\peripheral\sysclk/cy_sysclk.h **** *   |CLK_HF[4]| Clock output on clk_ext pin (when used as an output)   |
 437:Generated_Source\PSoC6\pdl\drivers\peripheral\sysclk/cy_sysclk.h **** *
 438:Generated_Source\PSoC6\pdl\drivers\peripheral\sysclk/cy_sysclk.h **** *   ![](sysclk_hf.png)
 439:Generated_Source\PSoC6\pdl\drivers\peripheral\sysclk/cy_sysclk.h **** *   
 440:Generated_Source\PSoC6\pdl\drivers\peripheral\sysclk/cy_sysclk.h **** *   High frequency clocks are sourced by path clocks, which should be configured
 441:Generated_Source\PSoC6\pdl\drivers\peripheral\sysclk/cy_sysclk.h **** *   first. An exception to this rule is CLK_HF[0], which cannot be disabled. 
 442:Generated_Source\PSoC6\pdl\drivers\peripheral\sysclk/cy_sysclk.h **** *   This divided clock drives the core processors and the peripherals in the system.
 443:Generated_Source\PSoC6\pdl\drivers\peripheral\sysclk/cy_sysclk.h **** *   In order to update its clock source, CLK_HF[0] source must be selected without
 444:Generated_Source\PSoC6\pdl\drivers\peripheral\sysclk/cy_sysclk.h **** *   disabling the clock.
 445:Generated_Source\PSoC6\pdl\drivers\peripheral\sysclk/cy_sysclk.h **** *
 446:Generated_Source\PSoC6\pdl\drivers\peripheral\sysclk/cy_sysclk.h **** *   ![](sysclk_hf_dist.png)
 447:Generated_Source\PSoC6\pdl\drivers\peripheral\sysclk/cy_sysclk.h **** *
 448:Generated_Source\PSoC6\pdl\drivers\peripheral\sysclk/cy_sysclk.h **** *   Some devices support a clock supervisor (CSV) for each root clock. These
 449:Generated_Source\PSoC6\pdl\drivers\peripheral\sysclk/cy_sysclk.h **** *   can detect frequency loss, or monitor that the clock frequency stays within
 450:Generated_Source\PSoC6\pdl\drivers\peripheral\sysclk/cy_sysclk.h **** *   a specified range. The possible supervising clocks are IMO, ECO, or ALTHF. 
 451:Generated_Source\PSoC6\pdl\drivers\peripheral\sysclk/cy_sysclk.h **** *   Loss detection and frequency monitoring can be enabled or disabled independently.
 452:Generated_Source\PSoC6\pdl\drivers\peripheral\sysclk/cy_sysclk.h **** *   Each has its own programmable action that occurs on detection of an error.
 453:Generated_Source\PSoC6\pdl\drivers\peripheral\sysclk/cy_sysclk.h **** *
 454:Generated_Source\PSoC6\pdl\drivers\peripheral\sysclk/cy_sysclk.h **** *   \defgroup group_sysclk_clk_hf_funcs    Functions
ARM GAS  C:\Users\gjl\AppData\Local\Temp\cceefPQd.s 			page 51


 455:Generated_Source\PSoC6\pdl\drivers\peripheral\sysclk/cy_sysclk.h **** *   \defgroup group_sysclk_clk_hf_structs  Data Structures
 456:Generated_Source\PSoC6\pdl\drivers\peripheral\sysclk/cy_sysclk.h **** *   \defgroup group_sysclk_clk_hf_enums    Enumerated Types
 457:Generated_Source\PSoC6\pdl\drivers\peripheral\sysclk/cy_sysclk.h **** * \}
 458:Generated_Source\PSoC6\pdl\drivers\peripheral\sysclk/cy_sysclk.h **** * \defgroup group_sysclk_clk_fast        Fast Clock
 459:Generated_Source\PSoC6\pdl\drivers\peripheral\sysclk/cy_sysclk.h **** * \{
 460:Generated_Source\PSoC6\pdl\drivers\peripheral\sysclk/cy_sysclk.h **** *   The fast clock drives the "fast" processor (e.g. Cortex-M4 processor in PSoC 6).
 461:Generated_Source\PSoC6\pdl\drivers\peripheral\sysclk/cy_sysclk.h **** *   This clock is sourced by CLK_HF[0] (\ref group_sysclk_clk_hf "HF Clocks").
 462:Generated_Source\PSoC6\pdl\drivers\peripheral\sysclk/cy_sysclk.h **** *   A divider value of 1~256 can be used to further divide the CLK_HF[0] to a
 463:Generated_Source\PSoC6\pdl\drivers\peripheral\sysclk/cy_sysclk.h **** *   desired clock speed for the processor.
 464:Generated_Source\PSoC6\pdl\drivers\peripheral\sysclk/cy_sysclk.h **** *
 465:Generated_Source\PSoC6\pdl\drivers\peripheral\sysclk/cy_sysclk.h **** *   ![](sysclk_fast.png)
 466:Generated_Source\PSoC6\pdl\drivers\peripheral\sysclk/cy_sysclk.h **** *
 467:Generated_Source\PSoC6\pdl\drivers\peripheral\sysclk/cy_sysclk.h **** *   \defgroup group_sysclk_clk_fast_funcs  Functions
 468:Generated_Source\PSoC6\pdl\drivers\peripheral\sysclk/cy_sysclk.h **** * \}
 469:Generated_Source\PSoC6\pdl\drivers\peripheral\sysclk/cy_sysclk.h **** * \defgroup group_sysclk_clk_peri        Peripheral Clock
 470:Generated_Source\PSoC6\pdl\drivers\peripheral\sysclk/cy_sysclk.h **** * \{
 471:Generated_Source\PSoC6\pdl\drivers\peripheral\sysclk/cy_sysclk.h **** *   The peripheral clock is a divided clock of CLK_HF0 (\ref group_sysclk_clk_hf "HF Clocks").
 472:Generated_Source\PSoC6\pdl\drivers\peripheral\sysclk/cy_sysclk.h **** *   It is the source clock for the \ref group_sysclk_clk_slow, and most active domain
 473:Generated_Source\PSoC6\pdl\drivers\peripheral\sysclk/cy_sysclk.h **** *   peripheral clocks (\ref group_sysclk_clk_peripheral). A divider value of 1~256 
 474:Generated_Source\PSoC6\pdl\drivers\peripheral\sysclk/cy_sysclk.h **** *   can be used to further divide the CLK_HF[0] to a desired clock speed for the peripherals.
 475:Generated_Source\PSoC6\pdl\drivers\peripheral\sysclk/cy_sysclk.h **** *
 476:Generated_Source\PSoC6\pdl\drivers\peripheral\sysclk/cy_sysclk.h **** *   ![](sysclk_peri.png)
 477:Generated_Source\PSoC6\pdl\drivers\peripheral\sysclk/cy_sysclk.h **** *
 478:Generated_Source\PSoC6\pdl\drivers\peripheral\sysclk/cy_sysclk.h **** *   \defgroup group_sysclk_clk_peri_funcs  Functions
 479:Generated_Source\PSoC6\pdl\drivers\peripheral\sysclk/cy_sysclk.h **** * \}
 480:Generated_Source\PSoC6\pdl\drivers\peripheral\sysclk/cy_sysclk.h **** * \defgroup group_sysclk_clk_peripheral  Peripherals Clock Dividers
 481:Generated_Source\PSoC6\pdl\drivers\peripheral\sysclk/cy_sysclk.h **** * \{
 482:Generated_Source\PSoC6\pdl\drivers\peripheral\sysclk/cy_sysclk.h **** *   There are multiple peripheral clock dividers that, in effect, create 
 483:Generated_Source\PSoC6\pdl\drivers\peripheral\sysclk/cy_sysclk.h **** *   multiple separate peripheral clocks. The available dividers vary per device 
 484:Generated_Source\PSoC6\pdl\drivers\peripheral\sysclk/cy_sysclk.h **** *   series. As an example, for the PSoC 63 series there are 29 dividers:
 485:Generated_Source\PSoC6\pdl\drivers\peripheral\sysclk/cy_sysclk.h **** *
 486:Generated_Source\PSoC6\pdl\drivers\peripheral\sysclk/cy_sysclk.h **** *   - eight 8-bit dividers
 487:Generated_Source\PSoC6\pdl\drivers\peripheral\sysclk/cy_sysclk.h **** *   - sixteen 16-bit dividers
 488:Generated_Source\PSoC6\pdl\drivers\peripheral\sysclk/cy_sysclk.h **** *   - four fractional 16.5-bit dividers (16 integer bits, 5 fractional bits)
 489:Generated_Source\PSoC6\pdl\drivers\peripheral\sysclk/cy_sysclk.h **** *   - one fractional 24.5-bit divider (24 integer bits, 5 fractional bits)
 490:Generated_Source\PSoC6\pdl\drivers\peripheral\sysclk/cy_sysclk.h **** *
 491:Generated_Source\PSoC6\pdl\drivers\peripheral\sysclk/cy_sysclk.h **** *   The five fractional bits supports further precision in 1/32nd increments. For
 492:Generated_Source\PSoC6\pdl\drivers\peripheral\sysclk/cy_sysclk.h **** *   example, a divider with an integer value of 3 and a fractional value of
 493:Generated_Source\PSoC6\pdl\drivers\peripheral\sysclk/cy_sysclk.h **** *   4 (4/32) results in a divider of 3.125. Fractional dividers are useful when
 494:Generated_Source\PSoC6\pdl\drivers\peripheral\sysclk/cy_sysclk.h **** *   a high-precision clock is required, for example, for a UART/SPI serial
 495:Generated_Source\PSoC6\pdl\drivers\peripheral\sysclk/cy_sysclk.h **** *   interface.
 496:Generated_Source\PSoC6\pdl\drivers\peripheral\sysclk/cy_sysclk.h **** *
 497:Generated_Source\PSoC6\pdl\drivers\peripheral\sysclk/cy_sysclk.h **** *   ![](sysclk_peri_divs.png)
 498:Generated_Source\PSoC6\pdl\drivers\peripheral\sysclk/cy_sysclk.h **** *
 499:Generated_Source\PSoC6\pdl\drivers\peripheral\sysclk/cy_sysclk.h **** *   Each peripheral can connect to any one of the programmable dividers. A
 500:Generated_Source\PSoC6\pdl\drivers\peripheral\sysclk/cy_sysclk.h **** *   particular peripheral clock divider can drive multiple peripherals.
 501:Generated_Source\PSoC6\pdl\drivers\peripheral\sysclk/cy_sysclk.h **** *   
 502:Generated_Source\PSoC6\pdl\drivers\peripheral\sysclk/cy_sysclk.h **** *   The SysClk driver also supports phase aligning two peripheral clock dividers using
 503:Generated_Source\PSoC6\pdl\drivers\peripheral\sysclk/cy_sysclk.h **** *   Cy_SysClk_PeriphEnablePhaseAlignDivider(). Alignment works for both integer
 504:Generated_Source\PSoC6\pdl\drivers\peripheral\sysclk/cy_sysclk.h **** *   and fractional dividers. The divider to which a second divider is aligned
 505:Generated_Source\PSoC6\pdl\drivers\peripheral\sysclk/cy_sysclk.h **** *   must already be enabled.
 506:Generated_Source\PSoC6\pdl\drivers\peripheral\sysclk/cy_sysclk.h **** *
 507:Generated_Source\PSoC6\pdl\drivers\peripheral\sysclk/cy_sysclk.h **** *   \defgroup group_sysclk_clk_peripheral_funcs Functions
 508:Generated_Source\PSoC6\pdl\drivers\peripheral\sysclk/cy_sysclk.h **** *   \defgroup group_sysclk_clk_peripheral_enums Enumerated Types
 509:Generated_Source\PSoC6\pdl\drivers\peripheral\sysclk/cy_sysclk.h **** * \}
 510:Generated_Source\PSoC6\pdl\drivers\peripheral\sysclk/cy_sysclk.h **** * \defgroup group_sysclk_clk_slow        Slow Clock
 511:Generated_Source\PSoC6\pdl\drivers\peripheral\sysclk/cy_sysclk.h **** * \{
ARM GAS  C:\Users\gjl\AppData\Local\Temp\cceefPQd.s 			page 52


 512:Generated_Source\PSoC6\pdl\drivers\peripheral\sysclk/cy_sysclk.h **** *   The slow clock is the source clock for the "slow" processor (e.g. Cortex-M0+ in PSoC 6).
 513:Generated_Source\PSoC6\pdl\drivers\peripheral\sysclk/cy_sysclk.h **** *   This clock is a divided version of the \ref group_sysclk_clk_peri, which in turn is 
 514:Generated_Source\PSoC6\pdl\drivers\peripheral\sysclk/cy_sysclk.h **** *   a divided version of CLK_HF[0] (\ref group_sysclk_clk_hf "HF Clocks"). A divider 
 515:Generated_Source\PSoC6\pdl\drivers\peripheral\sysclk/cy_sysclk.h **** *   value of 1~256 can be used to further divide the Peri clock to a desired clock speed
 516:Generated_Source\PSoC6\pdl\drivers\peripheral\sysclk/cy_sysclk.h **** *   for the processor.
 517:Generated_Source\PSoC6\pdl\drivers\peripheral\sysclk/cy_sysclk.h **** *
 518:Generated_Source\PSoC6\pdl\drivers\peripheral\sysclk/cy_sysclk.h **** *   ![](sysclk_slow.png)
 519:Generated_Source\PSoC6\pdl\drivers\peripheral\sysclk/cy_sysclk.h **** *
 520:Generated_Source\PSoC6\pdl\drivers\peripheral\sysclk/cy_sysclk.h **** *   \defgroup group_sysclk_clk_slow_funcs  Functions
 521:Generated_Source\PSoC6\pdl\drivers\peripheral\sysclk/cy_sysclk.h **** * \}
 522:Generated_Source\PSoC6\pdl\drivers\peripheral\sysclk/cy_sysclk.h **** * \defgroup group_sysclk_clk_lf          Low-Frequency Clock
 523:Generated_Source\PSoC6\pdl\drivers\peripheral\sysclk/cy_sysclk.h **** * \{
 524:Generated_Source\PSoC6\pdl\drivers\peripheral\sysclk/cy_sysclk.h **** *   The low-frequency clock is the source clock for the \ref group_mcwdt
 525:Generated_Source\PSoC6\pdl\drivers\peripheral\sysclk/cy_sysclk.h **** *   and can be the source clock for \ref group_sysclk_clk_bak, which drives the
 526:Generated_Source\PSoC6\pdl\drivers\peripheral\sysclk/cy_sysclk.h **** *   \ref group_rtc.
 527:Generated_Source\PSoC6\pdl\drivers\peripheral\sysclk/cy_sysclk.h **** *   
 528:Generated_Source\PSoC6\pdl\drivers\peripheral\sysclk/cy_sysclk.h **** *   The low-frequency clock has three possible source clocks:
 529:Generated_Source\PSoC6\pdl\drivers\peripheral\sysclk/cy_sysclk.h **** *   \ref group_sysclk_ilo "ILO", \ref group_sysclk_pilo "PILO", and
 530:Generated_Source\PSoC6\pdl\drivers\peripheral\sysclk/cy_sysclk.h **** *   \ref group_sysclk_wco "WCO".
 531:Generated_Source\PSoC6\pdl\drivers\peripheral\sysclk/cy_sysclk.h **** *
 532:Generated_Source\PSoC6\pdl\drivers\peripheral\sysclk/cy_sysclk.h **** *   ![](sysclk_lf.png)
 533:Generated_Source\PSoC6\pdl\drivers\peripheral\sysclk/cy_sysclk.h **** *
 534:Generated_Source\PSoC6\pdl\drivers\peripheral\sysclk/cy_sysclk.h **** *   \defgroup group_sysclk_clk_lf_funcs    Functions
 535:Generated_Source\PSoC6\pdl\drivers\peripheral\sysclk/cy_sysclk.h **** *   \defgroup group_sysclk_clk_lf_enums    Enumerated Types
 536:Generated_Source\PSoC6\pdl\drivers\peripheral\sysclk/cy_sysclk.h **** * \}
 537:Generated_Source\PSoC6\pdl\drivers\peripheral\sysclk/cy_sysclk.h **** * \defgroup group_sysclk_clk_timer       Timer Clock
 538:Generated_Source\PSoC6\pdl\drivers\peripheral\sysclk/cy_sysclk.h **** * \{
 539:Generated_Source\PSoC6\pdl\drivers\peripheral\sysclk/cy_sysclk.h **** *   The timer clock can be a source for the alternative clock driving 
 540:Generated_Source\PSoC6\pdl\drivers\peripheral\sysclk/cy_sysclk.h **** *   the \ref group_arm_system_timer. It can also be used as a reference clock 
 541:Generated_Source\PSoC6\pdl\drivers\peripheral\sysclk/cy_sysclk.h **** *   for a counter in the \ref group_energy_profiler "Energy Profiler".
 542:Generated_Source\PSoC6\pdl\drivers\peripheral\sysclk/cy_sysclk.h **** *   
 543:Generated_Source\PSoC6\pdl\drivers\peripheral\sysclk/cy_sysclk.h **** *   The timer clock is a divided clock of either the IMO or CLK_HF[0]
 544:Generated_Source\PSoC6\pdl\drivers\peripheral\sysclk/cy_sysclk.h **** *   (\ref group_sysclk_clk_hf "HF Clocks").
 545:Generated_Source\PSoC6\pdl\drivers\peripheral\sysclk/cy_sysclk.h **** *
 546:Generated_Source\PSoC6\pdl\drivers\peripheral\sysclk/cy_sysclk.h **** *   \defgroup group_sysclk_clk_timer_funcs Functions
 547:Generated_Source\PSoC6\pdl\drivers\peripheral\sysclk/cy_sysclk.h **** *   \defgroup group_sysclk_clk_timer_enums Enumerated Types
 548:Generated_Source\PSoC6\pdl\drivers\peripheral\sysclk/cy_sysclk.h **** * \}
 549:Generated_Source\PSoC6\pdl\drivers\peripheral\sysclk/cy_sysclk.h **** * \defgroup group_sysclk_clk_pump        Pump Clock
 550:Generated_Source\PSoC6\pdl\drivers\peripheral\sysclk/cy_sysclk.h **** * \{
 551:Generated_Source\PSoC6\pdl\drivers\peripheral\sysclk/cy_sysclk.h **** *   The pump clock is a clock source used to provide analog precision in low voltage
 552:Generated_Source\PSoC6\pdl\drivers\peripheral\sysclk/cy_sysclk.h **** *   applications. Depedning on the usage scenario, it may be required to drive the
 553:Generated_Source\PSoC6\pdl\drivers\peripheral\sysclk/cy_sysclk.h **** *   internal voltage pump for the Continuous Time Block mini (CTBm) in the analog 
 554:Generated_Source\PSoC6\pdl\drivers\peripheral\sysclk/cy_sysclk.h **** *   subsystem. The pump clock is a divided clock of one of the clock paths 
 555:Generated_Source\PSoC6\pdl\drivers\peripheral\sysclk/cy_sysclk.h **** *   (\ref group_sysclk_path_src).
 556:Generated_Source\PSoC6\pdl\drivers\peripheral\sysclk/cy_sysclk.h **** *
 557:Generated_Source\PSoC6\pdl\drivers\peripheral\sysclk/cy_sysclk.h **** *   \defgroup group_sysclk_clk_pump_funcs  Functions
 558:Generated_Source\PSoC6\pdl\drivers\peripheral\sysclk/cy_sysclk.h **** *   \defgroup group_sysclk_clk_pump_enums  Enumerated Types
 559:Generated_Source\PSoC6\pdl\drivers\peripheral\sysclk/cy_sysclk.h **** * \}
 560:Generated_Source\PSoC6\pdl\drivers\peripheral\sysclk/cy_sysclk.h **** * \defgroup group_sysclk_clk_bak         Backup Domain Clock
 561:Generated_Source\PSoC6\pdl\drivers\peripheral\sysclk/cy_sysclk.h **** * \{
 562:Generated_Source\PSoC6\pdl\drivers\peripheral\sysclk/cy_sysclk.h **** *   The backup domain clock drives the \ref group_rtc.
 563:Generated_Source\PSoC6\pdl\drivers\peripheral\sysclk/cy_sysclk.h **** *   This clock has two possible source clocks: \ref group_sysclk_wco "WCO"
 564:Generated_Source\PSoC6\pdl\drivers\peripheral\sysclk/cy_sysclk.h **** *   or the \ref group_sysclk_clk_lf. In turn the low frequency clock is sourced by
 565:Generated_Source\PSoC6\pdl\drivers\peripheral\sysclk/cy_sysclk.h **** *   \ref group_sysclk_ilo "ILO", \ref group_sysclk_pilo "PILO", or
 566:Generated_Source\PSoC6\pdl\drivers\peripheral\sysclk/cy_sysclk.h **** *   \ref group_sysclk_wco "WCO". Typically the ILO is not suitable as an RTC source,
 567:Generated_Source\PSoC6\pdl\drivers\peripheral\sysclk/cy_sysclk.h **** *   because of its low accuracy. However the ILO does operate in hibernate mode and
 568:Generated_Source\PSoC6\pdl\drivers\peripheral\sysclk/cy_sysclk.h **** *   may be used as an alterative to the WCO with a tradeoff in precision.
ARM GAS  C:\Users\gjl\AppData\Local\Temp\cceefPQd.s 			page 53


 569:Generated_Source\PSoC6\pdl\drivers\peripheral\sysclk/cy_sysclk.h **** *
 570:Generated_Source\PSoC6\pdl\drivers\peripheral\sysclk/cy_sysclk.h **** *   \defgroup group_sysclk_clk_bak_funcs   Functions
 571:Generated_Source\PSoC6\pdl\drivers\peripheral\sysclk/cy_sysclk.h **** *   \defgroup group_sysclk_clk_bak_enums   Enumerated Types
 572:Generated_Source\PSoC6\pdl\drivers\peripheral\sysclk/cy_sysclk.h **** * \}
 573:Generated_Source\PSoC6\pdl\drivers\peripheral\sysclk/cy_sysclk.h **** */
 574:Generated_Source\PSoC6\pdl\drivers\peripheral\sysclk/cy_sysclk.h **** 
 575:Generated_Source\PSoC6\pdl\drivers\peripheral\sysclk/cy_sysclk.h **** #if !defined(__CY_SYSCLK_H__)
 576:Generated_Source\PSoC6\pdl\drivers\peripheral\sysclk/cy_sysclk.h **** #define __CY_SYSCLK_H__
 577:Generated_Source\PSoC6\pdl\drivers\peripheral\sysclk/cy_sysclk.h **** 
 578:Generated_Source\PSoC6\pdl\drivers\peripheral\sysclk/cy_sysclk.h **** #include "cy_device_headers.h"
 579:Generated_Source\PSoC6\pdl\drivers\peripheral\sysclk/cy_sysclk.h **** #include "syslib/cy_syslib.h"
 580:Generated_Source\PSoC6\pdl\drivers\peripheral\sysclk/cy_sysclk.h **** #include "syspm/cy_syspm.h"
 581:Generated_Source\PSoC6\pdl\drivers\peripheral\sysclk/cy_sysclk.h **** #include <stdbool.h>
 582:Generated_Source\PSoC6\pdl\drivers\peripheral\sysclk/cy_sysclk.h **** 
 583:Generated_Source\PSoC6\pdl\drivers\peripheral\sysclk/cy_sysclk.h **** #if defined(__cplusplus)
 584:Generated_Source\PSoC6\pdl\drivers\peripheral\sysclk/cy_sysclk.h **** extern "C" {
 585:Generated_Source\PSoC6\pdl\drivers\peripheral\sysclk/cy_sysclk.h **** #endif /* __cplusplus */
 586:Generated_Source\PSoC6\pdl\drivers\peripheral\sysclk/cy_sysclk.h **** 
 587:Generated_Source\PSoC6\pdl\drivers\peripheral\sysclk/cy_sysclk.h **** /**
 588:Generated_Source\PSoC6\pdl\drivers\peripheral\sysclk/cy_sysclk.h **** * \addtogroup group_sysclk_macros
 589:Generated_Source\PSoC6\pdl\drivers\peripheral\sysclk/cy_sysclk.h **** * \{
 590:Generated_Source\PSoC6\pdl\drivers\peripheral\sysclk/cy_sysclk.h **** */
 591:Generated_Source\PSoC6\pdl\drivers\peripheral\sysclk/cy_sysclk.h **** /** Driver major version */
 592:Generated_Source\PSoC6\pdl\drivers\peripheral\sysclk/cy_sysclk.h **** #define  CY_SYSCLK_DRV_VERSION_MAJOR   1
 593:Generated_Source\PSoC6\pdl\drivers\peripheral\sysclk/cy_sysclk.h **** /** Driver minor version */
 594:Generated_Source\PSoC6\pdl\drivers\peripheral\sysclk/cy_sysclk.h **** #define  CY_SYSCLK_DRV_VERSION_MINOR   10
 595:Generated_Source\PSoC6\pdl\drivers\peripheral\sysclk/cy_sysclk.h **** /** Sysclk driver identifier */
 596:Generated_Source\PSoC6\pdl\drivers\peripheral\sysclk/cy_sysclk.h **** #define CY_SYSCLK_ID   CY_PDL_DRV_ID(0x12U)
 597:Generated_Source\PSoC6\pdl\drivers\peripheral\sysclk/cy_sysclk.h **** 
 598:Generated_Source\PSoC6\pdl\drivers\peripheral\sysclk/cy_sysclk.h **** /** \} group_sysclk_macros */
 599:Generated_Source\PSoC6\pdl\drivers\peripheral\sysclk/cy_sysclk.h **** 
 600:Generated_Source\PSoC6\pdl\drivers\peripheral\sysclk/cy_sysclk.h **** /**
 601:Generated_Source\PSoC6\pdl\drivers\peripheral\sysclk/cy_sysclk.h **** * \addtogroup group_sysclk_returns
 602:Generated_Source\PSoC6\pdl\drivers\peripheral\sysclk/cy_sysclk.h **** * \{
 603:Generated_Source\PSoC6\pdl\drivers\peripheral\sysclk/cy_sysclk.h **** */
 604:Generated_Source\PSoC6\pdl\drivers\peripheral\sysclk/cy_sysclk.h **** /** Defines general-purpose function return values. */
 605:Generated_Source\PSoC6\pdl\drivers\peripheral\sysclk/cy_sysclk.h **** typedef enum
 606:Generated_Source\PSoC6\pdl\drivers\peripheral\sysclk/cy_sysclk.h **** {
 607:Generated_Source\PSoC6\pdl\drivers\peripheral\sysclk/cy_sysclk.h ****     CY_SYSCLK_SUCCESS       = 0u, /**< Command completed with no errors */
 608:Generated_Source\PSoC6\pdl\drivers\peripheral\sysclk/cy_sysclk.h ****     CY_SYSCLK_BAD_PARAM     = (CY_SYSCLK_ID | CY_PDL_STATUS_ERROR | 1u), /**< Invalid function inpu
 609:Generated_Source\PSoC6\pdl\drivers\peripheral\sysclk/cy_sysclk.h ****     CY_SYSCLK_TIMEOUT       = (CY_SYSCLK_ID | CY_PDL_STATUS_ERROR | 2u), /**< Timeout occurred */
 610:Generated_Source\PSoC6\pdl\drivers\peripheral\sysclk/cy_sysclk.h ****     CY_SYSCLK_INVALID_STATE = (CY_SYSCLK_ID | CY_PDL_STATUS_ERROR | 3u)  /**< Clock is in an invali
 611:Generated_Source\PSoC6\pdl\drivers\peripheral\sysclk/cy_sysclk.h **** } cy_en_sysclk_status_t;
 612:Generated_Source\PSoC6\pdl\drivers\peripheral\sysclk/cy_sysclk.h **** /** \} group_sysclk_returns */
 613:Generated_Source\PSoC6\pdl\drivers\peripheral\sysclk/cy_sysclk.h **** 
 614:Generated_Source\PSoC6\pdl\drivers\peripheral\sysclk/cy_sysclk.h **** /** \cond INTERNAL */
 615:Generated_Source\PSoC6\pdl\drivers\peripheral\sysclk/cy_sysclk.h **** /* Generates shorter code for setting register bitfields */
 616:Generated_Source\PSoC6\pdl\drivers\peripheral\sysclk/cy_sysclk.h **** #define CY_SYSCLK_CLR_SET(reg, field, value) (reg) = _CLR_SET_FLD32U((reg), field, (value))
 617:Generated_Source\PSoC6\pdl\drivers\peripheral\sysclk/cy_sysclk.h **** /* Calculate a / b with rounding to the nearest integer. a and b must have the same sign. */
 618:Generated_Source\PSoC6\pdl\drivers\peripheral\sysclk/cy_sysclk.h **** #define CY_SYSCLK_DIV_ROUND(a, b) (((a) + ((b) / 2u)) / (b))
 619:Generated_Source\PSoC6\pdl\drivers\peripheral\sysclk/cy_sysclk.h **** /* Calculate a / b with rounding up if remainder != 0. a and b must both be positive. */
 620:Generated_Source\PSoC6\pdl\drivers\peripheral\sysclk/cy_sysclk.h **** #define CY_SYSCLK_DIV_ROUNDUP(a, b) ((((a) - 1u) / (b)) + 1u)
 621:Generated_Source\PSoC6\pdl\drivers\peripheral\sysclk/cy_sysclk.h **** /** \endcond */
 622:Generated_Source\PSoC6\pdl\drivers\peripheral\sysclk/cy_sysclk.h **** 
 623:Generated_Source\PSoC6\pdl\drivers\peripheral\sysclk/cy_sysclk.h **** 
 624:Generated_Source\PSoC6\pdl\drivers\peripheral\sysclk/cy_sysclk.h **** /* ========================================================================== */
 625:Generated_Source\PSoC6\pdl\drivers\peripheral\sysclk/cy_sysclk.h **** /* ===========================    ECO SECTION    ============================ */
ARM GAS  C:\Users\gjl\AppData\Local\Temp\cceefPQd.s 			page 54


 626:Generated_Source\PSoC6\pdl\drivers\peripheral\sysclk/cy_sysclk.h **** /* ========================================================================== */
 627:Generated_Source\PSoC6\pdl\drivers\peripheral\sysclk/cy_sysclk.h **** 
 628:Generated_Source\PSoC6\pdl\drivers\peripheral\sysclk/cy_sysclk.h **** /**
 629:Generated_Source\PSoC6\pdl\drivers\peripheral\sysclk/cy_sysclk.h **** * \addtogroup group_sysclk_macros
 630:Generated_Source\PSoC6\pdl\drivers\peripheral\sysclk/cy_sysclk.h **** * \{
 631:Generated_Source\PSoC6\pdl\drivers\peripheral\sysclk/cy_sysclk.h **** */
 632:Generated_Source\PSoC6\pdl\drivers\peripheral\sysclk/cy_sysclk.h **** 
 633:Generated_Source\PSoC6\pdl\drivers\peripheral\sysclk/cy_sysclk.h **** /**
 634:Generated_Source\PSoC6\pdl\drivers\peripheral\sysclk/cy_sysclk.h **** * \defgroup group_sysclk_ecostatus ECO status
 635:Generated_Source\PSoC6\pdl\drivers\peripheral\sysclk/cy_sysclk.h **** * \{
 636:Generated_Source\PSoC6\pdl\drivers\peripheral\sysclk/cy_sysclk.h **** * Constants used for expressing ECO status.
 637:Generated_Source\PSoC6\pdl\drivers\peripheral\sysclk/cy_sysclk.h **** */
 638:Generated_Source\PSoC6\pdl\drivers\peripheral\sysclk/cy_sysclk.h **** #define CY_SYSCLK_ECOSTAT_AMPLITUDE  0UL /**< \brief ECO does not have sufficient amplitude */
 639:Generated_Source\PSoC6\pdl\drivers\peripheral\sysclk/cy_sysclk.h **** #define CY_SYSCLK_ECOSTAT_INACCURATE 1UL /**< \brief ECO may not be meeting accuracy and duty cycle
 640:Generated_Source\PSoC6\pdl\drivers\peripheral\sysclk/cy_sysclk.h **** #define CY_SYSCLK_ECOSTAT_STABLE     2UL /**< \brief ECO has fully stabilized */
 641:Generated_Source\PSoC6\pdl\drivers\peripheral\sysclk/cy_sysclk.h **** /** \} */
 642:Generated_Source\PSoC6\pdl\drivers\peripheral\sysclk/cy_sysclk.h **** 
 643:Generated_Source\PSoC6\pdl\drivers\peripheral\sysclk/cy_sysclk.h **** /** \} group_sysclk_macros */
 644:Generated_Source\PSoC6\pdl\drivers\peripheral\sysclk/cy_sysclk.h **** 
 645:Generated_Source\PSoC6\pdl\drivers\peripheral\sysclk/cy_sysclk.h **** /**
 646:Generated_Source\PSoC6\pdl\drivers\peripheral\sysclk/cy_sysclk.h **** * \addtogroup group_sysclk_eco_funcs
 647:Generated_Source\PSoC6\pdl\drivers\peripheral\sysclk/cy_sysclk.h **** * \{
 648:Generated_Source\PSoC6\pdl\drivers\peripheral\sysclk/cy_sysclk.h **** */
 649:Generated_Source\PSoC6\pdl\drivers\peripheral\sysclk/cy_sysclk.h **** cy_en_sysclk_status_t Cy_SysClk_EcoConfigure(uint32_t freq, uint32_t cLoad, uint32_t esr, uint32_t 
 650:Generated_Source\PSoC6\pdl\drivers\peripheral\sysclk/cy_sysclk.h **** cy_en_sysclk_status_t Cy_SysClk_EcoEnable(uint32_t timeoutus);
 651:Generated_Source\PSoC6\pdl\drivers\peripheral\sysclk/cy_sysclk.h **** __STATIC_INLINE void Cy_SysClk_EcoDisable(void);
 652:Generated_Source\PSoC6\pdl\drivers\peripheral\sysclk/cy_sysclk.h **** __STATIC_INLINE uint32_t Cy_SysClk_EcoGetStatus(void);
 653:Generated_Source\PSoC6\pdl\drivers\peripheral\sysclk/cy_sysclk.h **** 
 654:Generated_Source\PSoC6\pdl\drivers\peripheral\sysclk/cy_sysclk.h **** /*******************************************************************************
 655:Generated_Source\PSoC6\pdl\drivers\peripheral\sysclk/cy_sysclk.h **** * Function Name: Cy_SysClk_EcoDisable
 656:Generated_Source\PSoC6\pdl\drivers\peripheral\sysclk/cy_sysclk.h **** ****************************************************************************//**
 657:Generated_Source\PSoC6\pdl\drivers\peripheral\sysclk/cy_sysclk.h **** *
 658:Generated_Source\PSoC6\pdl\drivers\peripheral\sysclk/cy_sysclk.h **** * Disables the external crystal oscillator (ECO). This function should not be
 659:Generated_Source\PSoC6\pdl\drivers\peripheral\sysclk/cy_sysclk.h **** * called if the ECO is sourcing clkHf[0].
 660:Generated_Source\PSoC6\pdl\drivers\peripheral\sysclk/cy_sysclk.h **** *
 661:Generated_Source\PSoC6\pdl\drivers\peripheral\sysclk/cy_sysclk.h **** * \funcusage
 662:Generated_Source\PSoC6\pdl\drivers\peripheral\sysclk/cy_sysclk.h **** * \snippet sysclk/sysclk_v1_10_sut_01.cydsn/main_cm4.c snippet_Cy_SysClk_EcoDisable
 663:Generated_Source\PSoC6\pdl\drivers\peripheral\sysclk/cy_sysclk.h **** *
 664:Generated_Source\PSoC6\pdl\drivers\peripheral\sysclk/cy_sysclk.h **** *******************************************************************************/
 665:Generated_Source\PSoC6\pdl\drivers\peripheral\sysclk/cy_sysclk.h **** __STATIC_INLINE void Cy_SysClk_EcoDisable(void)
 666:Generated_Source\PSoC6\pdl\drivers\peripheral\sysclk/cy_sysclk.h **** {
 667:Generated_Source\PSoC6\pdl\drivers\peripheral\sysclk/cy_sysclk.h ****     SRSS->CLK_ECO_CONFIG &= ~_VAL2FLD(SRSS_CLK_ECO_CONFIG_ECO_EN, 1u); /* 0 = disable */
 668:Generated_Source\PSoC6\pdl\drivers\peripheral\sysclk/cy_sysclk.h **** }
 669:Generated_Source\PSoC6\pdl\drivers\peripheral\sysclk/cy_sysclk.h **** 
 670:Generated_Source\PSoC6\pdl\drivers\peripheral\sysclk/cy_sysclk.h **** /*******************************************************************************
 671:Generated_Source\PSoC6\pdl\drivers\peripheral\sysclk/cy_sysclk.h **** * Function Name: Cy_SysClk_EcoGetStatus
 672:Generated_Source\PSoC6\pdl\drivers\peripheral\sysclk/cy_sysclk.h **** ****************************************************************************//**
 673:Generated_Source\PSoC6\pdl\drivers\peripheral\sysclk/cy_sysclk.h **** *
 674:Generated_Source\PSoC6\pdl\drivers\peripheral\sysclk/cy_sysclk.h **** * Reports the current status of the external crystal oscillator (ECO).
 675:Generated_Source\PSoC6\pdl\drivers\peripheral\sysclk/cy_sysclk.h **** *
 676:Generated_Source\PSoC6\pdl\drivers\peripheral\sysclk/cy_sysclk.h **** * \return
 677:Generated_Source\PSoC6\pdl\drivers\peripheral\sysclk/cy_sysclk.h **** * CY_SYSCLK_ECOSTAT_AMPLITUDE = ECO does not have sufficient amplitude<br>
 678:Generated_Source\PSoC6\pdl\drivers\peripheral\sysclk/cy_sysclk.h **** * CY_SYSCLK_ECOSTAT_INACCURATE = ECO has sufficient amplitude but may not be meeting accuracy and d
 679:Generated_Source\PSoC6\pdl\drivers\peripheral\sysclk/cy_sysclk.h **** * CY_SYSCLK_ECOSTAT_STABLE = ECO has fully stabilized
 680:Generated_Source\PSoC6\pdl\drivers\peripheral\sysclk/cy_sysclk.h **** *
 681:Generated_Source\PSoC6\pdl\drivers\peripheral\sysclk/cy_sysclk.h **** * \funcusage
 682:Generated_Source\PSoC6\pdl\drivers\peripheral\sysclk/cy_sysclk.h **** * \snippet sysclk/sysclk_v1_10_sut_01.cydsn/main_cm4.c snippet_Cy_SysClk_EcoGetStatus
ARM GAS  C:\Users\gjl\AppData\Local\Temp\cceefPQd.s 			page 55


 683:Generated_Source\PSoC6\pdl\drivers\peripheral\sysclk/cy_sysclk.h **** *
 684:Generated_Source\PSoC6\pdl\drivers\peripheral\sysclk/cy_sysclk.h **** *******************************************************************************/
 685:Generated_Source\PSoC6\pdl\drivers\peripheral\sysclk/cy_sysclk.h **** __STATIC_INLINE uint32_t Cy_SysClk_EcoGetStatus(void)
 686:Generated_Source\PSoC6\pdl\drivers\peripheral\sysclk/cy_sysclk.h **** {
 687:Generated_Source\PSoC6\pdl\drivers\peripheral\sysclk/cy_sysclk.h ****     uint32_t retval = (SRSS->CLK_ECO_STATUS & 3ul); /* bit 0 = ECO_OK, bit 1 = ECO_READY */
 688:Generated_Source\PSoC6\pdl\drivers\peripheral\sysclk/cy_sysclk.h ****     /* if ECO is not ready, just report the ECO_OK bit. Otherwise report 2 = ECO ready */
 689:Generated_Source\PSoC6\pdl\drivers\peripheral\sysclk/cy_sysclk.h ****     return (((retval & 2ul) == 0) ? retval : 2ul);
 690:Generated_Source\PSoC6\pdl\drivers\peripheral\sysclk/cy_sysclk.h **** }
 691:Generated_Source\PSoC6\pdl\drivers\peripheral\sysclk/cy_sysclk.h **** /** \} group_sysclk_eco_funcs */
 692:Generated_Source\PSoC6\pdl\drivers\peripheral\sysclk/cy_sysclk.h **** 
 693:Generated_Source\PSoC6\pdl\drivers\peripheral\sysclk/cy_sysclk.h **** 
 694:Generated_Source\PSoC6\pdl\drivers\peripheral\sysclk/cy_sysclk.h **** /* ========================================================================== */
 695:Generated_Source\PSoC6\pdl\drivers\peripheral\sysclk/cy_sysclk.h **** /* ====================    INPUT MULTIPLEXER SECTION    ===================== */
 696:Generated_Source\PSoC6\pdl\drivers\peripheral\sysclk/cy_sysclk.h **** /* ========================================================================== */
 697:Generated_Source\PSoC6\pdl\drivers\peripheral\sysclk/cy_sysclk.h **** /**
 698:Generated_Source\PSoC6\pdl\drivers\peripheral\sysclk/cy_sysclk.h **** * \addtogroup group_sysclk_path_src_enums
 699:Generated_Source\PSoC6\pdl\drivers\peripheral\sysclk/cy_sysclk.h **** * \{
 700:Generated_Source\PSoC6\pdl\drivers\peripheral\sysclk/cy_sysclk.h **** */
 701:Generated_Source\PSoC6\pdl\drivers\peripheral\sysclk/cy_sysclk.h **** /**
 702:Generated_Source\PSoC6\pdl\drivers\peripheral\sysclk/cy_sysclk.h **** *   Input multiplexer clock sources
 703:Generated_Source\PSoC6\pdl\drivers\peripheral\sysclk/cy_sysclk.h **** */
 704:Generated_Source\PSoC6\pdl\drivers\peripheral\sysclk/cy_sysclk.h **** typedef enum
 705:Generated_Source\PSoC6\pdl\drivers\peripheral\sysclk/cy_sysclk.h **** {
 706:Generated_Source\PSoC6\pdl\drivers\peripheral\sysclk/cy_sysclk.h ****     CY_SYSCLK_CLKPATH_IN_IMO    =     0u, /**< Select the IMO as the output of the path mux */
 707:Generated_Source\PSoC6\pdl\drivers\peripheral\sysclk/cy_sysclk.h ****     CY_SYSCLK_CLKPATH_IN_EXT    =     1u, /**< Select the EXT as the output of the path mux */
 708:Generated_Source\PSoC6\pdl\drivers\peripheral\sysclk/cy_sysclk.h ****     CY_SYSCLK_CLKPATH_IN_ECO    =     2u, /**< Select the ECO as the output of the path mux */
 709:Generated_Source\PSoC6\pdl\drivers\peripheral\sysclk/cy_sysclk.h ****     CY_SYSCLK_CLKPATH_IN_ALTHF  =     3u, /**< Select the ALTHF as the output of the path mux */
 710:Generated_Source\PSoC6\pdl\drivers\peripheral\sysclk/cy_sysclk.h ****     CY_SYSCLK_CLKPATH_IN_DSIMUX =     4u, /**< Select the DSI MUX output as the output of the path 
 711:Generated_Source\PSoC6\pdl\drivers\peripheral\sysclk/cy_sysclk.h ****     CY_SYSCLK_CLKPATH_IN_DSI    = 0x100u, /**< Select a DSI signal (0 - 15) as the output of the DS
 712:Generated_Source\PSoC6\pdl\drivers\peripheral\sysclk/cy_sysclk.h ****     CY_SYSCLK_CLKPATH_IN_ILO    = 0x110u, /**< Select the ILO (16) as the output of the DSI mux and
 713:Generated_Source\PSoC6\pdl\drivers\peripheral\sysclk/cy_sysclk.h ****     CY_SYSCLK_CLKPATH_IN_WCO    = 0x111u, /**< Select the WCO (17) as the output of the DSI mux and
 714:Generated_Source\PSoC6\pdl\drivers\peripheral\sysclk/cy_sysclk.h ****     CY_SYSCLK_CLKPATH_IN_ALTLF  = 0x112u, /**< Select the ALTLF (18) as the output of the DSI mux a
 715:Generated_Source\PSoC6\pdl\drivers\peripheral\sysclk/cy_sysclk.h ****     CY_SYSCLK_CLKPATH_IN_PILO   = 0x113u  /**< Select the PILO (19) as the output of the DSI mux an
 716:Generated_Source\PSoC6\pdl\drivers\peripheral\sysclk/cy_sysclk.h **** } cy_en_clkpath_in_sources_t;
 717:Generated_Source\PSoC6\pdl\drivers\peripheral\sysclk/cy_sysclk.h **** /** \} group_sysclk_path_src_enums */
 718:Generated_Source\PSoC6\pdl\drivers\peripheral\sysclk/cy_sysclk.h **** 
 719:Generated_Source\PSoC6\pdl\drivers\peripheral\sysclk/cy_sysclk.h **** /**
 720:Generated_Source\PSoC6\pdl\drivers\peripheral\sysclk/cy_sysclk.h **** * \addtogroup group_sysclk_path_src_funcs
 721:Generated_Source\PSoC6\pdl\drivers\peripheral\sysclk/cy_sysclk.h **** * \{
 722:Generated_Source\PSoC6\pdl\drivers\peripheral\sysclk/cy_sysclk.h **** */
 723:Generated_Source\PSoC6\pdl\drivers\peripheral\sysclk/cy_sysclk.h **** cy_en_sysclk_status_t Cy_SysClk_ClkPathSetSource(uint32_t clkPath, cy_en_clkpath_in_sources_t sourc
 724:Generated_Source\PSoC6\pdl\drivers\peripheral\sysclk/cy_sysclk.h **** cy_en_clkpath_in_sources_t Cy_SysClk_ClkPathGetSource(uint32_t clkPath);
 725:Generated_Source\PSoC6\pdl\drivers\peripheral\sysclk/cy_sysclk.h **** /** \} group_sysclk_path_src_funcs */
 726:Generated_Source\PSoC6\pdl\drivers\peripheral\sysclk/cy_sysclk.h **** 
 727:Generated_Source\PSoC6\pdl\drivers\peripheral\sysclk/cy_sysclk.h **** 
 728:Generated_Source\PSoC6\pdl\drivers\peripheral\sysclk/cy_sysclk.h **** /* ========================================================================== */
 729:Generated_Source\PSoC6\pdl\drivers\peripheral\sysclk/cy_sysclk.h **** /* ===========================    FLL SECTION    ============================ */
 730:Generated_Source\PSoC6\pdl\drivers\peripheral\sysclk/cy_sysclk.h **** /* ========================================================================== */
 731:Generated_Source\PSoC6\pdl\drivers\peripheral\sysclk/cy_sysclk.h **** /**
 732:Generated_Source\PSoC6\pdl\drivers\peripheral\sysclk/cy_sysclk.h **** * \addtogroup group_sysclk_fll_enums
 733:Generated_Source\PSoC6\pdl\drivers\peripheral\sysclk/cy_sysclk.h **** * \{
 734:Generated_Source\PSoC6\pdl\drivers\peripheral\sysclk/cy_sysclk.h **** */
 735:Generated_Source\PSoC6\pdl\drivers\peripheral\sysclk/cy_sysclk.h **** /** FLL and PLL output mode.
 736:Generated_Source\PSoC6\pdl\drivers\peripheral\sysclk/cy_sysclk.h **** * See registers CLK_FLL_CONFIG3 and CLK_PLL_CONFIG0, bits BYPASS_SEL.
 737:Generated_Source\PSoC6\pdl\drivers\peripheral\sysclk/cy_sysclk.h **** */
 738:Generated_Source\PSoC6\pdl\drivers\peripheral\sysclk/cy_sysclk.h **** typedef enum
 739:Generated_Source\PSoC6\pdl\drivers\peripheral\sysclk/cy_sysclk.h **** {
ARM GAS  C:\Users\gjl\AppData\Local\Temp\cceefPQd.s 			page 56


 740:Generated_Source\PSoC6\pdl\drivers\peripheral\sysclk/cy_sysclk.h ****     CY_SYSCLK_FLLPLL_OUTPUT_AUTO   = 0u, /**< Output FLL/PLL input source when not locked, and FLL/
 741:Generated_Source\PSoC6\pdl\drivers\peripheral\sysclk/cy_sysclk.h ****     CY_SYSCLK_FLLPLL_OUTPUT_AUTO1  = 1u, /**< Same as AUTO */
 742:Generated_Source\PSoC6\pdl\drivers\peripheral\sysclk/cy_sysclk.h ****     CY_SYSCLK_FLLPLL_OUTPUT_INPUT  = 2u, /**< Output FLL/PLL input source regardless of lock status
 743:Generated_Source\PSoC6\pdl\drivers\peripheral\sysclk/cy_sysclk.h ****     CY_SYSCLK_FLLPLL_OUTPUT_OUTPUT = 3u  /**< Output FLL/PLL output regardless of lock status. This
 744:Generated_Source\PSoC6\pdl\drivers\peripheral\sysclk/cy_sysclk.h **** } cy_en_fll_pll_output_mode_t;
 745:Generated_Source\PSoC6\pdl\drivers\peripheral\sysclk/cy_sysclk.h **** 
 746:Generated_Source\PSoC6\pdl\drivers\peripheral\sysclk/cy_sysclk.h **** /** FLL current-controlled oscillator (CCO) frequency ranges.
 747:Generated_Source\PSoC6\pdl\drivers\peripheral\sysclk/cy_sysclk.h **** * See register CLK_FLL_CONFIG4, bits CCO_RANGE.
 748:Generated_Source\PSoC6\pdl\drivers\peripheral\sysclk/cy_sysclk.h **** */
 749:Generated_Source\PSoC6\pdl\drivers\peripheral\sysclk/cy_sysclk.h **** typedef enum
 750:Generated_Source\PSoC6\pdl\drivers\peripheral\sysclk/cy_sysclk.h **** {
 751:Generated_Source\PSoC6\pdl\drivers\peripheral\sysclk/cy_sysclk.h ****     CY_SYSCLK_FLL_CCO_RANGE0, /**< Target frequency is in range  48 -  64 MHz. */
 752:Generated_Source\PSoC6\pdl\drivers\peripheral\sysclk/cy_sysclk.h ****     CY_SYSCLK_FLL_CCO_RANGE1, /**< Target frequency is in range  64 -  85 MHz. */
 753:Generated_Source\PSoC6\pdl\drivers\peripheral\sysclk/cy_sysclk.h ****     CY_SYSCLK_FLL_CCO_RANGE2, /**< Target frequency is in range  85 - 113 MHz. */
 754:Generated_Source\PSoC6\pdl\drivers\peripheral\sysclk/cy_sysclk.h ****     CY_SYSCLK_FLL_CCO_RANGE3, /**< Target frequency is in range 113 - 150 MHz. */
 755:Generated_Source\PSoC6\pdl\drivers\peripheral\sysclk/cy_sysclk.h ****     CY_SYSCLK_FLL_CCO_RANGE4  /**< Target frequency is in range 150 - 200 MHz. */
 756:Generated_Source\PSoC6\pdl\drivers\peripheral\sysclk/cy_sysclk.h **** } cy_en_fll_cco_ranges_t;
 757:Generated_Source\PSoC6\pdl\drivers\peripheral\sysclk/cy_sysclk.h **** /** \} group_sysclk_fll_enums */
 758:Generated_Source\PSoC6\pdl\drivers\peripheral\sysclk/cy_sysclk.h **** 
 759:Generated_Source\PSoC6\pdl\drivers\peripheral\sysclk/cy_sysclk.h **** /**
 760:Generated_Source\PSoC6\pdl\drivers\peripheral\sysclk/cy_sysclk.h **** * \addtogroup group_sysclk_fll_structs
 761:Generated_Source\PSoC6\pdl\drivers\peripheral\sysclk/cy_sysclk.h **** * \{
 762:Generated_Source\PSoC6\pdl\drivers\peripheral\sysclk/cy_sysclk.h **** */
 763:Generated_Source\PSoC6\pdl\drivers\peripheral\sysclk/cy_sysclk.h **** /** Structure containing information for manual configuration of FLL.
 764:Generated_Source\PSoC6\pdl\drivers\peripheral\sysclk/cy_sysclk.h **** */
 765:Generated_Source\PSoC6\pdl\drivers\peripheral\sysclk/cy_sysclk.h **** typedef struct
 766:Generated_Source\PSoC6\pdl\drivers\peripheral\sysclk/cy_sysclk.h **** {
 767:Generated_Source\PSoC6\pdl\drivers\peripheral\sysclk/cy_sysclk.h ****     uint32_t                    fllMult;         /**< CLK_FLL_CONFIG  register, FLL_MULT bits */
 768:Generated_Source\PSoC6\pdl\drivers\peripheral\sysclk/cy_sysclk.h ****     uint16_t                    refDiv;          /**< CLK_FLL_CONFIG2 register, FLL_REF_DIV bits */
 769:Generated_Source\PSoC6\pdl\drivers\peripheral\sysclk/cy_sysclk.h ****     cy_en_fll_cco_ranges_t      ccoRange;        /**< CLK_FLL_CONFIG4 register, CCO_RANGE bits */
 770:Generated_Source\PSoC6\pdl\drivers\peripheral\sysclk/cy_sysclk.h ****     bool                        enableOutputDiv; /**< CLK_FLL_CONFIG  register, FLL_OUTPUT_DIV bit 
 771:Generated_Source\PSoC6\pdl\drivers\peripheral\sysclk/cy_sysclk.h ****     uint16_t                    lockTolerance;   /**< CLK_FLL_CONFIG2 register, LOCK_TOL bits */
 772:Generated_Source\PSoC6\pdl\drivers\peripheral\sysclk/cy_sysclk.h ****     uint8_t                     igain;           /**< CLK_FLL_CONFIG3 register, FLL_LF_IGAIN bits *
 773:Generated_Source\PSoC6\pdl\drivers\peripheral\sysclk/cy_sysclk.h ****     uint8_t                     pgain;           /**< CLK_FLL_CONFIG3 register, FLL_LF_PGAIN bits *
 774:Generated_Source\PSoC6\pdl\drivers\peripheral\sysclk/cy_sysclk.h ****     uint16_t                    settlingCount;   /**< CLK_FLL_CONFIG3 register, SETTLING_COUNT bits
 775:Generated_Source\PSoC6\pdl\drivers\peripheral\sysclk/cy_sysclk.h ****     cy_en_fll_pll_output_mode_t outputMode;      /**< CLK_FLL_CONFIG3 register, BYPASS_SEL bits */
 776:Generated_Source\PSoC6\pdl\drivers\peripheral\sysclk/cy_sysclk.h ****     uint16_t                    cco_Freq;        /**< CLK_FLL_CONFIG4 register, CCO_FREQ bits */
 777:Generated_Source\PSoC6\pdl\drivers\peripheral\sysclk/cy_sysclk.h **** } cy_stc_fll_manual_config_t;
 778:Generated_Source\PSoC6\pdl\drivers\peripheral\sysclk/cy_sysclk.h **** /** \} group_sysclk_fll_structs */
 779:Generated_Source\PSoC6\pdl\drivers\peripheral\sysclk/cy_sysclk.h **** 
 780:Generated_Source\PSoC6\pdl\drivers\peripheral\sysclk/cy_sysclk.h **** /**
 781:Generated_Source\PSoC6\pdl\drivers\peripheral\sysclk/cy_sysclk.h **** * \addtogroup group_sysclk_fll_funcs
 782:Generated_Source\PSoC6\pdl\drivers\peripheral\sysclk/cy_sysclk.h **** * \{
 783:Generated_Source\PSoC6\pdl\drivers\peripheral\sysclk/cy_sysclk.h **** */
 784:Generated_Source\PSoC6\pdl\drivers\peripheral\sysclk/cy_sysclk.h **** cy_en_sysclk_status_t Cy_SysClk_FllConfigure(uint32_t inputFreq, uint32_t outputFreq, cy_en_fll_pll
 785:Generated_Source\PSoC6\pdl\drivers\peripheral\sysclk/cy_sysclk.h **** cy_en_sysclk_status_t Cy_SysClk_FllManualConfigure(const cy_stc_fll_manual_config_t *config);
 786:Generated_Source\PSoC6\pdl\drivers\peripheral\sysclk/cy_sysclk.h **** void Cy_SysClk_FllGetConfiguration(cy_stc_fll_manual_config_t *config);
 787:Generated_Source\PSoC6\pdl\drivers\peripheral\sysclk/cy_sysclk.h **** cy_en_sysclk_status_t Cy_SysClk_FllEnable(uint32_t timeoutus);
 788:Generated_Source\PSoC6\pdl\drivers\peripheral\sysclk/cy_sysclk.h **** __STATIC_INLINE bool Cy_SysClk_FllLocked(void);
 789:Generated_Source\PSoC6\pdl\drivers\peripheral\sysclk/cy_sysclk.h **** #if (CY_IP_MXS40SRSS_VERSION != 1) || defined(CY_DOXYGEN)
 790:Generated_Source\PSoC6\pdl\drivers\peripheral\sysclk/cy_sysclk.h **** __STATIC_INLINE bool Cy_SysClk_FllLostLock(void);
 791:Generated_Source\PSoC6\pdl\drivers\peripheral\sysclk/cy_sysclk.h **** #endif
 792:Generated_Source\PSoC6\pdl\drivers\peripheral\sysclk/cy_sysclk.h **** __STATIC_INLINE cy_en_sysclk_status_t Cy_SysClk_FllDisable(void);
 793:Generated_Source\PSoC6\pdl\drivers\peripheral\sysclk/cy_sysclk.h **** 
 794:Generated_Source\PSoC6\pdl\drivers\peripheral\sysclk/cy_sysclk.h **** /*******************************************************************************
 795:Generated_Source\PSoC6\pdl\drivers\peripheral\sysclk/cy_sysclk.h **** * Function Name: Cy_SysClk_FllLocked
 796:Generated_Source\PSoC6\pdl\drivers\peripheral\sysclk/cy_sysclk.h **** ****************************************************************************//**
ARM GAS  C:\Users\gjl\AppData\Local\Temp\cceefPQd.s 			page 57


 797:Generated_Source\PSoC6\pdl\drivers\peripheral\sysclk/cy_sysclk.h **** *
 798:Generated_Source\PSoC6\pdl\drivers\peripheral\sysclk/cy_sysclk.h **** * Reports whether or not the FLL is locked.
 799:Generated_Source\PSoC6\pdl\drivers\peripheral\sysclk/cy_sysclk.h **** *
 800:Generated_Source\PSoC6\pdl\drivers\peripheral\sysclk/cy_sysclk.h **** * \return 
 801:Generated_Source\PSoC6\pdl\drivers\peripheral\sysclk/cy_sysclk.h **** * false = not locked<br>
 802:Generated_Source\PSoC6\pdl\drivers\peripheral\sysclk/cy_sysclk.h **** * true = locked
 803:Generated_Source\PSoC6\pdl\drivers\peripheral\sysclk/cy_sysclk.h **** *
 804:Generated_Source\PSoC6\pdl\drivers\peripheral\sysclk/cy_sysclk.h **** * \funcusage
 805:Generated_Source\PSoC6\pdl\drivers\peripheral\sysclk/cy_sysclk.h **** * \snippet sysclk/sysclk_v1_10_sut_01.cydsn/main_cm4.c snippet_Cy_SysClk_FllLocked
 806:Generated_Source\PSoC6\pdl\drivers\peripheral\sysclk/cy_sysclk.h **** *
 807:Generated_Source\PSoC6\pdl\drivers\peripheral\sysclk/cy_sysclk.h **** *******************************************************************************/
 808:Generated_Source\PSoC6\pdl\drivers\peripheral\sysclk/cy_sysclk.h **** __STATIC_INLINE bool Cy_SysClk_FllLocked(void)
 809:Generated_Source\PSoC6\pdl\drivers\peripheral\sysclk/cy_sysclk.h **** {
 810:Generated_Source\PSoC6\pdl\drivers\peripheral\sysclk/cy_sysclk.h ****     return (bool)(_FLD2VAL(SRSS_CLK_FLL_STATUS_LOCKED, SRSS->CLK_FLL_STATUS));
 811:Generated_Source\PSoC6\pdl\drivers\peripheral\sysclk/cy_sysclk.h **** }
 812:Generated_Source\PSoC6\pdl\drivers\peripheral\sysclk/cy_sysclk.h **** 
 813:Generated_Source\PSoC6\pdl\drivers\peripheral\sysclk/cy_sysclk.h **** #if (CY_IP_MXS40SRSS_VERSION != 1) || defined(CY_DOXYGEN)
 814:Generated_Source\PSoC6\pdl\drivers\peripheral\sysclk/cy_sysclk.h **** /*******************************************************************************
 815:Generated_Source\PSoC6\pdl\drivers\peripheral\sysclk/cy_sysclk.h **** * Function Name: Cy_SysClk_FllLostLock
 816:Generated_Source\PSoC6\pdl\drivers\peripheral\sysclk/cy_sysclk.h **** ****************************************************************************//**
 817:Generated_Source\PSoC6\pdl\drivers\peripheral\sysclk/cy_sysclk.h **** *
 818:Generated_Source\PSoC6\pdl\drivers\peripheral\sysclk/cy_sysclk.h **** * Reports whether or not the FLL lost its lock since the last time this function
 819:Generated_Source\PSoC6\pdl\drivers\peripheral\sysclk/cy_sysclk.h **** * was called. Clears the lost lock indicator.
 820:Generated_Source\PSoC6\pdl\drivers\peripheral\sysclk/cy_sysclk.h **** *
 821:Generated_Source\PSoC6\pdl\drivers\peripheral\sysclk/cy_sysclk.h **** * \return 
 822:Generated_Source\PSoC6\pdl\drivers\peripheral\sysclk/cy_sysclk.h **** * false = did not lose lock<br>
 823:Generated_Source\PSoC6\pdl\drivers\peripheral\sysclk/cy_sysclk.h **** * true = lost lock
 824:Generated_Source\PSoC6\pdl\drivers\peripheral\sysclk/cy_sysclk.h **** *
 825:Generated_Source\PSoC6\pdl\drivers\peripheral\sysclk/cy_sysclk.h **** * \funcusage
 826:Generated_Source\PSoC6\pdl\drivers\peripheral\sysclk/cy_sysclk.h **** * \snippet sysclk/sysclk_v1_10_sut_01.cydsn/main_cm4.c snippet_Cy_SysClk_FllLostLock
 827:Generated_Source\PSoC6\pdl\drivers\peripheral\sysclk/cy_sysclk.h **** *
 828:Generated_Source\PSoC6\pdl\drivers\peripheral\sysclk/cy_sysclk.h **** *******************************************************************************/
 829:Generated_Source\PSoC6\pdl\drivers\peripheral\sysclk/cy_sysclk.h **** __STATIC_INLINE bool Cy_SysClk_FllLostLock(void)
 830:Generated_Source\PSoC6\pdl\drivers\peripheral\sysclk/cy_sysclk.h **** {
 831:Generated_Source\PSoC6\pdl\drivers\peripheral\sysclk/cy_sysclk.h ****     uint32_t retval = _FLD2VAL(SRSS_CLK_FLL_STATUS_UNLOCK_OCCURRED, SRSS->CLK_FLL_STATUS);
 832:Generated_Source\PSoC6\pdl\drivers\peripheral\sysclk/cy_sysclk.h ****     /* write a 1 to clear the unlock occurred bit */
 833:Generated_Source\PSoC6\pdl\drivers\peripheral\sysclk/cy_sysclk.h ****     SRSS->CLK_FLL_STATUS = _VAL2FLD(SRSS_CLK_FLL_STATUS_UNLOCK_OCCURRED, 1u);
 834:Generated_Source\PSoC6\pdl\drivers\peripheral\sysclk/cy_sysclk.h ****     return ((bool)retval);
 835:Generated_Source\PSoC6\pdl\drivers\peripheral\sysclk/cy_sysclk.h **** }
 836:Generated_Source\PSoC6\pdl\drivers\peripheral\sysclk/cy_sysclk.h **** #endif
 837:Generated_Source\PSoC6\pdl\drivers\peripheral\sysclk/cy_sysclk.h **** 
 838:Generated_Source\PSoC6\pdl\drivers\peripheral\sysclk/cy_sysclk.h **** /*******************************************************************************
 839:Generated_Source\PSoC6\pdl\drivers\peripheral\sysclk/cy_sysclk.h **** * Function Name: Cy_SysClk_FllDisable
 840:Generated_Source\PSoC6\pdl\drivers\peripheral\sysclk/cy_sysclk.h **** ****************************************************************************//**
 841:Generated_Source\PSoC6\pdl\drivers\peripheral\sysclk/cy_sysclk.h **** *
 842:Generated_Source\PSoC6\pdl\drivers\peripheral\sysclk/cy_sysclk.h **** * Disables the FLL and the CCO.
 843:Generated_Source\PSoC6\pdl\drivers\peripheral\sysclk/cy_sysclk.h **** *
 844:Generated_Source\PSoC6\pdl\drivers\peripheral\sysclk/cy_sysclk.h **** * \return \ref cy_en_sysclk_status_t
 845:Generated_Source\PSoC6\pdl\drivers\peripheral\sysclk/cy_sysclk.h **** *
 846:Generated_Source\PSoC6\pdl\drivers\peripheral\sysclk/cy_sysclk.h **** * \funcusage
