ARM GAS  C:\Users\gjl\AppData\Local\Temp\ccXC41gm.s 			page 1


   1              		.syntax unified
   2              		.cpu cortex-m0plus
   3              		.fpu softvfp
   4              		.eabi_attribute 20, 1
   5              		.eabi_attribute 21, 1
   6              		.eabi_attribute 23, 3
   7              		.eabi_attribute 24, 1
   8              		.eabi_attribute 25, 1
   9              		.eabi_attribute 26, 1
  10              		.eabi_attribute 30, 1
  11              		.eabi_attribute 34, 0
  12              		.eabi_attribute 18, 4
  13              		.thumb
  14              		.syntax unified
  15              		.file	"cy_ble.c"
  16              		.text
  17              	.Ltext0:
  18              		.cfi_sections	.debug_frame
  19              		.section	.text.Cy_BLE_DeepSleepCallback,"ax",%progbits
  20              		.align	2
  21              		.global	Cy_BLE_DeepSleepCallback
  22              		.code	16
  23              		.thumb_func
  24              		.type	Cy_BLE_DeepSleepCallback, %function
  25              	Cy_BLE_DeepSleepCallback:
  26              	.LFB190:
  27              		.file 1 "Generated_Source\\PSoC6\\pdl\\middleware\\ble\\cy_ble.c"
   1:Generated_Source\PSoC6\pdl\middleware\ble/cy_ble.c **** /***************************************************************************//**
   2:Generated_Source\PSoC6\pdl\middleware\ble/cy_ble.c **** * \file cy_ble.c
   3:Generated_Source\PSoC6\pdl\middleware\ble/cy_ble.c **** * \version 2.0
   4:Generated_Source\PSoC6\pdl\middleware\ble/cy_ble.c **** *
   5:Generated_Source\PSoC6\pdl\middleware\ble/cy_ble.c **** * \brief
   6:Generated_Source\PSoC6\pdl\middleware\ble/cy_ble.c **** *  This file contains the source code for the API of the BLE Middleware.
   7:Generated_Source\PSoC6\pdl\middleware\ble/cy_ble.c **** *
   8:Generated_Source\PSoC6\pdl\middleware\ble/cy_ble.c **** ********************************************************************************
   9:Generated_Source\PSoC6\pdl\middleware\ble/cy_ble.c **** * \copyright
  10:Generated_Source\PSoC6\pdl\middleware\ble/cy_ble.c **** * Copyright 2017-2018, Cypress Semiconductor Corporation.  All rights reserved.
  11:Generated_Source\PSoC6\pdl\middleware\ble/cy_ble.c **** * You may use this file only in accordance with the license, terms, conditions,
  12:Generated_Source\PSoC6\pdl\middleware\ble/cy_ble.c **** * disclaimers, and limitations in the end user license agreement accompanying
  13:Generated_Source\PSoC6\pdl\middleware\ble/cy_ble.c **** * the software package with which this file was provided.
  14:Generated_Source\PSoC6\pdl\middleware\ble/cy_ble.c **** *******************************************************************************/
  15:Generated_Source\PSoC6\pdl\middleware\ble/cy_ble.c **** 
  16:Generated_Source\PSoC6\pdl\middleware\ble/cy_ble.c **** #include "cy_ble_event_handler.h"
  17:Generated_Source\PSoC6\pdl\middleware\ble/cy_ble.c **** #include "cy_ble_hal_pvt.h"
  18:Generated_Source\PSoC6\pdl\middleware\ble/cy_ble.c **** #include "cy_ipc_config.h"
  19:Generated_Source\PSoC6\pdl\middleware\ble/cy_ble.c **** #include "ipc/cy_ipc_sema.h"
  20:Generated_Source\PSoC6\pdl\middleware\ble/cy_ble.c **** #include <stdlib.h>
  21:Generated_Source\PSoC6\pdl\middleware\ble/cy_ble.c **** 
  22:Generated_Source\PSoC6\pdl\middleware\ble/cy_ble.c **** /* C binding of definitions if building with C++ compiler */
  23:Generated_Source\PSoC6\pdl\middleware\ble/cy_ble.c **** #ifdef __cplusplus
  24:Generated_Source\PSoC6\pdl\middleware\ble/cy_ble.c **** extern "C" {
  25:Generated_Source\PSoC6\pdl\middleware\ble/cy_ble.c **** #endif /* __cplusplus */
  26:Generated_Source\PSoC6\pdl\middleware\ble/cy_ble.c **** 
  27:Generated_Source\PSoC6\pdl\middleware\ble/cy_ble.c **** #if (CY_BLE_HOST_CONTR_CORE)
  28:Generated_Source\PSoC6\pdl\middleware\ble/cy_ble.c **** 
  29:Generated_Source\PSoC6\pdl\middleware\ble/cy_ble.c **** /***************************************
  30:Generated_Source\PSoC6\pdl\middleware\ble/cy_ble.c **** * Global Variables
ARM GAS  C:\Users\gjl\AppData\Local\Temp\ccXC41gm.s 			page 2


  31:Generated_Source\PSoC6\pdl\middleware\ble/cy_ble.c **** ***************************************/
  32:Generated_Source\PSoC6\pdl\middleware\ble/cy_ble.c **** 
  33:Generated_Source\PSoC6\pdl\middleware\ble/cy_ble.c **** /* Allocate RAM memory for the stack. This buffer can be reused by the application when
  34:Generated_Source\PSoC6\pdl\middleware\ble/cy_ble.c ****  * the BLE Middleware is stopped. For the export mode, the buffer is allocated in a heap.
  35:Generated_Source\PSoC6\pdl\middleware\ble/cy_ble.c ****  */
  36:Generated_Source\PSoC6\pdl\middleware\ble/cy_ble.c **** #if (CY_BLE_SHARING_MODE_EXPORT)
  37:Generated_Source\PSoC6\pdl\middleware\ble/cy_ble.c **** uint8_t *cy_ble_stackMemoryRam = NULL;
  38:Generated_Source\PSoC6\pdl\middleware\ble/cy_ble.c **** #else
  39:Generated_Source\PSoC6\pdl\middleware\ble/cy_ble.c **** CY_ALIGN(sizeof(uint32_t)) CY_NOINIT uint8_t cy_ble_stackMemoryRam[CY_BLE_STACK_RAM_SIZE];
  40:Generated_Source\PSoC6\pdl\middleware\ble/cy_ble.c **** #endif  /* CY_BLE_SHARING_MODE_EXPORT */
  41:Generated_Source\PSoC6\pdl\middleware\ble/cy_ble.c **** 
  42:Generated_Source\PSoC6\pdl\middleware\ble/cy_ble.c **** #if (CY_BLE_MODE_PROFILE)
  43:Generated_Source\PSoC6\pdl\middleware\ble/cy_ble.c **** /** An application layer event callback function to receive service events from the BLE Middleware.
  44:Generated_Source\PSoC6\pdl\middleware\ble/cy_ble.c **** cy_ble_callback_t Cy_BLE_ApplCallback;
  45:Generated_Source\PSoC6\pdl\middleware\ble/cy_ble.c ****     
  46:Generated_Source\PSoC6\pdl\middleware\ble/cy_ble.c **** /* BLE application IPC notification handler */
  47:Generated_Source\PSoC6\pdl\middleware\ble/cy_ble.c **** cy_ble_app_notify_callback_t Cy_BLE_HostRegisteredCallback;     
  48:Generated_Source\PSoC6\pdl\middleware\ble/cy_ble.c **** #endif  /* (CY_BLE_MODE_PROFILE) */
  49:Generated_Source\PSoC6\pdl\middleware\ble/cy_ble.c **** 
  50:Generated_Source\PSoC6\pdl\middleware\ble/cy_ble.c **** #if(CY_BLE_SHARING_MODE != CY_BLE_SHARING_IMPORT)
  51:Generated_Source\PSoC6\pdl\middleware\ble/cy_ble.c **** /** Pointer to the global BLE Config structures */
  52:Generated_Source\PSoC6\pdl\middleware\ble/cy_ble.c **** cy_stc_ble_config_t *cy_ble_configPtr = NULL;
  53:Generated_Source\PSoC6\pdl\middleware\ble/cy_ble.c **** #endif /* CY_BLE_SHARING_MODE != CY_BLE_SHARING_IMPORT */
  54:Generated_Source\PSoC6\pdl\middleware\ble/cy_ble.c **** 
  55:Generated_Source\PSoC6\pdl\middleware\ble/cy_ble.c **** #if (CY_BLE_USE_DEEP_SLEEP != 0u)
  56:Generated_Source\PSoC6\pdl\middleware\ble/cy_ble.c ****   /* Structure with the syspm callback parameters for BLE deep-sleep */
  57:Generated_Source\PSoC6\pdl\middleware\ble/cy_ble.c ****   static cy_stc_syspm_callback_params_t bleDeepSleepCallbackParams = { .base = NULL};
  58:Generated_Source\PSoC6\pdl\middleware\ble/cy_ble.c ****   static cy_stc_syspm_callback_t bleDeepSleepCallback =
  59:Generated_Source\PSoC6\pdl\middleware\ble/cy_ble.c ****   {
  60:Generated_Source\PSoC6\pdl\middleware\ble/cy_ble.c ****     .callback = &Cy_BLE_DeepSleepCallback,
  61:Generated_Source\PSoC6\pdl\middleware\ble/cy_ble.c ****     .type = CY_SYSPM_DEEPSLEEP,
  62:Generated_Source\PSoC6\pdl\middleware\ble/cy_ble.c ****     .skipMode = CY_SYSPM_SKIP_BEFORE_TRANSITION | CY_SYSPM_SKIP_CHECK_FAIL,
  63:Generated_Source\PSoC6\pdl\middleware\ble/cy_ble.c ****     .callbackParams = &bleDeepSleepCallbackParams
  64:Generated_Source\PSoC6\pdl\middleware\ble/cy_ble.c ****   };
  65:Generated_Source\PSoC6\pdl\middleware\ble/cy_ble.c **** 
  66:Generated_Source\PSoC6\pdl\middleware\ble/cy_ble.c ****   /* Structure with the syspm callback parameters for BLE sleep */
  67:Generated_Source\PSoC6\pdl\middleware\ble/cy_ble.c **** #if(CY_BLE_STACK_MODE_HOST_IPC)
  68:Generated_Source\PSoC6\pdl\middleware\ble/cy_ble.c ****   static cy_stc_syspm_callback_params_t bleSleepCallbackParams = { .base = NULL};
  69:Generated_Source\PSoC6\pdl\middleware\ble/cy_ble.c ****   static cy_stc_syspm_callback_t bleSleepCallback =
  70:Generated_Source\PSoC6\pdl\middleware\ble/cy_ble.c ****   {
  71:Generated_Source\PSoC6\pdl\middleware\ble/cy_ble.c ****     .callback = &Cy_BLE_SleepCallback,
  72:Generated_Source\PSoC6\pdl\middleware\ble/cy_ble.c ****     .type = CY_SYSPM_SLEEP,
  73:Generated_Source\PSoC6\pdl\middleware\ble/cy_ble.c ****     .skipMode = CY_SYSPM_SKIP_BEFORE_TRANSITION | CY_SYSPM_SKIP_CHECK_FAIL,
  74:Generated_Source\PSoC6\pdl\middleware\ble/cy_ble.c ****     .callbackParams = &bleSleepCallbackParams
  75:Generated_Source\PSoC6\pdl\middleware\ble/cy_ble.c ****   };
  76:Generated_Source\PSoC6\pdl\middleware\ble/cy_ble.c **** #endif /* CY_BLE_STACK_MODE_HOST_IPC */
  77:Generated_Source\PSoC6\pdl\middleware\ble/cy_ble.c **** #endif  /* (CY_BLE_USE_DEEP_SLEEP != 0u) */
  78:Generated_Source\PSoC6\pdl\middleware\ble/cy_ble.c **** 
  79:Generated_Source\PSoC6\pdl\middleware\ble/cy_ble.c **** #if (CY_BLE_INTR_NOTIFY_FEATURE_ENABLED) && (CY_BLE_MODE_PROFILE)
  80:Generated_Source\PSoC6\pdl\middleware\ble/cy_ble.c **** /** BLE interrupt notification structure */
  81:Generated_Source\PSoC6\pdl\middleware\ble/cy_ble.c **** cy_stc_ble_intr_notify_t intrNotify = 
  82:Generated_Source\PSoC6\pdl\middleware\ble/cy_ble.c ****         {
  83:Generated_Source\PSoC6\pdl\middleware\ble/cy_ble.c ****             .clientID = CY_BLE_CYPIPE_MSG_INTR_NOTIFY_ID,
  84:Generated_Source\PSoC6\pdl\middleware\ble/cy_ble.c ****             .pktType  = 0xFFu
  85:Generated_Source\PSoC6\pdl\middleware\ble/cy_ble.c ****         };
  86:Generated_Source\PSoC6\pdl\middleware\ble/cy_ble.c **** #endif /*(CY_BLE_INTR_NOTIFY_FEATURE_ENABLED) && (CY_BLE_MODE_PROFILE) */
  87:Generated_Source\PSoC6\pdl\middleware\ble/cy_ble.c **** 
ARM GAS  C:\Users\gjl\AppData\Local\Temp\ccXC41gm.s 			page 3


  88:Generated_Source\PSoC6\pdl\middleware\ble/cy_ble.c **** 
  89:Generated_Source\PSoC6\pdl\middleware\ble/cy_ble.c **** /******************************************************************************
  90:Generated_Source\PSoC6\pdl\middleware\ble/cy_ble.c **** * Function Name: Cy_BLE_UnregisterHostPMCallbacks
  91:Generated_Source\PSoC6\pdl\middleware\ble/cy_ble.c **** ***************************************************************************//**
  92:Generated_Source\PSoC6\pdl\middleware\ble/cy_ble.c **** *
  93:Generated_Source\PSoC6\pdl\middleware\ble/cy_ble.c **** *  Unregister BLE callback for Deepsleep/Sleep
  94:Generated_Source\PSoC6\pdl\middleware\ble/cy_ble.c **** *
  95:Generated_Source\PSoC6\pdl\middleware\ble/cy_ble.c **** ******************************************************************************/
  96:Generated_Source\PSoC6\pdl\middleware\ble/cy_ble.c **** void Cy_BLE_UnregisterHostPMCallbacks(void)
  97:Generated_Source\PSoC6\pdl\middleware\ble/cy_ble.c **** {
  98:Generated_Source\PSoC6\pdl\middleware\ble/cy_ble.c ****     #if (CY_BLE_USE_DEEP_SLEEP != 0u)
  99:Generated_Source\PSoC6\pdl\middleware\ble/cy_ble.c ****         /* Unregister BLE callback for Deepsleep support */
 100:Generated_Source\PSoC6\pdl\middleware\ble/cy_ble.c ****         (void)Cy_SysPm_UnregisterCallback(&bleDeepSleepCallback);
 101:Generated_Source\PSoC6\pdl\middleware\ble/cy_ble.c ****         
 102:Generated_Source\PSoC6\pdl\middleware\ble/cy_ble.c ****         /* Unregister sleep mode callback only in dual core mode for the host core */
 103:Generated_Source\PSoC6\pdl\middleware\ble/cy_ble.c ****         #if(CY_BLE_STACK_MODE_HOST_IPC)
 104:Generated_Source\PSoC6\pdl\middleware\ble/cy_ble.c ****             /* Unregister BLE callback for Sleep support */
 105:Generated_Source\PSoC6\pdl\middleware\ble/cy_ble.c ****             (void)Cy_SysPm_UnregisterCallback(&bleSleepCallback);
 106:Generated_Source\PSoC6\pdl\middleware\ble/cy_ble.c ****         #endif /* ( CY_BLE_STACK_MODE_HOST_IPC) */
 107:Generated_Source\PSoC6\pdl\middleware\ble/cy_ble.c ****     #endif /* (CY_BLE_USE_DEEP_SLEEP != 0u) */
 108:Generated_Source\PSoC6\pdl\middleware\ble/cy_ble.c **** }
 109:Generated_Source\PSoC6\pdl\middleware\ble/cy_ble.c **** 
 110:Generated_Source\PSoC6\pdl\middleware\ble/cy_ble.c **** /**
 111:Generated_Source\PSoC6\pdl\middleware\ble/cy_ble.c ****  * \addtogroup group_ble_common_api_functions
 112:Generated_Source\PSoC6\pdl\middleware\ble/cy_ble.c ****  * @{
 113:Generated_Source\PSoC6\pdl\middleware\ble/cy_ble.c ****  */
 114:Generated_Source\PSoC6\pdl\middleware\ble/cy_ble.c **** 
 115:Generated_Source\PSoC6\pdl\middleware\ble/cy_ble.c **** /******************************************************************************
 116:Generated_Source\PSoC6\pdl\middleware\ble/cy_ble.c **** * Function Name: Cy_BLE_Init
 117:Generated_Source\PSoC6\pdl\middleware\ble/cy_ble.c **** ***************************************************************************//**
 118:Generated_Source\PSoC6\pdl\middleware\ble/cy_ble.c **** *
 119:Generated_Source\PSoC6\pdl\middleware\ble/cy_ble.c **** *  Initializes the BLE Middleware.
 120:Generated_Source\PSoC6\pdl\middleware\ble/cy_ble.c **** *  
 121:Generated_Source\PSoC6\pdl\middleware\ble/cy_ble.c **** *
 122:Generated_Source\PSoC6\pdl\middleware\ble/cy_ble.c **** *  \param config: The configuration structure for the BLE Middleware.
 123:Generated_Source\PSoC6\pdl\middleware\ble/cy_ble.c **** *
 124:Generated_Source\PSoC6\pdl\middleware\ble/cy_ble.c **** * \return
 125:Generated_Source\PSoC6\pdl\middleware\ble/cy_ble.c **** * \ref cy_en_ble_api_result_t : Return value indicates if the function succeeded or
 126:Generated_Source\PSoC6\pdl\middleware\ble/cy_ble.c **** *  failed. The following are possible error codes.
 127:Generated_Source\PSoC6\pdl\middleware\ble/cy_ble.c **** *
 128:Generated_Source\PSoC6\pdl\middleware\ble/cy_ble.c **** *   Error codes                     | Description
 129:Generated_Source\PSoC6\pdl\middleware\ble/cy_ble.c **** *   ------------                    | -----------
 130:Generated_Source\PSoC6\pdl\middleware\ble/cy_ble.c **** *   CY_BLE_SUCCESS                  | The function completed successfully.
 131:Generated_Source\PSoC6\pdl\middleware\ble/cy_ble.c **** *   CY_BLE_ERROR_INVALID_PARAMETER  | On specifying NULL as the input parameter.
 132:Generated_Source\PSoC6\pdl\middleware\ble/cy_ble.c **** *
 133:Generated_Source\PSoC6\pdl\middleware\ble/cy_ble.c **** ******************************************************************************/
 134:Generated_Source\PSoC6\pdl\middleware\ble/cy_ble.c **** cy_en_ble_api_result_t Cy_BLE_Init(cy_stc_ble_config_t *config)
 135:Generated_Source\PSoC6\pdl\middleware\ble/cy_ble.c **** {
 136:Generated_Source\PSoC6\pdl\middleware\ble/cy_ble.c ****     cy_en_ble_api_result_t apiResult = CY_BLE_SUCCESS;
 137:Generated_Source\PSoC6\pdl\middleware\ble/cy_ble.c **** 
 138:Generated_Source\PSoC6\pdl\middleware\ble/cy_ble.c ****     if(config == NULL)
 139:Generated_Source\PSoC6\pdl\middleware\ble/cy_ble.c ****     {
 140:Generated_Source\PSoC6\pdl\middleware\ble/cy_ble.c ****         apiResult = CY_BLE_ERROR_INVALID_PARAMETER;
 141:Generated_Source\PSoC6\pdl\middleware\ble/cy_ble.c ****     }
 142:Generated_Source\PSoC6\pdl\middleware\ble/cy_ble.c ****     else
 143:Generated_Source\PSoC6\pdl\middleware\ble/cy_ble.c ****     {
 144:Generated_Source\PSoC6\pdl\middleware\ble/cy_ble.c ****         /* Register a pointer to the config structure */
ARM GAS  C:\Users\gjl\AppData\Local\Temp\ccXC41gm.s 			page 4


 145:Generated_Source\PSoC6\pdl\middleware\ble/cy_ble.c ****         cy_ble_configPtr = config;
 146:Generated_Source\PSoC6\pdl\middleware\ble/cy_ble.c **** 
 147:Generated_Source\PSoC6\pdl\middleware\ble/cy_ble.c ****     #if (CY_BLE_MODE_PROFILE)
 148:Generated_Source\PSoC6\pdl\middleware\ble/cy_ble.c ****         /* Register a callback function via the config structure */
 149:Generated_Source\PSoC6\pdl\middleware\ble/cy_ble.c ****         if(cy_ble_configPtr->callbackFunc != NULL)
 150:Generated_Source\PSoC6\pdl\middleware\ble/cy_ble.c ****         {
 151:Generated_Source\PSoC6\pdl\middleware\ble/cy_ble.c ****             Cy_BLE_ApplCallback = cy_ble_configPtr->callbackFunc;
 152:Generated_Source\PSoC6\pdl\middleware\ble/cy_ble.c ****         }
 153:Generated_Source\PSoC6\pdl\middleware\ble/cy_ble.c ****         cy_ble_eventHandlerFlag = 0u;
 154:Generated_Source\PSoC6\pdl\middleware\ble/cy_ble.c ****         (void)memset((uint8_t*)&cy_ble_busyStatus, 0, sizeof(cy_ble_busyStatus));
 155:Generated_Source\PSoC6\pdl\middleware\ble/cy_ble.c **** 
 156:Generated_Source\PSoC6\pdl\middleware\ble/cy_ble.c ****         cy_ble_cmdStatus = 0u;
 157:Generated_Source\PSoC6\pdl\middleware\ble/cy_ble.c ****         
 158:Generated_Source\PSoC6\pdl\middleware\ble/cy_ble.c ****         #if (CY_BLE_GATT_ROLE_CLIENT)
 159:Generated_Source\PSoC6\pdl\middleware\ble/cy_ble.c ****         {
 160:Generated_Source\PSoC6\pdl\middleware\ble/cy_ble.c ****             uint32_t idx;
 161:Generated_Source\PSoC6\pdl\middleware\ble/cy_ble.c ****             (void)memset(&cy_ble_serverInfo, 0, sizeof(cy_ble_serverInfo));
 162:Generated_Source\PSoC6\pdl\middleware\ble/cy_ble.c ****             (void)memset(cy_ble_connHandle, -1, sizeof(cy_ble_connHandle));
 163:Generated_Source\PSoC6\pdl\middleware\ble/cy_ble.c ****             (void)memset(&cy_ble_discovery, 0, sizeof(cy_ble_discovery));
 164:Generated_Source\PSoC6\pdl\middleware\ble/cy_ble.c **** 
 165:Generated_Source\PSoC6\pdl\middleware\ble/cy_ble.c ****             /* Update cy_ble_discovery[].connIndex with init values (CY_BLE_INVALID_CONN_HANDLE_VAL
 166:Generated_Source\PSoC6\pdl\middleware\ble/cy_ble.c ****             for(idx = 0u; idx < CY_BLE_GATTC_COUNT; idx++)
 167:Generated_Source\PSoC6\pdl\middleware\ble/cy_ble.c ****             {
 168:Generated_Source\PSoC6\pdl\middleware\ble/cy_ble.c ****                 cy_ble_discovery[idx].connIndex = CY_BLE_INVALID_CONN_HANDLE_VALUE;
 169:Generated_Source\PSoC6\pdl\middleware\ble/cy_ble.c ****             }
 170:Generated_Source\PSoC6\pdl\middleware\ble/cy_ble.c ****         }
 171:Generated_Source\PSoC6\pdl\middleware\ble/cy_ble.c ****         #endif /* CY_BLE_GATT_ROLE_CLIENT */
 172:Generated_Source\PSoC6\pdl\middleware\ble/cy_ble.c **** 
 173:Generated_Source\PSoC6\pdl\middleware\ble/cy_ble.c ****         #if (CY_BLE_GAP_ROLE_PERIPHERAL || CY_BLE_GAP_ROLE_BROADCASTER)
 174:Generated_Source\PSoC6\pdl\middleware\ble/cy_ble.c ****         cy_ble_advertisingIntervalType = CY_BLE_ADVERTISING_FAST;
 175:Generated_Source\PSoC6\pdl\middleware\ble/cy_ble.c ****         #endif /* (CY_BLE_GAP_ROLE_PERIPHERAL || CY_BLE_GAP_ROLE_BROADCASTER)  */
 176:Generated_Source\PSoC6\pdl\middleware\ble/cy_ble.c **** 
 177:Generated_Source\PSoC6\pdl\middleware\ble/cy_ble.c ****         #if (CY_BLE_GAP_ROLE_CENTRAL || CY_BLE_GAP_ROLE_OBSERVER)
 178:Generated_Source\PSoC6\pdl\middleware\ble/cy_ble.c ****         cy_ble_scanningIntervalType = CY_BLE_SCANNING_FAST;
 179:Generated_Source\PSoC6\pdl\middleware\ble/cy_ble.c ****         #endif /* (CY_BLE_GAP_ROLE_CENTRAL || CY_BLE_GAP_ROLE_OBSERVER) */
 180:Generated_Source\PSoC6\pdl\middleware\ble/cy_ble.c **** 
 181:Generated_Source\PSoC6\pdl\middleware\ble/cy_ble.c ****         Cy_BLE_ServiceInit();
 182:Generated_Source\PSoC6\pdl\middleware\ble/cy_ble.c **** 
 183:Generated_Source\PSoC6\pdl\middleware\ble/cy_ble.c ****         #if ((CY_BLE_GAP_ROLE_PERIPHERAL || CY_BLE_GAP_ROLE_CENTRAL) && (CY_BLE_BONDING_REQUIREMENT
 184:Generated_Source\PSoC6\pdl\middleware\ble/cy_ble.c ****         cy_ble_pendingFlashWrite = 0u;
 185:Generated_Source\PSoC6\pdl\middleware\ble/cy_ble.c ****         (void)memset(cy_ble_peerBonding, (int8_t)CY_BLE_GAP_BONDING_NONE, sizeof(cy_ble_peerBonding
 186:Generated_Source\PSoC6\pdl\middleware\ble/cy_ble.c ****         #endif /* (CY_BLE_BONDING_REQUIREMENT == CY_BLE_BONDING_YES) */
 187:Generated_Source\PSoC6\pdl\middleware\ble/cy_ble.c ****     #endif     /* (CY_BLE_MODE_PROFILE) */
 188:Generated_Source\PSoC6\pdl\middleware\ble/cy_ble.c ****     }
 189:Generated_Source\PSoC6\pdl\middleware\ble/cy_ble.c ****     
 190:Generated_Source\PSoC6\pdl\middleware\ble/cy_ble.c **** #ifndef CY_DIE_PSOC6ABLE2 
 191:Generated_Source\PSoC6\pdl\middleware\ble/cy_ble.c ****     #if(CY_BLE_STACK_MODE_IPC)
 192:Generated_Source\PSoC6\pdl\middleware\ble/cy_ble.c ****         Cy_IPC_SystemPipeInit();
 193:Generated_Source\PSoC6\pdl\middleware\ble/cy_ble.c ****     #endif /* (CY_BLE_STACK_MODE_IPC) */
 194:Generated_Source\PSoC6\pdl\middleware\ble/cy_ble.c **** #endif /*(CY_DIE_PSOC6ABLE2) */
 195:Generated_Source\PSoC6\pdl\middleware\ble/cy_ble.c ****         
 196:Generated_Source\PSoC6\pdl\middleware\ble/cy_ble.c ****     return(apiResult);
 197:Generated_Source\PSoC6\pdl\middleware\ble/cy_ble.c **** }
 198:Generated_Source\PSoC6\pdl\middleware\ble/cy_ble.c **** /** @} */
 199:Generated_Source\PSoC6\pdl\middleware\ble/cy_ble.c **** 
 200:Generated_Source\PSoC6\pdl\middleware\ble/cy_ble.c **** /******************************************************************************
 201:Generated_Source\PSoC6\pdl\middleware\ble/cy_ble.c **** * Function Name: Cy_BLE_Enable
ARM GAS  C:\Users\gjl\AppData\Local\Temp\ccXC41gm.s 			page 5


 202:Generated_Source\PSoC6\pdl\middleware\ble/cy_ble.c **** ***************************************************************************//**
 203:Generated_Source\PSoC6\pdl\middleware\ble/cy_ble.c **** *
 204:Generated_Source\PSoC6\pdl\middleware\ble/cy_ble.c **** *  Initializes and starts the BLE Stack.
 205:Generated_Source\PSoC6\pdl\middleware\ble/cy_ble.c **** *
 206:Generated_Source\PSoC6\pdl\middleware\ble/cy_ble.c **** *  Calling this function results in generation of a #CY_BLE_EVT_STACK_ON event
 207:Generated_Source\PSoC6\pdl\middleware\ble/cy_ble.c **** *  on successful initialization of the BLE Stack.
 208:Generated_Source\PSoC6\pdl\middleware\ble/cy_ble.c **** *
 209:Generated_Source\PSoC6\pdl\middleware\ble/cy_ble.c **** *  This function initializes the BLE Stack which consists of the BLE Stack 
 210:Generated_Source\PSoC6\pdl\middleware\ble/cy_ble.c **** *  Manager, BLE Controller, and BLE Host modules. It takes care of initializing
 211:Generated_Source\PSoC6\pdl\middleware\ble/cy_ble.c **** *  the Profile layer, schedulers, Timer and other platform-related resources
 212:Generated_Source\PSoC6\pdl\middleware\ble/cy_ble.c **** *  required for the BLE Middleware. It also registers the callback function for
 213:Generated_Source\PSoC6\pdl\middleware\ble/cy_ble.c **** *  BLE events that will be registered in the BLE stack.
 214:Generated_Source\PSoC6\pdl\middleware\ble/cy_ble.c **** *
 215:Generated_Source\PSoC6\pdl\middleware\ble/cy_ble.c **** *  Note that this function does not reset the BLE Stack.
 216:Generated_Source\PSoC6\pdl\middleware\ble/cy_ble.c **** * 
 217:Generated_Source\PSoC6\pdl\middleware\ble/cy_ble.c **** *  For the HCI-Mode of operation, this function will not initialize the BLE Host 
 218:Generated_Source\PSoC6\pdl\middleware\ble/cy_ble.c **** *  module.
 219:Generated_Source\PSoC6\pdl\middleware\ble/cy_ble.c **** *
 220:Generated_Source\PSoC6\pdl\middleware\ble/cy_ble.c **** *  Calling this function results in generation of a #CY_BLE_EVT_STACK_ON event
 221:Generated_Source\PSoC6\pdl\middleware\ble/cy_ble.c **** *  on successful initialization of the BLE Stack.
 222:Generated_Source\PSoC6\pdl\middleware\ble/cy_ble.c **** *
 223:Generated_Source\PSoC6\pdl\middleware\ble/cy_ble.c **** *  In the Dual Core mode, this function should be called on both cores in the 
 224:Generated_Source\PSoC6\pdl\middleware\ble/cy_ble.c **** *  following sequence:
 225:Generated_Source\PSoC6\pdl\middleware\ble/cy_ble.c **** *   - call this function on CM0+ core to initialize the Controller.
 226:Generated_Source\PSoC6\pdl\middleware\ble/cy_ble.c **** *   - start CM4 core by calling Cy_SysEnableCM4() function.
 227:Generated_Source\PSoC6\pdl\middleware\ble/cy_ble.c **** *   - call this function on CM4 core to initialize the Host and Profiles.
 228:Generated_Source\PSoC6\pdl\middleware\ble/cy_ble.c **** *
 229:Generated_Source\PSoC6\pdl\middleware\ble/cy_ble.c **** * \return
 230:Generated_Source\PSoC6\pdl\middleware\ble/cy_ble.c **** * \ref cy_en_ble_api_result_t : Return value indicates if the function succeeded
 231:Generated_Source\PSoC6\pdl\middleware\ble/cy_ble.c **** *      or failed. The following are possible error codes.
 232:Generated_Source\PSoC6\pdl\middleware\ble/cy_ble.c **** *
 233:Generated_Source\PSoC6\pdl\middleware\ble/cy_ble.c **** *  <table>
 234:Generated_Source\PSoC6\pdl\middleware\ble/cy_ble.c **** *    <tr>
 235:Generated_Source\PSoC6\pdl\middleware\ble/cy_ble.c **** *      <th>Error codes</th>
 236:Generated_Source\PSoC6\pdl\middleware\ble/cy_ble.c **** *      <th>Description</th>
 237:Generated_Source\PSoC6\pdl\middleware\ble/cy_ble.c **** *    </tr>
 238:Generated_Source\PSoC6\pdl\middleware\ble/cy_ble.c **** *    <tr>
 239:Generated_Source\PSoC6\pdl\middleware\ble/cy_ble.c **** *      <td>CY_BLE_SUCCESS</td>
 240:Generated_Source\PSoC6\pdl\middleware\ble/cy_ble.c **** *      <td>On successful operation.</td>
 241:Generated_Source\PSoC6\pdl\middleware\ble/cy_ble.c **** *    </tr>
 242:Generated_Source\PSoC6\pdl\middleware\ble/cy_ble.c **** *    <tr>
 243:Generated_Source\PSoC6\pdl\middleware\ble/cy_ble.c **** *      <td>CY_BLE_ERROR_REPEATED_ATTEMPTS</td>
 244:Generated_Source\PSoC6\pdl\middleware\ble/cy_ble.c **** *      <td>On invoking this function more than once without calling 
 245:Generated_Source\PSoC6\pdl\middleware\ble/cy_ble.c **** *          Cy_BLE_Disable() function between calls to this function.</td>
 246:Generated_Source\PSoC6\pdl\middleware\ble/cy_ble.c **** *    </tr>
 247:Generated_Source\PSoC6\pdl\middleware\ble/cy_ble.c **** *    <tr>
 248:Generated_Source\PSoC6\pdl\middleware\ble/cy_ble.c **** *      <td>CY_BLE_ERROR_MEMORY_ALLOCATION_FAILED</td>
 249:Generated_Source\PSoC6\pdl\middleware\ble/cy_ble.c **** *      <td>There is insufficient memory available.</td>
 250:Generated_Source\PSoC6\pdl\middleware\ble/cy_ble.c **** *    </tr>
 251:Generated_Source\PSoC6\pdl\middleware\ble/cy_ble.c **** *  </table>
 252:Generated_Source\PSoC6\pdl\middleware\ble/cy_ble.c **** *
 253:Generated_Source\PSoC6\pdl\middleware\ble/cy_ble.c **** ******************************************************************************/
 254:Generated_Source\PSoC6\pdl\middleware\ble/cy_ble.c **** cy_en_ble_api_result_t Cy_BLE_Enable(void)
 255:Generated_Source\PSoC6\pdl\middleware\ble/cy_ble.c **** {
 256:Generated_Source\PSoC6\pdl\middleware\ble/cy_ble.c ****     cy_en_ble_api_result_t apiResult = CY_BLE_SUCCESS;
 257:Generated_Source\PSoC6\pdl\middleware\ble/cy_ble.c **** 
 258:Generated_Source\PSoC6\pdl\middleware\ble/cy_ble.c **** #if (CY_BLE_MODE_PROFILE)
ARM GAS  C:\Users\gjl\AppData\Local\Temp\ccXC41gm.s 			page 6


 259:Generated_Source\PSoC6\pdl\middleware\ble/cy_ble.c ****     cy_stc_ble_stk_app_data_buff_t cy_ble_stackDataBuff[CY_BLE_STACK_APP_MIN_POOL] =
 260:Generated_Source\PSoC6\pdl\middleware\ble/cy_ble.c ****     {
 261:Generated_Source\PSoC6\pdl\middleware\ble/cy_ble.c ****         { CY_BLE_GATT_MTU_PLUS_L2CAP_MEM_EXT,   CY_BLE_GATT_MTU_BUFF_COUNT              },
 262:Generated_Source\PSoC6\pdl\middleware\ble/cy_ble.c ****         { CY_BLE_L2CAP_PSM_PLUS_L2CAP_MEM_EXT,  CY_BLE_L2CAP_PSM_COUNT                  },
 263:Generated_Source\PSoC6\pdl\middleware\ble/cy_ble.c ****         { CY_BLE_L2CAP_CBFC_PLUS_L2CAP_MEM_EXT, 2u * CY_BLE_L2CAP_LOGICAL_CHANNEL_COUNT },
 264:Generated_Source\PSoC6\pdl\middleware\ble/cy_ble.c ****         { CY_BLE_L2CAP_MTU_PLUS_L2CAP_MEM_EXT,  2u * CY_BLE_L2CAP_LOGICAL_CHANNEL_COUNT }
 265:Generated_Source\PSoC6\pdl\middleware\ble/cy_ble.c ****     };
 266:Generated_Source\PSoC6\pdl\middleware\ble/cy_ble.c **** #endif  /* (CY_BLE_MODE_PROFILE) */
 267:Generated_Source\PSoC6\pdl\middleware\ble/cy_ble.c ****     
 268:Generated_Source\PSoC6\pdl\middleware\ble/cy_ble.c ****     cy_stc_ble_stack_init_info_t stackInitParam =
 269:Generated_Source\PSoC6\pdl\middleware\ble/cy_ble.c ****     {
 270:Generated_Source\PSoC6\pdl\middleware\ble/cy_ble.c ****     #if (CY_BLE_MODE_PROFILE)
 271:Generated_Source\PSoC6\pdl\middleware\ble/cy_ble.c ****         .CyBleAppCbFunc                      = (cy_ble_app_ev_cb_t)&Cy_BLE_EventHandler,
 272:Generated_Source\PSoC6\pdl\middleware\ble/cy_ble.c ****     #endif /* CY_BLE_MODE_PROFILE */
 273:Generated_Source\PSoC6\pdl\middleware\ble/cy_ble.c ****         .memParam                            =
 274:Generated_Source\PSoC6\pdl\middleware\ble/cy_ble.c ****         {
 275:Generated_Source\PSoC6\pdl\middleware\ble/cy_ble.c ****     #if (CY_BLE_MODE_PROFILE)
 276:Generated_Source\PSoC6\pdl\middleware\ble/cy_ble.c ****             .totalHeapSz                     = (uint16_t)(CY_BLE_STACK_RAM_SIZE - CY_BLE_GATT_PREPA
 277:Generated_Source\PSoC6\pdl\middleware\ble/cy_ble.c ****             .dataBuff                        = cy_ble_stackDataBuff,
 278:Generated_Source\PSoC6\pdl\middleware\ble/cy_ble.c ****             .totalDataBufferPools            = CY_BLE_STACK_APP_MIN_POOL,
 279:Generated_Source\PSoC6\pdl\middleware\ble/cy_ble.c **** 
 280:Generated_Source\PSoC6\pdl\middleware\ble/cy_ble.c ****         #if (CY_BLE_BONDING_REQUIREMENT == CY_BLE_BONDING_YES)
 281:Generated_Source\PSoC6\pdl\middleware\ble/cy_ble.c ****             .bleStackFlashPointer            = (const uint8_t*)cy_ble_configPtr->flashStorage->stac
 282:Generated_Source\PSoC6\pdl\middleware\ble/cy_ble.c ****             .bleStackFlashSize               = CY_BLE_STACK_FLASH_SIZE,
 283:Generated_Source\PSoC6\pdl\middleware\ble/cy_ble.c ****         #endif  /* CY_BLE_BONDING_REQUIREMENT == CY_BLE_BONDING_YES */
 284:Generated_Source\PSoC6\pdl\middleware\ble/cy_ble.c ****     #else
 285:Generated_Source\PSoC6\pdl\middleware\ble/cy_ble.c ****             .totalHeapSz                     = CY_BLE_STACK_RAM_SIZE,
 286:Generated_Source\PSoC6\pdl\middleware\ble/cy_ble.c ****     #endif /* CY_BLE_MODE_PROFILE */
 287:Generated_Source\PSoC6\pdl\middleware\ble/cy_ble.c ****         },
 288:Generated_Source\PSoC6\pdl\middleware\ble/cy_ble.c ****         .stackConfig                         =
 289:Generated_Source\PSoC6\pdl\middleware\ble/cy_ble.c ****         {
 290:Generated_Source\PSoC6\pdl\middleware\ble/cy_ble.c ****             /* Configure DLE */
 291:Generated_Source\PSoC6\pdl\middleware\ble/cy_ble.c ****             .dleConfig.dleMaxTxCapability    = CY_BLE_LL_MAX_TX_PAYLOAD_SIZE,
 292:Generated_Source\PSoC6\pdl\middleware\ble/cy_ble.c ****             .dleConfig.dleMaxRxCapability    = CY_BLE_LL_MAX_RX_PAYLOAD_SIZE,
 293:Generated_Source\PSoC6\pdl\middleware\ble/cy_ble.c ****             .dleConfig.dleNumTxBuffer        = CY_BLE_LL_DEFAULT_NUM_ACL_TX_PACKETS,
 294:Generated_Source\PSoC6\pdl\middleware\ble/cy_ble.c ****             .dleConfig.dleNumRxBuffer        = CY_BLE_LL_DEFAULT_NUM_ACL_RX_PACKETS,
 295:Generated_Source\PSoC6\pdl\middleware\ble/cy_ble.c **** 
 296:Generated_Source\PSoC6\pdl\middleware\ble/cy_ble.c ****         #if (CY_BLE_MODE_PROFILE)
 297:Generated_Source\PSoC6\pdl\middleware\ble/cy_ble.c ****             /* Configure queue */
 298:Generated_Source\PSoC6\pdl\middleware\ble/cy_ble.c ****             .l2capConfig.l2capBufferPerConn  = CY_BLE_L2CAP_Q_DEPTH_PER_CONN,
 299:Generated_Source\PSoC6\pdl\middleware\ble/cy_ble.c ****         #endif /* (CY_BLE_MODE_PROFILE) */
 300:Generated_Source\PSoC6\pdl\middleware\ble/cy_ble.c **** 
 301:Generated_Source\PSoC6\pdl\middleware\ble/cy_ble.c ****             /* Configure LL Privacy */
 302:Generated_Source\PSoC6\pdl\middleware\ble/cy_ble.c ****             .privacyConfig.resolvingListSize = CY_BLE_MAX_RESOLVABLE_DEVICES,
 303:Generated_Source\PSoC6\pdl\middleware\ble/cy_ble.c **** 
 304:Generated_Source\PSoC6\pdl\middleware\ble/cy_ble.c ****             /* Configure bonded device list */
 305:Generated_Source\PSoC6\pdl\middleware\ble/cy_ble.c ****             .bondListConfig.bondListSize     = CY_BLE_MAX_BONDED_DEVICES,
 306:Generated_Source\PSoC6\pdl\middleware\ble/cy_ble.c **** 
 307:Generated_Source\PSoC6\pdl\middleware\ble/cy_ble.c ****             /* Configure white list */
 308:Generated_Source\PSoC6\pdl\middleware\ble/cy_ble.c ****             .whiteListConfig.whiteListSize   = CY_BLE_MAX_WHITE_LIST_SIZE,
 309:Generated_Source\PSoC6\pdl\middleware\ble/cy_ble.c **** 
 310:Generated_Source\PSoC6\pdl\middleware\ble/cy_ble.c ****             .featureMask                     = (CY_BLE_DLE_FEATURE | CY_BLE_LL_PRIVACY_FEATURE | 
 311:Generated_Source\PSoC6\pdl\middleware\ble/cy_ble.c ****                                                 CY_BLE_SECURE_CONN_FEATURE | CY_BLE_PHY_UPDATE_FEAT
 312:Generated_Source\PSoC6\pdl\middleware\ble/cy_ble.c ****                                                 CY_BLE_STORE_BONDLIST_FEATURE | CY_BLE_STORE_RESOLV
 313:Generated_Source\PSoC6\pdl\middleware\ble/cy_ble.c ****                                                 CY_BLE_STORE_WHITELIST_FEATURE | CY_BLE_TX_POWER_CA
 314:Generated_Source\PSoC6\pdl\middleware\ble/cy_ble.c ****             .maxBleConnections               = CY_BLE_CONN_COUNT
 315:Generated_Source\PSoC6\pdl\middleware\ble/cy_ble.c ****         }
ARM GAS  C:\Users\gjl\AppData\Local\Temp\ccXC41gm.s 			page 7


 316:Generated_Source\PSoC6\pdl\middleware\ble/cy_ble.c ****     };
 317:Generated_Source\PSoC6\pdl\middleware\ble/cy_ble.c **** 
 318:Generated_Source\PSoC6\pdl\middleware\ble/cy_ble.c **** #if (CY_BLE_USE_DEEP_SLEEP != 0u)
 319:Generated_Source\PSoC6\pdl\middleware\ble/cy_ble.c ****     /* Register BLE callback for Deepsleep support */
 320:Generated_Source\PSoC6\pdl\middleware\ble/cy_ble.c ****     (void)Cy_SysPm_RegisterCallback(&bleDeepSleepCallback);
 321:Generated_Source\PSoC6\pdl\middleware\ble/cy_ble.c ****     
 322:Generated_Source\PSoC6\pdl\middleware\ble/cy_ble.c ****     /* Register Sleep mode callback only in dual core mode for the host core */
 323:Generated_Source\PSoC6\pdl\middleware\ble/cy_ble.c ****     #if(CY_BLE_STACK_MODE_HOST_IPC)
 324:Generated_Source\PSoC6\pdl\middleware\ble/cy_ble.c ****     {
 325:Generated_Source\PSoC6\pdl\middleware\ble/cy_ble.c ****         /* Register BLE callback for Sleep support */
 326:Generated_Source\PSoC6\pdl\middleware\ble/cy_ble.c ****         (void)Cy_SysPm_RegisterCallback(&bleSleepCallback);
 327:Generated_Source\PSoC6\pdl\middleware\ble/cy_ble.c ****     }
 328:Generated_Source\PSoC6\pdl\middleware\ble/cy_ble.c ****     #endif /* (CY_BLE_STACK_MODE_HOST_IPC) */
 329:Generated_Source\PSoC6\pdl\middleware\ble/cy_ble.c **** #endif  /* (CY_BLE_USE_DEEP_SLEEP != 0u) */
 330:Generated_Source\PSoC6\pdl\middleware\ble/cy_ble.c ****     
 331:Generated_Source\PSoC6\pdl\middleware\ble/cy_ble.c **** #if(CY_BLE_SHARING_MODE_EXPORT)
 332:Generated_Source\PSoC6\pdl\middleware\ble/cy_ble.c ****     if(cy_ble_stackMemoryRam == NULL)
 333:Generated_Source\PSoC6\pdl\middleware\ble/cy_ble.c ****     {
 334:Generated_Source\PSoC6\pdl\middleware\ble/cy_ble.c ****         cy_ble_stackMemoryRam = (uint8 *)malloc(CY_BLE_STACK_RAM_SIZE);
 335:Generated_Source\PSoC6\pdl\middleware\ble/cy_ble.c ****         if(cy_ble_stackMemoryRam == NULL)
 336:Generated_Source\PSoC6\pdl\middleware\ble/cy_ble.c ****         {
 337:Generated_Source\PSoC6\pdl\middleware\ble/cy_ble.c ****             apiResult = CY_BLE_ERROR_MEMORY_ALLOCATION_FAILED;
 338:Generated_Source\PSoC6\pdl\middleware\ble/cy_ble.c ****         }
 339:Generated_Source\PSoC6\pdl\middleware\ble/cy_ble.c ****     }
 340:Generated_Source\PSoC6\pdl\middleware\ble/cy_ble.c **** #endif /* CY_BLE_SHARING_MODE_EXPORT */
 341:Generated_Source\PSoC6\pdl\middleware\ble/cy_ble.c ****     
 342:Generated_Source\PSoC6\pdl\middleware\ble/cy_ble.c ****     if(apiResult == CY_BLE_SUCCESS)
 343:Generated_Source\PSoC6\pdl\middleware\ble/cy_ble.c ****     {
 344:Generated_Source\PSoC6\pdl\middleware\ble/cy_ble.c ****     #if (CY_BLE_DLE_FEATURE_ENABLED)
 345:Generated_Source\PSoC6\pdl\middleware\ble/cy_ble.c ****         Cy_BLE_EnableDleFeature();              /* Enable DLE code in the stack */
 346:Generated_Source\PSoC6\pdl\middleware\ble/cy_ble.c ****     #endif /* CY_BLE_DLE_FEATURE_ENABLED */
 347:Generated_Source\PSoC6\pdl\middleware\ble/cy_ble.c **** 
 348:Generated_Source\PSoC6\pdl\middleware\ble/cy_ble.c ****     #if (CY_BLE_LL_PRIVACY_FEATURE_ENABLED)
 349:Generated_Source\PSoC6\pdl\middleware\ble/cy_ble.c ****         Cy_BLE_EnablePrivacyFeature();          /* Enable LL Privacy code in the stack */
 350:Generated_Source\PSoC6\pdl\middleware\ble/cy_ble.c ****     #endif /* CY_BLE_LL_PRIVACY_FEATURE_ENABLED */
 351:Generated_Source\PSoC6\pdl\middleware\ble/cy_ble.c **** 
 352:Generated_Source\PSoC6\pdl\middleware\ble/cy_ble.c ****     #if (CY_BLE_PHY_UPDATE_FEATURE_ENABLED)
 353:Generated_Source\PSoC6\pdl\middleware\ble/cy_ble.c ****         Cy_BLE_EnablePhyUpdateFeature();        /* Enable PHY Update code in the stack */
 354:Generated_Source\PSoC6\pdl\middleware\ble/cy_ble.c ****     #endif /* CY_BLE_PHY_UPDATE_FEATURE_ENABLED */
 355:Generated_Source\PSoC6\pdl\middleware\ble/cy_ble.c **** 
 356:Generated_Source\PSoC6\pdl\middleware\ble/cy_ble.c ****         apiResult = Cy_BLE_StackSetFeatureConfig(&stackInitParam.stackConfig);
 357:Generated_Source\PSoC6\pdl\middleware\ble/cy_ble.c ****     }
 358:Generated_Source\PSoC6\pdl\middleware\ble/cy_ble.c ****     
 359:Generated_Source\PSoC6\pdl\middleware\ble/cy_ble.c ****     if(apiResult == CY_BLE_SUCCESS)
 360:Generated_Source\PSoC6\pdl\middleware\ble/cy_ble.c ****     {
 361:Generated_Source\PSoC6\pdl\middleware\ble/cy_ble.c ****         stackInitParam.memParam.memoryHeapPtr = cy_ble_stackMemoryRam;
 362:Generated_Source\PSoC6\pdl\middleware\ble/cy_ble.c **** 
 363:Generated_Source\PSoC6\pdl\middleware\ble/cy_ble.c ****         /* Initialize the BLE Stack */
 364:Generated_Source\PSoC6\pdl\middleware\ble/cy_ble.c ****         apiResult = Cy_BLE_StackInit(&stackInitParam);
 365:Generated_Source\PSoC6\pdl\middleware\ble/cy_ble.c **** 
 366:Generated_Source\PSoC6\pdl\middleware\ble/cy_ble.c ****     #if (CY_BLE_MODE_PROFILE)
 367:Generated_Source\PSoC6\pdl\middleware\ble/cy_ble.c ****         if(apiResult == CY_BLE_SUCCESS)
 368:Generated_Source\PSoC6\pdl\middleware\ble/cy_ble.c ****         {
 369:Generated_Source\PSoC6\pdl\middleware\ble/cy_ble.c ****             Cy_BLE_SetState(CY_BLE_STATE_INITIALIZING);
 370:Generated_Source\PSoC6\pdl\middleware\ble/cy_ble.c **** 
 371:Generated_Source\PSoC6\pdl\middleware\ble/cy_ble.c ****         #if (CY_BLE_GAP_ROLE_CENTRAL || CY_BLE_GAP_ROLE_PERIPHERAL)
 372:Generated_Source\PSoC6\pdl\middleware\ble/cy_ble.c ****             (void)memset(&cy_ble_connState, 0, sizeof(cy_ble_connState));
ARM GAS  C:\Users\gjl\AppData\Local\Temp\ccXC41gm.s 			page 8


 373:Generated_Source\PSoC6\pdl\middleware\ble/cy_ble.c ****         #endif /* (CY_BLE_GAP_ROLE_CENTRAL || CY_BLE_GAP_ROLE_PERIPHERAL) */
 374:Generated_Source\PSoC6\pdl\middleware\ble/cy_ble.c **** 
 375:Generated_Source\PSoC6\pdl\middleware\ble/cy_ble.c ****         #if (CY_BLE_GAP_ROLE_PERIPHERAL || CY_BLE_GAP_ROLE_BROADCASTER)
 376:Generated_Source\PSoC6\pdl\middleware\ble/cy_ble.c ****             Cy_BLE_SetAdvertisementState(CY_BLE_ADV_STATE_STOPPED);
 377:Generated_Source\PSoC6\pdl\middleware\ble/cy_ble.c ****         #endif  /* (CY_BLE_GAP_ROLE_PERIPHERAL || CY_BLE_GAP_ROLE_BROADCASTER) */
 378:Generated_Source\PSoC6\pdl\middleware\ble/cy_ble.c **** 
 379:Generated_Source\PSoC6\pdl\middleware\ble/cy_ble.c ****         #if (CY_BLE_GAP_ROLE_CENTRAL || CY_BLE_GAP_ROLE_OBSERVER)
 380:Generated_Source\PSoC6\pdl\middleware\ble/cy_ble.c ****             Cy_BLE_SetScanState(CY_BLE_SCAN_STATE_STOPPED);
 381:Generated_Source\PSoC6\pdl\middleware\ble/cy_ble.c ****         #endif /* (CY_BLE_GAP_ROLE_CENTRAL || CY_BLE_GAP_ROLE_OBSERVER) */
 382:Generated_Source\PSoC6\pdl\middleware\ble/cy_ble.c **** 
 383:Generated_Source\PSoC6\pdl\middleware\ble/cy_ble.c ****         #if (CY_BLE_GATT_ROLE_SERVER)
 384:Generated_Source\PSoC6\pdl\middleware\ble/cy_ble.c ****             {
 385:Generated_Source\PSoC6\pdl\middleware\ble/cy_ble.c ****                 cy_stc_ble_gatts_db_info_t dbInfoParam =
 386:Generated_Source\PSoC6\pdl\middleware\ble/cy_ble.c ****                 {
 387:Generated_Source\PSoC6\pdl\middleware\ble/cy_ble.c ****                     .gattDbPtr          = (const cy_stc_ble_gatts_db_t*)cy_ble_configPtr->gattDB,
 388:Generated_Source\PSoC6\pdl\middleware\ble/cy_ble.c ****                     .gattDbTotalEntries = cy_ble_configPtr->params->gattDbIndexCount,
 389:Generated_Source\PSoC6\pdl\middleware\ble/cy_ble.c ****                     .gattDbMaxValue     = CY_BLE_GATT_DB_MAX_VALUE_LEN
 390:Generated_Source\PSoC6\pdl\middleware\ble/cy_ble.c ****                 };
 391:Generated_Source\PSoC6\pdl\middleware\ble/cy_ble.c **** 
 392:Generated_Source\PSoC6\pdl\middleware\ble/cy_ble.c ****                 apiResult = Cy_BLE_GATTS_DbRegister(&dbInfoParam);
 393:Generated_Source\PSoC6\pdl\middleware\ble/cy_ble.c ****             }
 394:Generated_Source\PSoC6\pdl\middleware\ble/cy_ble.c ****         #endif /* CY_BLE_GATT_ROLE_SERVER */
 395:Generated_Source\PSoC6\pdl\middleware\ble/cy_ble.c ****         }
 396:Generated_Source\PSoC6\pdl\middleware\ble/cy_ble.c ****         cy_ble_cmdStatus = 0u;
 397:Generated_Source\PSoC6\pdl\middleware\ble/cy_ble.c ****     #endif /* (CY_BLE_MODE_PROFILE) */
 398:Generated_Source\PSoC6\pdl\middleware\ble/cy_ble.c ****     }
 399:Generated_Source\PSoC6\pdl\middleware\ble/cy_ble.c **** 
 400:Generated_Source\PSoC6\pdl\middleware\ble/cy_ble.c ****     return(apiResult);
 401:Generated_Source\PSoC6\pdl\middleware\ble/cy_ble.c **** }
 402:Generated_Source\PSoC6\pdl\middleware\ble/cy_ble.c **** 
 403:Generated_Source\PSoC6\pdl\middleware\ble/cy_ble.c **** 
 404:Generated_Source\PSoC6\pdl\middleware\ble/cy_ble.c **** /******************************************************************************
 405:Generated_Source\PSoC6\pdl\middleware\ble/cy_ble.c **** * Function Name: Cy_BLE_Disable
 406:Generated_Source\PSoC6\pdl\middleware\ble/cy_ble.c **** ***************************************************************************//**
 407:Generated_Source\PSoC6\pdl\middleware\ble/cy_ble.c **** *
 408:Generated_Source\PSoC6\pdl\middleware\ble/cy_ble.c **** *  This function stops any ongoing operation in the BLE Stack and forces the
 409:Generated_Source\PSoC6\pdl\middleware\ble/cy_ble.c **** *  BLE Stack to shut down.
 410:Generated_Source\PSoC6\pdl\middleware\ble/cy_ble.c **** *
 411:Generated_Source\PSoC6\pdl\middleware\ble/cy_ble.c **** *  Calling this function results in generation of a 
 412:Generated_Source\PSoC6\pdl\middleware\ble/cy_ble.c **** *  #CY_BLE_EVT_STACK_SHUTDOWN_COMPLETE event on a successful stack shutdown.
 413:Generated_Source\PSoC6\pdl\middleware\ble/cy_ble.c **** *
 414:Generated_Source\PSoC6\pdl\middleware\ble/cy_ble.c **** *  For HCI mode:
 415:Generated_Source\PSoC6\pdl\middleware\ble/cy_ble.c **** *  This is a blocking function and no event is generated.
 416:Generated_Source\PSoC6\pdl\middleware\ble/cy_ble.c **** *  Only #CY_BLE_SUCCESS will be returned and other error codes are not applicable.
 417:Generated_Source\PSoC6\pdl\middleware\ble/cy_ble.c **** *  UART interface will be stopped and UART data will not be processed by stack
 418:Generated_Source\PSoC6\pdl\middleware\ble/cy_ble.c **** *  until Cy_BLE_Enable() is invoked.
 419:Generated_Source\PSoC6\pdl\middleware\ble/cy_ble.c **** *
 420:Generated_Source\PSoC6\pdl\middleware\ble/cy_ble.c **** * \return
 421:Generated_Source\PSoC6\pdl\middleware\ble/cy_ble.c **** * \ref cy_en_ble_api_result_t : Return value indicates if the function succeeded or
 422:Generated_Source\PSoC6\pdl\middleware\ble/cy_ble.c **** *  failed. The following are possible error codes.
 423:Generated_Source\PSoC6\pdl\middleware\ble/cy_ble.c **** *
 424:Generated_Source\PSoC6\pdl\middleware\ble/cy_ble.c **** *  <table>
 425:Generated_Source\PSoC6\pdl\middleware\ble/cy_ble.c **** *    <tr>
 426:Generated_Source\PSoC6\pdl\middleware\ble/cy_ble.c **** *      <th>Error codes</th>
 427:Generated_Source\PSoC6\pdl\middleware\ble/cy_ble.c **** *      <th>Description</th>
 428:Generated_Source\PSoC6\pdl\middleware\ble/cy_ble.c **** *    </tr>
 429:Generated_Source\PSoC6\pdl\middleware\ble/cy_ble.c **** *    <tr>
ARM GAS  C:\Users\gjl\AppData\Local\Temp\ccXC41gm.s 			page 9


 430:Generated_Source\PSoC6\pdl\middleware\ble/cy_ble.c **** *      <td>CY_BLE_SUCCESS</td>
 431:Generated_Source\PSoC6\pdl\middleware\ble/cy_ble.c **** *      <td>On successful operation.</td>
 432:Generated_Source\PSoC6\pdl\middleware\ble/cy_ble.c **** *    </tr>
 433:Generated_Source\PSoC6\pdl\middleware\ble/cy_ble.c **** *    <tr>
 434:Generated_Source\PSoC6\pdl\middleware\ble/cy_ble.c **** *      <td>CY_BLE_ERROR_INVALID_OPERATION</td>
 435:Generated_Source\PSoC6\pdl\middleware\ble/cy_ble.c **** *      <td>On calling Cy_BLE_Disable before calling Cy_BLE_Enable() 
 436:Generated_Source\PSoC6\pdl\middleware\ble/cy_ble.c **** *          or on Controller core.</td>
 437:Generated_Source\PSoC6\pdl\middleware\ble/cy_ble.c **** *    </tr>
 438:Generated_Source\PSoC6\pdl\middleware\ble/cy_ble.c **** *  </table>
 439:Generated_Source\PSoC6\pdl\middleware\ble/cy_ble.c **** *
 440:Generated_Source\PSoC6\pdl\middleware\ble/cy_ble.c **** ******************************************************************************/
 441:Generated_Source\PSoC6\pdl\middleware\ble/cy_ble.c **** cy_en_ble_api_result_t Cy_BLE_Disable(void)
 442:Generated_Source\PSoC6\pdl\middleware\ble/cy_ble.c **** {
 443:Generated_Source\PSoC6\pdl\middleware\ble/cy_ble.c ****     cy_en_ble_api_result_t apiResult;
 444:Generated_Source\PSoC6\pdl\middleware\ble/cy_ble.c **** 
 445:Generated_Source\PSoC6\pdl\middleware\ble/cy_ble.c **** #if (CY_BLE_STACK_IPC_CONTR_CORE)
 446:Generated_Source\PSoC6\pdl\middleware\ble/cy_ble.c ****     /* To stop Controller call Cy_BLE_Disable() function on Host core */
 447:Generated_Source\PSoC6\pdl\middleware\ble/cy_ble.c ****     apiResult = CY_BLE_SUCCESS;             
 448:Generated_Source\PSoC6\pdl\middleware\ble/cy_ble.c **** #else
 449:Generated_Source\PSoC6\pdl\middleware\ble/cy_ble.c ****     /* Stops all ongoing activities */
 450:Generated_Source\PSoC6\pdl\middleware\ble/cy_ble.c ****     apiResult = Cy_BLE_StackShutdown();
 451:Generated_Source\PSoC6\pdl\middleware\ble/cy_ble.c ****     
 452:Generated_Source\PSoC6\pdl\middleware\ble/cy_ble.c ****     #if (CY_BLE_SHARING_MODE_EXPORT)
 453:Generated_Source\PSoC6\pdl\middleware\ble/cy_ble.c ****     if(cy_ble_stackMemoryRam != NULL)
 454:Generated_Source\PSoC6\pdl\middleware\ble/cy_ble.c ****     {
 455:Generated_Source\PSoC6\pdl\middleware\ble/cy_ble.c ****         free(cy_ble_stackMemoryRam);
 456:Generated_Source\PSoC6\pdl\middleware\ble/cy_ble.c ****     }
 457:Generated_Source\PSoC6\pdl\middleware\ble/cy_ble.c ****     #endif /* CY_BLE_SHARING_MODE_EXPORT */
 458:Generated_Source\PSoC6\pdl\middleware\ble/cy_ble.c **** #endif     /* CY_BLE_STACK_IPC_CONTR_CORE */
 459:Generated_Source\PSoC6\pdl\middleware\ble/cy_ble.c **** 
 460:Generated_Source\PSoC6\pdl\middleware\ble/cy_ble.c ****     return(apiResult);
 461:Generated_Source\PSoC6\pdl\middleware\ble/cy_ble.c **** }
 462:Generated_Source\PSoC6\pdl\middleware\ble/cy_ble.c **** 
 463:Generated_Source\PSoC6\pdl\middleware\ble/cy_ble.c **** 
 464:Generated_Source\PSoC6\pdl\middleware\ble/cy_ble.c **** /*******************************************************************************
 465:Generated_Source\PSoC6\pdl\middleware\ble/cy_ble.c **** * Function Name: Cy_BLE_ConfigureExtPA
 466:Generated_Source\PSoC6\pdl\middleware\ble/cy_ble.c **** ****************************************************************************//**
 467:Generated_Source\PSoC6\pdl\middleware\ble/cy_ble.c **** *
 468:Generated_Source\PSoC6\pdl\middleware\ble/cy_ble.c **** *  This function controls the external Power Amplifier and Low Noise Amplifier
 469:Generated_Source\PSoC6\pdl\middleware\ble/cy_ble.c **** *  outputs.
 470:Generated_Source\PSoC6\pdl\middleware\ble/cy_ble.c **** *
 471:Generated_Source\PSoC6\pdl\middleware\ble/cy_ble.c **** * \param controlValue Enables and controls polarity of the outputs.
 472:Generated_Source\PSoC6\pdl\middleware\ble/cy_ble.c **** *   To control external PA and LNA, the following mask defines are used:
 473:Generated_Source\PSoC6\pdl\middleware\ble/cy_ble.c **** *
 474:Generated_Source\PSoC6\pdl\middleware\ble/cy_ble.c **** *   - BLE_BLESS_EXT_PA_LNA_CTRL_ENABLE_EXT_PA_LNA_Msk - When set to 1, enables
 475:Generated_Source\PSoC6\pdl\middleware\ble/cy_ble.c **** *       the external PA & LNA and BLESS power profile for energy profiler
 476:Generated_Source\PSoC6\pdl\middleware\ble/cy_ble.c **** *   - BLE_BLESS_EXT_PA_LNA_CTRL_CHIP_EN_POL_Msk - Controls the polarity of the 
 477:Generated_Source\PSoC6\pdl\middleware\ble/cy_ble.c **** *       chip-enable control signal:
 478:Generated_Source\PSoC6\pdl\middleware\ble/cy_ble.c **** *       * 0 - High enable, Low disable
 479:Generated_Source\PSoC6\pdl\middleware\ble/cy_ble.c **** *       * 1 - Low enable, High disable, Incorrect power profile
 480:Generated_Source\PSoC6\pdl\middleware\ble/cy_ble.c **** *   - BLE_BLESS_EXT_PA_LNA_CTRL_PA_CTRL_POL_Msk - Controls the polarity of the PA
 481:Generated_Source\PSoC6\pdl\middleware\ble/cy_ble.c **** *       control signal:
 482:Generated_Source\PSoC6\pdl\middleware\ble/cy_ble.c **** *       * 0 - High enable, Low disable
 483:Generated_Source\PSoC6\pdl\middleware\ble/cy_ble.c **** *       * 1 - Low enable, High disable, Incorrect power profile
 484:Generated_Source\PSoC6\pdl\middleware\ble/cy_ble.c **** *   - BLE_BLESS_EXT_PA_LNA_CTRL_LNA_CTRL_POL_Msk - Controls the polarity of the LNA
 485:Generated_Source\PSoC6\pdl\middleware\ble/cy_ble.c **** *       control signal:
 486:Generated_Source\PSoC6\pdl\middleware\ble/cy_ble.c **** *       * 0 - High enable, Low disable
ARM GAS  C:\Users\gjl\AppData\Local\Temp\ccXC41gm.s 			page 10


 487:Generated_Source\PSoC6\pdl\middleware\ble/cy_ble.c **** *       * 1 - Low enable, High disable, Incorrect power profile
 488:Generated_Source\PSoC6\pdl\middleware\ble/cy_ble.c **** *   - BLE_BLESS_EXT_PA_LNA_CTRL_OUT_EN_DRIVE_VAL_Msk  - Configures the drive value
 489:Generated_Source\PSoC6\pdl\middleware\ble/cy_ble.c **** *       on the output enables of PA, LNA and CHI_EN signals
 490:Generated_Source\PSoC6\pdl\middleware\ble/cy_ble.c **** *       * 0 - drive 0 on the output enable signals
 491:Generated_Source\PSoC6\pdl\middleware\ble/cy_ble.c **** *       * 1 - drive 1 on the output enable signals
 492:Generated_Source\PSoC6\pdl\middleware\ble/cy_ble.c **** *
 493:Generated_Source\PSoC6\pdl\middleware\ble/cy_ble.c **** * \return
 494:Generated_Source\PSoC6\pdl\middleware\ble/cy_ble.c **** *  None
 495:Generated_Source\PSoC6\pdl\middleware\ble/cy_ble.c **** *
 496:Generated_Source\PSoC6\pdl\middleware\ble/cy_ble.c **** *******************************************************************************/
 497:Generated_Source\PSoC6\pdl\middleware\ble/cy_ble.c **** void Cy_BLE_ConfigureExtPA(uint32_t controlValue)
 498:Generated_Source\PSoC6\pdl\middleware\ble/cy_ble.c **** {
 499:Generated_Source\PSoC6\pdl\middleware\ble/cy_ble.c ****     BLE->BLESS.EXT_PA_LNA_CTRL = controlValue;
 500:Generated_Source\PSoC6\pdl\middleware\ble/cy_ble.c **** }
 501:Generated_Source\PSoC6\pdl\middleware\ble/cy_ble.c **** 
 502:Generated_Source\PSoC6\pdl\middleware\ble/cy_ble.c **** #if (CY_BLE_INTR_NOTIFY_FEATURE_ENABLED) && (CY_BLE_HOST_CORE)
 503:Generated_Source\PSoC6\pdl\middleware\ble/cy_ble.c **** /*******************************************************************************
 504:Generated_Source\PSoC6\pdl\middleware\ble/cy_ble.c **** * Function Name: Cy_BLE_RegisterInterruptCallback
 505:Generated_Source\PSoC6\pdl\middleware\ble/cy_ble.c **** ****************************************************************************//**
 506:Generated_Source\PSoC6\pdl\middleware\ble/cy_ble.c **** *
 507:Generated_Source\PSoC6\pdl\middleware\ble/cy_ble.c **** *  This function registers a callback to expose BLE interrupt notifications to an 
 508:Generated_Source\PSoC6\pdl\middleware\ble/cy_ble.c **** *  application that indicates a different link layer and radio state transition
 509:Generated_Source\PSoC6\pdl\middleware\ble/cy_ble.c **** *  to the user from the BLESS interrupt context. This callback is triggered at 
 510:Generated_Source\PSoC6\pdl\middleware\ble/cy_ble.c **** *  the beginning of a received BLESS interrupt (based on the registered 
 511:Generated_Source\PSoC6\pdl\middleware\ble/cy_ble.c **** *  interrupt mask).
 512:Generated_Source\PSoC6\pdl\middleware\ble/cy_ble.c **** *
 513:Generated_Source\PSoC6\pdl\middleware\ble/cy_ble.c **** *  An application can use an interrupt callback to know when: 
 514:Generated_Source\PSoC6\pdl\middleware\ble/cy_ble.c **** *  * the RF activity is about to begin/end; 
 515:Generated_Source\PSoC6\pdl\middleware\ble/cy_ble.c **** *  * the BLE device changes its state from advertising to connected; 
 516:Generated_Source\PSoC6\pdl\middleware\ble/cy_ble.c **** *  * BLESS transits between active and low-power modes.
 517:Generated_Source\PSoC6\pdl\middleware\ble/cy_ble.c **** *    
 518:Generated_Source\PSoC6\pdl\middleware\ble/cy_ble.c **** *  These BLESS real-time states can be used to synchronize
 519:Generated_Source\PSoC6\pdl\middleware\ble/cy_ble.c **** *  an application with the BLESS or prevent radio interference with other 
 520:Generated_Source\PSoC6\pdl\middleware\ble/cy_ble.c **** *  peripherals, etc.
 521:Generated_Source\PSoC6\pdl\middleware\ble/cy_ble.c **** *    
 522:Generated_Source\PSoC6\pdl\middleware\ble/cy_ble.c **** *  BLE interrupt notifications feature enables via define in cy_ble_config.h:
 523:Generated_Source\PSoC6\pdl\middleware\ble/cy_ble.c **** *  \code   
 524:Generated_Source\PSoC6\pdl\middleware\ble/cy_ble.c **** *  #define CY_BLE_INTR_NOTIFY_FEATURE_ENABLE       (1u)
 525:Generated_Source\PSoC6\pdl\middleware\ble/cy_ble.c **** *  \endcode    
 526:Generated_Source\PSoC6\pdl\middleware\ble/cy_ble.c **** *
 527:Generated_Source\PSoC6\pdl\middleware\ble/cy_ble.c **** *  BLE Dual mode requires an additional define IPC channel and IPC Interrupt 
 528:Generated_Source\PSoC6\pdl\middleware\ble/cy_ble.c **** *  structure to send notifications from the controller core to host core. 
 529:Generated_Source\PSoC6\pdl\middleware\ble/cy_ble.c **** *  Use the following defines:
 530:Generated_Source\PSoC6\pdl\middleware\ble/cy_ble.c **** *  \code    
 531:Generated_Source\PSoC6\pdl\middleware\ble/cy_ble.c **** *  #define CY_BLE_INTR_NOTIFY_IPC_CHAN             (9..15)
 532:Generated_Source\PSoC6\pdl\middleware\ble/cy_ble.c **** *  #define CY_BLE_INTR_NOTIFY_IPC_INTR             (9..15)
 533:Generated_Source\PSoC6\pdl\middleware\ble/cy_ble.c **** *  #define CY_BLE_INTR_NOTIFY_IPC_INTR_PRIOR       (0..7)  
 534:Generated_Source\PSoC6\pdl\middleware\ble/cy_ble.c **** *  \endcode
 535:Generated_Source\PSoC6\pdl\middleware\ble/cy_ble.c **** *    
 536:Generated_Source\PSoC6\pdl\middleware\ble/cy_ble.c **** *  \param intrMask
 537:Generated_Source\PSoC6\pdl\middleware\ble/cy_ble.c **** *  All interrupts masks are specified in the #cy_en_ble_interrupt_callback_feature_t
 538:Generated_Source\PSoC6\pdl\middleware\ble/cy_ble.c **** *  enumeration.
 539:Generated_Source\PSoC6\pdl\middleware\ble/cy_ble.c **** *    
 540:Generated_Source\PSoC6\pdl\middleware\ble/cy_ble.c **** *  \param CallBack
 541:Generated_Source\PSoC6\pdl\middleware\ble/cy_ble.c **** *  The pointer to an application notify callback.
 542:Generated_Source\PSoC6\pdl\middleware\ble/cy_ble.c **** *
 543:Generated_Source\PSoC6\pdl\middleware\ble/cy_ble.c **** * \return
ARM GAS  C:\Users\gjl\AppData\Local\Temp\ccXC41gm.s 			page 11


 544:Generated_Source\PSoC6\pdl\middleware\ble/cy_ble.c **** * \ref cy_en_ble_api_result_t : The return value indicates if the function succeeded or
 545:Generated_Source\PSoC6\pdl\middleware\ble/cy_ble.c **** *  failed. The possible error codes:
 546:Generated_Source\PSoC6\pdl\middleware\ble/cy_ble.c **** *
 547:Generated_Source\PSoC6\pdl\middleware\ble/cy_ble.c **** *    Errors codes                   | Description
 548:Generated_Source\PSoC6\pdl\middleware\ble/cy_ble.c **** *    ------------                   | -----------
 549:Generated_Source\PSoC6\pdl\middleware\ble/cy_ble.c **** *    CY_BLE_SUCCESS                 | The callback is registered successfully.
 550:Generated_Source\PSoC6\pdl\middleware\ble/cy_ble.c **** *    CY_BLE_ERROR_INVALID_PARAMETER | Validation of the input parameters failed.
 551:Generated_Source\PSoC6\pdl\middleware\ble/cy_ble.c **** *    CY_BLE_ERROR_INVALID_OPERATION | The IPC channel is busy (Dual core mode only).
 552:Generated_Source\PSoC6\pdl\middleware\ble/cy_ble.c **** *
 553:Generated_Source\PSoC6\pdl\middleware\ble/cy_ble.c **** *******************************************************************************/   
 554:Generated_Source\PSoC6\pdl\middleware\ble/cy_ble.c **** cy_en_ble_api_result_t Cy_BLE_RegisterInterruptCallback(uint32_t intrMask, cy_ble_intr_callback_t C
 555:Generated_Source\PSoC6\pdl\middleware\ble/cy_ble.c **** { 
 556:Generated_Source\PSoC6\pdl\middleware\ble/cy_ble.c ****     cy_en_ble_api_result_t apiResult = CY_BLE_SUCCESS;
 557:Generated_Source\PSoC6\pdl\middleware\ble/cy_ble.c ****     
 558:Generated_Source\PSoC6\pdl\middleware\ble/cy_ble.c ****     if(CallBack != NULL)
 559:Generated_Source\PSoC6\pdl\middleware\ble/cy_ble.c ****     {
 560:Generated_Source\PSoC6\pdl\middleware\ble/cy_ble.c ****         /* Store the application callback and interrupt mask */
 561:Generated_Source\PSoC6\pdl\middleware\ble/cy_ble.c ****         Cy_BLE_InterruptCallback = CallBack;
 562:Generated_Source\PSoC6\pdl\middleware\ble/cy_ble.c ****         intrNotify.mask = intrMask;
 563:Generated_Source\PSoC6\pdl\middleware\ble/cy_ble.c ****         
 564:Generated_Source\PSoC6\pdl\middleware\ble/cy_ble.c ****         /* Set up the IPC for Dual Stack mode */
 565:Generated_Source\PSoC6\pdl\middleware\ble/cy_ble.c ****         #if(CY_BLE_STACK_MODE_HOST_IPC)
 566:Generated_Source\PSoC6\pdl\middleware\ble/cy_ble.c ****         {  
 567:Generated_Source\PSoC6\pdl\middleware\ble/cy_ble.c ****             if(!intrNotify.configFlag)
 568:Generated_Source\PSoC6\pdl\middleware\ble/cy_ble.c ****             {
 569:Generated_Source\PSoC6\pdl\middleware\ble/cy_ble.c ****                 uint32_t rTimeout = 2000u; /* us */
 570:Generated_Source\PSoC6\pdl\middleware\ble/cy_ble.c ****                 cy_en_ipc_pipe_status_t ipcStatus;
 571:Generated_Source\PSoC6\pdl\middleware\ble/cy_ble.c ****                 cy_stc_sysint_t intrConfig =
 572:Generated_Source\PSoC6\pdl\middleware\ble/cy_ble.c ****                 {
 573:Generated_Source\PSoC6\pdl\middleware\ble/cy_ble.c ****                     .intrPriority = (uint32_t)CY_BLE_INTR_NOTIFY_IPC_INTR_PRIOR,
 574:Generated_Source\PSoC6\pdl\middleware\ble/cy_ble.c ****                     .intrSrc      = (IRQn_Type)CY_IPC_INTR_NUM_TO_VECT((int32_t)CY_BLE_INTR_NOTIFY_
 575:Generated_Source\PSoC6\pdl\middleware\ble/cy_ble.c ****                 };
 576:Generated_Source\PSoC6\pdl\middleware\ble/cy_ble.c ****             
 577:Generated_Source\PSoC6\pdl\middleware\ble/cy_ble.c ****                 /* Initialize the interrupt controller for CM4 and IPC Interrupt */
 578:Generated_Source\PSoC6\pdl\middleware\ble/cy_ble.c ****                 (void)Cy_SysInt_Init(&intrConfig, &Cy_BLE_HAL_IntrNotifyIpcHandler);
 579:Generated_Source\PSoC6\pdl\middleware\ble/cy_ble.c ****                 NVIC_EnableIRQ(intrConfig.intrSrc);
 580:Generated_Source\PSoC6\pdl\middleware\ble/cy_ble.c ****         
 581:Generated_Source\PSoC6\pdl\middleware\ble/cy_ble.c ****                 /* Do not bring up an IPC release interrupt here, only set up a notify interrupt */
 582:Generated_Source\PSoC6\pdl\middleware\ble/cy_ble.c ****                 Cy_IPC_Drv_SetInterruptMask(Cy_IPC_Drv_GetIntrBaseAddr(CY_BLE_INTR_NOTIFY_IPC_INTR)
 583:Generated_Source\PSoC6\pdl\middleware\ble/cy_ble.c ****                                             CY_IPC_NO_NOTIFICATION, (1uL << CY_BLE_INTR_NOTIFY_IPC_
 584:Generated_Source\PSoC6\pdl\middleware\ble/cy_ble.c ****                 
 585:Generated_Source\PSoC6\pdl\middleware\ble/cy_ble.c ****                 /* 
 586:Generated_Source\PSoC6\pdl\middleware\ble/cy_ble.c ****                  * Send the address of the intrNotify structure to the controller core via CyPipe
 587:Generated_Source\PSoC6\pdl\middleware\ble/cy_ble.c ****                  * The IPC Pipe can be busy, then try sending a message during 2 ms. 
 588:Generated_Source\PSoC6\pdl\middleware\ble/cy_ble.c ****                  */
 589:Generated_Source\PSoC6\pdl\middleware\ble/cy_ble.c ****                 do
 590:Generated_Source\PSoC6\pdl\middleware\ble/cy_ble.c ****                 {
 591:Generated_Source\PSoC6\pdl\middleware\ble/cy_ble.c ****                     ipcStatus = Cy_IPC_Pipe_SendMessage(CY_BLE_IPC_CONTROLLER_ADDR, CY_BLE_IPC_HOST
 592:Generated_Source\PSoC6\pdl\middleware\ble/cy_ble.c ****                                                         (void *)&intrNotify, NULL);
 593:Generated_Source\PSoC6\pdl\middleware\ble/cy_ble.c ****                     Cy_SysLib_DelayUs(1u);
 594:Generated_Source\PSoC6\pdl\middleware\ble/cy_ble.c ****                     rTimeout--;
 595:Generated_Source\PSoC6\pdl\middleware\ble/cy_ble.c ****                 }while((ipcStatus != CY_IPC_PIPE_SUCCESS) && (rTimeout != 0u));
 596:Generated_Source\PSoC6\pdl\middleware\ble/cy_ble.c ****               
 597:Generated_Source\PSoC6\pdl\middleware\ble/cy_ble.c ****                 if(ipcStatus != CY_IPC_PIPE_SUCCESS)
 598:Generated_Source\PSoC6\pdl\middleware\ble/cy_ble.c ****                 {
 599:Generated_Source\PSoC6\pdl\middleware\ble/cy_ble.c ****                     apiResult = CY_BLE_ERROR_INVALID_OPERATION;
 600:Generated_Source\PSoC6\pdl\middleware\ble/cy_ble.c ****                 }
ARM GAS  C:\Users\gjl\AppData\Local\Temp\ccXC41gm.s 			page 12


 601:Generated_Source\PSoC6\pdl\middleware\ble/cy_ble.c ****             }
 602:Generated_Source\PSoC6\pdl\middleware\ble/cy_ble.c ****         }
 603:Generated_Source\PSoC6\pdl\middleware\ble/cy_ble.c ****         #else 
 604:Generated_Source\PSoC6\pdl\middleware\ble/cy_ble.c ****             intrNotifyPtr = &intrNotify; 
 605:Generated_Source\PSoC6\pdl\middleware\ble/cy_ble.c ****         #endif /* CY_BLE_STACK_MODE_HOST_IPC */
 606:Generated_Source\PSoC6\pdl\middleware\ble/cy_ble.c ****        
 607:Generated_Source\PSoC6\pdl\middleware\ble/cy_ble.c ****     }
 608:Generated_Source\PSoC6\pdl\middleware\ble/cy_ble.c ****     else
 609:Generated_Source\PSoC6\pdl\middleware\ble/cy_ble.c ****     {
 610:Generated_Source\PSoC6\pdl\middleware\ble/cy_ble.c ****         apiResult = CY_BLE_ERROR_INVALID_PARAMETER;
 611:Generated_Source\PSoC6\pdl\middleware\ble/cy_ble.c ****     }
 612:Generated_Source\PSoC6\pdl\middleware\ble/cy_ble.c ****     return apiResult; 
 613:Generated_Source\PSoC6\pdl\middleware\ble/cy_ble.c **** }
 614:Generated_Source\PSoC6\pdl\middleware\ble/cy_ble.c **** 
 615:Generated_Source\PSoC6\pdl\middleware\ble/cy_ble.c **** 
 616:Generated_Source\PSoC6\pdl\middleware\ble/cy_ble.c **** /*******************************************************************************
 617:Generated_Source\PSoC6\pdl\middleware\ble/cy_ble.c **** * Function Name: Cy_BLE_UnRegisterInterruptCallback
 618:Generated_Source\PSoC6\pdl\middleware\ble/cy_ble.c **** ****************************************************************************//**
 619:Generated_Source\PSoC6\pdl\middleware\ble/cy_ble.c **** *
 620:Generated_Source\PSoC6\pdl\middleware\ble/cy_ble.c **** *  This function un-registers callback which exposed BLE interrupt 
 621:Generated_Source\PSoC6\pdl\middleware\ble/cy_ble.c **** *  notifications to the application. 
 622:Generated_Source\PSoC6\pdl\middleware\ble/cy_ble.c **** *
 623:Generated_Source\PSoC6\pdl\middleware\ble/cy_ble.c **** * \return
 624:Generated_Source\PSoC6\pdl\middleware\ble/cy_ble.c **** * \ref cy_en_ble_api_result_t : Return value indicates if the function succeeded or
 625:Generated_Source\PSoC6\pdl\middleware\ble/cy_ble.c **** *  failed. The following are possible error codes.
 626:Generated_Source\PSoC6\pdl\middleware\ble/cy_ble.c **** *    
 627:Generated_Source\PSoC6\pdl\middleware\ble/cy_ble.c **** *    Errors codes                   | Description
 628:Generated_Source\PSoC6\pdl\middleware\ble/cy_ble.c **** *    ------------                   | -----------
 629:Generated_Source\PSoC6\pdl\middleware\ble/cy_ble.c **** *    CY_BLE_SUCCESS                 | The callback is registered successfully.
 630:Generated_Source\PSoC6\pdl\middleware\ble/cy_ble.c **** *    CY_BLE_ERROR_INVALID_OPERATION | The IPC channel is busy (Dual core mode only).
 631:Generated_Source\PSoC6\pdl\middleware\ble/cy_ble.c **** *
 632:Generated_Source\PSoC6\pdl\middleware\ble/cy_ble.c **** *******************************************************************************/
 633:Generated_Source\PSoC6\pdl\middleware\ble/cy_ble.c **** cy_en_ble_api_result_t Cy_BLE_UnRegisterInterruptCallback(void)
 634:Generated_Source\PSoC6\pdl\middleware\ble/cy_ble.c **** {
 635:Generated_Source\PSoC6\pdl\middleware\ble/cy_ble.c ****     cy_en_ble_api_result_t apiResult = CY_BLE_SUCCESS;
 636:Generated_Source\PSoC6\pdl\middleware\ble/cy_ble.c ****     if(Cy_BLE_InterruptCallback != NULL)
 637:Generated_Source\PSoC6\pdl\middleware\ble/cy_ble.c ****     {
 638:Generated_Source\PSoC6\pdl\middleware\ble/cy_ble.c ****         /* Clean interrupt mask */
 639:Generated_Source\PSoC6\pdl\middleware\ble/cy_ble.c ****         apiResult = Cy_BLE_RegisterInterruptCallback((uint32_t)CY_BLE_INTR_CALLBACK_NONE, 
 640:Generated_Source\PSoC6\pdl\middleware\ble/cy_ble.c ****                                                      Cy_BLE_InterruptCallback);
 641:Generated_Source\PSoC6\pdl\middleware\ble/cy_ble.c ****         if(apiResult == CY_BLE_SUCCESS)
 642:Generated_Source\PSoC6\pdl\middleware\ble/cy_ble.c ****         {
 643:Generated_Source\PSoC6\pdl\middleware\ble/cy_ble.c ****             /* Clean callback pointer */
 644:Generated_Source\PSoC6\pdl\middleware\ble/cy_ble.c ****             Cy_BLE_InterruptCallback = NULL;
 645:Generated_Source\PSoC6\pdl\middleware\ble/cy_ble.c ****         }
 646:Generated_Source\PSoC6\pdl\middleware\ble/cy_ble.c ****     }
 647:Generated_Source\PSoC6\pdl\middleware\ble/cy_ble.c ****     return(apiResult);    
 648:Generated_Source\PSoC6\pdl\middleware\ble/cy_ble.c **** }
 649:Generated_Source\PSoC6\pdl\middleware\ble/cy_ble.c **** 
 650:Generated_Source\PSoC6\pdl\middleware\ble/cy_ble.c **** #endif /* (CY_BLE_INTR_NOTIFY_FEATURE_ENABLED) && (CY_BLE_HOST_CORE) */
 651:Generated_Source\PSoC6\pdl\middleware\ble/cy_ble.c **** 
 652:Generated_Source\PSoC6\pdl\middleware\ble/cy_ble.c **** 
 653:Generated_Source\PSoC6\pdl\middleware\ble/cy_ble.c **** #if (CY_BLE_MODE_PROFILE)
 654:Generated_Source\PSoC6\pdl\middleware\ble/cy_ble.c **** 
 655:Generated_Source\PSoC6\pdl\middleware\ble/cy_ble.c **** /*******************************************************************************
 656:Generated_Source\PSoC6\pdl\middleware\ble/cy_ble.c **** * Function Name: Cy_BLE_RegisterAppHostCallback
 657:Generated_Source\PSoC6\pdl\middleware\ble/cy_ble.c **** ****************************************************************************//**
ARM GAS  C:\Users\gjl\AppData\Local\Temp\ccXC41gm.s 			page 13


 658:Generated_Source\PSoC6\pdl\middleware\ble/cy_ble.c **** *
 659:Generated_Source\PSoC6\pdl\middleware\ble/cy_ble.c **** * This function registers an application Host callback (BLE RTOS hook). 
 660:Generated_Source\PSoC6\pdl\middleware\ble/cy_ble.c **** * The user can trigger an RTOS BLE task if the application Host callback was
 661:Generated_Source\PSoC6\pdl\middleware\ble/cy_ble.c **** * called.
 662:Generated_Source\PSoC6\pdl\middleware\ble/cy_ble.c **** * 
 663:Generated_Source\PSoC6\pdl\middleware\ble/cy_ble.c **** * Theory of operation:
 664:Generated_Source\PSoC6\pdl\middleware\ble/cy_ble.c **** * The BLE Middleware triggers this callback when the BLE Stack controller needs
 665:Generated_Source\PSoC6\pdl\middleware\ble/cy_ble.c **** * to process pending Stack events (by calling Cy_BLE_ProcessEvents()). This
 666:Generated_Source\PSoC6\pdl\middleware\ble/cy_ble.c **** * callback executes from within an ISR and must be very short.  
 667:Generated_Source\PSoC6\pdl\middleware\ble/cy_ble.c **** *    
 668:Generated_Source\PSoC6\pdl\middleware\ble/cy_ble.c **** * \note The application Host callback is called from the context of a high-
 669:Generated_Source\PSoC6\pdl\middleware\ble/cy_ble.c **** * priority ISR. Some RTOS (e.g. FreeRTOS) have restrictions on calling the RTOS
 670:Generated_Source\PSoC6\pdl\middleware\ble/cy_ble.c **** * functions from a high-priority ISR. The user application is responsible for
 671:Generated_Source\PSoC6\pdl\middleware\ble/cy_ble.c **** * integration of the BLE RTOS hook and RTOS functions and must insure that RTOS 
 672:Generated_Source\PSoC6\pdl\middleware\ble/cy_ble.c **** * allows to call RTOS API from BLE interrupt context.  
 673:Generated_Source\PSoC6\pdl\middleware\ble/cy_ble.c **** * If direct call is forbidden one of the possible solutions is to trig a 
 674:Generated_Source\PSoC6\pdl\middleware\ble/cy_ble.c **** * low-priority interrupt from the application Host callback and then call the
 675:Generated_Source\PSoC6\pdl\middleware\ble/cy_ble.c **** * RTOS functions from a low-priority interrupt. For details refer to specific
 676:Generated_Source\PSoC6\pdl\middleware\ble/cy_ble.c **** * RTOS documentation.
 677:Generated_Source\PSoC6\pdl\middleware\ble/cy_ble.c **** *   
 678:Generated_Source\PSoC6\pdl\middleware\ble/cy_ble.c **** * \param CallBack
 679:Generated_Source\PSoC6\pdl\middleware\ble/cy_ble.c **** * The pointer to the application Host callback.
 680:Generated_Source\PSoC6\pdl\middleware\ble/cy_ble.c **** *
 681:Generated_Source\PSoC6\pdl\middleware\ble/cy_ble.c **** * \return
 682:Generated_Source\PSoC6\pdl\middleware\ble/cy_ble.c **** *  Error Codes                        | Description
 683:Generated_Source\PSoC6\pdl\middleware\ble/cy_ble.c **** *  ------------                       | -----------
 684:Generated_Source\PSoC6\pdl\middleware\ble/cy_ble.c **** *   CY_BLE_SUCCESS                    | The callback was registered successfully.
 685:Generated_Source\PSoC6\pdl\middleware\ble/cy_ble.c **** *   CY_BLE_ERROR_INVALID_PARAMETER    | On specifying NULL as the input parameter.
 686:Generated_Source\PSoC6\pdl\middleware\ble/cy_ble.c **** *
 687:Generated_Source\PSoC6\pdl\middleware\ble/cy_ble.c **** *******************************************************************************/
 688:Generated_Source\PSoC6\pdl\middleware\ble/cy_ble.c **** 
 689:Generated_Source\PSoC6\pdl\middleware\ble/cy_ble.c **** cy_en_ble_api_result_t Cy_BLE_RegisterAppHostCallback(cy_ble_app_notify_callback_t CallBack)
 690:Generated_Source\PSoC6\pdl\middleware\ble/cy_ble.c **** {
 691:Generated_Source\PSoC6\pdl\middleware\ble/cy_ble.c ****     cy_en_ble_api_result_t apiResult = CY_BLE_SUCCESS;
 692:Generated_Source\PSoC6\pdl\middleware\ble/cy_ble.c ****     
 693:Generated_Source\PSoC6\pdl\middleware\ble/cy_ble.c ****     if(CallBack != NULL)
 694:Generated_Source\PSoC6\pdl\middleware\ble/cy_ble.c ****     {
 695:Generated_Source\PSoC6\pdl\middleware\ble/cy_ble.c ****         Cy_BLE_HostRegisteredCallback = CallBack;
 696:Generated_Source\PSoC6\pdl\middleware\ble/cy_ble.c ****     }
 697:Generated_Source\PSoC6\pdl\middleware\ble/cy_ble.c ****     else
 698:Generated_Source\PSoC6\pdl\middleware\ble/cy_ble.c ****     {
 699:Generated_Source\PSoC6\pdl\middleware\ble/cy_ble.c ****         apiResult = CY_BLE_ERROR_INVALID_PARAMETER;
 700:Generated_Source\PSoC6\pdl\middleware\ble/cy_ble.c ****     }   
 701:Generated_Source\PSoC6\pdl\middleware\ble/cy_ble.c ****     return apiResult;
 702:Generated_Source\PSoC6\pdl\middleware\ble/cy_ble.c **** }
 703:Generated_Source\PSoC6\pdl\middleware\ble/cy_ble.c **** 
 704:Generated_Source\PSoC6\pdl\middleware\ble/cy_ble.c **** /*******************************************************************************
 705:Generated_Source\PSoC6\pdl\middleware\ble/cy_ble.c **** * Function Name: Cy_BLE_UnRegisterAppHostCallback
 706:Generated_Source\PSoC6\pdl\middleware\ble/cy_ble.c **** ****************************************************************************//**
 707:Generated_Source\PSoC6\pdl\middleware\ble/cy_ble.c **** *
 708:Generated_Source\PSoC6\pdl\middleware\ble/cy_ble.c **** * This function un-registers an application Host callback (BLE RTOS hook). 
 709:Generated_Source\PSoC6\pdl\middleware\ble/cy_ble.c **** *
 710:Generated_Source\PSoC6\pdl\middleware\ble/cy_ble.c **** *******************************************************************************/
 711:Generated_Source\PSoC6\pdl\middleware\ble/cy_ble.c **** void Cy_BLE_UnRegisterAppHostCallback(void)
 712:Generated_Source\PSoC6\pdl\middleware\ble/cy_ble.c **** {
 713:Generated_Source\PSoC6\pdl\middleware\ble/cy_ble.c ****     Cy_BLE_HostRegisteredCallback = NULL;
 714:Generated_Source\PSoC6\pdl\middleware\ble/cy_ble.c **** }
ARM GAS  C:\Users\gjl\AppData\Local\Temp\ccXC41gm.s 			page 14


 715:Generated_Source\PSoC6\pdl\middleware\ble/cy_ble.c **** #endif /* (CY_BLE_MODE_PROFILE) */
 716:Generated_Source\PSoC6\pdl\middleware\ble/cy_ble.c **** 
 717:Generated_Source\PSoC6\pdl\middleware\ble/cy_ble.c **** 
 718:Generated_Source\PSoC6\pdl\middleware\ble/cy_ble.c **** #if (CY_BLE_USE_DEEP_SLEEP != 0u)
 719:Generated_Source\PSoC6\pdl\middleware\ble/cy_ble.c **** /*******************************************************************************
 720:Generated_Source\PSoC6\pdl\middleware\ble/cy_ble.c **** * Function Name: Cy_BLE_DeepSleepCallback
 721:Generated_Source\PSoC6\pdl\middleware\ble/cy_ble.c **** ****************************************************************************//**
 722:Generated_Source\PSoC6\pdl\middleware\ble/cy_ble.c **** *
 723:Generated_Source\PSoC6\pdl\middleware\ble/cy_ble.c **** * This function requests the BLE Stack to put Bluetooth Low Energy Sub-System
 724:Generated_Source\PSoC6\pdl\middleware\ble/cy_ble.c **** * (BLESS) to DeepSleep mode.
 725:Generated_Source\PSoC6\pdl\middleware\ble/cy_ble.c **** *
 726:Generated_Source\PSoC6\pdl\middleware\ble/cy_ble.c **** * It is registered to the system power mode by Cy_SysPm_RegisterCallback()
 727:Generated_Source\PSoC6\pdl\middleware\ble/cy_ble.c **** * function with CY_SYSPM_DEEPSLEEP type. After registration it is called by
 728:Generated_Source\PSoC6\pdl\middleware\ble/cy_ble.c **** * Cy_SysPm_DeepSleep() function prior entering the core into the Deep Sleep
 729:Generated_Source\PSoC6\pdl\middleware\ble/cy_ble.c **** * power mode.
 730:Generated_Source\PSoC6\pdl\middleware\ble/cy_ble.c **** *
 731:Generated_Source\PSoC6\pdl\middleware\ble/cy_ble.c **** * When it is called with the enMode parameter set to CY_SYSPM_CHECK_READY,
 732:Generated_Source\PSoC6\pdl\middleware\ble/cy_ble.c **** * function enters BLESS to CY_BLE_BLESS_DEEPSLEEP mode. It also checks the
 733:Generated_Source\PSoC6\pdl\middleware\ble/cy_ble.c **** * BLE Subsystem's current operational mode. When the
 734:Generated_Source\PSoC6\pdl\middleware\ble/cy_ble.c **** * Cy_BLE_StackGetBleSsState() function returns CY_BLE_BLESS_STATE_ECO_ON or
 735:Generated_Source\PSoC6\pdl\middleware\ble/cy_ble.c **** * CY_BLE_BLESS_STATE_DEEPSLEEP state, this function returns CY_SYSPM_PASS and
 736:Generated_Source\PSoC6\pdl\middleware\ble/cy_ble.c **** * allows to put the core into the Deep Sleep power mode.
 737:Generated_Source\PSoC6\pdl\middleware\ble/cy_ble.c **** * At all other times, the function tries to enter core into sleep mode.
 738:Generated_Source\PSoC6\pdl\middleware\ble/cy_ble.c **** *
 739:Generated_Source\PSoC6\pdl\middleware\ble/cy_ble.c **** * This function is available only when BLE low power mode is enabled in the
 740:Generated_Source\PSoC6\pdl\middleware\ble/cy_ble.c **** * Advanced tab of customizer.
 741:Generated_Source\PSoC6\pdl\middleware\ble/cy_ble.c **** *
 742:Generated_Source\PSoC6\pdl\middleware\ble/cy_ble.c **** * \param
 743:Generated_Source\PSoC6\pdl\middleware\ble/cy_ble.c **** * callbackParams  pointer to the structure with the syspm callback parameters
 744:Generated_Source\PSoC6\pdl\middleware\ble/cy_ble.c **** *                 callbackParams->mode - the callback mode, see description 
 745:Generated_Source\PSoC6\pdl\middleware\ble/cy_ble.c **** *                 of the cy_en_syspm_callback_mode_t type.
 746:Generated_Source\PSoC6\pdl\middleware\ble/cy_ble.c **** *
 747:Generated_Source\PSoC6\pdl\middleware\ble/cy_ble.c **** * \return
 748:Generated_Source\PSoC6\pdl\middleware\ble/cy_ble.c **** * * CY_SYSPM_SUCCESS  - Entered and exited from DeepSleep
 749:Generated_Source\PSoC6\pdl\middleware\ble/cy_ble.c **** * * CY_SYSPM_FAIL     - DeepSleep not entered.
 750:Generated_Source\PSoC6\pdl\middleware\ble/cy_ble.c **** *
 751:Generated_Source\PSoC6\pdl\middleware\ble/cy_ble.c **** *******************************************************************************/
 752:Generated_Source\PSoC6\pdl\middleware\ble/cy_ble.c **** cy_en_syspm_status_t Cy_BLE_DeepSleepCallback(cy_stc_syspm_callback_params_t *callbackParams)
 753:Generated_Source\PSoC6\pdl\middleware\ble/cy_ble.c **** {
  28              		.loc 1 753 0
  29              		.cfi_startproc
  30              		@ args = 0, pretend = 0, frame = 0
  31              		@ frame_needed = 0, uses_anonymous_args = 0
  32              	.LVL0:
  33 0000 70B5     		push	{r4, r5, r6, lr}
  34              		.cfi_def_cfa_offset 16
  35              		.cfi_offset 4, -16
  36              		.cfi_offset 5, -12
  37              		.cfi_offset 6, -8
  38              		.cfi_offset 14, -4
 754:Generated_Source\PSoC6\pdl\middleware\ble/cy_ble.c ****     cy_en_syspm_status_t retVal;
 755:Generated_Source\PSoC6\pdl\middleware\ble/cy_ble.c ****     static uint32_t interruptState = 0u;
 756:Generated_Source\PSoC6\pdl\middleware\ble/cy_ble.c ****     cy_en_ble_bless_state_t blessState;
 757:Generated_Source\PSoC6\pdl\middleware\ble/cy_ble.c ****     
 758:Generated_Source\PSoC6\pdl\middleware\ble/cy_ble.c ****     /* Local variable to store the status of BLESS Hardware block */
 759:Generated_Source\PSoC6\pdl\middleware\ble/cy_ble.c ****     cy_en_ble_lp_mode_t sleepMode;
 760:Generated_Source\PSoC6\pdl\middleware\ble/cy_ble.c **** 
ARM GAS  C:\Users\gjl\AppData\Local\Temp\ccXC41gm.s 			page 15


 761:Generated_Source\PSoC6\pdl\middleware\ble/cy_ble.c ****     switch(callbackParams->mode)
  39              		.loc 1 761 0
  40 0002 0378     		ldrb	r3, [r0]
  41 0004 012B     		cmp	r3, #1
  42 0006 02D0     		beq	.L3
  43 0008 082B     		cmp	r3, #8
  44 000a 40D0     		beq	.L4
  45 000c 45E0     		b	.L16
  46              	.L3:
 762:Generated_Source\PSoC6\pdl\middleware\ble/cy_ble.c ****     {
 763:Generated_Source\PSoC6\pdl\middleware\ble/cy_ble.c ****         case (CY_SYSPM_CHECK_READY):
 764:Generated_Source\PSoC6\pdl\middleware\ble/cy_ble.c ****         #if (CY_BLE_MODE_PROFILE)
 765:Generated_Source\PSoC6\pdl\middleware\ble/cy_ble.c ****             if(Cy_BLE_GetState() == CY_BLE_STATE_INITIALIZING)
 766:Generated_Source\PSoC6\pdl\middleware\ble/cy_ble.c ****             {
 767:Generated_Source\PSoC6\pdl\middleware\ble/cy_ble.c ****                 retVal = CY_SYSPM_FAIL;
 768:Generated_Source\PSoC6\pdl\middleware\ble/cy_ble.c ****             }
 769:Generated_Source\PSoC6\pdl\middleware\ble/cy_ble.c ****             else
 770:Generated_Source\PSoC6\pdl\middleware\ble/cy_ble.c ****         #endif  /*(CY_BLE_MODE_PROFILE) */
 771:Generated_Source\PSoC6\pdl\middleware\ble/cy_ble.c ****             
 772:Generated_Source\PSoC6\pdl\middleware\ble/cy_ble.c ****             if(Cy_IPC_Sema_Status(CY_BLE_SEMA) == CY_IPC_SEMA_STATUS_LOCKED)
  47              		.loc 1 772 0
  48 000e 0320     		movs	r0, #3
  49              	.LVL1:
  50 0010 FFF7FEFF 		bl	Cy_IPC_Sema_Status
  51              	.LVL2:
  52 0014 244B     		ldr	r3, .L17
  53 0016 9842     		cmp	r0, r3
  54 0018 41D0     		beq	.L9
 773:Generated_Source\PSoC6\pdl\middleware\ble/cy_ble.c ****             {
 774:Generated_Source\PSoC6\pdl\middleware\ble/cy_ble.c ****                 /* System do not enter deepsleep if BLE Host start write operation */
 775:Generated_Source\PSoC6\pdl\middleware\ble/cy_ble.c ****                 retVal = CY_SYSPM_FAIL;
 776:Generated_Source\PSoC6\pdl\middleware\ble/cy_ble.c ****             }
 777:Generated_Source\PSoC6\pdl\middleware\ble/cy_ble.c ****             else
 778:Generated_Source\PSoC6\pdl\middleware\ble/cy_ble.c **** 
 779:Generated_Source\PSoC6\pdl\middleware\ble/cy_ble.c ****         #if(CY_BLE_STACK_CONTR_CORE)       
 780:Generated_Source\PSoC6\pdl\middleware\ble/cy_ble.c ****             if (Cy_BLE_HAL_IsEcoCpuClockSrc() == 1u)
  55              		.loc 1 780 0
  56 001a FFF7FEFF 		bl	Cy_BLE_HAL_IsEcoCpuClockSrc
  57              	.LVL3:
  58 001e 0128     		cmp	r0, #1
  59 0020 3FD0     		beq	.L10
  60              	.LBB2:
 781:Generated_Source\PSoC6\pdl\middleware\ble/cy_ble.c ****             {            
 782:Generated_Source\PSoC6\pdl\middleware\ble/cy_ble.c ****                 /* System never enters deepsleep if BLE ECO is CPU source */
 783:Generated_Source\PSoC6\pdl\middleware\ble/cy_ble.c ****                 retVal = CY_SYSPM_FAIL;
 784:Generated_Source\PSoC6\pdl\middleware\ble/cy_ble.c ****             }
 785:Generated_Source\PSoC6\pdl\middleware\ble/cy_ble.c ****             else
 786:Generated_Source\PSoC6\pdl\middleware\ble/cy_ble.c ****         #endif /* (CY_BLE_STACK_CONTR_CORE) */
 787:Generated_Source\PSoC6\pdl\middleware\ble/cy_ble.c ****             {        
 788:Generated_Source\PSoC6\pdl\middleware\ble/cy_ble.c ****         #if(!CY_BLE_STACK_MODE_HOST_IPC)
 789:Generated_Source\PSoC6\pdl\middleware\ble/cy_ble.c ****                 cy_en_ble_api_result_t retIsControllerActive;
 790:Generated_Source\PSoC6\pdl\middleware\ble/cy_ble.c ****         #endif /* !CY_BLE_STACK_MODE_HOST_IPC */   
 791:Generated_Source\PSoC6\pdl\middleware\ble/cy_ble.c ****         
 792:Generated_Source\PSoC6\pdl\middleware\ble/cy_ble.c ****         #if(CY_BLE_STACK_MODE_HOST_IPC)
 793:Generated_Source\PSoC6\pdl\middleware\ble/cy_ble.c ****                 /* Disable global interrupt to prevent changes from any other interrupt ISR */
 794:Generated_Source\PSoC6\pdl\middleware\ble/cy_ble.c ****                 interruptState = Cy_SysLib_EnterCriticalSection();
 795:Generated_Source\PSoC6\pdl\middleware\ble/cy_ble.c ****         #endif /* CY_BLE_STACK_MODE_HOST_IPC */
ARM GAS  C:\Users\gjl\AppData\Local\Temp\ccXC41gm.s 			page 16


 796:Generated_Source\PSoC6\pdl\middleware\ble/cy_ble.c ****                
 797:Generated_Source\PSoC6\pdl\middleware\ble/cy_ble.c ****                 /* Put BLESS into Deep Sleep and check the return status */
 798:Generated_Source\PSoC6\pdl\middleware\ble/cy_ble.c ****                 sleepMode = Cy_BLE_StackEnterLPM(CY_BLE_BLESS_DEEPSLEEP);
  61              		.loc 1 798 0
  62 0022 0220     		movs	r0, #2
  63 0024 FFF7FEFF 		bl	Cy_BLE_StackEnterLPM
  64              	.LVL4:
  65 0028 0500     		movs	r5, r0
  66              	.LVL5:
 799:Generated_Source\PSoC6\pdl\middleware\ble/cy_ble.c **** 
 800:Generated_Source\PSoC6\pdl\middleware\ble/cy_ble.c ****         #if(!CY_BLE_STACK_MODE_HOST_IPC)
 801:Generated_Source\PSoC6\pdl\middleware\ble/cy_ble.c ****                 /* Disable global interrupt to prevent changes from any other interrupt ISR */
 802:Generated_Source\PSoC6\pdl\middleware\ble/cy_ble.c ****                 interruptState = Cy_SysLib_EnterCriticalSection();
  67              		.loc 1 802 0
  68 002a FFF7FEFF 		bl	Cy_SysLib_EnterCriticalSection
  69              	.LVL6:
  70 002e 1F4B     		ldr	r3, .L17+4
  71 0030 1860     		str	r0, [r3]
 803:Generated_Source\PSoC6\pdl\middleware\ble/cy_ble.c ****         #endif /* !CY_BLE_STACK_MODE_HOST_IPC */
 804:Generated_Source\PSoC6\pdl\middleware\ble/cy_ble.c **** 
 805:Generated_Source\PSoC6\pdl\middleware\ble/cy_ble.c ****                 /* Check the Status of BLESS */
 806:Generated_Source\PSoC6\pdl\middleware\ble/cy_ble.c ****                 blessState = Cy_BLE_StackGetBleSsState();
  72              		.loc 1 806 0
  73 0032 FFF7FEFF 		bl	Cy_BLE_StackGetBleSsState
  74              	.LVL7:
  75 0036 0400     		movs	r4, r0
  76              	.LVL8:
 807:Generated_Source\PSoC6\pdl\middleware\ble/cy_ble.c **** 
 808:Generated_Source\PSoC6\pdl\middleware\ble/cy_ble.c ****                 #if(!CY_BLE_STACK_MODE_HOST_IPC)
 809:Generated_Source\PSoC6\pdl\middleware\ble/cy_ble.c ****                 if(blessState == CY_BLE_BLESS_STATE_STOPPED)
  77              		.loc 1 809 0
  78 0038 0628     		cmp	r0, #6
  79 003a 17D0     		beq	.L11
 810:Generated_Source\PSoC6\pdl\middleware\ble/cy_ble.c ****                 {
 811:Generated_Source\PSoC6\pdl\middleware\ble/cy_ble.c ****                     retVal = CY_SYSPM_SUCCESS;
 812:Generated_Source\PSoC6\pdl\middleware\ble/cy_ble.c ****                 }
 813:Generated_Source\PSoC6\pdl\middleware\ble/cy_ble.c ****                 else
 814:Generated_Source\PSoC6\pdl\middleware\ble/cy_ble.c ****                 #endif /* (!CY_BLE_STACK_MODE_HOST_IPC)*/
 815:Generated_Source\PSoC6\pdl\middleware\ble/cy_ble.c ****                 if(sleepMode == CY_BLE_BLESS_DEEPSLEEP)
  80              		.loc 1 815 0
  81 003c 022D     		cmp	r5, #2
  82 003e 0AD1     		bne	.L6
 816:Generated_Source\PSoC6\pdl\middleware\ble/cy_ble.c ****                 {
 817:Generated_Source\PSoC6\pdl\middleware\ble/cy_ble.c **** 
 818:Generated_Source\PSoC6\pdl\middleware\ble/cy_ble.c ****                     #if(!CY_BLE_STACK_MODE_HOST_IPC)
 819:Generated_Source\PSoC6\pdl\middleware\ble/cy_ble.c ****                     retIsControllerActive = Cy_BLE_IsControllerActive(CY_BLE_CONTROLLER_SLEEP_MODE_
  83              		.loc 1 819 0
  84 0040 0220     		movs	r0, #2
  85              	.LVL9:
  86 0042 FFF7FEFF 		bl	Cy_BLE_IsControllerActive
  87              	.LVL10:
 820:Generated_Source\PSoC6\pdl\middleware\ble/cy_ble.c ****                     #endif /* !CY_BLE_STACK_MODE_HOST_IPC */
 821:Generated_Source\PSoC6\pdl\middleware\ble/cy_ble.c **** 
 822:Generated_Source\PSoC6\pdl\middleware\ble/cy_ble.c ****                     if(((blessState == CY_BLE_BLESS_STATE_ECO_ON) || (blessState == CY_BLE_BLESS_ST
  88              		.loc 1 822 0
  89 0046 032C     		cmp	r4, #3
  90 0048 01D0     		beq	.L7
ARM GAS  C:\Users\gjl\AppData\Local\Temp\ccXC41gm.s 			page 17


  91              		.loc 1 822 0 is_stmt 0 discriminator 1
  92 004a 052C     		cmp	r4, #5
  93 004c 10D1     		bne	.L12
  94              	.L7:
 823:Generated_Source\PSoC6\pdl\middleware\ble/cy_ble.c ****                     #if(!CY_BLE_STACK_MODE_HOST_IPC)
 824:Generated_Source\PSoC6\pdl\middleware\ble/cy_ble.c ****                         && (retIsControllerActive == CY_BLE_SUCCESS)
  95              		.loc 1 824 0 is_stmt 1
  96 004e 0028     		cmp	r0, #0
  97 0050 10D0     		beq	.L13
 825:Generated_Source\PSoC6\pdl\middleware\ble/cy_ble.c ****                     #endif /* !CY_BLE_STACK_MODE_HOST_IPC */                    
 826:Generated_Source\PSoC6\pdl\middleware\ble/cy_ble.c ****                         )
 827:Generated_Source\PSoC6\pdl\middleware\ble/cy_ble.c ****                     {
 828:Generated_Source\PSoC6\pdl\middleware\ble/cy_ble.c ****                         /* Enter device deep sleep */
 829:Generated_Source\PSoC6\pdl\middleware\ble/cy_ble.c ****                         retVal = CY_SYSPM_SUCCESS;
 830:Generated_Source\PSoC6\pdl\middleware\ble/cy_ble.c ****                     }
 831:Generated_Source\PSoC6\pdl\middleware\ble/cy_ble.c ****                     else
 832:Generated_Source\PSoC6\pdl\middleware\ble/cy_ble.c ****                     {
 833:Generated_Source\PSoC6\pdl\middleware\ble/cy_ble.c ****                         /* The BLESS hardware block cannot go to Deep Sleep, try sleep mode */
 834:Generated_Source\PSoC6\pdl\middleware\ble/cy_ble.c ****                         retVal = CY_SYSPM_FAIL;
  98              		.loc 1 834 0
  99 0052 174C     		ldr	r4, .L17+8
 100              	.LVL11:
 101 0054 13E0     		b	.L5
 102              	.LVL12:
 103              	.L6:
 835:Generated_Source\PSoC6\pdl\middleware\ble/cy_ble.c ****                     }
 836:Generated_Source\PSoC6\pdl\middleware\ble/cy_ble.c ****                 }
 837:Generated_Source\PSoC6\pdl\middleware\ble/cy_ble.c ****                 else
 838:Generated_Source\PSoC6\pdl\middleware\ble/cy_ble.c ****                 {
 839:Generated_Source\PSoC6\pdl\middleware\ble/cy_ble.c ****                 #if(!CY_BLE_STACK_MODE_HOST_IPC)
 840:Generated_Source\PSoC6\pdl\middleware\ble/cy_ble.c ****                     retIsControllerActive = Cy_BLE_IsControllerActive(CY_BLE_CONTROLLER_SLEEP_MODE_
 104              		.loc 1 840 0
 105 0056 0120     		movs	r0, #1
 106              	.LVL13:
 107 0058 FFF7FEFF 		bl	Cy_BLE_IsControllerActive
 108              	.LVL14:
 841:Generated_Source\PSoC6\pdl\middleware\ble/cy_ble.c **** 
 842:Generated_Source\PSoC6\pdl\middleware\ble/cy_ble.c ****                     if((blessState != CY_BLE_BLESS_STATE_EVENT_CLOSE) && 
 109              		.loc 1 842 0
 110 005c 022C     		cmp	r4, #2
 111 005e 0BD0     		beq	.L14
 112              		.loc 1 842 0 is_stmt 0 discriminator 1
 113 0060 0028     		cmp	r0, #0
 114 0062 0BD1     		bne	.L15
 843:Generated_Source\PSoC6\pdl\middleware\ble/cy_ble.c ****                        (retIsControllerActive == CY_BLE_SUCCESS))
 844:Generated_Source\PSoC6\pdl\middleware\ble/cy_ble.c ****                     {
 845:Generated_Source\PSoC6\pdl\middleware\ble/cy_ble.c ****                         /* If the BLESS hardware block cannot go to Deep Sleep and BLE Event has no
 846:Generated_Source\PSoC6\pdl\middleware\ble/cy_ble.c ****                          * closed yet, then place CPU to Sleep */
 847:Generated_Source\PSoC6\pdl\middleware\ble/cy_ble.c ****                         (void)Cy_SysPm_Sleep(CY_SYSPM_WAIT_FOR_INTERRUPT);
 115              		.loc 1 847 0 is_stmt 1
 116 0064 FFF7FEFF 		bl	Cy_SysPm_Sleep
 117              	.LVL15:
 848:Generated_Source\PSoC6\pdl\middleware\ble/cy_ble.c ****                     }
 849:Generated_Source\PSoC6\pdl\middleware\ble/cy_ble.c ****                 #endif /* !CY_BLE_STACK_MODE_HOST_IPC */
 850:Generated_Source\PSoC6\pdl\middleware\ble/cy_ble.c ****                     retVal = CY_SYSPM_FAIL;
 118              		.loc 1 850 0
 119 0068 114C     		ldr	r4, .L17+8
ARM GAS  C:\Users\gjl\AppData\Local\Temp\ccXC41gm.s 			page 18


 120              	.LVL16:
 121 006a 08E0     		b	.L5
 122              	.LVL17:
 123              	.L11:
 811:Generated_Source\PSoC6\pdl\middleware\ble/cy_ble.c ****                 }
 124              		.loc 1 811 0
 125 006c 0024     		movs	r4, #0
 126 006e 06E0     		b	.L5
 127              	.LVL18:
 128              	.L12:
 834:Generated_Source\PSoC6\pdl\middleware\ble/cy_ble.c ****                     }
 129              		.loc 1 834 0
 130 0070 0F4C     		ldr	r4, .L17+8
 131              	.LVL19:
 132 0072 04E0     		b	.L5
 133              	.LVL20:
 134              	.L13:
 829:Generated_Source\PSoC6\pdl\middleware\ble/cy_ble.c ****                     }
 135              		.loc 1 829 0
 136 0074 0024     		movs	r4, #0
 137              	.LVL21:
 138 0076 02E0     		b	.L5
 139              	.LVL22:
 140              	.L14:
 141              		.loc 1 850 0
 142 0078 0D4C     		ldr	r4, .L17+8
 143              	.LVL23:
 144 007a 00E0     		b	.L5
 145              	.LVL24:
 146              	.L15:
 147 007c 0C4C     		ldr	r4, .L17+8
 148              	.LVL25:
 149              	.L5:
 851:Generated_Source\PSoC6\pdl\middleware\ble/cy_ble.c ****                 }
 852:Generated_Source\PSoC6\pdl\middleware\ble/cy_ble.c ****                 if(retVal == CY_SYSPM_FAIL)
 150              		.loc 1 852 0
 151 007e 0C4B     		ldr	r3, .L17+8
 152 0080 9C42     		cmp	r4, r3
 153 0082 0FD1     		bne	.L2
 853:Generated_Source\PSoC6\pdl\middleware\ble/cy_ble.c ****                 {
 854:Generated_Source\PSoC6\pdl\middleware\ble/cy_ble.c ****                     /* Enable interrupts after failing check */
 855:Generated_Source\PSoC6\pdl\middleware\ble/cy_ble.c ****                     Cy_SysLib_ExitCriticalSection(interruptState);
 154              		.loc 1 855 0
 155 0084 094B     		ldr	r3, .L17+4
 156 0086 1868     		ldr	r0, [r3]
 157 0088 FFF7FEFF 		bl	Cy_SysLib_ExitCriticalSection
 158              	.LVL26:
 159 008c 0AE0     		b	.L2
 160              	.LVL27:
 161              	.L4:
 162              	.LBE2:
 856:Generated_Source\PSoC6\pdl\middleware\ble/cy_ble.c ****                 }
 857:Generated_Source\PSoC6\pdl\middleware\ble/cy_ble.c ****             }
 858:Generated_Source\PSoC6\pdl\middleware\ble/cy_ble.c ****             break;
 859:Generated_Source\PSoC6\pdl\middleware\ble/cy_ble.c **** 
 860:Generated_Source\PSoC6\pdl\middleware\ble/cy_ble.c ****         /* Enable interrupts after wakeup */
 861:Generated_Source\PSoC6\pdl\middleware\ble/cy_ble.c ****         case (CY_SYSPM_AFTER_TRANSITION):
ARM GAS  C:\Users\gjl\AppData\Local\Temp\ccXC41gm.s 			page 19


 862:Generated_Source\PSoC6\pdl\middleware\ble/cy_ble.c ****             Cy_SysLib_ExitCriticalSection(interruptState);
 163              		.loc 1 862 0
 164 008e 074B     		ldr	r3, .L17+4
 165 0090 1868     		ldr	r0, [r3]
 166              	.LVL28:
 167 0092 FFF7FEFF 		bl	Cy_SysLib_ExitCriticalSection
 168              	.LVL29:
 863:Generated_Source\PSoC6\pdl\middleware\ble/cy_ble.c ****             retVal = CY_SYSPM_SUCCESS;
 169              		.loc 1 863 0
 170 0096 0024     		movs	r4, #0
 864:Generated_Source\PSoC6\pdl\middleware\ble/cy_ble.c ****             break;
 171              		.loc 1 864 0
 172 0098 04E0     		b	.L2
 173              	.LVL30:
 174              	.L16:
 865:Generated_Source\PSoC6\pdl\middleware\ble/cy_ble.c **** 
 866:Generated_Source\PSoC6\pdl\middleware\ble/cy_ble.c ****         default:
 867:Generated_Source\PSoC6\pdl\middleware\ble/cy_ble.c ****             retVal = CY_SYSPM_FAIL;
 175              		.loc 1 867 0
 176 009a 054C     		ldr	r4, .L17+8
 177 009c 02E0     		b	.L2
 178              	.LVL31:
 179              	.L9:
 775:Generated_Source\PSoC6\pdl\middleware\ble/cy_ble.c ****             }
 180              		.loc 1 775 0
 181 009e 044C     		ldr	r4, .L17+8
 182 00a0 00E0     		b	.L2
 183              	.L10:
 783:Generated_Source\PSoC6\pdl\middleware\ble/cy_ble.c ****             }
 184              		.loc 1 783 0
 185 00a2 034C     		ldr	r4, .L17+8
 186              	.L2:
 187              	.LVL32:
 868:Generated_Source\PSoC6\pdl\middleware\ble/cy_ble.c ****             break;
 869:Generated_Source\PSoC6\pdl\middleware\ble/cy_ble.c ****     }
 870:Generated_Source\PSoC6\pdl\middleware\ble/cy_ble.c **** 
 871:Generated_Source\PSoC6\pdl\middleware\ble/cy_ble.c ****     return(retVal);
 872:Generated_Source\PSoC6\pdl\middleware\ble/cy_ble.c **** }
 188              		.loc 1 872 0
 189 00a4 2000     		movs	r0, r4
 190              		@ sp needed
 191              	.LVL33:
 192 00a6 70BD     		pop	{r4, r5, r6, pc}
 193              	.L18:
 194              		.align	2
 195              	.L17:
 196 00a8 01018800 		.word	8913153
 197 00ac 00000000 		.word	.LANCHOR0
 198 00b0 FF004200 		.word	4325631
 199              		.cfi_endproc
 200              	.LFE190:
 201              		.size	Cy_BLE_DeepSleepCallback, .-Cy_BLE_DeepSleepCallback
 202              		.section	.text.Cy_BLE_UnregisterHostPMCallbacks,"ax",%progbits
 203              		.align	2
 204              		.global	Cy_BLE_UnregisterHostPMCallbacks
 205              		.code	16
 206              		.thumb_func
ARM GAS  C:\Users\gjl\AppData\Local\Temp\ccXC41gm.s 			page 20


 207              		.type	Cy_BLE_UnregisterHostPMCallbacks, %function
 208              	Cy_BLE_UnregisterHostPMCallbacks:
 209              	.LFB185:
  97:Generated_Source\PSoC6\pdl\middleware\ble/cy_ble.c ****     #if (CY_BLE_USE_DEEP_SLEEP != 0u)
 210              		.loc 1 97 0
 211              		.cfi_startproc
 212              		@ args = 0, pretend = 0, frame = 0
 213              		@ frame_needed = 0, uses_anonymous_args = 0
 214 0000 10B5     		push	{r4, lr}
 215              		.cfi_def_cfa_offset 8
 216              		.cfi_offset 4, -8
 217              		.cfi_offset 14, -4
 100:Generated_Source\PSoC6\pdl\middleware\ble/cy_ble.c ****         
 218              		.loc 1 100 0
 219 0002 0248     		ldr	r0, .L20
 220 0004 FFF7FEFF 		bl	Cy_SysPm_UnregisterCallback
 221              	.LVL34:
 108:Generated_Source\PSoC6\pdl\middleware\ble/cy_ble.c **** 
 222              		.loc 1 108 0
 223              		@ sp needed
 224 0008 10BD     		pop	{r4, pc}
 225              	.L21:
 226 000a C046     		.align	2
 227              	.L20:
 228 000c 00000000 		.word	.LANCHOR1
 229              		.cfi_endproc
 230              	.LFE185:
 231              		.size	Cy_BLE_UnregisterHostPMCallbacks, .-Cy_BLE_UnregisterHostPMCallbacks
 232              		.section	.text.Cy_BLE_Init,"ax",%progbits
 233              		.align	2
 234              		.global	Cy_BLE_Init
 235              		.code	16
 236              		.thumb_func
 237              		.type	Cy_BLE_Init, %function
 238              	Cy_BLE_Init:
 239              	.LFB186:
 135:Generated_Source\PSoC6\pdl\middleware\ble/cy_ble.c ****     cy_en_ble_api_result_t apiResult = CY_BLE_SUCCESS;
 240              		.loc 1 135 0
 241              		.cfi_startproc
 242              		@ args = 0, pretend = 0, frame = 0
 243              		@ frame_needed = 0, uses_anonymous_args = 0
 244              	.LVL35:
 245 0000 10B5     		push	{r4, lr}
 246              		.cfi_def_cfa_offset 8
 247              		.cfi_offset 4, -8
 248              		.cfi_offset 14, -4
 249              	.LVL36:
 138:Generated_Source\PSoC6\pdl\middleware\ble/cy_ble.c ****     {
 250              		.loc 1 138 0
 251 0002 0028     		cmp	r0, #0
 252 0004 03D0     		beq	.L24
 145:Generated_Source\PSoC6\pdl\middleware\ble/cy_ble.c **** 
 253              		.loc 1 145 0
 254 0006 044B     		ldr	r3, .L25
 255 0008 5860     		str	r0, [r3, #4]
 136:Generated_Source\PSoC6\pdl\middleware\ble/cy_ble.c **** 
 256              		.loc 1 136 0
ARM GAS  C:\Users\gjl\AppData\Local\Temp\ccXC41gm.s 			page 21


 257 000a 0024     		movs	r4, #0
 258 000c 00E0     		b	.L23
 259              	.L24:
 140:Generated_Source\PSoC6\pdl\middleware\ble/cy_ble.c ****     }
 260              		.loc 1 140 0
 261 000e 034C     		ldr	r4, .L25+4
 262              	.L23:
 263              	.LVL37:
 192:Generated_Source\PSoC6\pdl\middleware\ble/cy_ble.c ****     #endif /* (CY_BLE_STACK_MODE_IPC) */
 264              		.loc 1 192 0
 265 0010 FFF7FEFF 		bl	Cy_IPC_SystemPipeInit
 266              	.LVL38:
 197:Generated_Source\PSoC6\pdl\middleware\ble/cy_ble.c **** /** @} */
 267              		.loc 1 197 0
 268 0014 2000     		movs	r0, r4
 269              		@ sp needed
 270              	.LVL39:
 271 0016 10BD     		pop	{r4, pc}
 272              	.L26:
 273              		.align	2
 274              	.L25:
 275 0018 00000000 		.word	.LANCHOR0
 276 001c 01001600 		.word	1441793
 277              		.cfi_endproc
 278              	.LFE186:
 279              		.size	Cy_BLE_Init, .-Cy_BLE_Init
 280              		.section	.text.Cy_BLE_Enable,"ax",%progbits
 281              		.align	2
 282              		.global	Cy_BLE_Enable
 283              		.code	16
 284              		.thumb_func
 285              		.type	Cy_BLE_Enable, %function
 286              	Cy_BLE_Enable:
 287              	.LFB187:
 255:Generated_Source\PSoC6\pdl\middleware\ble/cy_ble.c ****     cy_en_ble_api_result_t apiResult = CY_BLE_SUCCESS;
 288              		.loc 1 255 0
 289              		.cfi_startproc
 290              		@ args = 0, pretend = 0, frame = 40
 291              		@ frame_needed = 0, uses_anonymous_args = 0
 292 0000 00B5     		push	{lr}
 293              		.cfi_def_cfa_offset 4
 294              		.cfi_offset 14, -4
 295 0002 8BB0     		sub	sp, sp, #44
 296              		.cfi_def_cfa_offset 48
 297              	.LVL40:
 268:Generated_Source\PSoC6\pdl\middleware\ble/cy_ble.c ****     {
 298              		.loc 1 268 0
 299 0004 2822     		movs	r2, #40
 300 0006 0021     		movs	r1, #0
 301 0008 6846     		mov	r0, sp
 302 000a FFF7FEFF 		bl	memset
 303              	.LVL41:
 304 000e D723     		movs	r3, #215
 305 0010 1B01     		lsls	r3, r3, #4
 306 0012 6A46     		mov	r2, sp
 307 0014 9381     		strh	r3, [r2, #12]
 308 0016 1B23     		movs	r3, #27
ARM GAS  C:\Users\gjl\AppData\Local\Temp\ccXC41gm.s 			page 22


 309 0018 1383     		strh	r3, [r2, #24]
 310 001a 5383     		strh	r3, [r2, #26]
 311 001c 183B     		subs	r3, r3, #24
 312 001e 1377     		strb	r3, [r2, #28]
 313 0020 0133     		adds	r3, r3, #1
 314 0022 5377     		strb	r3, [r2, #29]
 315 0024 0C33     		adds	r3, r3, #12
 316 0026 D377     		strb	r3, [r2, #31]
 317 0028 2022     		movs	r2, #32
 318 002a 6946     		mov	r1, sp
 319 002c 8B54     		strb	r3, [r1, r2]
 320 002e 0132     		adds	r2, r2, #1
 321 0030 8B54     		strb	r3, [r1, r2]
 322 0032 5233     		adds	r3, r3, #82
 323 0034 4B84     		strh	r3, [r1, #34]
 324 0036 0122     		movs	r2, #1
 325 0038 3C3B     		subs	r3, r3, #60
 326 003a CA54     		strb	r2, [r1, r3]
 320:Generated_Source\PSoC6\pdl\middleware\ble/cy_ble.c ****     
 327              		.loc 1 320 0
 328 003c 0848     		ldr	r0, .L29
 329 003e FFF7FEFF 		bl	Cy_SysPm_RegisterCallback
 330              	.LVL42:
 349:Generated_Source\PSoC6\pdl\middleware\ble/cy_ble.c ****     #endif /* CY_BLE_LL_PRIVACY_FEATURE_ENABLED */
 331              		.loc 1 349 0
 332 0042 FFF7FEFF 		bl	Cy_BLE_EnablePrivacyFeature
 333              	.LVL43:
 356:Generated_Source\PSoC6\pdl\middleware\ble/cy_ble.c ****     }
 334              		.loc 1 356 0
 335 0046 06A8     		add	r0, sp, #24
 336 0048 FFF7FEFF 		bl	Cy_BLE_StackSetFeatureConfig
 337              	.LVL44:
 359:Generated_Source\PSoC6\pdl\middleware\ble/cy_ble.c ****     {
 338              		.loc 1 359 0
 339 004c 0028     		cmp	r0, #0
 340 004e 04D1     		bne	.L28
 361:Generated_Source\PSoC6\pdl\middleware\ble/cy_ble.c **** 
 341              		.loc 1 361 0
 342 0050 044B     		ldr	r3, .L29+4
 343 0052 0193     		str	r3, [sp, #4]
 364:Generated_Source\PSoC6\pdl\middleware\ble/cy_ble.c **** 
 344              		.loc 1 364 0
 345 0054 6846     		mov	r0, sp
 346              	.LVL45:
 347 0056 FFF7FEFF 		bl	Cy_BLE_StackInit
 348              	.LVL46:
 349              	.L28:
 401:Generated_Source\PSoC6\pdl\middleware\ble/cy_ble.c **** 
 350              		.loc 1 401 0
 351 005a 0BB0     		add	sp, sp, #44
 352              		@ sp needed
 353 005c 00BD     		pop	{pc}
 354              	.L30:
 355 005e C046     		.align	2
 356              	.L29:
 357 0060 00000000 		.word	.LANCHOR1
 358 0064 00000000 		.word	.LANCHOR2
ARM GAS  C:\Users\gjl\AppData\Local\Temp\ccXC41gm.s 			page 23


 359              		.cfi_endproc
 360              	.LFE187:
 361              		.size	Cy_BLE_Enable, .-Cy_BLE_Enable
 362              		.section	.text.Cy_BLE_Disable,"ax",%progbits
 363              		.align	2
 364              		.global	Cy_BLE_Disable
 365              		.code	16
 366              		.thumb_func
 367              		.type	Cy_BLE_Disable, %function
 368              	Cy_BLE_Disable:
 369              	.LFB188:
 442:Generated_Source\PSoC6\pdl\middleware\ble/cy_ble.c ****     cy_en_ble_api_result_t apiResult;
 370              		.loc 1 442 0
 371              		.cfi_startproc
 372              		@ args = 0, pretend = 0, frame = 0
 373              		@ frame_needed = 0, uses_anonymous_args = 0
 374              		@ link register save eliminated.
 375              	.LVL47:
 461:Generated_Source\PSoC6\pdl\middleware\ble/cy_ble.c **** 
 376              		.loc 1 461 0
 377 0000 0020     		movs	r0, #0
 378              		@ sp needed
 379 0002 7047     		bx	lr
 380              		.cfi_endproc
 381              	.LFE188:
 382              		.size	Cy_BLE_Disable, .-Cy_BLE_Disable
 383              		.section	.text.Cy_BLE_ConfigureExtPA,"ax",%progbits
 384              		.align	2
 385              		.global	Cy_BLE_ConfigureExtPA
 386              		.code	16
 387              		.thumb_func
 388              		.type	Cy_BLE_ConfigureExtPA, %function
 389              	Cy_BLE_ConfigureExtPA:
 390              	.LFB189:
 498:Generated_Source\PSoC6\pdl\middleware\ble/cy_ble.c ****     BLE->BLESS.EXT_PA_LNA_CTRL = controlValue;
 391              		.loc 1 498 0
 392              		.cfi_startproc
 393              		@ args = 0, pretend = 0, frame = 0
 394              		@ frame_needed = 0, uses_anonymous_args = 0
 395              		@ link register save eliminated.
 396              	.LVL48:
 499:Generated_Source\PSoC6\pdl\middleware\ble/cy_ble.c **** }
 397              		.loc 1 499 0
 398 0000 014B     		ldr	r3, .L33
 399 0002 024A     		ldr	r2, .L33+4
 400 0004 D050     		str	r0, [r2, r3]
 500:Generated_Source\PSoC6\pdl\middleware\ble/cy_ble.c **** 
 401              		.loc 1 500 0
 402              		@ sp needed
 403 0006 7047     		bx	lr
 404              	.L34:
 405              		.align	2
 406              	.L33:
 407 0008 78F00100 		.word	127096
 408 000c 00003C40 		.word	1077673984
 409              		.cfi_endproc
 410              	.LFE189:
ARM GAS  C:\Users\gjl\AppData\Local\Temp\ccXC41gm.s 			page 24


 411              		.size	Cy_BLE_ConfigureExtPA, .-Cy_BLE_ConfigureExtPA
 412              		.global	cy_ble_configPtr
 413              		.global	cy_ble_stackMemoryRam
 414              		.data
 415              		.align	2
 416              		.set	.LANCHOR1,. + 0
 417              		.type	bleDeepSleepCallback, %object
 418              		.size	bleDeepSleepCallback, 24
 419              	bleDeepSleepCallback:
 420 0000 00000000 		.word	Cy_BLE_DeepSleepCallback
 421 0004 01       		.byte	1
 422 0005 000000   		.space	3
 423 0008 06000000 		.word	6
 424 000c 08000000 		.word	bleDeepSleepCallbackParams
 425 0010 00000000 		.space	8
 425      00000000 
 426              		.section	.noinit,"aw",%progbits
 427              		.align	2
 428              		.set	.LANCHOR2,. + 0
 429              		.type	cy_ble_stackMemoryRam, %object
 430              		.size	cy_ble_stackMemoryRam, 3440
 431              	cy_ble_stackMemoryRam:
 432 0000 00000000 		.space	3440
 432      00000000 
 432      00000000 
 432      00000000 
 432      00000000 
 433              		.bss
 434              		.align	2
 435              		.set	.LANCHOR0,. + 0
 436              		.type	interruptState.13088, %object
 437              		.size	interruptState.13088, 4
 438              	interruptState.13088:
 439 0000 00000000 		.space	4
 440              		.type	cy_ble_configPtr, %object
 441              		.size	cy_ble_configPtr, 4
 442              	cy_ble_configPtr:
 443 0004 00000000 		.space	4
 444              		.type	bleDeepSleepCallbackParams, %object
 445              		.size	bleDeepSleepCallbackParams, 12
 446              	bleDeepSleepCallbackParams:
 447 0008 00000000 		.space	12
 447      00000000 
 447      00000000 
 448              		.text
 449              	.Letext0:
 450              		.file 2 "c:\\program files (x86)\\cypress\\psoc creator\\4.2\\psoc creator\\import\\gnu\\arm\\5.4.
 451              		.file 3 "c:\\program files (x86)\\cypress\\psoc creator\\4.2\\psoc creator\\import\\gnu\\arm\\5.4.
 452              		.file 4 "Generated_Source\\PSoC6\\pdl\\devices/psoc6/psoc63/include/cy8c6347bzi_bld53.h"
 453              		.file 5 "Generated_Source\\PSoC6\\pdl\\devices/psoc6/ip/cyip_ble.h"
 454              		.file 6 "Generated_Source\\PSoC6\\pdl\\drivers/peripheral/sysint/cy_sysint.h"
 455              		.file 7 "Generated_Source\\PSoC6\\pdl\\drivers/peripheral/syspm/cy_syspm.h"
 456              		.file 8 "Generated_Source\\PSoC6\\pdl\\middleware\\ble\\cy_ble_stack.h"
 457              		.file 9 "Generated_Source\\PSoC6\\pdl\\middleware\\ble\\cy_ble.h"
 458              		.file 10 "Generated_Source\\PSoC6\\pdl\\drivers/peripheral/ipc/cy_ipc_sema.h"
 459              		.file 11 "Generated_Source\\PSoC6\\pdl\\drivers/peripheral/syslib/cy_syslib.h"
 460              		.file 12 "Generated_Source\\PSoC6\\pdl\\middleware\\ble\\cy_ble_clk.h"
ARM GAS  C:\Users\gjl\AppData\Local\Temp\ccXC41gm.s 			page 25


 461              		.file 13 "./cy_ipc_config.h"