ARM GAS  C:\Users\gjl\AppData\Local\Temp\ccxIYajl.s 			page 1


   1              		.syntax unified
   2              		.cpu cortex-m4
   3              		.eabi_attribute 27, 1
   4              		.fpu fpv4-sp-d16
   5              		.eabi_attribute 20, 1
   6              		.eabi_attribute 21, 1
   7              		.eabi_attribute 23, 3
   8              		.eabi_attribute 24, 1
   9              		.eabi_attribute 25, 1
  10              		.eabi_attribute 26, 1
  11              		.eabi_attribute 30, 1
  12              		.eabi_attribute 34, 1
  13              		.eabi_attribute 18, 4
  14              		.thumb
  15              		.syntax unified
  16              		.file	"capSenseTask.c"
  17              		.text
  18              	.Ltext0:
  19              		.cfi_sections	.debug_frame
  20              		.section	.text.capsenseTask,"ax",%progbits
  21              		.align	2
  22              		.global	capsenseTask
  23              		.thumb
  24              		.thumb_func
  25              		.type	capsenseTask, %function
  26              	capsenseTask:
  27              	.LFB516:
  28              		.file 1 "capSenseTask.c"
   1:capSenseTask.c **** /* ========================================
   2:capSenseTask.c ****  *
   3:capSenseTask.c ****  * Copyright YOUR COMPANY, THE YEAR
   4:capSenseTask.c ****  * All Rights Reserved
   5:capSenseTask.c ****  * UNPUBLISHED, LICENSED SOFTWARE.
   6:capSenseTask.c ****  *
   7:capSenseTask.c ****  * CONFIDENTIAL AND PROPRIETARY INFORMATION
   8:capSenseTask.c ****  * WHICH IS THE PROPERTY OF your company.
   9:capSenseTask.c ****  *
  10:capSenseTask.c ****  * ========================================
  11:capSenseTask.c **** */
  12:capSenseTask.c **** #include "project.h"
  13:capSenseTask.c **** #include "FreeRTOS.h"
  14:capSenseTask.c **** #include "task.h"
  15:capSenseTask.c **** #include "bleTask.h"
  16:capSenseTask.c **** #include "motionTask.h"
  17:capSenseTask.c **** 
  18:capSenseTask.c **** void capsenseTask(void *arg)
  19:capSenseTask.c **** {
  29              		.loc 1 19 0
  30              		.cfi_startproc
  31              		@ args = 0, pretend = 0, frame = 0
  32              		@ frame_needed = 0, uses_anonymous_args = 0
  33              	.LVL0:
  34 0000 38B5     		push	{r3, r4, r5, lr}
  35              		.cfi_def_cfa_offset 16
  36              		.cfi_offset 3, -16
  37              		.cfi_offset 4, -12
  38              		.cfi_offset 5, -8
ARM GAS  C:\Users\gjl\AppData\Local\Temp\ccxIYajl.s 			page 2


  39              		.cfi_offset 14, -4
  40              	.LVL1:
  20:capSenseTask.c ****     (void)arg;
  21:capSenseTask.c ****     
  22:capSenseTask.c ****     motors_t currentMotor=M1;
  23:capSenseTask.c **** 
  24:capSenseTask.c ****     CapSense_Start();
  41              		.loc 1 24 0
  42 0002 FFF7FEFF 		bl	CapSense_Start
  43              	.LVL2:
  25:capSenseTask.c ****     CapSense_ScanAllWidgets(); // Start initial scan
  44              		.loc 1 25 0
  45 0006 FFF7FEFF 		bl	CapSense_ScanAllWidgets
  46              	.LVL3:
  22:capSenseTask.c **** 
  47              		.loc 1 22 0
  48 000a 0025     		movs	r5, #0
  49              	.LVL4:
  50              	.L2:
  26:capSenseTask.c ****         
  27:capSenseTask.c ****     for(;;)
  28:capSenseTask.c ****     {
  29:capSenseTask.c ****         if(!CapSense_IsBusy())
  51              		.loc 1 29 0
  52 000c FFF7FEFF 		bl	CapSense_IsBusy
  53              	.LVL5:
  54 0010 20BB     		cbnz	r0, .L3
  55              	.LBB2:
  30:capSenseTask.c ****         {
  31:capSenseTask.c ****             
  32:capSenseTask.c ****             CapSense_ProcessAllWidgets();
  56              		.loc 1 32 0
  57 0012 FFF7FEFF 		bl	CapSense_ProcessAllWidgets
  58              	.LVL6:
  33:capSenseTask.c ****             int pos;
  34:capSenseTask.c ****             pos=CapSense_GetCentroidPos(CapSense_LINEARSLIDER0_WDGT_ID); // Get finger position on 
  59              		.loc 1 34 0
  60 0016 0020     		movs	r0, #0
  61 0018 FFF7FEFF 		bl	CapSense_GetCentroidPos
  62              	.LVL7:
  63 001c 0446     		mov	r4, r0
  64              	.LVL8:
  35:capSenseTask.c ****             if(pos<0xFFFF && xEventGroupGetBits(systemInputMode) == MODE_CAPSENSE)
  65              		.loc 1 35 0
  66 001e 4FF6FE73 		movw	r3, #65534
  67 0022 9842     		cmp	r0, r3
  68 0024 0BDC     		bgt	.L4
  69              		.loc 1 35 0 is_stmt 0 discriminator 1
  70 0026 0021     		movs	r1, #0
  71 0028 0E4B     		ldr	r3, .L11
  72 002a 1868     		ldr	r0, [r3]
  73              	.LVL9:
  74 002c FFF7FEFF 		bl	xEventGroupClearBits
  75              	.LVL10:
  76 0030 0228     		cmp	r0, #2
  77 0032 04D1     		bne	.L4
  36:capSenseTask.c ****             {
ARM GAS  C:\Users\gjl\AppData\Local\Temp\ccxIYajl.s 			page 3


  37:capSenseTask.c ****                 writeMotorPosition(currentMotor,ABSOLUTE,pos);            
  78              		.loc 1 37 0 is_stmt 1
  79 0034 62B2     		sxtb	r2, r4
  80 0036 0021     		movs	r1, #0
  81 0038 2846     		mov	r0, r5
  82 003a FFF7FEFF 		bl	writeMotorPosition
  83              	.LVL11:
  84              	.L4:
  38:capSenseTask.c ****             }
  39:capSenseTask.c ****             
  40:capSenseTask.c ****             if(CapSense_IsWidgetActive(CapSense_BUTTON0_WDGT_ID)) // Check button 0 state
  85              		.loc 1 40 0
  86 003e 0120     		movs	r0, #1
  87 0040 FFF7FEFF 		bl	CapSense_IsWidgetActive
  88              	.LVL12:
  89 0044 00B1     		cbz	r0, .L5
  41:capSenseTask.c ****             {
  42:capSenseTask.c ****                 currentMotor = M1;
  90              		.loc 1 42 0
  91 0046 0025     		movs	r5, #0
  92              	.LVL13:
  93              	.L5:
  43:capSenseTask.c ****             }
  44:capSenseTask.c ****             if(CapSense_IsWidgetActive(CapSense_BUTTON1_WDGT_ID)) // Check button 1 state
  94              		.loc 1 44 0
  95 0048 0220     		movs	r0, #2
  96 004a FFF7FEFF 		bl	CapSense_IsWidgetActive
  97              	.LVL14:
  98 004e 00B1     		cbz	r0, .L6
  45:capSenseTask.c ****             {
  46:capSenseTask.c ****                currentMotor = M2;
  99              		.loc 1 46 0
 100 0050 0125     		movs	r5, #1
 101              	.LVL15:
 102              	.L6:
  47:capSenseTask.c ****             }
  48:capSenseTask.c ****                
  49:capSenseTask.c ****             CapSense_UpdateAllBaselines();
 103              		.loc 1 49 0
 104 0052 FFF7FEFF 		bl	CapSense_UpdateAllBaselines
 105              	.LVL16:
  50:capSenseTask.c ****             CapSense_ScanAllWidgets(); // Start next scan
 106              		.loc 1 50 0
 107 0056 FFF7FEFF 		bl	CapSense_ScanAllWidgets
 108              	.LVL17:
 109              	.LBE2:
 110 005a D7E7     		b	.L2
 111              	.LVL18:
 112              	.L3:
  51:capSenseTask.c ****         }
  52:capSenseTask.c ****         else
  53:capSenseTask.c ****         {
  54:capSenseTask.c ****             /* If CapSense is busy, just sleep the task for a while to let another task have a turn
  55:capSenseTask.c ****             vTaskDelay(50);
 113              		.loc 1 55 0
 114 005c 3220     		movs	r0, #50
 115 005e FFF7FEFF 		bl	vTaskDelay
ARM GAS  C:\Users\gjl\AppData\Local\Temp\ccxIYajl.s 			page 4


 116              	.LVL19:
 117 0062 D3E7     		b	.L2
 118              	.L12:
 119              		.align	2
 120              	.L11:
 121 0064 00000000 		.word	systemInputMode
 122              		.cfi_endproc
 123              	.LFE516:
 124              		.size	capsenseTask, .-capsenseTask
 125              		.text
 126              	.Letext0:
 127              		.file 2 "c:\\program files (x86)\\cypress\\psoc creator\\4.2\\psoc creator\\import\\gnu\\arm\\5.4.
 128              		.file 3 "c:\\program files (x86)\\cypress\\psoc creator\\4.2\\psoc creator\\import\\gnu\\arm\\5.4.
 129              		.file 4 "Generated_Source\\PSoC6\\pdl\\drivers/peripheral/scb/cy_scb_i2c.h"
 130              		.file 5 "Generated_Source\\PSoC6\\pdl\\drivers/peripheral/scb/cy_scb_uart.h"
 131              		.file 6 "Generated_Source\\PSoC6\\pdl\\middleware/ble/cy_ble_stack_host_main.h"
 132              		.file 7 "Generated_Source\\PSoC6\\pdl\\middleware/ble/cy_ble_gap.h"
 133              		.file 8 "bleTask.h"
 134              		.file 9 "Generated_Source\\PSoC6\\pdl\\rtos/FreeRTOS/9.0.0/Source/include/event_groups.h"
 135              		.file 10 "Generated_Source\\PSoC6\\pdl\\cmsis/include/core_cm4.h"
 136              		.file 11 "Generated_Source\\PSoC6/UART.h"
 137              		.file 12 "Generated_Source\\PSoC6/I2C_1.h"
 138              		.file 13 "motionTask.h"
 139              		.file 14 "Generated_Source\\PSoC6/CapSense_Control.h"
 140              		.file 15 "Generated_Source\\PSoC6/CapSense_Structure.h"
 141              		.file 16 "Generated_Source\\PSoC6/CapSense_Filter.h"
 142              		.file 17 "Generated_Source\\PSoC6/CapSense_Sensing.h"
 143              		.file 18 "Generated_Source\\PSoC6\\pdl\\rtos/FreeRTOS/9.0.0/Source/include/task.h"