ARM GAS  C:\Users\gjl\AppData\Local\Temp\cc7xIfgu.s 			page 1


   1              		.syntax unified
   2              		.cpu cortex-m0plus
   3              		.fpu softvfp
   4              		.eabi_attribute 20, 1
   5              		.eabi_attribute 21, 1
   6              		.eabi_attribute 23, 3
   7              		.eabi_attribute 24, 1
   8              		.eabi_attribute 25, 1
   9              		.eabi_attribute 26, 1
  10              		.eabi_attribute 30, 1
  11              		.eabi_attribute 34, 0
  12              		.eabi_attribute 18, 4
  13              		.thumb
  14              		.syntax unified
  15              		.file	"cy_prot.c"
  16              		.text
  17              	.Ltext0:
  18              		.cfi_sections	.debug_frame
  19              		.section	.text.Cy_Prot_ConfigBusMaster,"ax",%progbits
  20              		.align	2
  21              		.global	Cy_Prot_ConfigBusMaster
  22              		.code	16
  23              		.thumb_func
  24              		.type	Cy_Prot_ConfigBusMaster, %function
  25              	Cy_Prot_ConfigBusMaster:
  26              	.LFB36:
  27              		.file 1 "Generated_Source\\PSoC6\\pdl\\drivers\\peripheral\\prot\\cy_prot.c"
   1:Generated_Source\PSoC6\pdl\drivers\peripheral\prot/cy_prot.c **** /***************************************************************************//**
   2:Generated_Source\PSoC6\pdl\drivers\peripheral\prot/cy_prot.c **** * \file cy_prot.c
   3:Generated_Source\PSoC6\pdl\drivers\peripheral\prot/cy_prot.c **** * \version 1.10
   4:Generated_Source\PSoC6\pdl\drivers\peripheral\prot/cy_prot.c **** *
   5:Generated_Source\PSoC6\pdl\drivers\peripheral\prot/cy_prot.c **** * \brief
   6:Generated_Source\PSoC6\pdl\drivers\peripheral\prot/cy_prot.c **** * Provides an API implementation of the Protection Unit driver
   7:Generated_Source\PSoC6\pdl\drivers\peripheral\prot/cy_prot.c **** *
   8:Generated_Source\PSoC6\pdl\drivers\peripheral\prot/cy_prot.c **** ********************************************************************************
   9:Generated_Source\PSoC6\pdl\drivers\peripheral\prot/cy_prot.c **** * \copyright
  10:Generated_Source\PSoC6\pdl\drivers\peripheral\prot/cy_prot.c **** * Copyright 2016-2018, Cypress Semiconductor Corporation. All rights reserved.
  11:Generated_Source\PSoC6\pdl\drivers\peripheral\prot/cy_prot.c **** * You may use this file only in accordance with the license, terms, conditions,
  12:Generated_Source\PSoC6\pdl\drivers\peripheral\prot/cy_prot.c **** * disclaimers, and limitations in the end user license agreement accompanying
  13:Generated_Source\PSoC6\pdl\drivers\peripheral\prot/cy_prot.c **** * the software package with which this file was provided.
  14:Generated_Source\PSoC6\pdl\drivers\peripheral\prot/cy_prot.c **** *******************************************************************************/
  15:Generated_Source\PSoC6\pdl\drivers\peripheral\prot/cy_prot.c **** 
  16:Generated_Source\PSoC6\pdl\drivers\peripheral\prot/cy_prot.c **** #include "cy_prot.h"
  17:Generated_Source\PSoC6\pdl\drivers\peripheral\prot/cy_prot.c **** 
  18:Generated_Source\PSoC6\pdl\drivers\peripheral\prot/cy_prot.c **** #if defined(__cplusplus)
  19:Generated_Source\PSoC6\pdl\drivers\peripheral\prot/cy_prot.c **** extern "C" {
  20:Generated_Source\PSoC6\pdl\drivers\peripheral\prot/cy_prot.c **** #endif
  21:Generated_Source\PSoC6\pdl\drivers\peripheral\prot/cy_prot.c **** 
  22:Generated_Source\PSoC6\pdl\drivers\peripheral\prot/cy_prot.c **** 
  23:Generated_Source\PSoC6\pdl\drivers\peripheral\prot/cy_prot.c **** /*******************************************************************************
  24:Generated_Source\PSoC6\pdl\drivers\peripheral\prot/cy_prot.c **** * Function Name: Cy_Prot_ConfigBusMaster
  25:Generated_Source\PSoC6\pdl\drivers\peripheral\prot/cy_prot.c **** ****************************************************************************//**
  26:Generated_Source\PSoC6\pdl\drivers\peripheral\prot/cy_prot.c **** *
  27:Generated_Source\PSoC6\pdl\drivers\peripheral\prot/cy_prot.c **** * \brief Configures the allowed protection contexts, security (secure/non-secure)
  28:Generated_Source\PSoC6\pdl\drivers\peripheral\prot/cy_prot.c **** * and privilege level of the bus transaction created by the specified master. 
  29:Generated_Source\PSoC6\pdl\drivers\peripheral\prot/cy_prot.c **** *
  30:Generated_Source\PSoC6\pdl\drivers\peripheral\prot/cy_prot.c **** * \param busMaster
ARM GAS  C:\Users\gjl\AppData\Local\Temp\cc7xIfgu.s 			page 2


  31:Generated_Source\PSoC6\pdl\drivers\peripheral\prot/cy_prot.c **** * Indicates which master needs to be configured. Refer to the CPUSS_MS_ID_X
  32:Generated_Source\PSoC6\pdl\drivers\peripheral\prot/cy_prot.c **** * defines.
  33:Generated_Source\PSoC6\pdl\drivers\peripheral\prot/cy_prot.c **** * 
  34:Generated_Source\PSoC6\pdl\drivers\peripheral\prot/cy_prot.c **** * \param privileged
  35:Generated_Source\PSoC6\pdl\drivers\peripheral\prot/cy_prot.c **** * Boolean to define the privilege level of all subsequent bus transfers.
  36:Generated_Source\PSoC6\pdl\drivers\peripheral\prot/cy_prot.c **** * True - privileged, False - not privileged.
  37:Generated_Source\PSoC6\pdl\drivers\peripheral\prot/cy_prot.c **** * Note that this is an inherited value. If not inherited, then this bit will 
  38:Generated_Source\PSoC6\pdl\drivers\peripheral\prot/cy_prot.c **** * be used.
  39:Generated_Source\PSoC6\pdl\drivers\peripheral\prot/cy_prot.c **** *
  40:Generated_Source\PSoC6\pdl\drivers\peripheral\prot/cy_prot.c **** * \param secure
  41:Generated_Source\PSoC6\pdl\drivers\peripheral\prot/cy_prot.c **** * Security setting for the master. True - Secure, False - Not secure.
  42:Generated_Source\PSoC6\pdl\drivers\peripheral\prot/cy_prot.c **** * 
  43:Generated_Source\PSoC6\pdl\drivers\peripheral\prot/cy_prot.c **** * \param pcMask
  44:Generated_Source\PSoC6\pdl\drivers\peripheral\prot/cy_prot.c **** * This is a 16 bit value of the allowed contexts, it is an OR'ed (|) field of the
  45:Generated_Source\PSoC6\pdl\drivers\peripheral\prot/cy_prot.c **** * provided defines in cy_prot.h. For example: (PROT_PC1 | PROT_PC3 | PROT_PC4)
  46:Generated_Source\PSoC6\pdl\drivers\peripheral\prot/cy_prot.c **** * 
  47:Generated_Source\PSoC6\pdl\drivers\peripheral\prot/cy_prot.c **** * \return
  48:Generated_Source\PSoC6\pdl\drivers\peripheral\prot/cy_prot.c **** * Status of the function call.
  49:Generated_Source\PSoC6\pdl\drivers\peripheral\prot/cy_prot.c **** *
  50:Generated_Source\PSoC6\pdl\drivers\peripheral\prot/cy_prot.c **** *   Status               | Description
  51:Generated_Source\PSoC6\pdl\drivers\peripheral\prot/cy_prot.c **** *   ------------         | -----------
  52:Generated_Source\PSoC6\pdl\drivers\peripheral\prot/cy_prot.c **** *   CY_PROT_SUCCESS      | The function completed successfully
  53:Generated_Source\PSoC6\pdl\drivers\peripheral\prot/cy_prot.c **** *   CY_PROT_FAILURE      | The resource is locked
  54:Generated_Source\PSoC6\pdl\drivers\peripheral\prot/cy_prot.c **** *   CY_PROT_BAD_PARAM    | An incorrect/invalid parameter was passed
  55:Generated_Source\PSoC6\pdl\drivers\peripheral\prot/cy_prot.c **** *
  56:Generated_Source\PSoC6\pdl\drivers\peripheral\prot/cy_prot.c **** * \funcusage
  57:Generated_Source\PSoC6\pdl\drivers\peripheral\prot/cy_prot.c **** * \snippet prot/prot_v1_10_sut_01.cydsn/main_cm4.c snippet_Cy_Prot_ConfigBusMaster
  58:Generated_Source\PSoC6\pdl\drivers\peripheral\prot/cy_prot.c **** *
  59:Generated_Source\PSoC6\pdl\drivers\peripheral\prot/cy_prot.c **** *******************************************************************************/
  60:Generated_Source\PSoC6\pdl\drivers\peripheral\prot/cy_prot.c **** cy_en_prot_status_t Cy_Prot_ConfigBusMaster(en_prot_master_t busMaster, bool privileged, bool secur
  61:Generated_Source\PSoC6\pdl\drivers\peripheral\prot/cy_prot.c **** {
  28              		.loc 1 61 0
  29              		.cfi_startproc
  30              		@ args = 0, pretend = 0, frame = 0
  31              		@ frame_needed = 0, uses_anonymous_args = 0
  32              	.LVL0:
  33 0000 F0B5     		push	{r4, r5, r6, r7, lr}
  34              		.cfi_def_cfa_offset 20
  35              		.cfi_offset 4, -20
  36              		.cfi_offset 5, -16
  37              		.cfi_offset 6, -12
  38              		.cfi_offset 7, -8
  39              		.cfi_offset 14, -4
  40 0002 4746     		mov	r7, r8
  41 0004 80B4     		push	{r7}
  42              		.cfi_def_cfa_offset 24
  43              		.cfi_offset 8, -24
  44 0006 0400     		movs	r4, r0
  45 0008 0E00     		movs	r6, r1
  46 000a 9046     		mov	r8, r2
  47 000c 1D00     		movs	r5, r3
  62:Generated_Source\PSoC6\pdl\drivers\peripheral\prot/cy_prot.c ****     cy_en_prot_status_t status;
  63:Generated_Source\PSoC6\pdl\drivers\peripheral\prot/cy_prot.c ****     uint32_t regVal;
  64:Generated_Source\PSoC6\pdl\drivers\peripheral\prot/cy_prot.c ****     uint32_t * addrMsCtl;
  65:Generated_Source\PSoC6\pdl\drivers\peripheral\prot/cy_prot.c **** 
  66:Generated_Source\PSoC6\pdl\drivers\peripheral\prot/cy_prot.c ****     CY_ASSERT_L1(CY_PROT_IS_BUS_MASTER_VALID(busMaster));
  48              		.loc 1 66 0
ARM GAS  C:\Users\gjl\AppData\Local\Temp\cc7xIfgu.s 			page 3


  49 000e 0F28     		cmp	r0, #15
  50 0010 03D9     		bls	.L2
  51              		.loc 1 66 0 is_stmt 0 discriminator 1
  52 0012 4221     		movs	r1, #66
  53              	.LVL1:
  54 0014 2548     		ldr	r0, .L19
  55              	.LVL2:
  56 0016 FFF7FEFF 		bl	Cy_SysLib_AssertFailed
  57              	.LVL3:
  58              	.L2:
  67:Generated_Source\PSoC6\pdl\drivers\peripheral\prot/cy_prot.c ****         
  68:Generated_Source\PSoC6\pdl\drivers\peripheral\prot/cy_prot.c ****     addrMsCtl = (uint32_t *)(PROT_BASE + (uint32_t)((uint32_t)busMaster << CY_PROT_MSX_CTL_SHIFT));
  59              		.loc 1 68 0 is_stmt 1
  60 001a A700     		lsls	r7, r4, #2
  61 001c 244B     		ldr	r3, .L19+4
  62 001e 9C46     		mov	ip, r3
  63 0020 6744     		add	r7, r7, ip
  64              	.LVL4:
  69:Generated_Source\PSoC6\pdl\drivers\peripheral\prot/cy_prot.c ****     
  70:Generated_Source\PSoC6\pdl\drivers\peripheral\prot/cy_prot.c ****     /* Check if PC mask is in supported range */
  71:Generated_Source\PSoC6\pdl\drivers\peripheral\prot/cy_prot.c ****     switch (busMaster)
  65              		.loc 1 71 0
  66 0022 0F2C     		cmp	r4, #15
  67 0024 23D8     		bhi	.L12
  68 0026 A400     		lsls	r4, r4, #2
  69 0028 224B     		ldr	r3, .L19+8
  70 002a 1B59     		ldr	r3, [r3, r4]
  71 002c 9F46     		mov	pc, r3
  72              		.section	.rodata
  73              		.align	2
  74              	.L5:
  75 0000 2E000000 		.word	.L4
  76 0004 3A000000 		.word	.L6
  77 0008 46000000 		.word	.L7
  78 000c 4E000000 		.word	.L8
  79 0010 6E000000 		.word	.L12
  80 0014 6E000000 		.word	.L12
  81 0018 6E000000 		.word	.L12
  82 001c 6E000000 		.word	.L12
  83 0020 6E000000 		.word	.L12
  84 0024 6E000000 		.word	.L12
  85 0028 6E000000 		.word	.L12
  86 002c 6E000000 		.word	.L12
  87 0030 6E000000 		.word	.L12
  88 0034 6E000000 		.word	.L12
  89 0038 56000000 		.word	.L9
  90 003c 62000000 		.word	.L10
  91              		.section	.text.Cy_Prot_ConfigBusMaster
  92              	.L4:
  72:Generated_Source\PSoC6\pdl\drivers\peripheral\prot/cy_prot.c ****     {
  73:Generated_Source\PSoC6\pdl\drivers\peripheral\prot/cy_prot.c ****         case (CPUSS_MS_ID_CM0):
  74:Generated_Source\PSoC6\pdl\drivers\peripheral\prot/cy_prot.c ****         {
  75:Generated_Source\PSoC6\pdl\drivers\peripheral\prot/cy_prot.c ****             status = ((uint32_t)(pcMask & CY_PROT_MS0_PC_LIMIT_MASK) != 0UL) ? CY_PROT_BAD_PARAM : 
  93              		.loc 1 75 0
  94 002e 7F23     		movs	r3, #127
  95 0030 2A00     		movs	r2, r5
  96 0032 9A43     		bics	r2, r3
ARM GAS  C:\Users\gjl\AppData\Local\Temp\cc7xIfgu.s 			page 4


  97 0034 1DD0     		beq	.L13
  98 0036 2048     		ldr	r0, .L19+12
  99 0038 26E0     		b	.L3
 100              	.L6:
  76:Generated_Source\PSoC6\pdl\drivers\peripheral\prot/cy_prot.c ****             break;
  77:Generated_Source\PSoC6\pdl\drivers\peripheral\prot/cy_prot.c ****         }
  78:Generated_Source\PSoC6\pdl\drivers\peripheral\prot/cy_prot.c ****         case (CPUSS_MS_ID_CRYPTO):
  79:Generated_Source\PSoC6\pdl\drivers\peripheral\prot/cy_prot.c ****         {
  80:Generated_Source\PSoC6\pdl\drivers\peripheral\prot/cy_prot.c ****             status = ((uint32_t)(pcMask & CY_PROT_MS1_PC_LIMIT_MASK) != 0UL) ? CY_PROT_BAD_PARAM : 
 101              		.loc 1 80 0
 102 003a 7F23     		movs	r3, #127
 103 003c 2A00     		movs	r2, r5
 104 003e 9A43     		bics	r2, r3
 105 0040 19D0     		beq	.L14
 106 0042 1D48     		ldr	r0, .L19+12
 107 0044 20E0     		b	.L3
 108              	.L7:
  81:Generated_Source\PSoC6\pdl\drivers\peripheral\prot/cy_prot.c ****             break;
  82:Generated_Source\PSoC6\pdl\drivers\peripheral\prot/cy_prot.c ****         }
  83:Generated_Source\PSoC6\pdl\drivers\peripheral\prot/cy_prot.c ****         case (CPUSS_MS_ID_DW0):
  84:Generated_Source\PSoC6\pdl\drivers\peripheral\prot/cy_prot.c ****         {
  85:Generated_Source\PSoC6\pdl\drivers\peripheral\prot/cy_prot.c ****             status = ((uint32_t)(pcMask & CY_PROT_MS2_PC_LIMIT_MASK) != 0UL) ? CY_PROT_BAD_PARAM : 
 109              		.loc 1 85 0
 110 0046 002D     		cmp	r5, #0
 111 0048 17D0     		beq	.L15
 112 004a 1B48     		ldr	r0, .L19+12
 113 004c 1CE0     		b	.L3
 114              	.L8:
  86:Generated_Source\PSoC6\pdl\drivers\peripheral\prot/cy_prot.c ****             break;
  87:Generated_Source\PSoC6\pdl\drivers\peripheral\prot/cy_prot.c ****         }
  88:Generated_Source\PSoC6\pdl\drivers\peripheral\prot/cy_prot.c ****         case (CPUSS_MS_ID_DW1):
  89:Generated_Source\PSoC6\pdl\drivers\peripheral\prot/cy_prot.c ****         {
  90:Generated_Source\PSoC6\pdl\drivers\peripheral\prot/cy_prot.c ****             status = ((uint32_t)(pcMask & CY_PROT_MS3_PC_LIMIT_MASK) != 0UL) ? CY_PROT_BAD_PARAM : 
 115              		.loc 1 90 0
 116 004e 002D     		cmp	r5, #0
 117 0050 15D0     		beq	.L16
 118 0052 1948     		ldr	r0, .L19+12
 119 0054 18E0     		b	.L3
 120              	.L9:
  91:Generated_Source\PSoC6\pdl\drivers\peripheral\prot/cy_prot.c ****             break;
  92:Generated_Source\PSoC6\pdl\drivers\peripheral\prot/cy_prot.c ****         }
  93:Generated_Source\PSoC6\pdl\drivers\peripheral\prot/cy_prot.c ****         case (CPUSS_MS_ID_CM4):
  94:Generated_Source\PSoC6\pdl\drivers\peripheral\prot/cy_prot.c ****         {
  95:Generated_Source\PSoC6\pdl\drivers\peripheral\prot/cy_prot.c ****             status = ((uint32_t)(pcMask & CY_PROT_MS14_PC_LIMIT_MASK) != 0UL) ? CY_PROT_BAD_PARAM :
 121              		.loc 1 95 0
 122 0056 7F23     		movs	r3, #127
 123 0058 2A00     		movs	r2, r5
 124 005a 9A43     		bics	r2, r3
 125 005c 11D0     		beq	.L17
 126 005e 1648     		ldr	r0, .L19+12
 127 0060 12E0     		b	.L3
 128              	.L10:
  96:Generated_Source\PSoC6\pdl\drivers\peripheral\prot/cy_prot.c ****             break;
  97:Generated_Source\PSoC6\pdl\drivers\peripheral\prot/cy_prot.c ****         }
  98:Generated_Source\PSoC6\pdl\drivers\peripheral\prot/cy_prot.c ****         case (CPUSS_MS_ID_TC):
  99:Generated_Source\PSoC6\pdl\drivers\peripheral\prot/cy_prot.c ****         {
 100:Generated_Source\PSoC6\pdl\drivers\peripheral\prot/cy_prot.c ****             status = ((uint32_t)(pcMask & CY_PROT_MS15_PC_LIMIT_MASK) != 0UL) ? CY_PROT_BAD_PARAM :
ARM GAS  C:\Users\gjl\AppData\Local\Temp\cc7xIfgu.s 			page 5


 129              		.loc 1 100 0
 130 0062 7F23     		movs	r3, #127
 131 0064 2A00     		movs	r2, r5
 132 0066 9A43     		bics	r2, r3
 133 0068 0DD0     		beq	.L18
 134 006a 1348     		ldr	r0, .L19+12
 135 006c 0CE0     		b	.L3
 136              	.L12:
 101:Generated_Source\PSoC6\pdl\drivers\peripheral\prot/cy_prot.c ****             break;
 102:Generated_Source\PSoC6\pdl\drivers\peripheral\prot/cy_prot.c ****         }
 103:Generated_Source\PSoC6\pdl\drivers\peripheral\prot/cy_prot.c ****         default:
 104:Generated_Source\PSoC6\pdl\drivers\peripheral\prot/cy_prot.c ****             status = CY_PROT_BAD_PARAM;
 137              		.loc 1 104 0
 138 006e 1248     		ldr	r0, .L19+12
 139 0070 0AE0     		b	.L3
 140              	.L13:
  75:Generated_Source\PSoC6\pdl\drivers\peripheral\prot/cy_prot.c ****             break;
 141              		.loc 1 75 0
 142 0072 0020     		movs	r0, #0
 143 0074 08E0     		b	.L3
 144              	.L14:
  80:Generated_Source\PSoC6\pdl\drivers\peripheral\prot/cy_prot.c ****             break;
 145              		.loc 1 80 0
 146 0076 0020     		movs	r0, #0
 147 0078 06E0     		b	.L3
 148              	.L15:
  85:Generated_Source\PSoC6\pdl\drivers\peripheral\prot/cy_prot.c ****             break;
 149              		.loc 1 85 0
 150 007a 0020     		movs	r0, #0
 151 007c 04E0     		b	.L3
 152              	.L16:
  90:Generated_Source\PSoC6\pdl\drivers\peripheral\prot/cy_prot.c ****             break;
 153              		.loc 1 90 0
 154 007e 0020     		movs	r0, #0
 155 0080 02E0     		b	.L3
 156              	.L17:
  95:Generated_Source\PSoC6\pdl\drivers\peripheral\prot/cy_prot.c ****             break;
 157              		.loc 1 95 0
 158 0082 0020     		movs	r0, #0
 159 0084 00E0     		b	.L3
 160              	.L18:
 100:Generated_Source\PSoC6\pdl\drivers\peripheral\prot/cy_prot.c ****             break;
 161              		.loc 1 100 0
 162 0086 0020     		movs	r0, #0
 163              	.L3:
 164              	.LVL5:
 105:Generated_Source\PSoC6\pdl\drivers\peripheral\prot/cy_prot.c ****         break;
 106:Generated_Source\PSoC6\pdl\drivers\peripheral\prot/cy_prot.c ****     }
 107:Generated_Source\PSoC6\pdl\drivers\peripheral\prot/cy_prot.c ****     
 108:Generated_Source\PSoC6\pdl\drivers\peripheral\prot/cy_prot.c ****     if(status != CY_PROT_BAD_PARAM) 
 165              		.loc 1 108 0
 166 0088 0B4B     		ldr	r3, .L19+12
 167 008a 9842     		cmp	r0, r3
 168 008c 0BD0     		beq	.L11
 109:Generated_Source\PSoC6\pdl\drivers\peripheral\prot/cy_prot.c ****     {
 110:Generated_Source\PSoC6\pdl\drivers\peripheral\prot/cy_prot.c ****         regVal = _VAL2FLD(PROT_SMPU_MS0_CTL_NS, !secure)
 169              		.loc 1 110 0
ARM GAS  C:\Users\gjl\AppData\Local\Temp\cc7xIfgu.s 			page 6


 170 008e 0121     		movs	r1, #1
 171 0090 4246     		mov	r2, r8
 172 0092 4A40     		eors	r2, r1
 173 0094 D1B2     		uxtb	r1, r2
 174 0096 4B00     		lsls	r3, r1, #1
 175 0098 0221     		movs	r1, #2
 176 009a 1940     		ands	r1, r3
 111:Generated_Source\PSoC6\pdl\drivers\peripheral\prot/cy_prot.c ****                 | _VAL2FLD(PROT_SMPU_MS0_CTL_P, privileged)
 177              		.loc 1 111 0
 178 009c 3143     		orrs	r1, r6
 112:Generated_Source\PSoC6\pdl\drivers\peripheral\prot/cy_prot.c ****                 | _VAL2FLD(PROT_SMPU_MS0_CTL_PC_MASK_15_TO_1, pcMask);
 179              		.loc 1 112 0
 180 009e 6D04     		lsls	r5, r5, #17
 181              	.LVL6:
 110:Generated_Source\PSoC6\pdl\drivers\peripheral\prot/cy_prot.c ****                 | _VAL2FLD(PROT_SMPU_MS0_CTL_P, privileged)
 182              		.loc 1 110 0
 183 00a0 2943     		orrs	r1, r5
 184              	.LVL7:
 113:Generated_Source\PSoC6\pdl\drivers\peripheral\prot/cy_prot.c ****         *addrMsCtl = regVal;
 185              		.loc 1 113 0
 186 00a2 3960     		str	r1, [r7]
 114:Generated_Source\PSoC6\pdl\drivers\peripheral\prot/cy_prot.c ****         status = (*addrMsCtl != regVal) ? CY_PROT_FAILURE : CY_PROT_SUCCESS;
 187              		.loc 1 114 0
 188 00a4 0020     		movs	r0, #0
 189              	.LVL8:
 190              	.L11:
 115:Generated_Source\PSoC6\pdl\drivers\peripheral\prot/cy_prot.c ****     }
 116:Generated_Source\PSoC6\pdl\drivers\peripheral\prot/cy_prot.c ****     
 117:Generated_Source\PSoC6\pdl\drivers\peripheral\prot/cy_prot.c ****     return status;
 118:Generated_Source\PSoC6\pdl\drivers\peripheral\prot/cy_prot.c **** }
 191              		.loc 1 118 0
 192              		@ sp needed
 193              	.LVL9:
 194 00a6 04BC     		pop	{r2}
 195 00a8 9046     		mov	r8, r2
 196 00aa F0BD     		pop	{r4, r5, r6, r7, pc}
 197              	.L20:
 198              		.align	2
 199              	.L19:
 200 00ac 00000000 		.word	.LC0
 201 00b0 00002440 		.word	1076101120
 202 00b4 00000000 		.word	.L5
 203 00b8 0100C200 		.word	12713985
 204              		.cfi_endproc
 205              	.LFE36:
 206              		.size	Cy_Prot_ConfigBusMaster, .-Cy_Prot_ConfigBusMaster
 207              		.section	.text.Cy_Prot_SetActivePC,"ax",%progbits
 208              		.align	2
 209              		.global	Cy_Prot_SetActivePC
 210              		.code	16
 211              		.thumb_func
 212              		.type	Cy_Prot_SetActivePC, %function
 213              	Cy_Prot_SetActivePC:
 214              	.LFB37:
 119:Generated_Source\PSoC6\pdl\drivers\peripheral\prot/cy_prot.c **** 
 120:Generated_Source\PSoC6\pdl\drivers\peripheral\prot/cy_prot.c **** 
 121:Generated_Source\PSoC6\pdl\drivers\peripheral\prot/cy_prot.c **** /*******************************************************************************
ARM GAS  C:\Users\gjl\AppData\Local\Temp\cc7xIfgu.s 			page 7


 122:Generated_Source\PSoC6\pdl\drivers\peripheral\prot/cy_prot.c **** * Function Name: Cy_Prot_SetActivePC
 123:Generated_Source\PSoC6\pdl\drivers\peripheral\prot/cy_prot.c **** ****************************************************************************//**
 124:Generated_Source\PSoC6\pdl\drivers\peripheral\prot/cy_prot.c **** *
 125:Generated_Source\PSoC6\pdl\drivers\peripheral\prot/cy_prot.c **** * \brief Sets the current/active protection context of the specified bus master.
 126:Generated_Source\PSoC6\pdl\drivers\peripheral\prot/cy_prot.c **** * 
 127:Generated_Source\PSoC6\pdl\drivers\peripheral\prot/cy_prot.c **** * Allowed PC values are 1-15. If this value is not inherited from another bus 
 128:Generated_Source\PSoC6\pdl\drivers\peripheral\prot/cy_prot.c **** * master, the value set through this function is used.
 129:Generated_Source\PSoC6\pdl\drivers\peripheral\prot/cy_prot.c **** *
 130:Generated_Source\PSoC6\pdl\drivers\peripheral\prot/cy_prot.c **** * \param busMaster
 131:Generated_Source\PSoC6\pdl\drivers\peripheral\prot/cy_prot.c **** * The bus master to configure. Refer to the CPUSS_MS_ID_X defines.
 132:Generated_Source\PSoC6\pdl\drivers\peripheral\prot/cy_prot.c **** * 
 133:Generated_Source\PSoC6\pdl\drivers\peripheral\prot/cy_prot.c **** * \param pc
 134:Generated_Source\PSoC6\pdl\drivers\peripheral\prot/cy_prot.c **** * Active protection context of the specified master. Note that only those 
 135:Generated_Source\PSoC6\pdl\drivers\peripheral\prot/cy_prot.c **** * protection contexts allowed by the pcMask will take effect. 
 136:Generated_Source\PSoC6\pdl\drivers\peripheral\prot/cy_prot.c **** *
 137:Generated_Source\PSoC6\pdl\drivers\peripheral\prot/cy_prot.c **** * \return
 138:Generated_Source\PSoC6\pdl\drivers\peripheral\prot/cy_prot.c **** * Status of the function call.
 139:Generated_Source\PSoC6\pdl\drivers\peripheral\prot/cy_prot.c **** *
 140:Generated_Source\PSoC6\pdl\drivers\peripheral\prot/cy_prot.c **** *   Status               | Description
 141:Generated_Source\PSoC6\pdl\drivers\peripheral\prot/cy_prot.c **** *   ------------         | -----------
 142:Generated_Source\PSoC6\pdl\drivers\peripheral\prot/cy_prot.c **** *   CY_PROT_SUCCESS      | The function completed successfully
 143:Generated_Source\PSoC6\pdl\drivers\peripheral\prot/cy_prot.c **** *   CY_PROT_FAILURE      | The resource is locked
 144:Generated_Source\PSoC6\pdl\drivers\peripheral\prot/cy_prot.c **** *   CY_PROT_BAD_PARAM    | An incorrect/invalid parameter was passed
 145:Generated_Source\PSoC6\pdl\drivers\peripheral\prot/cy_prot.c **** *
 146:Generated_Source\PSoC6\pdl\drivers\peripheral\prot/cy_prot.c **** * \funcusage
 147:Generated_Source\PSoC6\pdl\drivers\peripheral\prot/cy_prot.c **** * \snippet prot/prot_v1_10_sut_01.cydsn/main_cm4.c snippet_Cy_Prot_SetActivePC
 148:Generated_Source\PSoC6\pdl\drivers\peripheral\prot/cy_prot.c **** *
 149:Generated_Source\PSoC6\pdl\drivers\peripheral\prot/cy_prot.c **** *******************************************************************************/
 150:Generated_Source\PSoC6\pdl\drivers\peripheral\prot/cy_prot.c **** cy_en_prot_status_t Cy_Prot_SetActivePC(en_prot_master_t busMaster, uint32_t pc)
 151:Generated_Source\PSoC6\pdl\drivers\peripheral\prot/cy_prot.c **** {
 215              		.loc 1 151 0
 216              		.cfi_startproc
 217              		@ args = 0, pretend = 0, frame = 0
 218              		@ frame_needed = 0, uses_anonymous_args = 0
 219              	.LVL10:
 220 0000 70B5     		push	{r4, r5, r6, lr}
 221              		.cfi_def_cfa_offset 16
 222              		.cfi_offset 4, -16
 223              		.cfi_offset 5, -12
 224              		.cfi_offset 6, -8
 225              		.cfi_offset 14, -4
 226 0002 0400     		movs	r4, r0
 227 0004 0D00     		movs	r5, r1
 152:Generated_Source\PSoC6\pdl\drivers\peripheral\prot/cy_prot.c ****     cy_en_prot_status_t status;
 153:Generated_Source\PSoC6\pdl\drivers\peripheral\prot/cy_prot.c ****     PROT_MPU_Type* addrMpu;
 154:Generated_Source\PSoC6\pdl\drivers\peripheral\prot/cy_prot.c ****     
 155:Generated_Source\PSoC6\pdl\drivers\peripheral\prot/cy_prot.c ****     CY_ASSERT_L1(CY_PROT_IS_BUS_MASTER_VALID(busMaster));
 228              		.loc 1 155 0
 229 0006 0F28     		cmp	r0, #15
 230 0008 03D9     		bls	.L22
 231              		.loc 1 155 0 is_stmt 0 discriminator 1
 232 000a 9B21     		movs	r1, #155
 233              	.LVL11:
 234 000c 2248     		ldr	r0, .L40
 235              	.LVL12:
 236 000e FFF7FEFF 		bl	Cy_SysLib_AssertFailed
 237              	.LVL13:
ARM GAS  C:\Users\gjl\AppData\Local\Temp\cc7xIfgu.s 			page 8


 238              	.L22:
 156:Generated_Source\PSoC6\pdl\drivers\peripheral\prot/cy_prot.c ****     
 157:Generated_Source\PSoC6\pdl\drivers\peripheral\prot/cy_prot.c ****     addrMpu = (PROT_MPU_Type*)(&PROT->CYMPU[busMaster]); 
 239              		.loc 1 157 0 is_stmt 1
 240 0012 A102     		lsls	r1, r4, #10
 241 0014 214B     		ldr	r3, .L40+4
 242 0016 9C46     		mov	ip, r3
 243 0018 6144     		add	r1, r1, ip
 244              	.LVL14:
 158:Generated_Source\PSoC6\pdl\drivers\peripheral\prot/cy_prot.c ****     
 159:Generated_Source\PSoC6\pdl\drivers\peripheral\prot/cy_prot.c ****     /* Check if PC value is in supported range */
 160:Generated_Source\PSoC6\pdl\drivers\peripheral\prot/cy_prot.c ****     switch (busMaster)
 245              		.loc 1 160 0
 246 001a 0F2C     		cmp	r4, #15
 247 001c 1BD8     		bhi	.L32
 248 001e A400     		lsls	r4, r4, #2
 249 0020 1F4B     		ldr	r3, .L40+8
 250 0022 1B59     		ldr	r3, [r3, r4]
 251 0024 9F46     		mov	pc, r3
 252              		.section	.rodata
 253              		.align	2
 254              	.L25:
 255 0040 26000000 		.word	.L24
 256 0044 2E000000 		.word	.L26
 257 0048 36000000 		.word	.L27
 258 004c 3E000000 		.word	.L28
 259 0050 56000000 		.word	.L32
 260 0054 56000000 		.word	.L32
 261 0058 56000000 		.word	.L32
 262 005c 56000000 		.word	.L32
 263 0060 56000000 		.word	.L32
 264 0064 56000000 		.word	.L32
 265 0068 56000000 		.word	.L32
 266 006c 56000000 		.word	.L32
 267 0070 56000000 		.word	.L32
 268 0074 56000000 		.word	.L32
 269 0078 46000000 		.word	.L29
 270 007c 4E000000 		.word	.L30
 271              		.section	.text.Cy_Prot_SetActivePC
 272              	.L24:
 161:Generated_Source\PSoC6\pdl\drivers\peripheral\prot/cy_prot.c ****     {
 162:Generated_Source\PSoC6\pdl\drivers\peripheral\prot/cy_prot.c ****         case (CPUSS_MS_ID_CM0):
 163:Generated_Source\PSoC6\pdl\drivers\peripheral\prot/cy_prot.c ****         {
 164:Generated_Source\PSoC6\pdl\drivers\peripheral\prot/cy_prot.c ****             status = (pc > CPUSS_PROT_SMPU_MS0_PC_NR_MINUS1) ? CY_PROT_BAD_PARAM : CY_PROT_SUCCESS;
 273              		.loc 1 164 0
 274 0026 072D     		cmp	r5, #7
 275 0028 17D9     		bls	.L33
 276 002a 1E48     		ldr	r0, .L40+12
 277 002c 20E0     		b	.L23
 278              	.L26:
 165:Generated_Source\PSoC6\pdl\drivers\peripheral\prot/cy_prot.c ****             break;
 166:Generated_Source\PSoC6\pdl\drivers\peripheral\prot/cy_prot.c ****         }
 167:Generated_Source\PSoC6\pdl\drivers\peripheral\prot/cy_prot.c ****         case (CPUSS_MS_ID_CRYPTO):
 168:Generated_Source\PSoC6\pdl\drivers\peripheral\prot/cy_prot.c ****         {
 169:Generated_Source\PSoC6\pdl\drivers\peripheral\prot/cy_prot.c ****             status = (pc > CPUSS_PROT_SMPU_MS1_PC_NR_MINUS1) ? CY_PROT_BAD_PARAM : CY_PROT_SUCCESS;
 279              		.loc 1 169 0
 280 002e 072D     		cmp	r5, #7
ARM GAS  C:\Users\gjl\AppData\Local\Temp\cc7xIfgu.s 			page 9


 281 0030 15D9     		bls	.L34
 282 0032 1C48     		ldr	r0, .L40+12
 283 0034 1CE0     		b	.L23
 284              	.L27:
 170:Generated_Source\PSoC6\pdl\drivers\peripheral\prot/cy_prot.c ****             break;
 171:Generated_Source\PSoC6\pdl\drivers\peripheral\prot/cy_prot.c ****         }
 172:Generated_Source\PSoC6\pdl\drivers\peripheral\prot/cy_prot.c ****         case (CPUSS_MS_ID_DW0):
 173:Generated_Source\PSoC6\pdl\drivers\peripheral\prot/cy_prot.c ****         {
 174:Generated_Source\PSoC6\pdl\drivers\peripheral\prot/cy_prot.c ****             status = (pc > CPUSS_PROT_SMPU_MS2_PC_NR_MINUS1) ? CY_PROT_BAD_PARAM : CY_PROT_SUCCESS;
 285              		.loc 1 174 0
 286 0036 002D     		cmp	r5, #0
 287 0038 13D0     		beq	.L35
 288 003a 1A48     		ldr	r0, .L40+12
 289 003c 18E0     		b	.L23
 290              	.L28:
 175:Generated_Source\PSoC6\pdl\drivers\peripheral\prot/cy_prot.c ****             break;
 176:Generated_Source\PSoC6\pdl\drivers\peripheral\prot/cy_prot.c ****         }
 177:Generated_Source\PSoC6\pdl\drivers\peripheral\prot/cy_prot.c ****         case (CPUSS_MS_ID_DW1):
 178:Generated_Source\PSoC6\pdl\drivers\peripheral\prot/cy_prot.c ****         {
 179:Generated_Source\PSoC6\pdl\drivers\peripheral\prot/cy_prot.c ****             status = (pc > CPUSS_PROT_SMPU_MS3_PC_NR_MINUS1) ? CY_PROT_BAD_PARAM : CY_PROT_SUCCESS;
 291              		.loc 1 179 0
 292 003e 002D     		cmp	r5, #0
 293 0040 11D0     		beq	.L36
 294 0042 1848     		ldr	r0, .L40+12
 295 0044 14E0     		b	.L23
 296              	.L29:
 180:Generated_Source\PSoC6\pdl\drivers\peripheral\prot/cy_prot.c ****             break;
 181:Generated_Source\PSoC6\pdl\drivers\peripheral\prot/cy_prot.c ****         }
 182:Generated_Source\PSoC6\pdl\drivers\peripheral\prot/cy_prot.c ****         case (CPUSS_MS_ID_CM4):
 183:Generated_Source\PSoC6\pdl\drivers\peripheral\prot/cy_prot.c ****         {
 184:Generated_Source\PSoC6\pdl\drivers\peripheral\prot/cy_prot.c ****             status = (pc > CPUSS_PROT_SMPU_MS14_PC_NR_MINUS1) ? CY_PROT_BAD_PARAM : CY_PROT_SUCCESS
 297              		.loc 1 184 0
 298 0046 072D     		cmp	r5, #7
 299 0048 0FD9     		bls	.L37
 300 004a 1648     		ldr	r0, .L40+12
 301 004c 10E0     		b	.L23
 302              	.L30:
 185:Generated_Source\PSoC6\pdl\drivers\peripheral\prot/cy_prot.c ****             break;
 186:Generated_Source\PSoC6\pdl\drivers\peripheral\prot/cy_prot.c ****         }
 187:Generated_Source\PSoC6\pdl\drivers\peripheral\prot/cy_prot.c ****         case (CPUSS_MS_ID_TC):
 188:Generated_Source\PSoC6\pdl\drivers\peripheral\prot/cy_prot.c ****         {
 189:Generated_Source\PSoC6\pdl\drivers\peripheral\prot/cy_prot.c ****             status = (pc > CPUSS_PROT_SMPU_MS15_PC_NR_MINUS1) ? CY_PROT_BAD_PARAM : CY_PROT_SUCCESS
 303              		.loc 1 189 0
 304 004e 072D     		cmp	r5, #7
 305 0050 0DD9     		bls	.L38
 306 0052 1448     		ldr	r0, .L40+12
 307 0054 0CE0     		b	.L23
 308              	.L32:
 190:Generated_Source\PSoC6\pdl\drivers\peripheral\prot/cy_prot.c ****             break;
 191:Generated_Source\PSoC6\pdl\drivers\peripheral\prot/cy_prot.c ****         }
 192:Generated_Source\PSoC6\pdl\drivers\peripheral\prot/cy_prot.c ****         default:
 193:Generated_Source\PSoC6\pdl\drivers\peripheral\prot/cy_prot.c ****             status = CY_PROT_BAD_PARAM;
 309              		.loc 1 193 0
 310 0056 1348     		ldr	r0, .L40+12
 311 0058 0AE0     		b	.L23
 312              	.L33:
 164:Generated_Source\PSoC6\pdl\drivers\peripheral\prot/cy_prot.c ****             break;
ARM GAS  C:\Users\gjl\AppData\Local\Temp\cc7xIfgu.s 			page 10


 313              		.loc 1 164 0
 314 005a 0020     		movs	r0, #0
 315 005c 08E0     		b	.L23
 316              	.L34:
 169:Generated_Source\PSoC6\pdl\drivers\peripheral\prot/cy_prot.c ****             break;
 317              		.loc 1 169 0
 318 005e 0020     		movs	r0, #0
 319 0060 06E0     		b	.L23
 320              	.L35:
 174:Generated_Source\PSoC6\pdl\drivers\peripheral\prot/cy_prot.c ****             break;
 321              		.loc 1 174 0
 322 0062 0020     		movs	r0, #0
 323 0064 04E0     		b	.L23
 324              	.L36:
 179:Generated_Source\PSoC6\pdl\drivers\peripheral\prot/cy_prot.c ****             break;
 325              		.loc 1 179 0
 326 0066 0020     		movs	r0, #0
 327 0068 02E0     		b	.L23
 328              	.L37:
 184:Generated_Source\PSoC6\pdl\drivers\peripheral\prot/cy_prot.c ****             break;
 329              		.loc 1 184 0
 330 006a 0020     		movs	r0, #0
 331 006c 00E0     		b	.L23
 332              	.L38:
 189:Generated_Source\PSoC6\pdl\drivers\peripheral\prot/cy_prot.c ****             break;
 333              		.loc 1 189 0
 334 006e 0020     		movs	r0, #0
 335              	.L23:
 336              	.LVL15:
 194:Generated_Source\PSoC6\pdl\drivers\peripheral\prot/cy_prot.c ****         break;
 195:Generated_Source\PSoC6\pdl\drivers\peripheral\prot/cy_prot.c ****     }
 196:Generated_Source\PSoC6\pdl\drivers\peripheral\prot/cy_prot.c ****     
 197:Generated_Source\PSoC6\pdl\drivers\peripheral\prot/cy_prot.c ****     if(status != CY_PROT_BAD_PARAM) 
 337              		.loc 1 197 0
 338 0070 0C4B     		ldr	r3, .L40+12
 339 0072 9842     		cmp	r0, r3
 340 0074 0FD0     		beq	.L31
 198:Generated_Source\PSoC6\pdl\drivers\peripheral\prot/cy_prot.c ****     {
 199:Generated_Source\PSoC6\pdl\drivers\peripheral\prot/cy_prot.c ****         addrMpu->MS_CTL = _VAL2FLD(PROT_MPU_MS_CTL_PC, pc) | _VAL2FLD(PROT_MPU_MS_CTL_PC_SAVED, pc)
 341              		.loc 1 199 0
 342 0076 0F20     		movs	r0, #15
 343              	.LVL16:
 344 0078 0400     		movs	r4, r0
 345 007a 2C40     		ands	r4, r5
 346 007c 2B04     		lsls	r3, r5, #16
 347 007e F022     		movs	r2, #240
 348 0080 1203     		lsls	r2, r2, #12
 349 0082 1340     		ands	r3, r2
 350 0084 2343     		orrs	r3, r4
 351 0086 0B60     		str	r3, [r1]
 200:Generated_Source\PSoC6\pdl\drivers\peripheral\prot/cy_prot.c ****         status = (_FLD2VAL(PROT_MPU_MS_CTL_PC, addrMpu->MS_CTL) != pc) ? CY_PROT_FAILURE : CY_PROT_
 352              		.loc 1 200 0
 353 0088 0B68     		ldr	r3, [r1]
 354 008a 0340     		ands	r3, r0
 355 008c 9D42     		cmp	r5, r3
 356 008e 01D0     		beq	.L39
 357 0090 0548     		ldr	r0, .L40+16
ARM GAS  C:\Users\gjl\AppData\Local\Temp\cc7xIfgu.s 			page 11


 358 0092 00E0     		b	.L31
 359              	.L39:
 360 0094 0020     		movs	r0, #0
 361              	.L31:
 362              	.LVL17:
 201:Generated_Source\PSoC6\pdl\drivers\peripheral\prot/cy_prot.c ****     }
 202:Generated_Source\PSoC6\pdl\drivers\peripheral\prot/cy_prot.c ****     
 203:Generated_Source\PSoC6\pdl\drivers\peripheral\prot/cy_prot.c ****     return status;
 204:Generated_Source\PSoC6\pdl\drivers\peripheral\prot/cy_prot.c **** }
 363              		.loc 1 204 0
 364              		@ sp needed
 365              	.LVL18:
 366 0096 70BD     		pop	{r4, r5, r6, pc}
 367              	.L41:
 368              		.align	2
 369              	.L40:
 370 0098 00000000 		.word	.LC0
 371 009c 00402440 		.word	1076117504
 372 00a0 40000000 		.word	.L25
 373 00a4 0100C200 		.word	12713985
 374 00a8 0300C200 		.word	12713987
 375              		.cfi_endproc
 376              	.LFE37:
 377              		.size	Cy_Prot_SetActivePC, .-Cy_Prot_SetActivePC
 378              		.section	.text.Cy_Prot_GetActivePC,"ax",%progbits
 379              		.align	2
 380              		.global	Cy_Prot_GetActivePC
 381              		.code	16
 382              		.thumb_func
 383              		.type	Cy_Prot_GetActivePC, %function
 384              	Cy_Prot_GetActivePC:
 385              	.LFB38:
 205:Generated_Source\PSoC6\pdl\drivers\peripheral\prot/cy_prot.c **** 
 206:Generated_Source\PSoC6\pdl\drivers\peripheral\prot/cy_prot.c **** 
 207:Generated_Source\PSoC6\pdl\drivers\peripheral\prot/cy_prot.c **** /*******************************************************************************
 208:Generated_Source\PSoC6\pdl\drivers\peripheral\prot/cy_prot.c **** * Function Name: Cy_Prot_GetActivePC
 209:Generated_Source\PSoC6\pdl\drivers\peripheral\prot/cy_prot.c **** ****************************************************************************//**
 210:Generated_Source\PSoC6\pdl\drivers\peripheral\prot/cy_prot.c **** *
 211:Generated_Source\PSoC6\pdl\drivers\peripheral\prot/cy_prot.c **** * \brief Returns the active protection context of a master. 
 212:Generated_Source\PSoC6\pdl\drivers\peripheral\prot/cy_prot.c **** *
 213:Generated_Source\PSoC6\pdl\drivers\peripheral\prot/cy_prot.c **** * \param busMaster
 214:Generated_Source\PSoC6\pdl\drivers\peripheral\prot/cy_prot.c **** * The bus master, whose protection context is being read. Refer to the 
 215:Generated_Source\PSoC6\pdl\drivers\peripheral\prot/cy_prot.c **** * CPUSS_MS_ID_X defines.
 216:Generated_Source\PSoC6\pdl\drivers\peripheral\prot/cy_prot.c **** * 
 217:Generated_Source\PSoC6\pdl\drivers\peripheral\prot/cy_prot.c **** * \return
 218:Generated_Source\PSoC6\pdl\drivers\peripheral\prot/cy_prot.c **** * Active protection context of the master
 219:Generated_Source\PSoC6\pdl\drivers\peripheral\prot/cy_prot.c **** *
 220:Generated_Source\PSoC6\pdl\drivers\peripheral\prot/cy_prot.c **** * \funcusage
 221:Generated_Source\PSoC6\pdl\drivers\peripheral\prot/cy_prot.c **** * \snippet prot/prot_v1_10_sut_01.cydsn/main_cm4.c snippet_Cy_Prot_SetActivePC
 222:Generated_Source\PSoC6\pdl\drivers\peripheral\prot/cy_prot.c **** *
 223:Generated_Source\PSoC6\pdl\drivers\peripheral\prot/cy_prot.c **** *******************************************************************************/
 224:Generated_Source\PSoC6\pdl\drivers\peripheral\prot/cy_prot.c **** uint32_t Cy_Prot_GetActivePC(en_prot_master_t busMaster)
 225:Generated_Source\PSoC6\pdl\drivers\peripheral\prot/cy_prot.c **** {
 386              		.loc 1 225 0
 387              		.cfi_startproc
 388              		@ args = 0, pretend = 0, frame = 0
 389              		@ frame_needed = 0, uses_anonymous_args = 0
ARM GAS  C:\Users\gjl\AppData\Local\Temp\cc7xIfgu.s 			page 12


 390              	.LVL19:
 391 0000 10B5     		push	{r4, lr}
 392              		.cfi_def_cfa_offset 8
 393              		.cfi_offset 4, -8
 394              		.cfi_offset 14, -4
 395 0002 0400     		movs	r4, r0
 226:Generated_Source\PSoC6\pdl\drivers\peripheral\prot/cy_prot.c ****     PROT_MPU_Type* addrMpu;
 227:Generated_Source\PSoC6\pdl\drivers\peripheral\prot/cy_prot.c ****     
 228:Generated_Source\PSoC6\pdl\drivers\peripheral\prot/cy_prot.c ****     CY_ASSERT_L1(CY_PROT_IS_BUS_MASTER_VALID(busMaster));
 396              		.loc 1 228 0
 397 0004 0F28     		cmp	r0, #15
 398 0006 03D9     		bls	.L43
 399              		.loc 1 228 0 is_stmt 0 discriminator 1
 400 0008 E421     		movs	r1, #228
 401 000a 0548     		ldr	r0, .L44
 402              	.LVL20:
 403 000c FFF7FEFF 		bl	Cy_SysLib_AssertFailed
 404              	.LVL21:
 405              	.L43:
 229:Generated_Source\PSoC6\pdl\drivers\peripheral\prot/cy_prot.c ****     
 230:Generated_Source\PSoC6\pdl\drivers\peripheral\prot/cy_prot.c ****     addrMpu = (PROT_MPU_Type*)(&PROT->CYMPU[busMaster]);
 406              		.loc 1 230 0 is_stmt 1
 407 0010 A402     		lsls	r4, r4, #10
 408 0012 044B     		ldr	r3, .L44+4
 409 0014 9C46     		mov	ip, r3
 410 0016 6444     		add	r4, r4, ip
 411              	.LVL22:
 231:Generated_Source\PSoC6\pdl\drivers\peripheral\prot/cy_prot.c ****     
 232:Generated_Source\PSoC6\pdl\drivers\peripheral\prot/cy_prot.c ****     return ((uint32_t)_FLD2VAL(PROT_MPU_MS_CTL_PC, addrMpu->MS_CTL));
 412              		.loc 1 232 0
 413 0018 2368     		ldr	r3, [r4]
 414 001a 0F20     		movs	r0, #15
 415 001c 1840     		ands	r0, r3
 233:Generated_Source\PSoC6\pdl\drivers\peripheral\prot/cy_prot.c **** }
 416              		.loc 1 233 0
 417              		@ sp needed
 418              	.LVL23:
 419 001e 10BD     		pop	{r4, pc}
 420              	.L45:
 421              		.align	2
 422              	.L44:
 423 0020 00000000 		.word	.LC0
 424 0024 00402440 		.word	1076117504
 425              		.cfi_endproc
 426              	.LFE38:
 427              		.size	Cy_Prot_GetActivePC, .-Cy_Prot_GetActivePC
 428              		.section	.text.Cy_Prot_ConfigMpuStruct,"ax",%progbits
 429              		.align	2
 430              		.global	Cy_Prot_ConfigMpuStruct
 431              		.code	16
 432              		.thumb_func
 433              		.type	Cy_Prot_ConfigMpuStruct, %function
 434              	Cy_Prot_ConfigMpuStruct:
 435              	.LFB39:
 234:Generated_Source\PSoC6\pdl\drivers\peripheral\prot/cy_prot.c **** 
 235:Generated_Source\PSoC6\pdl\drivers\peripheral\prot/cy_prot.c **** 
 236:Generated_Source\PSoC6\pdl\drivers\peripheral\prot/cy_prot.c **** /*******************************************************************************
ARM GAS  C:\Users\gjl\AppData\Local\Temp\cc7xIfgu.s 			page 13


 237:Generated_Source\PSoC6\pdl\drivers\peripheral\prot/cy_prot.c **** * Function Name: Cy_Prot_ConfigMpuStruct
 238:Generated_Source\PSoC6\pdl\drivers\peripheral\prot/cy_prot.c **** ****************************************************************************//**
 239:Generated_Source\PSoC6\pdl\drivers\peripheral\prot/cy_prot.c **** *
 240:Generated_Source\PSoC6\pdl\drivers\peripheral\prot/cy_prot.c **** * \brief This function configures a memory protection unit (MPU) struct with its 
 241:Generated_Source\PSoC6\pdl\drivers\peripheral\prot/cy_prot.c **** * protection attributes. 
 242:Generated_Source\PSoC6\pdl\drivers\peripheral\prot/cy_prot.c **** *
 243:Generated_Source\PSoC6\pdl\drivers\peripheral\prot/cy_prot.c **** * The protection structs act like the gatekeepers for a master's accesses to
 244:Generated_Source\PSoC6\pdl\drivers\peripheral\prot/cy_prot.c **** * memory, allowing only the permitted transactions to go through.
 245:Generated_Source\PSoC6\pdl\drivers\peripheral\prot/cy_prot.c **** *
 246:Generated_Source\PSoC6\pdl\drivers\peripheral\prot/cy_prot.c **** * \param base
 247:Generated_Source\PSoC6\pdl\drivers\peripheral\prot/cy_prot.c **** * The base address for the MPU struct being configured. 
 248:Generated_Source\PSoC6\pdl\drivers\peripheral\prot/cy_prot.c **** * 
 249:Generated_Source\PSoC6\pdl\drivers\peripheral\prot/cy_prot.c **** * \param config
 250:Generated_Source\PSoC6\pdl\drivers\peripheral\prot/cy_prot.c **** * Initialization structure containing all the protection attributes.
 251:Generated_Source\PSoC6\pdl\drivers\peripheral\prot/cy_prot.c **** * 
 252:Generated_Source\PSoC6\pdl\drivers\peripheral\prot/cy_prot.c **** * \return
 253:Generated_Source\PSoC6\pdl\drivers\peripheral\prot/cy_prot.c **** * Status of the function call.
 254:Generated_Source\PSoC6\pdl\drivers\peripheral\prot/cy_prot.c **** *
 255:Generated_Source\PSoC6\pdl\drivers\peripheral\prot/cy_prot.c **** *   Status               | Description
 256:Generated_Source\PSoC6\pdl\drivers\peripheral\prot/cy_prot.c **** *   ------------         | -----------
 257:Generated_Source\PSoC6\pdl\drivers\peripheral\prot/cy_prot.c **** *   CY_PROT_SUCCESS      | The MPU struct was configured
 258:Generated_Source\PSoC6\pdl\drivers\peripheral\prot/cy_prot.c **** *   CY_PROT_FAILURE      | Configuration failed due to a protection violation
 259:Generated_Source\PSoC6\pdl\drivers\peripheral\prot/cy_prot.c **** *
 260:Generated_Source\PSoC6\pdl\drivers\peripheral\prot/cy_prot.c **** * \funcusage
 261:Generated_Source\PSoC6\pdl\drivers\peripheral\prot/cy_prot.c **** * \snippet prot/prot_v1_10_sut_01.cydsn/main_cm4.c snippet_Cy_Prot_ConfigMpuStruct
 262:Generated_Source\PSoC6\pdl\drivers\peripheral\prot/cy_prot.c **** *
 263:Generated_Source\PSoC6\pdl\drivers\peripheral\prot/cy_prot.c **** *******************************************************************************/
 264:Generated_Source\PSoC6\pdl\drivers\peripheral\prot/cy_prot.c **** cy_en_prot_status_t Cy_Prot_ConfigMpuStruct(PROT_MPU_MPU_STRUCT_Type* base, const cy_stc_mpu_cfg_t*
 265:Generated_Source\PSoC6\pdl\drivers\peripheral\prot/cy_prot.c **** {
 436              		.loc 1 265 0
 437              		.cfi_startproc
 438              		@ args = 0, pretend = 0, frame = 0
 439              		@ frame_needed = 0, uses_anonymous_args = 0
 440              	.LVL24:
 441 0000 70B5     		push	{r4, r5, r6, lr}
 442              		.cfi_def_cfa_offset 16
 443              		.cfi_offset 4, -16
 444              		.cfi_offset 5, -12
 445              		.cfi_offset 6, -8
 446              		.cfi_offset 14, -4
 447 0002 0500     		movs	r5, r0
 448 0004 0C00     		movs	r4, r1
 266:Generated_Source\PSoC6\pdl\drivers\peripheral\prot/cy_prot.c ****     cy_en_prot_status_t status;
 267:Generated_Source\PSoC6\pdl\drivers\peripheral\prot/cy_prot.c ****     uint32_t addrReg;
 268:Generated_Source\PSoC6\pdl\drivers\peripheral\prot/cy_prot.c ****     uint32_t attReg;
 269:Generated_Source\PSoC6\pdl\drivers\peripheral\prot/cy_prot.c **** 
 270:Generated_Source\PSoC6\pdl\drivers\peripheral\prot/cy_prot.c ****     CY_ASSERT_L1(NULL != base);
 449              		.loc 1 270 0
 450 0006 0028     		cmp	r0, #0
 451 0008 04D1     		bne	.L47
 452              		.loc 1 270 0 is_stmt 0 discriminator 1
 453 000a 8721     		movs	r1, #135
 454              	.LVL25:
 455 000c 4900     		lsls	r1, r1, #1
 456 000e 2348     		ldr	r0, .L54
 457              	.LVL26:
 458 0010 FFF7FEFF 		bl	Cy_SysLib_AssertFailed
ARM GAS  C:\Users\gjl\AppData\Local\Temp\cc7xIfgu.s 			page 14


 459              	.LVL27:
 460              	.L47:
 271:Generated_Source\PSoC6\pdl\drivers\peripheral\prot/cy_prot.c ****     CY_ASSERT_L3(CY_PROT_IS_MPU_PERM_VALID(config->userPermission));
 461              		.loc 1 271 0 is_stmt 1
 462 0014 A379     		ldrb	r3, [r4, #6]
 463 0016 072B     		cmp	r3, #7
 464 0018 04D9     		bls	.L48
 465              		.loc 1 271 0 is_stmt 0 discriminator 1
 466 001a 1021     		movs	r1, #16
 467 001c FF31     		adds	r1, r1, #255
 468 001e 1F48     		ldr	r0, .L54
 469 0020 FFF7FEFF 		bl	Cy_SysLib_AssertFailed
 470              	.LVL28:
 471              	.L48:
 272:Generated_Source\PSoC6\pdl\drivers\peripheral\prot/cy_prot.c ****     CY_ASSERT_L3(CY_PROT_IS_MPU_PERM_VALID(config->privPermission));
 472              		.loc 1 272 0 is_stmt 1
 473 0024 E379     		ldrb	r3, [r4, #7]
 474 0026 072B     		cmp	r3, #7
 475 0028 04D9     		bls	.L49
 476              		.loc 1 272 0 is_stmt 0 discriminator 1
 477 002a 8821     		movs	r1, #136
 478 002c 4900     		lsls	r1, r1, #1
 479 002e 1B48     		ldr	r0, .L54
 480 0030 FFF7FEFF 		bl	Cy_SysLib_AssertFailed
 481              	.LVL29:
 482              	.L49:
 273:Generated_Source\PSoC6\pdl\drivers\peripheral\prot/cy_prot.c ****     CY_ASSERT_L3(CY_PROT_IS_REGION_SIZE_VALID(config->regionSize));
 483              		.loc 1 273 0 is_stmt 1
 484 0034 2379     		ldrb	r3, [r4, #4]
 485 0036 073B     		subs	r3, r3, #7
 486 0038 DBB2     		uxtb	r3, r3
 487 003a 182B     		cmp	r3, #24
 488 003c 04D9     		bls	.L50
 489              		.loc 1 273 0 is_stmt 0 discriminator 1
 490 003e 1221     		movs	r1, #18
 491 0040 FF31     		adds	r1, r1, #255
 492 0042 1648     		ldr	r0, .L54
 493 0044 FFF7FEFF 		bl	Cy_SysLib_AssertFailed
 494              	.LVL30:
 495              	.L50:
 274:Generated_Source\PSoC6\pdl\drivers\peripheral\prot/cy_prot.c **** 
 275:Generated_Source\PSoC6\pdl\drivers\peripheral\prot/cy_prot.c ****     addrReg = _VAL2FLD(PROT_MPU_MPU_STRUCT_ADDR_SUBREGION_DISABLE, config->subregions)
 496              		.loc 1 275 0 is_stmt 1
 497 0048 6079     		ldrb	r0, [r4, #5]
 276:Generated_Source\PSoC6\pdl\drivers\peripheral\prot/cy_prot.c ****               | _VAL2FLD(PROT_MPU_MPU_STRUCT_ADDR_ADDR24, (uint32_t)((uint32_t)config->address >> C
 498              		.loc 1 276 0
 499 004a FF23     		movs	r3, #255
 500 004c 2268     		ldr	r2, [r4]
 501 004e 9A43     		bics	r2, r3
 275:Generated_Source\PSoC6\pdl\drivers\peripheral\prot/cy_prot.c ****               | _VAL2FLD(PROT_MPU_MPU_STRUCT_ADDR_ADDR24, (uint32_t)((uint32_t)config->address >> C
 502              		.loc 1 275 0
 503 0050 1043     		orrs	r0, r2
 504              	.LVL31:
 277:Generated_Source\PSoC6\pdl\drivers\peripheral\prot/cy_prot.c ****     attReg  = ((uint32_t)config->userPermission & CY_PROT_ATT_PERMISSION_MASK)
 505              		.loc 1 277 0
 506 0052 A379     		ldrb	r3, [r4, #6]
 507 0054 0721     		movs	r1, #7
ARM GAS  C:\Users\gjl\AppData\Local\Temp\cc7xIfgu.s 			page 15


 508 0056 1940     		ands	r1, r3
 278:Generated_Source\PSoC6\pdl\drivers\peripheral\prot/cy_prot.c ****               | (((uint32_t)config->privPermission & CY_PROT_ATT_PERMISSION_MASK) << CY_PROT_ATT_PR
 509              		.loc 1 278 0
 510 0058 E279     		ldrb	r2, [r4, #7]
 511 005a D200     		lsls	r2, r2, #3
 512 005c 3823     		movs	r3, #56
 513 005e 1340     		ands	r3, r2
 514 0060 1943     		orrs	r1, r3
 279:Generated_Source\PSoC6\pdl\drivers\peripheral\prot/cy_prot.c ****               | _VAL2FLD(PROT_MPU_MPU_STRUCT_ATT_NS, !(config->secure))
 515              		.loc 1 279 0
 516 0062 237A     		ldrb	r3, [r4, #8]
 517 0064 0122     		movs	r2, #1
 518 0066 5A40     		eors	r2, r3
 519 0068 D2B2     		uxtb	r2, r2
 520 006a 9201     		lsls	r2, r2, #6
 521 006c 4023     		movs	r3, #64
 522 006e 1A40     		ands	r2, r3
 523 0070 0B00     		movs	r3, r1
 524 0072 1343     		orrs	r3, r2
 280:Generated_Source\PSoC6\pdl\drivers\peripheral\prot/cy_prot.c ****               | _VAL2FLD(PROT_MPU_MPU_STRUCT_ATT_REGION_SIZE, config->regionSize);
 525              		.loc 1 280 0
 526 0074 2279     		ldrb	r2, [r4, #4]
 527 0076 1206     		lsls	r2, r2, #24
 528 0078 F821     		movs	r1, #248
 529 007a 4905     		lsls	r1, r1, #21
 530 007c 0A40     		ands	r2, r1
 277:Generated_Source\PSoC6\pdl\drivers\peripheral\prot/cy_prot.c ****               | (((uint32_t)config->privPermission & CY_PROT_ATT_PERMISSION_MASK) << CY_PROT_ATT_PR
 531              		.loc 1 277 0
 532 007e 1343     		orrs	r3, r2
 533              	.LVL32:
 281:Generated_Source\PSoC6\pdl\drivers\peripheral\prot/cy_prot.c ****     base->ATT = attReg;
 534              		.loc 1 281 0
 535 0080 6B60     		str	r3, [r5, #4]
 282:Generated_Source\PSoC6\pdl\drivers\peripheral\prot/cy_prot.c ****     base->ADDR = addrReg;
 536              		.loc 1 282 0
 537 0082 2860     		str	r0, [r5]
 283:Generated_Source\PSoC6\pdl\drivers\peripheral\prot/cy_prot.c ****     status = ((base->ADDR != addrReg) || (base->ATT != attReg)) ? CY_PROT_FAILURE : CY_PROT_SUCCESS
 538              		.loc 1 283 0
 539 0084 2A68     		ldr	r2, [r5]
 540 0086 9042     		cmp	r0, r2
 541 0088 04D1     		bne	.L52
 542              		.loc 1 283 0 is_stmt 0 discriminator 2
 543 008a 6A68     		ldr	r2, [r5, #4]
 544 008c 9342     		cmp	r3, r2
 545 008e 03D0     		beq	.L53
 546              		.loc 1 283 0
 547 0090 0348     		ldr	r0, .L54+4
 548              	.LVL33:
 549 0092 02E0     		b	.L51
 550              	.LVL34:
 551              	.L52:
 552 0094 0248     		ldr	r0, .L54+4
 553              	.LVL35:
 554 0096 00E0     		b	.L51
 555              	.LVL36:
 556              	.L53:
 557 0098 0020     		movs	r0, #0
ARM GAS  C:\Users\gjl\AppData\Local\Temp\cc7xIfgu.s 			page 16


 558              	.LVL37:
 559              	.L51:
 284:Generated_Source\PSoC6\pdl\drivers\peripheral\prot/cy_prot.c ****     
 285:Generated_Source\PSoC6\pdl\drivers\peripheral\prot/cy_prot.c ****     return status;
 286:Generated_Source\PSoC6\pdl\drivers\peripheral\prot/cy_prot.c **** }
 560              		.loc 1 286 0 is_stmt 1 discriminator 6
 561              		@ sp needed
 562              	.LVL38:
 563              	.LVL39:
 564 009a 70BD     		pop	{r4, r5, r6, pc}
 565              	.L55:
 566              		.align	2
 567              	.L54:
 568 009c 00000000 		.word	.LC0
 569 00a0 0300C200 		.word	12713987
 570              		.cfi_endproc
 571              	.LFE39:
 572              		.size	Cy_Prot_ConfigMpuStruct, .-Cy_Prot_ConfigMpuStruct
 573              		.section	.text.Cy_Prot_EnableMpuStruct,"ax",%progbits
 574              		.align	2
 575              		.global	Cy_Prot_EnableMpuStruct
 576              		.code	16
 577              		.thumb_func
 578              		.type	Cy_Prot_EnableMpuStruct, %function
 579              	Cy_Prot_EnableMpuStruct:
 580              	.LFB40:
 287:Generated_Source\PSoC6\pdl\drivers\peripheral\prot/cy_prot.c **** 
 288:Generated_Source\PSoC6\pdl\drivers\peripheral\prot/cy_prot.c **** 
 289:Generated_Source\PSoC6\pdl\drivers\peripheral\prot/cy_prot.c **** /*******************************************************************************
 290:Generated_Source\PSoC6\pdl\drivers\peripheral\prot/cy_prot.c **** * Function Name: Cy_Prot_EnableMpuStruct
 291:Generated_Source\PSoC6\pdl\drivers\peripheral\prot/cy_prot.c **** ****************************************************************************//**
 292:Generated_Source\PSoC6\pdl\drivers\peripheral\prot/cy_prot.c **** *
 293:Generated_Source\PSoC6\pdl\drivers\peripheral\prot/cy_prot.c **** * \brief Enables the MPU struct, which allows the MPU protection attributes to 
 294:Generated_Source\PSoC6\pdl\drivers\peripheral\prot/cy_prot.c **** * take effect. 
 295:Generated_Source\PSoC6\pdl\drivers\peripheral\prot/cy_prot.c **** *
 296:Generated_Source\PSoC6\pdl\drivers\peripheral\prot/cy_prot.c **** * \param base
 297:Generated_Source\PSoC6\pdl\drivers\peripheral\prot/cy_prot.c **** * The base address of the MPU struct being configured. 
 298:Generated_Source\PSoC6\pdl\drivers\peripheral\prot/cy_prot.c **** *
 299:Generated_Source\PSoC6\pdl\drivers\peripheral\prot/cy_prot.c **** * \return
 300:Generated_Source\PSoC6\pdl\drivers\peripheral\prot/cy_prot.c **** * Status of the function call.
 301:Generated_Source\PSoC6\pdl\drivers\peripheral\prot/cy_prot.c **** *
 302:Generated_Source\PSoC6\pdl\drivers\peripheral\prot/cy_prot.c **** *   Status               | Description
 303:Generated_Source\PSoC6\pdl\drivers\peripheral\prot/cy_prot.c **** *   ------------         | -----------
 304:Generated_Source\PSoC6\pdl\drivers\peripheral\prot/cy_prot.c **** *   CY_PROT_SUCCESS      | The MPU struct was enabled
 305:Generated_Source\PSoC6\pdl\drivers\peripheral\prot/cy_prot.c **** *   CY_PROT_FAILURE      | The MPU struct is disabled and possibly locked
 306:Generated_Source\PSoC6\pdl\drivers\peripheral\prot/cy_prot.c **** *
 307:Generated_Source\PSoC6\pdl\drivers\peripheral\prot/cy_prot.c **** * \funcusage
 308:Generated_Source\PSoC6\pdl\drivers\peripheral\prot/cy_prot.c **** * \snippet prot/prot_v1_10_sut_01.cydsn/main_cm4.c snippet_Cy_Prot_EnableMpuStruct
 309:Generated_Source\PSoC6\pdl\drivers\peripheral\prot/cy_prot.c **** *
 310:Generated_Source\PSoC6\pdl\drivers\peripheral\prot/cy_prot.c **** *******************************************************************************/
 311:Generated_Source\PSoC6\pdl\drivers\peripheral\prot/cy_prot.c **** cy_en_prot_status_t Cy_Prot_EnableMpuStruct(PROT_MPU_MPU_STRUCT_Type* base)
 312:Generated_Source\PSoC6\pdl\drivers\peripheral\prot/cy_prot.c **** {
 581              		.loc 1 312 0
 582              		.cfi_startproc
 583              		@ args = 0, pretend = 0, frame = 0
 584              		@ frame_needed = 0, uses_anonymous_args = 0
 585              		@ link register save eliminated.
ARM GAS  C:\Users\gjl\AppData\Local\Temp\cc7xIfgu.s 			page 17


 586              	.LVL40:
 313:Generated_Source\PSoC6\pdl\drivers\peripheral\prot/cy_prot.c ****     cy_en_prot_status_t status;
 314:Generated_Source\PSoC6\pdl\drivers\peripheral\prot/cy_prot.c **** 
 315:Generated_Source\PSoC6\pdl\drivers\peripheral\prot/cy_prot.c ****     base->ATT |= _VAL2FLD(PROT_MPU_MPU_STRUCT_ATT_ENABLED, CY_PROT_STRUCT_ENABLE);
 587              		.loc 1 315 0
 588 0000 4368     		ldr	r3, [r0, #4]
 589 0002 8022     		movs	r2, #128
 590 0004 1206     		lsls	r2, r2, #24
 591 0006 1343     		orrs	r3, r2
 592 0008 4360     		str	r3, [r0, #4]
 316:Generated_Source\PSoC6\pdl\drivers\peripheral\prot/cy_prot.c ****     status = (_FLD2VAL(PROT_MPU_MPU_STRUCT_ATT_ENABLED, base->ATT) != CY_PROT_STRUCT_ENABLE) ?
 593              		.loc 1 316 0
 594 000a 4368     		ldr	r3, [r0, #4]
 595 000c 002B     		cmp	r3, #0
 596 000e 01DB     		blt	.L58
 597 0010 0148     		ldr	r0, .L59
 598              	.LVL41:
 599 0012 00E0     		b	.L57
 600              	.LVL42:
 601              	.L58:
 602 0014 0020     		movs	r0, #0
 603              	.LVL43:
 604              	.L57:
 317:Generated_Source\PSoC6\pdl\drivers\peripheral\prot/cy_prot.c ****                 CY_PROT_FAILURE : CY_PROT_SUCCESS;
 318:Generated_Source\PSoC6\pdl\drivers\peripheral\prot/cy_prot.c ****     
 319:Generated_Source\PSoC6\pdl\drivers\peripheral\prot/cy_prot.c ****     return status;
 320:Generated_Source\PSoC6\pdl\drivers\peripheral\prot/cy_prot.c **** }
 605              		.loc 1 320 0 discriminator 4
 606              		@ sp needed
 607 0016 7047     		bx	lr
 608              	.L60:
 609              		.align	2
 610              	.L59:
 611 0018 0300C200 		.word	12713987
 612              		.cfi_endproc
 613              	.LFE40:
 614              		.size	Cy_Prot_EnableMpuStruct, .-Cy_Prot_EnableMpuStruct
 615              		.section	.text.Cy_Prot_DisableMpuStruct,"ax",%progbits
 616              		.align	2
 617              		.global	Cy_Prot_DisableMpuStruct
 618              		.code	16
 619              		.thumb_func
 620              		.type	Cy_Prot_DisableMpuStruct, %function
 621              	Cy_Prot_DisableMpuStruct:
 622              	.LFB41:
 321:Generated_Source\PSoC6\pdl\drivers\peripheral\prot/cy_prot.c **** 
 322:Generated_Source\PSoC6\pdl\drivers\peripheral\prot/cy_prot.c **** 
 323:Generated_Source\PSoC6\pdl\drivers\peripheral\prot/cy_prot.c **** /*******************************************************************************
 324:Generated_Source\PSoC6\pdl\drivers\peripheral\prot/cy_prot.c **** * Function Name: Cy_Prot_DisableMpuStruct
 325:Generated_Source\PSoC6\pdl\drivers\peripheral\prot/cy_prot.c **** ****************************************************************************//**
 326:Generated_Source\PSoC6\pdl\drivers\peripheral\prot/cy_prot.c **** *
 327:Generated_Source\PSoC6\pdl\drivers\peripheral\prot/cy_prot.c **** * \brief Disbles the MPU struct, which prevents the MPU protection attributes
 328:Generated_Source\PSoC6\pdl\drivers\peripheral\prot/cy_prot.c **** * from taking effect.
 329:Generated_Source\PSoC6\pdl\drivers\peripheral\prot/cy_prot.c **** *
 330:Generated_Source\PSoC6\pdl\drivers\peripheral\prot/cy_prot.c **** * \param base
 331:Generated_Source\PSoC6\pdl\drivers\peripheral\prot/cy_prot.c **** * The base address of the MPU struct being configured. 
 332:Generated_Source\PSoC6\pdl\drivers\peripheral\prot/cy_prot.c **** *
ARM GAS  C:\Users\gjl\AppData\Local\Temp\cc7xIfgu.s 			page 18


 333:Generated_Source\PSoC6\pdl\drivers\peripheral\prot/cy_prot.c **** * \return
 334:Generated_Source\PSoC6\pdl\drivers\peripheral\prot/cy_prot.c **** * Status of the function call.
 335:Generated_Source\PSoC6\pdl\drivers\peripheral\prot/cy_prot.c **** *
 336:Generated_Source\PSoC6\pdl\drivers\peripheral\prot/cy_prot.c **** *   Status               | Description
 337:Generated_Source\PSoC6\pdl\drivers\peripheral\prot/cy_prot.c **** *   ------------         | -----------
 338:Generated_Source\PSoC6\pdl\drivers\peripheral\prot/cy_prot.c **** *   CY_PROT_SUCCESS      | The MPU struct was disabled
 339:Generated_Source\PSoC6\pdl\drivers\peripheral\prot/cy_prot.c **** *   CY_PROT_FAILURE      | The MPU struct is enabled and possibly locked
 340:Generated_Source\PSoC6\pdl\drivers\peripheral\prot/cy_prot.c **** *
 341:Generated_Source\PSoC6\pdl\drivers\peripheral\prot/cy_prot.c **** * \funcusage
 342:Generated_Source\PSoC6\pdl\drivers\peripheral\prot/cy_prot.c **** * \snippet prot/prot_v1_10_sut_01.cydsn/main_cm4.c snippet_Cy_Prot_DisableMpuStruct
 343:Generated_Source\PSoC6\pdl\drivers\peripheral\prot/cy_prot.c **** *
 344:Generated_Source\PSoC6\pdl\drivers\peripheral\prot/cy_prot.c **** *******************************************************************************/
 345:Generated_Source\PSoC6\pdl\drivers\peripheral\prot/cy_prot.c **** cy_en_prot_status_t Cy_Prot_DisableMpuStruct(PROT_MPU_MPU_STRUCT_Type* base)
 346:Generated_Source\PSoC6\pdl\drivers\peripheral\prot/cy_prot.c **** {
 623              		.loc 1 346 0
 624              		.cfi_startproc
 625              		@ args = 0, pretend = 0, frame = 0
 626              		@ frame_needed = 0, uses_anonymous_args = 0
 627              		@ link register save eliminated.
 628              	.LVL44:
 347:Generated_Source\PSoC6\pdl\drivers\peripheral\prot/cy_prot.c ****     cy_en_prot_status_t status;
 348:Generated_Source\PSoC6\pdl\drivers\peripheral\prot/cy_prot.c ****     
 349:Generated_Source\PSoC6\pdl\drivers\peripheral\prot/cy_prot.c ****     base->ATT &= ~_VAL2FLD(PROT_MPU_MPU_STRUCT_ATT_ENABLED, CY_PROT_STRUCT_ENABLE);
 629              		.loc 1 349 0
 630 0000 4368     		ldr	r3, [r0, #4]
 631 0002 5B00     		lsls	r3, r3, #1
 632 0004 5B08     		lsrs	r3, r3, #1
 633 0006 4360     		str	r3, [r0, #4]
 350:Generated_Source\PSoC6\pdl\drivers\peripheral\prot/cy_prot.c ****     status = (_FLD2VAL(PROT_MPU_MPU_STRUCT_ATT_ENABLED, base->ATT) == CY_PROT_STRUCT_ENABLE) ?
 634              		.loc 1 350 0
 635 0008 4368     		ldr	r3, [r0, #4]
 636 000a 002B     		cmp	r3, #0
 637 000c 01DA     		bge	.L63
 638 000e 0248     		ldr	r0, .L64
 639              	.LVL45:
 640 0010 00E0     		b	.L62
 641              	.LVL46:
 642              	.L63:
 643 0012 0020     		movs	r0, #0
 644              	.LVL47:
 645              	.L62:
 351:Generated_Source\PSoC6\pdl\drivers\peripheral\prot/cy_prot.c ****             CY_PROT_FAILURE : CY_PROT_SUCCESS;
 352:Generated_Source\PSoC6\pdl\drivers\peripheral\prot/cy_prot.c ****     
 353:Generated_Source\PSoC6\pdl\drivers\peripheral\prot/cy_prot.c ****     return status;
 354:Generated_Source\PSoC6\pdl\drivers\peripheral\prot/cy_prot.c **** }
 646              		.loc 1 354 0 discriminator 4
 647              		@ sp needed
 648 0014 7047     		bx	lr
 649              	.L65:
 650 0016 C046     		.align	2
 651              	.L64:
 652 0018 0300C200 		.word	12713987
 653              		.cfi_endproc
 654              	.LFE41:
 655              		.size	Cy_Prot_DisableMpuStruct, .-Cy_Prot_DisableMpuStruct
 656              		.section	.text.Cy_Prot_ConfigSmpuMasterStruct,"ax",%progbits
 657              		.align	2
ARM GAS  C:\Users\gjl\AppData\Local\Temp\cc7xIfgu.s 			page 19


 658              		.global	Cy_Prot_ConfigSmpuMasterStruct
 659              		.code	16
 660              		.thumb_func
 661              		.type	Cy_Prot_ConfigSmpuMasterStruct, %function
 662              	Cy_Prot_ConfigSmpuMasterStruct:
 663              	.LFB42:
 355:Generated_Source\PSoC6\pdl\drivers\peripheral\prot/cy_prot.c **** 
 356:Generated_Source\PSoC6\pdl\drivers\peripheral\prot/cy_prot.c **** 
 357:Generated_Source\PSoC6\pdl\drivers\peripheral\prot/cy_prot.c **** /*******************************************************************************
 358:Generated_Source\PSoC6\pdl\drivers\peripheral\prot/cy_prot.c **** * Function Name: Cy_Prot_ConfigSmpuMasterStruct
 359:Generated_Source\PSoC6\pdl\drivers\peripheral\prot/cy_prot.c **** ****************************************************************************//**
 360:Generated_Source\PSoC6\pdl\drivers\peripheral\prot/cy_prot.c **** *
 361:Generated_Source\PSoC6\pdl\drivers\peripheral\prot/cy_prot.c **** * \brief Configures a Shared Memory Protection Unit (SMPU) master protection 
 362:Generated_Source\PSoC6\pdl\drivers\peripheral\prot/cy_prot.c **** * struct with its protection attributes. 
 363:Generated_Source\PSoC6\pdl\drivers\peripheral\prot/cy_prot.c **** *
 364:Generated_Source\PSoC6\pdl\drivers\peripheral\prot/cy_prot.c **** * This function configures the master struct governing the corresponding slave
 365:Generated_Source\PSoC6\pdl\drivers\peripheral\prot/cy_prot.c **** * struct pair. It is a mechanism to protect the slave SMPU struct. Since the
 366:Generated_Source\PSoC6\pdl\drivers\peripheral\prot/cy_prot.c **** * memory location of the slave struct is known, the address, regionSize and
 367:Generated_Source\PSoC6\pdl\drivers\peripheral\prot/cy_prot.c **** * subregions of the configuration struct are not applicable.
 368:Generated_Source\PSoC6\pdl\drivers\peripheral\prot/cy_prot.c **** *
 369:Generated_Source\PSoC6\pdl\drivers\peripheral\prot/cy_prot.c **** * Note that only the user/privileged write permissions are configurable. The 
 370:Generated_Source\PSoC6\pdl\drivers\peripheral\prot/cy_prot.c **** * read and execute permissions are read-only and cannot be configured.
 371:Generated_Source\PSoC6\pdl\drivers\peripheral\prot/cy_prot.c **** *
 372:Generated_Source\PSoC6\pdl\drivers\peripheral\prot/cy_prot.c **** * \param base
 373:Generated_Source\PSoC6\pdl\drivers\peripheral\prot/cy_prot.c **** * The register base address of the protection struct being configured.
 374:Generated_Source\PSoC6\pdl\drivers\peripheral\prot/cy_prot.c **** * 
 375:Generated_Source\PSoC6\pdl\drivers\peripheral\prot/cy_prot.c **** * \param config
 376:Generated_Source\PSoC6\pdl\drivers\peripheral\prot/cy_prot.c **** * Initialization structure with all the protection attributes.
 377:Generated_Source\PSoC6\pdl\drivers\peripheral\prot/cy_prot.c **** * 
 378:Generated_Source\PSoC6\pdl\drivers\peripheral\prot/cy_prot.c **** * \return
 379:Generated_Source\PSoC6\pdl\drivers\peripheral\prot/cy_prot.c **** * Status of the function call.
 380:Generated_Source\PSoC6\pdl\drivers\peripheral\prot/cy_prot.c **** *
 381:Generated_Source\PSoC6\pdl\drivers\peripheral\prot/cy_prot.c **** *   Status               | Description
 382:Generated_Source\PSoC6\pdl\drivers\peripheral\prot/cy_prot.c **** *   ------------         | -----------
 383:Generated_Source\PSoC6\pdl\drivers\peripheral\prot/cy_prot.c **** *   CY_PROT_SUCCESS      | SMPU master struct was successfully configured
 384:Generated_Source\PSoC6\pdl\drivers\peripheral\prot/cy_prot.c **** *   CY_PROT_FAILURE      | The resource is locked
 385:Generated_Source\PSoC6\pdl\drivers\peripheral\prot/cy_prot.c **** *   CY_PROT_BAD_PARAM    | An incorrect/invalid parameter was passed
 386:Generated_Source\PSoC6\pdl\drivers\peripheral\prot/cy_prot.c **** *
 387:Generated_Source\PSoC6\pdl\drivers\peripheral\prot/cy_prot.c **** * \funcusage
 388:Generated_Source\PSoC6\pdl\drivers\peripheral\prot/cy_prot.c **** * \snippet prot/prot_v1_10_sut_01.cydsn/main_cm4.c snippet_Cy_Prot_ConfigSmpuMasterStruct
 389:Generated_Source\PSoC6\pdl\drivers\peripheral\prot/cy_prot.c **** *
 390:Generated_Source\PSoC6\pdl\drivers\peripheral\prot/cy_prot.c **** *******************************************************************************/
 391:Generated_Source\PSoC6\pdl\drivers\peripheral\prot/cy_prot.c **** cy_en_prot_status_t Cy_Prot_ConfigSmpuMasterStruct(PROT_SMPU_SMPU_STRUCT_Type* base, const cy_stc_s
 392:Generated_Source\PSoC6\pdl\drivers\peripheral\prot/cy_prot.c **** {
 664              		.loc 1 392 0
 665              		.cfi_startproc
 666              		@ args = 0, pretend = 0, frame = 0
 667              		@ frame_needed = 0, uses_anonymous_args = 0
 668              	.LVL48:
 669 0000 70B5     		push	{r4, r5, r6, lr}
 670              		.cfi_def_cfa_offset 16
 671              		.cfi_offset 4, -16
 672              		.cfi_offset 5, -12
 673              		.cfi_offset 6, -8
 674              		.cfi_offset 14, -4
 675 0002 0500     		movs	r5, r0
 676 0004 0C00     		movs	r4, r1
ARM GAS  C:\Users\gjl\AppData\Local\Temp\cc7xIfgu.s 			page 20


 393:Generated_Source\PSoC6\pdl\drivers\peripheral\prot/cy_prot.c ****     cy_en_prot_status_t status;
 394:Generated_Source\PSoC6\pdl\drivers\peripheral\prot/cy_prot.c ****     uint32_t attReg;
 395:Generated_Source\PSoC6\pdl\drivers\peripheral\prot/cy_prot.c ****     
 396:Generated_Source\PSoC6\pdl\drivers\peripheral\prot/cy_prot.c ****     CY_ASSERT_L1(NULL != base);
 677              		.loc 1 396 0
 678 0006 0028     		cmp	r0, #0
 679 0008 04D1     		bne	.L67
 680              		.loc 1 396 0 is_stmt 0 discriminator 1
 681 000a C621     		movs	r1, #198
 682              	.LVL49:
 683 000c 4900     		lsls	r1, r1, #1
 684 000e 2548     		ldr	r0, .L74
 685              	.LVL50:
 686 0010 FFF7FEFF 		bl	Cy_SysLib_AssertFailed
 687              	.LVL51:
 688              	.L67:
 397:Generated_Source\PSoC6\pdl\drivers\peripheral\prot/cy_prot.c ****     CY_ASSERT_L3(CY_PROT_IS_SMPU_MS_PERM_VALID(config->userPermission));
 689              		.loc 1 397 0 is_stmt 1
 690 0014 A379     		ldrb	r3, [r4, #6]
 691 0016 012B     		cmp	r3, #1
 692 0018 06D0     		beq	.L68
 693              		.loc 1 397 0 is_stmt 0 discriminator 1
 694 001a 032B     		cmp	r3, #3
 695 001c 04D0     		beq	.L68
 696              		.loc 1 397 0 discriminator 2
 697 001e 8E21     		movs	r1, #142
 698 0020 FF31     		adds	r1, r1, #255
 699 0022 2048     		ldr	r0, .L74
 700 0024 FFF7FEFF 		bl	Cy_SysLib_AssertFailed
 701              	.LVL52:
 702              	.L68:
 398:Generated_Source\PSoC6\pdl\drivers\peripheral\prot/cy_prot.c ****     CY_ASSERT_L3(CY_PROT_IS_SMPU_MS_PERM_VALID(config->privPermission));
 703              		.loc 1 398 0 is_stmt 1
 704 0028 E379     		ldrb	r3, [r4, #7]
 705 002a 012B     		cmp	r3, #1
 706 002c 06D0     		beq	.L69
 707              		.loc 1 398 0 is_stmt 0 discriminator 1
 708 002e 032B     		cmp	r3, #3
 709 0030 04D0     		beq	.L69
 710              		.loc 1 398 0 discriminator 2
 711 0032 C721     		movs	r1, #199
 712 0034 4900     		lsls	r1, r1, #1
 713 0036 1B48     		ldr	r0, .L74
 714 0038 FFF7FEFF 		bl	Cy_SysLib_AssertFailed
 715              	.LVL53:
 716              	.L69:
 399:Generated_Source\PSoC6\pdl\drivers\peripheral\prot/cy_prot.c ****     
 400:Generated_Source\PSoC6\pdl\drivers\peripheral\prot/cy_prot.c ****     if(((uint32_t)config->pcMask & CY_PROT_SMPU_PC_LIMIT_MASK) != 0UL) 
 717              		.loc 1 400 0 is_stmt 1
 718 003c 6189     		ldrh	r1, [r4, #10]
 719 003e 7F23     		movs	r3, #127
 720 0040 0A00     		movs	r2, r1
 721 0042 9A43     		bics	r2, r3
 722 0044 28D1     		bne	.L71
 401:Generated_Source\PSoC6\pdl\drivers\peripheral\prot/cy_prot.c ****     {
 402:Generated_Source\PSoC6\pdl\drivers\peripheral\prot/cy_prot.c ****         /* PC mask out of range - not supported in device */
 403:Generated_Source\PSoC6\pdl\drivers\peripheral\prot/cy_prot.c ****         status = CY_PROT_BAD_PARAM;
ARM GAS  C:\Users\gjl\AppData\Local\Temp\cc7xIfgu.s 			page 21


 404:Generated_Source\PSoC6\pdl\drivers\peripheral\prot/cy_prot.c ****     }
 405:Generated_Source\PSoC6\pdl\drivers\peripheral\prot/cy_prot.c ****     else
 406:Generated_Source\PSoC6\pdl\drivers\peripheral\prot/cy_prot.c ****     {
 407:Generated_Source\PSoC6\pdl\drivers\peripheral\prot/cy_prot.c ****         /* ADDR1 is read only. Only configure ATT1 */
 408:Generated_Source\PSoC6\pdl\drivers\peripheral\prot/cy_prot.c ****         attReg = ((uint32_t)config->userPermission & CY_PROT_ATT_PERMISSION_MASK)
 723              		.loc 1 408 0
 724 0046 A379     		ldrb	r3, [r4, #6]
 725 0048 0720     		movs	r0, #7
 726 004a 1840     		ands	r0, r3
 409:Generated_Source\PSoC6\pdl\drivers\peripheral\prot/cy_prot.c ****                     | (uint32_t)(((uint32_t)config->privPermission & CY_PROT_ATT_PERMISSION_MASK) <
 727              		.loc 1 409 0
 728 004c E279     		ldrb	r2, [r4, #7]
 729 004e D200     		lsls	r2, r2, #3
 730 0050 3823     		movs	r3, #56
 731 0052 1340     		ands	r3, r2
 732 0054 1843     		orrs	r0, r3
 410:Generated_Source\PSoC6\pdl\drivers\peripheral\prot/cy_prot.c ****                     | _VAL2FLD(PROT_SMPU_SMPU_STRUCT_ATT1_NS, !(config->secure))
 733              		.loc 1 410 0
 734 0056 237A     		ldrb	r3, [r4, #8]
 735 0058 0122     		movs	r2, #1
 736 005a 5A40     		eors	r2, r3
 737 005c D2B2     		uxtb	r2, r2
 738 005e 9201     		lsls	r2, r2, #6
 739 0060 4023     		movs	r3, #64
 740 0062 1A40     		ands	r2, r3
 741 0064 0300     		movs	r3, r0
 742 0066 1343     		orrs	r3, r2
 411:Generated_Source\PSoC6\pdl\drivers\peripheral\prot/cy_prot.c ****                     | _VAL2FLD(PROT_SMPU_SMPU_STRUCT_ATT1_PC_MASK_15_TO_1, config->pcMask)
 743              		.loc 1 411 0
 744 0068 4902     		lsls	r1, r1, #9
 745 006a 0F4A     		ldr	r2, .L74+4
 746 006c 1140     		ands	r1, r2
 747 006e 1943     		orrs	r1, r3
 412:Generated_Source\PSoC6\pdl\drivers\peripheral\prot/cy_prot.c ****                     /* No region size - read only for master structs */
 413:Generated_Source\PSoC6\pdl\drivers\peripheral\prot/cy_prot.c ****                     | _VAL2FLD(PROT_SMPU_SMPU_STRUCT_ATT1_PC_MATCH, config->pcMatch);
 748              		.loc 1 413 0
 749 0070 637A     		ldrb	r3, [r4, #9]
 750 0072 9B07     		lsls	r3, r3, #30
 751 0074 8020     		movs	r0, #128
 752 0076 C005     		lsls	r0, r0, #23
 753 0078 0340     		ands	r3, r0
 754 007a 1A00     		movs	r2, r3
 408:Generated_Source\PSoC6\pdl\drivers\peripheral\prot/cy_prot.c ****                     | (uint32_t)(((uint32_t)config->privPermission & CY_PROT_ATT_PERMISSION_MASK) <
 755              		.loc 1 408 0
 756 007c 0B00     		movs	r3, r1
 757 007e 1343     		orrs	r3, r2
 758              	.LVL54:
 414:Generated_Source\PSoC6\pdl\drivers\peripheral\prot/cy_prot.c ****         if ((attReg & CY_PROT_SMPU_ATT1_MASK) != attReg)
 759              		.loc 1 414 0
 760 0080 0A4A     		ldr	r2, .L74+8
 761 0082 1A40     		ands	r2, r3
 762 0084 9342     		cmp	r3, r2
 763 0086 09D1     		bne	.L72
 415:Generated_Source\PSoC6\pdl\drivers\peripheral\prot/cy_prot.c ****         {
 416:Generated_Source\PSoC6\pdl\drivers\peripheral\prot/cy_prot.c ****             /* Invalid parameter was passed */
 417:Generated_Source\PSoC6\pdl\drivers\peripheral\prot/cy_prot.c ****             status = CY_PROT_BAD_PARAM;
 418:Generated_Source\PSoC6\pdl\drivers\peripheral\prot/cy_prot.c ****         }
ARM GAS  C:\Users\gjl\AppData\Local\Temp\cc7xIfgu.s 			page 22


 419:Generated_Source\PSoC6\pdl\drivers\peripheral\prot/cy_prot.c ****         else
 420:Generated_Source\PSoC6\pdl\drivers\peripheral\prot/cy_prot.c ****         {
 421:Generated_Source\PSoC6\pdl\drivers\peripheral\prot/cy_prot.c ****             base->ATT1 = attReg;
 764              		.loc 1 421 0
 765 0088 6B62     		str	r3, [r5, #36]
 422:Generated_Source\PSoC6\pdl\drivers\peripheral\prot/cy_prot.c ****             status = ((base->ATT1 & CY_PROT_SMPU_ATT1_MASK) != attReg) ? CY_PROT_FAILURE : CY_PROT_
 766              		.loc 1 422 0
 767 008a 696A     		ldr	r1, [r5, #36]
 768 008c 074A     		ldr	r2, .L74+8
 769 008e 0A40     		ands	r2, r1
 770 0090 9342     		cmp	r3, r2
 771 0092 05D0     		beq	.L73
 772 0094 0648     		ldr	r0, .L74+12
 773 0096 04E0     		b	.L70
 774              	.LVL55:
 775              	.L71:
 403:Generated_Source\PSoC6\pdl\drivers\peripheral\prot/cy_prot.c ****     }
 776              		.loc 1 403 0
 777 0098 0648     		ldr	r0, .L74+16
 778 009a 02E0     		b	.L70
 779              	.LVL56:
 780              	.L72:
 417:Generated_Source\PSoC6\pdl\drivers\peripheral\prot/cy_prot.c ****         }
 781              		.loc 1 417 0
 782 009c 0548     		ldr	r0, .L74+16
 783 009e 00E0     		b	.L70
 784              	.L73:
 785              		.loc 1 422 0
 786 00a0 0020     		movs	r0, #0
 787              	.LVL57:
 788              	.L70:
 423:Generated_Source\PSoC6\pdl\drivers\peripheral\prot/cy_prot.c ****         }
 424:Generated_Source\PSoC6\pdl\drivers\peripheral\prot/cy_prot.c ****     }
 425:Generated_Source\PSoC6\pdl\drivers\peripheral\prot/cy_prot.c ****     
 426:Generated_Source\PSoC6\pdl\drivers\peripheral\prot/cy_prot.c ****     return status;
 427:Generated_Source\PSoC6\pdl\drivers\peripheral\prot/cy_prot.c **** }
 789              		.loc 1 427 0
 790              		@ sp needed
 791              	.LVL58:
 792              	.LVL59:
 793 00a2 70BD     		pop	{r4, r5, r6, pc}
 794              	.L75:
 795              		.align	2
 796              	.L74:
 797 00a4 00000000 		.word	.LC0
 798 00a8 00FEFF00 		.word	16776704
 799 00ac DBFEFFE0 		.word	-520093989
 800 00b0 0300C200 		.word	12713987
 801 00b4 0100C200 		.word	12713985
 802              		.cfi_endproc
 803              	.LFE42:
 804              		.size	Cy_Prot_ConfigSmpuMasterStruct, .-Cy_Prot_ConfigSmpuMasterStruct
 805              		.section	.text.Cy_Prot_ConfigSmpuSlaveStruct,"ax",%progbits
 806              		.align	2
 807              		.global	Cy_Prot_ConfigSmpuSlaveStruct
 808              		.code	16
 809              		.thumb_func
ARM GAS  C:\Users\gjl\AppData\Local\Temp\cc7xIfgu.s 			page 23


 810              		.type	Cy_Prot_ConfigSmpuSlaveStruct, %function
 811              	Cy_Prot_ConfigSmpuSlaveStruct:
 812              	.LFB43:
 428:Generated_Source\PSoC6\pdl\drivers\peripheral\prot/cy_prot.c **** 
 429:Generated_Source\PSoC6\pdl\drivers\peripheral\prot/cy_prot.c **** /*******************************************************************************
 430:Generated_Source\PSoC6\pdl\drivers\peripheral\prot/cy_prot.c **** * Function Name: Cy_Prot_ConfigSmpuSlaveStruct
 431:Generated_Source\PSoC6\pdl\drivers\peripheral\prot/cy_prot.c **** ****************************************************************************//**
 432:Generated_Source\PSoC6\pdl\drivers\peripheral\prot/cy_prot.c **** *
 433:Generated_Source\PSoC6\pdl\drivers\peripheral\prot/cy_prot.c **** * \brief Configures a Shared Memory Protection Unit (SMPU) slave protection 
 434:Generated_Source\PSoC6\pdl\drivers\peripheral\prot/cy_prot.c **** * struct with its protection attributes. 
 435:Generated_Source\PSoC6\pdl\drivers\peripheral\prot/cy_prot.c **** * 
 436:Generated_Source\PSoC6\pdl\drivers\peripheral\prot/cy_prot.c **** * This function configures the slave struct of an SMPU pair, which can protect
 437:Generated_Source\PSoC6\pdl\drivers\peripheral\prot/cy_prot.c **** * any memory region in a device from invalid bus master accesses.
 438:Generated_Source\PSoC6\pdl\drivers\peripheral\prot/cy_prot.c **** *
 439:Generated_Source\PSoC6\pdl\drivers\peripheral\prot/cy_prot.c **** * \param base
 440:Generated_Source\PSoC6\pdl\drivers\peripheral\prot/cy_prot.c **** * The register base address of the protection structure being configured.
 441:Generated_Source\PSoC6\pdl\drivers\peripheral\prot/cy_prot.c **** * 
 442:Generated_Source\PSoC6\pdl\drivers\peripheral\prot/cy_prot.c **** * \param config
 443:Generated_Source\PSoC6\pdl\drivers\peripheral\prot/cy_prot.c **** * Initialization structure with all the protection attributes.
 444:Generated_Source\PSoC6\pdl\drivers\peripheral\prot/cy_prot.c **** * 
 445:Generated_Source\PSoC6\pdl\drivers\peripheral\prot/cy_prot.c **** * \return
 446:Generated_Source\PSoC6\pdl\drivers\peripheral\prot/cy_prot.c **** * Status of the function call.
 447:Generated_Source\PSoC6\pdl\drivers\peripheral\prot/cy_prot.c **** *
 448:Generated_Source\PSoC6\pdl\drivers\peripheral\prot/cy_prot.c **** *   Status               | Description
 449:Generated_Source\PSoC6\pdl\drivers\peripheral\prot/cy_prot.c **** *   ------------         | -----------
 450:Generated_Source\PSoC6\pdl\drivers\peripheral\prot/cy_prot.c **** *   CY_PROT_SUCCESS      | SMPU slave struct was successfully configured
 451:Generated_Source\PSoC6\pdl\drivers\peripheral\prot/cy_prot.c **** *   CY_PROT_FAILURE      | The resource is locked
 452:Generated_Source\PSoC6\pdl\drivers\peripheral\prot/cy_prot.c **** *   CY_PROT_BAD_PARAM    | An incorrect/invalid parameter was passed
 453:Generated_Source\PSoC6\pdl\drivers\peripheral\prot/cy_prot.c **** *
 454:Generated_Source\PSoC6\pdl\drivers\peripheral\prot/cy_prot.c **** * \funcusage
 455:Generated_Source\PSoC6\pdl\drivers\peripheral\prot/cy_prot.c **** * \snippet prot/prot_v1_10_sut_01.cydsn/main_cm4.c snippet_Cy_Prot_ConfigSmpuSlaveStruct
 456:Generated_Source\PSoC6\pdl\drivers\peripheral\prot/cy_prot.c **** *
 457:Generated_Source\PSoC6\pdl\drivers\peripheral\prot/cy_prot.c **** *******************************************************************************/
 458:Generated_Source\PSoC6\pdl\drivers\peripheral\prot/cy_prot.c **** cy_en_prot_status_t Cy_Prot_ConfigSmpuSlaveStruct(PROT_SMPU_SMPU_STRUCT_Type* base, const cy_stc_sm
 459:Generated_Source\PSoC6\pdl\drivers\peripheral\prot/cy_prot.c **** {
 813              		.loc 1 459 0
 814              		.cfi_startproc
 815              		@ args = 0, pretend = 0, frame = 0
 816              		@ frame_needed = 0, uses_anonymous_args = 0
 817              	.LVL60:
 818 0000 F8B5     		push	{r3, r4, r5, r6, r7, lr}
 819              		.cfi_def_cfa_offset 24
 820              		.cfi_offset 3, -24
 821              		.cfi_offset 4, -20
 822              		.cfi_offset 5, -16
 823              		.cfi_offset 6, -12
 824              		.cfi_offset 7, -8
 825              		.cfi_offset 14, -4
 826 0002 0500     		movs	r5, r0
 827 0004 0C00     		movs	r4, r1
 460:Generated_Source\PSoC6\pdl\drivers\peripheral\prot/cy_prot.c ****     cy_en_prot_status_t status;
 461:Generated_Source\PSoC6\pdl\drivers\peripheral\prot/cy_prot.c ****     uint32_t addrReg;
 462:Generated_Source\PSoC6\pdl\drivers\peripheral\prot/cy_prot.c ****     uint32_t attReg;
 463:Generated_Source\PSoC6\pdl\drivers\peripheral\prot/cy_prot.c ****     
 464:Generated_Source\PSoC6\pdl\drivers\peripheral\prot/cy_prot.c ****     CY_ASSERT_L1(NULL != base);
 828              		.loc 1 464 0
 829 0006 0028     		cmp	r0, #0
ARM GAS  C:\Users\gjl\AppData\Local\Temp\cc7xIfgu.s 			page 24


 830 0008 04D1     		bne	.L77
 831              		.loc 1 464 0 is_stmt 0 discriminator 1
 832 000a E821     		movs	r1, #232
 833              	.LVL61:
 834 000c 4900     		lsls	r1, r1, #1
 835 000e 2F48     		ldr	r0, .L85
 836              	.LVL62:
 837 0010 FFF7FEFF 		bl	Cy_SysLib_AssertFailed
 838              	.LVL63:
 839              	.L77:
 465:Generated_Source\PSoC6\pdl\drivers\peripheral\prot/cy_prot.c ****     CY_ASSERT_L3(CY_PROT_IS_SMPU_SL_PERM_VALID(config->userPermission));
 840              		.loc 1 465 0 is_stmt 1
 841 0014 A379     		ldrb	r3, [r4, #6]
 842 0016 072B     		cmp	r3, #7
 843 0018 04D9     		bls	.L78
 844              		.loc 1 465 0 is_stmt 0 discriminator 1
 845 001a D221     		movs	r1, #210
 846 001c FF31     		adds	r1, r1, #255
 847 001e 2B48     		ldr	r0, .L85
 848 0020 FFF7FEFF 		bl	Cy_SysLib_AssertFailed
 849              	.LVL64:
 850              	.L78:
 466:Generated_Source\PSoC6\pdl\drivers\peripheral\prot/cy_prot.c ****     CY_ASSERT_L3(CY_PROT_IS_SMPU_SL_PERM_VALID(config->privPermission));
 851              		.loc 1 466 0 is_stmt 1
 852 0024 E379     		ldrb	r3, [r4, #7]
 853 0026 072B     		cmp	r3, #7
 854 0028 04D9     		bls	.L79
 855              		.loc 1 466 0 is_stmt 0 discriminator 1
 856 002a E921     		movs	r1, #233
 857 002c 4900     		lsls	r1, r1, #1
 858 002e 2748     		ldr	r0, .L85
 859 0030 FFF7FEFF 		bl	Cy_SysLib_AssertFailed
 860              	.LVL65:
 861              	.L79:
 467:Generated_Source\PSoC6\pdl\drivers\peripheral\prot/cy_prot.c ****     CY_ASSERT_L3(CY_PROT_IS_REGION_SIZE_VALID(config->regionSize));
 862              		.loc 1 467 0 is_stmt 1
 863 0034 2379     		ldrb	r3, [r4, #4]
 864 0036 073B     		subs	r3, r3, #7
 865 0038 DBB2     		uxtb	r3, r3
 866 003a 182B     		cmp	r3, #24
 867 003c 04D9     		bls	.L80
 868              		.loc 1 467 0 is_stmt 0 discriminator 1
 869 003e D421     		movs	r1, #212
 870 0040 FF31     		adds	r1, r1, #255
 871 0042 2248     		ldr	r0, .L85
 872 0044 FFF7FEFF 		bl	Cy_SysLib_AssertFailed
 873              	.LVL66:
 874              	.L80:
 468:Generated_Source\PSoC6\pdl\drivers\peripheral\prot/cy_prot.c **** 
 469:Generated_Source\PSoC6\pdl\drivers\peripheral\prot/cy_prot.c ****     if(((uint32_t)config->pcMask & CY_PROT_SMPU_PC_LIMIT_MASK) != 0UL) 
 875              		.loc 1 469 0 is_stmt 1
 876 0048 6189     		ldrh	r1, [r4, #10]
 877 004a 7F23     		movs	r3, #127
 878 004c 0A00     		movs	r2, r1
 879 004e 9A43     		bics	r2, r3
 880 0050 131E     		subs	r3, r2, #0
 881 0052 35D1     		bne	.L82
ARM GAS  C:\Users\gjl\AppData\Local\Temp\cc7xIfgu.s 			page 25


 470:Generated_Source\PSoC6\pdl\drivers\peripheral\prot/cy_prot.c ****     {
 471:Generated_Source\PSoC6\pdl\drivers\peripheral\prot/cy_prot.c ****         /* PC mask out of range - not supported in device */
 472:Generated_Source\PSoC6\pdl\drivers\peripheral\prot/cy_prot.c ****         status = CY_PROT_BAD_PARAM;
 473:Generated_Source\PSoC6\pdl\drivers\peripheral\prot/cy_prot.c ****     }
 474:Generated_Source\PSoC6\pdl\drivers\peripheral\prot/cy_prot.c ****     else
 475:Generated_Source\PSoC6\pdl\drivers\peripheral\prot/cy_prot.c ****     {
 476:Generated_Source\PSoC6\pdl\drivers\peripheral\prot/cy_prot.c ****         addrReg= _VAL2FLD(PROT_SMPU_SMPU_STRUCT_ADDR0_SUBREGION_DISABLE, config->subregions)
 882              		.loc 1 476 0
 883 0054 6679     		ldrb	r6, [r4, #5]
 477:Generated_Source\PSoC6\pdl\drivers\peripheral\prot/cy_prot.c ****                     | _VAL2FLD(PROT_SMPU_SMPU_STRUCT_ADDR0_ADDR24, (uint32_t)((uint32_t)config->add
 884              		.loc 1 477 0
 885 0056 FF33     		adds	r3, r3, #255
 886 0058 2268     		ldr	r2, [r4]
 887 005a 9A43     		bics	r2, r3
 476:Generated_Source\PSoC6\pdl\drivers\peripheral\prot/cy_prot.c ****                     | _VAL2FLD(PROT_SMPU_SMPU_STRUCT_ADDR0_ADDR24, (uint32_t)((uint32_t)config->add
 888              		.loc 1 476 0
 889 005c 1643     		orrs	r6, r2
 890              	.LVL67:
 478:Generated_Source\PSoC6\pdl\drivers\peripheral\prot/cy_prot.c ****         attReg= ((uint32_t)config->userPermission & CY_PROT_ATT_PERMISSION_MASK)
 891              		.loc 1 478 0
 892 005e A379     		ldrb	r3, [r4, #6]
 893 0060 0720     		movs	r0, #7
 894 0062 1840     		ands	r0, r3
 479:Generated_Source\PSoC6\pdl\drivers\peripheral\prot/cy_prot.c ****                     | (uint32_t)(((uint32_t)config->privPermission & CY_PROT_ATT_PERMISSION_MASK) <
 895              		.loc 1 479 0
 896 0064 E279     		ldrb	r2, [r4, #7]
 897 0066 D200     		lsls	r2, r2, #3
 898 0068 3823     		movs	r3, #56
 899 006a 1340     		ands	r3, r2
 900 006c 1843     		orrs	r0, r3
 480:Generated_Source\PSoC6\pdl\drivers\peripheral\prot/cy_prot.c ****                     | _VAL2FLD(PROT_SMPU_SMPU_STRUCT_ATT0_NS, !(config->secure))
 901              		.loc 1 480 0
 902 006e 237A     		ldrb	r3, [r4, #8]
 903 0070 0122     		movs	r2, #1
 904 0072 5A40     		eors	r2, r3
 905 0074 D2B2     		uxtb	r2, r2
 906 0076 9201     		lsls	r2, r2, #6
 907 0078 4023     		movs	r3, #64
 908 007a 1A40     		ands	r2, r3
 909 007c 0300     		movs	r3, r0
 910 007e 1343     		orrs	r3, r2
 481:Generated_Source\PSoC6\pdl\drivers\peripheral\prot/cy_prot.c ****                     | _VAL2FLD(PROT_SMPU_SMPU_STRUCT_ATT0_PC_MASK_15_TO_1, config->pcMask)
 911              		.loc 1 481 0
 912 0080 4902     		lsls	r1, r1, #9
 913 0082 134A     		ldr	r2, .L85+4
 914 0084 1140     		ands	r1, r2
 915 0086 0B43     		orrs	r3, r1
 482:Generated_Source\PSoC6\pdl\drivers\peripheral\prot/cy_prot.c ****                     | _VAL2FLD(PROT_SMPU_SMPU_STRUCT_ATT0_REGION_SIZE, config->regionSize)
 916              		.loc 1 482 0
 917 0088 2179     		ldrb	r1, [r4, #4]
 918 008a 0906     		lsls	r1, r1, #24
 919 008c F820     		movs	r0, #248
 920 008e 4005     		lsls	r0, r0, #21
 921 0090 0A00     		movs	r2, r1
 922 0092 0240     		ands	r2, r0
 923 0094 1343     		orrs	r3, r2
 924 0096 1900     		movs	r1, r3
ARM GAS  C:\Users\gjl\AppData\Local\Temp\cc7xIfgu.s 			page 26


 483:Generated_Source\PSoC6\pdl\drivers\peripheral\prot/cy_prot.c ****                     | _VAL2FLD(PROT_SMPU_SMPU_STRUCT_ATT0_PC_MATCH, config->pcMatch);
 925              		.loc 1 483 0
 926 0098 637A     		ldrb	r3, [r4, #9]
 927 009a 9B07     		lsls	r3, r3, #30
 928 009c 8020     		movs	r0, #128
 929 009e C005     		lsls	r0, r0, #23
 930 00a0 0340     		ands	r3, r0
 931 00a2 1A00     		movs	r2, r3
 478:Generated_Source\PSoC6\pdl\drivers\peripheral\prot/cy_prot.c ****                     | (uint32_t)(((uint32_t)config->privPermission & CY_PROT_ATT_PERMISSION_MASK) <
 932              		.loc 1 478 0
 933 00a4 0B00     		movs	r3, r1
 934 00a6 1343     		orrs	r3, r2
 935              	.LVL68:
 484:Generated_Source\PSoC6\pdl\drivers\peripheral\prot/cy_prot.c ****         base->ATT0 = attReg;
 936              		.loc 1 484 0
 937 00a8 6B60     		str	r3, [r5, #4]
 485:Generated_Source\PSoC6\pdl\drivers\peripheral\prot/cy_prot.c ****         base->ADDR0 = addrReg;
 938              		.loc 1 485 0
 939 00aa 2E60     		str	r6, [r5]
 486:Generated_Source\PSoC6\pdl\drivers\peripheral\prot/cy_prot.c ****         status = ((base->ADDR0 != addrReg) || ((base->ATT0 & CY_PROT_SMPU_ATT0_MASK) != attReg))
 940              		.loc 1 486 0
 941 00ac 2A68     		ldr	r2, [r5]
 942 00ae 9642     		cmp	r6, r2
 943 00b0 08D1     		bne	.L83
 944              		.loc 1 486 0 is_stmt 0 discriminator 2
 945 00b2 6968     		ldr	r1, [r5, #4]
 946 00b4 074A     		ldr	r2, .L85+8
 947 00b6 0A40     		ands	r2, r1
 948 00b8 9342     		cmp	r3, r2
 949 00ba 05D0     		beq	.L84
 950              		.loc 1 486 0
 951 00bc 0648     		ldr	r0, .L85+12
 952 00be 04E0     		b	.L81
 953              	.LVL69:
 954              	.L82:
 472:Generated_Source\PSoC6\pdl\drivers\peripheral\prot/cy_prot.c ****     }
 955              		.loc 1 472 0 is_stmt 1
 956 00c0 0648     		ldr	r0, .L85+16
 957 00c2 02E0     		b	.L81
 958              	.LVL70:
 959              	.L83:
 960              		.loc 1 486 0
 961 00c4 0448     		ldr	r0, .L85+12
 962 00c6 00E0     		b	.L81
 963              	.L84:
 964 00c8 0020     		movs	r0, #0
 965              	.LVL71:
 966              	.L81:
 487:Generated_Source\PSoC6\pdl\drivers\peripheral\prot/cy_prot.c ****                     ? CY_PROT_FAILURE : CY_PROT_SUCCESS;
 488:Generated_Source\PSoC6\pdl\drivers\peripheral\prot/cy_prot.c ****     }
 489:Generated_Source\PSoC6\pdl\drivers\peripheral\prot/cy_prot.c ****     
 490:Generated_Source\PSoC6\pdl\drivers\peripheral\prot/cy_prot.c ****     return status;
 491:Generated_Source\PSoC6\pdl\drivers\peripheral\prot/cy_prot.c **** }
 967              		.loc 1 491 0
 968              		@ sp needed
 969              	.LVL72:
 970              	.LVL73:
ARM GAS  C:\Users\gjl\AppData\Local\Temp\cc7xIfgu.s 			page 27


 971 00ca F8BD     		pop	{r3, r4, r5, r6, r7, pc}
 972              	.L86:
 973              		.align	2
 974              	.L85:
 975 00cc 00000000 		.word	.LC0
 976 00d0 00FEFF00 		.word	16776704
 977 00d4 FFFEFFFF 		.word	-257
 978 00d8 0300C200 		.word	12713987
 979 00dc 0100C200 		.word	12713985
 980              		.cfi_endproc
 981              	.LFE43:
 982              		.size	Cy_Prot_ConfigSmpuSlaveStruct, .-Cy_Prot_ConfigSmpuSlaveStruct
 983              		.section	.text.Cy_Prot_EnableSmpuMasterStruct,"ax",%progbits
 984              		.align	2
 985              		.global	Cy_Prot_EnableSmpuMasterStruct
 986              		.code	16
 987              		.thumb_func
 988              		.type	Cy_Prot_EnableSmpuMasterStruct, %function
 989              	Cy_Prot_EnableSmpuMasterStruct:
 990              	.LFB44:
 492:Generated_Source\PSoC6\pdl\drivers\peripheral\prot/cy_prot.c **** 
 493:Generated_Source\PSoC6\pdl\drivers\peripheral\prot/cy_prot.c **** 
 494:Generated_Source\PSoC6\pdl\drivers\peripheral\prot/cy_prot.c **** /*******************************************************************************
 495:Generated_Source\PSoC6\pdl\drivers\peripheral\prot/cy_prot.c **** * Function Name: Cy_Prot_EnableSmpuMasterStruct
 496:Generated_Source\PSoC6\pdl\drivers\peripheral\prot/cy_prot.c **** ****************************************************************************//**
 497:Generated_Source\PSoC6\pdl\drivers\peripheral\prot/cy_prot.c **** *
 498:Generated_Source\PSoC6\pdl\drivers\peripheral\prot/cy_prot.c **** * \brief Enables the Master SMPU structure.
 499:Generated_Source\PSoC6\pdl\drivers\peripheral\prot/cy_prot.c **** *
 500:Generated_Source\PSoC6\pdl\drivers\peripheral\prot/cy_prot.c **** * This is an SMPU master struct enable function. The SMPU protection settings
 501:Generated_Source\PSoC6\pdl\drivers\peripheral\prot/cy_prot.c **** * will take effect after successful completion of this function call.
 502:Generated_Source\PSoC6\pdl\drivers\peripheral\prot/cy_prot.c **** *
 503:Generated_Source\PSoC6\pdl\drivers\peripheral\prot/cy_prot.c **** * \param base
 504:Generated_Source\PSoC6\pdl\drivers\peripheral\prot/cy_prot.c **** * The base address for the protection unit structure being configured. 
 505:Generated_Source\PSoC6\pdl\drivers\peripheral\prot/cy_prot.c **** *
 506:Generated_Source\PSoC6\pdl\drivers\peripheral\prot/cy_prot.c **** * \return
 507:Generated_Source\PSoC6\pdl\drivers\peripheral\prot/cy_prot.c **** * Status of the function call.
 508:Generated_Source\PSoC6\pdl\drivers\peripheral\prot/cy_prot.c **** *
 509:Generated_Source\PSoC6\pdl\drivers\peripheral\prot/cy_prot.c **** *   Status               | Description
 510:Generated_Source\PSoC6\pdl\drivers\peripheral\prot/cy_prot.c **** *   ------------         | -----------
 511:Generated_Source\PSoC6\pdl\drivers\peripheral\prot/cy_prot.c **** *   CY_PROT_SUCCESS      | The Master PU struct was enabled
 512:Generated_Source\PSoC6\pdl\drivers\peripheral\prot/cy_prot.c **** *   CY_PROT_FAILURE      | The Master PU struct is disabled and possibly locked
 513:Generated_Source\PSoC6\pdl\drivers\peripheral\prot/cy_prot.c **** *
 514:Generated_Source\PSoC6\pdl\drivers\peripheral\prot/cy_prot.c **** * \funcusage
 515:Generated_Source\PSoC6\pdl\drivers\peripheral\prot/cy_prot.c **** * \snippet prot/prot_v1_10_sut_01.cydsn/main_cm4.c snippet_Cy_Prot_EnableSmpuMasterStruct
 516:Generated_Source\PSoC6\pdl\drivers\peripheral\prot/cy_prot.c **** *
 517:Generated_Source\PSoC6\pdl\drivers\peripheral\prot/cy_prot.c **** *******************************************************************************/
 518:Generated_Source\PSoC6\pdl\drivers\peripheral\prot/cy_prot.c **** cy_en_prot_status_t Cy_Prot_EnableSmpuMasterStruct(PROT_SMPU_SMPU_STRUCT_Type* base)
 519:Generated_Source\PSoC6\pdl\drivers\peripheral\prot/cy_prot.c **** {
 991              		.loc 1 519 0
 992              		.cfi_startproc
 993              		@ args = 0, pretend = 0, frame = 0
 994              		@ frame_needed = 0, uses_anonymous_args = 0
 995              		@ link register save eliminated.
 996              	.LVL74:
 520:Generated_Source\PSoC6\pdl\drivers\peripheral\prot/cy_prot.c ****     cy_en_prot_status_t status;
 521:Generated_Source\PSoC6\pdl\drivers\peripheral\prot/cy_prot.c ****     
 522:Generated_Source\PSoC6\pdl\drivers\peripheral\prot/cy_prot.c ****     base->ATT1 |= _VAL2FLD(PROT_SMPU_SMPU_STRUCT_ATT1_ENABLED, CY_PROT_STRUCT_ENABLE);
ARM GAS  C:\Users\gjl\AppData\Local\Temp\cc7xIfgu.s 			page 28


 997              		.loc 1 522 0
 998 0000 436A     		ldr	r3, [r0, #36]
 999 0002 8022     		movs	r2, #128
 1000 0004 1206     		lsls	r2, r2, #24
 1001 0006 1343     		orrs	r3, r2
 1002 0008 4362     		str	r3, [r0, #36]
 523:Generated_Source\PSoC6\pdl\drivers\peripheral\prot/cy_prot.c ****     status = (_FLD2VAL(PROT_SMPU_SMPU_STRUCT_ATT1_ENABLED, base->ATT1) != CY_PROT_STRUCT_ENABLE) ?
 1003              		.loc 1 523 0
 1004 000a 436A     		ldr	r3, [r0, #36]
 1005 000c 002B     		cmp	r3, #0
 1006 000e 01DB     		blt	.L89
 1007 0010 0148     		ldr	r0, .L90
 1008              	.LVL75:
 1009 0012 00E0     		b	.L88
 1010              	.LVL76:
 1011              	.L89:
 1012 0014 0020     		movs	r0, #0
 1013              	.LVL77:
 1014              	.L88:
 524:Generated_Source\PSoC6\pdl\drivers\peripheral\prot/cy_prot.c ****                 CY_PROT_FAILURE : CY_PROT_SUCCESS;
 525:Generated_Source\PSoC6\pdl\drivers\peripheral\prot/cy_prot.c ****     
 526:Generated_Source\PSoC6\pdl\drivers\peripheral\prot/cy_prot.c ****     return status;
 527:Generated_Source\PSoC6\pdl\drivers\peripheral\prot/cy_prot.c **** }
 1015              		.loc 1 527 0 discriminator 4
 1016              		@ sp needed
 1017 0016 7047     		bx	lr
 1018              	.L91:
 1019              		.align	2
 1020              	.L90:
 1021 0018 0300C200 		.word	12713987
 1022              		.cfi_endproc
 1023              	.LFE44:
 1024              		.size	Cy_Prot_EnableSmpuMasterStruct, .-Cy_Prot_EnableSmpuMasterStruct
 1025              		.section	.text.Cy_Prot_DisableSmpuMasterStruct,"ax",%progbits
 1026              		.align	2
 1027              		.global	Cy_Prot_DisableSmpuMasterStruct
 1028              		.code	16
 1029              		.thumb_func
 1030              		.type	Cy_Prot_DisableSmpuMasterStruct, %function
 1031              	Cy_Prot_DisableSmpuMasterStruct:
 1032              	.LFB45:
 528:Generated_Source\PSoC6\pdl\drivers\peripheral\prot/cy_prot.c **** 
 529:Generated_Source\PSoC6\pdl\drivers\peripheral\prot/cy_prot.c **** 
 530:Generated_Source\PSoC6\pdl\drivers\peripheral\prot/cy_prot.c **** /*******************************************************************************
 531:Generated_Source\PSoC6\pdl\drivers\peripheral\prot/cy_prot.c **** * Function Name: Cy_Prot_DisableSmpuMasterStruct
 532:Generated_Source\PSoC6\pdl\drivers\peripheral\prot/cy_prot.c **** ****************************************************************************//**
 533:Generated_Source\PSoC6\pdl\drivers\peripheral\prot/cy_prot.c **** *
 534:Generated_Source\PSoC6\pdl\drivers\peripheral\prot/cy_prot.c **** * \brief Disables the Master SMPU structure.
 535:Generated_Source\PSoC6\pdl\drivers\peripheral\prot/cy_prot.c **** *
 536:Generated_Source\PSoC6\pdl\drivers\peripheral\prot/cy_prot.c **** * This is an SMPU master struct disable function. The SMPU protection settings
 537:Generated_Source\PSoC6\pdl\drivers\peripheral\prot/cy_prot.c **** * will seize to take effect after successful completion of this function call.
 538:Generated_Source\PSoC6\pdl\drivers\peripheral\prot/cy_prot.c **** *
 539:Generated_Source\PSoC6\pdl\drivers\peripheral\prot/cy_prot.c **** * \param base
 540:Generated_Source\PSoC6\pdl\drivers\peripheral\prot/cy_prot.c **** * The base address for the protection unit structure being configured. 
 541:Generated_Source\PSoC6\pdl\drivers\peripheral\prot/cy_prot.c **** *
 542:Generated_Source\PSoC6\pdl\drivers\peripheral\prot/cy_prot.c **** * \return
 543:Generated_Source\PSoC6\pdl\drivers\peripheral\prot/cy_prot.c **** * Status of the function call.
ARM GAS  C:\Users\gjl\AppData\Local\Temp\cc7xIfgu.s 			page 29


 544:Generated_Source\PSoC6\pdl\drivers\peripheral\prot/cy_prot.c **** *
 545:Generated_Source\PSoC6\pdl\drivers\peripheral\prot/cy_prot.c **** *   Status               | Description
 546:Generated_Source\PSoC6\pdl\drivers\peripheral\prot/cy_prot.c **** *   ------------         | -----------
 547:Generated_Source\PSoC6\pdl\drivers\peripheral\prot/cy_prot.c **** *   CY_PROT_SUCCESS      | The Master PU struct was disabled
 548:Generated_Source\PSoC6\pdl\drivers\peripheral\prot/cy_prot.c **** *   CY_PROT_FAILURE      | The Master PU struct is enabled and possibly locked
 549:Generated_Source\PSoC6\pdl\drivers\peripheral\prot/cy_prot.c **** *
 550:Generated_Source\PSoC6\pdl\drivers\peripheral\prot/cy_prot.c **** * \funcusage
 551:Generated_Source\PSoC6\pdl\drivers\peripheral\prot/cy_prot.c **** * \snippet prot/prot_v1_10_sut_01.cydsn/main_cm4.c snippet_Cy_Prot_DisableSmpuMasterStruct
 552:Generated_Source\PSoC6\pdl\drivers\peripheral\prot/cy_prot.c **** *
 553:Generated_Source\PSoC6\pdl\drivers\peripheral\prot/cy_prot.c **** *******************************************************************************/
 554:Generated_Source\PSoC6\pdl\drivers\peripheral\prot/cy_prot.c **** cy_en_prot_status_t Cy_Prot_DisableSmpuMasterStruct(PROT_SMPU_SMPU_STRUCT_Type* base)
 555:Generated_Source\PSoC6\pdl\drivers\peripheral\prot/cy_prot.c **** {
 1033              		.loc 1 555 0
 1034              		.cfi_startproc
 1035              		@ args = 0, pretend = 0, frame = 0
 1036              		@ frame_needed = 0, uses_anonymous_args = 0
 1037              		@ link register save eliminated.
 1038              	.LVL78:
 556:Generated_Source\PSoC6\pdl\drivers\peripheral\prot/cy_prot.c ****     cy_en_prot_status_t status;
 557:Generated_Source\PSoC6\pdl\drivers\peripheral\prot/cy_prot.c ****     
 558:Generated_Source\PSoC6\pdl\drivers\peripheral\prot/cy_prot.c ****     base->ATT1 &= ~_VAL2FLD(PROT_SMPU_SMPU_STRUCT_ATT1_ENABLED, CY_PROT_STRUCT_ENABLE);
 1039              		.loc 1 558 0
 1040 0000 436A     		ldr	r3, [r0, #36]
 1041 0002 5B00     		lsls	r3, r3, #1
 1042 0004 5B08     		lsrs	r3, r3, #1
 1043 0006 4362     		str	r3, [r0, #36]
 559:Generated_Source\PSoC6\pdl\drivers\peripheral\prot/cy_prot.c ****     status = (_FLD2VAL(PROT_SMPU_SMPU_STRUCT_ATT1_ENABLED, base->ATT1) == CY_PROT_STRUCT_ENABLE) ?
 1044              		.loc 1 559 0
 1045 0008 436A     		ldr	r3, [r0, #36]
 1046 000a 002B     		cmp	r3, #0
 1047 000c 01DA     		bge	.L94
 1048 000e 0248     		ldr	r0, .L95
 1049              	.LVL79:
 1050 0010 00E0     		b	.L93
 1051              	.LVL80:
 1052              	.L94:
 1053 0012 0020     		movs	r0, #0
 1054              	.LVL81:
 1055              	.L93:
 560:Generated_Source\PSoC6\pdl\drivers\peripheral\prot/cy_prot.c ****                 CY_PROT_FAILURE : CY_PROT_SUCCESS;
 561:Generated_Source\PSoC6\pdl\drivers\peripheral\prot/cy_prot.c ****     
 562:Generated_Source\PSoC6\pdl\drivers\peripheral\prot/cy_prot.c ****     return status;
 563:Generated_Source\PSoC6\pdl\drivers\peripheral\prot/cy_prot.c **** }
 1056              		.loc 1 563 0 discriminator 4
 1057              		@ sp needed
 1058 0014 7047     		bx	lr
 1059              	.L96:
 1060 0016 C046     		.align	2
 1061              	.L95:
 1062 0018 0300C200 		.word	12713987
 1063              		.cfi_endproc
 1064              	.LFE45:
 1065              		.size	Cy_Prot_DisableSmpuMasterStruct, .-Cy_Prot_DisableSmpuMasterStruct
 1066              		.section	.text.Cy_Prot_EnableSmpuSlaveStruct,"ax",%progbits
 1067              		.align	2
 1068              		.global	Cy_Prot_EnableSmpuSlaveStruct
 1069              		.code	16
ARM GAS  C:\Users\gjl\AppData\Local\Temp\cc7xIfgu.s 			page 30


 1070              		.thumb_func
 1071              		.type	Cy_Prot_EnableSmpuSlaveStruct, %function
 1072              	Cy_Prot_EnableSmpuSlaveStruct:
 1073              	.LFB46:
 564:Generated_Source\PSoC6\pdl\drivers\peripheral\prot/cy_prot.c **** 
 565:Generated_Source\PSoC6\pdl\drivers\peripheral\prot/cy_prot.c **** 
 566:Generated_Source\PSoC6\pdl\drivers\peripheral\prot/cy_prot.c **** /*******************************************************************************
 567:Generated_Source\PSoC6\pdl\drivers\peripheral\prot/cy_prot.c **** * Function Name: Cy_Prot_EnableSmpuSlaveStruct
 568:Generated_Source\PSoC6\pdl\drivers\peripheral\prot/cy_prot.c **** ****************************************************************************//**
 569:Generated_Source\PSoC6\pdl\drivers\peripheral\prot/cy_prot.c **** *
 570:Generated_Source\PSoC6\pdl\drivers\peripheral\prot/cy_prot.c **** * \brief Enables the Slave SMPU structure.
 571:Generated_Source\PSoC6\pdl\drivers\peripheral\prot/cy_prot.c **** *
 572:Generated_Source\PSoC6\pdl\drivers\peripheral\prot/cy_prot.c **** * This is an SMPU slave struct enable function. The SMPU protection settings
 573:Generated_Source\PSoC6\pdl\drivers\peripheral\prot/cy_prot.c **** * will take effect after successful completion of this function call.
 574:Generated_Source\PSoC6\pdl\drivers\peripheral\prot/cy_prot.c **** *
 575:Generated_Source\PSoC6\pdl\drivers\peripheral\prot/cy_prot.c **** * \param base
 576:Generated_Source\PSoC6\pdl\drivers\peripheral\prot/cy_prot.c **** * The base address for the protection unit structure being configured. 
 577:Generated_Source\PSoC6\pdl\drivers\peripheral\prot/cy_prot.c **** *
 578:Generated_Source\PSoC6\pdl\drivers\peripheral\prot/cy_prot.c **** * \return
 579:Generated_Source\PSoC6\pdl\drivers\peripheral\prot/cy_prot.c **** * Status of the function call.
 580:Generated_Source\PSoC6\pdl\drivers\peripheral\prot/cy_prot.c **** *
 581:Generated_Source\PSoC6\pdl\drivers\peripheral\prot/cy_prot.c **** *   Status               | Description
 582:Generated_Source\PSoC6\pdl\drivers\peripheral\prot/cy_prot.c **** *   ------------         | -----------
 583:Generated_Source\PSoC6\pdl\drivers\peripheral\prot/cy_prot.c **** *   CY_PROT_SUCCESS      | The Slave PU struct was enabled
 584:Generated_Source\PSoC6\pdl\drivers\peripheral\prot/cy_prot.c **** *   CY_PROT_FAILURE      | The Slave PU struct is disabled and possibly locked
 585:Generated_Source\PSoC6\pdl\drivers\peripheral\prot/cy_prot.c **** *
 586:Generated_Source\PSoC6\pdl\drivers\peripheral\prot/cy_prot.c **** * \funcusage
 587:Generated_Source\PSoC6\pdl\drivers\peripheral\prot/cy_prot.c **** * \snippet prot/prot_v1_10_sut_01.cydsn/main_cm4.c snippet_Cy_Prot_EnableSmpuSlaveStruct
 588:Generated_Source\PSoC6\pdl\drivers\peripheral\prot/cy_prot.c **** *
 589:Generated_Source\PSoC6\pdl\drivers\peripheral\prot/cy_prot.c **** *******************************************************************************/
 590:Generated_Source\PSoC6\pdl\drivers\peripheral\prot/cy_prot.c **** cy_en_prot_status_t Cy_Prot_EnableSmpuSlaveStruct(PROT_SMPU_SMPU_STRUCT_Type* base)
 591:Generated_Source\PSoC6\pdl\drivers\peripheral\prot/cy_prot.c **** {   
 1074              		.loc 1 591 0
 1075              		.cfi_startproc
 1076              		@ args = 0, pretend = 0, frame = 0
 1077              		@ frame_needed = 0, uses_anonymous_args = 0
 1078              		@ link register save eliminated.
 1079              	.LVL82:
 592:Generated_Source\PSoC6\pdl\drivers\peripheral\prot/cy_prot.c ****     cy_en_prot_status_t status;
 593:Generated_Source\PSoC6\pdl\drivers\peripheral\prot/cy_prot.c ****     
 594:Generated_Source\PSoC6\pdl\drivers\peripheral\prot/cy_prot.c ****     base->ATT0 |= _VAL2FLD(PROT_SMPU_SMPU_STRUCT_ATT0_ENABLED, CY_PROT_STRUCT_ENABLE);
 1080              		.loc 1 594 0
 1081 0000 4368     		ldr	r3, [r0, #4]
 1082 0002 8022     		movs	r2, #128
 1083 0004 1206     		lsls	r2, r2, #24
 1084 0006 1343     		orrs	r3, r2
 1085 0008 4360     		str	r3, [r0, #4]
 595:Generated_Source\PSoC6\pdl\drivers\peripheral\prot/cy_prot.c ****     status = (_FLD2VAL(PROT_SMPU_SMPU_STRUCT_ATT0_ENABLED, base->ATT0) != CY_PROT_STRUCT_ENABLE) ?
 1086              		.loc 1 595 0
 1087 000a 4368     		ldr	r3, [r0, #4]
 1088 000c 002B     		cmp	r3, #0
 1089 000e 01DB     		blt	.L99
 1090 0010 0148     		ldr	r0, .L100
 1091              	.LVL83:
 1092 0012 00E0     		b	.L98
 1093              	.LVL84:
 1094              	.L99:
ARM GAS  C:\Users\gjl\AppData\Local\Temp\cc7xIfgu.s 			page 31


 1095 0014 0020     		movs	r0, #0
 1096              	.LVL85:
 1097              	.L98:
 596:Generated_Source\PSoC6\pdl\drivers\peripheral\prot/cy_prot.c ****                 CY_PROT_FAILURE : CY_PROT_SUCCESS;
 597:Generated_Source\PSoC6\pdl\drivers\peripheral\prot/cy_prot.c ****     
 598:Generated_Source\PSoC6\pdl\drivers\peripheral\prot/cy_prot.c ****     return status;
 599:Generated_Source\PSoC6\pdl\drivers\peripheral\prot/cy_prot.c **** }
 1098              		.loc 1 599 0 discriminator 4
 1099              		@ sp needed
 1100 0016 7047     		bx	lr
 1101              	.L101:
 1102              		.align	2
 1103              	.L100:
 1104 0018 0300C200 		.word	12713987
 1105              		.cfi_endproc
 1106              	.LFE46:
 1107              		.size	Cy_Prot_EnableSmpuSlaveStruct, .-Cy_Prot_EnableSmpuSlaveStruct
 1108              		.section	.text.Cy_Prot_DisableSmpuSlaveStruct,"ax",%progbits
 1109              		.align	2
 1110              		.global	Cy_Prot_DisableSmpuSlaveStruct
 1111              		.code	16
 1112              		.thumb_func
 1113              		.type	Cy_Prot_DisableSmpuSlaveStruct, %function
 1114              	Cy_Prot_DisableSmpuSlaveStruct:
 1115              	.LFB47:
 600:Generated_Source\PSoC6\pdl\drivers\peripheral\prot/cy_prot.c **** 
 601:Generated_Source\PSoC6\pdl\drivers\peripheral\prot/cy_prot.c **** 
 602:Generated_Source\PSoC6\pdl\drivers\peripheral\prot/cy_prot.c **** /*******************************************************************************
 603:Generated_Source\PSoC6\pdl\drivers\peripheral\prot/cy_prot.c **** * Function Name: Cy_Prot_DisableSmpuSlaveStruct
 604:Generated_Source\PSoC6\pdl\drivers\peripheral\prot/cy_prot.c **** ****************************************************************************//**
 605:Generated_Source\PSoC6\pdl\drivers\peripheral\prot/cy_prot.c **** *
 606:Generated_Source\PSoC6\pdl\drivers\peripheral\prot/cy_prot.c **** * \brief Disables the Slave SMPU structure.
 607:Generated_Source\PSoC6\pdl\drivers\peripheral\prot/cy_prot.c **** *
 608:Generated_Source\PSoC6\pdl\drivers\peripheral\prot/cy_prot.c **** * This is an SMPU slave struct disable function. The SMPU protection settings
 609:Generated_Source\PSoC6\pdl\drivers\peripheral\prot/cy_prot.c **** * will seize to take effect after successful completion of this function call.
 610:Generated_Source\PSoC6\pdl\drivers\peripheral\prot/cy_prot.c **** *
 611:Generated_Source\PSoC6\pdl\drivers\peripheral\prot/cy_prot.c **** * \param base
 612:Generated_Source\PSoC6\pdl\drivers\peripheral\prot/cy_prot.c **** * The base address for the protection unit structure being configured. 
 613:Generated_Source\PSoC6\pdl\drivers\peripheral\prot/cy_prot.c **** *
 614:Generated_Source\PSoC6\pdl\drivers\peripheral\prot/cy_prot.c **** * \return
 615:Generated_Source\PSoC6\pdl\drivers\peripheral\prot/cy_prot.c **** * Status of the function call.
 616:Generated_Source\PSoC6\pdl\drivers\peripheral\prot/cy_prot.c **** *
 617:Generated_Source\PSoC6\pdl\drivers\peripheral\prot/cy_prot.c **** *   Status               | Description
 618:Generated_Source\PSoC6\pdl\drivers\peripheral\prot/cy_prot.c **** *   ------------         | -----------
 619:Generated_Source\PSoC6\pdl\drivers\peripheral\prot/cy_prot.c **** *   CY_PROT_SUCCESS      | The Slave PU struct was disabled
 620:Generated_Source\PSoC6\pdl\drivers\peripheral\prot/cy_prot.c **** *   CY_PROT_FAILURE      | The Slave PU struct is enabled and possibly locked
 621:Generated_Source\PSoC6\pdl\drivers\peripheral\prot/cy_prot.c **** *
 622:Generated_Source\PSoC6\pdl\drivers\peripheral\prot/cy_prot.c **** * \funcusage
 623:Generated_Source\PSoC6\pdl\drivers\peripheral\prot/cy_prot.c **** * \snippet prot/prot_v1_10_sut_01.cydsn/main_cm4.c snippet_Cy_Prot_DisableSmpuSlaveStruct
 624:Generated_Source\PSoC6\pdl\drivers\peripheral\prot/cy_prot.c **** *
 625:Generated_Source\PSoC6\pdl\drivers\peripheral\prot/cy_prot.c **** *******************************************************************************/
 626:Generated_Source\PSoC6\pdl\drivers\peripheral\prot/cy_prot.c **** cy_en_prot_status_t Cy_Prot_DisableSmpuSlaveStruct(PROT_SMPU_SMPU_STRUCT_Type* base)
 627:Generated_Source\PSoC6\pdl\drivers\peripheral\prot/cy_prot.c **** {
 1116              		.loc 1 627 0
 1117              		.cfi_startproc
 1118              		@ args = 0, pretend = 0, frame = 0
 1119              		@ frame_needed = 0, uses_anonymous_args = 0
ARM GAS  C:\Users\gjl\AppData\Local\Temp\cc7xIfgu.s 			page 32


 1120              		@ link register save eliminated.
 1121              	.LVL86:
 628:Generated_Source\PSoC6\pdl\drivers\peripheral\prot/cy_prot.c ****     cy_en_prot_status_t status;
 629:Generated_Source\PSoC6\pdl\drivers\peripheral\prot/cy_prot.c ****     
 630:Generated_Source\PSoC6\pdl\drivers\peripheral\prot/cy_prot.c ****     base->ATT0 &= ~_VAL2FLD(PROT_SMPU_SMPU_STRUCT_ATT0_ENABLED, CY_PROT_STRUCT_ENABLE);
 1122              		.loc 1 630 0
 1123 0000 4368     		ldr	r3, [r0, #4]
 1124 0002 5B00     		lsls	r3, r3, #1
 1125 0004 5B08     		lsrs	r3, r3, #1
 1126 0006 4360     		str	r3, [r0, #4]
 631:Generated_Source\PSoC6\pdl\drivers\peripheral\prot/cy_prot.c ****     status = (_FLD2VAL(PROT_SMPU_SMPU_STRUCT_ATT0_ENABLED, base->ATT0) == CY_PROT_STRUCT_ENABLE) ?
 1127              		.loc 1 631 0
 1128 0008 4368     		ldr	r3, [r0, #4]
 1129 000a 002B     		cmp	r3, #0
 1130 000c 01DA     		bge	.L104
 1131 000e 0248     		ldr	r0, .L105
 1132              	.LVL87:
 1133 0010 00E0     		b	.L103
 1134              	.LVL88:
 1135              	.L104:
 1136 0012 0020     		movs	r0, #0
 1137              	.LVL89:
 1138              	.L103:
 632:Generated_Source\PSoC6\pdl\drivers\peripheral\prot/cy_prot.c ****                 CY_PROT_FAILURE : CY_PROT_SUCCESS;
 633:Generated_Source\PSoC6\pdl\drivers\peripheral\prot/cy_prot.c ****     
 634:Generated_Source\PSoC6\pdl\drivers\peripheral\prot/cy_prot.c ****     return status;
 635:Generated_Source\PSoC6\pdl\drivers\peripheral\prot/cy_prot.c **** }
 1139              		.loc 1 635 0 discriminator 4
 1140              		@ sp needed
 1141 0014 7047     		bx	lr
 1142              	.L106:
 1143 0016 C046     		.align	2
 1144              	.L105:
 1145 0018 0300C200 		.word	12713987
 1146              		.cfi_endproc
 1147              	.LFE47:
 1148              		.size	Cy_Prot_DisableSmpuSlaveStruct, .-Cy_Prot_DisableSmpuSlaveStruct
 1149              		.section	.text.Cy_Prot_ConfigPpuProgMasterStruct,"ax",%progbits
 1150              		.align	2
 1151              		.global	Cy_Prot_ConfigPpuProgMasterStruct
 1152              		.code	16
 1153              		.thumb_func
 1154              		.type	Cy_Prot_ConfigPpuProgMasterStruct, %function
 1155              	Cy_Prot_ConfigPpuProgMasterStruct:
 1156              	.LFB48:
 636:Generated_Source\PSoC6\pdl\drivers\peripheral\prot/cy_prot.c **** 
 637:Generated_Source\PSoC6\pdl\drivers\peripheral\prot/cy_prot.c **** 
 638:Generated_Source\PSoC6\pdl\drivers\peripheral\prot/cy_prot.c **** /*******************************************************************************
 639:Generated_Source\PSoC6\pdl\drivers\peripheral\prot/cy_prot.c **** * Function Name: Cy_Prot_ConfigPpuProgMasterStruct
 640:Generated_Source\PSoC6\pdl\drivers\peripheral\prot/cy_prot.c **** ****************************************************************************//**
 641:Generated_Source\PSoC6\pdl\drivers\peripheral\prot/cy_prot.c **** *
 642:Generated_Source\PSoC6\pdl\drivers\peripheral\prot/cy_prot.c **** * \brief Configures a Programmable Peripheral Protection Unit (PPU PROG) master 
 643:Generated_Source\PSoC6\pdl\drivers\peripheral\prot/cy_prot.c **** * protection struct with its protection attributes. 
 644:Generated_Source\PSoC6\pdl\drivers\peripheral\prot/cy_prot.c **** *
 645:Generated_Source\PSoC6\pdl\drivers\peripheral\prot/cy_prot.c **** * This function configures the master struct governing the corresponding slave
 646:Generated_Source\PSoC6\pdl\drivers\peripheral\prot/cy_prot.c **** * struct pair. It is a mechanism to protect the slave PPU PROG struct. Since
 647:Generated_Source\PSoC6\pdl\drivers\peripheral\prot/cy_prot.c **** * the memory location of the slave struct is known, the address, regionSize and
ARM GAS  C:\Users\gjl\AppData\Local\Temp\cc7xIfgu.s 			page 33


 648:Generated_Source\PSoC6\pdl\drivers\peripheral\prot/cy_prot.c **** * subregions of the configuration struct are not applicable.
 649:Generated_Source\PSoC6\pdl\drivers\peripheral\prot/cy_prot.c **** *
 650:Generated_Source\PSoC6\pdl\drivers\peripheral\prot/cy_prot.c **** * Note that only the user/privileged write permissions are configurable. The 
 651:Generated_Source\PSoC6\pdl\drivers\peripheral\prot/cy_prot.c **** * read and execute permissions are read-only and cannot be configured.
 652:Generated_Source\PSoC6\pdl\drivers\peripheral\prot/cy_prot.c **** *
 653:Generated_Source\PSoC6\pdl\drivers\peripheral\prot/cy_prot.c **** * \param base
 654:Generated_Source\PSoC6\pdl\drivers\peripheral\prot/cy_prot.c **** * The register base address of the protection struct being configured.
 655:Generated_Source\PSoC6\pdl\drivers\peripheral\prot/cy_prot.c **** * 
 656:Generated_Source\PSoC6\pdl\drivers\peripheral\prot/cy_prot.c **** * \param config
 657:Generated_Source\PSoC6\pdl\drivers\peripheral\prot/cy_prot.c **** * Initialization structure with all the protection attributes.
 658:Generated_Source\PSoC6\pdl\drivers\peripheral\prot/cy_prot.c **** * 
 659:Generated_Source\PSoC6\pdl\drivers\peripheral\prot/cy_prot.c **** * \return
 660:Generated_Source\PSoC6\pdl\drivers\peripheral\prot/cy_prot.c **** * Status of the function call.
 661:Generated_Source\PSoC6\pdl\drivers\peripheral\prot/cy_prot.c **** *
 662:Generated_Source\PSoC6\pdl\drivers\peripheral\prot/cy_prot.c **** *   Status               | Description
 663:Generated_Source\PSoC6\pdl\drivers\peripheral\prot/cy_prot.c **** *   ------------         | -----------
 664:Generated_Source\PSoC6\pdl\drivers\peripheral\prot/cy_prot.c **** *   CY_PROT_SUCCESS      | PPU PROG master struct was successfully configured
 665:Generated_Source\PSoC6\pdl\drivers\peripheral\prot/cy_prot.c **** *   CY_PROT_FAILURE      | The resource is locked
 666:Generated_Source\PSoC6\pdl\drivers\peripheral\prot/cy_prot.c **** *   CY_PROT_BAD_PARAM    | An incorrect/invalid parameter was passed
 667:Generated_Source\PSoC6\pdl\drivers\peripheral\prot/cy_prot.c **** *
 668:Generated_Source\PSoC6\pdl\drivers\peripheral\prot/cy_prot.c **** * \funcusage
 669:Generated_Source\PSoC6\pdl\drivers\peripheral\prot/cy_prot.c **** * \snippet prot/prot_v1_10_sut_01.cydsn/main_cm4.c snippet_Cy_Prot_ConfigPpuProgMasterStruct
 670:Generated_Source\PSoC6\pdl\drivers\peripheral\prot/cy_prot.c **** *
 671:Generated_Source\PSoC6\pdl\drivers\peripheral\prot/cy_prot.c **** *******************************************************************************/
 672:Generated_Source\PSoC6\pdl\drivers\peripheral\prot/cy_prot.c **** cy_en_prot_status_t Cy_Prot_ConfigPpuProgMasterStruct(PERI_PPU_PR_Type* base, const cy_stc_ppu_prog
 673:Generated_Source\PSoC6\pdl\drivers\peripheral\prot/cy_prot.c **** {
 1157              		.loc 1 673 0
 1158              		.cfi_startproc
 1159              		@ args = 0, pretend = 0, frame = 0
 1160              		@ frame_needed = 0, uses_anonymous_args = 0
 1161              	.LVL90:
 1162 0000 70B5     		push	{r4, r5, r6, lr}
 1163              		.cfi_def_cfa_offset 16
 1164              		.cfi_offset 4, -16
 1165              		.cfi_offset 5, -12
 1166              		.cfi_offset 6, -8
 1167              		.cfi_offset 14, -4
 1168 0002 0500     		movs	r5, r0
 1169 0004 0C00     		movs	r4, r1
 674:Generated_Source\PSoC6\pdl\drivers\peripheral\prot/cy_prot.c ****     cy_en_prot_status_t status;
 675:Generated_Source\PSoC6\pdl\drivers\peripheral\prot/cy_prot.c ****     uint32_t attReg;
 676:Generated_Source\PSoC6\pdl\drivers\peripheral\prot/cy_prot.c ****     
 677:Generated_Source\PSoC6\pdl\drivers\peripheral\prot/cy_prot.c ****     CY_ASSERT_L1(NULL != base);
 1170              		.loc 1 677 0
 1171 0006 0028     		cmp	r0, #0
 1172 0008 03D1     		bne	.L108
 1173              		.loc 1 677 0 is_stmt 0 discriminator 1
 1174 000a 2549     		ldr	r1, .L115
 1175              	.LVL91:
 1176 000c 2548     		ldr	r0, .L115+4
 1177              	.LVL92:
 1178 000e FFF7FEFF 		bl	Cy_SysLib_AssertFailed
 1179              	.LVL93:
 1180              	.L108:
 678:Generated_Source\PSoC6\pdl\drivers\peripheral\prot/cy_prot.c ****     CY_ASSERT_L3(CY_PROT_IS_PROG_MS_PERM_VALID(config->userPermission));
 1181              		.loc 1 678 0 is_stmt 1
 1182 0012 A379     		ldrb	r3, [r4, #6]
ARM GAS  C:\Users\gjl\AppData\Local\Temp\cc7xIfgu.s 			page 34


 1183 0014 012B     		cmp	r3, #1
 1184 0016 05D0     		beq	.L109
 1185              		.loc 1 678 0 is_stmt 0 discriminator 1
 1186 0018 032B     		cmp	r3, #3
 1187 001a 03D0     		beq	.L109
 1188              		.loc 1 678 0 discriminator 2
 1189 001c 2249     		ldr	r1, .L115+8
 1190 001e 2148     		ldr	r0, .L115+4
 1191 0020 FFF7FEFF 		bl	Cy_SysLib_AssertFailed
 1192              	.LVL94:
 1193              	.L109:
 679:Generated_Source\PSoC6\pdl\drivers\peripheral\prot/cy_prot.c ****     CY_ASSERT_L3(CY_PROT_IS_PROG_MS_PERM_VALID(config->privPermission));
 1194              		.loc 1 679 0 is_stmt 1
 1195 0024 E379     		ldrb	r3, [r4, #7]
 1196 0026 012B     		cmp	r3, #1
 1197 0028 05D0     		beq	.L110
 1198              		.loc 1 679 0 is_stmt 0 discriminator 1
 1199 002a 032B     		cmp	r3, #3
 1200 002c 03D0     		beq	.L110
 1201              		.loc 1 679 0 discriminator 2
 1202 002e 1F49     		ldr	r1, .L115+12
 1203 0030 1C48     		ldr	r0, .L115+4
 1204 0032 FFF7FEFF 		bl	Cy_SysLib_AssertFailed
 1205              	.LVL95:
 1206              	.L110:
 680:Generated_Source\PSoC6\pdl\drivers\peripheral\prot/cy_prot.c ****     
 681:Generated_Source\PSoC6\pdl\drivers\peripheral\prot/cy_prot.c ****     if(((uint32_t)config->pcMask & CY_PROT_PPU_PROG_PC_LIMIT_MASK) != 0UL) 
 1207              		.loc 1 681 0 is_stmt 1
 1208 0036 6189     		ldrh	r1, [r4, #10]
 1209 0038 7F23     		movs	r3, #127
 1210 003a 0A00     		movs	r2, r1
 1211 003c 9A43     		bics	r2, r3
 1212 003e 28D1     		bne	.L112
 682:Generated_Source\PSoC6\pdl\drivers\peripheral\prot/cy_prot.c ****     {
 683:Generated_Source\PSoC6\pdl\drivers\peripheral\prot/cy_prot.c ****         /* PC mask out of range - not supported in device */
 684:Generated_Source\PSoC6\pdl\drivers\peripheral\prot/cy_prot.c ****         status = CY_PROT_BAD_PARAM;
 685:Generated_Source\PSoC6\pdl\drivers\peripheral\prot/cy_prot.c ****     }
 686:Generated_Source\PSoC6\pdl\drivers\peripheral\prot/cy_prot.c ****     else
 687:Generated_Source\PSoC6\pdl\drivers\peripheral\prot/cy_prot.c ****     {
 688:Generated_Source\PSoC6\pdl\drivers\peripheral\prot/cy_prot.c ****         /* ADDR1 is read only. Only configure ATT1 */
 689:Generated_Source\PSoC6\pdl\drivers\peripheral\prot/cy_prot.c ****         attReg = ((uint32_t)config->userPermission & CY_PROT_ATT_PERMISSION_MASK)
 1213              		.loc 1 689 0
 1214 0040 A379     		ldrb	r3, [r4, #6]
 1215 0042 0720     		movs	r0, #7
 1216 0044 1840     		ands	r0, r3
 690:Generated_Source\PSoC6\pdl\drivers\peripheral\prot/cy_prot.c ****                     | (uint32_t)(((uint32_t)config->privPermission & CY_PROT_ATT_PERMISSION_MASK) <
 1217              		.loc 1 690 0
 1218 0046 E279     		ldrb	r2, [r4, #7]
 1219 0048 D200     		lsls	r2, r2, #3
 1220 004a 3823     		movs	r3, #56
 1221 004c 1340     		ands	r3, r2
 1222 004e 1843     		orrs	r0, r3
 691:Generated_Source\PSoC6\pdl\drivers\peripheral\prot/cy_prot.c ****                     | _VAL2FLD(PERI_PPU_PR_ATT1_NS, !(config->secure))
 1223              		.loc 1 691 0
 1224 0050 237A     		ldrb	r3, [r4, #8]
 1225 0052 0122     		movs	r2, #1
 1226 0054 5A40     		eors	r2, r3
ARM GAS  C:\Users\gjl\AppData\Local\Temp\cc7xIfgu.s 			page 35


 1227 0056 D2B2     		uxtb	r2, r2
 1228 0058 9201     		lsls	r2, r2, #6
 1229 005a 4023     		movs	r3, #64
 1230 005c 1A40     		ands	r2, r3
 1231 005e 0300     		movs	r3, r0
 1232 0060 1343     		orrs	r3, r2
 692:Generated_Source\PSoC6\pdl\drivers\peripheral\prot/cy_prot.c ****                     | _VAL2FLD(PERI_PPU_PR_ATT1_PC_MASK_15_TO_1, config->pcMask)
 1233              		.loc 1 692 0
 1234 0062 4902     		lsls	r1, r1, #9
 1235 0064 124A     		ldr	r2, .L115+16
 1236 0066 1140     		ands	r1, r2
 1237 0068 1943     		orrs	r1, r3
 693:Generated_Source\PSoC6\pdl\drivers\peripheral\prot/cy_prot.c ****                     /* No region size - read only for master structs */
 694:Generated_Source\PSoC6\pdl\drivers\peripheral\prot/cy_prot.c ****                     | _VAL2FLD(PERI_PPU_PR_ATT1_PC_MATCH, config->pcMatch);
 1238              		.loc 1 694 0
 1239 006a 637A     		ldrb	r3, [r4, #9]
 1240 006c 9B07     		lsls	r3, r3, #30
 1241 006e 8020     		movs	r0, #128
 1242 0070 C005     		lsls	r0, r0, #23
 1243 0072 0340     		ands	r3, r0
 1244 0074 1A00     		movs	r2, r3
 689:Generated_Source\PSoC6\pdl\drivers\peripheral\prot/cy_prot.c ****                     | (uint32_t)(((uint32_t)config->privPermission & CY_PROT_ATT_PERMISSION_MASK) <
 1245              		.loc 1 689 0
 1246 0076 0B00     		movs	r3, r1
 1247 0078 1343     		orrs	r3, r2
 1248              	.LVL96:
 695:Generated_Source\PSoC6\pdl\drivers\peripheral\prot/cy_prot.c ****         if ((attReg & CY_PROT_PPU_PROG_ATT1_MASK) != attReg)
 1249              		.loc 1 695 0
 1250 007a 0E4A     		ldr	r2, .L115+20
 1251 007c 1A40     		ands	r2, r3
 1252 007e 9342     		cmp	r3, r2
 1253 0080 09D1     		bne	.L113
 696:Generated_Source\PSoC6\pdl\drivers\peripheral\prot/cy_prot.c ****         {
 697:Generated_Source\PSoC6\pdl\drivers\peripheral\prot/cy_prot.c ****             /* Invalid parameter was passed */
 698:Generated_Source\PSoC6\pdl\drivers\peripheral\prot/cy_prot.c ****             status = CY_PROT_BAD_PARAM;
 699:Generated_Source\PSoC6\pdl\drivers\peripheral\prot/cy_prot.c ****         }
 700:Generated_Source\PSoC6\pdl\drivers\peripheral\prot/cy_prot.c ****         else
 701:Generated_Source\PSoC6\pdl\drivers\peripheral\prot/cy_prot.c ****         {
 702:Generated_Source\PSoC6\pdl\drivers\peripheral\prot/cy_prot.c ****             base->ATT1 = attReg;
 1254              		.loc 1 702 0
 1255 0082 6B62     		str	r3, [r5, #36]
 703:Generated_Source\PSoC6\pdl\drivers\peripheral\prot/cy_prot.c ****             status = ((base->ATT1 & CY_PROT_PPU_PROG_ATT1_MASK) != attReg) ? CY_PROT_FAILURE : CY_P
 1256              		.loc 1 703 0
 1257 0084 696A     		ldr	r1, [r5, #36]
 1258 0086 0B4A     		ldr	r2, .L115+20
 1259 0088 0A40     		ands	r2, r1
 1260 008a 9342     		cmp	r3, r2
 1261 008c 05D0     		beq	.L114
 1262 008e 0A48     		ldr	r0, .L115+24
 1263 0090 04E0     		b	.L111
 1264              	.LVL97:
 1265              	.L112:
 684:Generated_Source\PSoC6\pdl\drivers\peripheral\prot/cy_prot.c ****     }
 1266              		.loc 1 684 0
 1267 0092 0A48     		ldr	r0, .L115+28
 1268 0094 02E0     		b	.L111
 1269              	.LVL98:
ARM GAS  C:\Users\gjl\AppData\Local\Temp\cc7xIfgu.s 			page 36


 1270              	.L113:
 698:Generated_Source\PSoC6\pdl\drivers\peripheral\prot/cy_prot.c ****         }
 1271              		.loc 1 698 0
 1272 0096 0948     		ldr	r0, .L115+28
 1273 0098 00E0     		b	.L111
 1274              	.L114:
 1275              		.loc 1 703 0
 1276 009a 0020     		movs	r0, #0
 1277              	.LVL99:
 1278              	.L111:
 704:Generated_Source\PSoC6\pdl\drivers\peripheral\prot/cy_prot.c ****         }
 705:Generated_Source\PSoC6\pdl\drivers\peripheral\prot/cy_prot.c ****     }
 706:Generated_Source\PSoC6\pdl\drivers\peripheral\prot/cy_prot.c **** 
 707:Generated_Source\PSoC6\pdl\drivers\peripheral\prot/cy_prot.c ****     return status;
 708:Generated_Source\PSoC6\pdl\drivers\peripheral\prot/cy_prot.c **** }
 1279              		.loc 1 708 0
 1280              		@ sp needed
 1281              	.LVL100:
 1282              	.LVL101:
 1283 009c 70BD     		pop	{r4, r5, r6, pc}
 1284              	.L116:
 1285 009e C046     		.align	2
 1286              	.L115:
 1287 00a0 A5020000 		.word	677
 1288 00a4 00000000 		.word	.LC0
 1289 00a8 A6020000 		.word	678
 1290 00ac A7020000 		.word	679
 1291 00b0 00FEFF00 		.word	16776704
 1292 00b4 DBFEFFE0 		.word	-520093989
 1293 00b8 0300C200 		.word	12713987
 1294 00bc 0100C200 		.word	12713985
 1295              		.cfi_endproc
 1296              	.LFE48:
 1297              		.size	Cy_Prot_ConfigPpuProgMasterStruct, .-Cy_Prot_ConfigPpuProgMasterStruct
 1298              		.section	.text.Cy_Prot_ConfigPpuProgSlaveStruct,"ax",%progbits
 1299              		.align	2
 1300              		.global	Cy_Prot_ConfigPpuProgSlaveStruct
 1301              		.code	16
 1302              		.thumb_func
 1303              		.type	Cy_Prot_ConfigPpuProgSlaveStruct, %function
 1304              	Cy_Prot_ConfigPpuProgSlaveStruct:
 1305              	.LFB49:
 709:Generated_Source\PSoC6\pdl\drivers\peripheral\prot/cy_prot.c **** 
 710:Generated_Source\PSoC6\pdl\drivers\peripheral\prot/cy_prot.c **** /*******************************************************************************
 711:Generated_Source\PSoC6\pdl\drivers\peripheral\prot/cy_prot.c **** * Function Name: Cy_Prot_ConfigPpuProgSlaveStruct
 712:Generated_Source\PSoC6\pdl\drivers\peripheral\prot/cy_prot.c **** ****************************************************************************//**
 713:Generated_Source\PSoC6\pdl\drivers\peripheral\prot/cy_prot.c **** *
 714:Generated_Source\PSoC6\pdl\drivers\peripheral\prot/cy_prot.c **** * \brief Configures a Programmable Peripheral Protection Unit (PPU PROG) slave
 715:Generated_Source\PSoC6\pdl\drivers\peripheral\prot/cy_prot.c **** * protection struct with its protection attributes. 
 716:Generated_Source\PSoC6\pdl\drivers\peripheral\prot/cy_prot.c **** * 
 717:Generated_Source\PSoC6\pdl\drivers\peripheral\prot/cy_prot.c **** * This function configures the slave struct of a PPU PROG pair, which can 
 718:Generated_Source\PSoC6\pdl\drivers\peripheral\prot/cy_prot.c **** * protect any peripheral memory region in a device from invalid bus master 
 719:Generated_Source\PSoC6\pdl\drivers\peripheral\prot/cy_prot.c **** * accesses.
 720:Generated_Source\PSoC6\pdl\drivers\peripheral\prot/cy_prot.c **** *
 721:Generated_Source\PSoC6\pdl\drivers\peripheral\prot/cy_prot.c **** * Note that the user/privileged execute accesses are read-only and are always 
 722:Generated_Source\PSoC6\pdl\drivers\peripheral\prot/cy_prot.c **** * enabled. 
 723:Generated_Source\PSoC6\pdl\drivers\peripheral\prot/cy_prot.c **** *
ARM GAS  C:\Users\gjl\AppData\Local\Temp\cc7xIfgu.s 			page 37


 724:Generated_Source\PSoC6\pdl\drivers\peripheral\prot/cy_prot.c **** * \param base
 725:Generated_Source\PSoC6\pdl\drivers\peripheral\prot/cy_prot.c **** * The register base address of the protection structure being configured.
 726:Generated_Source\PSoC6\pdl\drivers\peripheral\prot/cy_prot.c **** * 
 727:Generated_Source\PSoC6\pdl\drivers\peripheral\prot/cy_prot.c **** * \param config
 728:Generated_Source\PSoC6\pdl\drivers\peripheral\prot/cy_prot.c **** * Initialization structure with all the protection attributes.
 729:Generated_Source\PSoC6\pdl\drivers\peripheral\prot/cy_prot.c **** * 
 730:Generated_Source\PSoC6\pdl\drivers\peripheral\prot/cy_prot.c **** * \return
 731:Generated_Source\PSoC6\pdl\drivers\peripheral\prot/cy_prot.c **** * Status of the function call.
 732:Generated_Source\PSoC6\pdl\drivers\peripheral\prot/cy_prot.c **** *
 733:Generated_Source\PSoC6\pdl\drivers\peripheral\prot/cy_prot.c **** *   Status               | Description
 734:Generated_Source\PSoC6\pdl\drivers\peripheral\prot/cy_prot.c **** *   ------------         | -----------
 735:Generated_Source\PSoC6\pdl\drivers\peripheral\prot/cy_prot.c **** *   CY_PROT_SUCCESS      | PPU PROG slave struct was successfully configured
 736:Generated_Source\PSoC6\pdl\drivers\peripheral\prot/cy_prot.c **** *   CY_PROT_FAILURE      | The resource is locked
 737:Generated_Source\PSoC6\pdl\drivers\peripheral\prot/cy_prot.c **** *   CY_PROT_BAD_PARAM    | An incorrect/invalid parameter was passed
 738:Generated_Source\PSoC6\pdl\drivers\peripheral\prot/cy_prot.c **** *
 739:Generated_Source\PSoC6\pdl\drivers\peripheral\prot/cy_prot.c **** * \funcusage
 740:Generated_Source\PSoC6\pdl\drivers\peripheral\prot/cy_prot.c **** * \snippet prot/prot_v1_10_sut_01.cydsn/main_cm4.c snippet_Cy_Prot_ConfigPpuProgSlaveStruct
 741:Generated_Source\PSoC6\pdl\drivers\peripheral\prot/cy_prot.c **** *
 742:Generated_Source\PSoC6\pdl\drivers\peripheral\prot/cy_prot.c **** *******************************************************************************/
 743:Generated_Source\PSoC6\pdl\drivers\peripheral\prot/cy_prot.c **** cy_en_prot_status_t Cy_Prot_ConfigPpuProgSlaveStruct(PERI_PPU_PR_Type* base, const cy_stc_ppu_prog_
 744:Generated_Source\PSoC6\pdl\drivers\peripheral\prot/cy_prot.c **** {
 1306              		.loc 1 744 0
 1307              		.cfi_startproc
 1308              		@ args = 0, pretend = 0, frame = 0
 1309              		@ frame_needed = 0, uses_anonymous_args = 0
 1310              	.LVL102:
 1311 0000 F8B5     		push	{r3, r4, r5, r6, r7, lr}
 1312              		.cfi_def_cfa_offset 24
 1313              		.cfi_offset 3, -24
 1314              		.cfi_offset 4, -20
 1315              		.cfi_offset 5, -16
 1316              		.cfi_offset 6, -12
 1317              		.cfi_offset 7, -8
 1318              		.cfi_offset 14, -4
 1319 0002 0500     		movs	r5, r0
 1320 0004 0C00     		movs	r4, r1
 745:Generated_Source\PSoC6\pdl\drivers\peripheral\prot/cy_prot.c ****     cy_en_prot_status_t status;
 746:Generated_Source\PSoC6\pdl\drivers\peripheral\prot/cy_prot.c ****     uint32_t addrReg;
 747:Generated_Source\PSoC6\pdl\drivers\peripheral\prot/cy_prot.c ****     uint32_t attReg;
 748:Generated_Source\PSoC6\pdl\drivers\peripheral\prot/cy_prot.c ****     
 749:Generated_Source\PSoC6\pdl\drivers\peripheral\prot/cy_prot.c ****     CY_ASSERT_L1(NULL != base);
 1321              		.loc 1 749 0
 1322 0006 0028     		cmp	r0, #0
 1323 0008 03D1     		bne	.L118
 1324              		.loc 1 749 0 is_stmt 0 discriminator 1
 1325 000a 3249     		ldr	r1, .L127
 1326              	.LVL103:
 1327 000c 3248     		ldr	r0, .L127+4
 1328              	.LVL104:
 1329 000e FFF7FEFF 		bl	Cy_SysLib_AssertFailed
 1330              	.LVL105:
 1331              	.L118:
 750:Generated_Source\PSoC6\pdl\drivers\peripheral\prot/cy_prot.c ****     CY_ASSERT_L3(CY_PROT_IS_PROG_SL_PERM_VALID(config->userPermission));
 1332              		.loc 1 750 0 is_stmt 1
 1333 0012 A379     		ldrb	r3, [r4, #6]
 1334 0014 032B     		cmp	r3, #3
 1335 0016 03D9     		bls	.L119
ARM GAS  C:\Users\gjl\AppData\Local\Temp\cc7xIfgu.s 			page 38


 1336              		.loc 1 750 0 is_stmt 0 discriminator 1
 1337 0018 3049     		ldr	r1, .L127+8
 1338 001a 2F48     		ldr	r0, .L127+4
 1339 001c FFF7FEFF 		bl	Cy_SysLib_AssertFailed
 1340              	.LVL106:
 1341              	.L119:
 751:Generated_Source\PSoC6\pdl\drivers\peripheral\prot/cy_prot.c ****     CY_ASSERT_L3(CY_PROT_IS_PROG_SL_PERM_VALID(config->privPermission));
 1342              		.loc 1 751 0 is_stmt 1
 1343 0020 E379     		ldrb	r3, [r4, #7]
 1344 0022 032B     		cmp	r3, #3
 1345 0024 03D9     		bls	.L120
 1346              		.loc 1 751 0 is_stmt 0 discriminator 1
 1347 0026 2E49     		ldr	r1, .L127+12
 1348 0028 2B48     		ldr	r0, .L127+4
 1349 002a FFF7FEFF 		bl	Cy_SysLib_AssertFailed
 1350              	.LVL107:
 1351              	.L120:
 752:Generated_Source\PSoC6\pdl\drivers\peripheral\prot/cy_prot.c ****     CY_ASSERT_L3(CY_PROT_IS_REGION_SIZE_VALID(config->regionSize));
 1352              		.loc 1 752 0 is_stmt 1
 1353 002e 2379     		ldrb	r3, [r4, #4]
 1354 0030 073B     		subs	r3, r3, #7
 1355 0032 DBB2     		uxtb	r3, r3
 1356 0034 182B     		cmp	r3, #24
 1357 0036 04D9     		bls	.L121
 1358              		.loc 1 752 0 is_stmt 0 discriminator 1
 1359 0038 BC21     		movs	r1, #188
 1360 003a 8900     		lsls	r1, r1, #2
 1361 003c 2648     		ldr	r0, .L127+4
 1362 003e FFF7FEFF 		bl	Cy_SysLib_AssertFailed
 1363              	.LVL108:
 1364              	.L121:
 753:Generated_Source\PSoC6\pdl\drivers\peripheral\prot/cy_prot.c **** 
 754:Generated_Source\PSoC6\pdl\drivers\peripheral\prot/cy_prot.c ****     if(((uint32_t)config->pcMask & CY_PROT_PPU_PROG_PC_LIMIT_MASK) != 0UL) 
 1365              		.loc 1 754 0 is_stmt 1
 1366 0042 6189     		ldrh	r1, [r4, #10]
 1367 0044 7F23     		movs	r3, #127
 1368 0046 0A00     		movs	r2, r1
 1369 0048 9A43     		bics	r2, r3
 1370 004a 131E     		subs	r3, r2, #0
 1371 004c 39D1     		bne	.L123
 755:Generated_Source\PSoC6\pdl\drivers\peripheral\prot/cy_prot.c ****     {
 756:Generated_Source\PSoC6\pdl\drivers\peripheral\prot/cy_prot.c ****         /* PC mask out of range - not supported in device */
 757:Generated_Source\PSoC6\pdl\drivers\peripheral\prot/cy_prot.c ****         status = CY_PROT_BAD_PARAM;
 758:Generated_Source\PSoC6\pdl\drivers\peripheral\prot/cy_prot.c ****     }
 759:Generated_Source\PSoC6\pdl\drivers\peripheral\prot/cy_prot.c ****     else
 760:Generated_Source\PSoC6\pdl\drivers\peripheral\prot/cy_prot.c ****     {
 761:Generated_Source\PSoC6\pdl\drivers\peripheral\prot/cy_prot.c ****         addrReg= _VAL2FLD(PERI_PPU_PR_ADDR0_SUBREGION_DISABLE, config->subregions)
 1372              		.loc 1 761 0
 1373 004e 6679     		ldrb	r6, [r4, #5]
 762:Generated_Source\PSoC6\pdl\drivers\peripheral\prot/cy_prot.c ****                     | _VAL2FLD(PERI_PPU_PR_ADDR0_ADDR24, (uint32_t)((uint32_t)config->address >> CY
 1374              		.loc 1 762 0
 1375 0050 FF33     		adds	r3, r3, #255
 1376 0052 2268     		ldr	r2, [r4]
 1377 0054 9A43     		bics	r2, r3
 761:Generated_Source\PSoC6\pdl\drivers\peripheral\prot/cy_prot.c ****                     | _VAL2FLD(PERI_PPU_PR_ADDR0_ADDR24, (uint32_t)((uint32_t)config->address >> CY
 1378              		.loc 1 761 0
 1379 0056 1643     		orrs	r6, r2
ARM GAS  C:\Users\gjl\AppData\Local\Temp\cc7xIfgu.s 			page 39


 1380              	.LVL109:
 763:Generated_Source\PSoC6\pdl\drivers\peripheral\prot/cy_prot.c ****         attReg= ((uint32_t)config->userPermission & CY_PROT_ATT_PERMISSION_MASK)
 1381              		.loc 1 763 0
 1382 0058 A379     		ldrb	r3, [r4, #6]
 1383 005a 0720     		movs	r0, #7
 1384 005c 1840     		ands	r0, r3
 764:Generated_Source\PSoC6\pdl\drivers\peripheral\prot/cy_prot.c ****                     | (uint32_t)(((uint32_t)config->privPermission & CY_PROT_ATT_PERMISSION_MASK) <
 1385              		.loc 1 764 0
 1386 005e E279     		ldrb	r2, [r4, #7]
 1387 0060 D200     		lsls	r2, r2, #3
 1388 0062 3823     		movs	r3, #56
 1389 0064 1340     		ands	r3, r2
 1390 0066 1843     		orrs	r0, r3
 765:Generated_Source\PSoC6\pdl\drivers\peripheral\prot/cy_prot.c ****                     | _VAL2FLD(PERI_PPU_PR_ATT0_NS, !(config->secure))
 1391              		.loc 1 765 0
 1392 0068 237A     		ldrb	r3, [r4, #8]
 1393 006a 0122     		movs	r2, #1
 1394 006c 5A40     		eors	r2, r3
 1395 006e D2B2     		uxtb	r2, r2
 1396 0070 9201     		lsls	r2, r2, #6
 1397 0072 4023     		movs	r3, #64
 1398 0074 1A40     		ands	r2, r3
 1399 0076 0300     		movs	r3, r0
 1400 0078 1343     		orrs	r3, r2
 766:Generated_Source\PSoC6\pdl\drivers\peripheral\prot/cy_prot.c ****                     | _VAL2FLD(PERI_PPU_PR_ATT0_PC_MASK_15_TO_1, config->pcMask)
 1401              		.loc 1 766 0
 1402 007a 4902     		lsls	r1, r1, #9
 1403 007c 194A     		ldr	r2, .L127+16
 1404 007e 1140     		ands	r1, r2
 1405 0080 0B43     		orrs	r3, r1
 767:Generated_Source\PSoC6\pdl\drivers\peripheral\prot/cy_prot.c ****                     | _VAL2FLD(PERI_PPU_PR_ATT0_REGION_SIZE, config->regionSize)
 1406              		.loc 1 767 0
 1407 0082 2179     		ldrb	r1, [r4, #4]
 1408 0084 0906     		lsls	r1, r1, #24
 1409 0086 F820     		movs	r0, #248
 1410 0088 4005     		lsls	r0, r0, #21
 1411 008a 0A00     		movs	r2, r1
 1412 008c 0240     		ands	r2, r0
 1413 008e 1343     		orrs	r3, r2
 1414 0090 1900     		movs	r1, r3
 768:Generated_Source\PSoC6\pdl\drivers\peripheral\prot/cy_prot.c ****                     | _VAL2FLD(PERI_PPU_PR_ATT0_PC_MATCH, config->pcMatch);
 1415              		.loc 1 768 0
 1416 0092 637A     		ldrb	r3, [r4, #9]
 1417 0094 9B07     		lsls	r3, r3, #30
 1418 0096 8020     		movs	r0, #128
 1419 0098 C005     		lsls	r0, r0, #23
 1420 009a 0340     		ands	r3, r0
 1421 009c 1A00     		movs	r2, r3
 763:Generated_Source\PSoC6\pdl\drivers\peripheral\prot/cy_prot.c ****                     | (uint32_t)(((uint32_t)config->privPermission & CY_PROT_ATT_PERMISSION_MASK) <
 1422              		.loc 1 763 0
 1423 009e 0B00     		movs	r3, r1
 1424 00a0 1343     		orrs	r3, r2
 1425              	.LVL110:
 769:Generated_Source\PSoC6\pdl\drivers\peripheral\prot/cy_prot.c ****         if ((attReg & CY_PROT_PPU_PROG_ATT0_MASK) != attReg)
 1426              		.loc 1 769 0
 1427 00a2 114A     		ldr	r2, .L127+20
 1428 00a4 1A40     		ands	r2, r3
ARM GAS  C:\Users\gjl\AppData\Local\Temp\cc7xIfgu.s 			page 40


 1429 00a6 9342     		cmp	r3, r2
 1430 00a8 0DD1     		bne	.L124
 770:Generated_Source\PSoC6\pdl\drivers\peripheral\prot/cy_prot.c ****         {
 771:Generated_Source\PSoC6\pdl\drivers\peripheral\prot/cy_prot.c ****             /* Invalid parameter was passed */
 772:Generated_Source\PSoC6\pdl\drivers\peripheral\prot/cy_prot.c ****             status = CY_PROT_BAD_PARAM;
 773:Generated_Source\PSoC6\pdl\drivers\peripheral\prot/cy_prot.c ****         }
 774:Generated_Source\PSoC6\pdl\drivers\peripheral\prot/cy_prot.c ****         else
 775:Generated_Source\PSoC6\pdl\drivers\peripheral\prot/cy_prot.c ****         {
 776:Generated_Source\PSoC6\pdl\drivers\peripheral\prot/cy_prot.c ****             base->ATT0 = attReg;
 1431              		.loc 1 776 0
 1432 00aa 6B60     		str	r3, [r5, #4]
 777:Generated_Source\PSoC6\pdl\drivers\peripheral\prot/cy_prot.c ****             base->ADDR0 = addrReg;
 1433              		.loc 1 777 0
 1434 00ac 2E60     		str	r6, [r5]
 778:Generated_Source\PSoC6\pdl\drivers\peripheral\prot/cy_prot.c ****             status = ((base->ADDR0 != addrReg) || ((base->ATT0 & CY_PROT_PPU_PROG_ATT0_MASK) != att
 1435              		.loc 1 778 0
 1436 00ae 2A68     		ldr	r2, [r5]
 1437 00b0 9642     		cmp	r6, r2
 1438 00b2 0AD1     		bne	.L125
 1439              		.loc 1 778 0 is_stmt 0 discriminator 2
 1440 00b4 6968     		ldr	r1, [r5, #4]
 1441 00b6 0C4A     		ldr	r2, .L127+20
 1442 00b8 0A40     		ands	r2, r1
 1443 00ba 9342     		cmp	r3, r2
 1444 00bc 07D0     		beq	.L126
 1445              		.loc 1 778 0
 1446 00be 0B48     		ldr	r0, .L127+24
 1447 00c0 06E0     		b	.L122
 1448              	.LVL111:
 1449              	.L123:
 757:Generated_Source\PSoC6\pdl\drivers\peripheral\prot/cy_prot.c ****     }
 1450              		.loc 1 757 0 is_stmt 1
 1451 00c2 0B48     		ldr	r0, .L127+28
 1452 00c4 04E0     		b	.L122
 1453              	.LVL112:
 1454              	.L124:
 772:Generated_Source\PSoC6\pdl\drivers\peripheral\prot/cy_prot.c ****         }
 1455              		.loc 1 772 0
 1456 00c6 0A48     		ldr	r0, .L127+28
 1457 00c8 02E0     		b	.L122
 1458              	.L125:
 1459              		.loc 1 778 0
 1460 00ca 0848     		ldr	r0, .L127+24
 1461 00cc 00E0     		b	.L122
 1462              	.L126:
 1463 00ce 0020     		movs	r0, #0
 1464              	.LVL113:
 1465              	.L122:
 779:Generated_Source\PSoC6\pdl\drivers\peripheral\prot/cy_prot.c ****                         ? CY_PROT_FAILURE : CY_PROT_SUCCESS;
 780:Generated_Source\PSoC6\pdl\drivers\peripheral\prot/cy_prot.c ****         }
 781:Generated_Source\PSoC6\pdl\drivers\peripheral\prot/cy_prot.c ****     }
 782:Generated_Source\PSoC6\pdl\drivers\peripheral\prot/cy_prot.c ****     
 783:Generated_Source\PSoC6\pdl\drivers\peripheral\prot/cy_prot.c ****     return status;
 784:Generated_Source\PSoC6\pdl\drivers\peripheral\prot/cy_prot.c **** }
 1466              		.loc 1 784 0
 1467              		@ sp needed
 1468              	.LVL114:
ARM GAS  C:\Users\gjl\AppData\Local\Temp\cc7xIfgu.s 			page 41


 1469              	.LVL115:
 1470 00d0 F8BD     		pop	{r3, r4, r5, r6, r7, pc}
 1471              	.L128:
 1472 00d2 C046     		.align	2
 1473              	.L127:
 1474 00d4 ED020000 		.word	749
 1475 00d8 00000000 		.word	.LC0
 1476 00dc EE020000 		.word	750
 1477 00e0 EF020000 		.word	751
 1478 00e4 00FEFF00 		.word	16776704
 1479 00e8 DBFEFFFF 		.word	-293
 1480 00ec 0300C200 		.word	12713987
 1481 00f0 0100C200 		.word	12713985
 1482              		.cfi_endproc
 1483              	.LFE49:
 1484              		.size	Cy_Prot_ConfigPpuProgSlaveStruct, .-Cy_Prot_ConfigPpuProgSlaveStruct
 1485              		.section	.text.Cy_Prot_EnablePpuProgMasterStruct,"ax",%progbits
 1486              		.align	2
 1487              		.global	Cy_Prot_EnablePpuProgMasterStruct
 1488              		.code	16
 1489              		.thumb_func
 1490              		.type	Cy_Prot_EnablePpuProgMasterStruct, %function
 1491              	Cy_Prot_EnablePpuProgMasterStruct:
 1492              	.LFB50:
 785:Generated_Source\PSoC6\pdl\drivers\peripheral\prot/cy_prot.c **** 
 786:Generated_Source\PSoC6\pdl\drivers\peripheral\prot/cy_prot.c **** 
 787:Generated_Source\PSoC6\pdl\drivers\peripheral\prot/cy_prot.c **** /*******************************************************************************
 788:Generated_Source\PSoC6\pdl\drivers\peripheral\prot/cy_prot.c **** * Function Name: Cy_Prot_EnablePpuProgMasterStruct
 789:Generated_Source\PSoC6\pdl\drivers\peripheral\prot/cy_prot.c **** ****************************************************************************//**
 790:Generated_Source\PSoC6\pdl\drivers\peripheral\prot/cy_prot.c **** *
 791:Generated_Source\PSoC6\pdl\drivers\peripheral\prot/cy_prot.c **** * \brief Enables the Master PPU PROG structure.
 792:Generated_Source\PSoC6\pdl\drivers\peripheral\prot/cy_prot.c **** *
 793:Generated_Source\PSoC6\pdl\drivers\peripheral\prot/cy_prot.c **** * This is a PPU PROG master struct enable function. The PPU PROG protection 
 794:Generated_Source\PSoC6\pdl\drivers\peripheral\prot/cy_prot.c **** * settings will take effect after successful completion of this function call.
 795:Generated_Source\PSoC6\pdl\drivers\peripheral\prot/cy_prot.c **** *
 796:Generated_Source\PSoC6\pdl\drivers\peripheral\prot/cy_prot.c **** * \param base
 797:Generated_Source\PSoC6\pdl\drivers\peripheral\prot/cy_prot.c **** * The base address for the protection unit structure being configured. 
 798:Generated_Source\PSoC6\pdl\drivers\peripheral\prot/cy_prot.c **** *
 799:Generated_Source\PSoC6\pdl\drivers\peripheral\prot/cy_prot.c **** * \return
 800:Generated_Source\PSoC6\pdl\drivers\peripheral\prot/cy_prot.c **** * Status of the function call.
 801:Generated_Source\PSoC6\pdl\drivers\peripheral\prot/cy_prot.c **** *
 802:Generated_Source\PSoC6\pdl\drivers\peripheral\prot/cy_prot.c **** *   Status               | Description
 803:Generated_Source\PSoC6\pdl\drivers\peripheral\prot/cy_prot.c **** *   ------------         | -----------
 804:Generated_Source\PSoC6\pdl\drivers\peripheral\prot/cy_prot.c **** *   CY_PROT_SUCCESS      | The Master PU struct was enabled
 805:Generated_Source\PSoC6\pdl\drivers\peripheral\prot/cy_prot.c **** *   CY_PROT_FAILURE      | The Master PU struct is disabled and possibly locked
 806:Generated_Source\PSoC6\pdl\drivers\peripheral\prot/cy_prot.c **** *
 807:Generated_Source\PSoC6\pdl\drivers\peripheral\prot/cy_prot.c **** * \funcusage
 808:Generated_Source\PSoC6\pdl\drivers\peripheral\prot/cy_prot.c **** * \snippet prot/prot_v1_10_sut_01.cydsn/main_cm4.c snippet_Cy_Prot_EnablePpuProgMasterStruct
 809:Generated_Source\PSoC6\pdl\drivers\peripheral\prot/cy_prot.c **** *
 810:Generated_Source\PSoC6\pdl\drivers\peripheral\prot/cy_prot.c **** *******************************************************************************/
 811:Generated_Source\PSoC6\pdl\drivers\peripheral\prot/cy_prot.c **** cy_en_prot_status_t Cy_Prot_EnablePpuProgMasterStruct(PERI_PPU_PR_Type* base)
 812:Generated_Source\PSoC6\pdl\drivers\peripheral\prot/cy_prot.c **** {
 1493              		.loc 1 812 0
 1494              		.cfi_startproc
 1495              		@ args = 0, pretend = 0, frame = 0
 1496              		@ frame_needed = 0, uses_anonymous_args = 0
 1497              		@ link register save eliminated.
ARM GAS  C:\Users\gjl\AppData\Local\Temp\cc7xIfgu.s 			page 42


 1498              	.LVL116:
 813:Generated_Source\PSoC6\pdl\drivers\peripheral\prot/cy_prot.c ****     cy_en_prot_status_t status;
 814:Generated_Source\PSoC6\pdl\drivers\peripheral\prot/cy_prot.c ****     
 815:Generated_Source\PSoC6\pdl\drivers\peripheral\prot/cy_prot.c ****     base->ATT1 |= _VAL2FLD(PERI_PPU_PR_ATT1_ENABLED, CY_PROT_STRUCT_ENABLE);
 1499              		.loc 1 815 0
 1500 0000 436A     		ldr	r3, [r0, #36]
 1501 0002 8022     		movs	r2, #128
 1502 0004 1206     		lsls	r2, r2, #24
 1503 0006 1343     		orrs	r3, r2
 1504 0008 4362     		str	r3, [r0, #36]
 816:Generated_Source\PSoC6\pdl\drivers\peripheral\prot/cy_prot.c ****     status = (_FLD2VAL(PERI_PPU_PR_ATT1_ENABLED, base->ATT1) != CY_PROT_STRUCT_ENABLE) ?
 1505              		.loc 1 816 0
 1506 000a 436A     		ldr	r3, [r0, #36]
 1507 000c 002B     		cmp	r3, #0
 1508 000e 01DB     		blt	.L131
 1509 0010 0148     		ldr	r0, .L132
 1510              	.LVL117:
 1511 0012 00E0     		b	.L130
 1512              	.LVL118:
 1513              	.L131:
 1514 0014 0020     		movs	r0, #0
 1515              	.LVL119:
 1516              	.L130:
 817:Generated_Source\PSoC6\pdl\drivers\peripheral\prot/cy_prot.c ****                 CY_PROT_FAILURE : CY_PROT_SUCCESS;
 818:Generated_Source\PSoC6\pdl\drivers\peripheral\prot/cy_prot.c ****     
 819:Generated_Source\PSoC6\pdl\drivers\peripheral\prot/cy_prot.c ****     return status;
 820:Generated_Source\PSoC6\pdl\drivers\peripheral\prot/cy_prot.c **** }
 1517              		.loc 1 820 0 discriminator 4
 1518              		@ sp needed
 1519 0016 7047     		bx	lr
 1520              	.L133:
 1521              		.align	2
 1522              	.L132:
 1523 0018 0300C200 		.word	12713987
 1524              		.cfi_endproc
 1525              	.LFE50:
 1526              		.size	Cy_Prot_EnablePpuProgMasterStruct, .-Cy_Prot_EnablePpuProgMasterStruct
 1527              		.section	.text.Cy_Prot_DisablePpuProgMasterStruct,"ax",%progbits
 1528              		.align	2
 1529              		.global	Cy_Prot_DisablePpuProgMasterStruct
 1530              		.code	16
 1531              		.thumb_func
 1532              		.type	Cy_Prot_DisablePpuProgMasterStruct, %function
 1533              	Cy_Prot_DisablePpuProgMasterStruct:
 1534              	.LFB51:
 821:Generated_Source\PSoC6\pdl\drivers\peripheral\prot/cy_prot.c **** 
 822:Generated_Source\PSoC6\pdl\drivers\peripheral\prot/cy_prot.c **** 
 823:Generated_Source\PSoC6\pdl\drivers\peripheral\prot/cy_prot.c **** /*******************************************************************************
 824:Generated_Source\PSoC6\pdl\drivers\peripheral\prot/cy_prot.c **** * Function Name: Cy_Prot_DisablePpuProgMasterStruct
 825:Generated_Source\PSoC6\pdl\drivers\peripheral\prot/cy_prot.c **** ****************************************************************************//**
 826:Generated_Source\PSoC6\pdl\drivers\peripheral\prot/cy_prot.c **** *
 827:Generated_Source\PSoC6\pdl\drivers\peripheral\prot/cy_prot.c **** * \brief Disables the Master PPU PROG structure.
 828:Generated_Source\PSoC6\pdl\drivers\peripheral\prot/cy_prot.c **** *
 829:Generated_Source\PSoC6\pdl\drivers\peripheral\prot/cy_prot.c **** * This is a PPU PROG master struct disable function. The PPU PROG protection 
 830:Generated_Source\PSoC6\pdl\drivers\peripheral\prot/cy_prot.c **** * settings will seize to take effect after successful completion of this 
 831:Generated_Source\PSoC6\pdl\drivers\peripheral\prot/cy_prot.c **** * function call.
 832:Generated_Source\PSoC6\pdl\drivers\peripheral\prot/cy_prot.c **** *
ARM GAS  C:\Users\gjl\AppData\Local\Temp\cc7xIfgu.s 			page 43


 833:Generated_Source\PSoC6\pdl\drivers\peripheral\prot/cy_prot.c **** * \param base
 834:Generated_Source\PSoC6\pdl\drivers\peripheral\prot/cy_prot.c **** * The base address for the protection unit structure being configured. 
 835:Generated_Source\PSoC6\pdl\drivers\peripheral\prot/cy_prot.c **** *
 836:Generated_Source\PSoC6\pdl\drivers\peripheral\prot/cy_prot.c **** * \return
 837:Generated_Source\PSoC6\pdl\drivers\peripheral\prot/cy_prot.c **** * Status of the function call.
 838:Generated_Source\PSoC6\pdl\drivers\peripheral\prot/cy_prot.c **** *
 839:Generated_Source\PSoC6\pdl\drivers\peripheral\prot/cy_prot.c **** *   Status               | Description
 840:Generated_Source\PSoC6\pdl\drivers\peripheral\prot/cy_prot.c **** *   ------------         | -----------
 841:Generated_Source\PSoC6\pdl\drivers\peripheral\prot/cy_prot.c **** *   CY_PROT_SUCCESS      | The Master PU struct was disabled
 842:Generated_Source\PSoC6\pdl\drivers\peripheral\prot/cy_prot.c **** *   CY_PROT_FAILURE      | The Master PU struct is enabled and possibly locked
 843:Generated_Source\PSoC6\pdl\drivers\peripheral\prot/cy_prot.c **** *
 844:Generated_Source\PSoC6\pdl\drivers\peripheral\prot/cy_prot.c **** * \funcusage
 845:Generated_Source\PSoC6\pdl\drivers\peripheral\prot/cy_prot.c **** * \snippet prot/prot_v1_10_sut_01.cydsn/main_cm4.c snippet_Cy_Prot_DisablePpuProgMasterStruct
 846:Generated_Source\PSoC6\pdl\drivers\peripheral\prot/cy_prot.c **** *
 847:Generated_Source\PSoC6\pdl\drivers\peripheral\prot/cy_prot.c **** *******************************************************************************/
 848:Generated_Source\PSoC6\pdl\drivers\peripheral\prot/cy_prot.c **** cy_en_prot_status_t Cy_Prot_DisablePpuProgMasterStruct(PERI_PPU_PR_Type* base)
 849:Generated_Source\PSoC6\pdl\drivers\peripheral\prot/cy_prot.c **** {
 1535              		.loc 1 849 0
 1536              		.cfi_startproc
 1537              		@ args = 0, pretend = 0, frame = 0
 1538              		@ frame_needed = 0, uses_anonymous_args = 0
 1539              		@ link register save eliminated.
 1540              	.LVL120:
 850:Generated_Source\PSoC6\pdl\drivers\peripheral\prot/cy_prot.c ****     cy_en_prot_status_t status;
 851:Generated_Source\PSoC6\pdl\drivers\peripheral\prot/cy_prot.c ****     
 852:Generated_Source\PSoC6\pdl\drivers\peripheral\prot/cy_prot.c ****     base->ATT1 &= ~_VAL2FLD(PERI_PPU_PR_ATT1_ENABLED, CY_PROT_STRUCT_ENABLE);
 1541              		.loc 1 852 0
 1542 0000 436A     		ldr	r3, [r0, #36]
 1543 0002 5B00     		lsls	r3, r3, #1
 1544 0004 5B08     		lsrs	r3, r3, #1
 1545 0006 4362     		str	r3, [r0, #36]
 853:Generated_Source\PSoC6\pdl\drivers\peripheral\prot/cy_prot.c ****     status = (_FLD2VAL(PERI_PPU_PR_ATT1_ENABLED, base->ATT1) == CY_PROT_STRUCT_ENABLE) ?
 1546              		.loc 1 853 0
 1547 0008 436A     		ldr	r3, [r0, #36]
 1548 000a 002B     		cmp	r3, #0
 1549 000c 01DA     		bge	.L136
 1550 000e 0248     		ldr	r0, .L137
 1551              	.LVL121:
 1552 0010 00E0     		b	.L135
 1553              	.LVL122:
 1554              	.L136:
 1555 0012 0020     		movs	r0, #0
 1556              	.LVL123:
 1557              	.L135:
 854:Generated_Source\PSoC6\pdl\drivers\peripheral\prot/cy_prot.c ****                 CY_PROT_FAILURE : CY_PROT_SUCCESS;
 855:Generated_Source\PSoC6\pdl\drivers\peripheral\prot/cy_prot.c ****     
 856:Generated_Source\PSoC6\pdl\drivers\peripheral\prot/cy_prot.c ****     return status;
 857:Generated_Source\PSoC6\pdl\drivers\peripheral\prot/cy_prot.c **** }
 1558              		.loc 1 857 0 discriminator 4
 1559              		@ sp needed
 1560 0014 7047     		bx	lr
 1561              	.L138:
 1562 0016 C046     		.align	2
 1563              	.L137:
 1564 0018 0300C200 		.word	12713987
 1565              		.cfi_endproc
 1566              	.LFE51:
ARM GAS  C:\Users\gjl\AppData\Local\Temp\cc7xIfgu.s 			page 44


 1567              		.size	Cy_Prot_DisablePpuProgMasterStruct, .-Cy_Prot_DisablePpuProgMasterStruct
 1568              		.section	.text.Cy_Prot_EnablePpuProgSlaveStruct,"ax",%progbits
 1569              		.align	2
 1570              		.global	Cy_Prot_EnablePpuProgSlaveStruct
 1571              		.code	16
 1572              		.thumb_func
 1573              		.type	Cy_Prot_EnablePpuProgSlaveStruct, %function
 1574              	Cy_Prot_EnablePpuProgSlaveStruct:
 1575              	.LFB52:
 858:Generated_Source\PSoC6\pdl\drivers\peripheral\prot/cy_prot.c **** 
 859:Generated_Source\PSoC6\pdl\drivers\peripheral\prot/cy_prot.c **** 
 860:Generated_Source\PSoC6\pdl\drivers\peripheral\prot/cy_prot.c **** /*******************************************************************************
 861:Generated_Source\PSoC6\pdl\drivers\peripheral\prot/cy_prot.c **** * Function Name: Cy_Prot_EnablePpuProgSlaveStruct
 862:Generated_Source\PSoC6\pdl\drivers\peripheral\prot/cy_prot.c **** ****************************************************************************//**
 863:Generated_Source\PSoC6\pdl\drivers\peripheral\prot/cy_prot.c **** *
 864:Generated_Source\PSoC6\pdl\drivers\peripheral\prot/cy_prot.c **** * \brief Enables the Slave PPU PROG structure.
 865:Generated_Source\PSoC6\pdl\drivers\peripheral\prot/cy_prot.c **** *
 866:Generated_Source\PSoC6\pdl\drivers\peripheral\prot/cy_prot.c **** * This is a PPU PROG slave struct enable function. The PPU PROG protection 
 867:Generated_Source\PSoC6\pdl\drivers\peripheral\prot/cy_prot.c **** * settings will take effect after successful completion of this function call.
 868:Generated_Source\PSoC6\pdl\drivers\peripheral\prot/cy_prot.c **** *
 869:Generated_Source\PSoC6\pdl\drivers\peripheral\prot/cy_prot.c **** * \param base
 870:Generated_Source\PSoC6\pdl\drivers\peripheral\prot/cy_prot.c **** * The base address for the protection unit structure being configured. 
 871:Generated_Source\PSoC6\pdl\drivers\peripheral\prot/cy_prot.c **** *
 872:Generated_Source\PSoC6\pdl\drivers\peripheral\prot/cy_prot.c **** * \return
 873:Generated_Source\PSoC6\pdl\drivers\peripheral\prot/cy_prot.c **** * Status of the function call.
 874:Generated_Source\PSoC6\pdl\drivers\peripheral\prot/cy_prot.c **** *
 875:Generated_Source\PSoC6\pdl\drivers\peripheral\prot/cy_prot.c **** *   Status               | Description
 876:Generated_Source\PSoC6\pdl\drivers\peripheral\prot/cy_prot.c **** *   ------------         | -----------
 877:Generated_Source\PSoC6\pdl\drivers\peripheral\prot/cy_prot.c **** *   CY_PROT_SUCCESS      | The Slave PU struct was enabled
 878:Generated_Source\PSoC6\pdl\drivers\peripheral\prot/cy_prot.c **** *   CY_PROT_FAILURE      | The Slave PU struct is disabled and possibly locked
 879:Generated_Source\PSoC6\pdl\drivers\peripheral\prot/cy_prot.c **** *
 880:Generated_Source\PSoC6\pdl\drivers\peripheral\prot/cy_prot.c **** * \funcusage
 881:Generated_Source\PSoC6\pdl\drivers\peripheral\prot/cy_prot.c **** * \snippet prot/prot_v1_10_sut_01.cydsn/main_cm4.c snippet_Cy_Prot_EnablePpuProgSlaveStruct
 882:Generated_Source\PSoC6\pdl\drivers\peripheral\prot/cy_prot.c **** *
 883:Generated_Source\PSoC6\pdl\drivers\peripheral\prot/cy_prot.c **** *******************************************************************************/
 884:Generated_Source\PSoC6\pdl\drivers\peripheral\prot/cy_prot.c **** cy_en_prot_status_t Cy_Prot_EnablePpuProgSlaveStruct(PERI_PPU_PR_Type* base)
 885:Generated_Source\PSoC6\pdl\drivers\peripheral\prot/cy_prot.c **** {   
 1576              		.loc 1 885 0
 1577              		.cfi_startproc
 1578              		@ args = 0, pretend = 0, frame = 0
 1579              		@ frame_needed = 0, uses_anonymous_args = 0
 1580              		@ link register save eliminated.
 1581              	.LVL124:
 886:Generated_Source\PSoC6\pdl\drivers\peripheral\prot/cy_prot.c ****     cy_en_prot_status_t status;
 887:Generated_Source\PSoC6\pdl\drivers\peripheral\prot/cy_prot.c ****     
 888:Generated_Source\PSoC6\pdl\drivers\peripheral\prot/cy_prot.c ****     base->ATT0 |= _VAL2FLD(PERI_PPU_PR_ATT0_ENABLED, CY_PROT_STRUCT_ENABLE);
 1582              		.loc 1 888 0
 1583 0000 4368     		ldr	r3, [r0, #4]
 1584 0002 8022     		movs	r2, #128
 1585 0004 1206     		lsls	r2, r2, #24
 1586 0006 1343     		orrs	r3, r2
 1587 0008 4360     		str	r3, [r0, #4]
 889:Generated_Source\PSoC6\pdl\drivers\peripheral\prot/cy_prot.c ****     status = (_FLD2VAL(PERI_PPU_PR_ATT0_ENABLED, base->ATT0) != CY_PROT_STRUCT_ENABLE) ?
 1588              		.loc 1 889 0
 1589 000a 4368     		ldr	r3, [r0, #4]
 1590 000c 002B     		cmp	r3, #0
 1591 000e 01DB     		blt	.L141
ARM GAS  C:\Users\gjl\AppData\Local\Temp\cc7xIfgu.s 			page 45


 1592 0010 0148     		ldr	r0, .L142
 1593              	.LVL125:
 1594 0012 00E0     		b	.L140
 1595              	.LVL126:
 1596              	.L141:
 1597 0014 0020     		movs	r0, #0
 1598              	.LVL127:
 1599              	.L140:
 890:Generated_Source\PSoC6\pdl\drivers\peripheral\prot/cy_prot.c ****                 CY_PROT_FAILURE : CY_PROT_SUCCESS;
 891:Generated_Source\PSoC6\pdl\drivers\peripheral\prot/cy_prot.c ****     
 892:Generated_Source\PSoC6\pdl\drivers\peripheral\prot/cy_prot.c ****     return status;
 893:Generated_Source\PSoC6\pdl\drivers\peripheral\prot/cy_prot.c **** }
 1600              		.loc 1 893 0 discriminator 4
 1601              		@ sp needed
 1602 0016 7047     		bx	lr
 1603              	.L143:
 1604              		.align	2
 1605              	.L142:
 1606 0018 0300C200 		.word	12713987
 1607              		.cfi_endproc
 1608              	.LFE52:
 1609              		.size	Cy_Prot_EnablePpuProgSlaveStruct, .-Cy_Prot_EnablePpuProgSlaveStruct
 1610              		.section	.text.Cy_Prot_DisablePpuProgSlaveStruct,"ax",%progbits
 1611              		.align	2
 1612              		.global	Cy_Prot_DisablePpuProgSlaveStruct
 1613              		.code	16
 1614              		.thumb_func
 1615              		.type	Cy_Prot_DisablePpuProgSlaveStruct, %function
 1616              	Cy_Prot_DisablePpuProgSlaveStruct:
 1617              	.LFB53:
 894:Generated_Source\PSoC6\pdl\drivers\peripheral\prot/cy_prot.c **** 
 895:Generated_Source\PSoC6\pdl\drivers\peripheral\prot/cy_prot.c **** 
 896:Generated_Source\PSoC6\pdl\drivers\peripheral\prot/cy_prot.c **** /*******************************************************************************
 897:Generated_Source\PSoC6\pdl\drivers\peripheral\prot/cy_prot.c **** * Function Name: Cy_Prot_DisablePpuProgSlaveStruct
 898:Generated_Source\PSoC6\pdl\drivers\peripheral\prot/cy_prot.c **** ****************************************************************************//**
 899:Generated_Source\PSoC6\pdl\drivers\peripheral\prot/cy_prot.c **** *
 900:Generated_Source\PSoC6\pdl\drivers\peripheral\prot/cy_prot.c **** * \brief Disables the Slave PPU PROG structure.
 901:Generated_Source\PSoC6\pdl\drivers\peripheral\prot/cy_prot.c **** *
 902:Generated_Source\PSoC6\pdl\drivers\peripheral\prot/cy_prot.c **** * This is a PPU PROG slave struct disable function. The PPU PROG protection 
 903:Generated_Source\PSoC6\pdl\drivers\peripheral\prot/cy_prot.c **** * settings will seize to take effect after successful completion of this 
 904:Generated_Source\PSoC6\pdl\drivers\peripheral\prot/cy_prot.c **** * function call.
 905:Generated_Source\PSoC6\pdl\drivers\peripheral\prot/cy_prot.c **** *
 906:Generated_Source\PSoC6\pdl\drivers\peripheral\prot/cy_prot.c **** * \param base
 907:Generated_Source\PSoC6\pdl\drivers\peripheral\prot/cy_prot.c **** * The base address for the protection unit structure being configured. 
 908:Generated_Source\PSoC6\pdl\drivers\peripheral\prot/cy_prot.c **** *
 909:Generated_Source\PSoC6\pdl\drivers\peripheral\prot/cy_prot.c **** * \return
 910:Generated_Source\PSoC6\pdl\drivers\peripheral\prot/cy_prot.c **** * Status of the function call.
 911:Generated_Source\PSoC6\pdl\drivers\peripheral\prot/cy_prot.c **** *
 912:Generated_Source\PSoC6\pdl\drivers\peripheral\prot/cy_prot.c **** *   Status               | Description
 913:Generated_Source\PSoC6\pdl\drivers\peripheral\prot/cy_prot.c **** *   ------------         | -----------
 914:Generated_Source\PSoC6\pdl\drivers\peripheral\prot/cy_prot.c **** *   CY_PROT_SUCCESS      | The Slave PU struct was disabled
 915:Generated_Source\PSoC6\pdl\drivers\peripheral\prot/cy_prot.c **** *   CY_PROT_FAILURE      | The Slave PU struct is enabled and possibly locked
 916:Generated_Source\PSoC6\pdl\drivers\peripheral\prot/cy_prot.c **** *
 917:Generated_Source\PSoC6\pdl\drivers\peripheral\prot/cy_prot.c **** * \funcusage
 918:Generated_Source\PSoC6\pdl\drivers\peripheral\prot/cy_prot.c **** * \snippet prot/prot_v1_10_sut_01.cydsn/main_cm4.c snippet_Cy_Prot_DisablePpuProgSlaveStruct
 919:Generated_Source\PSoC6\pdl\drivers\peripheral\prot/cy_prot.c **** *
 920:Generated_Source\PSoC6\pdl\drivers\peripheral\prot/cy_prot.c **** *******************************************************************************/
ARM GAS  C:\Users\gjl\AppData\Local\Temp\cc7xIfgu.s 			page 46


 921:Generated_Source\PSoC6\pdl\drivers\peripheral\prot/cy_prot.c **** cy_en_prot_status_t Cy_Prot_DisablePpuProgSlaveStruct(PERI_PPU_PR_Type* base)
 922:Generated_Source\PSoC6\pdl\drivers\peripheral\prot/cy_prot.c **** {
 1618              		.loc 1 922 0
 1619              		.cfi_startproc
 1620              		@ args = 0, pretend = 0, frame = 0
 1621              		@ frame_needed = 0, uses_anonymous_args = 0
 1622              		@ link register save eliminated.
 1623              	.LVL128:
 923:Generated_Source\PSoC6\pdl\drivers\peripheral\prot/cy_prot.c ****     cy_en_prot_status_t status;
 924:Generated_Source\PSoC6\pdl\drivers\peripheral\prot/cy_prot.c ****     
 925:Generated_Source\PSoC6\pdl\drivers\peripheral\prot/cy_prot.c ****     base->ATT0 &= ~_VAL2FLD(PERI_PPU_PR_ATT0_ENABLED, CY_PROT_STRUCT_ENABLE);
 1624              		.loc 1 925 0
 1625 0000 4368     		ldr	r3, [r0, #4]
 1626 0002 5B00     		lsls	r3, r3, #1
 1627 0004 5B08     		lsrs	r3, r3, #1
 1628 0006 4360     		str	r3, [r0, #4]
 926:Generated_Source\PSoC6\pdl\drivers\peripheral\prot/cy_prot.c ****     status = (_FLD2VAL(PERI_PPU_PR_ATT0_ENABLED, base->ATT0) == CY_PROT_STRUCT_ENABLE) ?
 1629              		.loc 1 926 0
 1630 0008 4368     		ldr	r3, [r0, #4]
 1631 000a 002B     		cmp	r3, #0
 1632 000c 01DA     		bge	.L146
 1633 000e 0248     		ldr	r0, .L147
 1634              	.LVL129:
 1635 0010 00E0     		b	.L145
 1636              	.LVL130:
 1637              	.L146:
 1638 0012 0020     		movs	r0, #0
 1639              	.LVL131:
 1640              	.L145:
 927:Generated_Source\PSoC6\pdl\drivers\peripheral\prot/cy_prot.c ****                 CY_PROT_FAILURE : CY_PROT_SUCCESS;
 928:Generated_Source\PSoC6\pdl\drivers\peripheral\prot/cy_prot.c ****     
 929:Generated_Source\PSoC6\pdl\drivers\peripheral\prot/cy_prot.c ****     return status;
 930:Generated_Source\PSoC6\pdl\drivers\peripheral\prot/cy_prot.c **** }
 1641              		.loc 1 930 0 discriminator 4
 1642              		@ sp needed
 1643 0014 7047     		bx	lr
 1644              	.L148:
 1645 0016 C046     		.align	2
 1646              	.L147:
 1647 0018 0300C200 		.word	12713987
 1648              		.cfi_endproc
 1649              	.LFE53:
 1650              		.size	Cy_Prot_DisablePpuProgSlaveStruct, .-Cy_Prot_DisablePpuProgSlaveStruct
 1651              		.section	.text.Cy_Prot_ConfigPpuFixedGrMasterStruct,"ax",%progbits
 1652              		.align	2
 1653              		.global	Cy_Prot_ConfigPpuFixedGrMasterStruct
 1654              		.code	16
 1655              		.thumb_func
 1656              		.type	Cy_Prot_ConfigPpuFixedGrMasterStruct, %function
 1657              	Cy_Prot_ConfigPpuFixedGrMasterStruct:
 1658              	.LFB54:
 931:Generated_Source\PSoC6\pdl\drivers\peripheral\prot/cy_prot.c **** 
 932:Generated_Source\PSoC6\pdl\drivers\peripheral\prot/cy_prot.c **** 
 933:Generated_Source\PSoC6\pdl\drivers\peripheral\prot/cy_prot.c **** /*******************************************************************************
 934:Generated_Source\PSoC6\pdl\drivers\peripheral\prot/cy_prot.c **** * Function Name: Cy_Prot_ConfigPpuFixedGrMasterStruct
 935:Generated_Source\PSoC6\pdl\drivers\peripheral\prot/cy_prot.c **** ****************************************************************************//**
 936:Generated_Source\PSoC6\pdl\drivers\peripheral\prot/cy_prot.c **** *
ARM GAS  C:\Users\gjl\AppData\Local\Temp\cc7xIfgu.s 			page 47


 937:Generated_Source\PSoC6\pdl\drivers\peripheral\prot/cy_prot.c **** * \brief Configures a Fixed Peripheral Group Protection Unit (PPU GR) master 
 938:Generated_Source\PSoC6\pdl\drivers\peripheral\prot/cy_prot.c **** * protection struct with its protection attributes. 
 939:Generated_Source\PSoC6\pdl\drivers\peripheral\prot/cy_prot.c **** *
 940:Generated_Source\PSoC6\pdl\drivers\peripheral\prot/cy_prot.c **** * This function configures the master struct governing the corresponding slave
 941:Generated_Source\PSoC6\pdl\drivers\peripheral\prot/cy_prot.c **** * struct pair. It is a mechanism to protect the slave PPU GR struct. Since
 942:Generated_Source\PSoC6\pdl\drivers\peripheral\prot/cy_prot.c **** * the memory location of the slave struct is known, the address, regionSize and
 943:Generated_Source\PSoC6\pdl\drivers\peripheral\prot/cy_prot.c **** * subregions of the configuration struct are not applicable.
 944:Generated_Source\PSoC6\pdl\drivers\peripheral\prot/cy_prot.c **** *
 945:Generated_Source\PSoC6\pdl\drivers\peripheral\prot/cy_prot.c **** * Note that only the user/privileged write permissions are configurable. The 
 946:Generated_Source\PSoC6\pdl\drivers\peripheral\prot/cy_prot.c **** * read and execute permissions are read-only and cannot be configured.
 947:Generated_Source\PSoC6\pdl\drivers\peripheral\prot/cy_prot.c **** *
 948:Generated_Source\PSoC6\pdl\drivers\peripheral\prot/cy_prot.c **** * \param base
 949:Generated_Source\PSoC6\pdl\drivers\peripheral\prot/cy_prot.c **** * The register base address of the protection struct being configured.
 950:Generated_Source\PSoC6\pdl\drivers\peripheral\prot/cy_prot.c **** * 
 951:Generated_Source\PSoC6\pdl\drivers\peripheral\prot/cy_prot.c **** * \param config
 952:Generated_Source\PSoC6\pdl\drivers\peripheral\prot/cy_prot.c **** * Initialization structure with all the protection attributes.
 953:Generated_Source\PSoC6\pdl\drivers\peripheral\prot/cy_prot.c **** * 
 954:Generated_Source\PSoC6\pdl\drivers\peripheral\prot/cy_prot.c **** * \return
 955:Generated_Source\PSoC6\pdl\drivers\peripheral\prot/cy_prot.c **** * Status of the function call.
 956:Generated_Source\PSoC6\pdl\drivers\peripheral\prot/cy_prot.c **** *
 957:Generated_Source\PSoC6\pdl\drivers\peripheral\prot/cy_prot.c **** *   Status               | Description
 958:Generated_Source\PSoC6\pdl\drivers\peripheral\prot/cy_prot.c **** *   ------------         | -----------
 959:Generated_Source\PSoC6\pdl\drivers\peripheral\prot/cy_prot.c **** *   CY_PROT_SUCCESS      | PPU GR master struct was successfully configured
 960:Generated_Source\PSoC6\pdl\drivers\peripheral\prot/cy_prot.c **** *   CY_PROT_FAILURE      | The resource is locked
 961:Generated_Source\PSoC6\pdl\drivers\peripheral\prot/cy_prot.c **** *   CY_PROT_BAD_PARAM    | An incorrect/invalid parameter was passed
 962:Generated_Source\PSoC6\pdl\drivers\peripheral\prot/cy_prot.c **** *
 963:Generated_Source\PSoC6\pdl\drivers\peripheral\prot/cy_prot.c **** * \funcusage
 964:Generated_Source\PSoC6\pdl\drivers\peripheral\prot/cy_prot.c **** * \snippet prot/prot_v1_10_sut_01.cydsn/main_cm4.c snippet_Cy_Prot_ConfigPpuFixedGrMasterStruct
 965:Generated_Source\PSoC6\pdl\drivers\peripheral\prot/cy_prot.c **** *
 966:Generated_Source\PSoC6\pdl\drivers\peripheral\prot/cy_prot.c **** *******************************************************************************/
 967:Generated_Source\PSoC6\pdl\drivers\peripheral\prot/cy_prot.c **** cy_en_prot_status_t Cy_Prot_ConfigPpuFixedGrMasterStruct(PERI_PPU_GR_Type* base, const cy_stc_ppu_g
 968:Generated_Source\PSoC6\pdl\drivers\peripheral\prot/cy_prot.c **** {
 1659              		.loc 1 968 0
 1660              		.cfi_startproc
 1661              		@ args = 0, pretend = 0, frame = 0
 1662              		@ frame_needed = 0, uses_anonymous_args = 0
 1663              	.LVL132:
 1664 0000 70B5     		push	{r4, r5, r6, lr}
 1665              		.cfi_def_cfa_offset 16
 1666              		.cfi_offset 4, -16
 1667              		.cfi_offset 5, -12
 1668              		.cfi_offset 6, -8
 1669              		.cfi_offset 14, -4
 1670 0002 0500     		movs	r5, r0
 1671 0004 0C00     		movs	r4, r1
 969:Generated_Source\PSoC6\pdl\drivers\peripheral\prot/cy_prot.c ****     cy_en_prot_status_t status;
 970:Generated_Source\PSoC6\pdl\drivers\peripheral\prot/cy_prot.c ****     uint32_t attReg;
 971:Generated_Source\PSoC6\pdl\drivers\peripheral\prot/cy_prot.c ****     
 972:Generated_Source\PSoC6\pdl\drivers\peripheral\prot/cy_prot.c ****     CY_ASSERT_L1(NULL != base);
 1672              		.loc 1 972 0
 1673 0006 0028     		cmp	r0, #0
 1674 0008 04D1     		bne	.L150
 1675              		.loc 1 972 0 is_stmt 0 discriminator 1
 1676 000a F321     		movs	r1, #243
 1677              	.LVL133:
 1678 000c 8900     		lsls	r1, r1, #2
 1679 000e 2448     		ldr	r0, .L157
ARM GAS  C:\Users\gjl\AppData\Local\Temp\cc7xIfgu.s 			page 48


 1680              	.LVL134:
 1681 0010 FFF7FEFF 		bl	Cy_SysLib_AssertFailed
 1682              	.LVL135:
 1683              	.L150:
 973:Generated_Source\PSoC6\pdl\drivers\peripheral\prot/cy_prot.c ****     CY_ASSERT_L3(CY_PROT_IS_FIXED_MS_PERM_VALID(config->userPermission));
 1684              		.loc 1 973 0 is_stmt 1
 1685 0014 2378     		ldrb	r3, [r4]
 1686 0016 012B     		cmp	r3, #1
 1687 0018 05D0     		beq	.L151
 1688              		.loc 1 973 0 is_stmt 0 discriminator 1
 1689 001a 032B     		cmp	r3, #3
 1690 001c 03D0     		beq	.L151
 1691              		.loc 1 973 0 discriminator 2
 1692 001e 2149     		ldr	r1, .L157+4
 1693 0020 1F48     		ldr	r0, .L157
 1694 0022 FFF7FEFF 		bl	Cy_SysLib_AssertFailed
 1695              	.LVL136:
 1696              	.L151:
 974:Generated_Source\PSoC6\pdl\drivers\peripheral\prot/cy_prot.c ****     CY_ASSERT_L3(CY_PROT_IS_FIXED_MS_PERM_VALID(config->privPermission));
 1697              		.loc 1 974 0 is_stmt 1
 1698 0026 6378     		ldrb	r3, [r4, #1]
 1699 0028 012B     		cmp	r3, #1
 1700 002a 05D0     		beq	.L152
 1701              		.loc 1 974 0 is_stmt 0 discriminator 1
 1702 002c 032B     		cmp	r3, #3
 1703 002e 03D0     		beq	.L152
 1704              		.loc 1 974 0 discriminator 2
 1705 0030 1D49     		ldr	r1, .L157+8
 1706 0032 1B48     		ldr	r0, .L157
 1707 0034 FFF7FEFF 		bl	Cy_SysLib_AssertFailed
 1708              	.LVL137:
 1709              	.L152:
 975:Generated_Source\PSoC6\pdl\drivers\peripheral\prot/cy_prot.c ****     
 976:Generated_Source\PSoC6\pdl\drivers\peripheral\prot/cy_prot.c ****     if(((uint32_t)config->pcMask & CY_PROT_PPU_FIXED_PC_LIMIT_MASK) != 0UL) 
 1710              		.loc 1 976 0 is_stmt 1
 1711 0038 A188     		ldrh	r1, [r4, #4]
 1712 003a 7F23     		movs	r3, #127
 1713 003c 0A00     		movs	r2, r1
 1714 003e 9A43     		bics	r2, r3
 1715 0040 28D1     		bne	.L154
 977:Generated_Source\PSoC6\pdl\drivers\peripheral\prot/cy_prot.c ****     {
 978:Generated_Source\PSoC6\pdl\drivers\peripheral\prot/cy_prot.c ****         /* PC mask out of range - not supported in device */
 979:Generated_Source\PSoC6\pdl\drivers\peripheral\prot/cy_prot.c ****         status = CY_PROT_BAD_PARAM;
 980:Generated_Source\PSoC6\pdl\drivers\peripheral\prot/cy_prot.c ****     }
 981:Generated_Source\PSoC6\pdl\drivers\peripheral\prot/cy_prot.c ****     else
 982:Generated_Source\PSoC6\pdl\drivers\peripheral\prot/cy_prot.c ****     {
 983:Generated_Source\PSoC6\pdl\drivers\peripheral\prot/cy_prot.c ****         /* ADDR1 is read only. Only configure ATT1 */
 984:Generated_Source\PSoC6\pdl\drivers\peripheral\prot/cy_prot.c ****         attReg = (((uint32_t)config->userPermission & CY_PROT_ATT_PERMISSION_MASK))
 1716              		.loc 1 984 0
 1717 0042 2378     		ldrb	r3, [r4]
 1718 0044 0720     		movs	r0, #7
 1719 0046 1840     		ands	r0, r3
 985:Generated_Source\PSoC6\pdl\drivers\peripheral\prot/cy_prot.c ****                     | (uint32_t)(((uint32_t)config->privPermission & CY_PROT_ATT_PERMISSION_MASK) <
 1720              		.loc 1 985 0
 1721 0048 6278     		ldrb	r2, [r4, #1]
 1722 004a D200     		lsls	r2, r2, #3
 1723 004c 3823     		movs	r3, #56
ARM GAS  C:\Users\gjl\AppData\Local\Temp\cc7xIfgu.s 			page 49


 1724 004e 1340     		ands	r3, r2
 1725 0050 1843     		orrs	r0, r3
 986:Generated_Source\PSoC6\pdl\drivers\peripheral\prot/cy_prot.c ****                     | _VAL2FLD(PERI_PPU_GR_ATT1_NS, !(config->secure))
 1726              		.loc 1 986 0
 1727 0052 A378     		ldrb	r3, [r4, #2]
 1728 0054 0122     		movs	r2, #1
 1729 0056 5A40     		eors	r2, r3
 1730 0058 D2B2     		uxtb	r2, r2
 1731 005a 9201     		lsls	r2, r2, #6
 1732 005c 4023     		movs	r3, #64
 1733 005e 1A40     		ands	r2, r3
 1734 0060 0300     		movs	r3, r0
 1735 0062 1343     		orrs	r3, r2
 987:Generated_Source\PSoC6\pdl\drivers\peripheral\prot/cy_prot.c ****                     | _VAL2FLD(PERI_PPU_GR_ATT1_PC_MASK_15_TO_1, config->pcMask)
 1736              		.loc 1 987 0
 1737 0064 4902     		lsls	r1, r1, #9
 1738 0066 114A     		ldr	r2, .L157+12
 1739 0068 1140     		ands	r1, r2
 1740 006a 1943     		orrs	r1, r3
 988:Generated_Source\PSoC6\pdl\drivers\peripheral\prot/cy_prot.c ****                     /* No region size - read only for master structs */
 989:Generated_Source\PSoC6\pdl\drivers\peripheral\prot/cy_prot.c ****                     | _VAL2FLD(PERI_PPU_GR_ATT1_PC_MATCH, config->pcMatch);
 1741              		.loc 1 989 0
 1742 006c E378     		ldrb	r3, [r4, #3]
 1743 006e 9B07     		lsls	r3, r3, #30
 1744 0070 8020     		movs	r0, #128
 1745 0072 C005     		lsls	r0, r0, #23
 1746 0074 0340     		ands	r3, r0
 1747 0076 1A00     		movs	r2, r3
 984:Generated_Source\PSoC6\pdl\drivers\peripheral\prot/cy_prot.c ****                     | (uint32_t)(((uint32_t)config->privPermission & CY_PROT_ATT_PERMISSION_MASK) <
 1748              		.loc 1 984 0
 1749 0078 0B00     		movs	r3, r1
 1750 007a 1343     		orrs	r3, r2
 1751              	.LVL138:
 990:Generated_Source\PSoC6\pdl\drivers\peripheral\prot/cy_prot.c ****         if ((attReg & CY_PROT_PPU_GR_ATT1_MASK) != attReg)
 1752              		.loc 1 990 0
 1753 007c 0C4A     		ldr	r2, .L157+16
 1754 007e 1A40     		ands	r2, r3
 1755 0080 9342     		cmp	r3, r2
 1756 0082 09D1     		bne	.L155
 991:Generated_Source\PSoC6\pdl\drivers\peripheral\prot/cy_prot.c ****         {
 992:Generated_Source\PSoC6\pdl\drivers\peripheral\prot/cy_prot.c ****             /* Invalid parameter was passed */
 993:Generated_Source\PSoC6\pdl\drivers\peripheral\prot/cy_prot.c ****             status = CY_PROT_BAD_PARAM;
 994:Generated_Source\PSoC6\pdl\drivers\peripheral\prot/cy_prot.c ****         }
 995:Generated_Source\PSoC6\pdl\drivers\peripheral\prot/cy_prot.c ****         else
 996:Generated_Source\PSoC6\pdl\drivers\peripheral\prot/cy_prot.c ****         {
 997:Generated_Source\PSoC6\pdl\drivers\peripheral\prot/cy_prot.c ****             base->ATT1 = attReg;
 1757              		.loc 1 997 0
 1758 0084 6B62     		str	r3, [r5, #36]
 998:Generated_Source\PSoC6\pdl\drivers\peripheral\prot/cy_prot.c ****             status = ((base->ATT1 & CY_PROT_PPU_GR_ATT1_MASK) != attReg) ? CY_PROT_FAILURE : CY_PRO
 1759              		.loc 1 998 0
 1760 0086 696A     		ldr	r1, [r5, #36]
 1761 0088 094A     		ldr	r2, .L157+16
 1762 008a 0A40     		ands	r2, r1
 1763 008c 9342     		cmp	r3, r2
 1764 008e 05D0     		beq	.L156
 1765 0090 0848     		ldr	r0, .L157+20
 1766 0092 04E0     		b	.L153
ARM GAS  C:\Users\gjl\AppData\Local\Temp\cc7xIfgu.s 			page 50


 1767              	.LVL139:
 1768              	.L154:
 979:Generated_Source\PSoC6\pdl\drivers\peripheral\prot/cy_prot.c ****     }
 1769              		.loc 1 979 0
 1770 0094 0848     		ldr	r0, .L157+24
 1771 0096 02E0     		b	.L153
 1772              	.LVL140:
 1773              	.L155:
 993:Generated_Source\PSoC6\pdl\drivers\peripheral\prot/cy_prot.c ****         }
 1774              		.loc 1 993 0
 1775 0098 0748     		ldr	r0, .L157+24
 1776 009a 00E0     		b	.L153
 1777              	.L156:
 1778              		.loc 1 998 0
 1779 009c 0020     		movs	r0, #0
 1780              	.LVL141:
 1781              	.L153:
 999:Generated_Source\PSoC6\pdl\drivers\peripheral\prot/cy_prot.c ****         }
1000:Generated_Source\PSoC6\pdl\drivers\peripheral\prot/cy_prot.c ****     }
1001:Generated_Source\PSoC6\pdl\drivers\peripheral\prot/cy_prot.c ****     
1002:Generated_Source\PSoC6\pdl\drivers\peripheral\prot/cy_prot.c ****     return status;
1003:Generated_Source\PSoC6\pdl\drivers\peripheral\prot/cy_prot.c **** }
 1782              		.loc 1 1003 0
 1783              		@ sp needed
 1784              	.LVL142:
 1785              	.LVL143:
 1786 009e 70BD     		pop	{r4, r5, r6, pc}
 1787              	.L158:
 1788              		.align	2
 1789              	.L157:
 1790 00a0 00000000 		.word	.LC0
 1791 00a4 CD030000 		.word	973
 1792 00a8 CE030000 		.word	974
 1793 00ac 00FEFF00 		.word	16776704
 1794 00b0 DBFEFFE0 		.word	-520093989
 1795 00b4 0300C200 		.word	12713987
 1796 00b8 0100C200 		.word	12713985
 1797              		.cfi_endproc
 1798              	.LFE54:
 1799              		.size	Cy_Prot_ConfigPpuFixedGrMasterStruct, .-Cy_Prot_ConfigPpuFixedGrMasterStruct
 1800              		.section	.text.Cy_Prot_ConfigPpuFixedGrSlaveStruct,"ax",%progbits
 1801              		.align	2
 1802              		.global	Cy_Prot_ConfigPpuFixedGrSlaveStruct
 1803              		.code	16
 1804              		.thumb_func
 1805              		.type	Cy_Prot_ConfigPpuFixedGrSlaveStruct, %function
 1806              	Cy_Prot_ConfigPpuFixedGrSlaveStruct:
 1807              	.LFB55:
1004:Generated_Source\PSoC6\pdl\drivers\peripheral\prot/cy_prot.c **** 
1005:Generated_Source\PSoC6\pdl\drivers\peripheral\prot/cy_prot.c **** 
1006:Generated_Source\PSoC6\pdl\drivers\peripheral\prot/cy_prot.c **** /*******************************************************************************
1007:Generated_Source\PSoC6\pdl\drivers\peripheral\prot/cy_prot.c **** * Function Name: Cy_Prot_ConfigPpuFixedGrSlaveStruct
1008:Generated_Source\PSoC6\pdl\drivers\peripheral\prot/cy_prot.c **** ****************************************************************************//**
1009:Generated_Source\PSoC6\pdl\drivers\peripheral\prot/cy_prot.c **** *
1010:Generated_Source\PSoC6\pdl\drivers\peripheral\prot/cy_prot.c **** * \brief Configures a Fixed Peripheral Group Protection Unit (PPU GR) slave
1011:Generated_Source\PSoC6\pdl\drivers\peripheral\prot/cy_prot.c **** * protection struct with its protection attributes. 
1012:Generated_Source\PSoC6\pdl\drivers\peripheral\prot/cy_prot.c **** * 
ARM GAS  C:\Users\gjl\AppData\Local\Temp\cc7xIfgu.s 			page 51


1013:Generated_Source\PSoC6\pdl\drivers\peripheral\prot/cy_prot.c **** * This function configures the slave struct of a PPU GR pair, which can 
1014:Generated_Source\PSoC6\pdl\drivers\peripheral\prot/cy_prot.c **** * protect an entire peripheral MMIO group from invalid bus master accesses.
1015:Generated_Source\PSoC6\pdl\drivers\peripheral\prot/cy_prot.c **** * Refer to the device Technical Reference manual for details on peripheral
1016:Generated_Source\PSoC6\pdl\drivers\peripheral\prot/cy_prot.c **** * MMIO grouping and which peripherals belong to which groups.
1017:Generated_Source\PSoC6\pdl\drivers\peripheral\prot/cy_prot.c **** *
1018:Generated_Source\PSoC6\pdl\drivers\peripheral\prot/cy_prot.c **** * Each fixed PPU GR is devoted to a defined MMIO group. Hence the address, 
1019:Generated_Source\PSoC6\pdl\drivers\peripheral\prot/cy_prot.c **** * regionSize and subregions of the configuration struct are not applicable.
1020:Generated_Source\PSoC6\pdl\drivers\peripheral\prot/cy_prot.c **** *
1021:Generated_Source\PSoC6\pdl\drivers\peripheral\prot/cy_prot.c **** * Note that the user/privileged execute accesses are read-only and are always 
1022:Generated_Source\PSoC6\pdl\drivers\peripheral\prot/cy_prot.c **** * enabled. 
1023:Generated_Source\PSoC6\pdl\drivers\peripheral\prot/cy_prot.c **** *
1024:Generated_Source\PSoC6\pdl\drivers\peripheral\prot/cy_prot.c **** * \param base
1025:Generated_Source\PSoC6\pdl\drivers\peripheral\prot/cy_prot.c **** * The register base address of the protection structure being configured.
1026:Generated_Source\PSoC6\pdl\drivers\peripheral\prot/cy_prot.c **** * 
1027:Generated_Source\PSoC6\pdl\drivers\peripheral\prot/cy_prot.c **** * \param config
1028:Generated_Source\PSoC6\pdl\drivers\peripheral\prot/cy_prot.c **** * Initialization structure with all the protection attributes.
1029:Generated_Source\PSoC6\pdl\drivers\peripheral\prot/cy_prot.c **** * 
1030:Generated_Source\PSoC6\pdl\drivers\peripheral\prot/cy_prot.c **** * \return
1031:Generated_Source\PSoC6\pdl\drivers\peripheral\prot/cy_prot.c **** * Status of the function call.
1032:Generated_Source\PSoC6\pdl\drivers\peripheral\prot/cy_prot.c **** *
1033:Generated_Source\PSoC6\pdl\drivers\peripheral\prot/cy_prot.c **** *   Status               | Description
1034:Generated_Source\PSoC6\pdl\drivers\peripheral\prot/cy_prot.c **** *   ------------         | -----------
1035:Generated_Source\PSoC6\pdl\drivers\peripheral\prot/cy_prot.c **** *   CY_PROT_SUCCESS      | PPU GR slave struct was successfully configured
1036:Generated_Source\PSoC6\pdl\drivers\peripheral\prot/cy_prot.c **** *   CY_PROT_FAILURE      | The resource is locked
1037:Generated_Source\PSoC6\pdl\drivers\peripheral\prot/cy_prot.c **** *   CY_PROT_BAD_PARAM    | An incorrect/invalid parameter was passed
1038:Generated_Source\PSoC6\pdl\drivers\peripheral\prot/cy_prot.c **** *
1039:Generated_Source\PSoC6\pdl\drivers\peripheral\prot/cy_prot.c **** * \funcusage
1040:Generated_Source\PSoC6\pdl\drivers\peripheral\prot/cy_prot.c **** * \snippet prot/prot_v1_10_sut_01.cydsn/main_cm4.c snippet_Cy_Prot_ConfigPpuFixedGrSlaveStruct
1041:Generated_Source\PSoC6\pdl\drivers\peripheral\prot/cy_prot.c **** *
1042:Generated_Source\PSoC6\pdl\drivers\peripheral\prot/cy_prot.c **** *******************************************************************************/
1043:Generated_Source\PSoC6\pdl\drivers\peripheral\prot/cy_prot.c **** cy_en_prot_status_t Cy_Prot_ConfigPpuFixedGrSlaveStruct(PERI_PPU_GR_Type* base, const cy_stc_ppu_gr
1044:Generated_Source\PSoC6\pdl\drivers\peripheral\prot/cy_prot.c **** {
 1808              		.loc 1 1044 0
 1809              		.cfi_startproc
 1810              		@ args = 0, pretend = 0, frame = 0
 1811              		@ frame_needed = 0, uses_anonymous_args = 0
 1812              	.LVL144:
 1813 0000 70B5     		push	{r4, r5, r6, lr}
 1814              		.cfi_def_cfa_offset 16
 1815              		.cfi_offset 4, -16
 1816              		.cfi_offset 5, -12
 1817              		.cfi_offset 6, -8
 1818              		.cfi_offset 14, -4
 1819 0002 0500     		movs	r5, r0
 1820 0004 0C00     		movs	r4, r1
1045:Generated_Source\PSoC6\pdl\drivers\peripheral\prot/cy_prot.c ****     cy_en_prot_status_t status;
1046:Generated_Source\PSoC6\pdl\drivers\peripheral\prot/cy_prot.c ****     uint32_t attReg;
1047:Generated_Source\PSoC6\pdl\drivers\peripheral\prot/cy_prot.c ****     
1048:Generated_Source\PSoC6\pdl\drivers\peripheral\prot/cy_prot.c ****     CY_ASSERT_L1(NULL != base);
 1821              		.loc 1 1048 0
 1822 0006 0028     		cmp	r0, #0
 1823 0008 04D1     		bne	.L160
 1824              		.loc 1 1048 0 is_stmt 0 discriminator 1
 1825 000a 8321     		movs	r1, #131
 1826              	.LVL145:
 1827 000c C900     		lsls	r1, r1, #3
 1828 000e 2248     		ldr	r0, .L167
ARM GAS  C:\Users\gjl\AppData\Local\Temp\cc7xIfgu.s 			page 52


 1829              	.LVL146:
 1830 0010 FFF7FEFF 		bl	Cy_SysLib_AssertFailed
 1831              	.LVL147:
 1832              	.L160:
1049:Generated_Source\PSoC6\pdl\drivers\peripheral\prot/cy_prot.c ****     CY_ASSERT_L3(CY_PROT_IS_FIXED_SL_PERM_VALID(config->userPermission));
 1833              		.loc 1 1049 0 is_stmt 1
 1834 0014 2378     		ldrb	r3, [r4]
 1835 0016 032B     		cmp	r3, #3
 1836 0018 03D9     		bls	.L161
 1837              		.loc 1 1049 0 is_stmt 0 discriminator 1
 1838 001a 2049     		ldr	r1, .L167+4
 1839 001c 1E48     		ldr	r0, .L167
 1840 001e FFF7FEFF 		bl	Cy_SysLib_AssertFailed
 1841              	.LVL148:
 1842              	.L161:
1050:Generated_Source\PSoC6\pdl\drivers\peripheral\prot/cy_prot.c ****     CY_ASSERT_L3(CY_PROT_IS_FIXED_SL_PERM_VALID(config->privPermission));
 1843              		.loc 1 1050 0 is_stmt 1
 1844 0022 6378     		ldrb	r3, [r4, #1]
 1845 0024 032B     		cmp	r3, #3
 1846 0026 03D9     		bls	.L162
 1847              		.loc 1 1050 0 is_stmt 0 discriminator 1
 1848 0028 1D49     		ldr	r1, .L167+8
 1849 002a 1B48     		ldr	r0, .L167
 1850 002c FFF7FEFF 		bl	Cy_SysLib_AssertFailed
 1851              	.LVL149:
 1852              	.L162:
1051:Generated_Source\PSoC6\pdl\drivers\peripheral\prot/cy_prot.c ****     
1052:Generated_Source\PSoC6\pdl\drivers\peripheral\prot/cy_prot.c ****     if(((uint32_t)config->pcMask & CY_PROT_PPU_FIXED_PC_LIMIT_MASK) != 0UL) 
 1853              		.loc 1 1052 0 is_stmt 1
 1854 0030 A188     		ldrh	r1, [r4, #4]
 1855 0032 7F23     		movs	r3, #127
 1856 0034 0A00     		movs	r2, r1
 1857 0036 9A43     		bics	r2, r3
 1858 0038 28D1     		bne	.L164
1053:Generated_Source\PSoC6\pdl\drivers\peripheral\prot/cy_prot.c ****     {
1054:Generated_Source\PSoC6\pdl\drivers\peripheral\prot/cy_prot.c ****         /* PC mask out of range - not supported in device */
1055:Generated_Source\PSoC6\pdl\drivers\peripheral\prot/cy_prot.c ****         status = CY_PROT_BAD_PARAM;
1056:Generated_Source\PSoC6\pdl\drivers\peripheral\prot/cy_prot.c ****     }
1057:Generated_Source\PSoC6\pdl\drivers\peripheral\prot/cy_prot.c ****     else
1058:Generated_Source\PSoC6\pdl\drivers\peripheral\prot/cy_prot.c ****     {
1059:Generated_Source\PSoC6\pdl\drivers\peripheral\prot/cy_prot.c ****         /* ADDR0 is read only. Only configure ATT0 */
1060:Generated_Source\PSoC6\pdl\drivers\peripheral\prot/cy_prot.c ****         attReg = (uint32_t)(((uint32_t)config->userPermission & CY_PROT_ATT_PERMISSION_MASK))
 1859              		.loc 1 1060 0
 1860 003a 2378     		ldrb	r3, [r4]
 1861 003c 0720     		movs	r0, #7
 1862 003e 1840     		ands	r0, r3
1061:Generated_Source\PSoC6\pdl\drivers\peripheral\prot/cy_prot.c ****                     | (uint32_t)(((uint32_t)config->privPermission & CY_PROT_ATT_PERMISSION_MASK) <
 1863              		.loc 1 1061 0
 1864 0040 6278     		ldrb	r2, [r4, #1]
 1865 0042 D200     		lsls	r2, r2, #3
 1866 0044 3823     		movs	r3, #56
 1867 0046 1340     		ands	r3, r2
 1868 0048 1843     		orrs	r0, r3
1062:Generated_Source\PSoC6\pdl\drivers\peripheral\prot/cy_prot.c ****                     | _VAL2FLD(PERI_PPU_GR_ATT0_NS, !(config->secure))
 1869              		.loc 1 1062 0
 1870 004a A378     		ldrb	r3, [r4, #2]
 1871 004c 0122     		movs	r2, #1
ARM GAS  C:\Users\gjl\AppData\Local\Temp\cc7xIfgu.s 			page 53


 1872 004e 5A40     		eors	r2, r3
 1873 0050 D2B2     		uxtb	r2, r2
 1874 0052 9201     		lsls	r2, r2, #6
 1875 0054 4023     		movs	r3, #64
 1876 0056 1A40     		ands	r2, r3
 1877 0058 0300     		movs	r3, r0
 1878 005a 1343     		orrs	r3, r2
1063:Generated_Source\PSoC6\pdl\drivers\peripheral\prot/cy_prot.c ****                     | _VAL2FLD(PERI_PPU_GR_ATT0_PC_MASK_15_TO_1, config->pcMask)
 1879              		.loc 1 1063 0
 1880 005c 4902     		lsls	r1, r1, #9
 1881 005e 114A     		ldr	r2, .L167+12
 1882 0060 1140     		ands	r1, r2
 1883 0062 1943     		orrs	r1, r3
1064:Generated_Source\PSoC6\pdl\drivers\peripheral\prot/cy_prot.c ****                     /* No region size - read only */
1065:Generated_Source\PSoC6\pdl\drivers\peripheral\prot/cy_prot.c ****                     | _VAL2FLD(PERI_PPU_GR_ATT0_PC_MATCH, config->pcMatch);
 1884              		.loc 1 1065 0
 1885 0064 E378     		ldrb	r3, [r4, #3]
 1886 0066 9B07     		lsls	r3, r3, #30
 1887 0068 8020     		movs	r0, #128
 1888 006a C005     		lsls	r0, r0, #23
 1889 006c 0340     		ands	r3, r0
 1890 006e 1A00     		movs	r2, r3
1060:Generated_Source\PSoC6\pdl\drivers\peripheral\prot/cy_prot.c ****                     | (uint32_t)(((uint32_t)config->privPermission & CY_PROT_ATT_PERMISSION_MASK) <
 1891              		.loc 1 1060 0
 1892 0070 0B00     		movs	r3, r1
 1893 0072 1343     		orrs	r3, r2
 1894              	.LVL150:
1066:Generated_Source\PSoC6\pdl\drivers\peripheral\prot/cy_prot.c ****         if ((attReg & CY_PROT_PPU_GR_ATT0_MASK) != attReg)
 1895              		.loc 1 1066 0
 1896 0074 0C4A     		ldr	r2, .L167+16
 1897 0076 1A40     		ands	r2, r3
 1898 0078 9342     		cmp	r3, r2
 1899 007a 09D1     		bne	.L165
1067:Generated_Source\PSoC6\pdl\drivers\peripheral\prot/cy_prot.c ****         {
1068:Generated_Source\PSoC6\pdl\drivers\peripheral\prot/cy_prot.c ****             /* Invalid parameter was passed */
1069:Generated_Source\PSoC6\pdl\drivers\peripheral\prot/cy_prot.c ****             status = CY_PROT_BAD_PARAM;
1070:Generated_Source\PSoC6\pdl\drivers\peripheral\prot/cy_prot.c ****         }
1071:Generated_Source\PSoC6\pdl\drivers\peripheral\prot/cy_prot.c ****         else
1072:Generated_Source\PSoC6\pdl\drivers\peripheral\prot/cy_prot.c ****         {
1073:Generated_Source\PSoC6\pdl\drivers\peripheral\prot/cy_prot.c ****             base->ATT0 = attReg;
 1900              		.loc 1 1073 0
 1901 007c 6B60     		str	r3, [r5, #4]
1074:Generated_Source\PSoC6\pdl\drivers\peripheral\prot/cy_prot.c ****             status = ((base->ATT0 & CY_PROT_PPU_GR_ATT0_MASK) != attReg) ? CY_PROT_FAILURE : CY_PRO
 1902              		.loc 1 1074 0
 1903 007e 6968     		ldr	r1, [r5, #4]
 1904 0080 094A     		ldr	r2, .L167+16
 1905 0082 0A40     		ands	r2, r1
 1906 0084 9342     		cmp	r3, r2
 1907 0086 05D0     		beq	.L166
 1908 0088 0848     		ldr	r0, .L167+20
 1909 008a 04E0     		b	.L163
 1910              	.LVL151:
 1911              	.L164:
1055:Generated_Source\PSoC6\pdl\drivers\peripheral\prot/cy_prot.c ****     }
 1912              		.loc 1 1055 0
 1913 008c 0848     		ldr	r0, .L167+24
 1914 008e 02E0     		b	.L163
ARM GAS  C:\Users\gjl\AppData\Local\Temp\cc7xIfgu.s 			page 54


 1915              	.LVL152:
 1916              	.L165:
1069:Generated_Source\PSoC6\pdl\drivers\peripheral\prot/cy_prot.c ****         }
 1917              		.loc 1 1069 0
 1918 0090 0748     		ldr	r0, .L167+24
 1919 0092 00E0     		b	.L163
 1920              	.L166:
 1921              		.loc 1 1074 0
 1922 0094 0020     		movs	r0, #0
 1923              	.LVL153:
 1924              	.L163:
1075:Generated_Source\PSoC6\pdl\drivers\peripheral\prot/cy_prot.c ****         }
1076:Generated_Source\PSoC6\pdl\drivers\peripheral\prot/cy_prot.c ****     }    
1077:Generated_Source\PSoC6\pdl\drivers\peripheral\prot/cy_prot.c ****     return status;
1078:Generated_Source\PSoC6\pdl\drivers\peripheral\prot/cy_prot.c **** }
 1925              		.loc 1 1078 0
 1926              		@ sp needed
 1927              	.LVL154:
 1928              	.LVL155:
 1929 0096 70BD     		pop	{r4, r5, r6, pc}
 1930              	.L168:
 1931              		.align	2
 1932              	.L167:
 1933 0098 00000000 		.word	.LC0
 1934 009c 19040000 		.word	1049
 1935 00a0 1A040000 		.word	1050
 1936 00a4 00FEFF00 		.word	16776704
 1937 00a8 DBFEFFE0 		.word	-520093989
 1938 00ac 0300C200 		.word	12713987
 1939 00b0 0100C200 		.word	12713985
 1940              		.cfi_endproc
 1941              	.LFE55:
 1942              		.size	Cy_Prot_ConfigPpuFixedGrSlaveStruct, .-Cy_Prot_ConfigPpuFixedGrSlaveStruct
 1943              		.section	.text.Cy_Prot_EnablePpuFixedGrMasterStruct,"ax",%progbits
 1944              		.align	2
 1945              		.global	Cy_Prot_EnablePpuFixedGrMasterStruct
 1946              		.code	16
 1947              		.thumb_func
 1948              		.type	Cy_Prot_EnablePpuFixedGrMasterStruct, %function
 1949              	Cy_Prot_EnablePpuFixedGrMasterStruct:
 1950              	.LFB56:
1079:Generated_Source\PSoC6\pdl\drivers\peripheral\prot/cy_prot.c **** 
1080:Generated_Source\PSoC6\pdl\drivers\peripheral\prot/cy_prot.c **** 
1081:Generated_Source\PSoC6\pdl\drivers\peripheral\prot/cy_prot.c **** /*******************************************************************************
1082:Generated_Source\PSoC6\pdl\drivers\peripheral\prot/cy_prot.c **** * Function Name: Cy_Prot_EnablePpuFixedGrMasterStruct
1083:Generated_Source\PSoC6\pdl\drivers\peripheral\prot/cy_prot.c **** ****************************************************************************//**
1084:Generated_Source\PSoC6\pdl\drivers\peripheral\prot/cy_prot.c **** *
1085:Generated_Source\PSoC6\pdl\drivers\peripheral\prot/cy_prot.c **** * \brief Enables the Master PPU GR structure.
1086:Generated_Source\PSoC6\pdl\drivers\peripheral\prot/cy_prot.c **** *
1087:Generated_Source\PSoC6\pdl\drivers\peripheral\prot/cy_prot.c **** * This is a PPU GR master struct enable function. The PPU GR protection 
1088:Generated_Source\PSoC6\pdl\drivers\peripheral\prot/cy_prot.c **** * settings will take effect after successful completion of this function call.
1089:Generated_Source\PSoC6\pdl\drivers\peripheral\prot/cy_prot.c **** *
1090:Generated_Source\PSoC6\pdl\drivers\peripheral\prot/cy_prot.c **** * \param base
1091:Generated_Source\PSoC6\pdl\drivers\peripheral\prot/cy_prot.c **** * The base address for the protection unit structure being configured. 
1092:Generated_Source\PSoC6\pdl\drivers\peripheral\prot/cy_prot.c **** *
1093:Generated_Source\PSoC6\pdl\drivers\peripheral\prot/cy_prot.c **** * \return
1094:Generated_Source\PSoC6\pdl\drivers\peripheral\prot/cy_prot.c **** * Status of the function call.
ARM GAS  C:\Users\gjl\AppData\Local\Temp\cc7xIfgu.s 			page 55


1095:Generated_Source\PSoC6\pdl\drivers\peripheral\prot/cy_prot.c **** *
1096:Generated_Source\PSoC6\pdl\drivers\peripheral\prot/cy_prot.c **** *   Status               | Description
1097:Generated_Source\PSoC6\pdl\drivers\peripheral\prot/cy_prot.c **** *   ------------         | -----------
1098:Generated_Source\PSoC6\pdl\drivers\peripheral\prot/cy_prot.c **** *   CY_PROT_SUCCESS      | The Master PU struct was enabled
1099:Generated_Source\PSoC6\pdl\drivers\peripheral\prot/cy_prot.c **** *   CY_PROT_FAILURE      | The Master PU struct is disabled and possibly locked
1100:Generated_Source\PSoC6\pdl\drivers\peripheral\prot/cy_prot.c **** *
1101:Generated_Source\PSoC6\pdl\drivers\peripheral\prot/cy_prot.c **** * \funcusage
1102:Generated_Source\PSoC6\pdl\drivers\peripheral\prot/cy_prot.c **** * \snippet prot/prot_v1_10_sut_01.cydsn/main_cm4.c snippet_Cy_Prot_EnablePpuFixedGrMasterStruct
1103:Generated_Source\PSoC6\pdl\drivers\peripheral\prot/cy_prot.c **** *
1104:Generated_Source\PSoC6\pdl\drivers\peripheral\prot/cy_prot.c **** *******************************************************************************/
1105:Generated_Source\PSoC6\pdl\drivers\peripheral\prot/cy_prot.c **** cy_en_prot_status_t Cy_Prot_EnablePpuFixedGrMasterStruct(PERI_PPU_GR_Type* base)
1106:Generated_Source\PSoC6\pdl\drivers\peripheral\prot/cy_prot.c **** {
 1951              		.loc 1 1106 0
 1952              		.cfi_startproc
 1953              		@ args = 0, pretend = 0, frame = 0
 1954              		@ frame_needed = 0, uses_anonymous_args = 0
 1955              		@ link register save eliminated.
 1956              	.LVL156:
1107:Generated_Source\PSoC6\pdl\drivers\peripheral\prot/cy_prot.c ****     cy_en_prot_status_t status;
1108:Generated_Source\PSoC6\pdl\drivers\peripheral\prot/cy_prot.c ****     
1109:Generated_Source\PSoC6\pdl\drivers\peripheral\prot/cy_prot.c ****     base->ATT1 |= _VAL2FLD(PERI_PPU_GR_ATT1_ENABLED, CY_PROT_STRUCT_ENABLE);
 1957              		.loc 1 1109 0
 1958 0000 436A     		ldr	r3, [r0, #36]
 1959 0002 8022     		movs	r2, #128
 1960 0004 1206     		lsls	r2, r2, #24
 1961 0006 1343     		orrs	r3, r2
 1962 0008 4362     		str	r3, [r0, #36]
1110:Generated_Source\PSoC6\pdl\drivers\peripheral\prot/cy_prot.c ****     status = (_FLD2VAL(PERI_PPU_GR_ATT1_ENABLED, base->ATT1) != CY_PROT_STRUCT_ENABLE) ?
 1963              		.loc 1 1110 0
 1964 000a 436A     		ldr	r3, [r0, #36]
 1965 000c 002B     		cmp	r3, #0
 1966 000e 01DB     		blt	.L171
 1967 0010 0148     		ldr	r0, .L172
 1968              	.LVL157:
 1969 0012 00E0     		b	.L170
 1970              	.LVL158:
 1971              	.L171:
 1972 0014 0020     		movs	r0, #0
 1973              	.LVL159:
 1974              	.L170:
1111:Generated_Source\PSoC6\pdl\drivers\peripheral\prot/cy_prot.c ****                 CY_PROT_FAILURE : CY_PROT_SUCCESS;
1112:Generated_Source\PSoC6\pdl\drivers\peripheral\prot/cy_prot.c ****     
1113:Generated_Source\PSoC6\pdl\drivers\peripheral\prot/cy_prot.c ****     return status;
1114:Generated_Source\PSoC6\pdl\drivers\peripheral\prot/cy_prot.c **** }
 1975              		.loc 1 1114 0 discriminator 4
 1976              		@ sp needed
 1977 0016 7047     		bx	lr
 1978              	.L173:
 1979              		.align	2
 1980              	.L172:
 1981 0018 0300C200 		.word	12713987
 1982              		.cfi_endproc
 1983              	.LFE56:
 1984              		.size	Cy_Prot_EnablePpuFixedGrMasterStruct, .-Cy_Prot_EnablePpuFixedGrMasterStruct
 1985              		.section	.text.Cy_Prot_DisablePpuFixedGrMasterStruct,"ax",%progbits
 1986              		.align	2
 1987              		.global	Cy_Prot_DisablePpuFixedGrMasterStruct
ARM GAS  C:\Users\gjl\AppData\Local\Temp\cc7xIfgu.s 			page 56


 1988              		.code	16
 1989              		.thumb_func
 1990              		.type	Cy_Prot_DisablePpuFixedGrMasterStruct, %function
 1991              	Cy_Prot_DisablePpuFixedGrMasterStruct:
 1992              	.LFB57:
1115:Generated_Source\PSoC6\pdl\drivers\peripheral\prot/cy_prot.c **** 
1116:Generated_Source\PSoC6\pdl\drivers\peripheral\prot/cy_prot.c **** 
1117:Generated_Source\PSoC6\pdl\drivers\peripheral\prot/cy_prot.c **** /*******************************************************************************
1118:Generated_Source\PSoC6\pdl\drivers\peripheral\prot/cy_prot.c **** * Function Name: Cy_Prot_DisablePpuFixedGrMasterStruct
1119:Generated_Source\PSoC6\pdl\drivers\peripheral\prot/cy_prot.c **** ****************************************************************************//**
1120:Generated_Source\PSoC6\pdl\drivers\peripheral\prot/cy_prot.c **** *
1121:Generated_Source\PSoC6\pdl\drivers\peripheral\prot/cy_prot.c **** * \brief Disables the Master PPU GR structure.
1122:Generated_Source\PSoC6\pdl\drivers\peripheral\prot/cy_prot.c **** *
1123:Generated_Source\PSoC6\pdl\drivers\peripheral\prot/cy_prot.c **** * This is a PPU GR master struct disable function. The PPU GR protection 
1124:Generated_Source\PSoC6\pdl\drivers\peripheral\prot/cy_prot.c **** * settings will seize to take effect after successful completion of this 
1125:Generated_Source\PSoC6\pdl\drivers\peripheral\prot/cy_prot.c **** * function call.
1126:Generated_Source\PSoC6\pdl\drivers\peripheral\prot/cy_prot.c **** *
1127:Generated_Source\PSoC6\pdl\drivers\peripheral\prot/cy_prot.c **** * \param base
1128:Generated_Source\PSoC6\pdl\drivers\peripheral\prot/cy_prot.c **** * The base address for the protection unit structure being configured. 
1129:Generated_Source\PSoC6\pdl\drivers\peripheral\prot/cy_prot.c **** *
1130:Generated_Source\PSoC6\pdl\drivers\peripheral\prot/cy_prot.c **** * \return
1131:Generated_Source\PSoC6\pdl\drivers\peripheral\prot/cy_prot.c **** * Status of the function call.
1132:Generated_Source\PSoC6\pdl\drivers\peripheral\prot/cy_prot.c **** *
1133:Generated_Source\PSoC6\pdl\drivers\peripheral\prot/cy_prot.c **** *   Status               | Description
1134:Generated_Source\PSoC6\pdl\drivers\peripheral\prot/cy_prot.c **** *   ------------         | -----------
1135:Generated_Source\PSoC6\pdl\drivers\peripheral\prot/cy_prot.c **** *   CY_PROT_SUCCESS      | The Master PU struct was disabled
1136:Generated_Source\PSoC6\pdl\drivers\peripheral\prot/cy_prot.c **** *   CY_PROT_FAILURE      | The Master PU struct is enabled and possibly locked
1137:Generated_Source\PSoC6\pdl\drivers\peripheral\prot/cy_prot.c **** *
1138:Generated_Source\PSoC6\pdl\drivers\peripheral\prot/cy_prot.c **** * \funcusage
1139:Generated_Source\PSoC6\pdl\drivers\peripheral\prot/cy_prot.c **** * \snippet prot/prot_v1_10_sut_01.cydsn/main_cm4.c snippet_Cy_Prot_DisablePpuFixedGrMasterStruct
1140:Generated_Source\PSoC6\pdl\drivers\peripheral\prot/cy_prot.c **** *
1141:Generated_Source\PSoC6\pdl\drivers\peripheral\prot/cy_prot.c **** *******************************************************************************/
1142:Generated_Source\PSoC6\pdl\drivers\peripheral\prot/cy_prot.c **** cy_en_prot_status_t Cy_Prot_DisablePpuFixedGrMasterStruct(PERI_PPU_GR_Type* base)
1143:Generated_Source\PSoC6\pdl\drivers\peripheral\prot/cy_prot.c **** {
 1993              		.loc 1 1143 0
 1994              		.cfi_startproc
 1995              		@ args = 0, pretend = 0, frame = 0
 1996              		@ frame_needed = 0, uses_anonymous_args = 0
 1997              		@ link register save eliminated.
 1998              	.LVL160:
1144:Generated_Source\PSoC6\pdl\drivers\peripheral\prot/cy_prot.c ****     cy_en_prot_status_t status;
1145:Generated_Source\PSoC6\pdl\drivers\peripheral\prot/cy_prot.c ****     
1146:Generated_Source\PSoC6\pdl\drivers\peripheral\prot/cy_prot.c ****     base->ATT1 &= ~_VAL2FLD(PERI_PPU_GR_ATT1_ENABLED, CY_PROT_STRUCT_ENABLE);
 1999              		.loc 1 1146 0
 2000 0000 436A     		ldr	r3, [r0, #36]
 2001 0002 5B00     		lsls	r3, r3, #1
 2002 0004 5B08     		lsrs	r3, r3, #1
 2003 0006 4362     		str	r3, [r0, #36]
1147:Generated_Source\PSoC6\pdl\drivers\peripheral\prot/cy_prot.c ****     status = (_FLD2VAL(PERI_PPU_GR_ATT1_ENABLED, base->ATT1) == CY_PROT_STRUCT_ENABLE) ?
 2004              		.loc 1 1147 0
 2005 0008 436A     		ldr	r3, [r0, #36]
 2006 000a 002B     		cmp	r3, #0
 2007 000c 01DA     		bge	.L176
 2008 000e 0248     		ldr	r0, .L177
 2009              	.LVL161:
 2010 0010 00E0     		b	.L175
 2011              	.LVL162:
ARM GAS  C:\Users\gjl\AppData\Local\Temp\cc7xIfgu.s 			page 57


 2012              	.L176:
 2013 0012 0020     		movs	r0, #0
 2014              	.LVL163:
 2015              	.L175:
1148:Generated_Source\PSoC6\pdl\drivers\peripheral\prot/cy_prot.c ****                 CY_PROT_FAILURE : CY_PROT_SUCCESS;
1149:Generated_Source\PSoC6\pdl\drivers\peripheral\prot/cy_prot.c ****     
1150:Generated_Source\PSoC6\pdl\drivers\peripheral\prot/cy_prot.c ****     return status;
1151:Generated_Source\PSoC6\pdl\drivers\peripheral\prot/cy_prot.c **** }
 2016              		.loc 1 1151 0 discriminator 4
 2017              		@ sp needed
 2018 0014 7047     		bx	lr
 2019              	.L178:
 2020 0016 C046     		.align	2
 2021              	.L177:
 2022 0018 0300C200 		.word	12713987
 2023              		.cfi_endproc
 2024              	.LFE57:
 2025              		.size	Cy_Prot_DisablePpuFixedGrMasterStruct, .-Cy_Prot_DisablePpuFixedGrMasterStruct
 2026              		.section	.text.Cy_Prot_EnablePpuFixedGrSlaveStruct,"ax",%progbits
 2027              		.align	2
 2028              		.global	Cy_Prot_EnablePpuFixedGrSlaveStruct
 2029              		.code	16
 2030              		.thumb_func
 2031              		.type	Cy_Prot_EnablePpuFixedGrSlaveStruct, %function
 2032              	Cy_Prot_EnablePpuFixedGrSlaveStruct:
 2033              	.LFB58:
1152:Generated_Source\PSoC6\pdl\drivers\peripheral\prot/cy_prot.c **** 
1153:Generated_Source\PSoC6\pdl\drivers\peripheral\prot/cy_prot.c **** 
1154:Generated_Source\PSoC6\pdl\drivers\peripheral\prot/cy_prot.c **** /*******************************************************************************
1155:Generated_Source\PSoC6\pdl\drivers\peripheral\prot/cy_prot.c **** * Function Name: Cy_Prot_EnablePpuFixedGrSlaveStruct
1156:Generated_Source\PSoC6\pdl\drivers\peripheral\prot/cy_prot.c **** ****************************************************************************//**
1157:Generated_Source\PSoC6\pdl\drivers\peripheral\prot/cy_prot.c **** *
1158:Generated_Source\PSoC6\pdl\drivers\peripheral\prot/cy_prot.c **** * \brief Enables the Slave PPU GR structure.
1159:Generated_Source\PSoC6\pdl\drivers\peripheral\prot/cy_prot.c **** *
1160:Generated_Source\PSoC6\pdl\drivers\peripheral\prot/cy_prot.c **** * This is a PPU GR slave struct enable function. The PPU GR protection 
1161:Generated_Source\PSoC6\pdl\drivers\peripheral\prot/cy_prot.c **** * settings will take effect after successful completion of this function call.
1162:Generated_Source\PSoC6\pdl\drivers\peripheral\prot/cy_prot.c **** *
1163:Generated_Source\PSoC6\pdl\drivers\peripheral\prot/cy_prot.c **** * \param base
1164:Generated_Source\PSoC6\pdl\drivers\peripheral\prot/cy_prot.c **** * The base address for the protection unit structure being configured. 
1165:Generated_Source\PSoC6\pdl\drivers\peripheral\prot/cy_prot.c **** *
1166:Generated_Source\PSoC6\pdl\drivers\peripheral\prot/cy_prot.c **** * \return
1167:Generated_Source\PSoC6\pdl\drivers\peripheral\prot/cy_prot.c **** * Status of the function call.
1168:Generated_Source\PSoC6\pdl\drivers\peripheral\prot/cy_prot.c **** *
1169:Generated_Source\PSoC6\pdl\drivers\peripheral\prot/cy_prot.c **** *   Status               | Description
1170:Generated_Source\PSoC6\pdl\drivers\peripheral\prot/cy_prot.c **** *   ------------         | -----------
1171:Generated_Source\PSoC6\pdl\drivers\peripheral\prot/cy_prot.c **** *   CY_PROT_SUCCESS      | The Slave PU struct was enabled
1172:Generated_Source\PSoC6\pdl\drivers\peripheral\prot/cy_prot.c **** *   CY_PROT_FAILURE      | The Slave PU struct is disabled and possibly locked
1173:Generated_Source\PSoC6\pdl\drivers\peripheral\prot/cy_prot.c **** *
1174:Generated_Source\PSoC6\pdl\drivers\peripheral\prot/cy_prot.c **** * \funcusage
1175:Generated_Source\PSoC6\pdl\drivers\peripheral\prot/cy_prot.c **** * \snippet prot/prot_v1_10_sut_01.cydsn/main_cm4.c snippet_Cy_Prot_EnablePpuFixedGrSlaveStruct
1176:Generated_Source\PSoC6\pdl\drivers\peripheral\prot/cy_prot.c **** *
1177:Generated_Source\PSoC6\pdl\drivers\peripheral\prot/cy_prot.c **** *******************************************************************************/
1178:Generated_Source\PSoC6\pdl\drivers\peripheral\prot/cy_prot.c **** cy_en_prot_status_t Cy_Prot_EnablePpuFixedGrSlaveStruct(PERI_PPU_GR_Type* base)
1179:Generated_Source\PSoC6\pdl\drivers\peripheral\prot/cy_prot.c **** {   
 2034              		.loc 1 1179 0
 2035              		.cfi_startproc
 2036              		@ args = 0, pretend = 0, frame = 0
ARM GAS  C:\Users\gjl\AppData\Local\Temp\cc7xIfgu.s 			page 58


 2037              		@ frame_needed = 0, uses_anonymous_args = 0
 2038              		@ link register save eliminated.
 2039              	.LVL164:
1180:Generated_Source\PSoC6\pdl\drivers\peripheral\prot/cy_prot.c ****     cy_en_prot_status_t status;
1181:Generated_Source\PSoC6\pdl\drivers\peripheral\prot/cy_prot.c ****     
1182:Generated_Source\PSoC6\pdl\drivers\peripheral\prot/cy_prot.c ****     base->ATT0 |= _VAL2FLD(PERI_PPU_GR_ATT0_ENABLED, CY_PROT_STRUCT_ENABLE);
 2040              		.loc 1 1182 0
 2041 0000 4368     		ldr	r3, [r0, #4]
 2042 0002 8022     		movs	r2, #128
 2043 0004 1206     		lsls	r2, r2, #24
 2044 0006 1343     		orrs	r3, r2
 2045 0008 4360     		str	r3, [r0, #4]
1183:Generated_Source\PSoC6\pdl\drivers\peripheral\prot/cy_prot.c ****     status = (_FLD2VAL(PERI_PPU_GR_ATT0_ENABLED, base->ATT0) != CY_PROT_STRUCT_ENABLE) ?
 2046              		.loc 1 1183 0
 2047 000a 4368     		ldr	r3, [r0, #4]
 2048 000c 002B     		cmp	r3, #0
 2049 000e 01DB     		blt	.L181
 2050 0010 0148     		ldr	r0, .L182
 2051              	.LVL165:
 2052 0012 00E0     		b	.L180
 2053              	.LVL166:
 2054              	.L181:
 2055 0014 0020     		movs	r0, #0
 2056              	.LVL167:
 2057              	.L180:
1184:Generated_Source\PSoC6\pdl\drivers\peripheral\prot/cy_prot.c ****                 CY_PROT_FAILURE : CY_PROT_SUCCESS;
1185:Generated_Source\PSoC6\pdl\drivers\peripheral\prot/cy_prot.c ****     
1186:Generated_Source\PSoC6\pdl\drivers\peripheral\prot/cy_prot.c ****     return status;
1187:Generated_Source\PSoC6\pdl\drivers\peripheral\prot/cy_prot.c **** }
 2058              		.loc 1 1187 0 discriminator 4
 2059              		@ sp needed
 2060 0016 7047     		bx	lr
 2061              	.L183:
 2062              		.align	2
 2063              	.L182:
 2064 0018 0300C200 		.word	12713987
 2065              		.cfi_endproc
 2066              	.LFE58:
 2067              		.size	Cy_Prot_EnablePpuFixedGrSlaveStruct, .-Cy_Prot_EnablePpuFixedGrSlaveStruct
 2068              		.section	.text.Cy_Prot_DisablePpuFixedGrSlaveStruct,"ax",%progbits
 2069              		.align	2
 2070              		.global	Cy_Prot_DisablePpuFixedGrSlaveStruct
 2071              		.code	16
 2072              		.thumb_func
 2073              		.type	Cy_Prot_DisablePpuFixedGrSlaveStruct, %function
 2074              	Cy_Prot_DisablePpuFixedGrSlaveStruct:
 2075              	.LFB59:
1188:Generated_Source\PSoC6\pdl\drivers\peripheral\prot/cy_prot.c **** 
1189:Generated_Source\PSoC6\pdl\drivers\peripheral\prot/cy_prot.c **** 
1190:Generated_Source\PSoC6\pdl\drivers\peripheral\prot/cy_prot.c **** /*******************************************************************************
1191:Generated_Source\PSoC6\pdl\drivers\peripheral\prot/cy_prot.c **** * Function Name: Cy_Prot_DisablePpuFixedGrSlaveStruct
1192:Generated_Source\PSoC6\pdl\drivers\peripheral\prot/cy_prot.c **** ****************************************************************************//**
1193:Generated_Source\PSoC6\pdl\drivers\peripheral\prot/cy_prot.c **** *
1194:Generated_Source\PSoC6\pdl\drivers\peripheral\prot/cy_prot.c **** * \brief Disables the Slave PPU GR structure.
1195:Generated_Source\PSoC6\pdl\drivers\peripheral\prot/cy_prot.c **** *
1196:Generated_Source\PSoC6\pdl\drivers\peripheral\prot/cy_prot.c **** * This is a PPU GR slave struct disable function. The PPU GR protection 
1197:Generated_Source\PSoC6\pdl\drivers\peripheral\prot/cy_prot.c **** * settings will seize to take effect after successful completion of this 
ARM GAS  C:\Users\gjl\AppData\Local\Temp\cc7xIfgu.s 			page 59


1198:Generated_Source\PSoC6\pdl\drivers\peripheral\prot/cy_prot.c **** * function call.
1199:Generated_Source\PSoC6\pdl\drivers\peripheral\prot/cy_prot.c **** *
1200:Generated_Source\PSoC6\pdl\drivers\peripheral\prot/cy_prot.c **** * \param base
1201:Generated_Source\PSoC6\pdl\drivers\peripheral\prot/cy_prot.c **** * The base address for the protection unit structure being configured. 
1202:Generated_Source\PSoC6\pdl\drivers\peripheral\prot/cy_prot.c **** *
1203:Generated_Source\PSoC6\pdl\drivers\peripheral\prot/cy_prot.c **** * \return
1204:Generated_Source\PSoC6\pdl\drivers\peripheral\prot/cy_prot.c **** * Status of the function call.
1205:Generated_Source\PSoC6\pdl\drivers\peripheral\prot/cy_prot.c **** *
1206:Generated_Source\PSoC6\pdl\drivers\peripheral\prot/cy_prot.c **** *   Status               | Description
1207:Generated_Source\PSoC6\pdl\drivers\peripheral\prot/cy_prot.c **** *   ------------         | -----------
1208:Generated_Source\PSoC6\pdl\drivers\peripheral\prot/cy_prot.c **** *   CY_PROT_SUCCESS      | The Slave PU struct was disabled
1209:Generated_Source\PSoC6\pdl\drivers\peripheral\prot/cy_prot.c **** *   CY_PROT_FAILURE      | The Slave PU struct is enabled and possibly locked
1210:Generated_Source\PSoC6\pdl\drivers\peripheral\prot/cy_prot.c **** *
1211:Generated_Source\PSoC6\pdl\drivers\peripheral\prot/cy_prot.c **** * \funcusage
1212:Generated_Source\PSoC6\pdl\drivers\peripheral\prot/cy_prot.c **** * \snippet prot/prot_v1_10_sut_01.cydsn/main_cm4.c snippet_Cy_Prot_DisablePpuFixedGrSlaveStruct
1213:Generated_Source\PSoC6\pdl\drivers\peripheral\prot/cy_prot.c **** *
1214:Generated_Source\PSoC6\pdl\drivers\peripheral\prot/cy_prot.c **** *******************************************************************************/
1215:Generated_Source\PSoC6\pdl\drivers\peripheral\prot/cy_prot.c **** cy_en_prot_status_t Cy_Prot_DisablePpuFixedGrSlaveStruct(PERI_PPU_GR_Type* base)
1216:Generated_Source\PSoC6\pdl\drivers\peripheral\prot/cy_prot.c **** {
 2076              		.loc 1 1216 0
 2077              		.cfi_startproc
 2078              		@ args = 0, pretend = 0, frame = 0
 2079              		@ frame_needed = 0, uses_anonymous_args = 0
 2080              		@ link register save eliminated.
 2081              	.LVL168:
1217:Generated_Source\PSoC6\pdl\drivers\peripheral\prot/cy_prot.c ****     cy_en_prot_status_t status;
1218:Generated_Source\PSoC6\pdl\drivers\peripheral\prot/cy_prot.c ****     
1219:Generated_Source\PSoC6\pdl\drivers\peripheral\prot/cy_prot.c ****     base->ATT0 &= ~_VAL2FLD(PERI_PPU_GR_ATT0_ENABLED, CY_PROT_STRUCT_ENABLE);
 2082              		.loc 1 1219 0
 2083 0000 4368     		ldr	r3, [r0, #4]
 2084 0002 5B00     		lsls	r3, r3, #1
 2085 0004 5B08     		lsrs	r3, r3, #1
 2086 0006 4360     		str	r3, [r0, #4]
1220:Generated_Source\PSoC6\pdl\drivers\peripheral\prot/cy_prot.c ****     status = (_FLD2VAL(PERI_PPU_GR_ATT0_ENABLED, base->ATT0) == CY_PROT_STRUCT_ENABLE) ?
 2087              		.loc 1 1220 0
 2088 0008 4368     		ldr	r3, [r0, #4]
 2089 000a 002B     		cmp	r3, #0
 2090 000c 01DA     		bge	.L186
 2091 000e 0248     		ldr	r0, .L187
 2092              	.LVL169:
 2093 0010 00E0     		b	.L185
 2094              	.LVL170:
 2095              	.L186:
 2096 0012 0020     		movs	r0, #0
 2097              	.LVL171:
 2098              	.L185:
1221:Generated_Source\PSoC6\pdl\drivers\peripheral\prot/cy_prot.c ****                 CY_PROT_FAILURE : CY_PROT_SUCCESS;
1222:Generated_Source\PSoC6\pdl\drivers\peripheral\prot/cy_prot.c ****     
1223:Generated_Source\PSoC6\pdl\drivers\peripheral\prot/cy_prot.c ****     return status;
1224:Generated_Source\PSoC6\pdl\drivers\peripheral\prot/cy_prot.c **** }
 2099              		.loc 1 1224 0 discriminator 4
 2100              		@ sp needed
 2101 0014 7047     		bx	lr
 2102              	.L188:
 2103 0016 C046     		.align	2
 2104              	.L187:
 2105 0018 0300C200 		.word	12713987
ARM GAS  C:\Users\gjl\AppData\Local\Temp\cc7xIfgu.s 			page 60


 2106              		.cfi_endproc
 2107              	.LFE59:
 2108              		.size	Cy_Prot_DisablePpuFixedGrSlaveStruct, .-Cy_Prot_DisablePpuFixedGrSlaveStruct
 2109              		.section	.text.Cy_Prot_ConfigPpuFixedSlMasterStruct,"ax",%progbits
 2110              		.align	2
 2111              		.global	Cy_Prot_ConfigPpuFixedSlMasterStruct
 2112              		.code	16
 2113              		.thumb_func
 2114              		.type	Cy_Prot_ConfigPpuFixedSlMasterStruct, %function
 2115              	Cy_Prot_ConfigPpuFixedSlMasterStruct:
 2116              	.LFB60:
1225:Generated_Source\PSoC6\pdl\drivers\peripheral\prot/cy_prot.c **** 
1226:Generated_Source\PSoC6\pdl\drivers\peripheral\prot/cy_prot.c **** 
1227:Generated_Source\PSoC6\pdl\drivers\peripheral\prot/cy_prot.c **** /*******************************************************************************
1228:Generated_Source\PSoC6\pdl\drivers\peripheral\prot/cy_prot.c **** * Function Name: Cy_Prot_ConfigPpuFixedSlMasterStruct
1229:Generated_Source\PSoC6\pdl\drivers\peripheral\prot/cy_prot.c **** ****************************************************************************//**
1230:Generated_Source\PSoC6\pdl\drivers\peripheral\prot/cy_prot.c **** *
1231:Generated_Source\PSoC6\pdl\drivers\peripheral\prot/cy_prot.c **** * \brief Configures a Fixed Peripheral Slave Protection Unit (PPU SL) master 
1232:Generated_Source\PSoC6\pdl\drivers\peripheral\prot/cy_prot.c **** * protection struct with its protection attributes. 
1233:Generated_Source\PSoC6\pdl\drivers\peripheral\prot/cy_prot.c **** *
1234:Generated_Source\PSoC6\pdl\drivers\peripheral\prot/cy_prot.c **** * This function configures the master struct governing the corresponding slave
1235:Generated_Source\PSoC6\pdl\drivers\peripheral\prot/cy_prot.c **** * struct pair. It is a mechanism to protect the slave PPU SL struct. Since
1236:Generated_Source\PSoC6\pdl\drivers\peripheral\prot/cy_prot.c **** * the memory location of the slave struct is known, the address, regionSize and
1237:Generated_Source\PSoC6\pdl\drivers\peripheral\prot/cy_prot.c **** * subregions of the configuration struct are not applicable.
1238:Generated_Source\PSoC6\pdl\drivers\peripheral\prot/cy_prot.c **** *
1239:Generated_Source\PSoC6\pdl\drivers\peripheral\prot/cy_prot.c **** * Note that only the user/privileged write permissions are configurable. The 
1240:Generated_Source\PSoC6\pdl\drivers\peripheral\prot/cy_prot.c **** * read and execute permissions are read-only and cannot be configured.
1241:Generated_Source\PSoC6\pdl\drivers\peripheral\prot/cy_prot.c **** *
1242:Generated_Source\PSoC6\pdl\drivers\peripheral\prot/cy_prot.c **** * \param base
1243:Generated_Source\PSoC6\pdl\drivers\peripheral\prot/cy_prot.c **** * The register base address of the protection struct being configured.
1244:Generated_Source\PSoC6\pdl\drivers\peripheral\prot/cy_prot.c **** * 
1245:Generated_Source\PSoC6\pdl\drivers\peripheral\prot/cy_prot.c **** * \param config
1246:Generated_Source\PSoC6\pdl\drivers\peripheral\prot/cy_prot.c **** * Initialization structure with all the protection attributes.
1247:Generated_Source\PSoC6\pdl\drivers\peripheral\prot/cy_prot.c **** * 
1248:Generated_Source\PSoC6\pdl\drivers\peripheral\prot/cy_prot.c **** * \return
1249:Generated_Source\PSoC6\pdl\drivers\peripheral\prot/cy_prot.c **** * Status of the function call.
1250:Generated_Source\PSoC6\pdl\drivers\peripheral\prot/cy_prot.c **** *
1251:Generated_Source\PSoC6\pdl\drivers\peripheral\prot/cy_prot.c **** *   Status               | Description
1252:Generated_Source\PSoC6\pdl\drivers\peripheral\prot/cy_prot.c **** *   ------------         | -----------
1253:Generated_Source\PSoC6\pdl\drivers\peripheral\prot/cy_prot.c **** *   CY_PROT_SUCCESS      | PPU SL master struct was successfully configured
1254:Generated_Source\PSoC6\pdl\drivers\peripheral\prot/cy_prot.c **** *   CY_PROT_FAILURE      | The resource is locked
1255:Generated_Source\PSoC6\pdl\drivers\peripheral\prot/cy_prot.c **** *   CY_PROT_BAD_PARAM    | An incorrect/invalid parameter was passed
1256:Generated_Source\PSoC6\pdl\drivers\peripheral\prot/cy_prot.c **** *
1257:Generated_Source\PSoC6\pdl\drivers\peripheral\prot/cy_prot.c **** * \funcusage
1258:Generated_Source\PSoC6\pdl\drivers\peripheral\prot/cy_prot.c **** * \snippet prot/prot_v1_10_sut_01.cydsn/main_cm4.c snippet_Cy_Prot_ConfigPpuFixedSlMasterStruct
1259:Generated_Source\PSoC6\pdl\drivers\peripheral\prot/cy_prot.c **** *
1260:Generated_Source\PSoC6\pdl\drivers\peripheral\prot/cy_prot.c **** *******************************************************************************/
1261:Generated_Source\PSoC6\pdl\drivers\peripheral\prot/cy_prot.c **** cy_en_prot_status_t Cy_Prot_ConfigPpuFixedSlMasterStruct(PERI_GR_PPU_SL_Type* base, const cy_stc_pp
1262:Generated_Source\PSoC6\pdl\drivers\peripheral\prot/cy_prot.c **** {
 2117              		.loc 1 1262 0
 2118              		.cfi_startproc
 2119              		@ args = 0, pretend = 0, frame = 0
 2120              		@ frame_needed = 0, uses_anonymous_args = 0
 2121              	.LVL172:
 2122 0000 70B5     		push	{r4, r5, r6, lr}
 2123              		.cfi_def_cfa_offset 16
 2124              		.cfi_offset 4, -16
ARM GAS  C:\Users\gjl\AppData\Local\Temp\cc7xIfgu.s 			page 61


 2125              		.cfi_offset 5, -12
 2126              		.cfi_offset 6, -8
 2127              		.cfi_offset 14, -4
 2128 0002 0500     		movs	r5, r0
 2129 0004 0C00     		movs	r4, r1
1263:Generated_Source\PSoC6\pdl\drivers\peripheral\prot/cy_prot.c ****     cy_en_prot_status_t status;
1264:Generated_Source\PSoC6\pdl\drivers\peripheral\prot/cy_prot.c ****     uint32_t attReg;
1265:Generated_Source\PSoC6\pdl\drivers\peripheral\prot/cy_prot.c ****     
1266:Generated_Source\PSoC6\pdl\drivers\peripheral\prot/cy_prot.c ****     CY_ASSERT_L1(NULL != base);
 2130              		.loc 1 1266 0
 2131 0006 0028     		cmp	r0, #0
 2132 0008 03D1     		bne	.L190
 2133              		.loc 1 1266 0 is_stmt 0 discriminator 1
 2134 000a 2549     		ldr	r1, .L197
 2135              	.LVL173:
 2136 000c 2548     		ldr	r0, .L197+4
 2137              	.LVL174:
 2138 000e FFF7FEFF 		bl	Cy_SysLib_AssertFailed
 2139              	.LVL175:
 2140              	.L190:
1267:Generated_Source\PSoC6\pdl\drivers\peripheral\prot/cy_prot.c ****     CY_ASSERT_L3(CY_PROT_IS_FIXED_MS_PERM_VALID(config->userPermission));
 2141              		.loc 1 1267 0 is_stmt 1
 2142 0012 2378     		ldrb	r3, [r4]
 2143 0014 012B     		cmp	r3, #1
 2144 0016 05D0     		beq	.L191
 2145              		.loc 1 1267 0 is_stmt 0 discriminator 1
 2146 0018 032B     		cmp	r3, #3
 2147 001a 03D0     		beq	.L191
 2148              		.loc 1 1267 0 discriminator 2
 2149 001c 2249     		ldr	r1, .L197+8
 2150 001e 2148     		ldr	r0, .L197+4
 2151 0020 FFF7FEFF 		bl	Cy_SysLib_AssertFailed
 2152              	.LVL176:
 2153              	.L191:
1268:Generated_Source\PSoC6\pdl\drivers\peripheral\prot/cy_prot.c ****     CY_ASSERT_L3(CY_PROT_IS_FIXED_MS_PERM_VALID(config->privPermission));
 2154              		.loc 1 1268 0 is_stmt 1
 2155 0024 6378     		ldrb	r3, [r4, #1]
 2156 0026 012B     		cmp	r3, #1
 2157 0028 05D0     		beq	.L192
 2158              		.loc 1 1268 0 is_stmt 0 discriminator 1
 2159 002a 032B     		cmp	r3, #3
 2160 002c 03D0     		beq	.L192
 2161              		.loc 1 1268 0 discriminator 2
 2162 002e 1F49     		ldr	r1, .L197+12
 2163 0030 1C48     		ldr	r0, .L197+4
 2164 0032 FFF7FEFF 		bl	Cy_SysLib_AssertFailed
 2165              	.LVL177:
 2166              	.L192:
1269:Generated_Source\PSoC6\pdl\drivers\peripheral\prot/cy_prot.c ****     
1270:Generated_Source\PSoC6\pdl\drivers\peripheral\prot/cy_prot.c ****     if(((uint32_t)config->pcMask & CY_PROT_PPU_FIXED_PC_LIMIT_MASK) != 0UL) 
 2167              		.loc 1 1270 0 is_stmt 1
 2168 0036 A188     		ldrh	r1, [r4, #4]
 2169 0038 7F23     		movs	r3, #127
 2170 003a 0A00     		movs	r2, r1
 2171 003c 9A43     		bics	r2, r3
 2172 003e 28D1     		bne	.L194
1271:Generated_Source\PSoC6\pdl\drivers\peripheral\prot/cy_prot.c ****     {
ARM GAS  C:\Users\gjl\AppData\Local\Temp\cc7xIfgu.s 			page 62


1272:Generated_Source\PSoC6\pdl\drivers\peripheral\prot/cy_prot.c ****         /* PC mask out of range - not supported in device */
1273:Generated_Source\PSoC6\pdl\drivers\peripheral\prot/cy_prot.c ****         status = CY_PROT_BAD_PARAM;
1274:Generated_Source\PSoC6\pdl\drivers\peripheral\prot/cy_prot.c ****     }
1275:Generated_Source\PSoC6\pdl\drivers\peripheral\prot/cy_prot.c ****     else
1276:Generated_Source\PSoC6\pdl\drivers\peripheral\prot/cy_prot.c ****     {
1277:Generated_Source\PSoC6\pdl\drivers\peripheral\prot/cy_prot.c ****         /* ADDR1 is read only. Only configure ATT1 */
1278:Generated_Source\PSoC6\pdl\drivers\peripheral\prot/cy_prot.c ****         attReg = ((uint32_t)config->userPermission & CY_PROT_ATT_PERMISSION_MASK)
 2173              		.loc 1 1278 0
 2174 0040 2378     		ldrb	r3, [r4]
 2175 0042 0720     		movs	r0, #7
 2176 0044 1840     		ands	r0, r3
1279:Generated_Source\PSoC6\pdl\drivers\peripheral\prot/cy_prot.c ****                     | (uint32_t)(((uint32_t)config->privPermission & CY_PROT_ATT_PERMISSION_MASK) <
 2177              		.loc 1 1279 0
 2178 0046 6278     		ldrb	r2, [r4, #1]
 2179 0048 D200     		lsls	r2, r2, #3
 2180 004a 3823     		movs	r3, #56
 2181 004c 1340     		ands	r3, r2
 2182 004e 1843     		orrs	r0, r3
1280:Generated_Source\PSoC6\pdl\drivers\peripheral\prot/cy_prot.c ****                     | _VAL2FLD(PERI_GR_PPU_SL_ATT1_NS, !(config->secure))
 2183              		.loc 1 1280 0
 2184 0050 A378     		ldrb	r3, [r4, #2]
 2185 0052 0122     		movs	r2, #1
 2186 0054 5A40     		eors	r2, r3
 2187 0056 D2B2     		uxtb	r2, r2
 2188 0058 9201     		lsls	r2, r2, #6
 2189 005a 4023     		movs	r3, #64
 2190 005c 1A40     		ands	r2, r3
 2191 005e 0300     		movs	r3, r0
 2192 0060 1343     		orrs	r3, r2
1281:Generated_Source\PSoC6\pdl\drivers\peripheral\prot/cy_prot.c ****                     | _VAL2FLD(PERI_GR_PPU_SL_ATT1_PC_MASK_15_TO_1, config->pcMask)
 2193              		.loc 1 1281 0
 2194 0062 4902     		lsls	r1, r1, #9
 2195 0064 124A     		ldr	r2, .L197+16
 2196 0066 1140     		ands	r1, r2
 2197 0068 1943     		orrs	r1, r3
1282:Generated_Source\PSoC6\pdl\drivers\peripheral\prot/cy_prot.c ****                     /* No region size - read only for master structs */
1283:Generated_Source\PSoC6\pdl\drivers\peripheral\prot/cy_prot.c ****                     | _VAL2FLD(PERI_GR_PPU_SL_ATT1_PC_MATCH, config->pcMatch);
 2198              		.loc 1 1283 0
 2199 006a E378     		ldrb	r3, [r4, #3]
 2200 006c 9B07     		lsls	r3, r3, #30
 2201 006e 8020     		movs	r0, #128
 2202 0070 C005     		lsls	r0, r0, #23
 2203 0072 0340     		ands	r3, r0
 2204 0074 1A00     		movs	r2, r3
1278:Generated_Source\PSoC6\pdl\drivers\peripheral\prot/cy_prot.c ****                     | (uint32_t)(((uint32_t)config->privPermission & CY_PROT_ATT_PERMISSION_MASK) <
 2205              		.loc 1 1278 0
 2206 0076 0B00     		movs	r3, r1
 2207 0078 1343     		orrs	r3, r2
 2208              	.LVL178:
1284:Generated_Source\PSoC6\pdl\drivers\peripheral\prot/cy_prot.c ****         if ((attReg & CY_PROT_PPU_SL_ATT1_MASK) != attReg)
 2209              		.loc 1 1284 0
 2210 007a 0E4A     		ldr	r2, .L197+20
 2211 007c 1A40     		ands	r2, r3
 2212 007e 9342     		cmp	r3, r2
 2213 0080 09D1     		bne	.L195
1285:Generated_Source\PSoC6\pdl\drivers\peripheral\prot/cy_prot.c ****         {
1286:Generated_Source\PSoC6\pdl\drivers\peripheral\prot/cy_prot.c ****             /* Invalid parameter was passed */
ARM GAS  C:\Users\gjl\AppData\Local\Temp\cc7xIfgu.s 			page 63


1287:Generated_Source\PSoC6\pdl\drivers\peripheral\prot/cy_prot.c ****             status = CY_PROT_BAD_PARAM;
1288:Generated_Source\PSoC6\pdl\drivers\peripheral\prot/cy_prot.c ****         }
1289:Generated_Source\PSoC6\pdl\drivers\peripheral\prot/cy_prot.c ****         else
1290:Generated_Source\PSoC6\pdl\drivers\peripheral\prot/cy_prot.c ****         {
1291:Generated_Source\PSoC6\pdl\drivers\peripheral\prot/cy_prot.c ****             base->ATT1 = attReg;
 2214              		.loc 1 1291 0
 2215 0082 6B62     		str	r3, [r5, #36]
1292:Generated_Source\PSoC6\pdl\drivers\peripheral\prot/cy_prot.c ****             status = ((base->ATT1 & CY_PROT_PPU_SL_ATT1_MASK) != attReg) ? CY_PROT_FAILURE : CY_PRO
 2216              		.loc 1 1292 0
 2217 0084 696A     		ldr	r1, [r5, #36]
 2218 0086 0B4A     		ldr	r2, .L197+20
 2219 0088 0A40     		ands	r2, r1
 2220 008a 9342     		cmp	r3, r2
 2221 008c 05D0     		beq	.L196
 2222 008e 0A48     		ldr	r0, .L197+24
 2223 0090 04E0     		b	.L193
 2224              	.LVL179:
 2225              	.L194:
1273:Generated_Source\PSoC6\pdl\drivers\peripheral\prot/cy_prot.c ****     }
 2226              		.loc 1 1273 0
 2227 0092 0A48     		ldr	r0, .L197+28
 2228 0094 02E0     		b	.L193
 2229              	.LVL180:
 2230              	.L195:
1287:Generated_Source\PSoC6\pdl\drivers\peripheral\prot/cy_prot.c ****         }
 2231              		.loc 1 1287 0
 2232 0096 0948     		ldr	r0, .L197+28
 2233 0098 00E0     		b	.L193
 2234              	.L196:
 2235              		.loc 1 1292 0
 2236 009a 0020     		movs	r0, #0
 2237              	.LVL181:
 2238              	.L193:
1293:Generated_Source\PSoC6\pdl\drivers\peripheral\prot/cy_prot.c ****         }
1294:Generated_Source\PSoC6\pdl\drivers\peripheral\prot/cy_prot.c ****     }
1295:Generated_Source\PSoC6\pdl\drivers\peripheral\prot/cy_prot.c ****     
1296:Generated_Source\PSoC6\pdl\drivers\peripheral\prot/cy_prot.c ****     return status;
1297:Generated_Source\PSoC6\pdl\drivers\peripheral\prot/cy_prot.c **** }
 2239              		.loc 1 1297 0
 2240              		@ sp needed
 2241              	.LVL182:
 2242              	.LVL183:
 2243 009c 70BD     		pop	{r4, r5, r6, pc}
 2244              	.L198:
 2245 009e C046     		.align	2
 2246              	.L197:
 2247 00a0 F2040000 		.word	1266
 2248 00a4 00000000 		.word	.LC0
 2249 00a8 F3040000 		.word	1267
 2250 00ac F4040000 		.word	1268
 2251 00b0 00FEFF00 		.word	16776704
 2252 00b4 DBFEFFE0 		.word	-520093989
 2253 00b8 0300C200 		.word	12713987
 2254 00bc 0100C200 		.word	12713985
 2255              		.cfi_endproc
 2256              	.LFE60:
 2257              		.size	Cy_Prot_ConfigPpuFixedSlMasterStruct, .-Cy_Prot_ConfigPpuFixedSlMasterStruct
ARM GAS  C:\Users\gjl\AppData\Local\Temp\cc7xIfgu.s 			page 64


 2258              		.section	.text.Cy_Prot_ConfigPpuFixedSlSlaveStruct,"ax",%progbits
 2259              		.align	2
 2260              		.global	Cy_Prot_ConfigPpuFixedSlSlaveStruct
 2261              		.code	16
 2262              		.thumb_func
 2263              		.type	Cy_Prot_ConfigPpuFixedSlSlaveStruct, %function
 2264              	Cy_Prot_ConfigPpuFixedSlSlaveStruct:
 2265              	.LFB61:
1298:Generated_Source\PSoC6\pdl\drivers\peripheral\prot/cy_prot.c **** 
1299:Generated_Source\PSoC6\pdl\drivers\peripheral\prot/cy_prot.c **** 
1300:Generated_Source\PSoC6\pdl\drivers\peripheral\prot/cy_prot.c **** /*******************************************************************************
1301:Generated_Source\PSoC6\pdl\drivers\peripheral\prot/cy_prot.c **** * Function Name: Cy_Prot_ConfigPpuFixedSlSlaveStruct
1302:Generated_Source\PSoC6\pdl\drivers\peripheral\prot/cy_prot.c **** ****************************************************************************//**
1303:Generated_Source\PSoC6\pdl\drivers\peripheral\prot/cy_prot.c **** *
1304:Generated_Source\PSoC6\pdl\drivers\peripheral\prot/cy_prot.c **** * \brief Configures a Fixed Peripheral Slave Protection Unit (PPU SL) slave
1305:Generated_Source\PSoC6\pdl\drivers\peripheral\prot/cy_prot.c **** * protection struct with its protection attributes. 
1306:Generated_Source\PSoC6\pdl\drivers\peripheral\prot/cy_prot.c **** * 
1307:Generated_Source\PSoC6\pdl\drivers\peripheral\prot/cy_prot.c **** * This function configures the slave struct of a PPU SL pair, which can 
1308:Generated_Source\PSoC6\pdl\drivers\peripheral\prot/cy_prot.c **** * protect an entire peripheral slave instance from invalid bus master accesses.
1309:Generated_Source\PSoC6\pdl\drivers\peripheral\prot/cy_prot.c **** * For example, TCPWM0, TCPWM1, SCB0 and SCB1 etc.
1310:Generated_Source\PSoC6\pdl\drivers\peripheral\prot/cy_prot.c **** *
1311:Generated_Source\PSoC6\pdl\drivers\peripheral\prot/cy_prot.c **** * Each fixed PPU SL is devoted to a defined peripheral slave. Hence the address, 
1312:Generated_Source\PSoC6\pdl\drivers\peripheral\prot/cy_prot.c **** * regionSize and subregions of the configuration struct are not applicable.
1313:Generated_Source\PSoC6\pdl\drivers\peripheral\prot/cy_prot.c **** *
1314:Generated_Source\PSoC6\pdl\drivers\peripheral\prot/cy_prot.c **** * Note that the user/privileged execute accesses are read-only and are always 
1315:Generated_Source\PSoC6\pdl\drivers\peripheral\prot/cy_prot.c **** * enabled. 
1316:Generated_Source\PSoC6\pdl\drivers\peripheral\prot/cy_prot.c **** *
1317:Generated_Source\PSoC6\pdl\drivers\peripheral\prot/cy_prot.c **** * \param base
1318:Generated_Source\PSoC6\pdl\drivers\peripheral\prot/cy_prot.c **** * The register base address of the protection structure being configured.
1319:Generated_Source\PSoC6\pdl\drivers\peripheral\prot/cy_prot.c **** * 
1320:Generated_Source\PSoC6\pdl\drivers\peripheral\prot/cy_prot.c **** * \param config
1321:Generated_Source\PSoC6\pdl\drivers\peripheral\prot/cy_prot.c **** * Initialization structure with all the protection attributes.
1322:Generated_Source\PSoC6\pdl\drivers\peripheral\prot/cy_prot.c **** * 
1323:Generated_Source\PSoC6\pdl\drivers\peripheral\prot/cy_prot.c **** * \return
1324:Generated_Source\PSoC6\pdl\drivers\peripheral\prot/cy_prot.c **** * Status of the function call.
1325:Generated_Source\PSoC6\pdl\drivers\peripheral\prot/cy_prot.c **** *
1326:Generated_Source\PSoC6\pdl\drivers\peripheral\prot/cy_prot.c **** *   Status               | Description
1327:Generated_Source\PSoC6\pdl\drivers\peripheral\prot/cy_prot.c **** *   ------------         | -----------
1328:Generated_Source\PSoC6\pdl\drivers\peripheral\prot/cy_prot.c **** *   CY_PROT_SUCCESS      | PPU SL slave struct was successfully configured
1329:Generated_Source\PSoC6\pdl\drivers\peripheral\prot/cy_prot.c **** *   CY_PROT_FAILURE      | The resource is locked
1330:Generated_Source\PSoC6\pdl\drivers\peripheral\prot/cy_prot.c **** *   CY_PROT_BAD_PARAM    | An incorrect/invalid parameter was passed
1331:Generated_Source\PSoC6\pdl\drivers\peripheral\prot/cy_prot.c **** *
1332:Generated_Source\PSoC6\pdl\drivers\peripheral\prot/cy_prot.c **** * \funcusage
1333:Generated_Source\PSoC6\pdl\drivers\peripheral\prot/cy_prot.c **** * \snippet prot/prot_v1_10_sut_01.cydsn/main_cm4.c snippet_Cy_Prot_ConfigPpuFixedSlSlaveStruct
1334:Generated_Source\PSoC6\pdl\drivers\peripheral\prot/cy_prot.c **** *
1335:Generated_Source\PSoC6\pdl\drivers\peripheral\prot/cy_prot.c **** *******************************************************************************/
1336:Generated_Source\PSoC6\pdl\drivers\peripheral\prot/cy_prot.c **** cy_en_prot_status_t Cy_Prot_ConfigPpuFixedSlSlaveStruct(PERI_GR_PPU_SL_Type* base, const cy_stc_ppu
1337:Generated_Source\PSoC6\pdl\drivers\peripheral\prot/cy_prot.c **** {
 2266              		.loc 1 1337 0
 2267              		.cfi_startproc
 2268              		@ args = 0, pretend = 0, frame = 0
 2269              		@ frame_needed = 0, uses_anonymous_args = 0
 2270              	.LVL184:
 2271 0000 70B5     		push	{r4, r5, r6, lr}
 2272              		.cfi_def_cfa_offset 16
 2273              		.cfi_offset 4, -16
 2274              		.cfi_offset 5, -12
ARM GAS  C:\Users\gjl\AppData\Local\Temp\cc7xIfgu.s 			page 65


 2275              		.cfi_offset 6, -8
 2276              		.cfi_offset 14, -4
 2277 0002 0500     		movs	r5, r0
 2278 0004 0C00     		movs	r4, r1
1338:Generated_Source\PSoC6\pdl\drivers\peripheral\prot/cy_prot.c ****     cy_en_prot_status_t status;
1339:Generated_Source\PSoC6\pdl\drivers\peripheral\prot/cy_prot.c ****     uint32_t attReg;
1340:Generated_Source\PSoC6\pdl\drivers\peripheral\prot/cy_prot.c ****     
1341:Generated_Source\PSoC6\pdl\drivers\peripheral\prot/cy_prot.c ****     CY_ASSERT_L1(NULL != base);
 2279              		.loc 1 1341 0
 2280 0006 0028     		cmp	r0, #0
 2281 0008 03D1     		bne	.L200
 2282              		.loc 1 1341 0 is_stmt 0 discriminator 1
 2283 000a 2349     		ldr	r1, .L207
 2284              	.LVL185:
 2285 000c 2348     		ldr	r0, .L207+4
 2286              	.LVL186:
 2287 000e FFF7FEFF 		bl	Cy_SysLib_AssertFailed
 2288              	.LVL187:
 2289              	.L200:
1342:Generated_Source\PSoC6\pdl\drivers\peripheral\prot/cy_prot.c ****     CY_ASSERT_L3(CY_PROT_IS_FIXED_SL_PERM_VALID(config->userPermission));
 2290              		.loc 1 1342 0 is_stmt 1
 2291 0012 2378     		ldrb	r3, [r4]
 2292 0014 032B     		cmp	r3, #3
 2293 0016 03D9     		bls	.L201
 2294              		.loc 1 1342 0 is_stmt 0 discriminator 1
 2295 0018 2149     		ldr	r1, .L207+8
 2296 001a 2048     		ldr	r0, .L207+4
 2297 001c FFF7FEFF 		bl	Cy_SysLib_AssertFailed
 2298              	.LVL188:
 2299              	.L201:
1343:Generated_Source\PSoC6\pdl\drivers\peripheral\prot/cy_prot.c ****     CY_ASSERT_L3(CY_PROT_IS_FIXED_SL_PERM_VALID(config->privPermission));
 2300              		.loc 1 1343 0 is_stmt 1
 2301 0020 6378     		ldrb	r3, [r4, #1]
 2302 0022 032B     		cmp	r3, #3
 2303 0024 03D9     		bls	.L202
 2304              		.loc 1 1343 0 is_stmt 0 discriminator 1
 2305 0026 1F49     		ldr	r1, .L207+12
 2306 0028 1C48     		ldr	r0, .L207+4
 2307 002a FFF7FEFF 		bl	Cy_SysLib_AssertFailed
 2308              	.LVL189:
 2309              	.L202:
1344:Generated_Source\PSoC6\pdl\drivers\peripheral\prot/cy_prot.c ****     
1345:Generated_Source\PSoC6\pdl\drivers\peripheral\prot/cy_prot.c ****     if(((uint32_t)config->pcMask & CY_PROT_PPU_FIXED_PC_LIMIT_MASK) != 0UL) 
 2310              		.loc 1 1345 0 is_stmt 1
 2311 002e A188     		ldrh	r1, [r4, #4]
 2312 0030 7F23     		movs	r3, #127
 2313 0032 0A00     		movs	r2, r1
 2314 0034 9A43     		bics	r2, r3
 2315 0036 28D1     		bne	.L204
1346:Generated_Source\PSoC6\pdl\drivers\peripheral\prot/cy_prot.c ****     {
1347:Generated_Source\PSoC6\pdl\drivers\peripheral\prot/cy_prot.c ****         /* PC mask out of range - not supported in device */
1348:Generated_Source\PSoC6\pdl\drivers\peripheral\prot/cy_prot.c ****         status = CY_PROT_BAD_PARAM;
1349:Generated_Source\PSoC6\pdl\drivers\peripheral\prot/cy_prot.c ****     }
1350:Generated_Source\PSoC6\pdl\drivers\peripheral\prot/cy_prot.c ****     else
1351:Generated_Source\PSoC6\pdl\drivers\peripheral\prot/cy_prot.c ****     {
1352:Generated_Source\PSoC6\pdl\drivers\peripheral\prot/cy_prot.c ****         /* ADDR0 is read only. Only configure ATT0 */
1353:Generated_Source\PSoC6\pdl\drivers\peripheral\prot/cy_prot.c ****         attReg = ((uint32_t)config->userPermission & CY_PROT_ATT_PERMISSION_MASK)
ARM GAS  C:\Users\gjl\AppData\Local\Temp\cc7xIfgu.s 			page 66


 2316              		.loc 1 1353 0
 2317 0038 2378     		ldrb	r3, [r4]
 2318 003a 0720     		movs	r0, #7
 2319 003c 1840     		ands	r0, r3
1354:Generated_Source\PSoC6\pdl\drivers\peripheral\prot/cy_prot.c ****                     | (uint32_t)(((uint32_t)config->privPermission & CY_PROT_ATT_PERMISSION_MASK) <
 2320              		.loc 1 1354 0
 2321 003e 6278     		ldrb	r2, [r4, #1]
 2322 0040 D200     		lsls	r2, r2, #3
 2323 0042 3823     		movs	r3, #56
 2324 0044 1340     		ands	r3, r2
 2325 0046 1843     		orrs	r0, r3
1355:Generated_Source\PSoC6\pdl\drivers\peripheral\prot/cy_prot.c ****                     | _VAL2FLD(PERI_GR_PPU_SL_ATT0_NS, !(config->secure))
 2326              		.loc 1 1355 0
 2327 0048 A378     		ldrb	r3, [r4, #2]
 2328 004a 0122     		movs	r2, #1
 2329 004c 5A40     		eors	r2, r3
 2330 004e D2B2     		uxtb	r2, r2
 2331 0050 9201     		lsls	r2, r2, #6
 2332 0052 4023     		movs	r3, #64
 2333 0054 1A40     		ands	r2, r3
 2334 0056 0300     		movs	r3, r0
 2335 0058 1343     		orrs	r3, r2
1356:Generated_Source\PSoC6\pdl\drivers\peripheral\prot/cy_prot.c ****                     | _VAL2FLD(PERI_GR_PPU_SL_ATT0_PC_MASK_15_TO_1, config->pcMask)
 2336              		.loc 1 1356 0
 2337 005a 4902     		lsls	r1, r1, #9
 2338 005c 124A     		ldr	r2, .L207+16
 2339 005e 1140     		ands	r1, r2
 2340 0060 1943     		orrs	r1, r3
1357:Generated_Source\PSoC6\pdl\drivers\peripheral\prot/cy_prot.c ****                     /* No region size - read only */
1358:Generated_Source\PSoC6\pdl\drivers\peripheral\prot/cy_prot.c ****                     | _VAL2FLD(PERI_GR_PPU_SL_ATT0_PC_MATCH, config->pcMatch);
 2341              		.loc 1 1358 0
 2342 0062 E378     		ldrb	r3, [r4, #3]
 2343 0064 9B07     		lsls	r3, r3, #30
 2344 0066 8020     		movs	r0, #128
 2345 0068 C005     		lsls	r0, r0, #23
 2346 006a 0340     		ands	r3, r0
 2347 006c 1A00     		movs	r2, r3
1353:Generated_Source\PSoC6\pdl\drivers\peripheral\prot/cy_prot.c ****                     | (uint32_t)(((uint32_t)config->privPermission & CY_PROT_ATT_PERMISSION_MASK) <
 2348              		.loc 1 1353 0
 2349 006e 0B00     		movs	r3, r1
 2350 0070 1343     		orrs	r3, r2
 2351              	.LVL190:
1359:Generated_Source\PSoC6\pdl\drivers\peripheral\prot/cy_prot.c ****         if ((attReg & CY_PROT_PPU_SL_ATT0_MASK) != attReg)
 2352              		.loc 1 1359 0
 2353 0072 0E4A     		ldr	r2, .L207+20
 2354 0074 1A40     		ands	r2, r3
 2355 0076 9342     		cmp	r3, r2
 2356 0078 09D1     		bne	.L205
1360:Generated_Source\PSoC6\pdl\drivers\peripheral\prot/cy_prot.c ****         {
1361:Generated_Source\PSoC6\pdl\drivers\peripheral\prot/cy_prot.c ****             /* Invalid parameter was passed */
1362:Generated_Source\PSoC6\pdl\drivers\peripheral\prot/cy_prot.c ****             status = CY_PROT_BAD_PARAM;
1363:Generated_Source\PSoC6\pdl\drivers\peripheral\prot/cy_prot.c ****         }
1364:Generated_Source\PSoC6\pdl\drivers\peripheral\prot/cy_prot.c ****         else
1365:Generated_Source\PSoC6\pdl\drivers\peripheral\prot/cy_prot.c ****         {
1366:Generated_Source\PSoC6\pdl\drivers\peripheral\prot/cy_prot.c ****             base->ATT0 = attReg;
 2357              		.loc 1 1366 0
 2358 007a 6B60     		str	r3, [r5, #4]
ARM GAS  C:\Users\gjl\AppData\Local\Temp\cc7xIfgu.s 			page 67


1367:Generated_Source\PSoC6\pdl\drivers\peripheral\prot/cy_prot.c ****             status = ((base->ATT0 & CY_PROT_PPU_SL_ATT0_MASK) != attReg) ? CY_PROT_FAILURE : CY_PRO
 2359              		.loc 1 1367 0
 2360 007c 6968     		ldr	r1, [r5, #4]
 2361 007e 0B4A     		ldr	r2, .L207+20
 2362 0080 0A40     		ands	r2, r1
 2363 0082 9342     		cmp	r3, r2
 2364 0084 05D0     		beq	.L206
 2365 0086 0A48     		ldr	r0, .L207+24
 2366 0088 04E0     		b	.L203
 2367              	.LVL191:
 2368              	.L204:
1348:Generated_Source\PSoC6\pdl\drivers\peripheral\prot/cy_prot.c ****     }
 2369              		.loc 1 1348 0
 2370 008a 0A48     		ldr	r0, .L207+28
 2371 008c 02E0     		b	.L203
 2372              	.LVL192:
 2373              	.L205:
1362:Generated_Source\PSoC6\pdl\drivers\peripheral\prot/cy_prot.c ****         }
 2374              		.loc 1 1362 0
 2375 008e 0948     		ldr	r0, .L207+28
 2376 0090 00E0     		b	.L203
 2377              	.L206:
 2378              		.loc 1 1367 0
 2379 0092 0020     		movs	r0, #0
 2380              	.LVL193:
 2381              	.L203:
1368:Generated_Source\PSoC6\pdl\drivers\peripheral\prot/cy_prot.c ****         }
1369:Generated_Source\PSoC6\pdl\drivers\peripheral\prot/cy_prot.c ****     }
1370:Generated_Source\PSoC6\pdl\drivers\peripheral\prot/cy_prot.c ****     
1371:Generated_Source\PSoC6\pdl\drivers\peripheral\prot/cy_prot.c ****     return status;
1372:Generated_Source\PSoC6\pdl\drivers\peripheral\prot/cy_prot.c **** }
 2382              		.loc 1 1372 0
 2383              		@ sp needed
 2384              	.LVL194:
 2385              	.LVL195:
 2386 0094 70BD     		pop	{r4, r5, r6, pc}
 2387              	.L208:
 2388 0096 C046     		.align	2
 2389              	.L207:
 2390 0098 3D050000 		.word	1341
 2391 009c 00000000 		.word	.LC0
 2392 00a0 3E050000 		.word	1342
 2393 00a4 3F050000 		.word	1343
 2394 00a8 00FEFF00 		.word	16776704
 2395 00ac DBFEFFE0 		.word	-520093989
 2396 00b0 0300C200 		.word	12713987
 2397 00b4 0100C200 		.word	12713985
 2398              		.cfi_endproc
 2399              	.LFE61:
 2400              		.size	Cy_Prot_ConfigPpuFixedSlSlaveStruct, .-Cy_Prot_ConfigPpuFixedSlSlaveStruct
 2401              		.section	.text.Cy_Prot_EnablePpuFixedSlMasterStruct,"ax",%progbits
 2402              		.align	2
 2403              		.global	Cy_Prot_EnablePpuFixedSlMasterStruct
 2404              		.code	16
 2405              		.thumb_func
 2406              		.type	Cy_Prot_EnablePpuFixedSlMasterStruct, %function
 2407              	Cy_Prot_EnablePpuFixedSlMasterStruct:
ARM GAS  C:\Users\gjl\AppData\Local\Temp\cc7xIfgu.s 			page 68


 2408              	.LFB62:
1373:Generated_Source\PSoC6\pdl\drivers\peripheral\prot/cy_prot.c **** 
1374:Generated_Source\PSoC6\pdl\drivers\peripheral\prot/cy_prot.c **** 
1375:Generated_Source\PSoC6\pdl\drivers\peripheral\prot/cy_prot.c **** /*******************************************************************************
1376:Generated_Source\PSoC6\pdl\drivers\peripheral\prot/cy_prot.c **** * Function Name: Cy_Prot_EnablePpuFixedSlMasterStruct
1377:Generated_Source\PSoC6\pdl\drivers\peripheral\prot/cy_prot.c **** ****************************************************************************//**
1378:Generated_Source\PSoC6\pdl\drivers\peripheral\prot/cy_prot.c **** *
1379:Generated_Source\PSoC6\pdl\drivers\peripheral\prot/cy_prot.c **** * \brief Enables the Master PPU SL structure.
1380:Generated_Source\PSoC6\pdl\drivers\peripheral\prot/cy_prot.c **** *
1381:Generated_Source\PSoC6\pdl\drivers\peripheral\prot/cy_prot.c **** * This is a PPU SL master struct enable function. The PPU SL protection 
1382:Generated_Source\PSoC6\pdl\drivers\peripheral\prot/cy_prot.c **** * settings will take effect after successful completion of this function call.
1383:Generated_Source\PSoC6\pdl\drivers\peripheral\prot/cy_prot.c **** *
1384:Generated_Source\PSoC6\pdl\drivers\peripheral\prot/cy_prot.c **** * \param base
1385:Generated_Source\PSoC6\pdl\drivers\peripheral\prot/cy_prot.c **** * The base address for the protection unit structure being configured. 
1386:Generated_Source\PSoC6\pdl\drivers\peripheral\prot/cy_prot.c **** *
1387:Generated_Source\PSoC6\pdl\drivers\peripheral\prot/cy_prot.c **** * \return
1388:Generated_Source\PSoC6\pdl\drivers\peripheral\prot/cy_prot.c **** * Status of the function call.
1389:Generated_Source\PSoC6\pdl\drivers\peripheral\prot/cy_prot.c **** *
1390:Generated_Source\PSoC6\pdl\drivers\peripheral\prot/cy_prot.c **** *   Status               | Description
1391:Generated_Source\PSoC6\pdl\drivers\peripheral\prot/cy_prot.c **** *   ------------         | -----------
1392:Generated_Source\PSoC6\pdl\drivers\peripheral\prot/cy_prot.c **** *   CY_PROT_SUCCESS      | The Master PU struct was enabled
1393:Generated_Source\PSoC6\pdl\drivers\peripheral\prot/cy_prot.c **** *   CY_PROT_FAILURE      | The Master PU struct is disabled and possibly locked
1394:Generated_Source\PSoC6\pdl\drivers\peripheral\prot/cy_prot.c **** *
1395:Generated_Source\PSoC6\pdl\drivers\peripheral\prot/cy_prot.c **** * \funcusage
1396:Generated_Source\PSoC6\pdl\drivers\peripheral\prot/cy_prot.c **** * \snippet prot/prot_v1_10_sut_01.cydsn/main_cm4.c snippet_Cy_Prot_EnablePpuFixedSlMasterStruct
1397:Generated_Source\PSoC6\pdl\drivers\peripheral\prot/cy_prot.c **** *
1398:Generated_Source\PSoC6\pdl\drivers\peripheral\prot/cy_prot.c **** *******************************************************************************/
1399:Generated_Source\PSoC6\pdl\drivers\peripheral\prot/cy_prot.c **** cy_en_prot_status_t Cy_Prot_EnablePpuFixedSlMasterStruct(PERI_GR_PPU_SL_Type* base)
1400:Generated_Source\PSoC6\pdl\drivers\peripheral\prot/cy_prot.c **** {
 2409              		.loc 1 1400 0
 2410              		.cfi_startproc
 2411              		@ args = 0, pretend = 0, frame = 0
 2412              		@ frame_needed = 0, uses_anonymous_args = 0
 2413              		@ link register save eliminated.
 2414              	.LVL196:
1401:Generated_Source\PSoC6\pdl\drivers\peripheral\prot/cy_prot.c ****     cy_en_prot_status_t status;
1402:Generated_Source\PSoC6\pdl\drivers\peripheral\prot/cy_prot.c ****     
1403:Generated_Source\PSoC6\pdl\drivers\peripheral\prot/cy_prot.c ****     base->ATT1 |= _VAL2FLD(PERI_GR_PPU_SL_ATT1_ENABLED, CY_PROT_STRUCT_ENABLE);
 2415              		.loc 1 1403 0
 2416 0000 436A     		ldr	r3, [r0, #36]
 2417 0002 8022     		movs	r2, #128
 2418 0004 1206     		lsls	r2, r2, #24
 2419 0006 1343     		orrs	r3, r2
 2420 0008 4362     		str	r3, [r0, #36]
1404:Generated_Source\PSoC6\pdl\drivers\peripheral\prot/cy_prot.c ****     status = (_FLD2VAL(PERI_GR_PPU_SL_ATT1_ENABLED, base->ATT1) != CY_PROT_STRUCT_ENABLE) ?
 2421              		.loc 1 1404 0
 2422 000a 436A     		ldr	r3, [r0, #36]
 2423 000c 002B     		cmp	r3, #0
 2424 000e 01DB     		blt	.L211
 2425 0010 0148     		ldr	r0, .L212
 2426              	.LVL197:
 2427 0012 00E0     		b	.L210
 2428              	.LVL198:
 2429              	.L211:
 2430 0014 0020     		movs	r0, #0
 2431              	.LVL199:
 2432              	.L210:
ARM GAS  C:\Users\gjl\AppData\Local\Temp\cc7xIfgu.s 			page 69


1405:Generated_Source\PSoC6\pdl\drivers\peripheral\prot/cy_prot.c ****                 CY_PROT_FAILURE : CY_PROT_SUCCESS;
1406:Generated_Source\PSoC6\pdl\drivers\peripheral\prot/cy_prot.c ****     
1407:Generated_Source\PSoC6\pdl\drivers\peripheral\prot/cy_prot.c ****     return status;
1408:Generated_Source\PSoC6\pdl\drivers\peripheral\prot/cy_prot.c **** }
 2433              		.loc 1 1408 0 discriminator 4
 2434              		@ sp needed
 2435 0016 7047     		bx	lr
 2436              	.L213:
 2437              		.align	2
 2438              	.L212:
 2439 0018 0300C200 		.word	12713987
 2440              		.cfi_endproc
 2441              	.LFE62:
 2442              		.size	Cy_Prot_EnablePpuFixedSlMasterStruct, .-Cy_Prot_EnablePpuFixedSlMasterStruct
 2443              		.section	.text.Cy_Prot_DisablePpuFixedSlMasterStruct,"ax",%progbits
 2444              		.align	2
 2445              		.global	Cy_Prot_DisablePpuFixedSlMasterStruct
 2446              		.code	16
 2447              		.thumb_func
 2448              		.type	Cy_Prot_DisablePpuFixedSlMasterStruct, %function
 2449              	Cy_Prot_DisablePpuFixedSlMasterStruct:
 2450              	.LFB63:
1409:Generated_Source\PSoC6\pdl\drivers\peripheral\prot/cy_prot.c **** 
1410:Generated_Source\PSoC6\pdl\drivers\peripheral\prot/cy_prot.c **** 
1411:Generated_Source\PSoC6\pdl\drivers\peripheral\prot/cy_prot.c **** /*******************************************************************************
1412:Generated_Source\PSoC6\pdl\drivers\peripheral\prot/cy_prot.c **** * Function Name: Cy_Prot_DisablePpuFixedSlMasterStruct
1413:Generated_Source\PSoC6\pdl\drivers\peripheral\prot/cy_prot.c **** ****************************************************************************//**
1414:Generated_Source\PSoC6\pdl\drivers\peripheral\prot/cy_prot.c **** *
1415:Generated_Source\PSoC6\pdl\drivers\peripheral\prot/cy_prot.c **** * \brief Disables the Master PPU SL structure.
1416:Generated_Source\PSoC6\pdl\drivers\peripheral\prot/cy_prot.c **** *
1417:Generated_Source\PSoC6\pdl\drivers\peripheral\prot/cy_prot.c **** * This is a PPU SL master struct disable function. The PPU SL protection 
1418:Generated_Source\PSoC6\pdl\drivers\peripheral\prot/cy_prot.c **** * settings will seize to take effect after successful completion of this 
1419:Generated_Source\PSoC6\pdl\drivers\peripheral\prot/cy_prot.c **** * function call.
1420:Generated_Source\PSoC6\pdl\drivers\peripheral\prot/cy_prot.c **** *
1421:Generated_Source\PSoC6\pdl\drivers\peripheral\prot/cy_prot.c **** * \param base
1422:Generated_Source\PSoC6\pdl\drivers\peripheral\prot/cy_prot.c **** * The base address for the protection unit structure being configured. 
1423:Generated_Source\PSoC6\pdl\drivers\peripheral\prot/cy_prot.c **** *
1424:Generated_Source\PSoC6\pdl\drivers\peripheral\prot/cy_prot.c **** * \return
1425:Generated_Source\PSoC6\pdl\drivers\peripheral\prot/cy_prot.c **** * Status of the function call.
1426:Generated_Source\PSoC6\pdl\drivers\peripheral\prot/cy_prot.c **** *
1427:Generated_Source\PSoC6\pdl\drivers\peripheral\prot/cy_prot.c **** *   Status               | Description
1428:Generated_Source\PSoC6\pdl\drivers\peripheral\prot/cy_prot.c **** *   ------------         | -----------
1429:Generated_Source\PSoC6\pdl\drivers\peripheral\prot/cy_prot.c **** *   CY_PROT_SUCCESS      | The Master PU struct was disabled
1430:Generated_Source\PSoC6\pdl\drivers\peripheral\prot/cy_prot.c **** *   CY_PROT_FAILURE      | The Master PU struct is enabled and possibly locked
1431:Generated_Source\PSoC6\pdl\drivers\peripheral\prot/cy_prot.c **** *
1432:Generated_Source\PSoC6\pdl\drivers\peripheral\prot/cy_prot.c **** * \funcusage
1433:Generated_Source\PSoC6\pdl\drivers\peripheral\prot/cy_prot.c **** * \snippet prot/prot_v1_10_sut_01.cydsn/main_cm4.c snippet_Cy_Prot_DisablePpuFixedSlMasterStruct
1434:Generated_Source\PSoC6\pdl\drivers\peripheral\prot/cy_prot.c **** *
1435:Generated_Source\PSoC6\pdl\drivers\peripheral\prot/cy_prot.c **** *******************************************************************************/
1436:Generated_Source\PSoC6\pdl\drivers\peripheral\prot/cy_prot.c **** cy_en_prot_status_t Cy_Prot_DisablePpuFixedSlMasterStruct(PERI_GR_PPU_SL_Type* base)
1437:Generated_Source\PSoC6\pdl\drivers\peripheral\prot/cy_prot.c **** {
 2451              		.loc 1 1437 0
 2452              		.cfi_startproc
 2453              		@ args = 0, pretend = 0, frame = 0
 2454              		@ frame_needed = 0, uses_anonymous_args = 0
 2455              		@ link register save eliminated.
 2456              	.LVL200:
ARM GAS  C:\Users\gjl\AppData\Local\Temp\cc7xIfgu.s 			page 70


1438:Generated_Source\PSoC6\pdl\drivers\peripheral\prot/cy_prot.c ****     cy_en_prot_status_t status;
1439:Generated_Source\PSoC6\pdl\drivers\peripheral\prot/cy_prot.c ****     
1440:Generated_Source\PSoC6\pdl\drivers\peripheral\prot/cy_prot.c ****     base->ATT1 &= ~_VAL2FLD(PERI_GR_PPU_SL_ATT1_ENABLED, CY_PROT_STRUCT_ENABLE);
 2457              		.loc 1 1440 0
 2458 0000 436A     		ldr	r3, [r0, #36]
 2459 0002 5B00     		lsls	r3, r3, #1
 2460 0004 5B08     		lsrs	r3, r3, #1
 2461 0006 4362     		str	r3, [r0, #36]
1441:Generated_Source\PSoC6\pdl\drivers\peripheral\prot/cy_prot.c ****     status = (_FLD2VAL(PERI_GR_PPU_SL_ATT1_ENABLED, base->ATT1) == CY_PROT_STRUCT_ENABLE) ?
 2462              		.loc 1 1441 0
 2463 0008 436A     		ldr	r3, [r0, #36]
 2464 000a 002B     		cmp	r3, #0
 2465 000c 01DA     		bge	.L216
 2466 000e 0248     		ldr	r0, .L217
 2467              	.LVL201:
 2468 0010 00E0     		b	.L215
 2469              	.LVL202:
 2470              	.L216:
 2471 0012 0020     		movs	r0, #0
 2472              	.LVL203:
 2473              	.L215:
1442:Generated_Source\PSoC6\pdl\drivers\peripheral\prot/cy_prot.c ****                 CY_PROT_FAILURE : CY_PROT_SUCCESS;
1443:Generated_Source\PSoC6\pdl\drivers\peripheral\prot/cy_prot.c ****     
1444:Generated_Source\PSoC6\pdl\drivers\peripheral\prot/cy_prot.c ****     return status;
1445:Generated_Source\PSoC6\pdl\drivers\peripheral\prot/cy_prot.c **** }
 2474              		.loc 1 1445 0 discriminator 4
 2475              		@ sp needed
 2476 0014 7047     		bx	lr
 2477              	.L218:
 2478 0016 C046     		.align	2
 2479              	.L217:
 2480 0018 0300C200 		.word	12713987
 2481              		.cfi_endproc
 2482              	.LFE63:
 2483              		.size	Cy_Prot_DisablePpuFixedSlMasterStruct, .-Cy_Prot_DisablePpuFixedSlMasterStruct
 2484              		.section	.text.Cy_Prot_EnablePpuFixedSlSlaveStruct,"ax",%progbits
 2485              		.align	2
 2486              		.global	Cy_Prot_EnablePpuFixedSlSlaveStruct
 2487              		.code	16
 2488              		.thumb_func
 2489              		.type	Cy_Prot_EnablePpuFixedSlSlaveStruct, %function
 2490              	Cy_Prot_EnablePpuFixedSlSlaveStruct:
 2491              	.LFB64:
1446:Generated_Source\PSoC6\pdl\drivers\peripheral\prot/cy_prot.c **** 
1447:Generated_Source\PSoC6\pdl\drivers\peripheral\prot/cy_prot.c **** 
1448:Generated_Source\PSoC6\pdl\drivers\peripheral\prot/cy_prot.c **** /*******************************************************************************
1449:Generated_Source\PSoC6\pdl\drivers\peripheral\prot/cy_prot.c **** * Function Name: Cy_Prot_EnablePpuFixedSlSlaveStruct
1450:Generated_Source\PSoC6\pdl\drivers\peripheral\prot/cy_prot.c **** ****************************************************************************//**
1451:Generated_Source\PSoC6\pdl\drivers\peripheral\prot/cy_prot.c **** *
1452:Generated_Source\PSoC6\pdl\drivers\peripheral\prot/cy_prot.c **** * \brief Enables the Slave PPU SL structure.
1453:Generated_Source\PSoC6\pdl\drivers\peripheral\prot/cy_prot.c **** *
1454:Generated_Source\PSoC6\pdl\drivers\peripheral\prot/cy_prot.c **** * This is a PPU SL slave struct enable function. The PPU SL protection 
1455:Generated_Source\PSoC6\pdl\drivers\peripheral\prot/cy_prot.c **** * settings will take effect after successful completion of this function call.
1456:Generated_Source\PSoC6\pdl\drivers\peripheral\prot/cy_prot.c **** *
1457:Generated_Source\PSoC6\pdl\drivers\peripheral\prot/cy_prot.c **** * \param base
1458:Generated_Source\PSoC6\pdl\drivers\peripheral\prot/cy_prot.c **** * The base address for the protection unit structure being configured. 
1459:Generated_Source\PSoC6\pdl\drivers\peripheral\prot/cy_prot.c **** *
ARM GAS  C:\Users\gjl\AppData\Local\Temp\cc7xIfgu.s 			page 71


1460:Generated_Source\PSoC6\pdl\drivers\peripheral\prot/cy_prot.c **** * \return
1461:Generated_Source\PSoC6\pdl\drivers\peripheral\prot/cy_prot.c **** * Status of the function call.
1462:Generated_Source\PSoC6\pdl\drivers\peripheral\prot/cy_prot.c **** *
1463:Generated_Source\PSoC6\pdl\drivers\peripheral\prot/cy_prot.c **** *   Status               | Description
1464:Generated_Source\PSoC6\pdl\drivers\peripheral\prot/cy_prot.c **** *   ------------         | -----------
1465:Generated_Source\PSoC6\pdl\drivers\peripheral\prot/cy_prot.c **** *   CY_PROT_SUCCESS      | The Slave PU struct was enabled
1466:Generated_Source\PSoC6\pdl\drivers\peripheral\prot/cy_prot.c **** *   CY_PROT_FAILURE      | The Slave PU struct is disabled and possibly locked
1467:Generated_Source\PSoC6\pdl\drivers\peripheral\prot/cy_prot.c **** *
1468:Generated_Source\PSoC6\pdl\drivers\peripheral\prot/cy_prot.c **** * \funcusage
1469:Generated_Source\PSoC6\pdl\drivers\peripheral\prot/cy_prot.c **** * \snippet prot/prot_v1_10_sut_01.cydsn/main_cm4.c snippet_Cy_Prot_EnablePpuFixedSlSlaveStruct
1470:Generated_Source\PSoC6\pdl\drivers\peripheral\prot/cy_prot.c **** *
1471:Generated_Source\PSoC6\pdl\drivers\peripheral\prot/cy_prot.c **** *******************************************************************************/
1472:Generated_Source\PSoC6\pdl\drivers\peripheral\prot/cy_prot.c **** cy_en_prot_status_t Cy_Prot_EnablePpuFixedSlSlaveStruct(PERI_GR_PPU_SL_Type* base)
1473:Generated_Source\PSoC6\pdl\drivers\peripheral\prot/cy_prot.c **** {   
 2492              		.loc 1 1473 0
 2493              		.cfi_startproc
 2494              		@ args = 0, pretend = 0, frame = 0
 2495              		@ frame_needed = 0, uses_anonymous_args = 0
 2496              		@ link register save eliminated.
 2497              	.LVL204:
1474:Generated_Source\PSoC6\pdl\drivers\peripheral\prot/cy_prot.c ****     cy_en_prot_status_t status;
1475:Generated_Source\PSoC6\pdl\drivers\peripheral\prot/cy_prot.c ****     
1476:Generated_Source\PSoC6\pdl\drivers\peripheral\prot/cy_prot.c ****     base->ATT0 |= _VAL2FLD(PERI_GR_PPU_SL_ATT0_ENABLED, CY_PROT_STRUCT_ENABLE);
 2498              		.loc 1 1476 0
 2499 0000 4368     		ldr	r3, [r0, #4]
 2500 0002 8022     		movs	r2, #128
 2501 0004 1206     		lsls	r2, r2, #24
 2502 0006 1343     		orrs	r3, r2
 2503 0008 4360     		str	r3, [r0, #4]
1477:Generated_Source\PSoC6\pdl\drivers\peripheral\prot/cy_prot.c ****     status = (_FLD2VAL(PERI_GR_PPU_SL_ATT0_ENABLED, base->ATT0) != CY_PROT_STRUCT_ENABLE) ?
 2504              		.loc 1 1477 0
 2505 000a 4368     		ldr	r3, [r0, #4]
 2506 000c 002B     		cmp	r3, #0
 2507 000e 01DB     		blt	.L221
 2508 0010 0148     		ldr	r0, .L222
 2509              	.LVL205:
 2510 0012 00E0     		b	.L220
 2511              	.LVL206:
 2512              	.L221:
 2513 0014 0020     		movs	r0, #0
 2514              	.LVL207:
 2515              	.L220:
1478:Generated_Source\PSoC6\pdl\drivers\peripheral\prot/cy_prot.c ****                 CY_PROT_FAILURE : CY_PROT_SUCCESS;
1479:Generated_Source\PSoC6\pdl\drivers\peripheral\prot/cy_prot.c ****     
1480:Generated_Source\PSoC6\pdl\drivers\peripheral\prot/cy_prot.c ****     return status;
1481:Generated_Source\PSoC6\pdl\drivers\peripheral\prot/cy_prot.c **** }
 2516              		.loc 1 1481 0 discriminator 4
 2517              		@ sp needed
 2518 0016 7047     		bx	lr
 2519              	.L223:
 2520              		.align	2
 2521              	.L222:
 2522 0018 0300C200 		.word	12713987
 2523              		.cfi_endproc
 2524              	.LFE64:
 2525              		.size	Cy_Prot_EnablePpuFixedSlSlaveStruct, .-Cy_Prot_EnablePpuFixedSlSlaveStruct
 2526              		.section	.text.Cy_Prot_DisablePpuFixedSlSlaveStruct,"ax",%progbits
ARM GAS  C:\Users\gjl\AppData\Local\Temp\cc7xIfgu.s 			page 72


 2527              		.align	2
 2528              		.global	Cy_Prot_DisablePpuFixedSlSlaveStruct
 2529              		.code	16
 2530              		.thumb_func
 2531              		.type	Cy_Prot_DisablePpuFixedSlSlaveStruct, %function
 2532              	Cy_Prot_DisablePpuFixedSlSlaveStruct:
 2533              	.LFB65:
1482:Generated_Source\PSoC6\pdl\drivers\peripheral\prot/cy_prot.c **** 
1483:Generated_Source\PSoC6\pdl\drivers\peripheral\prot/cy_prot.c **** 
1484:Generated_Source\PSoC6\pdl\drivers\peripheral\prot/cy_prot.c **** /*******************************************************************************
1485:Generated_Source\PSoC6\pdl\drivers\peripheral\prot/cy_prot.c **** * Function Name: Cy_Prot_DisablePpuFixedSlSlaveStruct
1486:Generated_Source\PSoC6\pdl\drivers\peripheral\prot/cy_prot.c **** ****************************************************************************//**
1487:Generated_Source\PSoC6\pdl\drivers\peripheral\prot/cy_prot.c **** *
1488:Generated_Source\PSoC6\pdl\drivers\peripheral\prot/cy_prot.c **** * \brief Disables the Slave PPU SL structure.
1489:Generated_Source\PSoC6\pdl\drivers\peripheral\prot/cy_prot.c **** *
1490:Generated_Source\PSoC6\pdl\drivers\peripheral\prot/cy_prot.c **** * This is a PPU SL slave struct disable function. The PPU SL protection 
1491:Generated_Source\PSoC6\pdl\drivers\peripheral\prot/cy_prot.c **** * settings will seize to take effect after successful completion of this 
1492:Generated_Source\PSoC6\pdl\drivers\peripheral\prot/cy_prot.c **** * function call.
1493:Generated_Source\PSoC6\pdl\drivers\peripheral\prot/cy_prot.c **** *
1494:Generated_Source\PSoC6\pdl\drivers\peripheral\prot/cy_prot.c **** * \param base
1495:Generated_Source\PSoC6\pdl\drivers\peripheral\prot/cy_prot.c **** * The base address for the protection unit structure being configured. 
1496:Generated_Source\PSoC6\pdl\drivers\peripheral\prot/cy_prot.c **** *
1497:Generated_Source\PSoC6\pdl\drivers\peripheral\prot/cy_prot.c **** * \return
1498:Generated_Source\PSoC6\pdl\drivers\peripheral\prot/cy_prot.c **** * Status of the function call.
1499:Generated_Source\PSoC6\pdl\drivers\peripheral\prot/cy_prot.c **** *
1500:Generated_Source\PSoC6\pdl\drivers\peripheral\prot/cy_prot.c **** *   Status               | Description
1501:Generated_Source\PSoC6\pdl\drivers\peripheral\prot/cy_prot.c **** *   ------------         | -----------
1502:Generated_Source\PSoC6\pdl\drivers\peripheral\prot/cy_prot.c **** *   CY_PROT_SUCCESS      | The Slave PU struct was disabled
1503:Generated_Source\PSoC6\pdl\drivers\peripheral\prot/cy_prot.c **** *   CY_PROT_FAILURE      | The Slave PU struct is enabled and possibly locked
1504:Generated_Source\PSoC6\pdl\drivers\peripheral\prot/cy_prot.c **** *
1505:Generated_Source\PSoC6\pdl\drivers\peripheral\prot/cy_prot.c **** * \funcusage
1506:Generated_Source\PSoC6\pdl\drivers\peripheral\prot/cy_prot.c **** * \snippet prot/prot_v1_10_sut_01.cydsn/main_cm4.c snippet_Cy_Prot_DisablePpuFixedSlSlaveStruct
1507:Generated_Source\PSoC6\pdl\drivers\peripheral\prot/cy_prot.c **** *
1508:Generated_Source\PSoC6\pdl\drivers\peripheral\prot/cy_prot.c **** *******************************************************************************/
1509:Generated_Source\PSoC6\pdl\drivers\peripheral\prot/cy_prot.c **** cy_en_prot_status_t Cy_Prot_DisablePpuFixedSlSlaveStruct(PERI_GR_PPU_SL_Type* base)
1510:Generated_Source\PSoC6\pdl\drivers\peripheral\prot/cy_prot.c **** {
 2534              		.loc 1 1510 0
 2535              		.cfi_startproc
 2536              		@ args = 0, pretend = 0, frame = 0
 2537              		@ frame_needed = 0, uses_anonymous_args = 0
 2538              		@ link register save eliminated.
 2539              	.LVL208:
1511:Generated_Source\PSoC6\pdl\drivers\peripheral\prot/cy_prot.c ****     cy_en_prot_status_t status;
1512:Generated_Source\PSoC6\pdl\drivers\peripheral\prot/cy_prot.c ****     
1513:Generated_Source\PSoC6\pdl\drivers\peripheral\prot/cy_prot.c ****     base->ATT0 &= ~_VAL2FLD(PERI_GR_PPU_SL_ATT0_ENABLED, CY_PROT_STRUCT_ENABLE);
 2540              		.loc 1 1513 0
 2541 0000 4368     		ldr	r3, [r0, #4]
 2542 0002 5B00     		lsls	r3, r3, #1
 2543 0004 5B08     		lsrs	r3, r3, #1
 2544 0006 4360     		str	r3, [r0, #4]
1514:Generated_Source\PSoC6\pdl\drivers\peripheral\prot/cy_prot.c ****     status = (_FLD2VAL(PERI_GR_PPU_SL_ATT0_ENABLED, base->ATT0) == CY_PROT_STRUCT_ENABLE) ?
 2545              		.loc 1 1514 0
 2546 0008 4368     		ldr	r3, [r0, #4]
 2547 000a 002B     		cmp	r3, #0
 2548 000c 01DA     		bge	.L226
 2549 000e 0248     		ldr	r0, .L227
 2550              	.LVL209:
ARM GAS  C:\Users\gjl\AppData\Local\Temp\cc7xIfgu.s 			page 73


 2551 0010 00E0     		b	.L225
 2552              	.LVL210:
 2553              	.L226:
 2554 0012 0020     		movs	r0, #0
 2555              	.LVL211:
 2556              	.L225:
1515:Generated_Source\PSoC6\pdl\drivers\peripheral\prot/cy_prot.c ****                 CY_PROT_FAILURE : CY_PROT_SUCCESS;
1516:Generated_Source\PSoC6\pdl\drivers\peripheral\prot/cy_prot.c ****     
1517:Generated_Source\PSoC6\pdl\drivers\peripheral\prot/cy_prot.c ****     return status;
1518:Generated_Source\PSoC6\pdl\drivers\peripheral\prot/cy_prot.c **** }
 2557              		.loc 1 1518 0 discriminator 4
 2558              		@ sp needed
 2559 0014 7047     		bx	lr
 2560              	.L228:
 2561 0016 C046     		.align	2
 2562              	.L227:
 2563 0018 0300C200 		.word	12713987
 2564              		.cfi_endproc
 2565              	.LFE65:
 2566              		.size	Cy_Prot_DisablePpuFixedSlSlaveStruct, .-Cy_Prot_DisablePpuFixedSlSlaveStruct
 2567              		.section	.text.Cy_Prot_ConfigPpuFixedRgMasterStruct,"ax",%progbits
 2568              		.align	2
 2569              		.global	Cy_Prot_ConfigPpuFixedRgMasterStruct
 2570              		.code	16
 2571              		.thumb_func
 2572              		.type	Cy_Prot_ConfigPpuFixedRgMasterStruct, %function
 2573              	Cy_Prot_ConfigPpuFixedRgMasterStruct:
 2574              	.LFB66:
1519:Generated_Source\PSoC6\pdl\drivers\peripheral\prot/cy_prot.c **** 
1520:Generated_Source\PSoC6\pdl\drivers\peripheral\prot/cy_prot.c **** 
1521:Generated_Source\PSoC6\pdl\drivers\peripheral\prot/cy_prot.c **** /*******************************************************************************
1522:Generated_Source\PSoC6\pdl\drivers\peripheral\prot/cy_prot.c **** * Function Name: Cy_Prot_ConfigPpuFixedRgMasterStruct
1523:Generated_Source\PSoC6\pdl\drivers\peripheral\prot/cy_prot.c **** ****************************************************************************//**
1524:Generated_Source\PSoC6\pdl\drivers\peripheral\prot/cy_prot.c **** *
1525:Generated_Source\PSoC6\pdl\drivers\peripheral\prot/cy_prot.c **** * \brief Configures a Fixed Peripheral Region Protection Unit (PPU RG) master 
1526:Generated_Source\PSoC6\pdl\drivers\peripheral\prot/cy_prot.c **** * protection struct with its protection attributes. 
1527:Generated_Source\PSoC6\pdl\drivers\peripheral\prot/cy_prot.c **** *
1528:Generated_Source\PSoC6\pdl\drivers\peripheral\prot/cy_prot.c **** * This function configures the master struct governing the corresponding slave
1529:Generated_Source\PSoC6\pdl\drivers\peripheral\prot/cy_prot.c **** * struct pair. It is a mechanism to protect the slave PPU RG struct. Since
1530:Generated_Source\PSoC6\pdl\drivers\peripheral\prot/cy_prot.c **** * the memory location of the slave struct is known, the address, regionSize and
1531:Generated_Source\PSoC6\pdl\drivers\peripheral\prot/cy_prot.c **** * subregions of the configuration struct are not applicable.
1532:Generated_Source\PSoC6\pdl\drivers\peripheral\prot/cy_prot.c **** *
1533:Generated_Source\PSoC6\pdl\drivers\peripheral\prot/cy_prot.c **** * Note that only the user/privileged write permissions are configurable. The 
1534:Generated_Source\PSoC6\pdl\drivers\peripheral\prot/cy_prot.c **** * read and execute permissions are read-only and cannot be configured.
1535:Generated_Source\PSoC6\pdl\drivers\peripheral\prot/cy_prot.c **** *
1536:Generated_Source\PSoC6\pdl\drivers\peripheral\prot/cy_prot.c **** * \param base
1537:Generated_Source\PSoC6\pdl\drivers\peripheral\prot/cy_prot.c **** * The register base address of the protection struct being configured.
1538:Generated_Source\PSoC6\pdl\drivers\peripheral\prot/cy_prot.c **** * 
1539:Generated_Source\PSoC6\pdl\drivers\peripheral\prot/cy_prot.c **** * \param config
1540:Generated_Source\PSoC6\pdl\drivers\peripheral\prot/cy_prot.c **** * Initialization structure with all the protection attributes.
1541:Generated_Source\PSoC6\pdl\drivers\peripheral\prot/cy_prot.c **** * 
1542:Generated_Source\PSoC6\pdl\drivers\peripheral\prot/cy_prot.c **** * \return
1543:Generated_Source\PSoC6\pdl\drivers\peripheral\prot/cy_prot.c **** * Status of the function call.
1544:Generated_Source\PSoC6\pdl\drivers\peripheral\prot/cy_prot.c **** *
1545:Generated_Source\PSoC6\pdl\drivers\peripheral\prot/cy_prot.c **** *   Status               | Description
1546:Generated_Source\PSoC6\pdl\drivers\peripheral\prot/cy_prot.c **** *   ------------         | -----------
1547:Generated_Source\PSoC6\pdl\drivers\peripheral\prot/cy_prot.c **** *   CY_PROT_SUCCESS      | PPU RG master struct was successfully configured
ARM GAS  C:\Users\gjl\AppData\Local\Temp\cc7xIfgu.s 			page 74


1548:Generated_Source\PSoC6\pdl\drivers\peripheral\prot/cy_prot.c **** *   CY_PROT_FAILURE      | The resource is locked
1549:Generated_Source\PSoC6\pdl\drivers\peripheral\prot/cy_prot.c **** *   CY_PROT_BAD_PARAM    | An incorrect/invalid parameter was passed
1550:Generated_Source\PSoC6\pdl\drivers\peripheral\prot/cy_prot.c **** *
1551:Generated_Source\PSoC6\pdl\drivers\peripheral\prot/cy_prot.c **** * \funcusage
1552:Generated_Source\PSoC6\pdl\drivers\peripheral\prot/cy_prot.c **** * \snippet prot/prot_v1_10_sut_01.cydsn/main_cm4.c snippet_Cy_Prot_ConfigPpuFixedRgMasterStruct
1553:Generated_Source\PSoC6\pdl\drivers\peripheral\prot/cy_prot.c **** *
1554:Generated_Source\PSoC6\pdl\drivers\peripheral\prot/cy_prot.c **** *******************************************************************************/
1555:Generated_Source\PSoC6\pdl\drivers\peripheral\prot/cy_prot.c **** cy_en_prot_status_t Cy_Prot_ConfigPpuFixedRgMasterStruct(PERI_GR_PPU_RG_Type* base, const cy_stc_pp
1556:Generated_Source\PSoC6\pdl\drivers\peripheral\prot/cy_prot.c **** {
 2575              		.loc 1 1556 0
 2576              		.cfi_startproc
 2577              		@ args = 0, pretend = 0, frame = 0
 2578              		@ frame_needed = 0, uses_anonymous_args = 0
 2579              	.LVL212:
 2580 0000 70B5     		push	{r4, r5, r6, lr}
 2581              		.cfi_def_cfa_offset 16
 2582              		.cfi_offset 4, -16
 2583              		.cfi_offset 5, -12
 2584              		.cfi_offset 6, -8
 2585              		.cfi_offset 14, -4
 2586 0002 0500     		movs	r5, r0
 2587 0004 0C00     		movs	r4, r1
1557:Generated_Source\PSoC6\pdl\drivers\peripheral\prot/cy_prot.c ****     cy_en_prot_status_t status;
1558:Generated_Source\PSoC6\pdl\drivers\peripheral\prot/cy_prot.c ****     uint32_t attReg;
1559:Generated_Source\PSoC6\pdl\drivers\peripheral\prot/cy_prot.c ****     
1560:Generated_Source\PSoC6\pdl\drivers\peripheral\prot/cy_prot.c ****     CY_ASSERT_L1(NULL != base);
 2588              		.loc 1 1560 0
 2589 0006 0028     		cmp	r0, #0
 2590 0008 04D1     		bne	.L230
 2591              		.loc 1 1560 0 is_stmt 0 discriminator 1
 2592 000a C321     		movs	r1, #195
 2593              	.LVL213:
 2594 000c C900     		lsls	r1, r1, #3
 2595 000e 2448     		ldr	r0, .L237
 2596              	.LVL214:
 2597 0010 FFF7FEFF 		bl	Cy_SysLib_AssertFailed
 2598              	.LVL215:
 2599              	.L230:
1561:Generated_Source\PSoC6\pdl\drivers\peripheral\prot/cy_prot.c ****     CY_ASSERT_L3(CY_PROT_IS_FIXED_MS_PERM_VALID(config->userPermission));
 2600              		.loc 1 1561 0 is_stmt 1
 2601 0014 2378     		ldrb	r3, [r4]
 2602 0016 012B     		cmp	r3, #1
 2603 0018 05D0     		beq	.L231
 2604              		.loc 1 1561 0 is_stmt 0 discriminator 1
 2605 001a 032B     		cmp	r3, #3
 2606 001c 03D0     		beq	.L231
 2607              		.loc 1 1561 0 discriminator 2
 2608 001e 2149     		ldr	r1, .L237+4
 2609 0020 1F48     		ldr	r0, .L237
 2610 0022 FFF7FEFF 		bl	Cy_SysLib_AssertFailed
 2611              	.LVL216:
 2612              	.L231:
1562:Generated_Source\PSoC6\pdl\drivers\peripheral\prot/cy_prot.c ****     CY_ASSERT_L3(CY_PROT_IS_FIXED_MS_PERM_VALID(config->privPermission));
 2613              		.loc 1 1562 0 is_stmt 1
 2614 0026 6378     		ldrb	r3, [r4, #1]
 2615 0028 012B     		cmp	r3, #1
 2616 002a 05D0     		beq	.L232
ARM GAS  C:\Users\gjl\AppData\Local\Temp\cc7xIfgu.s 			page 75


 2617              		.loc 1 1562 0 is_stmt 0 discriminator 1
 2618 002c 032B     		cmp	r3, #3
 2619 002e 03D0     		beq	.L232
 2620              		.loc 1 1562 0 discriminator 2
 2621 0030 1D49     		ldr	r1, .L237+8
 2622 0032 1B48     		ldr	r0, .L237
 2623 0034 FFF7FEFF 		bl	Cy_SysLib_AssertFailed
 2624              	.LVL217:
 2625              	.L232:
1563:Generated_Source\PSoC6\pdl\drivers\peripheral\prot/cy_prot.c ****     
1564:Generated_Source\PSoC6\pdl\drivers\peripheral\prot/cy_prot.c ****     if(((uint32_t)config->pcMask & CY_PROT_PPU_FIXED_PC_LIMIT_MASK) != 0UL) 
 2626              		.loc 1 1564 0 is_stmt 1
 2627 0038 A188     		ldrh	r1, [r4, #4]
 2628 003a 7F23     		movs	r3, #127
 2629 003c 0A00     		movs	r2, r1
 2630 003e 9A43     		bics	r2, r3
 2631 0040 28D1     		bne	.L234
1565:Generated_Source\PSoC6\pdl\drivers\peripheral\prot/cy_prot.c ****     {
1566:Generated_Source\PSoC6\pdl\drivers\peripheral\prot/cy_prot.c ****         /* PC mask out of range - not supported in device */
1567:Generated_Source\PSoC6\pdl\drivers\peripheral\prot/cy_prot.c ****         status = CY_PROT_BAD_PARAM;
1568:Generated_Source\PSoC6\pdl\drivers\peripheral\prot/cy_prot.c ****     }
1569:Generated_Source\PSoC6\pdl\drivers\peripheral\prot/cy_prot.c ****     else
1570:Generated_Source\PSoC6\pdl\drivers\peripheral\prot/cy_prot.c ****     {
1571:Generated_Source\PSoC6\pdl\drivers\peripheral\prot/cy_prot.c ****         /* ADDR1 is read only. Only configure ATT1 */
1572:Generated_Source\PSoC6\pdl\drivers\peripheral\prot/cy_prot.c ****         attReg = ((uint32_t)config->userPermission & CY_PROT_ATT_PERMISSION_MASK)
 2632              		.loc 1 1572 0
 2633 0042 2378     		ldrb	r3, [r4]
 2634 0044 0720     		movs	r0, #7
 2635 0046 1840     		ands	r0, r3
1573:Generated_Source\PSoC6\pdl\drivers\peripheral\prot/cy_prot.c ****                     | (uint32_t)(((uint32_t)config->privPermission & CY_PROT_ATT_PERMISSION_MASK) <
 2636              		.loc 1 1573 0
 2637 0048 6278     		ldrb	r2, [r4, #1]
 2638 004a D200     		lsls	r2, r2, #3
 2639 004c 3823     		movs	r3, #56
 2640 004e 1340     		ands	r3, r2
 2641 0050 1843     		orrs	r0, r3
1574:Generated_Source\PSoC6\pdl\drivers\peripheral\prot/cy_prot.c ****                     | _VAL2FLD(PERI_GR_PPU_RG_ATT1_NS, !(config->secure))
 2642              		.loc 1 1574 0
 2643 0052 A378     		ldrb	r3, [r4, #2]
 2644 0054 0122     		movs	r2, #1
 2645 0056 5A40     		eors	r2, r3
 2646 0058 D2B2     		uxtb	r2, r2
 2647 005a 9201     		lsls	r2, r2, #6
 2648 005c 4023     		movs	r3, #64
 2649 005e 1A40     		ands	r2, r3
 2650 0060 0300     		movs	r3, r0
 2651 0062 1343     		orrs	r3, r2
1575:Generated_Source\PSoC6\pdl\drivers\peripheral\prot/cy_prot.c ****                     | _VAL2FLD(PERI_GR_PPU_RG_ATT1_PC_MASK_15_TO_1, config->pcMask)
 2652              		.loc 1 1575 0
 2653 0064 4902     		lsls	r1, r1, #9
 2654 0066 114A     		ldr	r2, .L237+12
 2655 0068 1140     		ands	r1, r2
 2656 006a 1943     		orrs	r1, r3
1576:Generated_Source\PSoC6\pdl\drivers\peripheral\prot/cy_prot.c ****                     /* No region size - read only for master structs */
1577:Generated_Source\PSoC6\pdl\drivers\peripheral\prot/cy_prot.c ****                     | _VAL2FLD(PERI_GR_PPU_RG_ATT1_PC_MATCH, config->pcMatch);
 2657              		.loc 1 1577 0
 2658 006c E378     		ldrb	r3, [r4, #3]
ARM GAS  C:\Users\gjl\AppData\Local\Temp\cc7xIfgu.s 			page 76


 2659 006e 9B07     		lsls	r3, r3, #30
 2660 0070 8020     		movs	r0, #128
 2661 0072 C005     		lsls	r0, r0, #23
 2662 0074 0340     		ands	r3, r0
 2663 0076 1A00     		movs	r2, r3
1572:Generated_Source\PSoC6\pdl\drivers\peripheral\prot/cy_prot.c ****                     | (uint32_t)(((uint32_t)config->privPermission & CY_PROT_ATT_PERMISSION_MASK) <
 2664              		.loc 1 1572 0
 2665 0078 0B00     		movs	r3, r1
 2666 007a 1343     		orrs	r3, r2
 2667              	.LVL218:
1578:Generated_Source\PSoC6\pdl\drivers\peripheral\prot/cy_prot.c ****         if ((attReg & CY_PROT_PPU_RG_ATT1_MASK) != attReg)
 2668              		.loc 1 1578 0
 2669 007c 0C4A     		ldr	r2, .L237+16
 2670 007e 1A40     		ands	r2, r3
 2671 0080 9342     		cmp	r3, r2
 2672 0082 09D1     		bne	.L235
1579:Generated_Source\PSoC6\pdl\drivers\peripheral\prot/cy_prot.c ****         {
1580:Generated_Source\PSoC6\pdl\drivers\peripheral\prot/cy_prot.c ****             /* Invalid parameter was passed */
1581:Generated_Source\PSoC6\pdl\drivers\peripheral\prot/cy_prot.c ****             status = CY_PROT_BAD_PARAM;
1582:Generated_Source\PSoC6\pdl\drivers\peripheral\prot/cy_prot.c ****         }
1583:Generated_Source\PSoC6\pdl\drivers\peripheral\prot/cy_prot.c ****         else
1584:Generated_Source\PSoC6\pdl\drivers\peripheral\prot/cy_prot.c ****         {
1585:Generated_Source\PSoC6\pdl\drivers\peripheral\prot/cy_prot.c ****             base->ATT1 = attReg;
 2673              		.loc 1 1585 0
 2674 0084 6B62     		str	r3, [r5, #36]
1586:Generated_Source\PSoC6\pdl\drivers\peripheral\prot/cy_prot.c ****             status = ((base->ATT1 & CY_PROT_PPU_RG_ATT1_MASK) != attReg) ? CY_PROT_FAILURE : CY_PRO
 2675              		.loc 1 1586 0
 2676 0086 696A     		ldr	r1, [r5, #36]
 2677 0088 094A     		ldr	r2, .L237+16
 2678 008a 0A40     		ands	r2, r1
 2679 008c 9342     		cmp	r3, r2
 2680 008e 05D0     		beq	.L236
 2681 0090 0848     		ldr	r0, .L237+20
 2682 0092 04E0     		b	.L233
 2683              	.LVL219:
 2684              	.L234:
1567:Generated_Source\PSoC6\pdl\drivers\peripheral\prot/cy_prot.c ****     }
 2685              		.loc 1 1567 0
 2686 0094 0848     		ldr	r0, .L237+24
 2687 0096 02E0     		b	.L233
 2688              	.LVL220:
 2689              	.L235:
1581:Generated_Source\PSoC6\pdl\drivers\peripheral\prot/cy_prot.c ****         }
 2690              		.loc 1 1581 0
 2691 0098 0748     		ldr	r0, .L237+24
 2692 009a 00E0     		b	.L233
 2693              	.L236:
 2694              		.loc 1 1586 0
 2695 009c 0020     		movs	r0, #0
 2696              	.LVL221:
 2697              	.L233:
1587:Generated_Source\PSoC6\pdl\drivers\peripheral\prot/cy_prot.c ****         }
1588:Generated_Source\PSoC6\pdl\drivers\peripheral\prot/cy_prot.c ****     }
1589:Generated_Source\PSoC6\pdl\drivers\peripheral\prot/cy_prot.c ****     
1590:Generated_Source\PSoC6\pdl\drivers\peripheral\prot/cy_prot.c ****     return status;
1591:Generated_Source\PSoC6\pdl\drivers\peripheral\prot/cy_prot.c **** }
 2698              		.loc 1 1591 0
ARM GAS  C:\Users\gjl\AppData\Local\Temp\cc7xIfgu.s 			page 77


 2699              		@ sp needed
 2700              	.LVL222:
 2701              	.LVL223:
 2702 009e 70BD     		pop	{r4, r5, r6, pc}
 2703              	.L238:
 2704              		.align	2
 2705              	.L237:
 2706 00a0 00000000 		.word	.LC0
 2707 00a4 19060000 		.word	1561
 2708 00a8 1A060000 		.word	1562
 2709 00ac 00FEFF00 		.word	16776704
 2710 00b0 DBFEFFE0 		.word	-520093989
 2711 00b4 0300C200 		.word	12713987
 2712 00b8 0100C200 		.word	12713985
 2713              		.cfi_endproc
 2714              	.LFE66:
 2715              		.size	Cy_Prot_ConfigPpuFixedRgMasterStruct, .-Cy_Prot_ConfigPpuFixedRgMasterStruct
 2716              		.section	.text.Cy_Prot_ConfigPpuFixedRgSlaveStruct,"ax",%progbits
 2717              		.align	2
 2718              		.global	Cy_Prot_ConfigPpuFixedRgSlaveStruct
 2719              		.code	16
 2720              		.thumb_func
 2721              		.type	Cy_Prot_ConfigPpuFixedRgSlaveStruct, %function
 2722              	Cy_Prot_ConfigPpuFixedRgSlaveStruct:
 2723              	.LFB67:
1592:Generated_Source\PSoC6\pdl\drivers\peripheral\prot/cy_prot.c **** 
1593:Generated_Source\PSoC6\pdl\drivers\peripheral\prot/cy_prot.c **** 
1594:Generated_Source\PSoC6\pdl\drivers\peripheral\prot/cy_prot.c **** /*******************************************************************************
1595:Generated_Source\PSoC6\pdl\drivers\peripheral\prot/cy_prot.c **** * Function Name: Cy_Prot_ConfigPpuFixedRgSlaveStruct
1596:Generated_Source\PSoC6\pdl\drivers\peripheral\prot/cy_prot.c **** ****************************************************************************//**
1597:Generated_Source\PSoC6\pdl\drivers\peripheral\prot/cy_prot.c **** *
1598:Generated_Source\PSoC6\pdl\drivers\peripheral\prot/cy_prot.c **** * \brief Configures a Fixed Peripheral Region Protection Unit (PPU RG) slave
1599:Generated_Source\PSoC6\pdl\drivers\peripheral\prot/cy_prot.c **** * protection struct with its protection attributes. 
1600:Generated_Source\PSoC6\pdl\drivers\peripheral\prot/cy_prot.c **** * 
1601:Generated_Source\PSoC6\pdl\drivers\peripheral\prot/cy_prot.c **** * This function configures the slave struct of a PPU RG pair, which can 
1602:Generated_Source\PSoC6\pdl\drivers\peripheral\prot/cy_prot.c **** * protect specified regions of peripheral instances. For example, individual
1603:Generated_Source\PSoC6\pdl\drivers\peripheral\prot/cy_prot.c **** * DW channel structs, SMPU structs, and IPC structs etc.
1604:Generated_Source\PSoC6\pdl\drivers\peripheral\prot/cy_prot.c **** *
1605:Generated_Source\PSoC6\pdl\drivers\peripheral\prot/cy_prot.c **** * Each fixed PPU RG is devoted to a defined peripheral region. Hence the address, 
1606:Generated_Source\PSoC6\pdl\drivers\peripheral\prot/cy_prot.c **** * regionSize and subregions of the configuration struct are not applicable.
1607:Generated_Source\PSoC6\pdl\drivers\peripheral\prot/cy_prot.c **** *
1608:Generated_Source\PSoC6\pdl\drivers\peripheral\prot/cy_prot.c **** * Note that the user/privileged execute accesses are read-only and are always 
1609:Generated_Source\PSoC6\pdl\drivers\peripheral\prot/cy_prot.c **** * enabled. 
1610:Generated_Source\PSoC6\pdl\drivers\peripheral\prot/cy_prot.c **** *
1611:Generated_Source\PSoC6\pdl\drivers\peripheral\prot/cy_prot.c **** * \param base
1612:Generated_Source\PSoC6\pdl\drivers\peripheral\prot/cy_prot.c **** * The register base address of the protection structure being configured.
1613:Generated_Source\PSoC6\pdl\drivers\peripheral\prot/cy_prot.c **** * 
1614:Generated_Source\PSoC6\pdl\drivers\peripheral\prot/cy_prot.c **** * \param config
1615:Generated_Source\PSoC6\pdl\drivers\peripheral\prot/cy_prot.c **** * Initialization structure with all the protection attributes.
1616:Generated_Source\PSoC6\pdl\drivers\peripheral\prot/cy_prot.c **** * 
1617:Generated_Source\PSoC6\pdl\drivers\peripheral\prot/cy_prot.c **** * \return
1618:Generated_Source\PSoC6\pdl\drivers\peripheral\prot/cy_prot.c **** * Status of the function call.
1619:Generated_Source\PSoC6\pdl\drivers\peripheral\prot/cy_prot.c **** *
1620:Generated_Source\PSoC6\pdl\drivers\peripheral\prot/cy_prot.c **** *   Status               | Description
1621:Generated_Source\PSoC6\pdl\drivers\peripheral\prot/cy_prot.c **** *   ------------         | -----------
1622:Generated_Source\PSoC6\pdl\drivers\peripheral\prot/cy_prot.c **** *   CY_PROT_SUCCESS      | PPU RG slave struct was successfully configured
1623:Generated_Source\PSoC6\pdl\drivers\peripheral\prot/cy_prot.c **** *   CY_PROT_FAILURE      | The resource is locked
ARM GAS  C:\Users\gjl\AppData\Local\Temp\cc7xIfgu.s 			page 78


1624:Generated_Source\PSoC6\pdl\drivers\peripheral\prot/cy_prot.c **** *   CY_PROT_BAD_PARAM    | An incorrect/invalid parameter was passed
1625:Generated_Source\PSoC6\pdl\drivers\peripheral\prot/cy_prot.c **** *
1626:Generated_Source\PSoC6\pdl\drivers\peripheral\prot/cy_prot.c **** * \funcusage
1627:Generated_Source\PSoC6\pdl\drivers\peripheral\prot/cy_prot.c **** * \snippet prot/prot_v1_10_sut_01.cydsn/main_cm4.c snippet_Cy_Prot_ConfigPpuFixedRgSlaveStruct
1628:Generated_Source\PSoC6\pdl\drivers\peripheral\prot/cy_prot.c **** *
1629:Generated_Source\PSoC6\pdl\drivers\peripheral\prot/cy_prot.c **** *******************************************************************************/
1630:Generated_Source\PSoC6\pdl\drivers\peripheral\prot/cy_prot.c **** cy_en_prot_status_t Cy_Prot_ConfigPpuFixedRgSlaveStruct(PERI_GR_PPU_RG_Type* base, const cy_stc_ppu
1631:Generated_Source\PSoC6\pdl\drivers\peripheral\prot/cy_prot.c **** {
 2724              		.loc 1 1631 0
 2725              		.cfi_startproc
 2726              		@ args = 0, pretend = 0, frame = 0
 2727              		@ frame_needed = 0, uses_anonymous_args = 0
 2728              	.LVL224:
 2729 0000 70B5     		push	{r4, r5, r6, lr}
 2730              		.cfi_def_cfa_offset 16
 2731              		.cfi_offset 4, -16
 2732              		.cfi_offset 5, -12
 2733              		.cfi_offset 6, -8
 2734              		.cfi_offset 14, -4
 2735 0002 0500     		movs	r5, r0
 2736 0004 0C00     		movs	r4, r1
1632:Generated_Source\PSoC6\pdl\drivers\peripheral\prot/cy_prot.c ****     cy_en_prot_status_t status;
1633:Generated_Source\PSoC6\pdl\drivers\peripheral\prot/cy_prot.c ****     uint32_t attReg;
1634:Generated_Source\PSoC6\pdl\drivers\peripheral\prot/cy_prot.c ****     
1635:Generated_Source\PSoC6\pdl\drivers\peripheral\prot/cy_prot.c ****     CY_ASSERT_L1(NULL != base);
 2737              		.loc 1 1635 0
 2738 0006 0028     		cmp	r0, #0
 2739 0008 03D1     		bne	.L240
 2740              		.loc 1 1635 0 is_stmt 0 discriminator 1
 2741 000a 2349     		ldr	r1, .L247
 2742              	.LVL225:
 2743 000c 2348     		ldr	r0, .L247+4
 2744              	.LVL226:
 2745 000e FFF7FEFF 		bl	Cy_SysLib_AssertFailed
 2746              	.LVL227:
 2747              	.L240:
1636:Generated_Source\PSoC6\pdl\drivers\peripheral\prot/cy_prot.c ****     CY_ASSERT_L3(CY_PROT_IS_FIXED_SL_PERM_VALID(config->userPermission));
 2748              		.loc 1 1636 0 is_stmt 1
 2749 0012 2378     		ldrb	r3, [r4]
 2750 0014 032B     		cmp	r3, #3
 2751 0016 03D9     		bls	.L241
 2752              		.loc 1 1636 0 is_stmt 0 discriminator 1
 2753 0018 2149     		ldr	r1, .L247+8
 2754 001a 2048     		ldr	r0, .L247+4
 2755 001c FFF7FEFF 		bl	Cy_SysLib_AssertFailed
 2756              	.LVL228:
 2757              	.L241:
1637:Generated_Source\PSoC6\pdl\drivers\peripheral\prot/cy_prot.c ****     CY_ASSERT_L3(CY_PROT_IS_FIXED_SL_PERM_VALID(config->privPermission));
 2758              		.loc 1 1637 0 is_stmt 1
 2759 0020 6378     		ldrb	r3, [r4, #1]
 2760 0022 032B     		cmp	r3, #3
 2761 0024 03D9     		bls	.L242
 2762              		.loc 1 1637 0 is_stmt 0 discriminator 1
 2763 0026 1F49     		ldr	r1, .L247+12
 2764 0028 1C48     		ldr	r0, .L247+4
 2765 002a FFF7FEFF 		bl	Cy_SysLib_AssertFailed
 2766              	.LVL229:
ARM GAS  C:\Users\gjl\AppData\Local\Temp\cc7xIfgu.s 			page 79


 2767              	.L242:
1638:Generated_Source\PSoC6\pdl\drivers\peripheral\prot/cy_prot.c ****     
1639:Generated_Source\PSoC6\pdl\drivers\peripheral\prot/cy_prot.c ****     if(((uint32_t)config->pcMask & CY_PROT_PPU_FIXED_PC_LIMIT_MASK) != 0UL) 
 2768              		.loc 1 1639 0 is_stmt 1
 2769 002e A188     		ldrh	r1, [r4, #4]
 2770 0030 7F23     		movs	r3, #127
 2771 0032 0A00     		movs	r2, r1
 2772 0034 9A43     		bics	r2, r3
 2773 0036 28D1     		bne	.L244
1640:Generated_Source\PSoC6\pdl\drivers\peripheral\prot/cy_prot.c ****     {
1641:Generated_Source\PSoC6\pdl\drivers\peripheral\prot/cy_prot.c ****         /* PC mask out of range - not supported in device */
1642:Generated_Source\PSoC6\pdl\drivers\peripheral\prot/cy_prot.c ****         status = CY_PROT_BAD_PARAM;
1643:Generated_Source\PSoC6\pdl\drivers\peripheral\prot/cy_prot.c ****     }
1644:Generated_Source\PSoC6\pdl\drivers\peripheral\prot/cy_prot.c ****     else
1645:Generated_Source\PSoC6\pdl\drivers\peripheral\prot/cy_prot.c ****     {
1646:Generated_Source\PSoC6\pdl\drivers\peripheral\prot/cy_prot.c ****         /* ADDR0 is read only. Only configure ATT0 */
1647:Generated_Source\PSoC6\pdl\drivers\peripheral\prot/cy_prot.c ****         attReg = ((uint32_t)config->userPermission & CY_PROT_ATT_PERMISSION_MASK)
 2774              		.loc 1 1647 0
 2775 0038 2378     		ldrb	r3, [r4]
 2776 003a 0720     		movs	r0, #7
 2777 003c 1840     		ands	r0, r3
1648:Generated_Source\PSoC6\pdl\drivers\peripheral\prot/cy_prot.c ****                     | (uint32_t)(((uint32_t)config->privPermission & CY_PROT_ATT_PERMISSION_MASK) <
 2778              		.loc 1 1648 0
 2779 003e 6278     		ldrb	r2, [r4, #1]
 2780 0040 D200     		lsls	r2, r2, #3
 2781 0042 3823     		movs	r3, #56
 2782 0044 1340     		ands	r3, r2
 2783 0046 1843     		orrs	r0, r3
1649:Generated_Source\PSoC6\pdl\drivers\peripheral\prot/cy_prot.c ****                     | _VAL2FLD(PERI_GR_PPU_RG_ATT0_NS, !(config->secure))
 2784              		.loc 1 1649 0
 2785 0048 A378     		ldrb	r3, [r4, #2]
 2786 004a 0122     		movs	r2, #1
 2787 004c 5A40     		eors	r2, r3
 2788 004e D2B2     		uxtb	r2, r2
 2789 0050 9201     		lsls	r2, r2, #6
 2790 0052 4023     		movs	r3, #64
 2791 0054 1A40     		ands	r2, r3
 2792 0056 0300     		movs	r3, r0
 2793 0058 1343     		orrs	r3, r2
1650:Generated_Source\PSoC6\pdl\drivers\peripheral\prot/cy_prot.c ****                     | _VAL2FLD(PERI_GR_PPU_RG_ATT0_PC_MASK_15_TO_1, config->pcMask)
 2794              		.loc 1 1650 0
 2795 005a 4902     		lsls	r1, r1, #9
 2796 005c 124A     		ldr	r2, .L247+16
 2797 005e 1140     		ands	r1, r2
 2798 0060 1943     		orrs	r1, r3
1651:Generated_Source\PSoC6\pdl\drivers\peripheral\prot/cy_prot.c ****                     /* No region size - read only */
1652:Generated_Source\PSoC6\pdl\drivers\peripheral\prot/cy_prot.c ****                     | _VAL2FLD(PERI_GR_PPU_RG_ATT0_PC_MATCH, config->pcMatch);
 2799              		.loc 1 1652 0
 2800 0062 E378     		ldrb	r3, [r4, #3]
 2801 0064 9B07     		lsls	r3, r3, #30
 2802 0066 8020     		movs	r0, #128
 2803 0068 C005     		lsls	r0, r0, #23
 2804 006a 0340     		ands	r3, r0
 2805 006c 1A00     		movs	r2, r3
1647:Generated_Source\PSoC6\pdl\drivers\peripheral\prot/cy_prot.c ****                     | (uint32_t)(((uint32_t)config->privPermission & CY_PROT_ATT_PERMISSION_MASK) <
 2806              		.loc 1 1647 0
 2807 006e 0B00     		movs	r3, r1
ARM GAS  C:\Users\gjl\AppData\Local\Temp\cc7xIfgu.s 			page 80


 2808 0070 1343     		orrs	r3, r2
 2809              	.LVL230:
1653:Generated_Source\PSoC6\pdl\drivers\peripheral\prot/cy_prot.c ****         if ((attReg & CY_PROT_PPU_RG_ATT0_MASK) != attReg)
 2810              		.loc 1 1653 0
 2811 0072 0E4A     		ldr	r2, .L247+20
 2812 0074 1A40     		ands	r2, r3
 2813 0076 9342     		cmp	r3, r2
 2814 0078 09D1     		bne	.L245
1654:Generated_Source\PSoC6\pdl\drivers\peripheral\prot/cy_prot.c ****         {
1655:Generated_Source\PSoC6\pdl\drivers\peripheral\prot/cy_prot.c ****             /* Invalid parameter was passed */
1656:Generated_Source\PSoC6\pdl\drivers\peripheral\prot/cy_prot.c ****             status = CY_PROT_BAD_PARAM;
1657:Generated_Source\PSoC6\pdl\drivers\peripheral\prot/cy_prot.c ****         }
1658:Generated_Source\PSoC6\pdl\drivers\peripheral\prot/cy_prot.c ****         else
1659:Generated_Source\PSoC6\pdl\drivers\peripheral\prot/cy_prot.c ****         {
1660:Generated_Source\PSoC6\pdl\drivers\peripheral\prot/cy_prot.c ****             base->ATT0 = attReg;
 2815              		.loc 1 1660 0
 2816 007a 6B60     		str	r3, [r5, #4]
1661:Generated_Source\PSoC6\pdl\drivers\peripheral\prot/cy_prot.c ****             status = ((base->ATT0 & CY_PROT_PPU_RG_ATT0_MASK) != attReg) ? CY_PROT_FAILURE : CY_PRO
 2817              		.loc 1 1661 0
 2818 007c 6968     		ldr	r1, [r5, #4]
 2819 007e 0B4A     		ldr	r2, .L247+20
 2820 0080 0A40     		ands	r2, r1
 2821 0082 9342     		cmp	r3, r2
 2822 0084 05D0     		beq	.L246
 2823 0086 0A48     		ldr	r0, .L247+24
 2824 0088 04E0     		b	.L243
 2825              	.LVL231:
 2826              	.L244:
1642:Generated_Source\PSoC6\pdl\drivers\peripheral\prot/cy_prot.c ****     }
 2827              		.loc 1 1642 0
 2828 008a 0A48     		ldr	r0, .L247+28
 2829 008c 02E0     		b	.L243
 2830              	.LVL232:
 2831              	.L245:
1656:Generated_Source\PSoC6\pdl\drivers\peripheral\prot/cy_prot.c ****         }
 2832              		.loc 1 1656 0
 2833 008e 0948     		ldr	r0, .L247+28
 2834 0090 00E0     		b	.L243
 2835              	.L246:
 2836              		.loc 1 1661 0
 2837 0092 0020     		movs	r0, #0
 2838              	.LVL233:
 2839              	.L243:
1662:Generated_Source\PSoC6\pdl\drivers\peripheral\prot/cy_prot.c ****         }
1663:Generated_Source\PSoC6\pdl\drivers\peripheral\prot/cy_prot.c ****     }
1664:Generated_Source\PSoC6\pdl\drivers\peripheral\prot/cy_prot.c ****     
1665:Generated_Source\PSoC6\pdl\drivers\peripheral\prot/cy_prot.c ****     return status;
1666:Generated_Source\PSoC6\pdl\drivers\peripheral\prot/cy_prot.c **** }
 2840              		.loc 1 1666 0
 2841              		@ sp needed
 2842              	.LVL234:
 2843              	.LVL235:
 2844 0094 70BD     		pop	{r4, r5, r6, pc}
 2845              	.L248:
 2846 0096 C046     		.align	2
 2847              	.L247:
 2848 0098 63060000 		.word	1635
ARM GAS  C:\Users\gjl\AppData\Local\Temp\cc7xIfgu.s 			page 81


 2849 009c 00000000 		.word	.LC0
 2850 00a0 64060000 		.word	1636
 2851 00a4 65060000 		.word	1637
 2852 00a8 00FEFF00 		.word	16776704
 2853 00ac DBFEFFE0 		.word	-520093989
 2854 00b0 0300C200 		.word	12713987
 2855 00b4 0100C200 		.word	12713985
 2856              		.cfi_endproc
 2857              	.LFE67:
 2858              		.size	Cy_Prot_ConfigPpuFixedRgSlaveStruct, .-Cy_Prot_ConfigPpuFixedRgSlaveStruct
 2859              		.section	.text.Cy_Prot_EnablePpuFixedRgMasterStruct,"ax",%progbits
 2860              		.align	2
 2861              		.global	Cy_Prot_EnablePpuFixedRgMasterStruct
 2862              		.code	16
 2863              		.thumb_func
 2864              		.type	Cy_Prot_EnablePpuFixedRgMasterStruct, %function
 2865              	Cy_Prot_EnablePpuFixedRgMasterStruct:
 2866              	.LFB68:
1667:Generated_Source\PSoC6\pdl\drivers\peripheral\prot/cy_prot.c **** 
1668:Generated_Source\PSoC6\pdl\drivers\peripheral\prot/cy_prot.c **** 
1669:Generated_Source\PSoC6\pdl\drivers\peripheral\prot/cy_prot.c **** /*******************************************************************************
1670:Generated_Source\PSoC6\pdl\drivers\peripheral\prot/cy_prot.c **** * Function Name: Cy_Prot_EnablePpuFixedRgMasterStruct
1671:Generated_Source\PSoC6\pdl\drivers\peripheral\prot/cy_prot.c **** ****************************************************************************//**
1672:Generated_Source\PSoC6\pdl\drivers\peripheral\prot/cy_prot.c **** *
1673:Generated_Source\PSoC6\pdl\drivers\peripheral\prot/cy_prot.c **** * \brief Enables the Master PPU RG structure.
1674:Generated_Source\PSoC6\pdl\drivers\peripheral\prot/cy_prot.c **** *
1675:Generated_Source\PSoC6\pdl\drivers\peripheral\prot/cy_prot.c **** * This is a PPU RG master struct enable function. The PPU RG protection 
1676:Generated_Source\PSoC6\pdl\drivers\peripheral\prot/cy_prot.c **** * settings will take effect after successful completion of this function call.
1677:Generated_Source\PSoC6\pdl\drivers\peripheral\prot/cy_prot.c **** *
1678:Generated_Source\PSoC6\pdl\drivers\peripheral\prot/cy_prot.c **** * \param base
1679:Generated_Source\PSoC6\pdl\drivers\peripheral\prot/cy_prot.c **** * The base address for the protection unit structure being configured. 
1680:Generated_Source\PSoC6\pdl\drivers\peripheral\prot/cy_prot.c **** *
1681:Generated_Source\PSoC6\pdl\drivers\peripheral\prot/cy_prot.c **** * \return
1682:Generated_Source\PSoC6\pdl\drivers\peripheral\prot/cy_prot.c **** * Status of the function call.
1683:Generated_Source\PSoC6\pdl\drivers\peripheral\prot/cy_prot.c **** *
1684:Generated_Source\PSoC6\pdl\drivers\peripheral\prot/cy_prot.c **** *   Status               | Description
1685:Generated_Source\PSoC6\pdl\drivers\peripheral\prot/cy_prot.c **** *   ------------         | -----------
1686:Generated_Source\PSoC6\pdl\drivers\peripheral\prot/cy_prot.c **** *   CY_PROT_SUCCESS      | The Master PU struct was enabled
1687:Generated_Source\PSoC6\pdl\drivers\peripheral\prot/cy_prot.c **** *   CY_PROT_FAILURE      | The Master PU struct is disabled and possibly locked
1688:Generated_Source\PSoC6\pdl\drivers\peripheral\prot/cy_prot.c **** *
1689:Generated_Source\PSoC6\pdl\drivers\peripheral\prot/cy_prot.c **** * \funcusage
1690:Generated_Source\PSoC6\pdl\drivers\peripheral\prot/cy_prot.c **** * \snippet prot/prot_v1_10_sut_01.cydsn/main_cm4.c snippet_Cy_Prot_EnablePpuFixedRgMasterStruct
1691:Generated_Source\PSoC6\pdl\drivers\peripheral\prot/cy_prot.c **** *
1692:Generated_Source\PSoC6\pdl\drivers\peripheral\prot/cy_prot.c **** *******************************************************************************/
1693:Generated_Source\PSoC6\pdl\drivers\peripheral\prot/cy_prot.c **** cy_en_prot_status_t Cy_Prot_EnablePpuFixedRgMasterStruct(PERI_GR_PPU_RG_Type* base)
1694:Generated_Source\PSoC6\pdl\drivers\peripheral\prot/cy_prot.c **** {
 2867              		.loc 1 1694 0
 2868              		.cfi_startproc
 2869              		@ args = 0, pretend = 0, frame = 0
 2870              		@ frame_needed = 0, uses_anonymous_args = 0
 2871              		@ link register save eliminated.
 2872              	.LVL236:
1695:Generated_Source\PSoC6\pdl\drivers\peripheral\prot/cy_prot.c ****     cy_en_prot_status_t status;
1696:Generated_Source\PSoC6\pdl\drivers\peripheral\prot/cy_prot.c **** 
1697:Generated_Source\PSoC6\pdl\drivers\peripheral\prot/cy_prot.c ****     base->ATT1 |= _VAL2FLD(PERI_GR_PPU_RG_ATT1_ENABLED, CY_PROT_STRUCT_ENABLE);
 2873              		.loc 1 1697 0
 2874 0000 436A     		ldr	r3, [r0, #36]
ARM GAS  C:\Users\gjl\AppData\Local\Temp\cc7xIfgu.s 			page 82


 2875 0002 8022     		movs	r2, #128
 2876 0004 1206     		lsls	r2, r2, #24
 2877 0006 1343     		orrs	r3, r2
 2878 0008 4362     		str	r3, [r0, #36]
1698:Generated_Source\PSoC6\pdl\drivers\peripheral\prot/cy_prot.c ****     status = (_FLD2VAL(PERI_GR_PPU_RG_ATT1_ENABLED, base->ATT1) != CY_PROT_STRUCT_ENABLE) ?
 2879              		.loc 1 1698 0
 2880 000a 436A     		ldr	r3, [r0, #36]
 2881 000c 002B     		cmp	r3, #0
 2882 000e 01DB     		blt	.L251
 2883 0010 0148     		ldr	r0, .L252
 2884              	.LVL237:
 2885 0012 00E0     		b	.L250
 2886              	.LVL238:
 2887              	.L251:
 2888 0014 0020     		movs	r0, #0
 2889              	.LVL239:
 2890              	.L250:
1699:Generated_Source\PSoC6\pdl\drivers\peripheral\prot/cy_prot.c ****                 CY_PROT_FAILURE : CY_PROT_SUCCESS;
1700:Generated_Source\PSoC6\pdl\drivers\peripheral\prot/cy_prot.c ****     
1701:Generated_Source\PSoC6\pdl\drivers\peripheral\prot/cy_prot.c ****     return status;
1702:Generated_Source\PSoC6\pdl\drivers\peripheral\prot/cy_prot.c **** }
 2891              		.loc 1 1702 0 discriminator 4
 2892              		@ sp needed
 2893 0016 7047     		bx	lr
 2894              	.L253:
 2895              		.align	2
 2896              	.L252:
 2897 0018 0300C200 		.word	12713987
 2898              		.cfi_endproc
 2899              	.LFE68:
 2900              		.size	Cy_Prot_EnablePpuFixedRgMasterStruct, .-Cy_Prot_EnablePpuFixedRgMasterStruct
 2901              		.section	.text.Cy_Prot_DisablePpuFixedRgMasterStruct,"ax",%progbits
 2902              		.align	2
 2903              		.global	Cy_Prot_DisablePpuFixedRgMasterStruct
 2904              		.code	16
 2905              		.thumb_func
 2906              		.type	Cy_Prot_DisablePpuFixedRgMasterStruct, %function
 2907              	Cy_Prot_DisablePpuFixedRgMasterStruct:
 2908              	.LFB69:
1703:Generated_Source\PSoC6\pdl\drivers\peripheral\prot/cy_prot.c **** 
1704:Generated_Source\PSoC6\pdl\drivers\peripheral\prot/cy_prot.c **** 
1705:Generated_Source\PSoC6\pdl\drivers\peripheral\prot/cy_prot.c **** /*******************************************************************************
1706:Generated_Source\PSoC6\pdl\drivers\peripheral\prot/cy_prot.c **** * Function Name: Cy_Prot_DisablePpuFixedRgMasterStruct
1707:Generated_Source\PSoC6\pdl\drivers\peripheral\prot/cy_prot.c **** ****************************************************************************//**
1708:Generated_Source\PSoC6\pdl\drivers\peripheral\prot/cy_prot.c **** *
1709:Generated_Source\PSoC6\pdl\drivers\peripheral\prot/cy_prot.c **** * \brief Disables the Master PPU RG structure.
1710:Generated_Source\PSoC6\pdl\drivers\peripheral\prot/cy_prot.c **** *
1711:Generated_Source\PSoC6\pdl\drivers\peripheral\prot/cy_prot.c **** * This is a PPU RG master struct disable function. The PPU RG protection 
1712:Generated_Source\PSoC6\pdl\drivers\peripheral\prot/cy_prot.c **** * settings will seize to take effect after successful completion of this 
1713:Generated_Source\PSoC6\pdl\drivers\peripheral\prot/cy_prot.c **** * function call.
1714:Generated_Source\PSoC6\pdl\drivers\peripheral\prot/cy_prot.c **** *
1715:Generated_Source\PSoC6\pdl\drivers\peripheral\prot/cy_prot.c **** * \param base
1716:Generated_Source\PSoC6\pdl\drivers\peripheral\prot/cy_prot.c **** * The base address for the protection unit structure being configured. 
1717:Generated_Source\PSoC6\pdl\drivers\peripheral\prot/cy_prot.c **** *
1718:Generated_Source\PSoC6\pdl\drivers\peripheral\prot/cy_prot.c **** * \return
1719:Generated_Source\PSoC6\pdl\drivers\peripheral\prot/cy_prot.c **** * Status of the function call.
1720:Generated_Source\PSoC6\pdl\drivers\peripheral\prot/cy_prot.c **** *
ARM GAS  C:\Users\gjl\AppData\Local\Temp\cc7xIfgu.s 			page 83


1721:Generated_Source\PSoC6\pdl\drivers\peripheral\prot/cy_prot.c **** *   Status               | Description
1722:Generated_Source\PSoC6\pdl\drivers\peripheral\prot/cy_prot.c **** *   ------------         | -----------
1723:Generated_Source\PSoC6\pdl\drivers\peripheral\prot/cy_prot.c **** *   CY_PROT_SUCCESS      | The Master PU struct was disabled
1724:Generated_Source\PSoC6\pdl\drivers\peripheral\prot/cy_prot.c **** *   CY_PROT_FAILURE      | The Master PU struct is enabled and possibly locked
1725:Generated_Source\PSoC6\pdl\drivers\peripheral\prot/cy_prot.c **** *
1726:Generated_Source\PSoC6\pdl\drivers\peripheral\prot/cy_prot.c **** * \funcusage
1727:Generated_Source\PSoC6\pdl\drivers\peripheral\prot/cy_prot.c **** * \snippet prot/prot_v1_10_sut_01.cydsn/main_cm4.c snippet_Cy_Prot_DisablePpuFixedRgMasterStruct
1728:Generated_Source\PSoC6\pdl\drivers\peripheral\prot/cy_prot.c **** *
1729:Generated_Source\PSoC6\pdl\drivers\peripheral\prot/cy_prot.c **** *******************************************************************************/
1730:Generated_Source\PSoC6\pdl\drivers\peripheral\prot/cy_prot.c **** cy_en_prot_status_t Cy_Prot_DisablePpuFixedRgMasterStruct(PERI_GR_PPU_RG_Type* base)
1731:Generated_Source\PSoC6\pdl\drivers\peripheral\prot/cy_prot.c **** {
 2909              		.loc 1 1731 0
 2910              		.cfi_startproc
 2911              		@ args = 0, pretend = 0, frame = 0
 2912              		@ frame_needed = 0, uses_anonymous_args = 0
 2913              		@ link register save eliminated.
 2914              	.LVL240:
1732:Generated_Source\PSoC6\pdl\drivers\peripheral\prot/cy_prot.c ****     cy_en_prot_status_t status;
1733:Generated_Source\PSoC6\pdl\drivers\peripheral\prot/cy_prot.c ****     
1734:Generated_Source\PSoC6\pdl\drivers\peripheral\prot/cy_prot.c ****     base->ATT1 &= ~_VAL2FLD(PERI_GR_PPU_RG_ATT1_ENABLED, CY_PROT_STRUCT_ENABLE);
 2915              		.loc 1 1734 0
 2916 0000 436A     		ldr	r3, [r0, #36]
 2917 0002 5B00     		lsls	r3, r3, #1
 2918 0004 5B08     		lsrs	r3, r3, #1
 2919 0006 4362     		str	r3, [r0, #36]
1735:Generated_Source\PSoC6\pdl\drivers\peripheral\prot/cy_prot.c ****     status = (_FLD2VAL(PERI_GR_PPU_RG_ATT1_ENABLED, base->ATT1) == CY_PROT_STRUCT_ENABLE) ?
 2920              		.loc 1 1735 0
 2921 0008 436A     		ldr	r3, [r0, #36]
 2922 000a 002B     		cmp	r3, #0
 2923 000c 01DA     		bge	.L256
 2924 000e 0248     		ldr	r0, .L257
 2925              	.LVL241:
 2926 0010 00E0     		b	.L255
 2927              	.LVL242:
 2928              	.L256:
 2929 0012 0020     		movs	r0, #0
 2930              	.LVL243:
 2931              	.L255:
1736:Generated_Source\PSoC6\pdl\drivers\peripheral\prot/cy_prot.c ****                 CY_PROT_FAILURE : CY_PROT_SUCCESS;
1737:Generated_Source\PSoC6\pdl\drivers\peripheral\prot/cy_prot.c ****     
1738:Generated_Source\PSoC6\pdl\drivers\peripheral\prot/cy_prot.c ****     return status;
1739:Generated_Source\PSoC6\pdl\drivers\peripheral\prot/cy_prot.c **** }
 2932              		.loc 1 1739 0 discriminator 4
 2933              		@ sp needed
 2934 0014 7047     		bx	lr
 2935              	.L258:
 2936 0016 C046     		.align	2
 2937              	.L257:
 2938 0018 0300C200 		.word	12713987
 2939              		.cfi_endproc
 2940              	.LFE69:
 2941              		.size	Cy_Prot_DisablePpuFixedRgMasterStruct, .-Cy_Prot_DisablePpuFixedRgMasterStruct
 2942              		.section	.text.Cy_Prot_EnablePpuFixedRgSlaveStruct,"ax",%progbits
 2943              		.align	2
 2944              		.global	Cy_Prot_EnablePpuFixedRgSlaveStruct
 2945              		.code	16
 2946              		.thumb_func
ARM GAS  C:\Users\gjl\AppData\Local\Temp\cc7xIfgu.s 			page 84


 2947              		.type	Cy_Prot_EnablePpuFixedRgSlaveStruct, %function
 2948              	Cy_Prot_EnablePpuFixedRgSlaveStruct:
 2949              	.LFB70:
1740:Generated_Source\PSoC6\pdl\drivers\peripheral\prot/cy_prot.c **** 
1741:Generated_Source\PSoC6\pdl\drivers\peripheral\prot/cy_prot.c **** 
1742:Generated_Source\PSoC6\pdl\drivers\peripheral\prot/cy_prot.c **** /*******************************************************************************
1743:Generated_Source\PSoC6\pdl\drivers\peripheral\prot/cy_prot.c **** * Function Name: Cy_Prot_EnablePpuFixedRgSlaveStruct
1744:Generated_Source\PSoC6\pdl\drivers\peripheral\prot/cy_prot.c **** ****************************************************************************//**
1745:Generated_Source\PSoC6\pdl\drivers\peripheral\prot/cy_prot.c **** *
1746:Generated_Source\PSoC6\pdl\drivers\peripheral\prot/cy_prot.c **** * \brief Enables the Slave PPU RG structure.
1747:Generated_Source\PSoC6\pdl\drivers\peripheral\prot/cy_prot.c **** *
1748:Generated_Source\PSoC6\pdl\drivers\peripheral\prot/cy_prot.c **** * This is a PPU RG slave struct enable function. The PPU RG protection 
1749:Generated_Source\PSoC6\pdl\drivers\peripheral\prot/cy_prot.c **** * settings will take effect after successful completion of this function call.
1750:Generated_Source\PSoC6\pdl\drivers\peripheral\prot/cy_prot.c **** *
1751:Generated_Source\PSoC6\pdl\drivers\peripheral\prot/cy_prot.c **** * \param base
1752:Generated_Source\PSoC6\pdl\drivers\peripheral\prot/cy_prot.c **** * The base address for the protection unit structure being configured. 
1753:Generated_Source\PSoC6\pdl\drivers\peripheral\prot/cy_prot.c **** *
1754:Generated_Source\PSoC6\pdl\drivers\peripheral\prot/cy_prot.c **** * \return
1755:Generated_Source\PSoC6\pdl\drivers\peripheral\prot/cy_prot.c **** * Status of the function call.
1756:Generated_Source\PSoC6\pdl\drivers\peripheral\prot/cy_prot.c **** *
1757:Generated_Source\PSoC6\pdl\drivers\peripheral\prot/cy_prot.c **** *   Status               | Description
1758:Generated_Source\PSoC6\pdl\drivers\peripheral\prot/cy_prot.c **** *   ------------         | -----------
1759:Generated_Source\PSoC6\pdl\drivers\peripheral\prot/cy_prot.c **** *   CY_PROT_SUCCESS      | The Slave PU struct was enabled
1760:Generated_Source\PSoC6\pdl\drivers\peripheral\prot/cy_prot.c **** *   CY_PROT_FAILURE      | The Slave PU struct is disabled and possibly locked
1761:Generated_Source\PSoC6\pdl\drivers\peripheral\prot/cy_prot.c **** *
1762:Generated_Source\PSoC6\pdl\drivers\peripheral\prot/cy_prot.c **** * \funcusage
1763:Generated_Source\PSoC6\pdl\drivers\peripheral\prot/cy_prot.c **** * \snippet prot/prot_v1_10_sut_01.cydsn/main_cm4.c snippet_Cy_Prot_EnablePpuFixedRgSlaveStruct
1764:Generated_Source\PSoC6\pdl\drivers\peripheral\prot/cy_prot.c **** *
1765:Generated_Source\PSoC6\pdl\drivers\peripheral\prot/cy_prot.c **** *******************************************************************************/
1766:Generated_Source\PSoC6\pdl\drivers\peripheral\prot/cy_prot.c **** cy_en_prot_status_t Cy_Prot_EnablePpuFixedRgSlaveStruct(PERI_GR_PPU_RG_Type* base)
1767:Generated_Source\PSoC6\pdl\drivers\peripheral\prot/cy_prot.c **** {   
 2950              		.loc 1 1767 0
 2951              		.cfi_startproc
 2952              		@ args = 0, pretend = 0, frame = 0
 2953              		@ frame_needed = 0, uses_anonymous_args = 0
 2954              		@ link register save eliminated.
 2955              	.LVL244:
1768:Generated_Source\PSoC6\pdl\drivers\peripheral\prot/cy_prot.c ****     cy_en_prot_status_t status;
1769:Generated_Source\PSoC6\pdl\drivers\peripheral\prot/cy_prot.c ****     
1770:Generated_Source\PSoC6\pdl\drivers\peripheral\prot/cy_prot.c ****     base->ATT0 |= _VAL2FLD(PERI_GR_PPU_RG_ATT0_ENABLED, CY_PROT_STRUCT_ENABLE);
 2956              		.loc 1 1770 0
 2957 0000 4368     		ldr	r3, [r0, #4]
 2958 0002 8022     		movs	r2, #128
 2959 0004 1206     		lsls	r2, r2, #24
 2960 0006 1343     		orrs	r3, r2
 2961 0008 4360     		str	r3, [r0, #4]
1771:Generated_Source\PSoC6\pdl\drivers\peripheral\prot/cy_prot.c ****     status = (_FLD2VAL(PERI_GR_PPU_RG_ATT0_ENABLED, base->ATT0) != CY_PROT_STRUCT_ENABLE) ?
 2962              		.loc 1 1771 0
 2963 000a 4368     		ldr	r3, [r0, #4]
 2964 000c 002B     		cmp	r3, #0
 2965 000e 01DB     		blt	.L261
 2966 0010 0148     		ldr	r0, .L262
 2967              	.LVL245:
 2968 0012 00E0     		b	.L260
 2969              	.LVL246:
 2970              	.L261:
 2971 0014 0020     		movs	r0, #0
ARM GAS  C:\Users\gjl\AppData\Local\Temp\cc7xIfgu.s 			page 85


 2972              	.LVL247:
 2973              	.L260:
1772:Generated_Source\PSoC6\pdl\drivers\peripheral\prot/cy_prot.c ****                 CY_PROT_FAILURE : CY_PROT_SUCCESS;
1773:Generated_Source\PSoC6\pdl\drivers\peripheral\prot/cy_prot.c ****     
1774:Generated_Source\PSoC6\pdl\drivers\peripheral\prot/cy_prot.c ****     return status;
1775:Generated_Source\PSoC6\pdl\drivers\peripheral\prot/cy_prot.c **** }
 2974              		.loc 1 1775 0 discriminator 4
 2975              		@ sp needed
 2976 0016 7047     		bx	lr
 2977              	.L263:
 2978              		.align	2
 2979              	.L262:
 2980 0018 0300C200 		.word	12713987
 2981              		.cfi_endproc
 2982              	.LFE70:
 2983              		.size	Cy_Prot_EnablePpuFixedRgSlaveStruct, .-Cy_Prot_EnablePpuFixedRgSlaveStruct
 2984              		.section	.text.Cy_Prot_DisablePpuFixedRgSlaveStruct,"ax",%progbits
 2985              		.align	2
 2986              		.global	Cy_Prot_DisablePpuFixedRgSlaveStruct
 2987              		.code	16
 2988              		.thumb_func
 2989              		.type	Cy_Prot_DisablePpuFixedRgSlaveStruct, %function
 2990              	Cy_Prot_DisablePpuFixedRgSlaveStruct:
 2991              	.LFB71:
1776:Generated_Source\PSoC6\pdl\drivers\peripheral\prot/cy_prot.c **** 
1777:Generated_Source\PSoC6\pdl\drivers\peripheral\prot/cy_prot.c **** 
1778:Generated_Source\PSoC6\pdl\drivers\peripheral\prot/cy_prot.c **** /*******************************************************************************
1779:Generated_Source\PSoC6\pdl\drivers\peripheral\prot/cy_prot.c **** * Function Name: Cy_Prot_DisablePpuFixedRgSlaveStruct
1780:Generated_Source\PSoC6\pdl\drivers\peripheral\prot/cy_prot.c **** ****************************************************************************//**
1781:Generated_Source\PSoC6\pdl\drivers\peripheral\prot/cy_prot.c **** *
1782:Generated_Source\PSoC6\pdl\drivers\peripheral\prot/cy_prot.c **** * \brief Disables the Slave PPU RG structure.
1783:Generated_Source\PSoC6\pdl\drivers\peripheral\prot/cy_prot.c **** *
1784:Generated_Source\PSoC6\pdl\drivers\peripheral\prot/cy_prot.c **** * This is a PPU RG slave struct disable function. The PPU RG protection 
1785:Generated_Source\PSoC6\pdl\drivers\peripheral\prot/cy_prot.c **** * settings will seize to take effect after successful completion of this 
1786:Generated_Source\PSoC6\pdl\drivers\peripheral\prot/cy_prot.c **** * function call.
1787:Generated_Source\PSoC6\pdl\drivers\peripheral\prot/cy_prot.c **** *
1788:Generated_Source\PSoC6\pdl\drivers\peripheral\prot/cy_prot.c **** * \param base
1789:Generated_Source\PSoC6\pdl\drivers\peripheral\prot/cy_prot.c **** * The base address for the protection unit structure being configured. 
1790:Generated_Source\PSoC6\pdl\drivers\peripheral\prot/cy_prot.c **** *
1791:Generated_Source\PSoC6\pdl\drivers\peripheral\prot/cy_prot.c **** * \return
1792:Generated_Source\PSoC6\pdl\drivers\peripheral\prot/cy_prot.c **** * Status of the function call.
1793:Generated_Source\PSoC6\pdl\drivers\peripheral\prot/cy_prot.c **** *
1794:Generated_Source\PSoC6\pdl\drivers\peripheral\prot/cy_prot.c **** *   Status               | Description
1795:Generated_Source\PSoC6\pdl\drivers\peripheral\prot/cy_prot.c **** *   ------------         | -----------
1796:Generated_Source\PSoC6\pdl\drivers\peripheral\prot/cy_prot.c **** *   CY_PROT_SUCCESS      | The Slave PU struct was disabled
1797:Generated_Source\PSoC6\pdl\drivers\peripheral\prot/cy_prot.c **** *   CY_PROT_FAILURE      | The Slave PU struct is enabled and possibly locked
1798:Generated_Source\PSoC6\pdl\drivers\peripheral\prot/cy_prot.c **** *
1799:Generated_Source\PSoC6\pdl\drivers\peripheral\prot/cy_prot.c **** * \funcusage
1800:Generated_Source\PSoC6\pdl\drivers\peripheral\prot/cy_prot.c **** * \snippet prot/prot_v1_10_sut_01.cydsn/main_cm4.c snippet_Cy_Prot_DisablePpuFixedRgSlaveStruct
1801:Generated_Source\PSoC6\pdl\drivers\peripheral\prot/cy_prot.c **** *
1802:Generated_Source\PSoC6\pdl\drivers\peripheral\prot/cy_prot.c **** *******************************************************************************/
1803:Generated_Source\PSoC6\pdl\drivers\peripheral\prot/cy_prot.c **** cy_en_prot_status_t Cy_Prot_DisablePpuFixedRgSlaveStruct(PERI_GR_PPU_RG_Type* base)
1804:Generated_Source\PSoC6\pdl\drivers\peripheral\prot/cy_prot.c **** {
 2992              		.loc 1 1804 0
 2993              		.cfi_startproc
 2994              		@ args = 0, pretend = 0, frame = 0
 2995              		@ frame_needed = 0, uses_anonymous_args = 0
ARM GAS  C:\Users\gjl\AppData\Local\Temp\cc7xIfgu.s 			page 86


 2996              		@ link register save eliminated.
 2997              	.LVL248:
1805:Generated_Source\PSoC6\pdl\drivers\peripheral\prot/cy_prot.c ****     cy_en_prot_status_t status;
1806:Generated_Source\PSoC6\pdl\drivers\peripheral\prot/cy_prot.c ****     
1807:Generated_Source\PSoC6\pdl\drivers\peripheral\prot/cy_prot.c ****     base->ATT0 &= ~_VAL2FLD(PERI_GR_PPU_RG_ATT0_ENABLED, CY_PROT_STRUCT_ENABLE);
 2998              		.loc 1 1807 0
 2999 0000 4368     		ldr	r3, [r0, #4]
 3000 0002 5B00     		lsls	r3, r3, #1
 3001 0004 5B08     		lsrs	r3, r3, #1
 3002 0006 4360     		str	r3, [r0, #4]
1808:Generated_Source\PSoC6\pdl\drivers\peripheral\prot/cy_prot.c ****     status = (_FLD2VAL(PERI_GR_PPU_RG_ATT0_ENABLED, base->ATT0) == CY_PROT_STRUCT_ENABLE) ?
 3003              		.loc 1 1808 0
 3004 0008 4368     		ldr	r3, [r0, #4]
 3005 000a 002B     		cmp	r3, #0
 3006 000c 01DA     		bge	.L266
 3007 000e 0248     		ldr	r0, .L267
 3008              	.LVL249:
 3009 0010 00E0     		b	.L265
 3010              	.LVL250:
 3011              	.L266:
 3012 0012 0020     		movs	r0, #0
 3013              	.LVL251:
 3014              	.L265:
1809:Generated_Source\PSoC6\pdl\drivers\peripheral\prot/cy_prot.c ****                 CY_PROT_FAILURE : CY_PROT_SUCCESS;
1810:Generated_Source\PSoC6\pdl\drivers\peripheral\prot/cy_prot.c ****     
1811:Generated_Source\PSoC6\pdl\drivers\peripheral\prot/cy_prot.c ****     return status;
1812:Generated_Source\PSoC6\pdl\drivers\peripheral\prot/cy_prot.c **** }
 3015              		.loc 1 1812 0 discriminator 4
 3016              		@ sp needed
 3017 0014 7047     		bx	lr
 3018              	.L268:
 3019 0016 C046     		.align	2
 3020              	.L267:
 3021 0018 0300C200 		.word	12713987
 3022              		.cfi_endproc
 3023              	.LFE71:
 3024              		.size	Cy_Prot_DisablePpuFixedRgSlaveStruct, .-Cy_Prot_DisablePpuFixedRgSlaveStruct
 3025              		.section	.rodata.str1.4,"aMS",%progbits,1
 3026              		.align	2
 3027              	.LC0:
 3028 0000 47656E65 		.ascii	"Generated_Source\\PSoC6\\pdl\\drivers\\peripheral\\"
 3028      72617465 
 3028      645F536F 
 3028      75726365 
 3028      5C50536F 
 3029 002e 70726F74 		.ascii	"prot\\cy_prot.c\000"
 3029      5C63795F 
 3029      70726F74 
 3029      2E6300
 3030              		.text
 3031              	.Letext0:
 3032              		.file 2 "c:\\program files (x86)\\cypress\\psoc creator\\4.2\\psoc creator\\import\\gnu\\arm\\5.4.
 3033              		.file 3 "c:\\program files (x86)\\cypress\\psoc creator\\4.2\\psoc creator\\import\\gnu\\arm\\5.4.
 3034              		.file 4 "Generated_Source\\PSoC6\\pdl\\devices/psoc6/psoc63/include/psoc63_config.h"
 3035              		.file 5 "Generated_Source\\PSoC6\\pdl\\devices/psoc6/ip/cyip_peri.h"
 3036              		.file 6 "Generated_Source\\PSoC6\\pdl\\devices/psoc6/ip/cyip_prot.h"
 3037              		.file 7 "Generated_Source\\PSoC6\\pdl\\drivers/peripheral/syslib/cy_syslib.h"
ARM GAS  C:\Users\gjl\AppData\Local\Temp\cc7xIfgu.s 			page 87


 3038              		.file 8 "Generated_Source\\PSoC6\\pdl\\drivers\\peripheral\\prot\\cy_prot.h"
 3039              		.section	.debug_info,"",%progbits
 3040              	.Ldebug_info0:
 3041 0000 E6170000 		.4byte	0x17e6
 3042 0004 0400     		.2byte	0x4
 3043 0006 00000000 		.4byte	.Ldebug_abbrev0
 3044 000a 04       		.byte	0x4
 3045 000b 01       		.uleb128 0x1
 3046 000c 0E090000 		.4byte	.LASF165
 3047 0010 0C       		.byte	0xc
 3048 0011 AE040000 		.4byte	.LASF166
 3049 0015 D3090000 		.4byte	.LASF167
 3050 0019 00000000 		.4byte	.Ldebug_ranges0+0
 3051 001d 00000000 		.4byte	0
 3052 0021 00000000 		.4byte	.Ldebug_line0
 3053 0025 02       		.uleb128 0x2
 3054 0026 04       		.byte	0x4
 3055 0027 05       		.byte	0x5
 3056 0028 696E7400 		.ascii	"int\000"
 3057 002c 03       		.uleb128 0x3
 3058 002d 04       		.byte	0x4
 3059 002e 07       		.byte	0x7
 3060 002f BE030000 		.4byte	.LASF0
 3061 0033 03       		.uleb128 0x3
 3062 0034 08       		.byte	0x8
 3063 0035 05       		.byte	0x5
 3064 0036 6E010000 		.4byte	.LASF1
 3065 003a 03       		.uleb128 0x3
 3066 003b 08       		.byte	0x8
 3067 003c 04       		.byte	0x4
 3068 003d A0090000 		.4byte	.LASF2
 3069 0041 03       		.uleb128 0x3
 3070 0042 01       		.byte	0x1
 3071 0043 06       		.byte	0x6
 3072 0044 7C010000 		.4byte	.LASF3
 3073 0048 04       		.uleb128 0x4
 3074 0049 9B000000 		.4byte	.LASF6
 3075 004d 02       		.byte	0x2
 3076 004e 1D       		.byte	0x1d
 3077 004f 53000000 		.4byte	0x53
 3078 0053 03       		.uleb128 0x3
 3079 0054 01       		.byte	0x1
 3080 0055 08       		.byte	0x8
 3081 0056 CD070000 		.4byte	.LASF4
 3082 005a 03       		.uleb128 0x3
 3083 005b 02       		.byte	0x2
 3084 005c 05       		.byte	0x5
 3085 005d FC070000 		.4byte	.LASF5
 3086 0061 04       		.uleb128 0x4
 3087 0062 B8090000 		.4byte	.LASF7
 3088 0066 02       		.byte	0x2
 3089 0067 2B       		.byte	0x2b
 3090 0068 6C000000 		.4byte	0x6c
 3091 006c 03       		.uleb128 0x3
 3092 006d 02       		.byte	0x2
 3093 006e 07       		.byte	0x7
 3094 006f 8F040000 		.4byte	.LASF8
ARM GAS  C:\Users\gjl\AppData\Local\Temp\cc7xIfgu.s 			page 88


 3095 0073 03       		.uleb128 0x3
 3096 0074 04       		.byte	0x4
 3097 0075 05       		.byte	0x5
 3098 0076 77020000 		.4byte	.LASF9
 3099 007a 04       		.uleb128 0x4
 3100 007b 0C030000 		.4byte	.LASF10
 3101 007f 02       		.byte	0x2
 3102 0080 41       		.byte	0x41
 3103 0081 85000000 		.4byte	0x85
 3104 0085 03       		.uleb128 0x3
 3105 0086 04       		.byte	0x4
 3106 0087 07       		.byte	0x7
 3107 0088 12040000 		.4byte	.LASF11
 3108 008c 03       		.uleb128 0x3
 3109 008d 08       		.byte	0x8
 3110 008e 07       		.byte	0x7
 3111 008f 11010000 		.4byte	.LASF12
 3112 0093 04       		.uleb128 0x4
 3113 0094 170B0000 		.4byte	.LASF13
 3114 0098 03       		.byte	0x3
 3115 0099 18       		.byte	0x18
 3116 009a 48000000 		.4byte	0x48
 3117 009e 04       		.uleb128 0x4
 3118 009f 98020000 		.4byte	.LASF14
 3119 00a3 03       		.byte	0x3
 3120 00a4 24       		.byte	0x24
 3121 00a5 61000000 		.4byte	0x61
 3122 00a9 04       		.uleb128 0x4
 3123 00aa CF080000 		.4byte	.LASF15
 3124 00ae 03       		.byte	0x3
 3125 00af 30       		.byte	0x30
 3126 00b0 7A000000 		.4byte	0x7a
 3127 00b4 03       		.uleb128 0x3
 3128 00b5 04       		.byte	0x4
 3129 00b6 07       		.byte	0x7
 3130 00b7 490B0000 		.4byte	.LASF16
 3131 00bb 05       		.uleb128 0x5
 3132 00bc A9000000 		.4byte	0xa9
 3133 00c0 06       		.uleb128 0x6
 3134 00c1 BB000000 		.4byte	0xbb
 3135 00c5 07       		.uleb128 0x7
 3136 00c6 01       		.byte	0x1
 3137 00c7 53000000 		.4byte	0x53
 3138 00cb 04       		.byte	0x4
 3139 00cc 1406     		.2byte	0x614
 3140 00ce F7000000 		.4byte	0xf7
 3141 00d2 08       		.uleb128 0x8
 3142 00d3 C3090000 		.4byte	.LASF17
 3143 00d7 00       		.byte	0
 3144 00d8 08       		.uleb128 0x8
 3145 00d9 C6010000 		.4byte	.LASF18
 3146 00dd 01       		.byte	0x1
 3147 00de 08       		.uleb128 0x8
 3148 00df 520B0000 		.4byte	.LASF19
 3149 00e3 02       		.byte	0x2
 3150 00e4 08       		.uleb128 0x8
 3151 00e5 8D0A0000 		.4byte	.LASF20
ARM GAS  C:\Users\gjl\AppData\Local\Temp\cc7xIfgu.s 			page 89


 3152 00e9 03       		.byte	0x3
 3153 00ea 08       		.uleb128 0x8
 3154 00eb A4060000 		.4byte	.LASF21
 3155 00ef 0E       		.byte	0xe
 3156 00f0 08       		.uleb128 0x8
 3157 00f1 1E0C0000 		.4byte	.LASF22
 3158 00f5 0F       		.byte	0xf
 3159 00f6 00       		.byte	0
 3160 00f7 09       		.uleb128 0x9
 3161 00f8 87020000 		.4byte	.LASF23
 3162 00fc 04       		.byte	0x4
 3163 00fd 1B06     		.2byte	0x61b
 3164 00ff C5000000 		.4byte	0xc5
 3165 0103 0A       		.uleb128 0xa
 3166 0104 C0000000 		.4byte	0xc0
 3167 0108 14010000 		.4byte	0x114
 3168 010c 0B       		.uleb128 0xb
 3169 010d B4000000 		.4byte	0xb4
 3170 0111 FF05     		.2byte	0x5ff
 3171 0113 00       		.byte	0
 3172 0114 0A       		.uleb128 0xa
 3173 0115 C0000000 		.4byte	0xc0
 3174 0119 24010000 		.4byte	0x124
 3175 011d 0C       		.uleb128 0xc
 3176 011e B4000000 		.4byte	0xb4
 3177 0122 05       		.byte	0x5
 3178 0123 00       		.byte	0
 3179 0124 0D       		.uleb128 0xd
 3180 0125 40       		.byte	0x40
 3181 0126 05       		.byte	0x5
 3182 0127 39       		.byte	0x39
 3183 0128 75010000 		.4byte	0x175
 3184 012c 0E       		.uleb128 0xe
 3185 012d A2040000 		.4byte	.LASF24
 3186 0131 05       		.byte	0x5
 3187 0132 3A       		.byte	0x3a
 3188 0133 BB000000 		.4byte	0xbb
 3189 0137 00       		.byte	0
 3190 0138 0E       		.uleb128 0xe
 3191 0139 FF020000 		.4byte	.LASF25
 3192 013d 05       		.byte	0x5
 3193 013e 3B       		.byte	0x3b
 3194 013f BB000000 		.4byte	0xbb
 3195 0143 04       		.byte	0x4
 3196 0144 0E       		.uleb128 0xe
 3197 0145 210A0000 		.4byte	.LASF26
 3198 0149 05       		.byte	0x5
 3199 014a 3C       		.byte	0x3c
 3200 014b 7A010000 		.4byte	0x17a
 3201 014f 08       		.byte	0x8
 3202 0150 0E       		.uleb128 0xe
 3203 0151 A8040000 		.4byte	.LASF27
 3204 0155 05       		.byte	0x5
 3205 0156 3D       		.byte	0x3d
 3206 0157 C0000000 		.4byte	0xc0
 3207 015b 20       		.byte	0x20
 3208 015c 0E       		.uleb128 0xe
ARM GAS  C:\Users\gjl\AppData\Local\Temp\cc7xIfgu.s 			page 90


 3209 015d 9D0A0000 		.4byte	.LASF28
 3210 0161 05       		.byte	0x5
 3211 0162 3E       		.byte	0x3e
 3212 0163 BB000000 		.4byte	0xbb
 3213 0167 24       		.byte	0x24
 3214 0168 0E       		.uleb128 0xe
 3215 0169 52070000 		.4byte	.LASF29
 3216 016d 05       		.byte	0x5
 3217 016e 3F       		.byte	0x3f
 3218 016f 84010000 		.4byte	0x184
 3219 0173 28       		.byte	0x28
 3220 0174 00       		.byte	0
 3221 0175 05       		.uleb128 0x5
 3222 0176 14010000 		.4byte	0x114
 3223 017a 06       		.uleb128 0x6
 3224 017b 75010000 		.4byte	0x175
 3225 017f 05       		.uleb128 0x5
 3226 0180 14010000 		.4byte	0x114
 3227 0184 06       		.uleb128 0x6
 3228 0185 7F010000 		.4byte	0x17f
 3229 0189 04       		.uleb128 0x4
 3230 018a C20A0000 		.4byte	.LASF30
 3231 018e 05       		.byte	0x5
 3232 018f 40       		.byte	0x40
 3233 0190 24010000 		.4byte	0x124
 3234 0194 0D       		.uleb128 0xd
 3235 0195 40       		.byte	0x40
 3236 0196 05       		.byte	0x5
 3237 0197 45       		.byte	0x45
 3238 0198 E5010000 		.4byte	0x1e5
 3239 019c 0E       		.uleb128 0xe
 3240 019d A2040000 		.4byte	.LASF24
 3241 01a1 05       		.byte	0x5
 3242 01a2 46       		.byte	0x46
 3243 01a3 C0000000 		.4byte	0xc0
 3244 01a7 00       		.byte	0
 3245 01a8 0E       		.uleb128 0xe
 3246 01a9 FF020000 		.4byte	.LASF25
 3247 01ad 05       		.byte	0x5
 3248 01ae 47       		.byte	0x47
 3249 01af BB000000 		.4byte	0xbb
 3250 01b3 04       		.byte	0x4
 3251 01b4 0E       		.uleb128 0xe
 3252 01b5 210A0000 		.4byte	.LASF26
 3253 01b9 05       		.byte	0x5
 3254 01ba 48       		.byte	0x48
 3255 01bb EA010000 		.4byte	0x1ea
 3256 01bf 08       		.byte	0x8
 3257 01c0 0E       		.uleb128 0xe
 3258 01c1 A8040000 		.4byte	.LASF27
 3259 01c5 05       		.byte	0x5
 3260 01c6 49       		.byte	0x49
 3261 01c7 C0000000 		.4byte	0xc0
 3262 01cb 20       		.byte	0x20
 3263 01cc 0E       		.uleb128 0xe
 3264 01cd 9D0A0000 		.4byte	.LASF28
 3265 01d1 05       		.byte	0x5
ARM GAS  C:\Users\gjl\AppData\Local\Temp\cc7xIfgu.s 			page 91


 3266 01d2 4A       		.byte	0x4a
 3267 01d3 BB000000 		.4byte	0xbb
 3268 01d7 24       		.byte	0x24
 3269 01d8 0E       		.uleb128 0xe
 3270 01d9 52070000 		.4byte	.LASF29
 3271 01dd 05       		.byte	0x5
 3272 01de 4B       		.byte	0x4b
 3273 01df F4010000 		.4byte	0x1f4
 3274 01e3 28       		.byte	0x28
 3275 01e4 00       		.byte	0
 3276 01e5 05       		.uleb128 0x5
 3277 01e6 14010000 		.4byte	0x114
 3278 01ea 06       		.uleb128 0x6
 3279 01eb E5010000 		.4byte	0x1e5
 3280 01ef 05       		.uleb128 0x5
 3281 01f0 14010000 		.4byte	0x114
 3282 01f4 06       		.uleb128 0x6
 3283 01f5 EF010000 		.4byte	0x1ef
 3284 01f9 04       		.uleb128 0x4
 3285 01fa F8000000 		.4byte	.LASF31
 3286 01fe 05       		.byte	0x5
 3287 01ff 4C       		.byte	0x4c
 3288 0200 94010000 		.4byte	0x194
 3289 0204 0D       		.uleb128 0xd
 3290 0205 40       		.byte	0x40
 3291 0206 05       		.byte	0x5
 3292 0207 51       		.byte	0x51
 3293 0208 55020000 		.4byte	0x255
 3294 020c 0E       		.uleb128 0xe
 3295 020d A2040000 		.4byte	.LASF24
 3296 0211 05       		.byte	0x5
 3297 0212 52       		.byte	0x52
 3298 0213 C0000000 		.4byte	0xc0
 3299 0217 00       		.byte	0
 3300 0218 0E       		.uleb128 0xe
 3301 0219 FF020000 		.4byte	.LASF25
 3302 021d 05       		.byte	0x5
 3303 021e 53       		.byte	0x53
 3304 021f BB000000 		.4byte	0xbb
 3305 0223 04       		.byte	0x4
 3306 0224 0E       		.uleb128 0xe
 3307 0225 210A0000 		.4byte	.LASF26
 3308 0229 05       		.byte	0x5
 3309 022a 54       		.byte	0x54
 3310 022b 5A020000 		.4byte	0x25a
 3311 022f 08       		.byte	0x8
 3312 0230 0E       		.uleb128 0xe
 3313 0231 A8040000 		.4byte	.LASF27
 3314 0235 05       		.byte	0x5
 3315 0236 55       		.byte	0x55
 3316 0237 C0000000 		.4byte	0xc0
 3317 023b 20       		.byte	0x20
 3318 023c 0E       		.uleb128 0xe
 3319 023d 9D0A0000 		.4byte	.LASF28
 3320 0241 05       		.byte	0x5
 3321 0242 56       		.byte	0x56
 3322 0243 BB000000 		.4byte	0xbb
ARM GAS  C:\Users\gjl\AppData\Local\Temp\cc7xIfgu.s 			page 92


 3323 0247 24       		.byte	0x24
 3324 0248 0E       		.uleb128 0xe
 3325 0249 52070000 		.4byte	.LASF29
 3326 024d 05       		.byte	0x5
 3327 024e 57       		.byte	0x57
 3328 024f 64020000 		.4byte	0x264
 3329 0253 28       		.byte	0x28
 3330 0254 00       		.byte	0
 3331 0255 05       		.uleb128 0x5
 3332 0256 14010000 		.4byte	0x114
 3333 025a 06       		.uleb128 0x6
 3334 025b 55020000 		.4byte	0x255
 3335 025f 05       		.uleb128 0x5
 3336 0260 14010000 		.4byte	0x114
 3337 0264 06       		.uleb128 0x6
 3338 0265 5F020000 		.4byte	0x25f
 3339 0269 04       		.uleb128 0x4
 3340 026a 23050000 		.4byte	.LASF32
 3341 026e 05       		.byte	0x5
 3342 026f 58       		.byte	0x58
 3343 0270 04020000 		.4byte	0x204
 3344 0274 0D       		.uleb128 0xd
 3345 0275 40       		.byte	0x40
 3346 0276 05       		.byte	0x5
 3347 0277 5D       		.byte	0x5d
 3348 0278 C5020000 		.4byte	0x2c5
 3349 027c 0E       		.uleb128 0xe
 3350 027d A2040000 		.4byte	.LASF24
 3351 0281 05       		.byte	0x5
 3352 0282 5E       		.byte	0x5e
 3353 0283 C0000000 		.4byte	0xc0
 3354 0287 00       		.byte	0
 3355 0288 0E       		.uleb128 0xe
 3356 0289 FF020000 		.4byte	.LASF25
 3357 028d 05       		.byte	0x5
 3358 028e 5F       		.byte	0x5f
 3359 028f BB000000 		.4byte	0xbb
 3360 0293 04       		.byte	0x4
 3361 0294 0E       		.uleb128 0xe
 3362 0295 210A0000 		.4byte	.LASF26
 3363 0299 05       		.byte	0x5
 3364 029a 60       		.byte	0x60
 3365 029b CA020000 		.4byte	0x2ca
 3366 029f 08       		.byte	0x8
 3367 02a0 0E       		.uleb128 0xe
 3368 02a1 A8040000 		.4byte	.LASF27
 3369 02a5 05       		.byte	0x5
 3370 02a6 61       		.byte	0x61
 3371 02a7 C0000000 		.4byte	0xc0
 3372 02ab 20       		.byte	0x20
 3373 02ac 0E       		.uleb128 0xe
 3374 02ad 9D0A0000 		.4byte	.LASF28
 3375 02b1 05       		.byte	0x5
 3376 02b2 62       		.byte	0x62
 3377 02b3 BB000000 		.4byte	0xbb
 3378 02b7 24       		.byte	0x24
 3379 02b8 0E       		.uleb128 0xe
ARM GAS  C:\Users\gjl\AppData\Local\Temp\cc7xIfgu.s 			page 93


 3380 02b9 52070000 		.4byte	.LASF29
 3381 02bd 05       		.byte	0x5
 3382 02be 63       		.byte	0x63
 3383 02bf D4020000 		.4byte	0x2d4
 3384 02c3 28       		.byte	0x28
 3385 02c4 00       		.byte	0
 3386 02c5 05       		.uleb128 0x5
 3387 02c6 14010000 		.4byte	0x114
 3388 02ca 06       		.uleb128 0x6
 3389 02cb C5020000 		.4byte	0x2c5
 3390 02cf 05       		.uleb128 0x5
 3391 02d0 14010000 		.4byte	0x114
 3392 02d4 06       		.uleb128 0x6
 3393 02d5 CF020000 		.4byte	0x2cf
 3394 02d9 04       		.uleb128 0x4
 3395 02da 6D0C0000 		.4byte	.LASF33
 3396 02de 05       		.byte	0x5
 3397 02df 64       		.byte	0x64
 3398 02e0 74020000 		.4byte	0x274
 3399 02e4 0D       		.uleb128 0xd
 3400 02e5 40       		.byte	0x40
 3401 02e6 06       		.byte	0x6
 3402 02e7 25       		.byte	0x25
 3403 02e8 35030000 		.4byte	0x335
 3404 02ec 0E       		.uleb128 0xe
 3405 02ed A2040000 		.4byte	.LASF24
 3406 02f1 06       		.byte	0x6
 3407 02f2 26       		.byte	0x26
 3408 02f3 BB000000 		.4byte	0xbb
 3409 02f7 00       		.byte	0
 3410 02f8 0E       		.uleb128 0xe
 3411 02f9 FF020000 		.4byte	.LASF25
 3412 02fd 06       		.byte	0x6
 3413 02fe 27       		.byte	0x27
 3414 02ff BB000000 		.4byte	0xbb
 3415 0303 04       		.byte	0x4
 3416 0304 0E       		.uleb128 0xe
 3417 0305 210A0000 		.4byte	.LASF26
 3418 0309 06       		.byte	0x6
 3419 030a 28       		.byte	0x28
 3420 030b 3A030000 		.4byte	0x33a
 3421 030f 08       		.byte	0x8
 3422 0310 0E       		.uleb128 0xe
 3423 0311 A8040000 		.4byte	.LASF27
 3424 0315 06       		.byte	0x6
 3425 0316 29       		.byte	0x29
 3426 0317 C0000000 		.4byte	0xc0
 3427 031b 20       		.byte	0x20
 3428 031c 0E       		.uleb128 0xe
 3429 031d 9D0A0000 		.4byte	.LASF28
 3430 0321 06       		.byte	0x6
 3431 0322 2A       		.byte	0x2a
 3432 0323 BB000000 		.4byte	0xbb
 3433 0327 24       		.byte	0x24
 3434 0328 0E       		.uleb128 0xe
 3435 0329 52070000 		.4byte	.LASF29
 3436 032d 06       		.byte	0x6
ARM GAS  C:\Users\gjl\AppData\Local\Temp\cc7xIfgu.s 			page 94


 3437 032e 2B       		.byte	0x2b
 3438 032f 44030000 		.4byte	0x344
 3439 0333 28       		.byte	0x28
 3440 0334 00       		.byte	0
 3441 0335 05       		.uleb128 0x5
 3442 0336 14010000 		.4byte	0x114
 3443 033a 06       		.uleb128 0x6
 3444 033b 35030000 		.4byte	0x335
 3445 033f 05       		.uleb128 0x5
 3446 0340 14010000 		.4byte	0x114
 3447 0344 06       		.uleb128 0x6
 3448 0345 3F030000 		.4byte	0x33f
 3449 0349 04       		.uleb128 0x4
 3450 034a 77070000 		.4byte	.LASF34
 3451 034e 06       		.byte	0x6
 3452 034f 2C       		.byte	0x2c
 3453 0350 E4020000 		.4byte	0x2e4
 3454 0354 0F       		.uleb128 0xf
 3455 0355 0040     		.2byte	0x4000
 3456 0357 06       		.byte	0x6
 3457 0358 31       		.byte	0x31
 3458 0359 44040000 		.4byte	0x444
 3459 035d 0E       		.uleb128 0xe
 3460 035e C7080000 		.4byte	.LASF35
 3461 0362 06       		.byte	0x6
 3462 0363 32       		.byte	0x32
 3463 0364 BB000000 		.4byte	0xbb
 3464 0368 00       		.byte	0
 3465 0369 0E       		.uleb128 0xe
 3466 036a 24040000 		.4byte	.LASF36
 3467 036e 06       		.byte	0x6
 3468 036f 33       		.byte	0x33
 3469 0370 BB000000 		.4byte	0xbb
 3470 0374 04       		.byte	0x4
 3471 0375 0E       		.uleb128 0xe
 3472 0376 2D0C0000 		.4byte	.LASF37
 3473 037a 06       		.byte	0x6
 3474 037b 34       		.byte	0x34
 3475 037c BB000000 		.4byte	0xbb
 3476 0380 08       		.byte	0x8
 3477 0381 0E       		.uleb128 0xe
 3478 0382 58080000 		.4byte	.LASF38
 3479 0386 06       		.byte	0x6
 3480 0387 35       		.byte	0x35
 3481 0388 BB000000 		.4byte	0xbb
 3482 038c 0C       		.byte	0xc
 3483 038d 0E       		.uleb128 0xe
 3484 038e A8020000 		.4byte	.LASF39
 3485 0392 06       		.byte	0x6
 3486 0393 36       		.byte	0x36
 3487 0394 BB000000 		.4byte	0xbb
 3488 0398 10       		.byte	0x10
 3489 0399 0E       		.uleb128 0xe
 3490 039a F60A0000 		.4byte	.LASF40
 3491 039e 06       		.byte	0x6
 3492 039f 37       		.byte	0x37
 3493 03a0 BB000000 		.4byte	0xbb
ARM GAS  C:\Users\gjl\AppData\Local\Temp\cc7xIfgu.s 			page 95


 3494 03a4 14       		.byte	0x14
 3495 03a5 0E       		.uleb128 0xe
 3496 03a6 D6050000 		.4byte	.LASF41
 3497 03aa 06       		.byte	0x6
 3498 03ab 38       		.byte	0x38
 3499 03ac BB000000 		.4byte	0xbb
 3500 03b0 18       		.byte	0x18
 3501 03b1 0E       		.uleb128 0xe
 3502 03b2 4D010000 		.4byte	.LASF42
 3503 03b6 06       		.byte	0x6
 3504 03b7 39       		.byte	0x39
 3505 03b8 BB000000 		.4byte	0xbb
 3506 03bc 1C       		.byte	0x1c
 3507 03bd 0E       		.uleb128 0xe
 3508 03be 760A0000 		.4byte	.LASF43
 3509 03c2 06       		.byte	0x6
 3510 03c3 3A       		.byte	0x3a
 3511 03c4 BB000000 		.4byte	0xbb
 3512 03c8 20       		.byte	0x20
 3513 03c9 0E       		.uleb128 0xe
 3514 03ca 76040000 		.4byte	.LASF44
 3515 03ce 06       		.byte	0x6
 3516 03cf 3B       		.byte	0x3b
 3517 03d0 BB000000 		.4byte	0xbb
 3518 03d4 24       		.byte	0x24
 3519 03d5 0E       		.uleb128 0xe
 3520 03d6 12000000 		.4byte	.LASF45
 3521 03da 06       		.byte	0x6
 3522 03db 3C       		.byte	0x3c
 3523 03dc BB000000 		.4byte	0xbb
 3524 03e0 28       		.byte	0x28
 3525 03e1 0E       		.uleb128 0xe
 3526 03e2 F3070000 		.4byte	.LASF46
 3527 03e6 06       		.byte	0x6
 3528 03e7 3D       		.byte	0x3d
 3529 03e8 BB000000 		.4byte	0xbb
 3530 03ec 2C       		.byte	0x2c
 3531 03ed 0E       		.uleb128 0xe
 3532 03ee 4F080000 		.4byte	.LASF47
 3533 03f2 06       		.byte	0x6
 3534 03f3 3E       		.byte	0x3e
 3535 03f4 BB000000 		.4byte	0xbb
 3536 03f8 30       		.byte	0x30
 3537 03f9 0E       		.uleb128 0xe
 3538 03fa 300B0000 		.4byte	.LASF48
 3539 03fe 06       		.byte	0x6
 3540 03ff 3F       		.byte	0x3f
 3541 0400 BB000000 		.4byte	0xbb
 3542 0404 34       		.byte	0x34
 3543 0405 0E       		.uleb128 0xe
 3544 0406 43060000 		.4byte	.LASF49
 3545 040a 06       		.byte	0x6
 3546 040b 40       		.byte	0x40
 3547 040c BB000000 		.4byte	0xbb
 3548 0410 38       		.byte	0x38
 3549 0411 0E       		.uleb128 0xe
 3550 0412 BD010000 		.4byte	.LASF50
ARM GAS  C:\Users\gjl\AppData\Local\Temp\cc7xIfgu.s 			page 96


 3551 0416 06       		.byte	0x6
 3552 0417 41       		.byte	0x41
 3553 0418 BB000000 		.4byte	0xbb
 3554 041c 3C       		.byte	0x3c
 3555 041d 0E       		.uleb128 0xe
 3556 041e 210A0000 		.4byte	.LASF26
 3557 0422 06       		.byte	0x6
 3558 0423 42       		.byte	0x42
 3559 0424 5A040000 		.4byte	0x45a
 3560 0428 40       		.byte	0x40
 3561 0429 10       		.uleb128 0x10
 3562 042a 430A0000 		.4byte	.LASF51
 3563 042e 06       		.byte	0x6
 3564 042f 43       		.byte	0x43
 3565 0430 5F040000 		.4byte	0x45f
 3566 0434 0020     		.2byte	0x2000
 3567 0436 10       		.uleb128 0x10
 3568 0437 52070000 		.4byte	.LASF29
 3569 043b 06       		.byte	0x6
 3570 043c 44       		.byte	0x44
 3571 043d 74040000 		.4byte	0x474
 3572 0441 0028     		.2byte	0x2800
 3573 0443 00       		.byte	0
 3574 0444 0A       		.uleb128 0xa
 3575 0445 C0000000 		.4byte	0xc0
 3576 0449 55040000 		.4byte	0x455
 3577 044d 0B       		.uleb128 0xb
 3578 044e B4000000 		.4byte	0xb4
 3579 0452 EF07     		.2byte	0x7ef
 3580 0454 00       		.byte	0
 3581 0455 05       		.uleb128 0x5
 3582 0456 44040000 		.4byte	0x444
 3583 045a 06       		.uleb128 0x6
 3584 045b 55040000 		.4byte	0x455
 3585 045f 0A       		.uleb128 0xa
 3586 0460 49030000 		.4byte	0x349
 3587 0464 6F040000 		.4byte	0x46f
 3588 0468 0C       		.uleb128 0xc
 3589 0469 B4000000 		.4byte	0xb4
 3590 046d 1F       		.byte	0x1f
 3591 046e 00       		.byte	0
 3592 046f 05       		.uleb128 0x5
 3593 0470 03010000 		.4byte	0x103
 3594 0474 06       		.uleb128 0x6
 3595 0475 6F040000 		.4byte	0x46f
 3596 0479 04       		.uleb128 0x4
 3597 047a 7E0A0000 		.4byte	.LASF52
 3598 047e 06       		.byte	0x6
 3599 047f 45       		.byte	0x45
 3600 0480 54030000 		.4byte	0x354
 3601 0484 0D       		.uleb128 0xd
 3602 0485 20       		.byte	0x20
 3603 0486 06       		.byte	0x6
 3604 0487 4A       		.byte	0x4a
 3605 0488 B1040000 		.4byte	0x4b1
 3606 048c 0E       		.uleb128 0xe
 3607 048d 55010000 		.4byte	.LASF53
ARM GAS  C:\Users\gjl\AppData\Local\Temp\cc7xIfgu.s 			page 97


 3608 0491 06       		.byte	0x6
 3609 0492 4B       		.byte	0x4b
 3610 0493 BB000000 		.4byte	0xbb
 3611 0497 00       		.byte	0
 3612 0498 11       		.uleb128 0x11
 3613 0499 41545400 		.ascii	"ATT\000"
 3614 049d 06       		.byte	0x6
 3615 049e 4C       		.byte	0x4c
 3616 049f BB000000 		.4byte	0xbb
 3617 04a3 04       		.byte	0x4
 3618 04a4 0E       		.uleb128 0xe
 3619 04a5 210A0000 		.4byte	.LASF26
 3620 04a9 06       		.byte	0x6
 3621 04aa 4D       		.byte	0x4d
 3622 04ab B6040000 		.4byte	0x4b6
 3623 04af 08       		.byte	0x8
 3624 04b0 00       		.byte	0
 3625 04b1 05       		.uleb128 0x5
 3626 04b2 14010000 		.4byte	0x114
 3627 04b6 06       		.uleb128 0x6
 3628 04b7 B1040000 		.4byte	0x4b1
 3629 04bb 04       		.uleb128 0x4
 3630 04bc B0020000 		.4byte	.LASF54
 3631 04c0 06       		.byte	0x6
 3632 04c1 4E       		.byte	0x4e
 3633 04c2 84040000 		.4byte	0x484
 3634 04c6 0F       		.uleb128 0xf
 3635 04c7 0004     		.2byte	0x400
 3636 04c9 06       		.byte	0x6
 3637 04ca 53       		.byte	0x53
 3638 04cb F5040000 		.4byte	0x4f5
 3639 04cf 0E       		.uleb128 0xe
 3640 04d0 0B060000 		.4byte	.LASF55
 3641 04d4 06       		.byte	0x6
 3642 04d5 54       		.byte	0x54
 3643 04d6 BB000000 		.4byte	0xbb
 3644 04da 00       		.byte	0
 3645 04db 0E       		.uleb128 0xe
 3646 04dc 210A0000 		.4byte	.LASF26
 3647 04e0 06       		.byte	0x6
 3648 04e1 55       		.byte	0x55
 3649 04e2 0A050000 		.4byte	0x50a
 3650 04e6 04       		.byte	0x4
 3651 04e7 10       		.uleb128 0x10
 3652 04e8 17030000 		.4byte	.LASF56
 3653 04ec 06       		.byte	0x6
 3654 04ed 56       		.byte	0x56
 3655 04ee 0F050000 		.4byte	0x50f
 3656 04f2 0002     		.2byte	0x200
 3657 04f4 00       		.byte	0
 3658 04f5 0A       		.uleb128 0xa
 3659 04f6 C0000000 		.4byte	0xc0
 3660 04fa 05050000 		.4byte	0x505
 3661 04fe 0C       		.uleb128 0xc
 3662 04ff B4000000 		.4byte	0xb4
 3663 0503 7E       		.byte	0x7e
 3664 0504 00       		.byte	0
ARM GAS  C:\Users\gjl\AppData\Local\Temp\cc7xIfgu.s 			page 98


 3665 0505 05       		.uleb128 0x5
 3666 0506 F5040000 		.4byte	0x4f5
 3667 050a 06       		.uleb128 0x6
 3668 050b 05050000 		.4byte	0x505
 3669 050f 0A       		.uleb128 0xa
 3670 0510 BB040000 		.4byte	0x4bb
 3671 0514 1F050000 		.4byte	0x51f
 3672 0518 0C       		.uleb128 0xc
 3673 0519 B4000000 		.4byte	0xb4
 3674 051d 0F       		.byte	0xf
 3675 051e 00       		.byte	0
 3676 051f 04       		.uleb128 0x4
 3677 0520 97050000 		.4byte	.LASF57
 3678 0524 06       		.byte	0x6
 3679 0525 57       		.byte	0x57
 3680 0526 C6040000 		.4byte	0x4c6
 3681 052a 0F       		.uleb128 0xf
 3682 052b 0080     		.2byte	0x8000
 3683 052d 06       		.byte	0x6
 3684 052e 5C       		.byte	0x5c
 3685 052f 4D050000 		.4byte	0x54d
 3686 0533 0E       		.uleb128 0xe
 3687 0534 39010000 		.4byte	.LASF58
 3688 0538 06       		.byte	0x6
 3689 0539 5D       		.byte	0x5d
 3690 053a 79040000 		.4byte	0x479
 3691 053e 00       		.byte	0
 3692 053f 10       		.uleb128 0x10
 3693 0540 05060000 		.4byte	.LASF59
 3694 0544 06       		.byte	0x6
 3695 0545 5E       		.byte	0x5e
 3696 0546 4D050000 		.4byte	0x54d
 3697 054a 0040     		.2byte	0x4000
 3698 054c 00       		.byte	0
 3699 054d 0A       		.uleb128 0xa
 3700 054e 1F050000 		.4byte	0x51f
 3701 0552 5D050000 		.4byte	0x55d
 3702 0556 0C       		.uleb128 0xc
 3703 0557 B4000000 		.4byte	0xb4
 3704 055b 0F       		.byte	0xf
 3705 055c 00       		.byte	0
 3706 055d 04       		.uleb128 0x4
 3707 055e 9A010000 		.4byte	.LASF60
 3708 0562 06       		.byte	0x6
 3709 0563 5F       		.byte	0x5f
 3710 0564 2A050000 		.4byte	0x52a
 3711 0568 09       		.uleb128 0x9
 3712 0569 E9030000 		.4byte	.LASF61
 3713 056d 07       		.byte	0x7
 3714 056e C401     		.2byte	0x1c4
 3715 0570 74050000 		.4byte	0x574
 3716 0574 03       		.uleb128 0x3
 3717 0575 01       		.byte	0x1
 3718 0576 08       		.byte	0x8
 3719 0577 AC090000 		.4byte	.LASF62
 3720 057b 03       		.uleb128 0x3
 3721 057c 04       		.byte	0x4
ARM GAS  C:\Users\gjl\AppData\Local\Temp\cc7xIfgu.s 			page 99


 3722 057d 04       		.byte	0x4
 3723 057e 430B0000 		.4byte	.LASF63
 3724 0582 03       		.uleb128 0x3
 3725 0583 08       		.byte	0x8
 3726 0584 04       		.byte	0x4
 3727 0585 A1020000 		.4byte	.LASF64
 3728 0589 07       		.uleb128 0x7
 3729 058a 04       		.byte	0x4
 3730 058b 2C000000 		.4byte	0x2c
 3731 058f 08       		.byte	0x8
 3732 0590 A001     		.2byte	0x1a0
 3733 0592 AF050000 		.4byte	0x5af
 3734 0596 08       		.uleb128 0x8
 3735 0597 F0030000 		.4byte	.LASF65
 3736 059b 00       		.byte	0
 3737 059c 12       		.uleb128 0x12
 3738 059d 2F000000 		.4byte	.LASF66
 3739 05a1 0100C200 		.4byte	0xc20001
 3740 05a5 12       		.uleb128 0x12
 3741 05a6 660A0000 		.4byte	.LASF67
 3742 05aa 0300C200 		.4byte	0xc20003
 3743 05ae 00       		.byte	0
 3744 05af 09       		.uleb128 0x9
 3745 05b0 3E040000 		.4byte	.LASF68
 3746 05b4 08       		.byte	0x8
 3747 05b5 A401     		.2byte	0x1a4
 3748 05b7 89050000 		.4byte	0x589
 3749 05bb 07       		.uleb128 0x7
 3750 05bc 01       		.byte	0x1
 3751 05bd 53000000 		.4byte	0x53
 3752 05c1 08       		.byte	0x8
 3753 05c2 AA01     		.2byte	0x1aa
 3754 05c4 F9050000 		.4byte	0x5f9
 3755 05c8 08       		.uleb128 0x8
 3756 05c9 6D030000 		.4byte	.LASF69
 3757 05cd 00       		.byte	0
 3758 05ce 08       		.uleb128 0x8
 3759 05cf 3E010000 		.4byte	.LASF70
 3760 05d3 01       		.byte	0x1
 3761 05d4 08       		.uleb128 0x8
 3762 05d5 C3000000 		.4byte	.LASF71
 3763 05d9 02       		.byte	0x2
 3764 05da 08       		.uleb128 0x8
 3765 05db A20A0000 		.4byte	.LASF72
 3766 05df 03       		.byte	0x3
 3767 05e0 08       		.uleb128 0x8
 3768 05e1 FA060000 		.4byte	.LASF73
 3769 05e5 04       		.byte	0x4
 3770 05e6 08       		.uleb128 0x8
 3771 05e7 B20A0000 		.4byte	.LASF74
 3772 05eb 05       		.byte	0x5
 3773 05ec 08       		.uleb128 0x8
 3774 05ed DE050000 		.4byte	.LASF75
 3775 05f1 06       		.byte	0x6
 3776 05f2 08       		.uleb128 0x8
 3777 05f3 28010000 		.4byte	.LASF76
 3778 05f7 07       		.byte	0x7
ARM GAS  C:\Users\gjl\AppData\Local\Temp\cc7xIfgu.s 			page 100


 3779 05f8 00       		.byte	0
 3780 05f9 09       		.uleb128 0x9
 3781 05fa 990B0000 		.4byte	.LASF77
 3782 05fe 08       		.byte	0x8
 3783 05ff B301     		.2byte	0x1b3
 3784 0601 BB050000 		.4byte	0x5bb
 3785 0605 07       		.uleb128 0x7
 3786 0606 01       		.byte	0x1
 3787 0607 53000000 		.4byte	0x53
 3788 060b 08       		.byte	0x8
 3789 060c B901     		.2byte	0x1b9
 3790 060e A9060000 		.4byte	0x6a9
 3791 0612 08       		.uleb128 0x8
 3792 0613 88010000 		.4byte	.LASF78
 3793 0617 07       		.byte	0x7
 3794 0618 08       		.uleb128 0x8
 3795 0619 00000000 		.4byte	.LASF79
 3796 061d 08       		.byte	0x8
 3797 061e 08       		.uleb128 0x8
 3798 061f 74050000 		.4byte	.LASF80
 3799 0623 09       		.byte	0x9
 3800 0624 08       		.uleb128 0x8
 3801 0625 C9020000 		.4byte	.LASF81
 3802 0629 0A       		.byte	0xa
 3803 062a 08       		.uleb128 0x8
 3804 062b 1F0B0000 		.4byte	.LASF82
 3805 062f 0B       		.byte	0xb
 3806 0630 08       		.uleb128 0x8
 3807 0631 23020000 		.4byte	.LASF83
 3808 0635 0C       		.byte	0xc
 3809 0636 08       		.uleb128 0x8
 3810 0637 85050000 		.4byte	.LASF84
 3811 063b 0D       		.byte	0xd
 3812 063c 08       		.uleb128 0x8
 3813 063d 00040000 		.4byte	.LASF85
 3814 0641 0E       		.byte	0xe
 3815 0642 08       		.uleb128 0x8
 3816 0643 2C040000 		.4byte	.LASF86
 3817 0647 0F       		.byte	0xf
 3818 0648 08       		.uleb128 0x8
 3819 0649 06080000 		.4byte	.LASF87
 3820 064d 10       		.byte	0x10
 3821 064e 08       		.uleb128 0x8
 3822 064f CB030000 		.4byte	.LASF88
 3823 0653 11       		.byte	0x11
 3824 0654 08       		.uleb128 0x8
 3825 0655 63040000 		.4byte	.LASF89
 3826 0659 12       		.byte	0x12
 3827 065a 08       		.uleb128 0x8
 3828 065b 97080000 		.4byte	.LASF90
 3829 065f 13       		.byte	0x13
 3830 0660 08       		.uleb128 0x8
 3831 0661 12060000 		.4byte	.LASF91
 3832 0665 14       		.byte	0x14
 3833 0666 08       		.uleb128 0x8
 3834 0667 92070000 		.4byte	.LASF92
 3835 066b 15       		.byte	0x15
ARM GAS  C:\Users\gjl\AppData\Local\Temp\cc7xIfgu.s 			page 101


 3836 066c 08       		.uleb128 0x8
 3837 066d 63050000 		.4byte	.LASF93
 3838 0671 16       		.byte	0x16
 3839 0672 08       		.uleb128 0x8
 3840 0673 19080000 		.4byte	.LASF94
 3841 0677 17       		.byte	0x17
 3842 0678 08       		.uleb128 0x8
 3843 0679 40070000 		.4byte	.LASF95
 3844 067d 18       		.byte	0x18
 3845 067e 08       		.uleb128 0x8
 3846 067f 050B0000 		.4byte	.LASF96
 3847 0683 19       		.byte	0x19
 3848 0684 08       		.uleb128 0x8
 3849 0685 860B0000 		.4byte	.LASF97
 3850 0689 1A       		.byte	0x1a
 3851 068a 08       		.uleb128 0x8
 3852 068b E7060000 		.4byte	.LASF98
 3853 068f 1B       		.byte	0x1b
 3854 0690 08       		.uleb128 0x8
 3855 0691 730B0000 		.4byte	.LASF99
 3856 0695 1C       		.byte	0x1c
 3857 0696 08       		.uleb128 0x8
 3858 0697 620B0000 		.4byte	.LASF100
 3859 069b 1D       		.byte	0x1d
 3860 069c 08       		.uleb128 0x8
 3861 069d FD080000 		.4byte	.LASF101
 3862 06a1 1E       		.byte	0x1e
 3863 06a2 08       		.uleb128 0x8
 3864 06a3 52040000 		.4byte	.LASF102
 3865 06a7 1F       		.byte	0x1f
 3866 06a8 00       		.byte	0
 3867 06a9 09       		.uleb128 0x9
 3868 06aa 60080000 		.4byte	.LASF103
 3869 06ae 08       		.byte	0x8
 3870 06af D301     		.2byte	0x1d3
 3871 06b1 05060000 		.4byte	0x605
 3872 06b5 13       		.uleb128 0x13
 3873 06b6 0C       		.byte	0xc
 3874 06b7 08       		.byte	0x8
 3875 06b8 CE02     		.2byte	0x2ce
 3876 06ba 0D070000 		.4byte	0x70d
 3877 06be 14       		.uleb128 0x14
 3878 06bf FD050000 		.4byte	.LASF104
 3879 06c3 08       		.byte	0x8
 3880 06c4 D002     		.2byte	0x2d0
 3881 06c6 0D070000 		.4byte	0x70d
 3882 06ca 00       		.byte	0
 3883 06cb 14       		.uleb128 0x14
 3884 06cc 5A0C0000 		.4byte	.LASF105
 3885 06d0 08       		.byte	0x8
 3886 06d1 D102     		.2byte	0x2d1
 3887 06d3 A9060000 		.4byte	0x6a9
 3888 06d7 04       		.byte	0x4
 3889 06d8 14       		.uleb128 0x14
 3890 06d9 AB0B0000 		.4byte	.LASF106
 3891 06dd 08       		.byte	0x8
 3892 06de D202     		.2byte	0x2d2
ARM GAS  C:\Users\gjl\AppData\Local\Temp\cc7xIfgu.s 			page 102


 3893 06e0 93000000 		.4byte	0x93
 3894 06e4 05       		.byte	0x5
 3895 06e5 14       		.uleb128 0x14
 3896 06e6 EE050000 		.4byte	.LASF107
 3897 06ea 08       		.byte	0x8
 3898 06eb D302     		.2byte	0x2d3
 3899 06ed F9050000 		.4byte	0x5f9
 3900 06f1 06       		.byte	0x6
 3901 06f2 14       		.uleb128 0x14
 3902 06f3 B4060000 		.4byte	.LASF108
 3903 06f7 08       		.byte	0x8
 3904 06f8 D402     		.2byte	0x2d4
 3905 06fa F9050000 		.4byte	0x5f9
 3906 06fe 07       		.byte	0x7
 3907 06ff 14       		.uleb128 0x14
 3908 0700 70070000 		.4byte	.LASF109
 3909 0704 08       		.byte	0x8
 3910 0705 D502     		.2byte	0x2d5
 3911 0707 13070000 		.4byte	0x713
 3912 070b 08       		.byte	0x8
 3913 070c 00       		.byte	0
 3914 070d 15       		.uleb128 0x15
 3915 070e 04       		.byte	0x4
 3916 070f A9000000 		.4byte	0xa9
 3917 0713 03       		.uleb128 0x3
 3918 0714 01       		.byte	0x1
 3919 0715 02       		.byte	0x2
 3920 0716 C7070000 		.4byte	.LASF110
 3921 071a 09       		.uleb128 0x9
 3922 071b 7E040000 		.4byte	.LASF111
 3923 071f 08       		.byte	0x8
 3924 0720 D602     		.2byte	0x2d6
 3925 0722 B5060000 		.4byte	0x6b5
 3926 0726 13       		.uleb128 0x13
 3927 0727 0C       		.byte	0xc
 3928 0728 08       		.byte	0x8
 3929 0729 D902     		.2byte	0x2d9
 3930 072b 98070000 		.4byte	0x798
 3931 072f 14       		.uleb128 0x14
 3932 0730 FD050000 		.4byte	.LASF104
 3933 0734 08       		.byte	0x8
 3934 0735 DB02     		.2byte	0x2db
 3935 0737 0D070000 		.4byte	0x70d
 3936 073b 00       		.byte	0
 3937 073c 14       		.uleb128 0x14
 3938 073d 5A0C0000 		.4byte	.LASF105
 3939 0741 08       		.byte	0x8
 3940 0742 DC02     		.2byte	0x2dc
 3941 0744 A9060000 		.4byte	0x6a9
 3942 0748 04       		.byte	0x4
 3943 0749 14       		.uleb128 0x14
 3944 074a AB0B0000 		.4byte	.LASF106
 3945 074e 08       		.byte	0x8
 3946 074f DD02     		.2byte	0x2dd
 3947 0751 93000000 		.4byte	0x93
 3948 0755 05       		.byte	0x5
 3949 0756 14       		.uleb128 0x14
ARM GAS  C:\Users\gjl\AppData\Local\Temp\cc7xIfgu.s 			page 103


 3950 0757 EE050000 		.4byte	.LASF107
 3951 075b 08       		.byte	0x8
 3952 075c DE02     		.2byte	0x2de
 3953 075e F9050000 		.4byte	0x5f9
 3954 0762 06       		.byte	0x6
 3955 0763 14       		.uleb128 0x14
 3956 0764 B4060000 		.4byte	.LASF108
 3957 0768 08       		.byte	0x8
 3958 0769 DF02     		.2byte	0x2df
 3959 076b F9050000 		.4byte	0x5f9
 3960 076f 07       		.byte	0x7
 3961 0770 14       		.uleb128 0x14
 3962 0771 70070000 		.4byte	.LASF109
 3963 0775 08       		.byte	0x8
 3964 0776 E002     		.2byte	0x2e0
 3965 0778 13070000 		.4byte	0x713
 3966 077c 08       		.byte	0x8
 3967 077d 14       		.uleb128 0x14
 3968 077e 650C0000 		.4byte	.LASF112
 3969 0782 08       		.byte	0x8
 3970 0783 E102     		.2byte	0x2e1
 3971 0785 13070000 		.4byte	0x713
 3972 0789 09       		.byte	0x9
 3973 078a 14       		.uleb128 0x14
 3974 078b 80020000 		.4byte	.LASF113
 3975 078f 08       		.byte	0x8
 3976 0790 E202     		.2byte	0x2e2
 3977 0792 9E000000 		.4byte	0x9e
 3978 0796 0A       		.byte	0xa
 3979 0797 00       		.byte	0
 3980 0798 09       		.uleb128 0x9
 3981 0799 310A0000 		.4byte	.LASF114
 3982 079d 08       		.byte	0x8
 3983 079e E302     		.2byte	0x2e3
 3984 07a0 26070000 		.4byte	0x726
 3985 07a4 13       		.uleb128 0x13
 3986 07a5 0C       		.byte	0xc
 3987 07a6 08       		.byte	0x8
 3988 07a7 E602     		.2byte	0x2e6
 3989 07a9 16080000 		.4byte	0x816
 3990 07ad 14       		.uleb128 0x14
 3991 07ae FD050000 		.4byte	.LASF104
 3992 07b2 08       		.byte	0x8
 3993 07b3 E802     		.2byte	0x2e8
 3994 07b5 0D070000 		.4byte	0x70d
 3995 07b9 00       		.byte	0
 3996 07ba 14       		.uleb128 0x14
 3997 07bb 5A0C0000 		.4byte	.LASF105
 3998 07bf 08       		.byte	0x8
 3999 07c0 E902     		.2byte	0x2e9
 4000 07c2 A9060000 		.4byte	0x6a9
 4001 07c6 04       		.byte	0x4
 4002 07c7 14       		.uleb128 0x14
 4003 07c8 AB0B0000 		.4byte	.LASF106
 4004 07cc 08       		.byte	0x8
 4005 07cd EA02     		.2byte	0x2ea
 4006 07cf 93000000 		.4byte	0x93
ARM GAS  C:\Users\gjl\AppData\Local\Temp\cc7xIfgu.s 			page 104


 4007 07d3 05       		.byte	0x5
 4008 07d4 14       		.uleb128 0x14
 4009 07d5 EE050000 		.4byte	.LASF107
 4010 07d9 08       		.byte	0x8
 4011 07da EB02     		.2byte	0x2eb
 4012 07dc F9050000 		.4byte	0x5f9
 4013 07e0 06       		.byte	0x6
 4014 07e1 14       		.uleb128 0x14
 4015 07e2 B4060000 		.4byte	.LASF108
 4016 07e6 08       		.byte	0x8
 4017 07e7 EC02     		.2byte	0x2ec
 4018 07e9 F9050000 		.4byte	0x5f9
 4019 07ed 07       		.byte	0x7
 4020 07ee 14       		.uleb128 0x14
 4021 07ef 70070000 		.4byte	.LASF109
 4022 07f3 08       		.byte	0x8
 4023 07f4 ED02     		.2byte	0x2ed
 4024 07f6 13070000 		.4byte	0x713
 4025 07fa 08       		.byte	0x8
 4026 07fb 14       		.uleb128 0x14
 4027 07fc 650C0000 		.4byte	.LASF112
 4028 0800 08       		.byte	0x8
 4029 0801 EE02     		.2byte	0x2ee
 4030 0803 13070000 		.4byte	0x713
 4031 0807 09       		.byte	0x9
 4032 0808 14       		.uleb128 0x14
 4033 0809 80020000 		.4byte	.LASF113
 4034 080d 08       		.byte	0x8
 4035 080e EF02     		.2byte	0x2ef
 4036 0810 9E000000 		.4byte	0x9e
 4037 0814 0A       		.byte	0xa
 4038 0815 00       		.byte	0
 4039 0816 09       		.uleb128 0x9
 4040 0817 A8030000 		.4byte	.LASF115
 4041 081b 08       		.byte	0x8
 4042 081c F002     		.2byte	0x2f0
 4043 081e A4070000 		.4byte	0x7a4
 4044 0822 13       		.uleb128 0x13
 4045 0823 06       		.byte	0x6
 4046 0824 08       		.byte	0x8
 4047 0825 F302     		.2byte	0x2f3
 4048 0827 6D080000 		.4byte	0x86d
 4049 082b 14       		.uleb128 0x14
 4050 082c EE050000 		.4byte	.LASF107
 4051 0830 08       		.byte	0x8
 4052 0831 F502     		.2byte	0x2f5
 4053 0833 F9050000 		.4byte	0x5f9
 4054 0837 00       		.byte	0
 4055 0838 14       		.uleb128 0x14
 4056 0839 B4060000 		.4byte	.LASF108
 4057 083d 08       		.byte	0x8
 4058 083e F602     		.2byte	0x2f6
 4059 0840 F9050000 		.4byte	0x5f9
 4060 0844 01       		.byte	0x1
 4061 0845 14       		.uleb128 0x14
 4062 0846 70070000 		.4byte	.LASF109
 4063 084a 08       		.byte	0x8
ARM GAS  C:\Users\gjl\AppData\Local\Temp\cc7xIfgu.s 			page 105


 4064 084b F702     		.2byte	0x2f7
 4065 084d 13070000 		.4byte	0x713
 4066 0851 02       		.byte	0x2
 4067 0852 14       		.uleb128 0x14
 4068 0853 650C0000 		.4byte	.LASF112
 4069 0857 08       		.byte	0x8
 4070 0858 F802     		.2byte	0x2f8
 4071 085a 13070000 		.4byte	0x713
 4072 085e 03       		.byte	0x3
 4073 085f 14       		.uleb128 0x14
 4074 0860 80020000 		.4byte	.LASF113
 4075 0864 08       		.byte	0x8
 4076 0865 F902     		.2byte	0x2f9
 4077 0867 9E000000 		.4byte	0x9e
 4078 086b 04       		.byte	0x4
 4079 086c 00       		.byte	0
 4080 086d 09       		.uleb128 0x9
 4081 086e 1B000000 		.4byte	.LASF116
 4082 0872 08       		.byte	0x8
 4083 0873 FA02     		.2byte	0x2fa
 4084 0875 22080000 		.4byte	0x822
 4085 0879 13       		.uleb128 0x13
 4086 087a 06       		.byte	0x6
 4087 087b 08       		.byte	0x8
 4088 087c FD02     		.2byte	0x2fd
 4089 087e C4080000 		.4byte	0x8c4
 4090 0882 14       		.uleb128 0x14
 4091 0883 EE050000 		.4byte	.LASF107
 4092 0887 08       		.byte	0x8
 4093 0888 FF02     		.2byte	0x2ff
 4094 088a F9050000 		.4byte	0x5f9
 4095 088e 00       		.byte	0
 4096 088f 14       		.uleb128 0x14
 4097 0890 B4060000 		.4byte	.LASF108
 4098 0894 08       		.byte	0x8
 4099 0895 0003     		.2byte	0x300
 4100 0897 F9050000 		.4byte	0x5f9
 4101 089b 01       		.byte	0x1
 4102 089c 14       		.uleb128 0x14
 4103 089d 70070000 		.4byte	.LASF109
 4104 08a1 08       		.byte	0x8
 4105 08a2 0103     		.2byte	0x301
 4106 08a4 13070000 		.4byte	0x713
 4107 08a8 02       		.byte	0x2
 4108 08a9 14       		.uleb128 0x14
 4109 08aa 650C0000 		.4byte	.LASF112
 4110 08ae 08       		.byte	0x8
 4111 08af 0203     		.2byte	0x302
 4112 08b1 13070000 		.4byte	0x713
 4113 08b5 03       		.byte	0x3
 4114 08b6 14       		.uleb128 0x14
 4115 08b7 80020000 		.4byte	.LASF113
 4116 08bb 08       		.byte	0x8
 4117 08bc 0303     		.2byte	0x303
 4118 08be 9E000000 		.4byte	0x9e
 4119 08c2 04       		.byte	0x4
 4120 08c3 00       		.byte	0
ARM GAS  C:\Users\gjl\AppData\Local\Temp\cc7xIfgu.s 			page 106


 4121 08c4 09       		.uleb128 0x9
 4122 08c5 5C070000 		.4byte	.LASF117
 4123 08c9 08       		.byte	0x8
 4124 08ca 0403     		.2byte	0x304
 4125 08cc 79080000 		.4byte	0x879
 4126 08d0 13       		.uleb128 0x13
 4127 08d1 06       		.byte	0x6
 4128 08d2 08       		.byte	0x8
 4129 08d3 0703     		.2byte	0x307
 4130 08d5 1B090000 		.4byte	0x91b
 4131 08d9 14       		.uleb128 0x14
 4132 08da EE050000 		.4byte	.LASF107
 4133 08de 08       		.byte	0x8
 4134 08df 0903     		.2byte	0x309
 4135 08e1 F9050000 		.4byte	0x5f9
 4136 08e5 00       		.byte	0
 4137 08e6 14       		.uleb128 0x14
 4138 08e7 B4060000 		.4byte	.LASF108
 4139 08eb 08       		.byte	0x8
 4140 08ec 0A03     		.2byte	0x30a
 4141 08ee F9050000 		.4byte	0x5f9
 4142 08f2 01       		.byte	0x1
 4143 08f3 14       		.uleb128 0x14
 4144 08f4 70070000 		.4byte	.LASF109
 4145 08f8 08       		.byte	0x8
 4146 08f9 0B03     		.2byte	0x30b
 4147 08fb 13070000 		.4byte	0x713
 4148 08ff 02       		.byte	0x2
 4149 0900 14       		.uleb128 0x14
 4150 0901 650C0000 		.4byte	.LASF112
 4151 0905 08       		.byte	0x8
 4152 0906 0C03     		.2byte	0x30c
 4153 0908 13070000 		.4byte	0x713
 4154 090c 03       		.byte	0x3
 4155 090d 14       		.uleb128 0x14
 4156 090e 80020000 		.4byte	.LASF113
 4157 0912 08       		.byte	0x8
 4158 0913 0D03     		.2byte	0x30d
 4159 0915 9E000000 		.4byte	0x9e
 4160 0919 04       		.byte	0x4
 4161 091a 00       		.byte	0
 4162 091b 09       		.uleb128 0x9
 4163 091c 41000000 		.4byte	.LASF118
 4164 0920 08       		.byte	0x8
 4165 0921 0E03     		.2byte	0x30e
 4166 0923 D0080000 		.4byte	0x8d0
 4167 0927 16       		.uleb128 0x16
 4168 0928 8C060000 		.4byte	.LASF124
 4169 092c 01       		.byte	0x1
 4170 092d 3C       		.byte	0x3c
 4171 092e AF050000 		.4byte	0x5af
 4172 0932 00000000 		.4byte	.LFB36
 4173 0936 BC000000 		.4byte	.LFE36-.LFB36
 4174 093a 01       		.uleb128 0x1
 4175 093b 9C       		.byte	0x9c
 4176 093c C1090000 		.4byte	0x9c1
 4177 0940 17       		.uleb128 0x17
ARM GAS  C:\Users\gjl\AppData\Local\Temp\cc7xIfgu.s 			page 107


 4178 0941 A5050000 		.4byte	.LASF119
 4179 0945 01       		.byte	0x1
 4180 0946 3C       		.byte	0x3c
 4181 0947 F7000000 		.4byte	0xf7
 4182 094b 00000000 		.4byte	.LLST0
 4183 094f 17       		.uleb128 0x17
 4184 0950 DE030000 		.4byte	.LASF120
 4185 0954 01       		.byte	0x1
 4186 0955 3C       		.byte	0x3c
 4187 0956 13070000 		.4byte	0x713
 4188 095a 21000000 		.4byte	.LLST1
 4189 095e 17       		.uleb128 0x17
 4190 095f 70070000 		.4byte	.LASF109
 4191 0963 01       		.byte	0x1
 4192 0964 3C       		.byte	0x3c
 4193 0965 13070000 		.4byte	0x713
 4194 0969 42000000 		.4byte	.LLST2
 4195 096d 17       		.uleb128 0x17
 4196 096e 80020000 		.4byte	.LASF113
 4197 0972 01       		.byte	0x1
 4198 0973 3C       		.byte	0x3c
 4199 0974 A9000000 		.4byte	0xa9
 4200 0978 63000000 		.4byte	.LLST3
 4201 097c 18       		.uleb128 0x18
 4202 097d FE0A0000 		.4byte	.LASF121
 4203 0981 01       		.byte	0x1
 4204 0982 3E       		.byte	0x3e
 4205 0983 AF050000 		.4byte	0x5af
 4206 0987 01       		.uleb128 0x1
 4207 0988 50       		.byte	0x50
 4208 0989 19       		.uleb128 0x19
 4209 098a 5C050000 		.4byte	.LASF122
 4210 098e 01       		.byte	0x1
 4211 098f 3F       		.byte	0x3f
 4212 0990 A9000000 		.4byte	0xa9
 4213 0994 8F000000 		.4byte	.LLST4
 4214 0998 19       		.uleb128 0x19
 4215 0999 390B0000 		.4byte	.LASF123
 4216 099d 01       		.byte	0x1
 4217 099e 40       		.byte	0x40
 4218 099f 0D070000 		.4byte	0x70d
 4219 09a3 A2000000 		.4byte	.LLST5
 4220 09a7 1A       		.uleb128 0x1a
 4221 09a8 1A000000 		.4byte	.LVL3
 4222 09ac DD170000 		.4byte	0x17dd
 4223 09b0 1B       		.uleb128 0x1b
 4224 09b1 01       		.uleb128 0x1
 4225 09b2 50       		.byte	0x50
 4226 09b3 05       		.uleb128 0x5
 4227 09b4 03       		.byte	0x3
 4228 09b5 00000000 		.4byte	.LC0
 4229 09b9 1B       		.uleb128 0x1b
 4230 09ba 01       		.uleb128 0x1
 4231 09bb 51       		.byte	0x51
 4232 09bc 02       		.uleb128 0x2
 4233 09bd 08       		.byte	0x8
 4234 09be 42       		.byte	0x42
ARM GAS  C:\Users\gjl\AppData\Local\Temp\cc7xIfgu.s 			page 108


 4235 09bf 00       		.byte	0
 4236 09c0 00       		.byte	0
 4237 09c1 16       		.uleb128 0x16
 4238 09c2 0F050000 		.4byte	.LASF125
 4239 09c6 01       		.byte	0x1
 4240 09c7 96       		.byte	0x96
 4241 09c8 AF050000 		.4byte	0x5af
 4242 09cc 00000000 		.4byte	.LFB37
 4243 09d0 AC000000 		.4byte	.LFE37-.LFB37
 4244 09d4 01       		.uleb128 0x1
 4245 09d5 9C       		.byte	0x9c
 4246 09d6 2D0A0000 		.4byte	0xa2d
 4247 09da 17       		.uleb128 0x17
 4248 09db A5050000 		.4byte	.LASF119
 4249 09df 01       		.byte	0x1
 4250 09e0 96       		.byte	0x96
 4251 09e1 F7000000 		.4byte	0xf7
 4252 09e5 B5000000 		.4byte	.LLST6
 4253 09e9 1C       		.uleb128 0x1c
 4254 09ea 706300   		.ascii	"pc\000"
 4255 09ed 01       		.byte	0x1
 4256 09ee 96       		.byte	0x96
 4257 09ef A9000000 		.4byte	0xa9
 4258 09f3 D6000000 		.4byte	.LLST7
 4259 09f7 19       		.uleb128 0x19
 4260 09f8 FE0A0000 		.4byte	.LASF121
 4261 09fc 01       		.byte	0x1
 4262 09fd 98       		.byte	0x98
 4263 09fe AF050000 		.4byte	0x5af
 4264 0a02 02010000 		.4byte	.LLST8
 4265 0a06 18       		.uleb128 0x18
 4266 0a07 04030000 		.4byte	.LASF126
 4267 0a0b 01       		.byte	0x1
 4268 0a0c 99       		.byte	0x99
 4269 0a0d 2D0A0000 		.4byte	0xa2d
 4270 0a11 01       		.uleb128 0x1
 4271 0a12 51       		.byte	0x51
 4272 0a13 1A       		.uleb128 0x1a
 4273 0a14 12000000 		.4byte	.LVL13
 4274 0a18 DD170000 		.4byte	0x17dd
 4275 0a1c 1B       		.uleb128 0x1b
 4276 0a1d 01       		.uleb128 0x1
 4277 0a1e 50       		.byte	0x50
 4278 0a1f 05       		.uleb128 0x5
 4279 0a20 03       		.byte	0x3
 4280 0a21 00000000 		.4byte	.LC0
 4281 0a25 1B       		.uleb128 0x1b
 4282 0a26 01       		.uleb128 0x1
 4283 0a27 51       		.byte	0x51
 4284 0a28 02       		.uleb128 0x2
 4285 0a29 08       		.byte	0x8
 4286 0a2a 9B       		.byte	0x9b
 4287 0a2b 00       		.byte	0
 4288 0a2c 00       		.byte	0
 4289 0a2d 15       		.uleb128 0x15
 4290 0a2e 04       		.byte	0x4
 4291 0a2f 1F050000 		.4byte	0x51f
ARM GAS  C:\Users\gjl\AppData\Local\Temp\cc7xIfgu.s 			page 109


 4292 0a33 16       		.uleb128 0x16
 4293 0a34 5A010000 		.4byte	.LASF127
 4294 0a38 01       		.byte	0x1
 4295 0a39 E0       		.byte	0xe0
 4296 0a3a A9000000 		.4byte	0xa9
 4297 0a3e 00000000 		.4byte	.LFB38
 4298 0a42 28000000 		.4byte	.LFE38-.LFB38
 4299 0a46 01       		.uleb128 0x1
 4300 0a47 9C       		.byte	0x9c
 4301 0a48 840A0000 		.4byte	0xa84
 4302 0a4c 17       		.uleb128 0x17
 4303 0a4d A5050000 		.4byte	.LASF119
 4304 0a51 01       		.byte	0x1
 4305 0a52 E0       		.byte	0xe0
 4306 0a53 F7000000 		.4byte	0xf7
 4307 0a57 20010000 		.4byte	.LLST9
 4308 0a5b 19       		.uleb128 0x19
 4309 0a5c 04030000 		.4byte	.LASF126
 4310 0a60 01       		.byte	0x1
 4311 0a61 E2       		.byte	0xe2
 4312 0a62 2D0A0000 		.4byte	0xa2d
 4313 0a66 41010000 		.4byte	.LLST10
 4314 0a6a 1A       		.uleb128 0x1a
 4315 0a6b 10000000 		.4byte	.LVL21
 4316 0a6f DD170000 		.4byte	0x17dd
 4317 0a73 1B       		.uleb128 0x1b
 4318 0a74 01       		.uleb128 0x1
 4319 0a75 50       		.byte	0x50
 4320 0a76 05       		.uleb128 0x5
 4321 0a77 03       		.byte	0x3
 4322 0a78 00000000 		.4byte	.LC0
 4323 0a7c 1B       		.uleb128 0x1b
 4324 0a7d 01       		.uleb128 0x1
 4325 0a7e 51       		.byte	0x51
 4326 0a7f 02       		.uleb128 0x2
 4327 0a80 08       		.byte	0x8
 4328 0a81 E4       		.byte	0xe4
 4329 0a82 00       		.byte	0
 4330 0a83 00       		.byte	0
 4331 0a84 1D       		.uleb128 0x1d
 4332 0a85 DB070000 		.4byte	.LASF128
 4333 0a89 01       		.byte	0x1
 4334 0a8a 0801     		.2byte	0x108
 4335 0a8c AF050000 		.4byte	0x5af
 4336 0a90 00000000 		.4byte	.LFB39
 4337 0a94 A4000000 		.4byte	.LFE39-.LFB39
 4338 0a98 01       		.uleb128 0x1
 4339 0a99 9C       		.byte	0x9c
 4340 0a9a 5F0B0000 		.4byte	0xb5f
 4341 0a9e 1E       		.uleb128 0x1e
 4342 0a9f AF050000 		.4byte	.LASF129
 4343 0aa3 01       		.byte	0x1
 4344 0aa4 0801     		.2byte	0x108
 4345 0aa6 5F0B0000 		.4byte	0xb5f
 4346 0aaa 54010000 		.4byte	.LLST11
 4347 0aae 1E       		.uleb128 0x1e
 4348 0aaf B1090000 		.4byte	.LASF130
ARM GAS  C:\Users\gjl\AppData\Local\Temp\cc7xIfgu.s 			page 110


 4349 0ab3 01       		.byte	0x1
 4350 0ab4 0801     		.2byte	0x108
 4351 0ab6 650B0000 		.4byte	0xb65
 4352 0aba 80010000 		.4byte	.LLST12
 4353 0abe 1F       		.uleb128 0x1f
 4354 0abf FE0A0000 		.4byte	.LASF121
 4355 0ac3 01       		.byte	0x1
 4356 0ac4 0A01     		.2byte	0x10a
 4357 0ac6 AF050000 		.4byte	0x5af
 4358 0aca 01       		.uleb128 0x1
 4359 0acb 50       		.byte	0x50
 4360 0acc 20       		.uleb128 0x20
 4361 0acd 09010000 		.4byte	.LASF131
 4362 0ad1 01       		.byte	0x1
 4363 0ad2 0B01     		.2byte	0x10b
 4364 0ad4 A9000000 		.4byte	0xa9
 4365 0ad8 AC010000 		.4byte	.LLST13
 4366 0adc 1F       		.uleb128 0x1f
 4367 0add 2A0A0000 		.4byte	.LASF132
 4368 0ae1 01       		.byte	0x1
 4369 0ae2 0C01     		.2byte	0x10c
 4370 0ae4 A9000000 		.4byte	0xa9
 4371 0ae8 01       		.uleb128 0x1
 4372 0ae9 53       		.byte	0x53
 4373 0aea 21       		.uleb128 0x21
 4374 0aeb 14000000 		.4byte	.LVL27
 4375 0aef DD170000 		.4byte	0x17dd
 4376 0af3 080B0000 		.4byte	0xb08
 4377 0af7 1B       		.uleb128 0x1b
 4378 0af8 01       		.uleb128 0x1
 4379 0af9 50       		.byte	0x50
 4380 0afa 05       		.uleb128 0x5
 4381 0afb 03       		.byte	0x3
 4382 0afc 00000000 		.4byte	.LC0
 4383 0b00 1B       		.uleb128 0x1b
 4384 0b01 01       		.uleb128 0x1
 4385 0b02 51       		.byte	0x51
 4386 0b03 03       		.uleb128 0x3
 4387 0b04 0A       		.byte	0xa
 4388 0b05 0E01     		.2byte	0x10e
 4389 0b07 00       		.byte	0
 4390 0b08 21       		.uleb128 0x21
 4391 0b09 24000000 		.4byte	.LVL28
 4392 0b0d DD170000 		.4byte	0x17dd
 4393 0b11 260B0000 		.4byte	0xb26
 4394 0b15 1B       		.uleb128 0x1b
 4395 0b16 01       		.uleb128 0x1
 4396 0b17 50       		.byte	0x50
 4397 0b18 05       		.uleb128 0x5
 4398 0b19 03       		.byte	0x3
 4399 0b1a 00000000 		.4byte	.LC0
 4400 0b1e 1B       		.uleb128 0x1b
 4401 0b1f 01       		.uleb128 0x1
 4402 0b20 51       		.byte	0x51
 4403 0b21 03       		.uleb128 0x3
 4404 0b22 0A       		.byte	0xa
 4405 0b23 0F01     		.2byte	0x10f
ARM GAS  C:\Users\gjl\AppData\Local\Temp\cc7xIfgu.s 			page 111


 4406 0b25 00       		.byte	0
 4407 0b26 21       		.uleb128 0x21
 4408 0b27 34000000 		.4byte	.LVL29
 4409 0b2b DD170000 		.4byte	0x17dd
 4410 0b2f 440B0000 		.4byte	0xb44
 4411 0b33 1B       		.uleb128 0x1b
 4412 0b34 01       		.uleb128 0x1
 4413 0b35 50       		.byte	0x50
 4414 0b36 05       		.uleb128 0x5
 4415 0b37 03       		.byte	0x3
 4416 0b38 00000000 		.4byte	.LC0
 4417 0b3c 1B       		.uleb128 0x1b
 4418 0b3d 01       		.uleb128 0x1
 4419 0b3e 51       		.byte	0x51
 4420 0b3f 03       		.uleb128 0x3
 4421 0b40 0A       		.byte	0xa
 4422 0b41 1001     		.2byte	0x110
 4423 0b43 00       		.byte	0
 4424 0b44 1A       		.uleb128 0x1a
 4425 0b45 48000000 		.4byte	.LVL30
 4426 0b49 DD170000 		.4byte	0x17dd
 4427 0b4d 1B       		.uleb128 0x1b
 4428 0b4e 01       		.uleb128 0x1
 4429 0b4f 50       		.byte	0x50
 4430 0b50 05       		.uleb128 0x5
 4431 0b51 03       		.byte	0x3
 4432 0b52 00000000 		.4byte	.LC0
 4433 0b56 1B       		.uleb128 0x1b
 4434 0b57 01       		.uleb128 0x1
 4435 0b58 51       		.byte	0x51
 4436 0b59 03       		.uleb128 0x3
 4437 0b5a 0A       		.byte	0xa
 4438 0b5b 1101     		.2byte	0x111
 4439 0b5d 00       		.byte	0
 4440 0b5e 00       		.byte	0
 4441 0b5f 15       		.uleb128 0x15
 4442 0b60 04       		.byte	0x4
 4443 0b61 BB040000 		.4byte	0x4bb
 4444 0b65 15       		.uleb128 0x15
 4445 0b66 04       		.byte	0x4
 4446 0b67 6B0B0000 		.4byte	0xb6b
 4447 0b6b 06       		.uleb128 0x6
 4448 0b6c 1A070000 		.4byte	0x71a
 4449 0b70 1D       		.uleb128 0x1d
 4450 0b71 09070000 		.4byte	.LASF133
 4451 0b75 01       		.byte	0x1
 4452 0b76 3701     		.2byte	0x137
 4453 0b78 AF050000 		.4byte	0x5af
 4454 0b7c 00000000 		.4byte	.LFB40
 4455 0b80 1C000000 		.4byte	.LFE40-.LFB40
 4456 0b84 01       		.uleb128 0x1
 4457 0b85 9C       		.byte	0x9c
 4458 0b86 A90B0000 		.4byte	0xba9
 4459 0b8a 1E       		.uleb128 0x1e
 4460 0b8b AF050000 		.4byte	.LASF129
 4461 0b8f 01       		.byte	0x1
 4462 0b90 3701     		.2byte	0x137
ARM GAS  C:\Users\gjl\AppData\Local\Temp\cc7xIfgu.s 			page 112


 4463 0b92 5F0B0000 		.4byte	0xb5f
 4464 0b96 06020000 		.4byte	.LLST14
 4465 0b9a 1F       		.uleb128 0x1f
 4466 0b9b FE0A0000 		.4byte	.LASF121
 4467 0b9f 01       		.byte	0x1
 4468 0ba0 3901     		.2byte	0x139
 4469 0ba2 AF050000 		.4byte	0x5af
 4470 0ba6 01       		.uleb128 0x1
 4471 0ba7 50       		.byte	0x50
 4472 0ba8 00       		.byte	0
 4473 0ba9 1D       		.uleb128 0x1d
 4474 0baa A4010000 		.4byte	.LASF134
 4475 0bae 01       		.byte	0x1
 4476 0baf 5901     		.2byte	0x159
 4477 0bb1 AF050000 		.4byte	0x5af
 4478 0bb5 00000000 		.4byte	.LFB41
 4479 0bb9 1C000000 		.4byte	.LFE41-.LFB41
 4480 0bbd 01       		.uleb128 0x1
 4481 0bbe 9C       		.byte	0x9c
 4482 0bbf E20B0000 		.4byte	0xbe2
 4483 0bc3 1E       		.uleb128 0x1e
 4484 0bc4 AF050000 		.4byte	.LASF129
 4485 0bc8 01       		.byte	0x1
 4486 0bc9 5901     		.2byte	0x159
 4487 0bcb 5F0B0000 		.4byte	0xb5f
 4488 0bcf 40020000 		.4byte	.LLST15
 4489 0bd3 1F       		.uleb128 0x1f
 4490 0bd4 FE0A0000 		.4byte	.LASF121
 4491 0bd8 01       		.byte	0x1
 4492 0bd9 5B01     		.2byte	0x15b
 4493 0bdb AF050000 		.4byte	0x5af
 4494 0bdf 01       		.uleb128 0x1
 4495 0be0 50       		.byte	0x50
 4496 0be1 00       		.byte	0
 4497 0be2 1D       		.uleb128 0x1d
 4498 0be3 58020000 		.4byte	.LASF135
 4499 0be7 01       		.byte	0x1
 4500 0be8 8701     		.2byte	0x187
 4501 0bea AF050000 		.4byte	0x5af
 4502 0bee 00000000 		.4byte	.LFB42
 4503 0bf2 B8000000 		.4byte	.LFE42-.LFB42
 4504 0bf6 01       		.uleb128 0x1
 4505 0bf7 9C       		.byte	0x9c
 4506 0bf8 910C0000 		.4byte	0xc91
 4507 0bfc 1E       		.uleb128 0x1e
 4508 0bfd AF050000 		.4byte	.LASF129
 4509 0c01 01       		.byte	0x1
 4510 0c02 8701     		.2byte	0x187
 4511 0c04 910C0000 		.4byte	0xc91
 4512 0c08 7A020000 		.4byte	.LLST16
 4513 0c0c 1E       		.uleb128 0x1e
 4514 0c0d B1090000 		.4byte	.LASF130
 4515 0c11 01       		.byte	0x1
 4516 0c12 8701     		.2byte	0x187
 4517 0c14 970C0000 		.4byte	0xc97
 4518 0c18 A6020000 		.4byte	.LLST17
 4519 0c1c 1F       		.uleb128 0x1f
ARM GAS  C:\Users\gjl\AppData\Local\Temp\cc7xIfgu.s 			page 113


 4520 0c1d FE0A0000 		.4byte	.LASF121
 4521 0c21 01       		.byte	0x1
 4522 0c22 8901     		.2byte	0x189
 4523 0c24 AF050000 		.4byte	0x5af
 4524 0c28 01       		.uleb128 0x1
 4525 0c29 50       		.byte	0x50
 4526 0c2a 20       		.uleb128 0x20
 4527 0c2b 2A0A0000 		.4byte	.LASF132
 4528 0c2f 01       		.byte	0x1
 4529 0c30 8A01     		.2byte	0x18a
 4530 0c32 A9000000 		.4byte	0xa9
 4531 0c36 D2020000 		.4byte	.LLST18
 4532 0c3a 21       		.uleb128 0x21
 4533 0c3b 14000000 		.4byte	.LVL51
 4534 0c3f DD170000 		.4byte	0x17dd
 4535 0c43 580C0000 		.4byte	0xc58
 4536 0c47 1B       		.uleb128 0x1b
 4537 0c48 01       		.uleb128 0x1
 4538 0c49 50       		.byte	0x50
 4539 0c4a 05       		.uleb128 0x5
 4540 0c4b 03       		.byte	0x3
 4541 0c4c 00000000 		.4byte	.LC0
 4542 0c50 1B       		.uleb128 0x1b
 4543 0c51 01       		.uleb128 0x1
 4544 0c52 51       		.byte	0x51
 4545 0c53 03       		.uleb128 0x3
 4546 0c54 0A       		.byte	0xa
 4547 0c55 8C01     		.2byte	0x18c
 4548 0c57 00       		.byte	0
 4549 0c58 21       		.uleb128 0x21
 4550 0c59 28000000 		.4byte	.LVL52
 4551 0c5d DD170000 		.4byte	0x17dd
 4552 0c61 760C0000 		.4byte	0xc76
 4553 0c65 1B       		.uleb128 0x1b
 4554 0c66 01       		.uleb128 0x1
 4555 0c67 50       		.byte	0x50
 4556 0c68 05       		.uleb128 0x5
 4557 0c69 03       		.byte	0x3
 4558 0c6a 00000000 		.4byte	.LC0
 4559 0c6e 1B       		.uleb128 0x1b
 4560 0c6f 01       		.uleb128 0x1
 4561 0c70 51       		.byte	0x51
 4562 0c71 03       		.uleb128 0x3
 4563 0c72 0A       		.byte	0xa
 4564 0c73 8D01     		.2byte	0x18d
 4565 0c75 00       		.byte	0
 4566 0c76 1A       		.uleb128 0x1a
 4567 0c77 3C000000 		.4byte	.LVL53
 4568 0c7b DD170000 		.4byte	0x17dd
 4569 0c7f 1B       		.uleb128 0x1b
 4570 0c80 01       		.uleb128 0x1
 4571 0c81 50       		.byte	0x50
 4572 0c82 05       		.uleb128 0x5
 4573 0c83 03       		.byte	0x3
 4574 0c84 00000000 		.4byte	.LC0
 4575 0c88 1B       		.uleb128 0x1b
 4576 0c89 01       		.uleb128 0x1
ARM GAS  C:\Users\gjl\AppData\Local\Temp\cc7xIfgu.s 			page 114


 4577 0c8a 51       		.byte	0x51
 4578 0c8b 03       		.uleb128 0x3
 4579 0c8c 0A       		.byte	0xa
 4580 0c8d 8E01     		.2byte	0x18e
 4581 0c8f 00       		.byte	0
 4582 0c90 00       		.byte	0
 4583 0c91 15       		.uleb128 0x15
 4584 0c92 04       		.byte	0x4
 4585 0c93 49030000 		.4byte	0x349
 4586 0c97 15       		.uleb128 0x15
 4587 0c98 04       		.byte	0x4
 4588 0c99 9D0C0000 		.4byte	0xc9d
 4589 0c9d 06       		.uleb128 0x6
 4590 0c9e 98070000 		.4byte	0x798
 4591 0ca2 1D       		.uleb128 0x1d
 4592 0ca3 A5000000 		.4byte	.LASF136
 4593 0ca7 01       		.byte	0x1
 4594 0ca8 CA01     		.2byte	0x1ca
 4595 0caa AF050000 		.4byte	0x5af
 4596 0cae 00000000 		.4byte	.LFB43
 4597 0cb2 E0000000 		.4byte	.LFE43-.LFB43
 4598 0cb6 01       		.uleb128 0x1
 4599 0cb7 9C       		.byte	0x9c
 4600 0cb8 7F0D0000 		.4byte	0xd7f
 4601 0cbc 1E       		.uleb128 0x1e
 4602 0cbd AF050000 		.4byte	.LASF129
 4603 0cc1 01       		.byte	0x1
 4604 0cc2 CA01     		.2byte	0x1ca
 4605 0cc4 910C0000 		.4byte	0xc91
 4606 0cc8 F0020000 		.4byte	.LLST19
 4607 0ccc 1E       		.uleb128 0x1e
 4608 0ccd B1090000 		.4byte	.LASF130
 4609 0cd1 01       		.byte	0x1
 4610 0cd2 CA01     		.2byte	0x1ca
 4611 0cd4 970C0000 		.4byte	0xc97
 4612 0cd8 1C030000 		.4byte	.LLST20
 4613 0cdc 1F       		.uleb128 0x1f
 4614 0cdd FE0A0000 		.4byte	.LASF121
 4615 0ce1 01       		.byte	0x1
 4616 0ce2 CC01     		.2byte	0x1cc
 4617 0ce4 AF050000 		.4byte	0x5af
 4618 0ce8 01       		.uleb128 0x1
 4619 0ce9 50       		.byte	0x50
 4620 0cea 20       		.uleb128 0x20
 4621 0ceb 09010000 		.4byte	.LASF131
 4622 0cef 01       		.byte	0x1
 4623 0cf0 CD01     		.2byte	0x1cd
 4624 0cf2 A9000000 		.4byte	0xa9
 4625 0cf6 48030000 		.4byte	.LLST21
 4626 0cfa 20       		.uleb128 0x20
 4627 0cfb 2A0A0000 		.4byte	.LASF132
 4628 0cff 01       		.byte	0x1
 4629 0d00 CE01     		.2byte	0x1ce
 4630 0d02 A9000000 		.4byte	0xa9
 4631 0d06 66030000 		.4byte	.LLST22
 4632 0d0a 21       		.uleb128 0x21
 4633 0d0b 14000000 		.4byte	.LVL63
ARM GAS  C:\Users\gjl\AppData\Local\Temp\cc7xIfgu.s 			page 115


 4634 0d0f DD170000 		.4byte	0x17dd
 4635 0d13 280D0000 		.4byte	0xd28
 4636 0d17 1B       		.uleb128 0x1b
 4637 0d18 01       		.uleb128 0x1
 4638 0d19 50       		.byte	0x50
 4639 0d1a 05       		.uleb128 0x5
 4640 0d1b 03       		.byte	0x3
 4641 0d1c 00000000 		.4byte	.LC0
 4642 0d20 1B       		.uleb128 0x1b
 4643 0d21 01       		.uleb128 0x1
 4644 0d22 51       		.byte	0x51
 4645 0d23 03       		.uleb128 0x3
 4646 0d24 0A       		.byte	0xa
 4647 0d25 D001     		.2byte	0x1d0
 4648 0d27 00       		.byte	0
 4649 0d28 21       		.uleb128 0x21
 4650 0d29 24000000 		.4byte	.LVL64
 4651 0d2d DD170000 		.4byte	0x17dd
 4652 0d31 460D0000 		.4byte	0xd46
 4653 0d35 1B       		.uleb128 0x1b
 4654 0d36 01       		.uleb128 0x1
 4655 0d37 50       		.byte	0x50
 4656 0d38 05       		.uleb128 0x5
 4657 0d39 03       		.byte	0x3
 4658 0d3a 00000000 		.4byte	.LC0
 4659 0d3e 1B       		.uleb128 0x1b
 4660 0d3f 01       		.uleb128 0x1
 4661 0d40 51       		.byte	0x51
 4662 0d41 03       		.uleb128 0x3
 4663 0d42 0A       		.byte	0xa
 4664 0d43 D101     		.2byte	0x1d1
 4665 0d45 00       		.byte	0
 4666 0d46 21       		.uleb128 0x21
 4667 0d47 34000000 		.4byte	.LVL65
 4668 0d4b DD170000 		.4byte	0x17dd
 4669 0d4f 640D0000 		.4byte	0xd64
 4670 0d53 1B       		.uleb128 0x1b
 4671 0d54 01       		.uleb128 0x1
 4672 0d55 50       		.byte	0x50
 4673 0d56 05       		.uleb128 0x5
 4674 0d57 03       		.byte	0x3
 4675 0d58 00000000 		.4byte	.LC0
 4676 0d5c 1B       		.uleb128 0x1b
 4677 0d5d 01       		.uleb128 0x1
 4678 0d5e 51       		.byte	0x51
 4679 0d5f 03       		.uleb128 0x3
 4680 0d60 0A       		.byte	0xa
 4681 0d61 D201     		.2byte	0x1d2
 4682 0d63 00       		.byte	0
 4683 0d64 1A       		.uleb128 0x1a
 4684 0d65 48000000 		.4byte	.LVL66
 4685 0d69 DD170000 		.4byte	0x17dd
 4686 0d6d 1B       		.uleb128 0x1b
 4687 0d6e 01       		.uleb128 0x1
 4688 0d6f 50       		.byte	0x50
 4689 0d70 05       		.uleb128 0x5
 4690 0d71 03       		.byte	0x3
ARM GAS  C:\Users\gjl\AppData\Local\Temp\cc7xIfgu.s 			page 116


 4691 0d72 00000000 		.4byte	.LC0
 4692 0d76 1B       		.uleb128 0x1b
 4693 0d77 01       		.uleb128 0x1
 4694 0d78 51       		.byte	0x51
 4695 0d79 03       		.uleb128 0x3
 4696 0d7a 0A       		.byte	0xa
 4697 0d7b D301     		.2byte	0x1d3
 4698 0d7d 00       		.byte	0
 4699 0d7e 00       		.byte	0
 4700 0d7f 1D       		.uleb128 0x1d
 4701 0d80 21070000 		.4byte	.LASF137
 4702 0d84 01       		.byte	0x1
 4703 0d85 0602     		.2byte	0x206
 4704 0d87 AF050000 		.4byte	0x5af
 4705 0d8b 00000000 		.4byte	.LFB44
 4706 0d8f 1C000000 		.4byte	.LFE44-.LFB44
 4707 0d93 01       		.uleb128 0x1
 4708 0d94 9C       		.byte	0x9c
 4709 0d95 B80D0000 		.4byte	0xdb8
 4710 0d99 1E       		.uleb128 0x1e
 4711 0d9a AF050000 		.4byte	.LASF129
 4712 0d9e 01       		.byte	0x1
 4713 0d9f 0602     		.2byte	0x206
 4714 0da1 910C0000 		.4byte	0xc91
 4715 0da5 84030000 		.4byte	.LLST23
 4716 0da9 1F       		.uleb128 0x1f
 4717 0daa FE0A0000 		.4byte	.LASF121
 4718 0dae 01       		.byte	0x1
 4719 0daf 0802     		.2byte	0x208
 4720 0db1 AF050000 		.4byte	0x5af
 4721 0db5 01       		.uleb128 0x1
 4722 0db6 50       		.byte	0x50
 4723 0db7 00       		.byte	0
 4724 0db8 1D       		.uleb128 0x1d
 4725 0db9 23060000 		.4byte	.LASF138
 4726 0dbd 01       		.byte	0x1
 4727 0dbe 2A02     		.2byte	0x22a
 4728 0dc0 AF050000 		.4byte	0x5af
 4729 0dc4 00000000 		.4byte	.LFB45
 4730 0dc8 1C000000 		.4byte	.LFE45-.LFB45
 4731 0dcc 01       		.uleb128 0x1
 4732 0dcd 9C       		.byte	0x9c
 4733 0dce F10D0000 		.4byte	0xdf1
 4734 0dd2 1E       		.uleb128 0x1e
 4735 0dd3 AF050000 		.4byte	.LASF129
 4736 0dd7 01       		.byte	0x1
 4737 0dd8 2A02     		.2byte	0x22a
 4738 0dda 910C0000 		.4byte	0xc91
 4739 0dde BE030000 		.4byte	.LLST24
 4740 0de2 1F       		.uleb128 0x1f
 4741 0de3 FE0A0000 		.4byte	.LASF121
 4742 0de7 01       		.byte	0x1
 4743 0de8 2C02     		.2byte	0x22c
 4744 0dea AF050000 		.4byte	0x5af
 4745 0dee 01       		.uleb128 0x1
 4746 0def 50       		.byte	0x50
 4747 0df0 00       		.byte	0
ARM GAS  C:\Users\gjl\AppData\Local\Temp\cc7xIfgu.s 			page 117


 4748 0df1 1D       		.uleb128 0x1d
 4749 0df2 4C060000 		.4byte	.LASF139
 4750 0df6 01       		.byte	0x1
 4751 0df7 4E02     		.2byte	0x24e
 4752 0df9 AF050000 		.4byte	0x5af
 4753 0dfd 00000000 		.4byte	.LFB46
 4754 0e01 1C000000 		.4byte	.LFE46-.LFB46
 4755 0e05 01       		.uleb128 0x1
 4756 0e06 9C       		.byte	0x9c
 4757 0e07 2A0E0000 		.4byte	0xe2a
 4758 0e0b 1E       		.uleb128 0x1e
 4759 0e0c AF050000 		.4byte	.LASF129
 4760 0e10 01       		.byte	0x1
 4761 0e11 4E02     		.2byte	0x24e
 4762 0e13 910C0000 		.4byte	0xc91
 4763 0e17 F8030000 		.4byte	.LLST25
 4764 0e1b 1F       		.uleb128 0x1f
 4765 0e1c FE0A0000 		.4byte	.LASF121
 4766 0e20 01       		.byte	0x1
 4767 0e21 5002     		.2byte	0x250
 4768 0e23 AF050000 		.4byte	0x5af
 4769 0e27 01       		.uleb128 0x1
 4770 0e28 50       		.byte	0x50
 4771 0e29 00       		.byte	0
 4772 0e2a 1D       		.uleb128 0x1d
 4773 0e2b A8080000 		.4byte	.LASF140
 4774 0e2f 01       		.byte	0x1
 4775 0e30 7202     		.2byte	0x272
 4776 0e32 AF050000 		.4byte	0x5af
 4777 0e36 00000000 		.4byte	.LFB47
 4778 0e3a 1C000000 		.4byte	.LFE47-.LFB47
 4779 0e3e 01       		.uleb128 0x1
 4780 0e3f 9C       		.byte	0x9c
 4781 0e40 630E0000 		.4byte	0xe63
 4782 0e44 1E       		.uleb128 0x1e
 4783 0e45 AF050000 		.4byte	.LASF129
 4784 0e49 01       		.byte	0x1
 4785 0e4a 7202     		.2byte	0x272
 4786 0e4c 910C0000 		.4byte	0xc91
 4787 0e50 32040000 		.4byte	.LLST26
 4788 0e54 1F       		.uleb128 0x1f
 4789 0e55 FE0A0000 		.4byte	.LASF121
 4790 0e59 01       		.byte	0x1
 4791 0e5a 7402     		.2byte	0x274
 4792 0e5c AF050000 		.4byte	0x5af
 4793 0e60 01       		.uleb128 0x1
 4794 0e61 50       		.byte	0x50
 4795 0e62 00       		.byte	0
 4796 0e63 1D       		.uleb128 0x1d
 4797 0e64 B4050000 		.4byte	.LASF141
 4798 0e68 01       		.byte	0x1
 4799 0e69 A002     		.2byte	0x2a0
 4800 0e6b AF050000 		.4byte	0x5af
 4801 0e6f 00000000 		.4byte	.LFB48
 4802 0e73 C0000000 		.4byte	.LFE48-.LFB48
 4803 0e77 01       		.uleb128 0x1
 4804 0e78 9C       		.byte	0x9c
ARM GAS  C:\Users\gjl\AppData\Local\Temp\cc7xIfgu.s 			page 118


 4805 0e79 120F0000 		.4byte	0xf12
 4806 0e7d 1E       		.uleb128 0x1e
 4807 0e7e AF050000 		.4byte	.LASF129
 4808 0e82 01       		.byte	0x1
 4809 0e83 A002     		.2byte	0x2a0
 4810 0e85 120F0000 		.4byte	0xf12
 4811 0e89 6C040000 		.4byte	.LLST27
 4812 0e8d 1E       		.uleb128 0x1e
 4813 0e8e B1090000 		.4byte	.LASF130
 4814 0e92 01       		.byte	0x1
 4815 0e93 A002     		.2byte	0x2a0
 4816 0e95 180F0000 		.4byte	0xf18
 4817 0e99 98040000 		.4byte	.LLST28
 4818 0e9d 1F       		.uleb128 0x1f
 4819 0e9e FE0A0000 		.4byte	.LASF121
 4820 0ea2 01       		.byte	0x1
 4821 0ea3 A202     		.2byte	0x2a2
 4822 0ea5 AF050000 		.4byte	0x5af
 4823 0ea9 01       		.uleb128 0x1
 4824 0eaa 50       		.byte	0x50
 4825 0eab 20       		.uleb128 0x20
 4826 0eac 2A0A0000 		.4byte	.LASF132
 4827 0eb0 01       		.byte	0x1
 4828 0eb1 A302     		.2byte	0x2a3
 4829 0eb3 A9000000 		.4byte	0xa9
 4830 0eb7 C4040000 		.4byte	.LLST29
 4831 0ebb 21       		.uleb128 0x21
 4832 0ebc 12000000 		.4byte	.LVL93
 4833 0ec0 DD170000 		.4byte	0x17dd
 4834 0ec4 D90E0000 		.4byte	0xed9
 4835 0ec8 1B       		.uleb128 0x1b
 4836 0ec9 01       		.uleb128 0x1
 4837 0eca 50       		.byte	0x50
 4838 0ecb 05       		.uleb128 0x5
 4839 0ecc 03       		.byte	0x3
 4840 0ecd 00000000 		.4byte	.LC0
 4841 0ed1 1B       		.uleb128 0x1b
 4842 0ed2 01       		.uleb128 0x1
 4843 0ed3 51       		.byte	0x51
 4844 0ed4 03       		.uleb128 0x3
 4845 0ed5 0A       		.byte	0xa
 4846 0ed6 A502     		.2byte	0x2a5
 4847 0ed8 00       		.byte	0
 4848 0ed9 21       		.uleb128 0x21
 4849 0eda 24000000 		.4byte	.LVL94
 4850 0ede DD170000 		.4byte	0x17dd
 4851 0ee2 F70E0000 		.4byte	0xef7
 4852 0ee6 1B       		.uleb128 0x1b
 4853 0ee7 01       		.uleb128 0x1
 4854 0ee8 50       		.byte	0x50
 4855 0ee9 05       		.uleb128 0x5
 4856 0eea 03       		.byte	0x3
 4857 0eeb 00000000 		.4byte	.LC0
 4858 0eef 1B       		.uleb128 0x1b
 4859 0ef0 01       		.uleb128 0x1
 4860 0ef1 51       		.byte	0x51
 4861 0ef2 03       		.uleb128 0x3
ARM GAS  C:\Users\gjl\AppData\Local\Temp\cc7xIfgu.s 			page 119


 4862 0ef3 0A       		.byte	0xa
 4863 0ef4 A602     		.2byte	0x2a6
 4864 0ef6 00       		.byte	0
 4865 0ef7 1A       		.uleb128 0x1a
 4866 0ef8 36000000 		.4byte	.LVL95
 4867 0efc DD170000 		.4byte	0x17dd
 4868 0f00 1B       		.uleb128 0x1b
 4869 0f01 01       		.uleb128 0x1
 4870 0f02 50       		.byte	0x50
 4871 0f03 05       		.uleb128 0x5
 4872 0f04 03       		.byte	0x3
 4873 0f05 00000000 		.4byte	.LC0
 4874 0f09 1B       		.uleb128 0x1b
 4875 0f0a 01       		.uleb128 0x1
 4876 0f0b 51       		.byte	0x51
 4877 0f0c 03       		.uleb128 0x3
 4878 0f0d 0A       		.byte	0xa
 4879 0f0e A702     		.2byte	0x2a7
 4880 0f10 00       		.byte	0
 4881 0f11 00       		.byte	0
 4882 0f12 15       		.uleb128 0x15
 4883 0f13 04       		.byte	0x4
 4884 0f14 89010000 		.4byte	0x189
 4885 0f18 15       		.uleb128 0x15
 4886 0f19 04       		.byte	0x4
 4887 0f1a 1E0F0000 		.4byte	0xf1e
 4888 0f1e 06       		.uleb128 0x6
 4889 0f1f 16080000 		.4byte	0x816
 4890 0f23 1D       		.uleb128 0x1d
 4891 0f24 55000000 		.4byte	.LASF142
 4892 0f28 01       		.byte	0x1
 4893 0f29 E702     		.2byte	0x2e7
 4894 0f2b AF050000 		.4byte	0x5af
 4895 0f2f 00000000 		.4byte	.LFB49
 4896 0f33 F4000000 		.4byte	.LFE49-.LFB49
 4897 0f37 01       		.uleb128 0x1
 4898 0f38 9C       		.byte	0x9c
 4899 0f39 00100000 		.4byte	0x1000
 4900 0f3d 1E       		.uleb128 0x1e
 4901 0f3e AF050000 		.4byte	.LASF129
 4902 0f42 01       		.byte	0x1
 4903 0f43 E702     		.2byte	0x2e7
 4904 0f45 120F0000 		.4byte	0xf12
 4905 0f49 E2040000 		.4byte	.LLST30
 4906 0f4d 1E       		.uleb128 0x1e
 4907 0f4e B1090000 		.4byte	.LASF130
 4908 0f52 01       		.byte	0x1
 4909 0f53 E702     		.2byte	0x2e7
 4910 0f55 180F0000 		.4byte	0xf18
 4911 0f59 0E050000 		.4byte	.LLST31
 4912 0f5d 1F       		.uleb128 0x1f
 4913 0f5e FE0A0000 		.4byte	.LASF121
 4914 0f62 01       		.byte	0x1
 4915 0f63 E902     		.2byte	0x2e9
 4916 0f65 AF050000 		.4byte	0x5af
 4917 0f69 01       		.uleb128 0x1
 4918 0f6a 50       		.byte	0x50
ARM GAS  C:\Users\gjl\AppData\Local\Temp\cc7xIfgu.s 			page 120


 4919 0f6b 20       		.uleb128 0x20
 4920 0f6c 09010000 		.4byte	.LASF131
 4921 0f70 01       		.byte	0x1
 4922 0f71 EA02     		.2byte	0x2ea
 4923 0f73 A9000000 		.4byte	0xa9
 4924 0f77 3A050000 		.4byte	.LLST32
 4925 0f7b 20       		.uleb128 0x20
 4926 0f7c 2A0A0000 		.4byte	.LASF132
 4927 0f80 01       		.byte	0x1
 4928 0f81 EB02     		.2byte	0x2eb
 4929 0f83 A9000000 		.4byte	0xa9
 4930 0f87 58050000 		.4byte	.LLST33
 4931 0f8b 21       		.uleb128 0x21
 4932 0f8c 12000000 		.4byte	.LVL105
 4933 0f90 DD170000 		.4byte	0x17dd
 4934 0f94 A90F0000 		.4byte	0xfa9
 4935 0f98 1B       		.uleb128 0x1b
 4936 0f99 01       		.uleb128 0x1
 4937 0f9a 50       		.byte	0x50
 4938 0f9b 05       		.uleb128 0x5
 4939 0f9c 03       		.byte	0x3
 4940 0f9d 00000000 		.4byte	.LC0
 4941 0fa1 1B       		.uleb128 0x1b
 4942 0fa2 01       		.uleb128 0x1
 4943 0fa3 51       		.byte	0x51
 4944 0fa4 03       		.uleb128 0x3
 4945 0fa5 0A       		.byte	0xa
 4946 0fa6 ED02     		.2byte	0x2ed
 4947 0fa8 00       		.byte	0
 4948 0fa9 21       		.uleb128 0x21
 4949 0faa 20000000 		.4byte	.LVL106
 4950 0fae DD170000 		.4byte	0x17dd
 4951 0fb2 C70F0000 		.4byte	0xfc7
 4952 0fb6 1B       		.uleb128 0x1b
 4953 0fb7 01       		.uleb128 0x1
 4954 0fb8 50       		.byte	0x50
 4955 0fb9 05       		.uleb128 0x5
 4956 0fba 03       		.byte	0x3
 4957 0fbb 00000000 		.4byte	.LC0
 4958 0fbf 1B       		.uleb128 0x1b
 4959 0fc0 01       		.uleb128 0x1
 4960 0fc1 51       		.byte	0x51
 4961 0fc2 03       		.uleb128 0x3
 4962 0fc3 0A       		.byte	0xa
 4963 0fc4 EE02     		.2byte	0x2ee
 4964 0fc6 00       		.byte	0
 4965 0fc7 21       		.uleb128 0x21
 4966 0fc8 2E000000 		.4byte	.LVL107
 4967 0fcc DD170000 		.4byte	0x17dd
 4968 0fd0 E50F0000 		.4byte	0xfe5
 4969 0fd4 1B       		.uleb128 0x1b
 4970 0fd5 01       		.uleb128 0x1
 4971 0fd6 50       		.byte	0x50
 4972 0fd7 05       		.uleb128 0x5
 4973 0fd8 03       		.byte	0x3
 4974 0fd9 00000000 		.4byte	.LC0
 4975 0fdd 1B       		.uleb128 0x1b
ARM GAS  C:\Users\gjl\AppData\Local\Temp\cc7xIfgu.s 			page 121


 4976 0fde 01       		.uleb128 0x1
 4977 0fdf 51       		.byte	0x51
 4978 0fe0 03       		.uleb128 0x3
 4979 0fe1 0A       		.byte	0xa
 4980 0fe2 EF02     		.2byte	0x2ef
 4981 0fe4 00       		.byte	0
 4982 0fe5 1A       		.uleb128 0x1a
 4983 0fe6 42000000 		.4byte	.LVL108
 4984 0fea DD170000 		.4byte	0x17dd
 4985 0fee 1B       		.uleb128 0x1b
 4986 0fef 01       		.uleb128 0x1
 4987 0ff0 50       		.byte	0x50
 4988 0ff1 05       		.uleb128 0x5
 4989 0ff2 03       		.byte	0x3
 4990 0ff3 00000000 		.4byte	.LC0
 4991 0ff7 1B       		.uleb128 0x1b
 4992 0ff8 01       		.uleb128 0x1
 4993 0ff9 51       		.byte	0x51
 4994 0ffa 03       		.uleb128 0x3
 4995 0ffb 0A       		.byte	0xa
 4996 0ffc F002     		.2byte	0x2f0
 4997 0ffe 00       		.byte	0
 4998 0fff 00       		.byte	0
 4999 1000 1D       		.uleb128 0x1d
 5000 1001 6A060000 		.4byte	.LASF143
 5001 1005 01       		.byte	0x1
 5002 1006 2B03     		.2byte	0x32b
 5003 1008 AF050000 		.4byte	0x5af
 5004 100c 00000000 		.4byte	.LFB50
 5005 1010 1C000000 		.4byte	.LFE50-.LFB50
 5006 1014 01       		.uleb128 0x1
 5007 1015 9C       		.byte	0x9c
 5008 1016 39100000 		.4byte	0x1039
 5009 101a 1E       		.uleb128 0x1e
 5010 101b AF050000 		.4byte	.LASF129
 5011 101f 01       		.byte	0x1
 5012 1020 2B03     		.2byte	0x32b
 5013 1022 120F0000 		.4byte	0xf12
 5014 1026 76050000 		.4byte	.LLST34
 5015 102a 1F       		.uleb128 0x1f
 5016 102b FE0A0000 		.4byte	.LASF121
 5017 102f 01       		.byte	0x1
 5018 1030 2D03     		.2byte	0x32d
 5019 1032 AF050000 		.4byte	0x5af
 5020 1036 01       		.uleb128 0x1
 5021 1037 50       		.byte	0x50
 5022 1038 00       		.byte	0
 5023 1039 1D       		.uleb128 0x1d
 5024 103a D30A0000 		.4byte	.LASF144
 5025 103e 01       		.byte	0x1
 5026 103f 5003     		.2byte	0x350
 5027 1041 AF050000 		.4byte	0x5af
 5028 1045 00000000 		.4byte	.LFB51
 5029 1049 1C000000 		.4byte	.LFE51-.LFB51
 5030 104d 01       		.uleb128 0x1
 5031 104e 9C       		.byte	0x9c
 5032 104f 72100000 		.4byte	0x1072
ARM GAS  C:\Users\gjl\AppData\Local\Temp\cc7xIfgu.s 			page 122


 5033 1053 1E       		.uleb128 0x1e
 5034 1054 AF050000 		.4byte	.LASF129
 5035 1058 01       		.byte	0x1
 5036 1059 5003     		.2byte	0x350
 5037 105b 120F0000 		.4byte	0xf12
 5038 105f B0050000 		.4byte	.LLST35
 5039 1063 1F       		.uleb128 0x1f
 5040 1064 FE0A0000 		.4byte	.LASF121
 5041 1068 01       		.byte	0x1
 5042 1069 5203     		.2byte	0x352
 5043 106b AF050000 		.4byte	0x5af
 5044 106f 01       		.uleb128 0x1
 5045 1070 50       		.byte	0x50
 5046 1071 00       		.byte	0
 5047 1072 1D       		.uleb128 0x1d
 5048 1073 B60B0000 		.4byte	.LASF145
 5049 1077 01       		.byte	0x1
 5050 1078 7403     		.2byte	0x374
 5051 107a AF050000 		.4byte	0x5af
 5052 107e 00000000 		.4byte	.LFB52
 5053 1082 1C000000 		.4byte	.LFE52-.LFB52
 5054 1086 01       		.uleb128 0x1
 5055 1087 9C       		.byte	0x9c
 5056 1088 AB100000 		.4byte	0x10ab
 5057 108c 1E       		.uleb128 0x1e
 5058 108d AF050000 		.4byte	.LASF129
 5059 1091 01       		.byte	0x1
 5060 1092 7403     		.2byte	0x374
 5061 1094 120F0000 		.4byte	0xf12
 5062 1098 EA050000 		.4byte	.LLST36
 5063 109c 1F       		.uleb128 0x1f
 5064 109d FE0A0000 		.4byte	.LASF121
 5065 10a1 01       		.byte	0x1
 5066 10a2 7603     		.2byte	0x376
 5067 10a4 AF050000 		.4byte	0x5af
 5068 10a8 01       		.uleb128 0x1
 5069 10a9 50       		.byte	0x50
 5070 10aa 00       		.byte	0
 5071 10ab 1D       		.uleb128 0x1d
 5072 10ac FC0B0000 		.4byte	.LASF146
 5073 10b0 01       		.byte	0x1
 5074 10b1 9903     		.2byte	0x399
 5075 10b3 AF050000 		.4byte	0x5af
 5076 10b7 00000000 		.4byte	.LFB53
 5077 10bb 1C000000 		.4byte	.LFE53-.LFB53
 5078 10bf 01       		.uleb128 0x1
 5079 10c0 9C       		.byte	0x9c
 5080 10c1 E4100000 		.4byte	0x10e4
 5081 10c5 1E       		.uleb128 0x1e
 5082 10c6 AF050000 		.4byte	.LASF129
 5083 10ca 01       		.byte	0x1
 5084 10cb 9903     		.2byte	0x399
 5085 10cd 120F0000 		.4byte	0xf12
 5086 10d1 24060000 		.4byte	.LLST37
 5087 10d5 1F       		.uleb128 0x1f
 5088 10d6 FE0A0000 		.4byte	.LASF121
 5089 10da 01       		.byte	0x1
ARM GAS  C:\Users\gjl\AppData\Local\Temp\cc7xIfgu.s 			page 123


 5090 10db 9B03     		.2byte	0x39b
 5091 10dd AF050000 		.4byte	0x5af
 5092 10e1 01       		.uleb128 0x1
 5093 10e2 50       		.byte	0x50
 5094 10e3 00       		.byte	0
 5095 10e4 1D       		.uleb128 0x1d
 5096 10e5 D70B0000 		.4byte	.LASF147
 5097 10e9 01       		.byte	0x1
 5098 10ea C703     		.2byte	0x3c7
 5099 10ec AF050000 		.4byte	0x5af
 5100 10f0 00000000 		.4byte	.LFB54
 5101 10f4 BC000000 		.4byte	.LFE54-.LFB54
 5102 10f8 01       		.uleb128 0x1
 5103 10f9 9C       		.byte	0x9c
 5104 10fa 93110000 		.4byte	0x1193
 5105 10fe 1E       		.uleb128 0x1e
 5106 10ff AF050000 		.4byte	.LASF129
 5107 1103 01       		.byte	0x1
 5108 1104 C703     		.2byte	0x3c7
 5109 1106 93110000 		.4byte	0x1193
 5110 110a 5E060000 		.4byte	.LLST38
 5111 110e 1E       		.uleb128 0x1e
 5112 110f B1090000 		.4byte	.LASF130
 5113 1113 01       		.byte	0x1
 5114 1114 C703     		.2byte	0x3c7
 5115 1116 99110000 		.4byte	0x1199
 5116 111a 8A060000 		.4byte	.LLST39
 5117 111e 1F       		.uleb128 0x1f
 5118 111f FE0A0000 		.4byte	.LASF121
 5119 1123 01       		.byte	0x1
 5120 1124 C903     		.2byte	0x3c9
 5121 1126 AF050000 		.4byte	0x5af
 5122 112a 01       		.uleb128 0x1
 5123 112b 50       		.byte	0x50
 5124 112c 20       		.uleb128 0x20
 5125 112d 2A0A0000 		.4byte	.LASF132
 5126 1131 01       		.byte	0x1
 5127 1132 CA03     		.2byte	0x3ca
 5128 1134 A9000000 		.4byte	0xa9
 5129 1138 B6060000 		.4byte	.LLST40
 5130 113c 21       		.uleb128 0x21
 5131 113d 14000000 		.4byte	.LVL135
 5132 1141 DD170000 		.4byte	0x17dd
 5133 1145 5A110000 		.4byte	0x115a
 5134 1149 1B       		.uleb128 0x1b
 5135 114a 01       		.uleb128 0x1
 5136 114b 50       		.byte	0x50
 5137 114c 05       		.uleb128 0x5
 5138 114d 03       		.byte	0x3
 5139 114e 00000000 		.4byte	.LC0
 5140 1152 1B       		.uleb128 0x1b
 5141 1153 01       		.uleb128 0x1
 5142 1154 51       		.byte	0x51
 5143 1155 03       		.uleb128 0x3
 5144 1156 0A       		.byte	0xa
 5145 1157 CC03     		.2byte	0x3cc
 5146 1159 00       		.byte	0
ARM GAS  C:\Users\gjl\AppData\Local\Temp\cc7xIfgu.s 			page 124


 5147 115a 21       		.uleb128 0x21
 5148 115b 26000000 		.4byte	.LVL136
 5149 115f DD170000 		.4byte	0x17dd
 5150 1163 78110000 		.4byte	0x1178
 5151 1167 1B       		.uleb128 0x1b
 5152 1168 01       		.uleb128 0x1
 5153 1169 50       		.byte	0x50
 5154 116a 05       		.uleb128 0x5
 5155 116b 03       		.byte	0x3
 5156 116c 00000000 		.4byte	.LC0
 5157 1170 1B       		.uleb128 0x1b
 5158 1171 01       		.uleb128 0x1
 5159 1172 51       		.byte	0x51
 5160 1173 03       		.uleb128 0x3
 5161 1174 0A       		.byte	0xa
 5162 1175 CD03     		.2byte	0x3cd
 5163 1177 00       		.byte	0
 5164 1178 1A       		.uleb128 0x1a
 5165 1179 38000000 		.4byte	.LVL137
 5166 117d DD170000 		.4byte	0x17dd
 5167 1181 1B       		.uleb128 0x1b
 5168 1182 01       		.uleb128 0x1
 5169 1183 50       		.byte	0x50
 5170 1184 05       		.uleb128 0x5
 5171 1185 03       		.byte	0x3
 5172 1186 00000000 		.4byte	.LC0
 5173 118a 1B       		.uleb128 0x1b
 5174 118b 01       		.uleb128 0x1
 5175 118c 51       		.byte	0x51
 5176 118d 03       		.uleb128 0x3
 5177 118e 0A       		.byte	0xa
 5178 118f CE03     		.2byte	0x3ce
 5179 1191 00       		.byte	0
 5180 1192 00       		.byte	0
 5181 1193 15       		.uleb128 0x15
 5182 1194 04       		.byte	0x4
 5183 1195 F9010000 		.4byte	0x1f9
 5184 1199 15       		.uleb128 0x15
 5185 119a 04       		.byte	0x4
 5186 119b 9F110000 		.4byte	0x119f
 5187 119f 06       		.uleb128 0x6
 5188 11a0 6D080000 		.4byte	0x86d
 5189 11a4 1D       		.uleb128 0x1d
 5190 11a5 D9010000 		.4byte	.LASF148
 5191 11a9 01       		.byte	0x1
 5192 11aa 1304     		.2byte	0x413
 5193 11ac AF050000 		.4byte	0x5af
 5194 11b0 00000000 		.4byte	.LFB55
 5195 11b4 B4000000 		.4byte	.LFE55-.LFB55
 5196 11b8 01       		.uleb128 0x1
 5197 11b9 9C       		.byte	0x9c
 5198 11ba 53120000 		.4byte	0x1253
 5199 11be 1E       		.uleb128 0x1e
 5200 11bf AF050000 		.4byte	.LASF129
 5201 11c3 01       		.byte	0x1
 5202 11c4 1304     		.2byte	0x413
 5203 11c6 93110000 		.4byte	0x1193
ARM GAS  C:\Users\gjl\AppData\Local\Temp\cc7xIfgu.s 			page 125


 5204 11ca D4060000 		.4byte	.LLST41
 5205 11ce 1E       		.uleb128 0x1e
 5206 11cf B1090000 		.4byte	.LASF130
 5207 11d3 01       		.byte	0x1
 5208 11d4 1304     		.2byte	0x413
 5209 11d6 99110000 		.4byte	0x1199
 5210 11da 00070000 		.4byte	.LLST42
 5211 11de 1F       		.uleb128 0x1f
 5212 11df FE0A0000 		.4byte	.LASF121
 5213 11e3 01       		.byte	0x1
 5214 11e4 1504     		.2byte	0x415
 5215 11e6 AF050000 		.4byte	0x5af
 5216 11ea 01       		.uleb128 0x1
 5217 11eb 50       		.byte	0x50
 5218 11ec 20       		.uleb128 0x20
 5219 11ed 2A0A0000 		.4byte	.LASF132
 5220 11f1 01       		.byte	0x1
 5221 11f2 1604     		.2byte	0x416
 5222 11f4 A9000000 		.4byte	0xa9
 5223 11f8 2C070000 		.4byte	.LLST43
 5224 11fc 21       		.uleb128 0x21
 5225 11fd 14000000 		.4byte	.LVL147
 5226 1201 DD170000 		.4byte	0x17dd
 5227 1205 1A120000 		.4byte	0x121a
 5228 1209 1B       		.uleb128 0x1b
 5229 120a 01       		.uleb128 0x1
 5230 120b 50       		.byte	0x50
 5231 120c 05       		.uleb128 0x5
 5232 120d 03       		.byte	0x3
 5233 120e 00000000 		.4byte	.LC0
 5234 1212 1B       		.uleb128 0x1b
 5235 1213 01       		.uleb128 0x1
 5236 1214 51       		.byte	0x51
 5237 1215 03       		.uleb128 0x3
 5238 1216 0A       		.byte	0xa
 5239 1217 1804     		.2byte	0x418
 5240 1219 00       		.byte	0
 5241 121a 21       		.uleb128 0x21
 5242 121b 22000000 		.4byte	.LVL148
 5243 121f DD170000 		.4byte	0x17dd
 5244 1223 38120000 		.4byte	0x1238
 5245 1227 1B       		.uleb128 0x1b
 5246 1228 01       		.uleb128 0x1
 5247 1229 50       		.byte	0x50
 5248 122a 05       		.uleb128 0x5
 5249 122b 03       		.byte	0x3
 5250 122c 00000000 		.4byte	.LC0
 5251 1230 1B       		.uleb128 0x1b
 5252 1231 01       		.uleb128 0x1
 5253 1232 51       		.byte	0x51
 5254 1233 03       		.uleb128 0x3
 5255 1234 0A       		.byte	0xa
 5256 1235 1904     		.2byte	0x419
 5257 1237 00       		.byte	0
 5258 1238 1A       		.uleb128 0x1a
 5259 1239 30000000 		.4byte	.LVL149
 5260 123d DD170000 		.4byte	0x17dd
ARM GAS  C:\Users\gjl\AppData\Local\Temp\cc7xIfgu.s 			page 126


 5261 1241 1B       		.uleb128 0x1b
 5262 1242 01       		.uleb128 0x1
 5263 1243 50       		.byte	0x50
 5264 1244 05       		.uleb128 0x5
 5265 1245 03       		.byte	0x3
 5266 1246 00000000 		.4byte	.LC0
 5267 124a 1B       		.uleb128 0x1b
 5268 124b 01       		.uleb128 0x1
 5269 124c 51       		.byte	0x51
 5270 124d 03       		.uleb128 0x3
 5271 124e 0A       		.byte	0xa
 5272 124f 1A04     		.2byte	0x41a
 5273 1251 00       		.byte	0
 5274 1252 00       		.byte	0
 5275 1253 1D       		.uleb128 0x1d
 5276 1254 DA020000 		.4byte	.LASF149
 5277 1258 01       		.byte	0x1
 5278 1259 5104     		.2byte	0x451
 5279 125b AF050000 		.4byte	0x5af
 5280 125f 00000000 		.4byte	.LFB56
 5281 1263 1C000000 		.4byte	.LFE56-.LFB56
 5282 1267 01       		.uleb128 0x1
 5283 1268 9C       		.byte	0x9c
 5284 1269 8C120000 		.4byte	0x128c
 5285 126d 1E       		.uleb128 0x1e
 5286 126e AF050000 		.4byte	.LASF129
 5287 1272 01       		.byte	0x1
 5288 1273 5104     		.2byte	0x451
 5289 1275 93110000 		.4byte	0x1193
 5290 1279 4A070000 		.4byte	.LLST44
 5291 127d 1F       		.uleb128 0x1f
 5292 127e FE0A0000 		.4byte	.LASF121
 5293 1282 01       		.byte	0x1
 5294 1283 5304     		.2byte	0x453
 5295 1285 AF050000 		.4byte	0x5af
 5296 1289 01       		.uleb128 0x1
 5297 128a 50       		.byte	0x50
 5298 128b 00       		.byte	0
 5299 128c 1D       		.uleb128 0x1d
 5300 128d FD010000 		.4byte	.LASF150
 5301 1291 01       		.byte	0x1
 5302 1292 7604     		.2byte	0x476
 5303 1294 AF050000 		.4byte	0x5af
 5304 1298 00000000 		.4byte	.LFB57
 5305 129c 1C000000 		.4byte	.LFE57-.LFB57
 5306 12a0 01       		.uleb128 0x1
 5307 12a1 9C       		.byte	0x9c
 5308 12a2 C5120000 		.4byte	0x12c5
 5309 12a6 1E       		.uleb128 0x1e
 5310 12a7 AF050000 		.4byte	.LASF129
 5311 12ab 01       		.byte	0x1
 5312 12ac 7604     		.2byte	0x476
 5313 12ae 93110000 		.4byte	0x1193
 5314 12b2 84070000 		.4byte	.LLST45
 5315 12b6 1F       		.uleb128 0x1f
 5316 12b7 FE0A0000 		.4byte	.LASF121
 5317 12bb 01       		.byte	0x1
ARM GAS  C:\Users\gjl\AppData\Local\Temp\cc7xIfgu.s 			page 127


 5318 12bc 7804     		.2byte	0x478
 5319 12be AF050000 		.4byte	0x5af
 5320 12c2 01       		.uleb128 0x1
 5321 12c3 50       		.byte	0x50
 5322 12c4 00       		.byte	0
 5323 12c5 1D       		.uleb128 0x1d
 5324 12c6 C3060000 		.4byte	.LASF151
 5325 12ca 01       		.byte	0x1
 5326 12cb 9A04     		.2byte	0x49a
 5327 12cd AF050000 		.4byte	0x5af
 5328 12d1 00000000 		.4byte	.LFB58
 5329 12d5 1C000000 		.4byte	.LFE58-.LFB58
 5330 12d9 01       		.uleb128 0x1
 5331 12da 9C       		.byte	0x9c
 5332 12db FE120000 		.4byte	0x12fe
 5333 12df 1E       		.uleb128 0x1e
 5334 12e0 AF050000 		.4byte	.LASF129
 5335 12e4 01       		.byte	0x1
 5336 12e5 9A04     		.2byte	0x49a
 5337 12e7 93110000 		.4byte	0x1193
 5338 12eb BE070000 		.4byte	.LLST46
 5339 12ef 1F       		.uleb128 0x1f
 5340 12f0 FE0A0000 		.4byte	.LASF121
 5341 12f4 01       		.byte	0x1
 5342 12f5 9C04     		.2byte	0x49c
 5343 12f7 AF050000 		.4byte	0x5af
 5344 12fb 01       		.uleb128 0x1
 5345 12fc 50       		.byte	0x50
 5346 12fd 00       		.byte	0
 5347 12fe 1D       		.uleb128 0x1d
 5348 12ff 72080000 		.4byte	.LASF152
 5349 1303 01       		.byte	0x1
 5350 1304 BF04     		.2byte	0x4bf
 5351 1306 AF050000 		.4byte	0x5af
 5352 130a 00000000 		.4byte	.LFB59
 5353 130e 1C000000 		.4byte	.LFE59-.LFB59
 5354 1312 01       		.uleb128 0x1
 5355 1313 9C       		.byte	0x9c
 5356 1314 37130000 		.4byte	0x1337
 5357 1318 1E       		.uleb128 0x1e
 5358 1319 AF050000 		.4byte	.LASF129
 5359 131d 01       		.byte	0x1
 5360 131e BF04     		.2byte	0x4bf
 5361 1320 93110000 		.4byte	0x1193
 5362 1324 F8070000 		.4byte	.LLST47
 5363 1328 1F       		.uleb128 0x1f
 5364 1329 FE0A0000 		.4byte	.LASF121
 5365 132d 01       		.byte	0x1
 5366 132e C104     		.2byte	0x4c1
 5367 1330 AF050000 		.4byte	0x5af
 5368 1334 01       		.uleb128 0x1
 5369 1335 50       		.byte	0x50
 5370 1336 00       		.byte	0
 5371 1337 1D       		.uleb128 0x1d
 5372 1338 350C0000 		.4byte	.LASF153
 5373 133c 01       		.byte	0x1
 5374 133d ED04     		.2byte	0x4ed
ARM GAS  C:\Users\gjl\AppData\Local\Temp\cc7xIfgu.s 			page 128


 5375 133f AF050000 		.4byte	0x5af
 5376 1343 00000000 		.4byte	.LFB60
 5377 1347 C0000000 		.4byte	.LFE60-.LFB60
 5378 134b 01       		.uleb128 0x1
 5379 134c 9C       		.byte	0x9c
 5380 134d E6130000 		.4byte	0x13e6
 5381 1351 1E       		.uleb128 0x1e
 5382 1352 AF050000 		.4byte	.LASF129
 5383 1356 01       		.byte	0x1
 5384 1357 ED04     		.2byte	0x4ed
 5385 1359 E6130000 		.4byte	0x13e6
 5386 135d 32080000 		.4byte	.LLST48
 5387 1361 1E       		.uleb128 0x1e
 5388 1362 B1090000 		.4byte	.LASF130
 5389 1366 01       		.byte	0x1
 5390 1367 ED04     		.2byte	0x4ed
 5391 1369 EC130000 		.4byte	0x13ec
 5392 136d 5E080000 		.4byte	.LLST49
 5393 1371 1F       		.uleb128 0x1f
 5394 1372 FE0A0000 		.4byte	.LASF121
 5395 1376 01       		.byte	0x1
 5396 1377 EF04     		.2byte	0x4ef
 5397 1379 AF050000 		.4byte	0x5af
 5398 137d 01       		.uleb128 0x1
 5399 137e 50       		.byte	0x50
 5400 137f 20       		.uleb128 0x20
 5401 1380 2A0A0000 		.4byte	.LASF132
 5402 1384 01       		.byte	0x1
 5403 1385 F004     		.2byte	0x4f0
 5404 1387 A9000000 		.4byte	0xa9
 5405 138b 8A080000 		.4byte	.LLST50
 5406 138f 21       		.uleb128 0x21
 5407 1390 12000000 		.4byte	.LVL175
 5408 1394 DD170000 		.4byte	0x17dd
 5409 1398 AD130000 		.4byte	0x13ad
 5410 139c 1B       		.uleb128 0x1b
 5411 139d 01       		.uleb128 0x1
 5412 139e 50       		.byte	0x50
 5413 139f 05       		.uleb128 0x5
 5414 13a0 03       		.byte	0x3
 5415 13a1 00000000 		.4byte	.LC0
 5416 13a5 1B       		.uleb128 0x1b
 5417 13a6 01       		.uleb128 0x1
 5418 13a7 51       		.byte	0x51
 5419 13a8 03       		.uleb128 0x3
 5420 13a9 0A       		.byte	0xa
 5421 13aa F204     		.2byte	0x4f2
 5422 13ac 00       		.byte	0
 5423 13ad 21       		.uleb128 0x21
 5424 13ae 24000000 		.4byte	.LVL176
 5425 13b2 DD170000 		.4byte	0x17dd
 5426 13b6 CB130000 		.4byte	0x13cb
 5427 13ba 1B       		.uleb128 0x1b
 5428 13bb 01       		.uleb128 0x1
 5429 13bc 50       		.byte	0x50
 5430 13bd 05       		.uleb128 0x5
 5431 13be 03       		.byte	0x3
ARM GAS  C:\Users\gjl\AppData\Local\Temp\cc7xIfgu.s 			page 129


 5432 13bf 00000000 		.4byte	.LC0
 5433 13c3 1B       		.uleb128 0x1b
 5434 13c4 01       		.uleb128 0x1
 5435 13c5 51       		.byte	0x51
 5436 13c6 03       		.uleb128 0x3
 5437 13c7 0A       		.byte	0xa
 5438 13c8 F304     		.2byte	0x4f3
 5439 13ca 00       		.byte	0
 5440 13cb 1A       		.uleb128 0x1a
 5441 13cc 36000000 		.4byte	.LVL177
 5442 13d0 DD170000 		.4byte	0x17dd
 5443 13d4 1B       		.uleb128 0x1b
 5444 13d5 01       		.uleb128 0x1
 5445 13d6 50       		.byte	0x50
 5446 13d7 05       		.uleb128 0x5
 5447 13d8 03       		.byte	0x3
 5448 13d9 00000000 		.4byte	.LC0
 5449 13dd 1B       		.uleb128 0x1b
 5450 13de 01       		.uleb128 0x1
 5451 13df 51       		.byte	0x51
 5452 13e0 03       		.uleb128 0x3
 5453 13e1 0A       		.byte	0xa
 5454 13e2 F404     		.2byte	0x4f4
 5455 13e4 00       		.byte	0
 5456 13e5 00       		.byte	0
 5457 13e6 15       		.uleb128 0x15
 5458 13e7 04       		.byte	0x4
 5459 13e8 69020000 		.4byte	0x269
 5460 13ec 15       		.uleb128 0x15
 5461 13ed 04       		.byte	0x4
 5462 13ee F2130000 		.4byte	0x13f2
 5463 13f2 06       		.uleb128 0x6
 5464 13f3 C4080000 		.4byte	0x8c4
 5465 13f7 1D       		.uleb128 0x1d
 5466 13f8 2B080000 		.4byte	.LASF154
 5467 13fc 01       		.byte	0x1
 5468 13fd 3805     		.2byte	0x538
 5469 13ff AF050000 		.4byte	0x5af
 5470 1403 00000000 		.4byte	.LFB61
 5471 1407 B8000000 		.4byte	.LFE61-.LFB61
 5472 140b 01       		.uleb128 0x1
 5473 140c 9C       		.byte	0x9c
 5474 140d A6140000 		.4byte	0x14a6
 5475 1411 1E       		.uleb128 0x1e
 5476 1412 AF050000 		.4byte	.LASF129
 5477 1416 01       		.byte	0x1
 5478 1417 3805     		.2byte	0x538
 5479 1419 E6130000 		.4byte	0x13e6
 5480 141d A8080000 		.4byte	.LLST51
 5481 1421 1E       		.uleb128 0x1e
 5482 1422 B1090000 		.4byte	.LASF130
 5483 1426 01       		.byte	0x1
 5484 1427 3805     		.2byte	0x538
 5485 1429 EC130000 		.4byte	0x13ec
 5486 142d D4080000 		.4byte	.LLST52
 5487 1431 1F       		.uleb128 0x1f
 5488 1432 FE0A0000 		.4byte	.LASF121
ARM GAS  C:\Users\gjl\AppData\Local\Temp\cc7xIfgu.s 			page 130


 5489 1436 01       		.byte	0x1
 5490 1437 3A05     		.2byte	0x53a
 5491 1439 AF050000 		.4byte	0x5af
 5492 143d 01       		.uleb128 0x1
 5493 143e 50       		.byte	0x50
 5494 143f 20       		.uleb128 0x20
 5495 1440 2A0A0000 		.4byte	.LASF132
 5496 1444 01       		.byte	0x1
 5497 1445 3B05     		.2byte	0x53b
 5498 1447 A9000000 		.4byte	0xa9
 5499 144b 00090000 		.4byte	.LLST53
 5500 144f 21       		.uleb128 0x21
 5501 1450 12000000 		.4byte	.LVL187
 5502 1454 DD170000 		.4byte	0x17dd
 5503 1458 6D140000 		.4byte	0x146d
 5504 145c 1B       		.uleb128 0x1b
 5505 145d 01       		.uleb128 0x1
 5506 145e 50       		.byte	0x50
 5507 145f 05       		.uleb128 0x5
 5508 1460 03       		.byte	0x3
 5509 1461 00000000 		.4byte	.LC0
 5510 1465 1B       		.uleb128 0x1b
 5511 1466 01       		.uleb128 0x1
 5512 1467 51       		.byte	0x51
 5513 1468 03       		.uleb128 0x3
 5514 1469 0A       		.byte	0xa
 5515 146a 3D05     		.2byte	0x53d
 5516 146c 00       		.byte	0
 5517 146d 21       		.uleb128 0x21
 5518 146e 20000000 		.4byte	.LVL188
 5519 1472 DD170000 		.4byte	0x17dd
 5520 1476 8B140000 		.4byte	0x148b
 5521 147a 1B       		.uleb128 0x1b
 5522 147b 01       		.uleb128 0x1
 5523 147c 50       		.byte	0x50
 5524 147d 05       		.uleb128 0x5
 5525 147e 03       		.byte	0x3
 5526 147f 00000000 		.4byte	.LC0
 5527 1483 1B       		.uleb128 0x1b
 5528 1484 01       		.uleb128 0x1
 5529 1485 51       		.byte	0x51
 5530 1486 03       		.uleb128 0x3
 5531 1487 0A       		.byte	0xa
 5532 1488 3E05     		.2byte	0x53e
 5533 148a 00       		.byte	0
 5534 148b 1A       		.uleb128 0x1a
 5535 148c 2E000000 		.4byte	.LVL189
 5536 1490 DD170000 		.4byte	0x17dd
 5537 1494 1B       		.uleb128 0x1b
 5538 1495 01       		.uleb128 0x1
 5539 1496 50       		.byte	0x50
 5540 1497 05       		.uleb128 0x5
 5541 1498 03       		.byte	0x3
 5542 1499 00000000 		.4byte	.LC0
 5543 149d 1B       		.uleb128 0x1b
 5544 149e 01       		.uleb128 0x1
 5545 149f 51       		.byte	0x51
ARM GAS  C:\Users\gjl\AppData\Local\Temp\cc7xIfgu.s 			page 131


 5546 14a0 03       		.uleb128 0x3
 5547 14a1 0A       		.byte	0xa
 5548 14a2 3F05     		.2byte	0x53f
 5549 14a4 00       		.byte	0
 5550 14a5 00       		.byte	0
 5551 14a6 1D       		.uleb128 0x1d
 5552 14a7 37050000 		.4byte	.LASF155
 5553 14ab 01       		.byte	0x1
 5554 14ac 7705     		.2byte	0x577
 5555 14ae AF050000 		.4byte	0x5af
 5556 14b2 00000000 		.4byte	.LFB62
 5557 14b6 1C000000 		.4byte	.LFE62-.LFB62
 5558 14ba 01       		.uleb128 0x1
 5559 14bb 9C       		.byte	0x9c
 5560 14bc DF140000 		.4byte	0x14df
 5561 14c0 1E       		.uleb128 0x1e
 5562 14c1 AF050000 		.4byte	.LASF129
 5563 14c5 01       		.byte	0x1
 5564 14c6 7705     		.2byte	0x577
 5565 14c8 E6130000 		.4byte	0x13e6
 5566 14cc 1E090000 		.4byte	.LLST54
 5567 14d0 1F       		.uleb128 0x1f
 5568 14d1 FE0A0000 		.4byte	.LASF121
 5569 14d5 01       		.byte	0x1
 5570 14d6 7905     		.2byte	0x579
 5571 14d8 AF050000 		.4byte	0x5af
 5572 14dc 01       		.uleb128 0x1
 5573 14dd 50       		.byte	0x50
 5574 14de 00       		.byte	0
 5575 14df 1D       		.uleb128 0x1d
 5576 14e0 22030000 		.4byte	.LASF156
 5577 14e4 01       		.byte	0x1
 5578 14e5 9C05     		.2byte	0x59c
 5579 14e7 AF050000 		.4byte	0x5af
 5580 14eb 00000000 		.4byte	.LFB63
 5581 14ef 1C000000 		.4byte	.LFE63-.LFB63
 5582 14f3 01       		.uleb128 0x1
 5583 14f4 9C       		.byte	0x9c
 5584 14f5 18150000 		.4byte	0x1518
 5585 14f9 1E       		.uleb128 0x1e
 5586 14fa AF050000 		.4byte	.LASF129
 5587 14fe 01       		.byte	0x1
 5588 14ff 9C05     		.2byte	0x59c
 5589 1501 E6130000 		.4byte	0x13e6
 5590 1505 58090000 		.4byte	.LLST55
 5591 1509 1F       		.uleb128 0x1f
 5592 150a FE0A0000 		.4byte	.LASF121
 5593 150e 01       		.byte	0x1
 5594 150f 9E05     		.2byte	0x59e
 5595 1511 AF050000 		.4byte	0x5af
 5596 1515 01       		.uleb128 0x1
 5597 1516 50       		.byte	0x50
 5598 1517 00       		.byte	0
 5599 1518 1D       		.uleb128 0x1d
 5600 1519 34020000 		.4byte	.LASF157
 5601 151d 01       		.byte	0x1
 5602 151e C005     		.2byte	0x5c0
ARM GAS  C:\Users\gjl\AppData\Local\Temp\cc7xIfgu.s 			page 132


 5603 1520 AF050000 		.4byte	0x5af
 5604 1524 00000000 		.4byte	.LFB64
 5605 1528 1C000000 		.4byte	.LFE64-.LFB64
 5606 152c 01       		.uleb128 0x1
 5607 152d 9C       		.byte	0x9c
 5608 152e 51150000 		.4byte	0x1551
 5609 1532 1E       		.uleb128 0x1e
 5610 1533 AF050000 		.4byte	.LASF129
 5611 1537 01       		.byte	0x1
 5612 1538 C005     		.2byte	0x5c0
 5613 153a E6130000 		.4byte	0x13e6
 5614 153e 92090000 		.4byte	.LLST56
 5615 1542 1F       		.uleb128 0x1f
 5616 1543 FE0A0000 		.4byte	.LASF121
 5617 1547 01       		.byte	0x1
 5618 1548 C205     		.2byte	0x5c2
 5619 154a AF050000 		.4byte	0x5af
 5620 154e 01       		.uleb128 0x1
 5621 154f 50       		.byte	0x50
 5622 1550 00       		.byte	0
 5623 1551 1D       		.uleb128 0x1d
 5624 1552 48030000 		.4byte	.LASF158
 5625 1556 01       		.byte	0x1
 5626 1557 E505     		.2byte	0x5e5
 5627 1559 AF050000 		.4byte	0x5af
 5628 155d 00000000 		.4byte	.LFB65
 5629 1561 1C000000 		.4byte	.LFE65-.LFB65
 5630 1565 01       		.uleb128 0x1
 5631 1566 9C       		.byte	0x9c
 5632 1567 8A150000 		.4byte	0x158a
 5633 156b 1E       		.uleb128 0x1e
 5634 156c AF050000 		.4byte	.LASF129
 5635 1570 01       		.byte	0x1
 5636 1571 E505     		.2byte	0x5e5
 5637 1573 E6130000 		.4byte	0x13e6
 5638 1577 CC090000 		.4byte	.LLST57
 5639 157b 1F       		.uleb128 0x1f
 5640 157c FE0A0000 		.4byte	.LASF121
 5641 1580 01       		.byte	0x1
 5642 1581 E705     		.2byte	0x5e7
 5643 1583 AF050000 		.4byte	0x5af
 5644 1587 01       		.uleb128 0x1
 5645 1588 50       		.byte	0x50
 5646 1589 00       		.byte	0
 5647 158a 1D       		.uleb128 0x1d
 5648 158b D8080000 		.4byte	.LASF159
 5649 158f 01       		.byte	0x1
 5650 1590 1306     		.2byte	0x613
 5651 1592 AF050000 		.4byte	0x5af
 5652 1596 00000000 		.4byte	.LFB66
 5653 159a BC000000 		.4byte	.LFE66-.LFB66
 5654 159e 01       		.uleb128 0x1
 5655 159f 9C       		.byte	0x9c
 5656 15a0 39160000 		.4byte	0x1639
 5657 15a4 1E       		.uleb128 0x1e
 5658 15a5 AF050000 		.4byte	.LASF129
 5659 15a9 01       		.byte	0x1
ARM GAS  C:\Users\gjl\AppData\Local\Temp\cc7xIfgu.s 			page 133


 5660 15aa 1306     		.2byte	0x613
 5661 15ac 39160000 		.4byte	0x1639
 5662 15b0 060A0000 		.4byte	.LLST58
 5663 15b4 1E       		.uleb128 0x1e
 5664 15b5 B1090000 		.4byte	.LASF130
 5665 15b9 01       		.byte	0x1
 5666 15ba 1306     		.2byte	0x613
 5667 15bc 3F160000 		.4byte	0x163f
 5668 15c0 320A0000 		.4byte	.LLST59
 5669 15c4 1F       		.uleb128 0x1f
 5670 15c5 FE0A0000 		.4byte	.LASF121
 5671 15c9 01       		.byte	0x1
 5672 15ca 1506     		.2byte	0x615
 5673 15cc AF050000 		.4byte	0x5af
 5674 15d0 01       		.uleb128 0x1
 5675 15d1 50       		.byte	0x50
 5676 15d2 20       		.uleb128 0x20
 5677 15d3 2A0A0000 		.4byte	.LASF132
 5678 15d7 01       		.byte	0x1
 5679 15d8 1606     		.2byte	0x616
 5680 15da A9000000 		.4byte	0xa9
 5681 15de 5E0A0000 		.4byte	.LLST60
 5682 15e2 21       		.uleb128 0x21
 5683 15e3 14000000 		.4byte	.LVL215
 5684 15e7 DD170000 		.4byte	0x17dd
 5685 15eb 00160000 		.4byte	0x1600
 5686 15ef 1B       		.uleb128 0x1b
 5687 15f0 01       		.uleb128 0x1
 5688 15f1 50       		.byte	0x50
 5689 15f2 05       		.uleb128 0x5
 5690 15f3 03       		.byte	0x3
 5691 15f4 00000000 		.4byte	.LC0
 5692 15f8 1B       		.uleb128 0x1b
 5693 15f9 01       		.uleb128 0x1
 5694 15fa 51       		.byte	0x51
 5695 15fb 03       		.uleb128 0x3
 5696 15fc 0A       		.byte	0xa
 5697 15fd 1806     		.2byte	0x618
 5698 15ff 00       		.byte	0
 5699 1600 21       		.uleb128 0x21
 5700 1601 26000000 		.4byte	.LVL216
 5701 1605 DD170000 		.4byte	0x17dd
 5702 1609 1E160000 		.4byte	0x161e
 5703 160d 1B       		.uleb128 0x1b
 5704 160e 01       		.uleb128 0x1
 5705 160f 50       		.byte	0x50
 5706 1610 05       		.uleb128 0x5
 5707 1611 03       		.byte	0x3
 5708 1612 00000000 		.4byte	.LC0
 5709 1616 1B       		.uleb128 0x1b
 5710 1617 01       		.uleb128 0x1
 5711 1618 51       		.byte	0x51
 5712 1619 03       		.uleb128 0x3
 5713 161a 0A       		.byte	0xa
 5714 161b 1906     		.2byte	0x619
 5715 161d 00       		.byte	0
 5716 161e 1A       		.uleb128 0x1a
ARM GAS  C:\Users\gjl\AppData\Local\Temp\cc7xIfgu.s 			page 134


 5717 161f 38000000 		.4byte	.LVL217
 5718 1623 DD170000 		.4byte	0x17dd
 5719 1627 1B       		.uleb128 0x1b
 5720 1628 01       		.uleb128 0x1
 5721 1629 50       		.byte	0x50
 5722 162a 05       		.uleb128 0x5
 5723 162b 03       		.byte	0x3
 5724 162c 00000000 		.4byte	.LC0
 5725 1630 1B       		.uleb128 0x1b
 5726 1631 01       		.uleb128 0x1
 5727 1632 51       		.byte	0x51
 5728 1633 03       		.uleb128 0x3
 5729 1634 0A       		.byte	0xa
 5730 1635 1A06     		.2byte	0x61a
 5731 1637 00       		.byte	0
 5732 1638 00       		.byte	0
 5733 1639 15       		.uleb128 0x15
 5734 163a 04       		.byte	0x4
 5735 163b D9020000 		.4byte	0x2d9
 5736 163f 15       		.uleb128 0x15
 5737 1640 04       		.byte	0x4
 5738 1641 45160000 		.4byte	0x1645
 5739 1645 06       		.uleb128 0x6
 5740 1646 1B090000 		.4byte	0x91b
 5741 164a 1D       		.uleb128 0x1d
 5742 164b A3070000 		.4byte	.LASF160
 5743 164f 01       		.byte	0x1
 5744 1650 5E06     		.2byte	0x65e
 5745 1652 AF050000 		.4byte	0x5af
 5746 1656 00000000 		.4byte	.LFB67
 5747 165a B8000000 		.4byte	.LFE67-.LFB67
 5748 165e 01       		.uleb128 0x1
 5749 165f 9C       		.byte	0x9c
 5750 1660 F9160000 		.4byte	0x16f9
 5751 1664 1E       		.uleb128 0x1e
 5752 1665 AF050000 		.4byte	.LASF129
 5753 1669 01       		.byte	0x1
 5754 166a 5E06     		.2byte	0x65e
 5755 166c 39160000 		.4byte	0x1639
 5756 1670 7C0A0000 		.4byte	.LLST61
 5757 1674 1E       		.uleb128 0x1e
 5758 1675 B1090000 		.4byte	.LASF130
 5759 1679 01       		.byte	0x1
 5760 167a 5E06     		.2byte	0x65e
 5761 167c 3F160000 		.4byte	0x163f
 5762 1680 A80A0000 		.4byte	.LLST62
 5763 1684 1F       		.uleb128 0x1f
 5764 1685 FE0A0000 		.4byte	.LASF121
 5765 1689 01       		.byte	0x1
 5766 168a 6006     		.2byte	0x660
 5767 168c AF050000 		.4byte	0x5af
 5768 1690 01       		.uleb128 0x1
 5769 1691 50       		.byte	0x50
 5770 1692 20       		.uleb128 0x20
 5771 1693 2A0A0000 		.4byte	.LASF132
 5772 1697 01       		.byte	0x1
 5773 1698 6106     		.2byte	0x661
ARM GAS  C:\Users\gjl\AppData\Local\Temp\cc7xIfgu.s 			page 135


 5774 169a A9000000 		.4byte	0xa9
 5775 169e D40A0000 		.4byte	.LLST63
 5776 16a2 21       		.uleb128 0x21
 5777 16a3 12000000 		.4byte	.LVL227
 5778 16a7 DD170000 		.4byte	0x17dd
 5779 16ab C0160000 		.4byte	0x16c0
 5780 16af 1B       		.uleb128 0x1b
 5781 16b0 01       		.uleb128 0x1
 5782 16b1 50       		.byte	0x50
 5783 16b2 05       		.uleb128 0x5
 5784 16b3 03       		.byte	0x3
 5785 16b4 00000000 		.4byte	.LC0
 5786 16b8 1B       		.uleb128 0x1b
 5787 16b9 01       		.uleb128 0x1
 5788 16ba 51       		.byte	0x51
 5789 16bb 03       		.uleb128 0x3
 5790 16bc 0A       		.byte	0xa
 5791 16bd 6306     		.2byte	0x663
 5792 16bf 00       		.byte	0
 5793 16c0 21       		.uleb128 0x21
 5794 16c1 20000000 		.4byte	.LVL228
 5795 16c5 DD170000 		.4byte	0x17dd
 5796 16c9 DE160000 		.4byte	0x16de
 5797 16cd 1B       		.uleb128 0x1b
 5798 16ce 01       		.uleb128 0x1
 5799 16cf 50       		.byte	0x50
 5800 16d0 05       		.uleb128 0x5
 5801 16d1 03       		.byte	0x3
 5802 16d2 00000000 		.4byte	.LC0
 5803 16d6 1B       		.uleb128 0x1b
 5804 16d7 01       		.uleb128 0x1
 5805 16d8 51       		.byte	0x51
 5806 16d9 03       		.uleb128 0x3
 5807 16da 0A       		.byte	0xa
 5808 16db 6406     		.2byte	0x664
 5809 16dd 00       		.byte	0
 5810 16de 1A       		.uleb128 0x1a
 5811 16df 2E000000 		.4byte	.LVL229
 5812 16e3 DD170000 		.4byte	0x17dd
 5813 16e7 1B       		.uleb128 0x1b
 5814 16e8 01       		.uleb128 0x1
 5815 16e9 50       		.byte	0x50
 5816 16ea 05       		.uleb128 0x5
 5817 16eb 03       		.byte	0x3
 5818 16ec 00000000 		.4byte	.LC0
 5819 16f0 1B       		.uleb128 0x1b
 5820 16f1 01       		.uleb128 0x1
 5821 16f2 51       		.byte	0x51
 5822 16f3 03       		.uleb128 0x3
 5823 16f4 0A       		.byte	0xa
 5824 16f5 6506     		.2byte	0x665
 5825 16f7 00       		.byte	0
 5826 16f8 00       		.byte	0
 5827 16f9 1D       		.uleb128 0x1d
 5828 16fa 76000000 		.4byte	.LASF161
 5829 16fe 01       		.byte	0x1
 5830 16ff 9D06     		.2byte	0x69d
ARM GAS  C:\Users\gjl\AppData\Local\Temp\cc7xIfgu.s 			page 136


 5831 1701 AF050000 		.4byte	0x5af
 5832 1705 00000000 		.4byte	.LFB68
 5833 1709 1C000000 		.4byte	.LFE68-.LFB68
 5834 170d 01       		.uleb128 0x1
 5835 170e 9C       		.byte	0x9c
 5836 170f 32170000 		.4byte	0x1732
 5837 1713 1E       		.uleb128 0x1e
 5838 1714 AF050000 		.4byte	.LASF129
 5839 1718 01       		.byte	0x1
 5840 1719 9D06     		.2byte	0x69d
 5841 171b 39160000 		.4byte	0x1639
 5842 171f F20A0000 		.4byte	.LLST64
 5843 1723 1F       		.uleb128 0x1f
 5844 1724 FE0A0000 		.4byte	.LASF121
 5845 1728 01       		.byte	0x1
 5846 1729 9F06     		.2byte	0x69f
 5847 172b AF050000 		.4byte	0x5af
 5848 172f 01       		.uleb128 0x1
 5849 1730 50       		.byte	0x50
 5850 1731 00       		.byte	0
 5851 1732 1D       		.uleb128 0x1d
 5852 1733 D2000000 		.4byte	.LASF162
 5853 1737 01       		.byte	0x1
 5854 1738 C206     		.2byte	0x6c2
 5855 173a AF050000 		.4byte	0x5af
 5856 173e 00000000 		.4byte	.LFB69
 5857 1742 1C000000 		.4byte	.LFE69-.LFB69
 5858 1746 01       		.uleb128 0x1
 5859 1747 9C       		.byte	0x9c
 5860 1748 6B170000 		.4byte	0x176b
 5861 174c 1E       		.uleb128 0x1e
 5862 174d AF050000 		.4byte	.LASF129
 5863 1751 01       		.byte	0x1
 5864 1752 C206     		.2byte	0x6c2
 5865 1754 39160000 		.4byte	0x1639
 5866 1758 2C0B0000 		.4byte	.LLST65
 5867 175c 1F       		.uleb128 0x1f
 5868 175d FE0A0000 		.4byte	.LASF121
 5869 1761 01       		.byte	0x1
 5870 1762 C406     		.2byte	0x6c4
 5871 1764 AF050000 		.4byte	0x5af
 5872 1768 01       		.uleb128 0x1
 5873 1769 50       		.byte	0x50
 5874 176a 00       		.byte	0
 5875 176b 1D       		.uleb128 0x1d
 5876 176c EB040000 		.4byte	.LASF163
 5877 1770 01       		.byte	0x1
 5878 1771 E606     		.2byte	0x6e6
 5879 1773 AF050000 		.4byte	0x5af
 5880 1777 00000000 		.4byte	.LFB70
 5881 177b 1C000000 		.4byte	.LFE70-.LFB70
 5882 177f 01       		.uleb128 0x1
 5883 1780 9C       		.byte	0x9c
 5884 1781 A4170000 		.4byte	0x17a4
 5885 1785 1E       		.uleb128 0x1e
 5886 1786 AF050000 		.4byte	.LASF129
 5887 178a 01       		.byte	0x1
ARM GAS  C:\Users\gjl\AppData\Local\Temp\cc7xIfgu.s 			page 137


 5888 178b E606     		.2byte	0x6e6
 5889 178d 39160000 		.4byte	0x1639
 5890 1791 660B0000 		.4byte	.LLST66
 5891 1795 1F       		.uleb128 0x1f
 5892 1796 FE0A0000 		.4byte	.LASF121
 5893 179a 01       		.byte	0x1
 5894 179b E806     		.2byte	0x6e8
 5895 179d AF050000 		.4byte	0x5af
 5896 17a1 01       		.uleb128 0x1
 5897 17a2 50       		.byte	0x50
 5898 17a3 00       		.byte	0
 5899 17a4 1D       		.uleb128 0x1d
 5900 17a5 83030000 		.4byte	.LASF164
 5901 17a9 01       		.byte	0x1
 5902 17aa 0B07     		.2byte	0x70b
 5903 17ac AF050000 		.4byte	0x5af
 5904 17b0 00000000 		.4byte	.LFB71
 5905 17b4 1C000000 		.4byte	.LFE71-.LFB71
 5906 17b8 01       		.uleb128 0x1
 5907 17b9 9C       		.byte	0x9c
 5908 17ba DD170000 		.4byte	0x17dd
 5909 17be 1E       		.uleb128 0x1e
 5910 17bf AF050000 		.4byte	.LASF129
 5911 17c3 01       		.byte	0x1
 5912 17c4 0B07     		.2byte	0x70b
 5913 17c6 39160000 		.4byte	0x1639
 5914 17ca A00B0000 		.4byte	.LLST67
 5915 17ce 1F       		.uleb128 0x1f
 5916 17cf FE0A0000 		.4byte	.LASF121
 5917 17d3 01       		.byte	0x1
 5918 17d4 0D07     		.2byte	0x70d
 5919 17d6 AF050000 		.4byte	0x5af
 5920 17da 01       		.uleb128 0x1
 5921 17db 50       		.byte	0x50
 5922 17dc 00       		.byte	0
 5923 17dd 22       		.uleb128 0x22
 5924 17de 4F0A0000 		.4byte	.LASF168
 5925 17e2 4F0A0000 		.4byte	.LASF168
 5926 17e6 07       		.byte	0x7
 5927 17e7 2A03     		.2byte	0x32a
 5928 17e9 00       		.byte	0
 5929              		.section	.debug_abbrev,"",%progbits
 5930              	.Ldebug_abbrev0:
 5931 0000 01       		.uleb128 0x1
 5932 0001 11       		.uleb128 0x11
 5933 0002 01       		.byte	0x1
 5934 0003 25       		.uleb128 0x25
 5935 0004 0E       		.uleb128 0xe
 5936 0005 13       		.uleb128 0x13
 5937 0006 0B       		.uleb128 0xb
 5938 0007 03       		.uleb128 0x3
 5939 0008 0E       		.uleb128 0xe
 5940 0009 1B       		.uleb128 0x1b
 5941 000a 0E       		.uleb128 0xe
 5942 000b 55       		.uleb128 0x55
 5943 000c 17       		.uleb128 0x17
 5944 000d 11       		.uleb128 0x11
ARM GAS  C:\Users\gjl\AppData\Local\Temp\cc7xIfgu.s 			page 138


 5945 000e 01       		.uleb128 0x1
 5946 000f 10       		.uleb128 0x10
 5947 0010 17       		.uleb128 0x17
 5948 0011 00       		.byte	0
 5949 0012 00       		.byte	0
 5950 0013 02       		.uleb128 0x2
 5951 0014 24       		.uleb128 0x24
 5952 0015 00       		.byte	0
 5953 0016 0B       		.uleb128 0xb
 5954 0017 0B       		.uleb128 0xb
 5955 0018 3E       		.uleb128 0x3e
 5956 0019 0B       		.uleb128 0xb
 5957 001a 03       		.uleb128 0x3
 5958 001b 08       		.uleb128 0x8
 5959 001c 00       		.byte	0
 5960 001d 00       		.byte	0
 5961 001e 03       		.uleb128 0x3
 5962 001f 24       		.uleb128 0x24
 5963 0020 00       		.byte	0
 5964 0021 0B       		.uleb128 0xb
 5965 0022 0B       		.uleb128 0xb
 5966 0023 3E       		.uleb128 0x3e
 5967 0024 0B       		.uleb128 0xb
 5968 0025 03       		.uleb128 0x3
 5969 0026 0E       		.uleb128 0xe
 5970 0027 00       		.byte	0
 5971 0028 00       		.byte	0
 5972 0029 04       		.uleb128 0x4
 5973 002a 16       		.uleb128 0x16
 5974 002b 00       		.byte	0
 5975 002c 03       		.uleb128 0x3
 5976 002d 0E       		.uleb128 0xe
 5977 002e 3A       		.uleb128 0x3a
 5978 002f 0B       		.uleb128 0xb
 5979 0030 3B       		.uleb128 0x3b
 5980 0031 0B       		.uleb128 0xb
 5981 0032 49       		.uleb128 0x49
 5982 0033 13       		.uleb128 0x13
 5983 0034 00       		.byte	0
 5984 0035 00       		.byte	0
 5985 0036 05       		.uleb128 0x5
 5986 0037 35       		.uleb128 0x35
 5987 0038 00       		.byte	0
 5988 0039 49       		.uleb128 0x49
 5989 003a 13       		.uleb128 0x13
 5990 003b 00       		.byte	0
 5991 003c 00       		.byte	0
 5992 003d 06       		.uleb128 0x6
 5993 003e 26       		.uleb128 0x26
 5994 003f 00       		.byte	0
 5995 0040 49       		.uleb128 0x49
 5996 0041 13       		.uleb128 0x13
 5997 0042 00       		.byte	0
 5998 0043 00       		.byte	0
 5999 0044 07       		.uleb128 0x7
 6000 0045 04       		.uleb128 0x4
 6001 0046 01       		.byte	0x1
ARM GAS  C:\Users\gjl\AppData\Local\Temp\cc7xIfgu.s 			page 139


 6002 0047 0B       		.uleb128 0xb
 6003 0048 0B       		.uleb128 0xb
 6004 0049 49       		.uleb128 0x49
 6005 004a 13       		.uleb128 0x13
 6006 004b 3A       		.uleb128 0x3a
 6007 004c 0B       		.uleb128 0xb
 6008 004d 3B       		.uleb128 0x3b
 6009 004e 05       		.uleb128 0x5
 6010 004f 01       		.uleb128 0x1
 6011 0050 13       		.uleb128 0x13
 6012 0051 00       		.byte	0
 6013 0052 00       		.byte	0
 6014 0053 08       		.uleb128 0x8
 6015 0054 28       		.uleb128 0x28
 6016 0055 00       		.byte	0
 6017 0056 03       		.uleb128 0x3
 6018 0057 0E       		.uleb128 0xe
 6019 0058 1C       		.uleb128 0x1c
 6020 0059 0B       		.uleb128 0xb
 6021 005a 00       		.byte	0
 6022 005b 00       		.byte	0
 6023 005c 09       		.uleb128 0x9
 6024 005d 16       		.uleb128 0x16
 6025 005e 00       		.byte	0
 6026 005f 03       		.uleb128 0x3
 6027 0060 0E       		.uleb128 0xe
 6028 0061 3A       		.uleb128 0x3a
 6029 0062 0B       		.uleb128 0xb
 6030 0063 3B       		.uleb128 0x3b
 6031 0064 05       		.uleb128 0x5
 6032 0065 49       		.uleb128 0x49
 6033 0066 13       		.uleb128 0x13
 6034 0067 00       		.byte	0
 6035 0068 00       		.byte	0
 6036 0069 0A       		.uleb128 0xa
 6037 006a 01       		.uleb128 0x1
 6038 006b 01       		.byte	0x1
 6039 006c 49       		.uleb128 0x49
 6040 006d 13       		.uleb128 0x13
 6041 006e 01       		.uleb128 0x1
 6042 006f 13       		.uleb128 0x13
 6043 0070 00       		.byte	0
 6044 0071 00       		.byte	0
 6045 0072 0B       		.uleb128 0xb
 6046 0073 21       		.uleb128 0x21
 6047 0074 00       		.byte	0
 6048 0075 49       		.uleb128 0x49
 6049 0076 13       		.uleb128 0x13
 6050 0077 2F       		.uleb128 0x2f
 6051 0078 05       		.uleb128 0x5
 6052 0079 00       		.byte	0
 6053 007a 00       		.byte	0
 6054 007b 0C       		.uleb128 0xc
 6055 007c 21       		.uleb128 0x21
 6056 007d 00       		.byte	0
 6057 007e 49       		.uleb128 0x49
 6058 007f 13       		.uleb128 0x13
ARM GAS  C:\Users\gjl\AppData\Local\Temp\cc7xIfgu.s 			page 140


 6059 0080 2F       		.uleb128 0x2f
 6060 0081 0B       		.uleb128 0xb
 6061 0082 00       		.byte	0
 6062 0083 00       		.byte	0
 6063 0084 0D       		.uleb128 0xd
 6064 0085 13       		.uleb128 0x13
 6065 0086 01       		.byte	0x1
 6066 0087 0B       		.uleb128 0xb
 6067 0088 0B       		.uleb128 0xb
 6068 0089 3A       		.uleb128 0x3a
 6069 008a 0B       		.uleb128 0xb
 6070 008b 3B       		.uleb128 0x3b
 6071 008c 0B       		.uleb128 0xb
 6072 008d 01       		.uleb128 0x1
 6073 008e 13       		.uleb128 0x13
 6074 008f 00       		.byte	0
 6075 0090 00       		.byte	0
 6076 0091 0E       		.uleb128 0xe
 6077 0092 0D       		.uleb128 0xd
 6078 0093 00       		.byte	0
 6079 0094 03       		.uleb128 0x3
 6080 0095 0E       		.uleb128 0xe
 6081 0096 3A       		.uleb128 0x3a
 6082 0097 0B       		.uleb128 0xb
 6083 0098 3B       		.uleb128 0x3b
 6084 0099 0B       		.uleb128 0xb
 6085 009a 49       		.uleb128 0x49
 6086 009b 13       		.uleb128 0x13
 6087 009c 38       		.uleb128 0x38
 6088 009d 0B       		.uleb128 0xb
 6089 009e 00       		.byte	0
 6090 009f 00       		.byte	0
 6091 00a0 0F       		.uleb128 0xf
 6092 00a1 13       		.uleb128 0x13
 6093 00a2 01       		.byte	0x1
 6094 00a3 0B       		.uleb128 0xb
 6095 00a4 05       		.uleb128 0x5
 6096 00a5 3A       		.uleb128 0x3a
 6097 00a6 0B       		.uleb128 0xb
 6098 00a7 3B       		.uleb128 0x3b
 6099 00a8 0B       		.uleb128 0xb
 6100 00a9 01       		.uleb128 0x1
 6101 00aa 13       		.uleb128 0x13
 6102 00ab 00       		.byte	0
 6103 00ac 00       		.byte	0
 6104 00ad 10       		.uleb128 0x10
 6105 00ae 0D       		.uleb128 0xd
 6106 00af 00       		.byte	0
 6107 00b0 03       		.uleb128 0x3
 6108 00b1 0E       		.uleb128 0xe
 6109 00b2 3A       		.uleb128 0x3a
 6110 00b3 0B       		.uleb128 0xb
 6111 00b4 3B       		.uleb128 0x3b
 6112 00b5 0B       		.uleb128 0xb
 6113 00b6 49       		.uleb128 0x49
 6114 00b7 13       		.uleb128 0x13
 6115 00b8 38       		.uleb128 0x38
ARM GAS  C:\Users\gjl\AppData\Local\Temp\cc7xIfgu.s 			page 141


 6116 00b9 05       		.uleb128 0x5
 6117 00ba 00       		.byte	0
 6118 00bb 00       		.byte	0
 6119 00bc 11       		.uleb128 0x11
 6120 00bd 0D       		.uleb128 0xd
 6121 00be 00       		.byte	0
 6122 00bf 03       		.uleb128 0x3
 6123 00c0 08       		.uleb128 0x8
 6124 00c1 3A       		.uleb128 0x3a
 6125 00c2 0B       		.uleb128 0xb
 6126 00c3 3B       		.uleb128 0x3b
 6127 00c4 0B       		.uleb128 0xb
 6128 00c5 49       		.uleb128 0x49
 6129 00c6 13       		.uleb128 0x13
 6130 00c7 38       		.uleb128 0x38
 6131 00c8 0B       		.uleb128 0xb
 6132 00c9 00       		.byte	0
 6133 00ca 00       		.byte	0
 6134 00cb 12       		.uleb128 0x12
 6135 00cc 28       		.uleb128 0x28
 6136 00cd 00       		.byte	0
 6137 00ce 03       		.uleb128 0x3
 6138 00cf 0E       		.uleb128 0xe
 6139 00d0 1C       		.uleb128 0x1c
 6140 00d1 06       		.uleb128 0x6
 6141 00d2 00       		.byte	0
 6142 00d3 00       		.byte	0
 6143 00d4 13       		.uleb128 0x13
 6144 00d5 13       		.uleb128 0x13
 6145 00d6 01       		.byte	0x1
 6146 00d7 0B       		.uleb128 0xb
 6147 00d8 0B       		.uleb128 0xb
 6148 00d9 3A       		.uleb128 0x3a
 6149 00da 0B       		.uleb128 0xb
 6150 00db 3B       		.uleb128 0x3b
 6151 00dc 05       		.uleb128 0x5
 6152 00dd 01       		.uleb128 0x1
 6153 00de 13       		.uleb128 0x13
 6154 00df 00       		.byte	0
 6155 00e0 00       		.byte	0
 6156 00e1 14       		.uleb128 0x14
 6157 00e2 0D       		.uleb128 0xd
 6158 00e3 00       		.byte	0
 6159 00e4 03       		.uleb128 0x3
 6160 00e5 0E       		.uleb128 0xe
 6161 00e6 3A       		.uleb128 0x3a
 6162 00e7 0B       		.uleb128 0xb
 6163 00e8 3B       		.uleb128 0x3b
 6164 00e9 05       		.uleb128 0x5
 6165 00ea 49       		.uleb128 0x49
 6166 00eb 13       		.uleb128 0x13
 6167 00ec 38       		.uleb128 0x38
 6168 00ed 0B       		.uleb128 0xb
 6169 00ee 00       		.byte	0
 6170 00ef 00       		.byte	0
 6171 00f0 15       		.uleb128 0x15
 6172 00f1 0F       		.uleb128 0xf
ARM GAS  C:\Users\gjl\AppData\Local\Temp\cc7xIfgu.s 			page 142


 6173 00f2 00       		.byte	0
 6174 00f3 0B       		.uleb128 0xb
 6175 00f4 0B       		.uleb128 0xb
 6176 00f5 49       		.uleb128 0x49
 6177 00f6 13       		.uleb128 0x13
 6178 00f7 00       		.byte	0
 6179 00f8 00       		.byte	0
 6180 00f9 16       		.uleb128 0x16
 6181 00fa 2E       		.uleb128 0x2e
 6182 00fb 01       		.byte	0x1
 6183 00fc 3F       		.uleb128 0x3f
 6184 00fd 19       		.uleb128 0x19
 6185 00fe 03       		.uleb128 0x3
 6186 00ff 0E       		.uleb128 0xe
 6187 0100 3A       		.uleb128 0x3a
 6188 0101 0B       		.uleb128 0xb
 6189 0102 3B       		.uleb128 0x3b
 6190 0103 0B       		.uleb128 0xb
 6191 0104 27       		.uleb128 0x27
 6192 0105 19       		.uleb128 0x19
 6193 0106 49       		.uleb128 0x49
 6194 0107 13       		.uleb128 0x13
 6195 0108 11       		.uleb128 0x11
 6196 0109 01       		.uleb128 0x1
 6197 010a 12       		.uleb128 0x12
 6198 010b 06       		.uleb128 0x6
 6199 010c 40       		.uleb128 0x40
 6200 010d 18       		.uleb128 0x18
 6201 010e 9742     		.uleb128 0x2117
 6202 0110 19       		.uleb128 0x19
 6203 0111 01       		.uleb128 0x1
 6204 0112 13       		.uleb128 0x13
 6205 0113 00       		.byte	0
 6206 0114 00       		.byte	0
 6207 0115 17       		.uleb128 0x17
 6208 0116 05       		.uleb128 0x5
 6209 0117 00       		.byte	0
 6210 0118 03       		.uleb128 0x3
 6211 0119 0E       		.uleb128 0xe
 6212 011a 3A       		.uleb128 0x3a
 6213 011b 0B       		.uleb128 0xb
 6214 011c 3B       		.uleb128 0x3b
 6215 011d 0B       		.uleb128 0xb
 6216 011e 49       		.uleb128 0x49
 6217 011f 13       		.uleb128 0x13
 6218 0120 02       		.uleb128 0x2
 6219 0121 17       		.uleb128 0x17
 6220 0122 00       		.byte	0
 6221 0123 00       		.byte	0
 6222 0124 18       		.uleb128 0x18
 6223 0125 34       		.uleb128 0x34
 6224 0126 00       		.byte	0
 6225 0127 03       		.uleb128 0x3
 6226 0128 0E       		.uleb128 0xe
 6227 0129 3A       		.uleb128 0x3a
 6228 012a 0B       		.uleb128 0xb
 6229 012b 3B       		.uleb128 0x3b
ARM GAS  C:\Users\gjl\AppData\Local\Temp\cc7xIfgu.s 			page 143


 6230 012c 0B       		.uleb128 0xb
 6231 012d 49       		.uleb128 0x49
 6232 012e 13       		.uleb128 0x13
 6233 012f 02       		.uleb128 0x2
 6234 0130 18       		.uleb128 0x18
 6235 0131 00       		.byte	0
 6236 0132 00       		.byte	0
 6237 0133 19       		.uleb128 0x19
 6238 0134 34       		.uleb128 0x34
 6239 0135 00       		.byte	0
 6240 0136 03       		.uleb128 0x3
 6241 0137 0E       		.uleb128 0xe
 6242 0138 3A       		.uleb128 0x3a
 6243 0139 0B       		.uleb128 0xb
 6244 013a 3B       		.uleb128 0x3b
 6245 013b 0B       		.uleb128 0xb
 6246 013c 49       		.uleb128 0x49
 6247 013d 13       		.uleb128 0x13
 6248 013e 02       		.uleb128 0x2
 6249 013f 17       		.uleb128 0x17
 6250 0140 00       		.byte	0
 6251 0141 00       		.byte	0
 6252 0142 1A       		.uleb128 0x1a
 6253 0143 898201   		.uleb128 0x4109
 6254 0146 01       		.byte	0x1
 6255 0147 11       		.uleb128 0x11
 6256 0148 01       		.uleb128 0x1
 6257 0149 31       		.uleb128 0x31
 6258 014a 13       		.uleb128 0x13
 6259 014b 00       		.byte	0
 6260 014c 00       		.byte	0
 6261 014d 1B       		.uleb128 0x1b
 6262 014e 8A8201   		.uleb128 0x410a
 6263 0151 00       		.byte	0
 6264 0152 02       		.uleb128 0x2
 6265 0153 18       		.uleb128 0x18
 6266 0154 9142     		.uleb128 0x2111
 6267 0156 18       		.uleb128 0x18
 6268 0157 00       		.byte	0
 6269 0158 00       		.byte	0
 6270 0159 1C       		.uleb128 0x1c
 6271 015a 05       		.uleb128 0x5
 6272 015b 00       		.byte	0
 6273 015c 03       		.uleb128 0x3
 6274 015d 08       		.uleb128 0x8
 6275 015e 3A       		.uleb128 0x3a
 6276 015f 0B       		.uleb128 0xb
 6277 0160 3B       		.uleb128 0x3b
 6278 0161 0B       		.uleb128 0xb
 6279 0162 49       		.uleb128 0x49
 6280 0163 13       		.uleb128 0x13
 6281 0164 02       		.uleb128 0x2
 6282 0165 17       		.uleb128 0x17
 6283 0166 00       		.byte	0
 6284 0167 00       		.byte	0
 6285 0168 1D       		.uleb128 0x1d
 6286 0169 2E       		.uleb128 0x2e
ARM GAS  C:\Users\gjl\AppData\Local\Temp\cc7xIfgu.s 			page 144


 6287 016a 01       		.byte	0x1
 6288 016b 3F       		.uleb128 0x3f
 6289 016c 19       		.uleb128 0x19
 6290 016d 03       		.uleb128 0x3
 6291 016e 0E       		.uleb128 0xe
 6292 016f 3A       		.uleb128 0x3a
 6293 0170 0B       		.uleb128 0xb
 6294 0171 3B       		.uleb128 0x3b
 6295 0172 05       		.uleb128 0x5
 6296 0173 27       		.uleb128 0x27
 6297 0174 19       		.uleb128 0x19
 6298 0175 49       		.uleb128 0x49
 6299 0176 13       		.uleb128 0x13
 6300 0177 11       		.uleb128 0x11
 6301 0178 01       		.uleb128 0x1
 6302 0179 12       		.uleb128 0x12
 6303 017a 06       		.uleb128 0x6
 6304 017b 40       		.uleb128 0x40
 6305 017c 18       		.uleb128 0x18
 6306 017d 9742     		.uleb128 0x2117
 6307 017f 19       		.uleb128 0x19
 6308 0180 01       		.uleb128 0x1
 6309 0181 13       		.uleb128 0x13
 6310 0182 00       		.byte	0
 6311 0183 00       		.byte	0
 6312 0184 1E       		.uleb128 0x1e
 6313 0185 05       		.uleb128 0x5
 6314 0186 00       		.byte	0
 6315 0187 03       		.uleb128 0x3
 6316 0188 0E       		.uleb128 0xe
 6317 0189 3A       		.uleb128 0x3a
 6318 018a 0B       		.uleb128 0xb
 6319 018b 3B       		.uleb128 0x3b
 6320 018c 05       		.uleb128 0x5
 6321 018d 49       		.uleb128 0x49
 6322 018e 13       		.uleb128 0x13
 6323 018f 02       		.uleb128 0x2
 6324 0190 17       		.uleb128 0x17
 6325 0191 00       		.byte	0
 6326 0192 00       		.byte	0
 6327 0193 1F       		.uleb128 0x1f
 6328 0194 34       		.uleb128 0x34
 6329 0195 00       		.byte	0
 6330 0196 03       		.uleb128 0x3
 6331 0197 0E       		.uleb128 0xe
 6332 0198 3A       		.uleb128 0x3a
 6333 0199 0B       		.uleb128 0xb
 6334 019a 3B       		.uleb128 0x3b
 6335 019b 05       		.uleb128 0x5
 6336 019c 49       		.uleb128 0x49
 6337 019d 13       		.uleb128 0x13
 6338 019e 02       		.uleb128 0x2
 6339 019f 18       		.uleb128 0x18
 6340 01a0 00       		.byte	0
 6341 01a1 00       		.byte	0
 6342 01a2 20       		.uleb128 0x20
 6343 01a3 34       		.uleb128 0x34
ARM GAS  C:\Users\gjl\AppData\Local\Temp\cc7xIfgu.s 			page 145


 6344 01a4 00       		.byte	0
 6345 01a5 03       		.uleb128 0x3
 6346 01a6 0E       		.uleb128 0xe
 6347 01a7 3A       		.uleb128 0x3a
 6348 01a8 0B       		.uleb128 0xb
 6349 01a9 3B       		.uleb128 0x3b
 6350 01aa 05       		.uleb128 0x5
 6351 01ab 49       		.uleb128 0x49
 6352 01ac 13       		.uleb128 0x13
 6353 01ad 02       		.uleb128 0x2
 6354 01ae 17       		.uleb128 0x17
 6355 01af 00       		.byte	0
 6356 01b0 00       		.byte	0
 6357 01b1 21       		.uleb128 0x21
 6358 01b2 898201   		.uleb128 0x4109
 6359 01b5 01       		.byte	0x1
 6360 01b6 11       		.uleb128 0x11
 6361 01b7 01       		.uleb128 0x1
 6362 01b8 31       		.uleb128 0x31
 6363 01b9 13       		.uleb128 0x13
 6364 01ba 01       		.uleb128 0x1
 6365 01bb 13       		.uleb128 0x13
 6366 01bc 00       		.byte	0
 6367 01bd 00       		.byte	0
 6368 01be 22       		.uleb128 0x22
 6369 01bf 2E       		.uleb128 0x2e
 6370 01c0 00       		.byte	0
 6371 01c1 3F       		.uleb128 0x3f
 6372 01c2 19       		.uleb128 0x19
 6373 01c3 3C       		.uleb128 0x3c
 6374 01c4 19       		.uleb128 0x19
 6375 01c5 6E       		.uleb128 0x6e
 6376 01c6 0E       		.uleb128 0xe
 6377 01c7 03       		.uleb128 0x3
 6378 01c8 0E       		.uleb128 0xe
 6379 01c9 3A       		.uleb128 0x3a
 6380 01ca 0B       		.uleb128 0xb
 6381 01cb 3B       		.uleb128 0x3b
 6382 01cc 05       		.uleb128 0x5
 6383 01cd 00       		.byte	0
 6384 01ce 00       		.byte	0
 6385 01cf 00       		.byte	0
 6386              		.section	.debug_loc,"",%progbits
 6387              	.Ldebug_loc0:
 6388              	.LLST0:
 6389 0000 00000000 		.4byte	.LVL0
 6390 0004 16000000 		.4byte	.LVL2
 6391 0008 0100     		.2byte	0x1
 6392 000a 50       		.byte	0x50
 6393 000b 16000000 		.4byte	.LVL2
 6394 000f BC000000 		.4byte	.LFE36
 6395 0013 0400     		.2byte	0x4
 6396 0015 F3       		.byte	0xf3
 6397 0016 01       		.uleb128 0x1
 6398 0017 50       		.byte	0x50
 6399 0018 9F       		.byte	0x9f
 6400 0019 00000000 		.4byte	0
ARM GAS  C:\Users\gjl\AppData\Local\Temp\cc7xIfgu.s 			page 146


 6401 001d 00000000 		.4byte	0
 6402              	.LLST1:
 6403 0021 00000000 		.4byte	.LVL0
 6404 0025 14000000 		.4byte	.LVL1
 6405 0029 0100     		.2byte	0x1
 6406 002b 51       		.byte	0x51
 6407 002c 14000000 		.4byte	.LVL1
 6408 0030 BC000000 		.4byte	.LFE36
 6409 0034 0400     		.2byte	0x4
 6410 0036 F3       		.byte	0xf3
 6411 0037 01       		.uleb128 0x1
 6412 0038 51       		.byte	0x51
 6413 0039 9F       		.byte	0x9f
 6414 003a 00000000 		.4byte	0
 6415 003e 00000000 		.4byte	0
 6416              	.LLST2:
 6417 0042 00000000 		.4byte	.LVL0
 6418 0046 19000000 		.4byte	.LVL3-1
 6419 004a 0100     		.2byte	0x1
 6420 004c 52       		.byte	0x52
 6421 004d 19000000 		.4byte	.LVL3-1
 6422 0051 BC000000 		.4byte	.LFE36
 6423 0055 0400     		.2byte	0x4
 6424 0057 F3       		.byte	0xf3
 6425 0058 01       		.uleb128 0x1
 6426 0059 52       		.byte	0x52
 6427 005a 9F       		.byte	0x9f
 6428 005b 00000000 		.4byte	0
 6429 005f 00000000 		.4byte	0
 6430              	.LLST3:
 6431 0063 00000000 		.4byte	.LVL0
 6432 0067 19000000 		.4byte	.LVL3-1
 6433 006b 0100     		.2byte	0x1
 6434 006d 53       		.byte	0x53
 6435 006e 19000000 		.4byte	.LVL3-1
 6436 0072 A0000000 		.4byte	.LVL6
 6437 0076 0100     		.2byte	0x1
 6438 0078 55       		.byte	0x55
 6439 0079 A0000000 		.4byte	.LVL6
 6440 007d BC000000 		.4byte	.LFE36
 6441 0081 0400     		.2byte	0x4
 6442 0083 F3       		.byte	0xf3
 6443 0084 01       		.uleb128 0x1
 6444 0085 53       		.byte	0x53
 6445 0086 9F       		.byte	0x9f
 6446 0087 00000000 		.4byte	0
 6447 008b 00000000 		.4byte	0
 6448              	.LLST4:
 6449 008f A2000000 		.4byte	.LVL7
 6450 0093 A6000000 		.4byte	.LVL8
 6451 0097 0100     		.2byte	0x1
 6452 0099 51       		.byte	0x51
 6453 009a 00000000 		.4byte	0
 6454 009e 00000000 		.4byte	0
 6455              	.LLST5:
 6456 00a2 22000000 		.4byte	.LVL4
 6457 00a6 A6000000 		.4byte	.LVL9
ARM GAS  C:\Users\gjl\AppData\Local\Temp\cc7xIfgu.s 			page 147


 6458 00aa 0100     		.2byte	0x1
 6459 00ac 57       		.byte	0x57
 6460 00ad 00000000 		.4byte	0
 6461 00b1 00000000 		.4byte	0
 6462              	.LLST6:
 6463 00b5 00000000 		.4byte	.LVL10
 6464 00b9 0E000000 		.4byte	.LVL12
 6465 00bd 0100     		.2byte	0x1
 6466 00bf 50       		.byte	0x50
 6467 00c0 0E000000 		.4byte	.LVL12
 6468 00c4 AC000000 		.4byte	.LFE37
 6469 00c8 0400     		.2byte	0x4
 6470 00ca F3       		.byte	0xf3
 6471 00cb 01       		.uleb128 0x1
 6472 00cc 50       		.byte	0x50
 6473 00cd 9F       		.byte	0x9f
 6474 00ce 00000000 		.4byte	0
 6475 00d2 00000000 		.4byte	0
 6476              	.LLST7:
 6477 00d6 00000000 		.4byte	.LVL10
 6478 00da 0C000000 		.4byte	.LVL11
 6479 00de 0100     		.2byte	0x1
 6480 00e0 51       		.byte	0x51
 6481 00e1 0C000000 		.4byte	.LVL11
 6482 00e5 96000000 		.4byte	.LVL18
 6483 00e9 0100     		.2byte	0x1
 6484 00eb 55       		.byte	0x55
 6485 00ec 96000000 		.4byte	.LVL18
 6486 00f0 AC000000 		.4byte	.LFE37
 6487 00f4 0400     		.2byte	0x4
 6488 00f6 F3       		.byte	0xf3
 6489 00f7 01       		.uleb128 0x1
 6490 00f8 51       		.byte	0x51
 6491 00f9 9F       		.byte	0x9f
 6492 00fa 00000000 		.4byte	0
 6493 00fe 00000000 		.4byte	0
 6494              	.LLST8:
 6495 0102 70000000 		.4byte	.LVL15
 6496 0106 78000000 		.4byte	.LVL16
 6497 010a 0100     		.2byte	0x1
 6498 010c 50       		.byte	0x50
 6499 010d 96000000 		.4byte	.LVL17
 6500 0111 AC000000 		.4byte	.LFE37
 6501 0115 0100     		.2byte	0x1
 6502 0117 50       		.byte	0x50
 6503 0118 00000000 		.4byte	0
 6504 011c 00000000 		.4byte	0
 6505              	.LLST9:
 6506 0120 00000000 		.4byte	.LVL19
 6507 0124 0C000000 		.4byte	.LVL20
 6508 0128 0100     		.2byte	0x1
 6509 012a 50       		.byte	0x50
 6510 012b 0C000000 		.4byte	.LVL20
 6511 012f 28000000 		.4byte	.LFE38
 6512 0133 0400     		.2byte	0x4
 6513 0135 F3       		.byte	0xf3
 6514 0136 01       		.uleb128 0x1
ARM GAS  C:\Users\gjl\AppData\Local\Temp\cc7xIfgu.s 			page 148


 6515 0137 50       		.byte	0x50
 6516 0138 9F       		.byte	0x9f
 6517 0139 00000000 		.4byte	0
 6518 013d 00000000 		.4byte	0
 6519              	.LLST10:
 6520 0141 18000000 		.4byte	.LVL22
 6521 0145 1E000000 		.4byte	.LVL23
 6522 0149 0100     		.2byte	0x1
 6523 014b 54       		.byte	0x54
 6524 014c 00000000 		.4byte	0
 6525 0150 00000000 		.4byte	0
 6526              	.LLST11:
 6527 0154 00000000 		.4byte	.LVL24
 6528 0158 10000000 		.4byte	.LVL26
 6529 015c 0100     		.2byte	0x1
 6530 015e 50       		.byte	0x50
 6531 015f 10000000 		.4byte	.LVL26
 6532 0163 9A000000 		.4byte	.LVL39
 6533 0167 0100     		.2byte	0x1
 6534 0169 55       		.byte	0x55
 6535 016a 9A000000 		.4byte	.LVL39
 6536 016e A4000000 		.4byte	.LFE39
 6537 0172 0400     		.2byte	0x4
 6538 0174 F3       		.byte	0xf3
 6539 0175 01       		.uleb128 0x1
 6540 0176 50       		.byte	0x50
 6541 0177 9F       		.byte	0x9f
 6542 0178 00000000 		.4byte	0
 6543 017c 00000000 		.4byte	0
 6544              	.LLST12:
 6545 0180 00000000 		.4byte	.LVL24
 6546 0184 0C000000 		.4byte	.LVL25
 6547 0188 0100     		.2byte	0x1
 6548 018a 51       		.byte	0x51
 6549 018b 0C000000 		.4byte	.LVL25
 6550 018f 9A000000 		.4byte	.LVL38
 6551 0193 0100     		.2byte	0x1
 6552 0195 54       		.byte	0x54
 6553 0196 9A000000 		.4byte	.LVL38
 6554 019a A4000000 		.4byte	.LFE39
 6555 019e 0400     		.2byte	0x4
 6556 01a0 F3       		.byte	0xf3
 6557 01a1 01       		.uleb128 0x1
 6558 01a2 51       		.byte	0x51
 6559 01a3 9F       		.byte	0x9f
 6560 01a4 00000000 		.4byte	0
 6561 01a8 00000000 		.4byte	0
 6562              	.LLST13:
 6563 01ac 52000000 		.4byte	.LVL31
 6564 01b0 92000000 		.4byte	.LVL33
 6565 01b4 0100     		.2byte	0x1
 6566 01b6 50       		.byte	0x50
 6567 01b7 92000000 		.4byte	.LVL33
 6568 01bb 94000000 		.4byte	.LVL34
 6569 01bf 0200     		.2byte	0x2
 6570 01c1 75       		.byte	0x75
 6571 01c2 00       		.sleb128 0
ARM GAS  C:\Users\gjl\AppData\Local\Temp\cc7xIfgu.s 			page 149


 6572 01c3 94000000 		.4byte	.LVL34
 6573 01c7 96000000 		.4byte	.LVL35
 6574 01cb 0100     		.2byte	0x1
 6575 01cd 50       		.byte	0x50
 6576 01ce 96000000 		.4byte	.LVL35
 6577 01d2 98000000 		.4byte	.LVL36
 6578 01d6 0200     		.2byte	0x2
 6579 01d8 75       		.byte	0x75
 6580 01d9 00       		.sleb128 0
 6581 01da 98000000 		.4byte	.LVL36
 6582 01de 9A000000 		.4byte	.LVL37
 6583 01e2 0100     		.2byte	0x1
 6584 01e4 50       		.byte	0x50
 6585 01e5 9A000000 		.4byte	.LVL37
 6586 01e9 9A000000 		.4byte	.LVL39
 6587 01ed 0200     		.2byte	0x2
 6588 01ef 75       		.byte	0x75
 6589 01f0 00       		.sleb128 0
 6590 01f1 9A000000 		.4byte	.LVL39
 6591 01f5 A4000000 		.4byte	.LFE39
 6592 01f9 0300     		.2byte	0x3
 6593 01fb F3       		.byte	0xf3
 6594 01fc 01       		.uleb128 0x1
 6595 01fd 50       		.byte	0x50
 6596 01fe 00000000 		.4byte	0
 6597 0202 00000000 		.4byte	0
 6598              	.LLST14:
 6599 0206 00000000 		.4byte	.LVL40
 6600 020a 12000000 		.4byte	.LVL41
 6601 020e 0100     		.2byte	0x1
 6602 0210 50       		.byte	0x50
 6603 0211 12000000 		.4byte	.LVL41
 6604 0215 14000000 		.4byte	.LVL42
 6605 0219 0400     		.2byte	0x4
 6606 021b F3       		.byte	0xf3
 6607 021c 01       		.uleb128 0x1
 6608 021d 50       		.byte	0x50
 6609 021e 9F       		.byte	0x9f
 6610 021f 14000000 		.4byte	.LVL42
 6611 0223 16000000 		.4byte	.LVL43
 6612 0227 0100     		.2byte	0x1
 6613 0229 50       		.byte	0x50
 6614 022a 16000000 		.4byte	.LVL43
 6615 022e 1C000000 		.4byte	.LFE40
 6616 0232 0400     		.2byte	0x4
 6617 0234 F3       		.byte	0xf3
 6618 0235 01       		.uleb128 0x1
 6619 0236 50       		.byte	0x50
 6620 0237 9F       		.byte	0x9f
 6621 0238 00000000 		.4byte	0
 6622 023c 00000000 		.4byte	0
 6623              	.LLST15:
 6624 0240 00000000 		.4byte	.LVL44
 6625 0244 10000000 		.4byte	.LVL45
 6626 0248 0100     		.2byte	0x1
 6627 024a 50       		.byte	0x50
 6628 024b 10000000 		.4byte	.LVL45
ARM GAS  C:\Users\gjl\AppData\Local\Temp\cc7xIfgu.s 			page 150


 6629 024f 12000000 		.4byte	.LVL46
 6630 0253 0400     		.2byte	0x4
 6631 0255 F3       		.byte	0xf3
 6632 0256 01       		.uleb128 0x1
 6633 0257 50       		.byte	0x50
 6634 0258 9F       		.byte	0x9f
 6635 0259 12000000 		.4byte	.LVL46
 6636 025d 14000000 		.4byte	.LVL47
 6637 0261 0100     		.2byte	0x1
 6638 0263 50       		.byte	0x50
 6639 0264 14000000 		.4byte	.LVL47
 6640 0268 1C000000 		.4byte	.LFE41
 6641 026c 0400     		.2byte	0x4
 6642 026e F3       		.byte	0xf3
 6643 026f 01       		.uleb128 0x1
 6644 0270 50       		.byte	0x50
 6645 0271 9F       		.byte	0x9f
 6646 0272 00000000 		.4byte	0
 6647 0276 00000000 		.4byte	0
 6648              	.LLST16:
 6649 027a 00000000 		.4byte	.LVL48
 6650 027e 10000000 		.4byte	.LVL50
 6651 0282 0100     		.2byte	0x1
 6652 0284 50       		.byte	0x50
 6653 0285 10000000 		.4byte	.LVL50
 6654 0289 A2000000 		.4byte	.LVL59
 6655 028d 0100     		.2byte	0x1
 6656 028f 55       		.byte	0x55
 6657 0290 A2000000 		.4byte	.LVL59
 6658 0294 B8000000 		.4byte	.LFE42
 6659 0298 0400     		.2byte	0x4
 6660 029a F3       		.byte	0xf3
 6661 029b 01       		.uleb128 0x1
 6662 029c 50       		.byte	0x50
 6663 029d 9F       		.byte	0x9f
 6664 029e 00000000 		.4byte	0
 6665 02a2 00000000 		.4byte	0
 6666              	.LLST17:
 6667 02a6 00000000 		.4byte	.LVL48
 6668 02aa 0C000000 		.4byte	.LVL49
 6669 02ae 0100     		.2byte	0x1
 6670 02b0 51       		.byte	0x51
 6671 02b1 0C000000 		.4byte	.LVL49
 6672 02b5 A2000000 		.4byte	.LVL58
 6673 02b9 0100     		.2byte	0x1
 6674 02bb 54       		.byte	0x54
 6675 02bc A2000000 		.4byte	.LVL58
 6676 02c0 B8000000 		.4byte	.LFE42
 6677 02c4 0400     		.2byte	0x4
 6678 02c6 F3       		.byte	0xf3
 6679 02c7 01       		.uleb128 0x1
 6680 02c8 51       		.byte	0x51
 6681 02c9 9F       		.byte	0x9f
 6682 02ca 00000000 		.4byte	0
 6683 02ce 00000000 		.4byte	0
 6684              	.LLST18:
 6685 02d2 80000000 		.4byte	.LVL54
ARM GAS  C:\Users\gjl\AppData\Local\Temp\cc7xIfgu.s 			page 151


 6686 02d6 98000000 		.4byte	.LVL55
 6687 02da 0100     		.2byte	0x1
 6688 02dc 53       		.byte	0x53
 6689 02dd 9C000000 		.4byte	.LVL56
 6690 02e1 A2000000 		.4byte	.LVL57
 6691 02e5 0100     		.2byte	0x1
 6692 02e7 53       		.byte	0x53
 6693 02e8 00000000 		.4byte	0
 6694 02ec 00000000 		.4byte	0
 6695              	.LLST19:
 6696 02f0 00000000 		.4byte	.LVL60
 6697 02f4 10000000 		.4byte	.LVL62
 6698 02f8 0100     		.2byte	0x1
 6699 02fa 50       		.byte	0x50
 6700 02fb 10000000 		.4byte	.LVL62
 6701 02ff CA000000 		.4byte	.LVL73
 6702 0303 0100     		.2byte	0x1
 6703 0305 55       		.byte	0x55
 6704 0306 CA000000 		.4byte	.LVL73
 6705 030a E0000000 		.4byte	.LFE43
 6706 030e 0400     		.2byte	0x4
 6707 0310 F3       		.byte	0xf3
 6708 0311 01       		.uleb128 0x1
 6709 0312 50       		.byte	0x50
 6710 0313 9F       		.byte	0x9f
 6711 0314 00000000 		.4byte	0
 6712 0318 00000000 		.4byte	0
 6713              	.LLST20:
 6714 031c 00000000 		.4byte	.LVL60
 6715 0320 0C000000 		.4byte	.LVL61
 6716 0324 0100     		.2byte	0x1
 6717 0326 51       		.byte	0x51
 6718 0327 0C000000 		.4byte	.LVL61
 6719 032b CA000000 		.4byte	.LVL72
 6720 032f 0100     		.2byte	0x1
 6721 0331 54       		.byte	0x54
 6722 0332 CA000000 		.4byte	.LVL72
 6723 0336 E0000000 		.4byte	.LFE43
 6724 033a 0400     		.2byte	0x4
 6725 033c F3       		.byte	0xf3
 6726 033d 01       		.uleb128 0x1
 6727 033e 51       		.byte	0x51
 6728 033f 9F       		.byte	0x9f
 6729 0340 00000000 		.4byte	0
 6730 0344 00000000 		.4byte	0
 6731              	.LLST21:
 6732 0348 5E000000 		.4byte	.LVL67
 6733 034c C0000000 		.4byte	.LVL69
 6734 0350 0100     		.2byte	0x1
 6735 0352 56       		.byte	0x56
 6736 0353 C4000000 		.4byte	.LVL70
 6737 0357 CA000000 		.4byte	.LVL71
 6738 035b 0100     		.2byte	0x1
 6739 035d 56       		.byte	0x56
 6740 035e 00000000 		.4byte	0
 6741 0362 00000000 		.4byte	0
 6742              	.LLST22:
ARM GAS  C:\Users\gjl\AppData\Local\Temp\cc7xIfgu.s 			page 152


 6743 0366 A8000000 		.4byte	.LVL68
 6744 036a C0000000 		.4byte	.LVL69
 6745 036e 0100     		.2byte	0x1
 6746 0370 53       		.byte	0x53
 6747 0371 C4000000 		.4byte	.LVL70
 6748 0375 CA000000 		.4byte	.LVL71
 6749 0379 0100     		.2byte	0x1
 6750 037b 53       		.byte	0x53
 6751 037c 00000000 		.4byte	0
 6752 0380 00000000 		.4byte	0
 6753              	.LLST23:
 6754 0384 00000000 		.4byte	.LVL74
 6755 0388 12000000 		.4byte	.LVL75
 6756 038c 0100     		.2byte	0x1
 6757 038e 50       		.byte	0x50
 6758 038f 12000000 		.4byte	.LVL75
 6759 0393 14000000 		.4byte	.LVL76
 6760 0397 0400     		.2byte	0x4
 6761 0399 F3       		.byte	0xf3
 6762 039a 01       		.uleb128 0x1
 6763 039b 50       		.byte	0x50
 6764 039c 9F       		.byte	0x9f
 6765 039d 14000000 		.4byte	.LVL76
 6766 03a1 16000000 		.4byte	.LVL77
 6767 03a5 0100     		.2byte	0x1
 6768 03a7 50       		.byte	0x50
 6769 03a8 16000000 		.4byte	.LVL77
 6770 03ac 1C000000 		.4byte	.LFE44
 6771 03b0 0400     		.2byte	0x4
 6772 03b2 F3       		.byte	0xf3
 6773 03b3 01       		.uleb128 0x1
 6774 03b4 50       		.byte	0x50
 6775 03b5 9F       		.byte	0x9f
 6776 03b6 00000000 		.4byte	0
 6777 03ba 00000000 		.4byte	0
 6778              	.LLST24:
 6779 03be 00000000 		.4byte	.LVL78
 6780 03c2 10000000 		.4byte	.LVL79
 6781 03c6 0100     		.2byte	0x1
 6782 03c8 50       		.byte	0x50
 6783 03c9 10000000 		.4byte	.LVL79
 6784 03cd 12000000 		.4byte	.LVL80
 6785 03d1 0400     		.2byte	0x4
 6786 03d3 F3       		.byte	0xf3
 6787 03d4 01       		.uleb128 0x1
 6788 03d5 50       		.byte	0x50
 6789 03d6 9F       		.byte	0x9f
 6790 03d7 12000000 		.4byte	.LVL80
 6791 03db 14000000 		.4byte	.LVL81
 6792 03df 0100     		.2byte	0x1
 6793 03e1 50       		.byte	0x50
 6794 03e2 14000000 		.4byte	.LVL81
 6795 03e6 1C000000 		.4byte	.LFE45
 6796 03ea 0400     		.2byte	0x4
 6797 03ec F3       		.byte	0xf3
 6798 03ed 01       		.uleb128 0x1
 6799 03ee 50       		.byte	0x50
ARM GAS  C:\Users\gjl\AppData\Local\Temp\cc7xIfgu.s 			page 153


 6800 03ef 9F       		.byte	0x9f
 6801 03f0 00000000 		.4byte	0
 6802 03f4 00000000 		.4byte	0
 6803              	.LLST25:
 6804 03f8 00000000 		.4byte	.LVL82
 6805 03fc 12000000 		.4byte	.LVL83
 6806 0400 0100     		.2byte	0x1
 6807 0402 50       		.byte	0x50
 6808 0403 12000000 		.4byte	.LVL83
 6809 0407 14000000 		.4byte	.LVL84
 6810 040b 0400     		.2byte	0x4
 6811 040d F3       		.byte	0xf3
 6812 040e 01       		.uleb128 0x1
 6813 040f 50       		.byte	0x50
 6814 0410 9F       		.byte	0x9f
 6815 0411 14000000 		.4byte	.LVL84
 6816 0415 16000000 		.4byte	.LVL85
 6817 0419 0100     		.2byte	0x1
 6818 041b 50       		.byte	0x50
 6819 041c 16000000 		.4byte	.LVL85
 6820 0420 1C000000 		.4byte	.LFE46
 6821 0424 0400     		.2byte	0x4
 6822 0426 F3       		.byte	0xf3
 6823 0427 01       		.uleb128 0x1
 6824 0428 50       		.byte	0x50
 6825 0429 9F       		.byte	0x9f
 6826 042a 00000000 		.4byte	0
 6827 042e 00000000 		.4byte	0
 6828              	.LLST26:
 6829 0432 00000000 		.4byte	.LVL86
 6830 0436 10000000 		.4byte	.LVL87
 6831 043a 0100     		.2byte	0x1
 6832 043c 50       		.byte	0x50
 6833 043d 10000000 		.4byte	.LVL87
 6834 0441 12000000 		.4byte	.LVL88
 6835 0445 0400     		.2byte	0x4
 6836 0447 F3       		.byte	0xf3
 6837 0448 01       		.uleb128 0x1
 6838 0449 50       		.byte	0x50
 6839 044a 9F       		.byte	0x9f
 6840 044b 12000000 		.4byte	.LVL88
 6841 044f 14000000 		.4byte	.LVL89
 6842 0453 0100     		.2byte	0x1
 6843 0455 50       		.byte	0x50
 6844 0456 14000000 		.4byte	.LVL89
 6845 045a 1C000000 		.4byte	.LFE47
 6846 045e 0400     		.2byte	0x4
 6847 0460 F3       		.byte	0xf3
 6848 0461 01       		.uleb128 0x1
 6849 0462 50       		.byte	0x50
 6850 0463 9F       		.byte	0x9f
 6851 0464 00000000 		.4byte	0
 6852 0468 00000000 		.4byte	0
 6853              	.LLST27:
 6854 046c 00000000 		.4byte	.LVL90
 6855 0470 0E000000 		.4byte	.LVL92
 6856 0474 0100     		.2byte	0x1
ARM GAS  C:\Users\gjl\AppData\Local\Temp\cc7xIfgu.s 			page 154


 6857 0476 50       		.byte	0x50
 6858 0477 0E000000 		.4byte	.LVL92
 6859 047b 9C000000 		.4byte	.LVL101
 6860 047f 0100     		.2byte	0x1
 6861 0481 55       		.byte	0x55
 6862 0482 9C000000 		.4byte	.LVL101
 6863 0486 C0000000 		.4byte	.LFE48
 6864 048a 0400     		.2byte	0x4
 6865 048c F3       		.byte	0xf3
 6866 048d 01       		.uleb128 0x1
 6867 048e 50       		.byte	0x50
 6868 048f 9F       		.byte	0x9f
 6869 0490 00000000 		.4byte	0
 6870 0494 00000000 		.4byte	0
 6871              	.LLST28:
 6872 0498 00000000 		.4byte	.LVL90
 6873 049c 0C000000 		.4byte	.LVL91
 6874 04a0 0100     		.2byte	0x1
 6875 04a2 51       		.byte	0x51
 6876 04a3 0C000000 		.4byte	.LVL91
 6877 04a7 9C000000 		.4byte	.LVL100
 6878 04ab 0100     		.2byte	0x1
 6879 04ad 54       		.byte	0x54
 6880 04ae 9C000000 		.4byte	.LVL100
 6881 04b2 C0000000 		.4byte	.LFE48
 6882 04b6 0400     		.2byte	0x4
 6883 04b8 F3       		.byte	0xf3
 6884 04b9 01       		.uleb128 0x1
 6885 04ba 51       		.byte	0x51
 6886 04bb 9F       		.byte	0x9f
 6887 04bc 00000000 		.4byte	0
 6888 04c0 00000000 		.4byte	0
 6889              	.LLST29:
 6890 04c4 7A000000 		.4byte	.LVL96
 6891 04c8 92000000 		.4byte	.LVL97
 6892 04cc 0100     		.2byte	0x1
 6893 04ce 53       		.byte	0x53
 6894 04cf 96000000 		.4byte	.LVL98
 6895 04d3 9C000000 		.4byte	.LVL99
 6896 04d7 0100     		.2byte	0x1
 6897 04d9 53       		.byte	0x53
 6898 04da 00000000 		.4byte	0
 6899 04de 00000000 		.4byte	0
 6900              	.LLST30:
 6901 04e2 00000000 		.4byte	.LVL102
 6902 04e6 0E000000 		.4byte	.LVL104
 6903 04ea 0100     		.2byte	0x1
 6904 04ec 50       		.byte	0x50
 6905 04ed 0E000000 		.4byte	.LVL104
 6906 04f1 D0000000 		.4byte	.LVL115
 6907 04f5 0100     		.2byte	0x1
 6908 04f7 55       		.byte	0x55
 6909 04f8 D0000000 		.4byte	.LVL115
 6910 04fc F4000000 		.4byte	.LFE49
 6911 0500 0400     		.2byte	0x4
 6912 0502 F3       		.byte	0xf3
 6913 0503 01       		.uleb128 0x1
ARM GAS  C:\Users\gjl\AppData\Local\Temp\cc7xIfgu.s 			page 155


 6914 0504 50       		.byte	0x50
 6915 0505 9F       		.byte	0x9f
 6916 0506 00000000 		.4byte	0
 6917 050a 00000000 		.4byte	0
 6918              	.LLST31:
 6919 050e 00000000 		.4byte	.LVL102
 6920 0512 0C000000 		.4byte	.LVL103
 6921 0516 0100     		.2byte	0x1
 6922 0518 51       		.byte	0x51
 6923 0519 0C000000 		.4byte	.LVL103
 6924 051d D0000000 		.4byte	.LVL114
 6925 0521 0100     		.2byte	0x1
 6926 0523 54       		.byte	0x54
 6927 0524 D0000000 		.4byte	.LVL114
 6928 0528 F4000000 		.4byte	.LFE49
 6929 052c 0400     		.2byte	0x4
 6930 052e F3       		.byte	0xf3
 6931 052f 01       		.uleb128 0x1
 6932 0530 51       		.byte	0x51
 6933 0531 9F       		.byte	0x9f
 6934 0532 00000000 		.4byte	0
 6935 0536 00000000 		.4byte	0
 6936              	.LLST32:
 6937 053a 58000000 		.4byte	.LVL109
 6938 053e C2000000 		.4byte	.LVL111
 6939 0542 0100     		.2byte	0x1
 6940 0544 56       		.byte	0x56
 6941 0545 C6000000 		.4byte	.LVL112
 6942 0549 D0000000 		.4byte	.LVL113
 6943 054d 0100     		.2byte	0x1
 6944 054f 56       		.byte	0x56
 6945 0550 00000000 		.4byte	0
 6946 0554 00000000 		.4byte	0
 6947              	.LLST33:
 6948 0558 A2000000 		.4byte	.LVL110
 6949 055c C2000000 		.4byte	.LVL111
 6950 0560 0100     		.2byte	0x1
 6951 0562 53       		.byte	0x53
 6952 0563 C6000000 		.4byte	.LVL112
 6953 0567 D0000000 		.4byte	.LVL113
 6954 056b 0100     		.2byte	0x1
 6955 056d 53       		.byte	0x53
 6956 056e 00000000 		.4byte	0
 6957 0572 00000000 		.4byte	0
 6958              	.LLST34:
 6959 0576 00000000 		.4byte	.LVL116
 6960 057a 12000000 		.4byte	.LVL117
 6961 057e 0100     		.2byte	0x1
 6962 0580 50       		.byte	0x50
 6963 0581 12000000 		.4byte	.LVL117
 6964 0585 14000000 		.4byte	.LVL118
 6965 0589 0400     		.2byte	0x4
 6966 058b F3       		.byte	0xf3
 6967 058c 01       		.uleb128 0x1
 6968 058d 50       		.byte	0x50
 6969 058e 9F       		.byte	0x9f
 6970 058f 14000000 		.4byte	.LVL118
ARM GAS  C:\Users\gjl\AppData\Local\Temp\cc7xIfgu.s 			page 156


 6971 0593 16000000 		.4byte	.LVL119
 6972 0597 0100     		.2byte	0x1
 6973 0599 50       		.byte	0x50
 6974 059a 16000000 		.4byte	.LVL119
 6975 059e 1C000000 		.4byte	.LFE50
 6976 05a2 0400     		.2byte	0x4
 6977 05a4 F3       		.byte	0xf3
 6978 05a5 01       		.uleb128 0x1
 6979 05a6 50       		.byte	0x50
 6980 05a7 9F       		.byte	0x9f
 6981 05a8 00000000 		.4byte	0
 6982 05ac 00000000 		.4byte	0
 6983              	.LLST35:
 6984 05b0 00000000 		.4byte	.LVL120
 6985 05b4 10000000 		.4byte	.LVL121
 6986 05b8 0100     		.2byte	0x1
 6987 05ba 50       		.byte	0x50
 6988 05bb 10000000 		.4byte	.LVL121
 6989 05bf 12000000 		.4byte	.LVL122
 6990 05c3 0400     		.2byte	0x4
 6991 05c5 F3       		.byte	0xf3
 6992 05c6 01       		.uleb128 0x1
 6993 05c7 50       		.byte	0x50
 6994 05c8 9F       		.byte	0x9f
 6995 05c9 12000000 		.4byte	.LVL122
 6996 05cd 14000000 		.4byte	.LVL123
 6997 05d1 0100     		.2byte	0x1
 6998 05d3 50       		.byte	0x50
 6999 05d4 14000000 		.4byte	.LVL123
 7000 05d8 1C000000 		.4byte	.LFE51
 7001 05dc 0400     		.2byte	0x4
 7002 05de F3       		.byte	0xf3
 7003 05df 01       		.uleb128 0x1
 7004 05e0 50       		.byte	0x50
 7005 05e1 9F       		.byte	0x9f
 7006 05e2 00000000 		.4byte	0
 7007 05e6 00000000 		.4byte	0
 7008              	.LLST36:
 7009 05ea 00000000 		.4byte	.LVL124
 7010 05ee 12000000 		.4byte	.LVL125
 7011 05f2 0100     		.2byte	0x1
 7012 05f4 50       		.byte	0x50
 7013 05f5 12000000 		.4byte	.LVL125
 7014 05f9 14000000 		.4byte	.LVL126
 7015 05fd 0400     		.2byte	0x4
 7016 05ff F3       		.byte	0xf3
 7017 0600 01       		.uleb128 0x1
 7018 0601 50       		.byte	0x50
 7019 0602 9F       		.byte	0x9f
 7020 0603 14000000 		.4byte	.LVL126
 7021 0607 16000000 		.4byte	.LVL127
 7022 060b 0100     		.2byte	0x1
 7023 060d 50       		.byte	0x50
 7024 060e 16000000 		.4byte	.LVL127
 7025 0612 1C000000 		.4byte	.LFE52
 7026 0616 0400     		.2byte	0x4
 7027 0618 F3       		.byte	0xf3
ARM GAS  C:\Users\gjl\AppData\Local\Temp\cc7xIfgu.s 			page 157


 7028 0619 01       		.uleb128 0x1
 7029 061a 50       		.byte	0x50
 7030 061b 9F       		.byte	0x9f
 7031 061c 00000000 		.4byte	0
 7032 0620 00000000 		.4byte	0
 7033              	.LLST37:
 7034 0624 00000000 		.4byte	.LVL128
 7035 0628 10000000 		.4byte	.LVL129
 7036 062c 0100     		.2byte	0x1
 7037 062e 50       		.byte	0x50
 7038 062f 10000000 		.4byte	.LVL129
 7039 0633 12000000 		.4byte	.LVL130
 7040 0637 0400     		.2byte	0x4
 7041 0639 F3       		.byte	0xf3
 7042 063a 01       		.uleb128 0x1
 7043 063b 50       		.byte	0x50
 7044 063c 9F       		.byte	0x9f
 7045 063d 12000000 		.4byte	.LVL130
 7046 0641 14000000 		.4byte	.LVL131
 7047 0645 0100     		.2byte	0x1
 7048 0647 50       		.byte	0x50
 7049 0648 14000000 		.4byte	.LVL131
 7050 064c 1C000000 		.4byte	.LFE53
 7051 0650 0400     		.2byte	0x4
 7052 0652 F3       		.byte	0xf3
 7053 0653 01       		.uleb128 0x1
 7054 0654 50       		.byte	0x50
 7055 0655 9F       		.byte	0x9f
 7056 0656 00000000 		.4byte	0
 7057 065a 00000000 		.4byte	0
 7058              	.LLST38:
 7059 065e 00000000 		.4byte	.LVL132
 7060 0662 10000000 		.4byte	.LVL134
 7061 0666 0100     		.2byte	0x1
 7062 0668 50       		.byte	0x50
 7063 0669 10000000 		.4byte	.LVL134
 7064 066d 9E000000 		.4byte	.LVL143
 7065 0671 0100     		.2byte	0x1
 7066 0673 55       		.byte	0x55
 7067 0674 9E000000 		.4byte	.LVL143
 7068 0678 BC000000 		.4byte	.LFE54
 7069 067c 0400     		.2byte	0x4
 7070 067e F3       		.byte	0xf3
 7071 067f 01       		.uleb128 0x1
 7072 0680 50       		.byte	0x50
 7073 0681 9F       		.byte	0x9f
 7074 0682 00000000 		.4byte	0
 7075 0686 00000000 		.4byte	0
 7076              	.LLST39:
 7077 068a 00000000 		.4byte	.LVL132
 7078 068e 0C000000 		.4byte	.LVL133
 7079 0692 0100     		.2byte	0x1
 7080 0694 51       		.byte	0x51
 7081 0695 0C000000 		.4byte	.LVL133
 7082 0699 9E000000 		.4byte	.LVL142
 7083 069d 0100     		.2byte	0x1
 7084 069f 54       		.byte	0x54
ARM GAS  C:\Users\gjl\AppData\Local\Temp\cc7xIfgu.s 			page 158


 7085 06a0 9E000000 		.4byte	.LVL142
 7086 06a4 BC000000 		.4byte	.LFE54
 7087 06a8 0400     		.2byte	0x4
 7088 06aa F3       		.byte	0xf3
 7089 06ab 01       		.uleb128 0x1
 7090 06ac 51       		.byte	0x51
 7091 06ad 9F       		.byte	0x9f
 7092 06ae 00000000 		.4byte	0
 7093 06b2 00000000 		.4byte	0
 7094              	.LLST40:
 7095 06b6 7C000000 		.4byte	.LVL138
 7096 06ba 94000000 		.4byte	.LVL139
 7097 06be 0100     		.2byte	0x1
 7098 06c0 53       		.byte	0x53
 7099 06c1 98000000 		.4byte	.LVL140
 7100 06c5 9E000000 		.4byte	.LVL141
 7101 06c9 0100     		.2byte	0x1
 7102 06cb 53       		.byte	0x53
 7103 06cc 00000000 		.4byte	0
 7104 06d0 00000000 		.4byte	0
 7105              	.LLST41:
 7106 06d4 00000000 		.4byte	.LVL144
 7107 06d8 10000000 		.4byte	.LVL146
 7108 06dc 0100     		.2byte	0x1
 7109 06de 50       		.byte	0x50
 7110 06df 10000000 		.4byte	.LVL146
 7111 06e3 96000000 		.4byte	.LVL155
 7112 06e7 0100     		.2byte	0x1
 7113 06e9 55       		.byte	0x55
 7114 06ea 96000000 		.4byte	.LVL155
 7115 06ee B4000000 		.4byte	.LFE55
 7116 06f2 0400     		.2byte	0x4
 7117 06f4 F3       		.byte	0xf3
 7118 06f5 01       		.uleb128 0x1
 7119 06f6 50       		.byte	0x50
 7120 06f7 9F       		.byte	0x9f
 7121 06f8 00000000 		.4byte	0
 7122 06fc 00000000 		.4byte	0
 7123              	.LLST42:
 7124 0700 00000000 		.4byte	.LVL144
 7125 0704 0C000000 		.4byte	.LVL145
 7126 0708 0100     		.2byte	0x1
 7127 070a 51       		.byte	0x51
 7128 070b 0C000000 		.4byte	.LVL145
 7129 070f 96000000 		.4byte	.LVL154
 7130 0713 0100     		.2byte	0x1
 7131 0715 54       		.byte	0x54
 7132 0716 96000000 		.4byte	.LVL154
 7133 071a B4000000 		.4byte	.LFE55
 7134 071e 0400     		.2byte	0x4
 7135 0720 F3       		.byte	0xf3
 7136 0721 01       		.uleb128 0x1
 7137 0722 51       		.byte	0x51
 7138 0723 9F       		.byte	0x9f
 7139 0724 00000000 		.4byte	0
 7140 0728 00000000 		.4byte	0
 7141              	.LLST43:
ARM GAS  C:\Users\gjl\AppData\Local\Temp\cc7xIfgu.s 			page 159


 7142 072c 74000000 		.4byte	.LVL150
 7143 0730 8C000000 		.4byte	.LVL151
 7144 0734 0100     		.2byte	0x1
 7145 0736 53       		.byte	0x53
 7146 0737 90000000 		.4byte	.LVL152
 7147 073b 96000000 		.4byte	.LVL153
 7148 073f 0100     		.2byte	0x1
 7149 0741 53       		.byte	0x53
 7150 0742 00000000 		.4byte	0
 7151 0746 00000000 		.4byte	0
 7152              	.LLST44:
 7153 074a 00000000 		.4byte	.LVL156
 7154 074e 12000000 		.4byte	.LVL157
 7155 0752 0100     		.2byte	0x1
 7156 0754 50       		.byte	0x50
 7157 0755 12000000 		.4byte	.LVL157
 7158 0759 14000000 		.4byte	.LVL158
 7159 075d 0400     		.2byte	0x4
 7160 075f F3       		.byte	0xf3
 7161 0760 01       		.uleb128 0x1
 7162 0761 50       		.byte	0x50
 7163 0762 9F       		.byte	0x9f
 7164 0763 14000000 		.4byte	.LVL158
 7165 0767 16000000 		.4byte	.LVL159
 7166 076b 0100     		.2byte	0x1
 7167 076d 50       		.byte	0x50
 7168 076e 16000000 		.4byte	.LVL159
 7169 0772 1C000000 		.4byte	.LFE56
 7170 0776 0400     		.2byte	0x4
 7171 0778 F3       		.byte	0xf3
 7172 0779 01       		.uleb128 0x1
 7173 077a 50       		.byte	0x50
 7174 077b 9F       		.byte	0x9f
 7175 077c 00000000 		.4byte	0
 7176 0780 00000000 		.4byte	0
 7177              	.LLST45:
 7178 0784 00000000 		.4byte	.LVL160
 7179 0788 10000000 		.4byte	.LVL161
 7180 078c 0100     		.2byte	0x1
 7181 078e 50       		.byte	0x50
 7182 078f 10000000 		.4byte	.LVL161
 7183 0793 12000000 		.4byte	.LVL162
 7184 0797 0400     		.2byte	0x4
 7185 0799 F3       		.byte	0xf3
 7186 079a 01       		.uleb128 0x1
 7187 079b 50       		.byte	0x50
 7188 079c 9F       		.byte	0x9f
 7189 079d 12000000 		.4byte	.LVL162
 7190 07a1 14000000 		.4byte	.LVL163
 7191 07a5 0100     		.2byte	0x1
 7192 07a7 50       		.byte	0x50
 7193 07a8 14000000 		.4byte	.LVL163
 7194 07ac 1C000000 		.4byte	.LFE57
 7195 07b0 0400     		.2byte	0x4
 7196 07b2 F3       		.byte	0xf3
 7197 07b3 01       		.uleb128 0x1
 7198 07b4 50       		.byte	0x50
ARM GAS  C:\Users\gjl\AppData\Local\Temp\cc7xIfgu.s 			page 160


 7199 07b5 9F       		.byte	0x9f
 7200 07b6 00000000 		.4byte	0
 7201 07ba 00000000 		.4byte	0
 7202              	.LLST46:
 7203 07be 00000000 		.4byte	.LVL164
 7204 07c2 12000000 		.4byte	.LVL165
 7205 07c6 0100     		.2byte	0x1
 7206 07c8 50       		.byte	0x50
 7207 07c9 12000000 		.4byte	.LVL165
 7208 07cd 14000000 		.4byte	.LVL166
 7209 07d1 0400     		.2byte	0x4
 7210 07d3 F3       		.byte	0xf3
 7211 07d4 01       		.uleb128 0x1
 7212 07d5 50       		.byte	0x50
 7213 07d6 9F       		.byte	0x9f
 7214 07d7 14000000 		.4byte	.LVL166
 7215 07db 16000000 		.4byte	.LVL167
 7216 07df 0100     		.2byte	0x1
 7217 07e1 50       		.byte	0x50
 7218 07e2 16000000 		.4byte	.LVL167
 7219 07e6 1C000000 		.4byte	.LFE58
 7220 07ea 0400     		.2byte	0x4
 7221 07ec F3       		.byte	0xf3
 7222 07ed 01       		.uleb128 0x1
 7223 07ee 50       		.byte	0x50
 7224 07ef 9F       		.byte	0x9f
 7225 07f0 00000000 		.4byte	0
 7226 07f4 00000000 		.4byte	0
 7227              	.LLST47:
 7228 07f8 00000000 		.4byte	.LVL168
 7229 07fc 10000000 		.4byte	.LVL169
 7230 0800 0100     		.2byte	0x1
 7231 0802 50       		.byte	0x50
 7232 0803 10000000 		.4byte	.LVL169
 7233 0807 12000000 		.4byte	.LVL170
 7234 080b 0400     		.2byte	0x4
 7235 080d F3       		.byte	0xf3
 7236 080e 01       		.uleb128 0x1
 7237 080f 50       		.byte	0x50
 7238 0810 9F       		.byte	0x9f
 7239 0811 12000000 		.4byte	.LVL170
 7240 0815 14000000 		.4byte	.LVL171
 7241 0819 0100     		.2byte	0x1
 7242 081b 50       		.byte	0x50
 7243 081c 14000000 		.4byte	.LVL171
 7244 0820 1C000000 		.4byte	.LFE59
 7245 0824 0400     		.2byte	0x4
 7246 0826 F3       		.byte	0xf3
 7247 0827 01       		.uleb128 0x1
 7248 0828 50       		.byte	0x50
 7249 0829 9F       		.byte	0x9f
 7250 082a 00000000 		.4byte	0
 7251 082e 00000000 		.4byte	0
 7252              	.LLST48:
 7253 0832 00000000 		.4byte	.LVL172
 7254 0836 0E000000 		.4byte	.LVL174
 7255 083a 0100     		.2byte	0x1
ARM GAS  C:\Users\gjl\AppData\Local\Temp\cc7xIfgu.s 			page 161


 7256 083c 50       		.byte	0x50
 7257 083d 0E000000 		.4byte	.LVL174
 7258 0841 9C000000 		.4byte	.LVL183
 7259 0845 0100     		.2byte	0x1
 7260 0847 55       		.byte	0x55
 7261 0848 9C000000 		.4byte	.LVL183
 7262 084c C0000000 		.4byte	.LFE60
 7263 0850 0400     		.2byte	0x4
 7264 0852 F3       		.byte	0xf3
 7265 0853 01       		.uleb128 0x1
 7266 0854 50       		.byte	0x50
 7267 0855 9F       		.byte	0x9f
 7268 0856 00000000 		.4byte	0
 7269 085a 00000000 		.4byte	0
 7270              	.LLST49:
 7271 085e 00000000 		.4byte	.LVL172
 7272 0862 0C000000 		.4byte	.LVL173
 7273 0866 0100     		.2byte	0x1
 7274 0868 51       		.byte	0x51
 7275 0869 0C000000 		.4byte	.LVL173
 7276 086d 9C000000 		.4byte	.LVL182
 7277 0871 0100     		.2byte	0x1
 7278 0873 54       		.byte	0x54
 7279 0874 9C000000 		.4byte	.LVL182
 7280 0878 C0000000 		.4byte	.LFE60
 7281 087c 0400     		.2byte	0x4
 7282 087e F3       		.byte	0xf3
 7283 087f 01       		.uleb128 0x1
 7284 0880 51       		.byte	0x51
 7285 0881 9F       		.byte	0x9f
 7286 0882 00000000 		.4byte	0
 7287 0886 00000000 		.4byte	0
 7288              	.LLST50:
 7289 088a 7A000000 		.4byte	.LVL178
 7290 088e 92000000 		.4byte	.LVL179
 7291 0892 0100     		.2byte	0x1
 7292 0894 53       		.byte	0x53
 7293 0895 96000000 		.4byte	.LVL180
 7294 0899 9C000000 		.4byte	.LVL181
 7295 089d 0100     		.2byte	0x1
 7296 089f 53       		.byte	0x53
 7297 08a0 00000000 		.4byte	0
 7298 08a4 00000000 		.4byte	0
 7299              	.LLST51:
 7300 08a8 00000000 		.4byte	.LVL184
 7301 08ac 0E000000 		.4byte	.LVL186
 7302 08b0 0100     		.2byte	0x1
 7303 08b2 50       		.byte	0x50
 7304 08b3 0E000000 		.4byte	.LVL186
 7305 08b7 94000000 		.4byte	.LVL195
 7306 08bb 0100     		.2byte	0x1
 7307 08bd 55       		.byte	0x55
 7308 08be 94000000 		.4byte	.LVL195
 7309 08c2 B8000000 		.4byte	.LFE61
 7310 08c6 0400     		.2byte	0x4
 7311 08c8 F3       		.byte	0xf3
 7312 08c9 01       		.uleb128 0x1
ARM GAS  C:\Users\gjl\AppData\Local\Temp\cc7xIfgu.s 			page 162


 7313 08ca 50       		.byte	0x50
 7314 08cb 9F       		.byte	0x9f
 7315 08cc 00000000 		.4byte	0
 7316 08d0 00000000 		.4byte	0
 7317              	.LLST52:
 7318 08d4 00000000 		.4byte	.LVL184
 7319 08d8 0C000000 		.4byte	.LVL185
 7320 08dc 0100     		.2byte	0x1
 7321 08de 51       		.byte	0x51
 7322 08df 0C000000 		.4byte	.LVL185
 7323 08e3 94000000 		.4byte	.LVL194
 7324 08e7 0100     		.2byte	0x1
 7325 08e9 54       		.byte	0x54
 7326 08ea 94000000 		.4byte	.LVL194
 7327 08ee B8000000 		.4byte	.LFE61
 7328 08f2 0400     		.2byte	0x4
 7329 08f4 F3       		.byte	0xf3
 7330 08f5 01       		.uleb128 0x1
 7331 08f6 51       		.byte	0x51
 7332 08f7 9F       		.byte	0x9f
 7333 08f8 00000000 		.4byte	0
 7334 08fc 00000000 		.4byte	0
 7335              	.LLST53:
 7336 0900 72000000 		.4byte	.LVL190
 7337 0904 8A000000 		.4byte	.LVL191
 7338 0908 0100     		.2byte	0x1
 7339 090a 53       		.byte	0x53
 7340 090b 8E000000 		.4byte	.LVL192
 7341 090f 94000000 		.4byte	.LVL193
 7342 0913 0100     		.2byte	0x1
 7343 0915 53       		.byte	0x53
 7344 0916 00000000 		.4byte	0
 7345 091a 00000000 		.4byte	0
 7346              	.LLST54:
 7347 091e 00000000 		.4byte	.LVL196
 7348 0922 12000000 		.4byte	.LVL197
 7349 0926 0100     		.2byte	0x1
 7350 0928 50       		.byte	0x50
 7351 0929 12000000 		.4byte	.LVL197
 7352 092d 14000000 		.4byte	.LVL198
 7353 0931 0400     		.2byte	0x4
 7354 0933 F3       		.byte	0xf3
 7355 0934 01       		.uleb128 0x1
 7356 0935 50       		.byte	0x50
 7357 0936 9F       		.byte	0x9f
 7358 0937 14000000 		.4byte	.LVL198
 7359 093b 16000000 		.4byte	.LVL199
 7360 093f 0100     		.2byte	0x1
 7361 0941 50       		.byte	0x50
 7362 0942 16000000 		.4byte	.LVL199
 7363 0946 1C000000 		.4byte	.LFE62
 7364 094a 0400     		.2byte	0x4
 7365 094c F3       		.byte	0xf3
 7366 094d 01       		.uleb128 0x1
 7367 094e 50       		.byte	0x50
 7368 094f 9F       		.byte	0x9f
 7369 0950 00000000 		.4byte	0
ARM GAS  C:\Users\gjl\AppData\Local\Temp\cc7xIfgu.s 			page 163


 7370 0954 00000000 		.4byte	0
 7371              	.LLST55:
 7372 0958 00000000 		.4byte	.LVL200
 7373 095c 10000000 		.4byte	.LVL201
 7374 0960 0100     		.2byte	0x1
 7375 0962 50       		.byte	0x50
 7376 0963 10000000 		.4byte	.LVL201
 7377 0967 12000000 		.4byte	.LVL202
 7378 096b 0400     		.2byte	0x4
 7379 096d F3       		.byte	0xf3
 7380 096e 01       		.uleb128 0x1
 7381 096f 50       		.byte	0x50
 7382 0970 9F       		.byte	0x9f
 7383 0971 12000000 		.4byte	.LVL202
 7384 0975 14000000 		.4byte	.LVL203
 7385 0979 0100     		.2byte	0x1
 7386 097b 50       		.byte	0x50
 7387 097c 14000000 		.4byte	.LVL203
 7388 0980 1C000000 		.4byte	.LFE63
 7389 0984 0400     		.2byte	0x4
 7390 0986 F3       		.byte	0xf3
 7391 0987 01       		.uleb128 0x1
 7392 0988 50       		.byte	0x50
 7393 0989 9F       		.byte	0x9f
 7394 098a 00000000 		.4byte	0
 7395 098e 00000000 		.4byte	0
 7396              	.LLST56:
 7397 0992 00000000 		.4byte	.LVL204
 7398 0996 12000000 		.4byte	.LVL205
 7399 099a 0100     		.2byte	0x1
 7400 099c 50       		.byte	0x50
 7401 099d 12000000 		.4byte	.LVL205
 7402 09a1 14000000 		.4byte	.LVL206
 7403 09a5 0400     		.2byte	0x4
 7404 09a7 F3       		.byte	0xf3
 7405 09a8 01       		.uleb128 0x1
 7406 09a9 50       		.byte	0x50
 7407 09aa 9F       		.byte	0x9f
 7408 09ab 14000000 		.4byte	.LVL206
 7409 09af 16000000 		.4byte	.LVL207
 7410 09b3 0100     		.2byte	0x1
 7411 09b5 50       		.byte	0x50
 7412 09b6 16000000 		.4byte	.LVL207
 7413 09ba 1C000000 		.4byte	.LFE64
 7414 09be 0400     		.2byte	0x4
 7415 09c0 F3       		.byte	0xf3
 7416 09c1 01       		.uleb128 0x1
 7417 09c2 50       		.byte	0x50
 7418 09c3 9F       		.byte	0x9f
 7419 09c4 00000000 		.4byte	0
 7420 09c8 00000000 		.4byte	0
 7421              	.LLST57:
 7422 09cc 00000000 		.4byte	.LVL208
 7423 09d0 10000000 		.4byte	.LVL209
 7424 09d4 0100     		.2byte	0x1
 7425 09d6 50       		.byte	0x50
 7426 09d7 10000000 		.4byte	.LVL209
ARM GAS  C:\Users\gjl\AppData\Local\Temp\cc7xIfgu.s 			page 164


 7427 09db 12000000 		.4byte	.LVL210
 7428 09df 0400     		.2byte	0x4
 7429 09e1 F3       		.byte	0xf3
 7430 09e2 01       		.uleb128 0x1
 7431 09e3 50       		.byte	0x50
 7432 09e4 9F       		.byte	0x9f
 7433 09e5 12000000 		.4byte	.LVL210
 7434 09e9 14000000 		.4byte	.LVL211
 7435 09ed 0100     		.2byte	0x1
 7436 09ef 50       		.byte	0x50
 7437 09f0 14000000 		.4byte	.LVL211
 7438 09f4 1C000000 		.4byte	.LFE65
 7439 09f8 0400     		.2byte	0x4
 7440 09fa F3       		.byte	0xf3
 7441 09fb 01       		.uleb128 0x1
 7442 09fc 50       		.byte	0x50
 7443 09fd 9F       		.byte	0x9f
 7444 09fe 00000000 		.4byte	0
 7445 0a02 00000000 		.4byte	0
 7446              	.LLST58:
 7447 0a06 00000000 		.4byte	.LVL212
 7448 0a0a 10000000 		.4byte	.LVL214
 7449 0a0e 0100     		.2byte	0x1
 7450 0a10 50       		.byte	0x50
 7451 0a11 10000000 		.4byte	.LVL214
 7452 0a15 9E000000 		.4byte	.LVL223
 7453 0a19 0100     		.2byte	0x1
 7454 0a1b 55       		.byte	0x55
 7455 0a1c 9E000000 		.4byte	.LVL223
 7456 0a20 BC000000 		.4byte	.LFE66
 7457 0a24 0400     		.2byte	0x4
 7458 0a26 F3       		.byte	0xf3
 7459 0a27 01       		.uleb128 0x1
 7460 0a28 50       		.byte	0x50
 7461 0a29 9F       		.byte	0x9f
 7462 0a2a 00000000 		.4byte	0
 7463 0a2e 00000000 		.4byte	0
 7464              	.LLST59:
 7465 0a32 00000000 		.4byte	.LVL212
 7466 0a36 0C000000 		.4byte	.LVL213
 7467 0a3a 0100     		.2byte	0x1
 7468 0a3c 51       		.byte	0x51
 7469 0a3d 0C000000 		.4byte	.LVL213
 7470 0a41 9E000000 		.4byte	.LVL222
 7471 0a45 0100     		.2byte	0x1
 7472 0a47 54       		.byte	0x54
 7473 0a48 9E000000 		.4byte	.LVL222
 7474 0a4c BC000000 		.4byte	.LFE66
 7475 0a50 0400     		.2byte	0x4
 7476 0a52 F3       		.byte	0xf3
 7477 0a53 01       		.uleb128 0x1
 7478 0a54 51       		.byte	0x51
 7479 0a55 9F       		.byte	0x9f
 7480 0a56 00000000 		.4byte	0
 7481 0a5a 00000000 		.4byte	0
 7482              	.LLST60:
 7483 0a5e 7C000000 		.4byte	.LVL218
ARM GAS  C:\Users\gjl\AppData\Local\Temp\cc7xIfgu.s 			page 165


 7484 0a62 94000000 		.4byte	.LVL219
 7485 0a66 0100     		.2byte	0x1
 7486 0a68 53       		.byte	0x53
 7487 0a69 98000000 		.4byte	.LVL220
 7488 0a6d 9E000000 		.4byte	.LVL221
 7489 0a71 0100     		.2byte	0x1
 7490 0a73 53       		.byte	0x53
 7491 0a74 00000000 		.4byte	0
 7492 0a78 00000000 		.4byte	0
 7493              	.LLST61:
 7494 0a7c 00000000 		.4byte	.LVL224
 7495 0a80 0E000000 		.4byte	.LVL226
 7496 0a84 0100     		.2byte	0x1
 7497 0a86 50       		.byte	0x50
 7498 0a87 0E000000 		.4byte	.LVL226
 7499 0a8b 94000000 		.4byte	.LVL235
 7500 0a8f 0100     		.2byte	0x1
 7501 0a91 55       		.byte	0x55
 7502 0a92 94000000 		.4byte	.LVL235
 7503 0a96 B8000000 		.4byte	.LFE67
 7504 0a9a 0400     		.2byte	0x4
 7505 0a9c F3       		.byte	0xf3
 7506 0a9d 01       		.uleb128 0x1
 7507 0a9e 50       		.byte	0x50
 7508 0a9f 9F       		.byte	0x9f
 7509 0aa0 00000000 		.4byte	0
 7510 0aa4 00000000 		.4byte	0
 7511              	.LLST62:
 7512 0aa8 00000000 		.4byte	.LVL224
 7513 0aac 0C000000 		.4byte	.LVL225
 7514 0ab0 0100     		.2byte	0x1
 7515 0ab2 51       		.byte	0x51
 7516 0ab3 0C000000 		.4byte	.LVL225
 7517 0ab7 94000000 		.4byte	.LVL234
 7518 0abb 0100     		.2byte	0x1
 7519 0abd 54       		.byte	0x54
 7520 0abe 94000000 		.4byte	.LVL234
 7521 0ac2 B8000000 		.4byte	.LFE67
 7522 0ac6 0400     		.2byte	0x4
 7523 0ac8 F3       		.byte	0xf3
 7524 0ac9 01       		.uleb128 0x1
 7525 0aca 51       		.byte	0x51
 7526 0acb 9F       		.byte	0x9f
 7527 0acc 00000000 		.4byte	0
 7528 0ad0 00000000 		.4byte	0
 7529              	.LLST63:
 7530 0ad4 72000000 		.4byte	.LVL230
 7531 0ad8 8A000000 		.4byte	.LVL231
 7532 0adc 0100     		.2byte	0x1
 7533 0ade 53       		.byte	0x53
 7534 0adf 8E000000 		.4byte	.LVL232
 7535 0ae3 94000000 		.4byte	.LVL233
 7536 0ae7 0100     		.2byte	0x1
 7537 0ae9 53       		.byte	0x53
 7538 0aea 00000000 		.4byte	0
 7539 0aee 00000000 		.4byte	0
 7540              	.LLST64:
ARM GAS  C:\Users\gjl\AppData\Local\Temp\cc7xIfgu.s 			page 166


 7541 0af2 00000000 		.4byte	.LVL236
 7542 0af6 12000000 		.4byte	.LVL237
 7543 0afa 0100     		.2byte	0x1
 7544 0afc 50       		.byte	0x50
 7545 0afd 12000000 		.4byte	.LVL237
 7546 0b01 14000000 		.4byte	.LVL238
 7547 0b05 0400     		.2byte	0x4
 7548 0b07 F3       		.byte	0xf3
 7549 0b08 01       		.uleb128 0x1
 7550 0b09 50       		.byte	0x50
 7551 0b0a 9F       		.byte	0x9f
 7552 0b0b 14000000 		.4byte	.LVL238
 7553 0b0f 16000000 		.4byte	.LVL239
 7554 0b13 0100     		.2byte	0x1
 7555 0b15 50       		.byte	0x50
 7556 0b16 16000000 		.4byte	.LVL239
 7557 0b1a 1C000000 		.4byte	.LFE68
 7558 0b1e 0400     		.2byte	0x4
 7559 0b20 F3       		.byte	0xf3
 7560 0b21 01       		.uleb128 0x1
 7561 0b22 50       		.byte	0x50
 7562 0b23 9F       		.byte	0x9f
 7563 0b24 00000000 		.4byte	0
 7564 0b28 00000000 		.4byte	0
 7565              	.LLST65:
 7566 0b2c 00000000 		.4byte	.LVL240
 7567 0b30 10000000 		.4byte	.LVL241
 7568 0b34 0100     		.2byte	0x1
 7569 0b36 50       		.byte	0x50
 7570 0b37 10000000 		.4byte	.LVL241
 7571 0b3b 12000000 		.4byte	.LVL242
 7572 0b3f 0400     		.2byte	0x4
 7573 0b41 F3       		.byte	0xf3
 7574 0b42 01       		.uleb128 0x1
 7575 0b43 50       		.byte	0x50
 7576 0b44 9F       		.byte	0x9f
 7577 0b45 12000000 		.4byte	.LVL242
 7578 0b49 14000000 		.4byte	.LVL243
 7579 0b4d 0100     		.2byte	0x1
 7580 0b4f 50       		.byte	0x50
 7581 0b50 14000000 		.4byte	.LVL243
 7582 0b54 1C000000 		.4byte	.LFE69
 7583 0b58 0400     		.2byte	0x4
 7584 0b5a F3       		.byte	0xf3
 7585 0b5b 01       		.uleb128 0x1
 7586 0b5c 50       		.byte	0x50
 7587 0b5d 9F       		.byte	0x9f
 7588 0b5e 00000000 		.4byte	0
 7589 0b62 00000000 		.4byte	0
 7590              	.LLST66:
 7591 0b66 00000000 		.4byte	.LVL244
 7592 0b6a 12000000 		.4byte	.LVL245
 7593 0b6e 0100     		.2byte	0x1
 7594 0b70 50       		.byte	0x50
 7595 0b71 12000000 		.4byte	.LVL245
 7596 0b75 14000000 		.4byte	.LVL246
 7597 0b79 0400     		.2byte	0x4
ARM GAS  C:\Users\gjl\AppData\Local\Temp\cc7xIfgu.s 			page 167


 7598 0b7b F3       		.byte	0xf3
 7599 0b7c 01       		.uleb128 0x1
 7600 0b7d 50       		.byte	0x50
 7601 0b7e 9F       		.byte	0x9f
 7602 0b7f 14000000 		.4byte	.LVL246
 7603 0b83 16000000 		.4byte	.LVL247
 7604 0b87 0100     		.2byte	0x1
 7605 0b89 50       		.byte	0x50
 7606 0b8a 16000000 		.4byte	.LVL247
 7607 0b8e 1C000000 		.4byte	.LFE70
 7608 0b92 0400     		.2byte	0x4
 7609 0b94 F3       		.byte	0xf3
 7610 0b95 01       		.uleb128 0x1
 7611 0b96 50       		.byte	0x50
 7612 0b97 9F       		.byte	0x9f
 7613 0b98 00000000 		.4byte	0
 7614 0b9c 00000000 		.4byte	0
 7615              	.LLST67:
 7616 0ba0 00000000 		.4byte	.LVL248
 7617 0ba4 10000000 		.4byte	.LVL249
 7618 0ba8 0100     		.2byte	0x1
 7619 0baa 50       		.byte	0x50
 7620 0bab 10000000 		.4byte	.LVL249
 7621 0baf 12000000 		.4byte	.LVL250
 7622 0bb3 0400     		.2byte	0x4
 7623 0bb5 F3       		.byte	0xf3
 7624 0bb6 01       		.uleb128 0x1
 7625 0bb7 50       		.byte	0x50
 7626 0bb8 9F       		.byte	0x9f
 7627 0bb9 12000000 		.4byte	.LVL250
 7628 0bbd 14000000 		.4byte	.LVL251
 7629 0bc1 0100     		.2byte	0x1
 7630 0bc3 50       		.byte	0x50
 7631 0bc4 14000000 		.4byte	.LVL251
 7632 0bc8 1C000000 		.4byte	.LFE71
 7633 0bcc 0400     		.2byte	0x4
 7634 0bce F3       		.byte	0xf3
 7635 0bcf 01       		.uleb128 0x1
 7636 0bd0 50       		.byte	0x50
 7637 0bd1 9F       		.byte	0x9f
 7638 0bd2 00000000 		.4byte	0
 7639 0bd6 00000000 		.4byte	0
 7640              		.section	.debug_aranges,"",%progbits
 7641 0000 34010000 		.4byte	0x134
 7642 0004 0200     		.2byte	0x2
 7643 0006 00000000 		.4byte	.Ldebug_info0
 7644 000a 04       		.byte	0x4
 7645 000b 00       		.byte	0
 7646 000c 0000     		.2byte	0
 7647 000e 0000     		.2byte	0
 7648 0010 00000000 		.4byte	.LFB36
 7649 0014 BC000000 		.4byte	.LFE36-.LFB36
 7650 0018 00000000 		.4byte	.LFB37
 7651 001c AC000000 		.4byte	.LFE37-.LFB37
 7652 0020 00000000 		.4byte	.LFB38
 7653 0024 28000000 		.4byte	.LFE38-.LFB38
 7654 0028 00000000 		.4byte	.LFB39
ARM GAS  C:\Users\gjl\AppData\Local\Temp\cc7xIfgu.s 			page 168


 7655 002c A4000000 		.4byte	.LFE39-.LFB39
 7656 0030 00000000 		.4byte	.LFB40
 7657 0034 1C000000 		.4byte	.LFE40-.LFB40
 7658 0038 00000000 		.4byte	.LFB41
 7659 003c 1C000000 		.4byte	.LFE41-.LFB41
 7660 0040 00000000 		.4byte	.LFB42
 7661 0044 B8000000 		.4byte	.LFE42-.LFB42
 7662 0048 00000000 		.4byte	.LFB43
 7663 004c E0000000 		.4byte	.LFE43-.LFB43
 7664 0050 00000000 		.4byte	.LFB44
 7665 0054 1C000000 		.4byte	.LFE44-.LFB44
 7666 0058 00000000 		.4byte	.LFB45
 7667 005c 1C000000 		.4byte	.LFE45-.LFB45
 7668 0060 00000000 		.4byte	.LFB46
 7669 0064 1C000000 		.4byte	.LFE46-.LFB46
 7670 0068 00000000 		.4byte	.LFB47
 7671 006c 1C000000 		.4byte	.LFE47-.LFB47
 7672 0070 00000000 		.4byte	.LFB48
 7673 0074 C0000000 		.4byte	.LFE48-.LFB48
 7674 0078 00000000 		.4byte	.LFB49
 7675 007c F4000000 		.4byte	.LFE49-.LFB49
 7676 0080 00000000 		.4byte	.LFB50
 7677 0084 1C000000 		.4byte	.LFE50-.LFB50
 7678 0088 00000000 		.4byte	.LFB51
 7679 008c 1C000000 		.4byte	.LFE51-.LFB51
 7680 0090 00000000 		.4byte	.LFB52
 7681 0094 1C000000 		.4byte	.LFE52-.LFB52
 7682 0098 00000000 		.4byte	.LFB53
 7683 009c 1C000000 		.4byte	.LFE53-.LFB53
 7684 00a0 00000000 		.4byte	.LFB54
 7685 00a4 BC000000 		.4byte	.LFE54-.LFB54
 7686 00a8 00000000 		.4byte	.LFB55
 7687 00ac B4000000 		.4byte	.LFE55-.LFB55
 7688 00b0 00000000 		.4byte	.LFB56
 7689 00b4 1C000000 		.4byte	.LFE56-.LFB56
 7690 00b8 00000000 		.4byte	.LFB57
 7691 00bc 1C000000 		.4byte	.LFE57-.LFB57
 7692 00c0 00000000 		.4byte	.LFB58
 7693 00c4 1C000000 		.4byte	.LFE58-.LFB58
 7694 00c8 00000000 		.4byte	.LFB59
 7695 00cc 1C000000 		.4byte	.LFE59-.LFB59
 7696 00d0 00000000 		.4byte	.LFB60
 7697 00d4 C0000000 		.4byte	.LFE60-.LFB60
 7698 00d8 00000000 		.4byte	.LFB61
 7699 00dc B8000000 		.4byte	.LFE61-.LFB61
 7700 00e0 00000000 		.4byte	.LFB62
 7701 00e4 1C000000 		.4byte	.LFE62-.LFB62
 7702 00e8 00000000 		.4byte	.LFB63
 7703 00ec 1C000000 		.4byte	.LFE63-.LFB63
 7704 00f0 00000000 		.4byte	.LFB64
 7705 00f4 1C000000 		.4byte	.LFE64-.LFB64
 7706 00f8 00000000 		.4byte	.LFB65
 7707 00fc 1C000000 		.4byte	.LFE65-.LFB65
 7708 0100 00000000 		.4byte	.LFB66
 7709 0104 BC000000 		.4byte	.LFE66-.LFB66
 7710 0108 00000000 		.4byte	.LFB67
 7711 010c B8000000 		.4byte	.LFE67-.LFB67
ARM GAS  C:\Users\gjl\AppData\Local\Temp\cc7xIfgu.s 			page 169


 7712 0110 00000000 		.4byte	.LFB68
 7713 0114 1C000000 		.4byte	.LFE68-.LFB68
 7714 0118 00000000 		.4byte	.LFB69
 7715 011c 1C000000 		.4byte	.LFE69-.LFB69
 7716 0120 00000000 		.4byte	.LFB70
 7717 0124 1C000000 		.4byte	.LFE70-.LFB70
 7718 0128 00000000 		.4byte	.LFB71
 7719 012c 1C000000 		.4byte	.LFE71-.LFB71
 7720 0130 00000000 		.4byte	0
 7721 0134 00000000 		.4byte	0
 7722              		.section	.debug_ranges,"",%progbits
 7723              	.Ldebug_ranges0:
 7724 0000 00000000 		.4byte	.LFB36
 7725 0004 BC000000 		.4byte	.LFE36
 7726 0008 00000000 		.4byte	.LFB37
 7727 000c AC000000 		.4byte	.LFE37
 7728 0010 00000000 		.4byte	.LFB38
 7729 0014 28000000 		.4byte	.LFE38
 7730 0018 00000000 		.4byte	.LFB39
 7731 001c A4000000 		.4byte	.LFE39
 7732 0020 00000000 		.4byte	.LFB40
 7733 0024 1C000000 		.4byte	.LFE40
 7734 0028 00000000 		.4byte	.LFB41
 7735 002c 1C000000 		.4byte	.LFE41
 7736 0030 00000000 		.4byte	.LFB42
 7737 0034 B8000000 		.4byte	.LFE42
 7738 0038 00000000 		.4byte	.LFB43
 7739 003c E0000000 		.4byte	.LFE43
 7740 0040 00000000 		.4byte	.LFB44
 7741 0044 1C000000 		.4byte	.LFE44
 7742 0048 00000000 		.4byte	.LFB45
 7743 004c 1C000000 		.4byte	.LFE45
 7744 0050 00000000 		.4byte	.LFB46
 7745 0054 1C000000 		.4byte	.LFE46
 7746 0058 00000000 		.4byte	.LFB47
 7747 005c 1C000000 		.4byte	.LFE47
 7748 0060 00000000 		.4byte	.LFB48
 7749 0064 C0000000 		.4byte	.LFE48
 7750 0068 00000000 		.4byte	.LFB49
 7751 006c F4000000 		.4byte	.LFE49
 7752 0070 00000000 		.4byte	.LFB50
 7753 0074 1C000000 		.4byte	.LFE50
 7754 0078 00000000 		.4byte	.LFB51
 7755 007c 1C000000 		.4byte	.LFE51
 7756 0080 00000000 		.4byte	.LFB52
 7757 0084 1C000000 		.4byte	.LFE52
 7758 0088 00000000 		.4byte	.LFB53
 7759 008c 1C000000 		.4byte	.LFE53
 7760 0090 00000000 		.4byte	.LFB54
 7761 0094 BC000000 		.4byte	.LFE54
 7762 0098 00000000 		.4byte	.LFB55
 7763 009c B4000000 		.4byte	.LFE55
 7764 00a0 00000000 		.4byte	.LFB56
 7765 00a4 1C000000 		.4byte	.LFE56
 7766 00a8 00000000 		.4byte	.LFB57
 7767 00ac 1C000000 		.4byte	.LFE57
 7768 00b0 00000000 		.4byte	.LFB58
ARM GAS  C:\Users\gjl\AppData\Local\Temp\cc7xIfgu.s 			page 170


 7769 00b4 1C000000 		.4byte	.LFE58
 7770 00b8 00000000 		.4byte	.LFB59
 7771 00bc 1C000000 		.4byte	.LFE59
 7772 00c0 00000000 		.4byte	.LFB60
 7773 00c4 C0000000 		.4byte	.LFE60
 7774 00c8 00000000 		.4byte	.LFB61
 7775 00cc B8000000 		.4byte	.LFE61
 7776 00d0 00000000 		.4byte	.LFB62
 7777 00d4 1C000000 		.4byte	.LFE62
 7778 00d8 00000000 		.4byte	.LFB63
 7779 00dc 1C000000 		.4byte	.LFE63
 7780 00e0 00000000 		.4byte	.LFB64
 7781 00e4 1C000000 		.4byte	.LFE64
 7782 00e8 00000000 		.4byte	.LFB65
 7783 00ec 1C000000 		.4byte	.LFE65
 7784 00f0 00000000 		.4byte	.LFB66
 7785 00f4 BC000000 		.4byte	.LFE66
 7786 00f8 00000000 		.4byte	.LFB67
 7787 00fc B8000000 		.4byte	.LFE67
 7788 0100 00000000 		.4byte	.LFB68
 7789 0104 1C000000 		.4byte	.LFE68
 7790 0108 00000000 		.4byte	.LFB69
 7791 010c 1C000000 		.4byte	.LFE69
 7792 0110 00000000 		.4byte	.LFB70
 7793 0114 1C000000 		.4byte	.LFE70
 7794 0118 00000000 		.4byte	.LFB71
 7795 011c 1C000000 		.4byte	.LFE71
 7796 0120 00000000 		.4byte	0
 7797 0124 00000000 		.4byte	0
 7798              		.section	.debug_line,"",%progbits
 7799              	.Ldebug_line0:
 7800 0000 94070000 		.section	.debug_str,"MS",%progbits,1
 7800      02003602 
 7800      00000201 
 7800      FB0E0D00 
 7800      01010101 
 7801              	.LASF79:
 7802 0000 43595F50 		.ascii	"CY_PROT_SIZE_512B\000"
 7802      524F545F 
 7802      53495A45 
 7802      5F353132 
 7802      4200
 7803              	.LASF45:
 7804 0012 4D533130 		.ascii	"MS10_CTL\000"
 7804      5F43544C 
 7804      00
 7805              	.LASF116:
 7806 001b 63795F73 		.ascii	"cy_stc_ppu_gr_cfg_t\000"
 7806      74635F70 
 7806      70755F67 
 7806      725F6366 
 7806      675F7400 
 7807              	.LASF66:
 7808 002f 43595F50 		.ascii	"CY_PROT_BAD_PARAM\000"
 7808      524F545F 
 7808      4241445F 
 7808      50415241 
ARM GAS  C:\Users\gjl\AppData\Local\Temp\cc7xIfgu.s 			page 171


 7808      4D00
 7809              	.LASF118:
 7810 0041 63795F73 		.ascii	"cy_stc_ppu_rg_cfg_t\000"
 7810      74635F70 
 7810      70755F72 
 7810      675F6366 
 7810      675F7400 
 7811              	.LASF142:
 7812 0055 43795F50 		.ascii	"Cy_Prot_ConfigPpuProgSlaveStruct\000"
 7812      726F745F 
 7812      436F6E66 
 7812      69675070 
 7812      7550726F 
 7813              	.LASF161:
 7814 0076 43795F50 		.ascii	"Cy_Prot_EnablePpuFixedRgMasterStruct\000"
 7814      726F745F 
 7814      456E6162 
 7814      6C655070 
 7814      75466978 
 7815              	.LASF6:
 7816 009b 5F5F7569 		.ascii	"__uint8_t\000"
 7816      6E74385F 
 7816      7400
 7817              	.LASF136:
 7818 00a5 43795F50 		.ascii	"Cy_Prot_ConfigSmpuSlaveStruct\000"
 7818      726F745F 
 7818      436F6E66 
 7818      6967536D 
 7818      7075536C 
 7819              	.LASF71:
 7820 00c3 43595F50 		.ascii	"CY_PROT_PERM_W\000"
 7820      524F545F 
 7820      5045524D 
 7820      5F5700
 7821              	.LASF162:
 7822 00d2 43795F50 		.ascii	"Cy_Prot_DisablePpuFixedRgMasterStruct\000"
 7822      726F745F 
 7822      44697361 
 7822      626C6550 
 7822      70754669 
 7823              	.LASF31:
 7824 00f8 50455249 		.ascii	"PERI_PPU_GR_Type\000"
 7824      5F505055 
 7824      5F47525F 
 7824      54797065 
 7824      00
 7825              	.LASF131:
 7826 0109 61646472 		.ascii	"addrReg\000"
 7826      52656700 
 7827              	.LASF12:
 7828 0111 6C6F6E67 		.ascii	"long long unsigned int\000"
 7828      206C6F6E 
 7828      6720756E 
 7828      7369676E 
 7828      65642069 
 7829              	.LASF76:
 7830 0128 43595F50 		.ascii	"CY_PROT_PERM_RWX\000"
ARM GAS  C:\Users\gjl\AppData\Local\Temp\cc7xIfgu.s 			page 172


 7830      524F545F 
 7830      5045524D 
 7830      5F525758 
 7830      00
 7831              	.LASF58:
 7832 0139 534D5055 		.ascii	"SMPU\000"
 7832      00
 7833              	.LASF70:
 7834 013e 43595F50 		.ascii	"CY_PROT_PERM_R\000"
 7834      524F545F 
 7834      5045524D 
 7834      5F5200
 7835              	.LASF42:
 7836 014d 4D53375F 		.ascii	"MS7_CTL\000"
 7836      43544C00 
 7837              	.LASF53:
 7838 0155 41444452 		.ascii	"ADDR\000"
 7838      00
 7839              	.LASF127:
 7840 015a 43795F50 		.ascii	"Cy_Prot_GetActivePC\000"
 7840      726F745F 
 7840      47657441 
 7840      63746976 
 7840      65504300 
 7841              	.LASF1:
 7842 016e 6C6F6E67 		.ascii	"long long int\000"
 7842      206C6F6E 
 7842      6720696E 
 7842      7400
 7843              	.LASF3:
 7844 017c 7369676E 		.ascii	"signed char\000"
 7844      65642063 
 7844      68617200 
 7845              	.LASF78:
 7846 0188 43595F50 		.ascii	"CY_PROT_SIZE_256B\000"
 7846      524F545F 
 7846      53495A45 
 7846      5F323536 
 7846      4200
 7847              	.LASF60:
 7848 019a 50524F54 		.ascii	"PROT_Type\000"
 7848      5F547970 
 7848      6500
 7849              	.LASF134:
 7850 01a4 43795F50 		.ascii	"Cy_Prot_DisableMpuStruct\000"
 7850      726F745F 
 7850      44697361 
 7850      626C654D 
 7850      70755374 
 7851              	.LASF50:
 7852 01bd 4D533135 		.ascii	"MS15_CTL\000"
 7852      5F43544C 
 7852      00
 7853              	.LASF18:
 7854 01c6 43505553 		.ascii	"CPUSS_MS_ID_CRYPTO\000"
 7854      535F4D53 
 7854      5F49445F 
ARM GAS  C:\Users\gjl\AppData\Local\Temp\cc7xIfgu.s 			page 173


 7854      43525950 
 7854      544F00
 7855              	.LASF148:
 7856 01d9 43795F50 		.ascii	"Cy_Prot_ConfigPpuFixedGrSlaveStruct\000"
 7856      726F745F 
 7856      436F6E66 
 7856      69675070 
 7856      75466978 
 7857              	.LASF150:
 7858 01fd 43795F50 		.ascii	"Cy_Prot_DisablePpuFixedGrMasterStruct\000"
 7858      726F745F 
 7858      44697361 
 7858      626C6550 
 7858      70754669 
 7859              	.LASF83:
 7860 0223 43595F50 		.ascii	"CY_PROT_SIZE_8KB\000"
 7860      524F545F 
 7860      53495A45 
 7860      5F384B42 
 7860      00
 7861              	.LASF157:
 7862 0234 43795F50 		.ascii	"Cy_Prot_EnablePpuFixedSlSlaveStruct\000"
 7862      726F745F 
 7862      456E6162 
 7862      6C655070 
 7862      75466978 
 7863              	.LASF135:
 7864 0258 43795F50 		.ascii	"Cy_Prot_ConfigSmpuMasterStruct\000"
 7864      726F745F 
 7864      436F6E66 
 7864      6967536D 
 7864      70754D61 
 7865              	.LASF9:
 7866 0277 6C6F6E67 		.ascii	"long int\000"
 7866      20696E74 
 7866      00
 7867              	.LASF113:
 7868 0280 70634D61 		.ascii	"pcMask\000"
 7868      736B00
 7869              	.LASF23:
 7870 0287 656E5F70 		.ascii	"en_prot_master_t\000"
 7870      726F745F 
 7870      6D617374 
 7870      65725F74 
 7870      00
 7871              	.LASF14:
 7872 0298 75696E74 		.ascii	"uint16_t\000"
 7872      31365F74 
 7872      00
 7873              	.LASF64:
 7874 02a1 646F7562 		.ascii	"double\000"
 7874      6C6500
 7875              	.LASF39:
 7876 02a8 4D53345F 		.ascii	"MS4_CTL\000"
 7876      43544C00 
 7877              	.LASF54:
 7878 02b0 50524F54 		.ascii	"PROT_MPU_MPU_STRUCT_Type\000"
ARM GAS  C:\Users\gjl\AppData\Local\Temp\cc7xIfgu.s 			page 174


 7878      5F4D5055 
 7878      5F4D5055 
 7878      5F535452 
 7878      5543545F 
 7879              	.LASF81:
 7880 02c9 43595F50 		.ascii	"CY_PROT_SIZE_2KB\000"
 7880      524F545F 
 7880      53495A45 
 7880      5F324B42 
 7880      00
 7881              	.LASF149:
 7882 02da 43795F50 		.ascii	"Cy_Prot_EnablePpuFixedGrMasterStruct\000"
 7882      726F745F 
 7882      456E6162 
 7882      6C655070 
 7882      75466978 
 7883              	.LASF25:
 7884 02ff 41545430 		.ascii	"ATT0\000"
 7884      00
 7885              	.LASF126:
 7886 0304 61646472 		.ascii	"addrMpu\000"
 7886      4D707500 
 7887              	.LASF10:
 7888 030c 5F5F7569 		.ascii	"__uint32_t\000"
 7888      6E743332 
 7888      5F7400
 7889              	.LASF56:
 7890 0317 4D50555F 		.ascii	"MPU_STRUCT\000"
 7890      53545255 
 7890      435400
 7891              	.LASF156:
 7892 0322 43795F50 		.ascii	"Cy_Prot_DisablePpuFixedSlMasterStruct\000"
 7892      726F745F 
 7892      44697361 
 7892      626C6550 
 7892      70754669 
 7893              	.LASF158:
 7894 0348 43795F50 		.ascii	"Cy_Prot_DisablePpuFixedSlSlaveStruct\000"
 7894      726F745F 
 7894      44697361 
 7894      626C6550 
 7894      70754669 
 7895              	.LASF69:
 7896 036d 43595F50 		.ascii	"CY_PROT_PERM_DISABLED\000"
 7896      524F545F 
 7896      5045524D 
 7896      5F444953 
 7896      41424C45 
 7897              	.LASF164:
 7898 0383 43795F50 		.ascii	"Cy_Prot_DisablePpuFixedRgSlaveStruct\000"
 7898      726F745F 
 7898      44697361 
 7898      626C6550 
 7898      70754669 
 7899              	.LASF115:
 7900 03a8 63795F73 		.ascii	"cy_stc_ppu_prog_cfg_t\000"
 7900      74635F70 
ARM GAS  C:\Users\gjl\AppData\Local\Temp\cc7xIfgu.s 			page 175


 7900      70755F70 
 7900      726F675F 
 7900      6366675F 
 7901              	.LASF0:
 7902 03be 756E7369 		.ascii	"unsigned int\000"
 7902      676E6564 
 7902      20696E74 
 7902      00
 7903              	.LASF88:
 7904 03cb 43595F50 		.ascii	"CY_PROT_SIZE_256KB\000"
 7904      524F545F 
 7904      53495A45 
 7904      5F323536 
 7904      4B4200
 7905              	.LASF120:
 7906 03de 70726976 		.ascii	"privileged\000"
 7906      696C6567 
 7906      656400
 7907              	.LASF61:
 7908 03e9 63686172 		.ascii	"char_t\000"
 7908      5F7400
 7909              	.LASF65:
 7910 03f0 43595F50 		.ascii	"CY_PROT_SUCCESS\000"
 7910      524F545F 
 7910      53554343 
 7910      45535300 
 7911              	.LASF85:
 7912 0400 43595F50 		.ascii	"CY_PROT_SIZE_32KB\000"
 7912      524F545F 
 7912      53495A45 
 7912      5F33324B 
 7912      4200
 7913              	.LASF11:
 7914 0412 6C6F6E67 		.ascii	"long unsigned int\000"
 7914      20756E73 
 7914      69676E65 
 7914      6420696E 
 7914      7400
 7915              	.LASF36:
 7916 0424 4D53315F 		.ascii	"MS1_CTL\000"
 7916      43544C00 
 7917              	.LASF86:
 7918 042c 43595F50 		.ascii	"CY_PROT_SIZE_64KB\000"
 7918      524F545F 
 7918      53495A45 
 7918      5F36344B 
 7918      4200
 7919              	.LASF68:
 7920 043e 63795F65 		.ascii	"cy_en_prot_status_t\000"
 7920      6E5F7072 
 7920      6F745F73 
 7920      74617475 
 7920      735F7400 
 7921              	.LASF102:
 7922 0452 43595F50 		.ascii	"CY_PROT_SIZE_4GB\000"
 7922      524F545F 
 7922      53495A45 
ARM GAS  C:\Users\gjl\AppData\Local\Temp\cc7xIfgu.s 			page 176


 7922      5F344742 
 7922      00
 7923              	.LASF89:
 7924 0463 43595F50 		.ascii	"CY_PROT_SIZE_512KB\000"
 7924      524F545F 
 7924      53495A45 
 7924      5F353132 
 7924      4B4200
 7925              	.LASF44:
 7926 0476 4D53395F 		.ascii	"MS9_CTL\000"
 7926      43544C00 
 7927              	.LASF111:
 7928 047e 63795F73 		.ascii	"cy_stc_mpu_cfg_t\000"
 7928      74635F6D 
 7928      70755F63 
 7928      66675F74 
 7928      00
 7929              	.LASF8:
 7930 048f 73686F72 		.ascii	"short unsigned int\000"
 7930      7420756E 
 7930      7369676E 
 7930      65642069 
 7930      6E7400
 7931              	.LASF24:
 7932 04a2 41444452 		.ascii	"ADDR0\000"
 7932      3000
 7933              	.LASF27:
 7934 04a8 41444452 		.ascii	"ADDR1\000"
 7934      3100
 7935              	.LASF166:
 7936 04ae 47656E65 		.ascii	"Generated_Source\\PSoC6\\pdl\\drivers\\peripheral\\"
 7936      72617465 
 7936      645F536F 
 7936      75726365 
 7936      5C50536F 
 7937 04dc 70726F74 		.ascii	"prot\\cy_prot.c\000"
 7937      5C63795F 
 7937      70726F74 
 7937      2E6300
 7938              	.LASF163:
 7939 04eb 43795F50 		.ascii	"Cy_Prot_EnablePpuFixedRgSlaveStruct\000"
 7939      726F745F 
 7939      456E6162 
 7939      6C655070 
 7939      75466978 
 7940              	.LASF125:
 7941 050f 43795F50 		.ascii	"Cy_Prot_SetActivePC\000"
 7941      726F745F 
 7941      53657441 
 7941      63746976 
 7941      65504300 
 7942              	.LASF32:
 7943 0523 50455249 		.ascii	"PERI_GR_PPU_SL_Type\000"
 7943      5F47525F 
 7943      5050555F 
 7943      534C5F54 
 7943      79706500 
ARM GAS  C:\Users\gjl\AppData\Local\Temp\cc7xIfgu.s 			page 177


 7944              	.LASF155:
 7945 0537 43795F50 		.ascii	"Cy_Prot_EnablePpuFixedSlMasterStruct\000"
 7945      726F745F 
 7945      456E6162 
 7945      6C655070 
 7945      75466978 
 7946              	.LASF122:
 7947 055c 72656756 		.ascii	"regVal\000"
 7947      616C00
 7948              	.LASF93:
 7949 0563 43595F50 		.ascii	"CY_PROT_SIZE_8MB\000"
 7949      524F545F 
 7949      53495A45 
 7949      5F384D42 
 7949      00
 7950              	.LASF80:
 7951 0574 43595F50 		.ascii	"CY_PROT_SIZE_1KB\000"
 7951      524F545F 
 7951      53495A45 
 7951      5F314B42 
 7951      00
 7952              	.LASF84:
 7953 0585 43595F50 		.ascii	"CY_PROT_SIZE_16KB\000"
 7953      524F545F 
 7953      53495A45 
 7953      5F31364B 
 7953      4200
 7954              	.LASF57:
 7955 0597 50524F54 		.ascii	"PROT_MPU_Type\000"
 7955      5F4D5055 
 7955      5F547970 
 7955      6500
 7956              	.LASF119:
 7957 05a5 6275734D 		.ascii	"busMaster\000"
 7957      61737465 
 7957      7200
 7958              	.LASF129:
 7959 05af 62617365 		.ascii	"base\000"
 7959      00
 7960              	.LASF141:
 7961 05b4 43795F50 		.ascii	"Cy_Prot_ConfigPpuProgMasterStruct\000"
 7961      726F745F 
 7961      436F6E66 
 7961      69675070 
 7961      7550726F 
 7962              	.LASF41:
 7963 05d6 4D53365F 		.ascii	"MS6_CTL\000"
 7963      43544C00 
 7964              	.LASF75:
 7965 05de 43595F50 		.ascii	"CY_PROT_PERM_WX\000"
 7965      524F545F 
 7965      5045524D 
 7965      5F575800 
 7966              	.LASF107:
 7967 05ee 75736572 		.ascii	"userPermission\000"
 7967      5065726D 
 7967      69737369 
ARM GAS  C:\Users\gjl\AppData\Local\Temp\cc7xIfgu.s 			page 178


 7967      6F6E00
 7968              	.LASF104:
 7969 05fd 61646472 		.ascii	"address\000"
 7969      65737300 
 7970              	.LASF59:
 7971 0605 43594D50 		.ascii	"CYMPU\000"
 7971      5500
 7972              	.LASF55:
 7973 060b 4D535F43 		.ascii	"MS_CTL\000"
 7973      544C00
 7974              	.LASF91:
 7975 0612 43595F50 		.ascii	"CY_PROT_SIZE_2MB\000"
 7975      524F545F 
 7975      53495A45 
 7975      5F324D42 
 7975      00
 7976              	.LASF138:
 7977 0623 43795F50 		.ascii	"Cy_Prot_DisableSmpuMasterStruct\000"
 7977      726F745F 
 7977      44697361 
 7977      626C6553 
 7977      6D70754D 
 7978              	.LASF49:
 7979 0643 4D533134 		.ascii	"MS14_CTL\000"
 7979      5F43544C 
 7979      00
 7980              	.LASF139:
 7981 064c 43795F50 		.ascii	"Cy_Prot_EnableSmpuSlaveStruct\000"
 7981      726F745F 
 7981      456E6162 
 7981      6C65536D 
 7981      7075536C 
 7982              	.LASF143:
 7983 066a 43795F50 		.ascii	"Cy_Prot_EnablePpuProgMasterStruct\000"
 7983      726F745F 
 7983      456E6162 
 7983      6C655070 
 7983      7550726F 
 7984              	.LASF124:
 7985 068c 43795F50 		.ascii	"Cy_Prot_ConfigBusMaster\000"
 7985      726F745F 
 7985      436F6E66 
 7985      69674275 
 7985      734D6173 
 7986              	.LASF21:
 7987 06a4 43505553 		.ascii	"CPUSS_MS_ID_CM4\000"
 7987      535F4D53 
 7987      5F49445F 
 7987      434D3400 
 7988              	.LASF108:
 7989 06b4 70726976 		.ascii	"privPermission\000"
 7989      5065726D 
 7989      69737369 
 7989      6F6E00
 7990              	.LASF151:
 7991 06c3 43795F50 		.ascii	"Cy_Prot_EnablePpuFixedGrSlaveStruct\000"
 7991      726F745F 
ARM GAS  C:\Users\gjl\AppData\Local\Temp\cc7xIfgu.s 			page 179


 7991      456E6162 
 7991      6C655070 
 7991      75466978 
 7992              	.LASF98:
 7993 06e7 43595F50 		.ascii	"CY_PROT_SIZE_256MB\000"
 7993      524F545F 
 7993      53495A45 
 7993      5F323536 
 7993      4D4200
 7994              	.LASF73:
 7995 06fa 43595F50 		.ascii	"CY_PROT_PERM_X\000"
 7995      524F545F 
 7995      5045524D 
 7995      5F5800
 7996              	.LASF133:
 7997 0709 43795F50 		.ascii	"Cy_Prot_EnableMpuStruct\000"
 7997      726F745F 
 7997      456E6162 
 7997      6C654D70 
 7997      75537472 
 7998              	.LASF137:
 7999 0721 43795F50 		.ascii	"Cy_Prot_EnableSmpuMasterStruct\000"
 7999      726F745F 
 7999      456E6162 
 7999      6C65536D 
 7999      70754D61 
 8000              	.LASF95:
 8001 0740 43595F50 		.ascii	"CY_PROT_SIZE_32MB\000"
 8001      524F545F 
 8001      53495A45 
 8001      5F33324D 
 8001      4200
 8002              	.LASF29:
 8003 0752 52455345 		.ascii	"RESERVED1\000"
 8003      52564544 
 8003      3100
 8004              	.LASF117:
 8005 075c 63795F73 		.ascii	"cy_stc_ppu_sl_cfg_t\000"
 8005      74635F70 
 8005      70755F73 
 8005      6C5F6366 
 8005      675F7400 
 8006              	.LASF109:
 8007 0770 73656375 		.ascii	"secure\000"
 8007      726500
 8008              	.LASF34:
 8009 0777 50524F54 		.ascii	"PROT_SMPU_SMPU_STRUCT_Type\000"
 8009      5F534D50 
 8009      555F534D 
 8009      50555F53 
 8009      54525543 
 8010              	.LASF92:
 8011 0792 43595F50 		.ascii	"CY_PROT_SIZE_4MB\000"
 8011      524F545F 
 8011      53495A45 
 8011      5F344D42 
 8011      00
ARM GAS  C:\Users\gjl\AppData\Local\Temp\cc7xIfgu.s 			page 180


 8012              	.LASF160:
 8013 07a3 43795F50 		.ascii	"Cy_Prot_ConfigPpuFixedRgSlaveStruct\000"
 8013      726F745F 
 8013      436F6E66 
 8013      69675070 
 8013      75466978 
 8014              	.LASF110:
 8015 07c7 5F426F6F 		.ascii	"_Bool\000"
 8015      6C00
 8016              	.LASF4:
 8017 07cd 756E7369 		.ascii	"unsigned char\000"
 8017      676E6564 
 8017      20636861 
 8017      7200
 8018              	.LASF128:
 8019 07db 43795F50 		.ascii	"Cy_Prot_ConfigMpuStruct\000"
 8019      726F745F 
 8019      436F6E66 
 8019      69674D70 
 8019      75537472 
 8020              	.LASF46:
 8021 07f3 4D533131 		.ascii	"MS11_CTL\000"
 8021      5F43544C 
 8021      00
 8022              	.LASF5:
 8023 07fc 73686F72 		.ascii	"short int\000"
 8023      7420696E 
 8023      7400
 8024              	.LASF87:
 8025 0806 43595F50 		.ascii	"CY_PROT_SIZE_128KB\000"
 8025      524F545F 
 8025      53495A45 
 8025      5F313238 
 8025      4B4200
 8026              	.LASF94:
 8027 0819 43595F50 		.ascii	"CY_PROT_SIZE_16MB\000"
 8027      524F545F 
 8027      53495A45 
 8027      5F31364D 
 8027      4200
 8028              	.LASF154:
 8029 082b 43795F50 		.ascii	"Cy_Prot_ConfigPpuFixedSlSlaveStruct\000"
 8029      726F745F 
 8029      436F6E66 
 8029      69675070 
 8029      75466978 
 8030              	.LASF47:
 8031 084f 4D533132 		.ascii	"MS12_CTL\000"
 8031      5F43544C 
 8031      00
 8032              	.LASF38:
 8033 0858 4D53335F 		.ascii	"MS3_CTL\000"
 8033      43544C00 
 8034              	.LASF103:
 8035 0860 63795F65 		.ascii	"cy_en_prot_size_t\000"
 8035      6E5F7072 
 8035      6F745F73 
ARM GAS  C:\Users\gjl\AppData\Local\Temp\cc7xIfgu.s 			page 181


 8035      697A655F 
 8035      7400
 8036              	.LASF152:
 8037 0872 43795F50 		.ascii	"Cy_Prot_DisablePpuFixedGrSlaveStruct\000"
 8037      726F745F 
 8037      44697361 
 8037      626C6550 
 8037      70754669 
 8038              	.LASF90:
 8039 0897 43595F50 		.ascii	"CY_PROT_SIZE_1MB\000"
 8039      524F545F 
 8039      53495A45 
 8039      5F314D42 
 8039      00
 8040              	.LASF140:
 8041 08a8 43795F50 		.ascii	"Cy_Prot_DisableSmpuSlaveStruct\000"
 8041      726F745F 
 8041      44697361 
 8041      626C6553 
 8041      6D707553 
 8042              	.LASF35:
 8043 08c7 4D53305F 		.ascii	"MS0_CTL\000"
 8043      43544C00 
 8044              	.LASF15:
 8045 08cf 75696E74 		.ascii	"uint32_t\000"
 8045      33325F74 
 8045      00
 8046              	.LASF159:
 8047 08d8 43795F50 		.ascii	"Cy_Prot_ConfigPpuFixedRgMasterStruct\000"
 8047      726F745F 
 8047      436F6E66 
 8047      69675070 
 8047      75466978 
 8048              	.LASF101:
 8049 08fd 43595F50 		.ascii	"CY_PROT_SIZE_2GB\000"
 8049      524F545F 
 8049      53495A45 
 8049      5F324742 
 8049      00
 8050              	.LASF165:
 8051 090e 474E5520 		.ascii	"GNU C11 5.4.1 20160609 (release) [ARM/embedded-5-br"
 8051      43313120 
 8051      352E342E 
 8051      31203230 
 8051      31363036 
 8052 0941 616E6368 		.ascii	"anch revision 237715] -mcpu=cortex-m0plus -mthumb -"
 8052      20726576 
 8052      6973696F 
 8052      6E203233 
 8052      37373135 
 8053 0974 67202D4F 		.ascii	"g -Og -ffunction-sections -ffat-lto-objects\000"
 8053      67202D66 
 8053      66756E63 
 8053      74696F6E 
 8053      2D736563 
 8054              	.LASF2:
 8055 09a0 6C6F6E67 		.ascii	"long double\000"
ARM GAS  C:\Users\gjl\AppData\Local\Temp\cc7xIfgu.s 			page 182


 8055      20646F75 
 8055      626C6500 
 8056              	.LASF62:
 8057 09ac 63686172 		.ascii	"char\000"
 8057      00
 8058              	.LASF130:
 8059 09b1 636F6E66 		.ascii	"config\000"
 8059      696700
 8060              	.LASF7:
 8061 09b8 5F5F7569 		.ascii	"__uint16_t\000"
 8061      6E743136 
 8061      5F7400
 8062              	.LASF17:
 8063 09c3 43505553 		.ascii	"CPUSS_MS_ID_CM0\000"
 8063      535F4D53 
 8063      5F49445F 
 8063      434D3000 
 8064              	.LASF167:
 8065 09d3 433A5C47 		.ascii	"C:\\Git\\PSoC6-101-Videos\\Projects_ScreenCapture\\"
 8065      69745C50 
 8065      536F4336 
 8065      2D313031 
 8065      2D566964 
 8066 0a02 50536F43 		.ascii	"PSoC 6_101\\RemoteControl.cydsn\000"
 8066      20365F31 
 8066      30315C52 
 8066      656D6F74 
 8066      65436F6E 
 8067              	.LASF26:
 8068 0a21 52455345 		.ascii	"RESERVED\000"
 8068      52564544 
 8068      00
 8069              	.LASF132:
 8070 0a2a 61747452 		.ascii	"attReg\000"
 8070      656700
 8071              	.LASF114:
 8072 0a31 63795F73 		.ascii	"cy_stc_smpu_cfg_t\000"
 8072      74635F73 
 8072      6D70755F 
 8072      6366675F 
 8072      7400
 8073              	.LASF51:
 8074 0a43 534D5055 		.ascii	"SMPU_STRUCT\000"
 8074      5F535452 
 8074      55435400 
 8075              	.LASF168:
 8076 0a4f 43795F53 		.ascii	"Cy_SysLib_AssertFailed\000"
 8076      79734C69 
 8076      625F4173 
 8076      73657274 
 8076      4661696C 
 8077              	.LASF67:
 8078 0a66 43595F50 		.ascii	"CY_PROT_FAILURE\000"
 8078      524F545F 
 8078      4641494C 
 8078      55524500 
 8079              	.LASF43:
ARM GAS  C:\Users\gjl\AppData\Local\Temp\cc7xIfgu.s 			page 183


 8080 0a76 4D53385F 		.ascii	"MS8_CTL\000"
 8080      43544C00 
 8081              	.LASF52:
 8082 0a7e 50524F54 		.ascii	"PROT_SMPU_Type\000"
 8082      5F534D50 
 8082      555F5479 
 8082      706500
 8083              	.LASF20:
 8084 0a8d 43505553 		.ascii	"CPUSS_MS_ID_DW1\000"
 8084      535F4D53 
 8084      5F49445F 
 8084      44573100 
 8085              	.LASF28:
 8086 0a9d 41545431 		.ascii	"ATT1\000"
 8086      00
 8087              	.LASF72:
 8088 0aa2 43595F50 		.ascii	"CY_PROT_PERM_RW\000"
 8088      524F545F 
 8088      5045524D 
 8088      5F525700 
 8089              	.LASF74:
 8090 0ab2 43595F50 		.ascii	"CY_PROT_PERM_RX\000"
 8090      524F545F 
 8090      5045524D 
 8090      5F525800 
 8091              	.LASF30:
 8092 0ac2 50455249 		.ascii	"PERI_PPU_PR_Type\000"
 8092      5F505055 
 8092      5F50525F 
 8092      54797065 
 8092      00
 8093              	.LASF144:
 8094 0ad3 43795F50 		.ascii	"Cy_Prot_DisablePpuProgMasterStruct\000"
 8094      726F745F 
 8094      44697361 
 8094      626C6550 
 8094      70755072 
 8095              	.LASF40:
 8096 0af6 4D53355F 		.ascii	"MS5_CTL\000"
 8096      43544C00 
 8097              	.LASF121:
 8098 0afe 73746174 		.ascii	"status\000"
 8098      757300
 8099              	.LASF96:
 8100 0b05 43595F50 		.ascii	"CY_PROT_SIZE_64MB\000"
 8100      524F545F 
 8100      53495A45 
 8100      5F36344D 
 8100      4200
 8101              	.LASF13:
 8102 0b17 75696E74 		.ascii	"uint8_t\000"
 8102      385F7400 
 8103              	.LASF82:
 8104 0b1f 43595F50 		.ascii	"CY_PROT_SIZE_4KB\000"
 8104      524F545F 
 8104      53495A45 
 8104      5F344B42 
ARM GAS  C:\Users\gjl\AppData\Local\Temp\cc7xIfgu.s 			page 184


 8104      00
 8105              	.LASF48:
 8106 0b30 4D533133 		.ascii	"MS13_CTL\000"
 8106      5F43544C 
 8106      00
 8107              	.LASF123:
 8108 0b39 61646472 		.ascii	"addrMsCtl\000"
 8108      4D734374 
 8108      6C00
 8109              	.LASF63:
 8110 0b43 666C6F61 		.ascii	"float\000"
 8110      7400
 8111              	.LASF16:
 8112 0b49 73697A65 		.ascii	"sizetype\000"
 8112      74797065 
 8112      00
 8113              	.LASF19:
 8114 0b52 43505553 		.ascii	"CPUSS_MS_ID_DW0\000"
 8114      535F4D53 
 8114      5F49445F 
 8114      44573000 
 8115              	.LASF100:
 8116 0b62 43595F50 		.ascii	"CY_PROT_SIZE_1GB\000"
 8116      524F545F 
 8116      53495A45 
 8116      5F314742 
 8116      00
 8117              	.LASF99:
 8118 0b73 43595F50 		.ascii	"CY_PROT_SIZE_512MB\000"
 8118      524F545F 
 8118      53495A45 
 8118      5F353132 
 8118      4D4200
 8119              	.LASF97:
 8120 0b86 43595F50 		.ascii	"CY_PROT_SIZE_128MB\000"
 8120      524F545F 
 8120      53495A45 
 8120      5F313238 
 8120      4D4200
 8121              	.LASF77:
 8122 0b99 63795F65 		.ascii	"cy_en_prot_perm_t\000"
 8122      6E5F7072 
 8122      6F745F70 
 8122      65726D5F 
 8122      7400
 8123              	.LASF106:
 8124 0bab 73756272 		.ascii	"subregions\000"
 8124      6567696F 
 8124      6E7300
 8125              	.LASF145:
 8126 0bb6 43795F50 		.ascii	"Cy_Prot_EnablePpuProgSlaveStruct\000"
 8126      726F745F 
 8126      456E6162 
 8126      6C655070 
 8126      7550726F 
 8127              	.LASF147:
 8128 0bd7 43795F50 		.ascii	"Cy_Prot_ConfigPpuFixedGrMasterStruct\000"
ARM GAS  C:\Users\gjl\AppData\Local\Temp\cc7xIfgu.s 			page 185


 8128      726F745F 
 8128      436F6E66 
 8128      69675070 
 8128      75466978 
 8129              	.LASF146:
 8130 0bfc 43795F50 		.ascii	"Cy_Prot_DisablePpuProgSlaveStruct\000"
 8130      726F745F 
 8130      44697361 
 8130      626C6550 
 8130      70755072 
 8131              	.LASF22:
 8132 0c1e 43505553 		.ascii	"CPUSS_MS_ID_TC\000"
 8132      535F4D53 
 8132      5F49445F 
 8132      544300
 8133              	.LASF37:
 8134 0c2d 4D53325F 		.ascii	"MS2_CTL\000"
 8134      43544C00 
 8135              	.LASF153:
 8136 0c35 43795F50 		.ascii	"Cy_Prot_ConfigPpuFixedSlMasterStruct\000"
 8136      726F745F 
 8136      436F6E66 
 8136      69675070 
 8136      75466978 
 8137              	.LASF105:
 8138 0c5a 72656769 		.ascii	"regionSize\000"
 8138      6F6E5369 
 8138      7A6500
 8139              	.LASF112:
 8140 0c65 70634D61 		.ascii	"pcMatch\000"
 8140      74636800 
 8141              	.LASF33:
 8142 0c6d 50455249 		.ascii	"PERI_GR_PPU_RG_Type\000"
 8142      5F47525F 
 8142      5050555F 
 8142      52475F54 
 8142      79706500 
 8143              		.ident	"GCC: (GNU Tools for ARM Embedded Processors) 5.4.1 20160609 (release) [ARM/embedded-5-bran
