ARM GAS  C:\Users\gjl\AppData\Local\Temp\cc7xIfgu.s 			page 1


   1              		.syntax unified
   2              		.cpu cortex-m0plus
   3              		.fpu softvfp
   4              		.eabi_attribute 20, 1
   5              		.eabi_attribute 21, 1
   6              		.eabi_attribute 23, 3
   7              		.eabi_attribute 24, 1
   8              		.eabi_attribute 25, 1
   9              		.eabi_attribute 26, 1
  10              		.eabi_attribute 30, 1
  11              		.eabi_attribute 34, 0
  12              		.eabi_attribute 18, 4
  13              		.thumb
  14              		.syntax unified
  15              		.file	"cy_prot.c"
  16              		.text
  17              	.Ltext0:
  18              		.cfi_sections	.debug_frame
  19              		.section	.text.Cy_Prot_ConfigBusMaster,"ax",%progbits
  20              		.align	2
  21              		.global	Cy_Prot_ConfigBusMaster
  22              		.code	16
  23              		.thumb_func
  24              		.type	Cy_Prot_ConfigBusMaster, %function
  25              	Cy_Prot_ConfigBusMaster:
  26              	.LFB36:
  27              		.file 1 "Generated_Source\\PSoC6\\pdl\\drivers\\peripheral\\prot\\cy_prot.c"
   1:Generated_Source\PSoC6\pdl\drivers\peripheral\prot/cy_prot.c **** /***************************************************************************//**
   2:Generated_Source\PSoC6\pdl\drivers\peripheral\prot/cy_prot.c **** * \file cy_prot.c
   3:Generated_Source\PSoC6\pdl\drivers\peripheral\prot/cy_prot.c **** * \version 1.10
   4:Generated_Source\PSoC6\pdl\drivers\peripheral\prot/cy_prot.c **** *
   5:Generated_Source\PSoC6\pdl\drivers\peripheral\prot/cy_prot.c **** * \brief
   6:Generated_Source\PSoC6\pdl\drivers\peripheral\prot/cy_prot.c **** * Provides an API implementation of the Protection Unit driver
   7:Generated_Source\PSoC6\pdl\drivers\peripheral\prot/cy_prot.c **** *
   8:Generated_Source\PSoC6\pdl\drivers\peripheral\prot/cy_prot.c **** ********************************************************************************
   9:Generated_Source\PSoC6\pdl\drivers\peripheral\prot/cy_prot.c **** * \copyright
  10:Generated_Source\PSoC6\pdl\drivers\peripheral\prot/cy_prot.c **** * Copyright 2016-2018, Cypress Semiconductor Corporation. All rights reserved.
  11:Generated_Source\PSoC6\pdl\drivers\peripheral\prot/cy_prot.c **** * You may use this file only in accordance with the license, terms, conditions,
  12:Generated_Source\PSoC6\pdl\drivers\peripheral\prot/cy_prot.c **** * disclaimers, and limitations in the end user license agreement accompanying
  13:Generated_Source\PSoC6\pdl\drivers\peripheral\prot/cy_prot.c **** * the software package with which this file was provided.
  14:Generated_Source\PSoC6\pdl\drivers\peripheral\prot/cy_prot.c **** *******************************************************************************/
  15:Generated_Source\PSoC6\pdl\drivers\peripheral\prot/cy_prot.c **** 
  16:Generated_Source\PSoC6\pdl\drivers\peripheral\prot/cy_prot.c **** #include "cy_prot.h"
  17:Generated_Source\PSoC6\pdl\drivers\peripheral\prot/cy_prot.c **** 
  18:Generated_Source\PSoC6\pdl\drivers\peripheral\prot/cy_prot.c **** #if defined(__cplusplus)
  19:Generated_Source\PSoC6\pdl\drivers\peripheral\prot/cy_prot.c **** extern "C" {
  20:Generated_Source\PSoC6\pdl\drivers\peripheral\prot/cy_prot.c **** #endif
  21:Generated_Source\PSoC6\pdl\drivers\peripheral\prot/cy_prot.c **** 
  22:Generated_Source\PSoC6\pdl\drivers\peripheral\prot/cy_prot.c **** 
  23:Generated_Source\PSoC6\pdl\drivers\peripheral\prot/cy_prot.c **** /*******************************************************************************
  24:Generated_Source\PSoC6\pdl\drivers\peripheral\prot/cy_prot.c **** * Function Name: Cy_Prot_ConfigBusMaster
  25:Generated_Source\PSoC6\pdl\drivers\peripheral\prot/cy_prot.c **** ****************************************************************************//**
  26:Generated_Source\PSoC6\pdl\drivers\peripheral\prot/cy_prot.c **** *
  27:Generated_Source\PSoC6\pdl\drivers\peripheral\prot/cy_prot.c **** * \brief Configures the allowed protection contexts, security (secure/non-secure)
  28:Generated_Source\PSoC6\pdl\drivers\peripheral\prot/cy_prot.c **** * and privilege level of the bus transaction created by the specified master. 
  29:Generated_Source\PSoC6\pdl\drivers\peripheral\prot/cy_prot.c **** *
  30:Generated_Source\PSoC6\pdl\drivers\peripheral\prot/cy_prot.c **** * \param busMaster
ARM GAS  C:\Users\gjl\AppData\Local\Temp\cc7xIfgu.s 			page 2


  31:Generated_Source\PSoC6\pdl\drivers\peripheral\prot/cy_prot.c **** * Indicates which master needs to be configured. Refer to the CPUSS_MS_ID_X
  32:Generated_Source\PSoC6\pdl\drivers\peripheral\prot/cy_prot.c **** * defines.
  33:Generated_Source\PSoC6\pdl\drivers\peripheral\prot/cy_prot.c **** * 
  34:Generated_Source\PSoC6\pdl\drivers\peripheral\prot/cy_prot.c **** * \param privileged
  35:Generated_Source\PSoC6\pdl\drivers\peripheral\prot/cy_prot.c **** * Boolean to define the privilege level of all subsequent bus transfers.
  36:Generated_Source\PSoC6\pdl\drivers\peripheral\prot/cy_prot.c **** * True - privileged, False - not privileged.
  37:Generated_Source\PSoC6\pdl\drivers\peripheral\prot/cy_prot.c **** * Note that this is an inherited value. If not inherited, then this bit will 
  38:Generated_Source\PSoC6\pdl\drivers\peripheral\prot/cy_prot.c **** * be used.
  39:Generated_Source\PSoC6\pdl\drivers\peripheral\prot/cy_prot.c **** *
  40:Generated_Source\PSoC6\pdl\drivers\peripheral\prot/cy_prot.c **** * \param secure
  41:Generated_Source\PSoC6\pdl\drivers\peripheral\prot/cy_prot.c **** * Security setting for the master. True - Secure, False - Not secure.
  42:Generated_Source\PSoC6\pdl\drivers\peripheral\prot/cy_prot.c **** * 
  43:Generated_Source\PSoC6\pdl\drivers\peripheral\prot/cy_prot.c **** * \param pcMask
  44:Generated_Source\PSoC6\pdl\drivers\peripheral\prot/cy_prot.c **** * This is a 16 bit value of the allowed contexts, it is an OR'ed (|) field of the
  45:Generated_Source\PSoC6\pdl\drivers\peripheral\prot/cy_prot.c **** * provided defines in cy_prot.h. For example: (PROT_PC1 | PROT_PC3 | PROT_PC4)
  46:Generated_Source\PSoC6\pdl\drivers\peripheral\prot/cy_prot.c **** * 
  47:Generated_Source\PSoC6\pdl\drivers\peripheral\prot/cy_prot.c **** * \return
  48:Generated_Source\PSoC6\pdl\drivers\peripheral\prot/cy_prot.c **** * Status of the function call.
  49:Generated_Source\PSoC6\pdl\drivers\peripheral\prot/cy_prot.c **** *
  50:Generated_Source\PSoC6\pdl\drivers\peripheral\prot/cy_prot.c **** *   Status               | Description
  51:Generated_Source\PSoC6\pdl\drivers\peripheral\prot/cy_prot.c **** *   ------------         | -----------
  52:Generated_Source\PSoC6\pdl\drivers\peripheral\prot/cy_prot.c **** *   CY_PROT_SUCCESS      | The function completed successfully
  53:Generated_Source\PSoC6\pdl\drivers\peripheral\prot/cy_prot.c **** *   CY_PROT_FAILURE      | The resource is locked
  54:Generated_Source\PSoC6\pdl\drivers\peripheral\prot/cy_prot.c **** *   CY_PROT_BAD_PARAM    | An incorrect/invalid parameter was passed
  55:Generated_Source\PSoC6\pdl\drivers\peripheral\prot/cy_prot.c **** *
  56:Generated_Source\PSoC6\pdl\drivers\peripheral\prot/cy_prot.c **** * \funcusage
  57:Generated_Source\PSoC6\pdl\drivers\peripheral\prot/cy_prot.c **** * \snippet prot/prot_v1_10_sut_01.cydsn/main_cm4.c snippet_Cy_Prot_ConfigBusMaster
  58:Generated_Source\PSoC6\pdl\drivers\peripheral\prot/cy_prot.c **** *
  59:Generated_Source\PSoC6\pdl\drivers\peripheral\prot/cy_prot.c **** *******************************************************************************/
  60:Generated_Source\PSoC6\pdl\drivers\peripheral\prot/cy_prot.c **** cy_en_prot_status_t Cy_Prot_ConfigBusMaster(en_prot_master_t busMaster, bool privileged, bool secur
  61:Generated_Source\PSoC6\pdl\drivers\peripheral\prot/cy_prot.c **** {
  28              		.loc 1 61 0
  29              		.cfi_startproc
  30              		@ args = 0, pretend = 0, frame = 0
  31              		@ frame_needed = 0, uses_anonymous_args = 0
  32              	.LVL0:
  33 0000 F0B5     		push	{r4, r5, r6, r7, lr}
  34              		.cfi_def_cfa_offset 20
  35              		.cfi_offset 4, -20
  36              		.cfi_offset 5, -16
  37              		.cfi_offset 6, -12
  38              		.cfi_offset 7, -8
  39              		.cfi_offset 14, -4
  40 0002 4746     		mov	r7, r8
  41 0004 80B4     		push	{r7}
  42              		.cfi_def_cfa_offset 24
  43              		.cfi_offset 8, -24
  44 0006 0400     		movs	r4, r0
  45 0008 0E00     		movs	r6, r1
  46 000a 9046     		mov	r8, r2
  47 000c 1D00     		movs	r5, r3
  62:Generated_Source\PSoC6\pdl\drivers\peripheral\prot/cy_prot.c ****     cy_en_prot_status_t status;
  63:Generated_Source\PSoC6\pdl\drivers\peripheral\prot/cy_prot.c ****     uint32_t regVal;
  64:Generated_Source\PSoC6\pdl\drivers\peripheral\prot/cy_prot.c ****     uint32_t * addrMsCtl;
  65:Generated_Source\PSoC6\pdl\drivers\peripheral\prot/cy_prot.c **** 
  66:Generated_Source\PSoC6\pdl\drivers\peripheral\prot/cy_prot.c ****     CY_ASSERT_L1(CY_PROT_IS_BUS_MASTER_VALID(busMaster));
  48              		.loc 1 66 0
ARM GAS  C:\Users\gjl\AppData\Local\Temp\cc7xIfgu.s 			page 3


  49 000e 0F28     		cmp	r0, #15
  50 0010 03D9     		bls	.L2
  51              		.loc 1 66 0 is_stmt 0 discriminator 1
  52 0012 4221     		movs	r1, #66
  53              	.LVL1:
  54 0014 2548     		ldr	r0, .L19
  55              	.LVL2:
  56 0016 FFF7FEFF 		bl	Cy_SysLib_AssertFailed
  57              	.LVL3:
  58              	.L2:
  67:Generated_Source\PSoC6\pdl\drivers\peripheral\prot/cy_prot.c ****         
  68:Generated_Source\PSoC6\pdl\drivers\peripheral\prot/cy_prot.c ****     addrMsCtl = (uint32_t *)(PROT_BASE + (uint32_t)((uint32_t)busMaster << CY_PROT_MSX_CTL_SHIFT));
  59              		.loc 1 68 0 is_stmt 1
  60 001a A700     		lsls	r7, r4, #2
  61 001c 244B     		ldr	r3, .L19+4
  62 001e 9C46     		mov	ip, r3
  63 0020 6744     		add	r7, r7, ip
  64              	.LVL4:
  69:Generated_Source\PSoC6\pdl\drivers\peripheral\prot/cy_prot.c ****     
  70:Generated_Source\PSoC6\pdl\drivers\peripheral\prot/cy_prot.c ****     /* Check if PC mask is in supported range */
  71:Generated_Source\PSoC6\pdl\drivers\peripheral\prot/cy_prot.c ****     switch (busMaster)
  65              		.loc 1 71 0
  66 0022 0F2C     		cmp	r4, #15
  67 0024 23D8     		bhi	.L12
  68 0026 A400     		lsls	r4, r4, #2
  69 0028 224B     		ldr	r3, .L19+8
  70 002a 1B59     		ldr	r3, [r3, r4]
  71 002c 9F46     		mov	pc, r3
  72              		.section	.rodata
  73              		.align	2
  74              	.L5:
  75 0000 2E000000 		.word	.L4
  76 0004 3A000000 		.word	.L6
  77 0008 46000000 		.word	.L7
  78 000c 4E000000 		.word	.L8
  79 0010 6E000000 		.word	.L12
  80 0014 6E000000 		.word	.L12
  81 0018 6E000000 		.word	.L12
  82 001c 6E000000 		.word	.L12
  83 0020 6E000000 		.word	.L12
  84 0024 6E000000 		.word	.L12
  85 0028 6E000000 		.word	.L12
  86 002c 6E000000 		.word	.L12
  87 0030 6E000000 		.word	.L12
  88 0034 6E000000 		.word	.L12
  89 0038 56000000 		.word	.L9
  90 003c 62000000 		.word	.L10
  91              		.section	.text.Cy_Prot_ConfigBusMaster
  92              	.L4:
  72:Generated_Source\PSoC6\pdl\drivers\peripheral\prot/cy_prot.c ****     {
  73:Generated_Source\PSoC6\pdl\drivers\peripheral\prot/cy_prot.c ****         case (CPUSS_MS_ID_CM0):
  74:Generated_Source\PSoC6\pdl\drivers\peripheral\prot/cy_prot.c ****         {
  75:Generated_Source\PSoC6\pdl\drivers\peripheral\prot/cy_prot.c ****             status = ((uint32_t)(pcMask & CY_PROT_MS0_PC_LIMIT_MASK) != 0UL) ? CY_PROT_BAD_PARAM : 
  93              		.loc 1 75 0
  94 002e 7F23     		movs	r3, #127
  95 0030 2A00     		movs	r2, r5
  96 0032 9A43     		bics	r2, r3
ARM GAS  C:\Users\gjl\AppData\Local\Temp\cc7xIfgu.s 			page 4


  97 0034 1DD0     		beq	.L13
  98 0036 2048     		ldr	r0, .L19+12
  99 0038 26E0     		b	.L3
 100              	.L6:
  76:Generated_Source\PSoC6\pdl\drivers\peripheral\prot/cy_prot.c ****             break;
  77:Generated_Source\PSoC6\pdl\drivers\peripheral\prot/cy_prot.c ****         }
  78:Generated_Source\PSoC6\pdl\drivers\peripheral\prot/cy_prot.c ****         case (CPUSS_MS_ID_CRYPTO):
  79:Generated_Source\PSoC6\pdl\drivers\peripheral\prot/cy_prot.c ****         {
  80:Generated_Source\PSoC6\pdl\drivers\peripheral\prot/cy_prot.c ****             status = ((uint32_t)(pcMask & CY_PROT_MS1_PC_LIMIT_MASK) != 0UL) ? CY_PROT_BAD_PARAM : 
 101              		.loc 1 80 0
 102 003a 7F23     		movs	r3, #127
 103 003c 2A00     		movs	r2, r5
 104 003e 9A43     		bics	r2, r3
 105 0040 19D0     		beq	.L14
 106 0042 1D48     		ldr	r0, .L19+12
 107 0044 20E0     		b	.L3
 108              	.L7:
  81:Generated_Source\PSoC6\pdl\drivers\peripheral\prot/cy_prot.c ****             break;
  82:Generated_Source\PSoC6\pdl\drivers\peripheral\prot/cy_prot.c ****         }
  83:Generated_Source\PSoC6\pdl\drivers\peripheral\prot/cy_prot.c ****         case (CPUSS_MS_ID_DW0):
  84:Generated_Source\PSoC6\pdl\drivers\peripheral\prot/cy_prot.c ****         {
  85:Generated_Source\PSoC6\pdl\drivers\peripheral\prot/cy_prot.c ****             status = ((uint32_t)(pcMask & CY_PROT_MS2_PC_LIMIT_MASK) != 0UL) ? CY_PROT_BAD_PARAM : 
 109              		.loc 1 85 0
 110 0046 002D     		cmp	r5, #0
 111 0048 17D0     		beq	.L15
 112 004a 1B48     		ldr	r0, .L19+12
 113 004c 1CE0     		b	.L3
 114              	.L8:
  86:Generated_Source\PSoC6\pdl\drivers\peripheral\prot/cy_prot.c ****             break;
  87:Generated_Source\PSoC6\pdl\drivers\peripheral\prot/cy_prot.c ****         }
  88:Generated_Source\PSoC6\pdl\drivers\peripheral\prot/cy_prot.c ****         case (CPUSS_MS_ID_DW1):
  89:Generated_Source\PSoC6\pdl\drivers\peripheral\prot/cy_prot.c ****         {
  90:Generated_Source\PSoC6\pdl\drivers\peripheral\prot/cy_prot.c ****             status = ((uint32_t)(pcMask & CY_PROT_MS3_PC_LIMIT_MASK) != 0UL) ? CY_PROT_BAD_PARAM : 
 115              		.loc 1 90 0
 116 004e 002D     		cmp	r5, #0
 117 0050 15D0     		beq	.L16
 118 0052 1948     		ldr	r0, .L19+12
 119 0054 18E0     		b	.L3
 120              	.L9:
  91:Generated_Source\PSoC6\pdl\drivers\peripheral\prot/cy_prot.c ****             break;
  92:Generated_Source\PSoC6\pdl\drivers\peripheral\prot/cy_prot.c ****         }
  93:Generated_Source\PSoC6\pdl\drivers\peripheral\prot/cy_prot.c ****         case (CPUSS_MS_ID_CM4):
  94:Generated_Source\PSoC6\pdl\drivers\peripheral\prot/cy_prot.c ****         {
  95:Generated_Source\PSoC6\pdl\drivers\peripheral\prot/cy_prot.c ****             status = ((uint32_t)(pcMask & CY_PROT_MS14_PC_LIMIT_MASK) != 0UL) ? CY_PROT_BAD_PARAM :
 121              		.loc 1 95 0
 122 0056 7F23     		movs	r3, #127
 123 0058 2A00     		movs	r2, r5
 124 005a 9A43     		bics	r2, r3
 125 005c 11D0     		beq	.L17
 126 005e 1648     		ldr	r0, .L19+12
 127 0060 12E0     		b	.L3
 128              	.L10:
  96:Generated_Source\PSoC6\pdl\drivers\peripheral\prot/cy_prot.c ****             break;
  97:Generated_Source\PSoC6\pdl\drivers\peripheral\prot/cy_prot.c ****         }
  98:Generated_Source\PSoC6\pdl\drivers\peripheral\prot/cy_prot.c ****         case (CPUSS_MS_ID_TC):
  99:Generated_Source\PSoC6\pdl\drivers\peripheral\prot/cy_prot.c ****         {
 100:Generated_Source\PSoC6\pdl\drivers\peripheral\prot/cy_prot.c ****             status = ((uint32_t)(pcMask & CY_PROT_MS15_PC_LIMIT_MASK) != 0UL) ? CY_PROT_BAD_PARAM :
ARM GAS  C:\Users\gjl\AppData\Local\Temp\cc7xIfgu.s 			page 5


 129              		.loc 1 100 0
 130 0062 7F23     		movs	r3, #127
 131 0064 2A00     		movs	r2, r5
 132 0066 9A43     		bics	r2, r3
 133 0068 0DD0     		beq	.L18
 134 006a 1348     		ldr	r0, .L19+12
 135 006c 0CE0     		b	.L3
 136              	.L12:
 101:Generated_Source\PSoC6\pdl\drivers\peripheral\prot/cy_prot.c ****             break;
 102:Generated_Source\PSoC6\pdl\drivers\peripheral\prot/cy_prot.c ****         }
 103:Generated_Source\PSoC6\pdl\drivers\peripheral\prot/cy_prot.c ****         default:
 104:Generated_Source\PSoC6\pdl\drivers\peripheral\prot/cy_prot.c ****             status = CY_PROT_BAD_PARAM;
 137              		.loc 1 104 0
 138 006e 1248     		ldr	r0, .L19+12
 139 0070 0AE0     		b	.L3
 140              	.L13:
  75:Generated_Source\PSoC6\pdl\drivers\peripheral\prot/cy_prot.c ****             break;
 141              		.loc 1 75 0
 142 0072 0020     		movs	r0, #0
 143 0074 08E0     		b	.L3
 144              	.L14:
  80:Generated_Source\PSoC6\pdl\drivers\peripheral\prot/cy_prot.c ****             break;
 145              		.loc 1 80 0
 146 0076 0020     		movs	r0, #0
 147 0078 06E0     		b	.L3
 148              	.L15:
  85:Generated_Source\PSoC6\pdl\drivers\peripheral\prot/cy_prot.c ****             break;
 149              		.loc 1 85 0
 150 007a 0020     		movs	r0, #0
 151 007c 04E0     		b	.L3
 152              	.L16:
  90:Generated_Source\PSoC6\pdl\drivers\peripheral\prot/cy_prot.c ****             break;
 153              		.loc 1 90 0
 154 007e 0020     		movs	r0, #0
 155 0080 02E0     		b	.L3
 156              	.L17:
  95:Generated_Source\PSoC6\pdl\drivers\peripheral\prot/cy_prot.c ****             break;
 157              		.loc 1 95 0
 158 0082 0020     		movs	r0, #0
 159 0084 00E0     		b	.L3
 160              	.L18:
 100:Generated_Source\PSoC6\pdl\drivers\peripheral\prot/cy_prot.c ****             break;
 161              		.loc 1 100 0
 162 0086 0020     		movs	r0, #0
 163              	.L3:
 164              	.LVL5:
 105:Generated_Source\PSoC6\pdl\drivers\peripheral\prot/cy_prot.c ****         break;
 106:Generated_Source\PSoC6\pdl\drivers\peripheral\prot/cy_prot.c ****     }
 107:Generated_Source\PSoC6\pdl\drivers\peripheral\prot/cy_prot.c ****     
 108:Generated_Source\PSoC6\pdl\drivers\peripheral\prot/cy_prot.c ****     if(status != CY_PROT_BAD_PARAM) 
 165              		.loc 1 108 0
 166 0088 0B4B     		ldr	r3, .L19+12
 167 008a 9842     		cmp	r0, r3
 168 008c 0BD0     		beq	.L11
 109:Generated_Source\PSoC6\pdl\drivers\peripheral\prot/cy_prot.c ****     {
 110:Generated_Source\PSoC6\pdl\drivers\peripheral\prot/cy_prot.c ****         regVal = _VAL2FLD(PROT_SMPU_MS0_CTL_NS, !secure)
 169              		.loc 1 110 0
ARM GAS  C:\Users\gjl\AppData\Local\Temp\cc7xIfgu.s 			page 6


 170 008e 0121     		movs	r1, #1
 171 0090 4246     		mov	r2, r8
 172 0092 4A40     		eors	r2, r1
 173 0094 D1B2     		uxtb	r1, r2
 174 0096 4B00     		lsls	r3, r1, #1
 175 0098 0221     		movs	r1, #2
 176 009a 1940     		ands	r1, r3
 111:Generated_Source\PSoC6\pdl\drivers\peripheral\prot/cy_prot.c ****                 | _VAL2FLD(PROT_SMPU_MS0_CTL_P, privileged)
 177              		.loc 1 111 0
 178 009c 3143     		orrs	r1, r6
 112:Generated_Source\PSoC6\pdl\drivers\peripheral\prot/cy_prot.c ****                 | _VAL2FLD(PROT_SMPU_MS0_CTL_PC_MASK_15_TO_1, pcMask);
 179              		.loc 1 112 0
 180 009e 6D04     		lsls	r5, r5, #17
 181              	.LVL6:
 110:Generated_Source\PSoC6\pdl\drivers\peripheral\prot/cy_prot.c ****                 | _VAL2FLD(PROT_SMPU_MS0_CTL_P, privileged)
 182              		.loc 1 110 0
 183 00a0 2943     		orrs	r1, r5
 184              	.LVL7:
 113:Generated_Source\PSoC6\pdl\drivers\peripheral\prot/cy_prot.c ****         *addrMsCtl = regVal;
 185              		.loc 1 113 0
 186 00a2 3960     		str	r1, [r7]
 114:Generated_Source\PSoC6\pdl\drivers\peripheral\prot/cy_prot.c ****         status = (*addrMsCtl != regVal) ? CY_PROT_FAILURE : CY_PROT_SUCCESS;
 187              		.loc 1 114 0
 188 00a4 0020     		movs	r0, #0
 189              	.LVL8:
 190              	.L11:
 115:Generated_Source\PSoC6\pdl\drivers\peripheral\prot/cy_prot.c ****     }
 116:Generated_Source\PSoC6\pdl\drivers\peripheral\prot/cy_prot.c ****     
 117:Generated_Source\PSoC6\pdl\drivers\peripheral\prot/cy_prot.c ****     return status;
 118:Generated_Source\PSoC6\pdl\drivers\peripheral\prot/cy_prot.c **** }
 191              		.loc 1 118 0
 192              		@ sp needed
 193              	.LVL9:
 194 00a6 04BC     		pop	{r2}
 195 00a8 9046     		mov	r8, r2
 196 00aa F0BD     		pop	{r4, r5, r6, r7, pc}
 197              	.L20:
 198              		.align	2
 199              	.L19:
 200 00ac 00000000 		.word	.LC0
 201 00b0 00002440 		.word	1076101120
 202 00b4 00000000 		.word	.L5
 203 00b8 0100C200 		.word	12713985
 204              		.cfi_endproc
 205              	.LFE36:
 206              		.size	Cy_Prot_ConfigBusMaster, .-Cy_Prot_ConfigBusMaster
 207              		.section	.text.Cy_Prot_SetActivePC,"ax",%progbits
 208              		.align	2
 209              		.global	Cy_Prot_SetActivePC
 210              		.code	16
 211              		.thumb_func
 212              		.type	Cy_Prot_SetActivePC, %function
 213              	Cy_Prot_SetActivePC:
 214              	.LFB37:
 119:Generated_Source\PSoC6\pdl\drivers\peripheral\prot/cy_prot.c **** 
 120:Generated_Source\PSoC6\pdl\drivers\peripheral\prot/cy_prot.c **** 
 121:Generated_Source\PSoC6\pdl\drivers\peripheral\prot/cy_prot.c **** /*******************************************************************************
ARM GAS  C:\Users\gjl\AppData\Local\Temp\cc7xIfgu.s 			page 7


 122:Generated_Source\PSoC6\pdl\drivers\peripheral\prot/cy_prot.c **** * Function Name: Cy_Prot_SetActivePC
 123:Generated_Source\PSoC6\pdl\drivers\peripheral\prot/cy_prot.c **** ****************************************************************************//**
 124:Generated_Source\PSoC6\pdl\drivers\peripheral\prot/cy_prot.c **** *
 125:Generated_Source\PSoC6\pdl\drivers\peripheral\prot/cy_prot.c **** * \brief Sets the current/active protection context of the specified bus master.
 126:Generated_Source\PSoC6\pdl\drivers\peripheral\prot/cy_prot.c **** * 
 127:Generated_Source\PSoC6\pdl\drivers\peripheral\prot/cy_prot.c **** * Allowed PC values are 1-15. If this value is not inherited from another bus 
 128:Generated_Source\PSoC6\pdl\drivers\peripheral\prot/cy_prot.c **** * master, the value set through this function is used.
 129:Generated_Source\PSoC6\pdl\drivers\peripheral\prot/cy_prot.c **** *
 130:Generated_Source\PSoC6\pdl\drivers\peripheral\prot/cy_prot.c **** * \param busMaster
 131:Generated_Source\PSoC6\pdl\drivers\peripheral\prot/cy_prot.c **** * The bus master to configure. Refer to the CPUSS_MS_ID_X defines.
 132:Generated_Source\PSoC6\pdl\drivers\peripheral\prot/cy_prot.c **** * 
 133:Generated_Source\PSoC6\pdl\drivers\peripheral\prot/cy_prot.c **** * \param pc
 134:Generated_Source\PSoC6\pdl\drivers\peripheral\prot/cy_prot.c **** * Active protection context of the specified master. Note that only those 
 135:Generated_Source\PSoC6\pdl\drivers\peripheral\prot/cy_prot.c **** * protection contexts allowed by the pcMask will take effect. 
 136:Generated_Source\PSoC6\pdl\drivers\peripheral\prot/cy_prot.c **** *
 137:Generated_Source\PSoC6\pdl\drivers\peripheral\prot/cy_prot.c **** * \return
 138:Generated_Source\PSoC6\pdl\drivers\peripheral\prot/cy_prot.c **** * Status of the function call.
 139:Generated_Source\PSoC6\pdl\drivers\peripheral\prot/cy_prot.c **** *
 140:Generated_Source\PSoC6\pdl\drivers\peripheral\prot/cy_prot.c **** *   Status               | Description
 141:Generated_Source\PSoC6\pdl\drivers\peripheral\prot/cy_prot.c **** *   ------------         | -----------
 142:Generated_Source\PSoC6\pdl\drivers\peripheral\prot/cy_prot.c **** *   CY_PROT_SUCCESS      | The function completed successfully
 143:Generated_Source\PSoC6\pdl\drivers\peripheral\prot/cy_prot.c **** *   CY_PROT_FAILURE      | The resource is locked
 144:Generated_Source\PSoC6\pdl\drivers\peripheral\prot/cy_prot.c **** *   CY_PROT_BAD_PARAM    | An incorrect/invalid parameter was passed
 145:Generated_Source\PSoC6\pdl\drivers\peripheral\prot/cy_prot.c **** *
 146:Generated_Source\PSoC6\pdl\drivers\peripheral\prot/cy_prot.c **** * \funcusage
 147:Generated_Source\PSoC6\pdl\drivers\peripheral\prot/cy_prot.c **** * \snippet prot/prot_v1_10_sut_01.cydsn/main_cm4.c snippet_Cy_Prot_SetActivePC
 148:Generated_Source\PSoC6\pdl\drivers\peripheral\prot/cy_prot.c **** *
 149:Generated_Source\PSoC6\pdl\drivers\peripheral\prot/cy_prot.c **** *******************************************************************************/
 150:Generated_Source\PSoC6\pdl\drivers\peripheral\prot/cy_prot.c **** cy_en_prot_status_t Cy_Prot_SetActivePC(en_prot_master_t busMaster, uint32_t pc)
 151:Generated_Source\PSoC6\pdl\drivers\peripheral\prot/cy_prot.c **** {
 215              		.loc 1 151 0
 216              		.cfi_startproc
 217              		@ args = 0, pretend = 0, frame = 0
 218              		@ frame_needed = 0, uses_anonymous_args = 0
 219              	.LVL10:
 220 0000 70B5     		push	{r4, r5, r6, lr}
 221              		.cfi_def_cfa_offset 16
 222              		.cfi_offset 4, -16
 223              		.cfi_offset 5, -12
 224              		.cfi_offset 6, -8
 225              		.cfi_offset 14, -4
 226 0002 0400     		movs	r4, r0
 227 0004 0D00     		movs	r5, r1
 152:Generated_Source\PSoC6\pdl\drivers\peripheral\prot/cy_prot.c ****     cy_en_prot_status_t status;
 153:Generated_Source\PSoC6\pdl\drivers\peripheral\prot/cy_prot.c ****     PROT_MPU_Type* addrMpu;
 154:Generated_Source\PSoC6\pdl\drivers\peripheral\prot/cy_prot.c ****     
 155:Generated_Source\PSoC6\pdl\drivers\peripheral\prot/cy_prot.c ****     CY_ASSERT_L1(CY_PROT_IS_BUS_MASTER_VALID(busMaster));
 228              		.loc 1 155 0
 229 0006 0F28     		cmp	r0, #15
 230 0008 03D9     		bls	.L22
 231              		.loc 1 155 0 is_stmt 0 discriminator 1
 232 000a 9B21     		movs	r1, #155
 233              	.LVL11:
 234 000c 2248     		ldr	r0, .L40
 235              	.LVL12:
 236 000e FFF7FEFF 		bl	Cy_SysLib_AssertFailed
 237              	.LVL13:
ARM GAS  C:\Users\gjl\AppData\Local\Temp\cc7xIfgu.s 			page 8


 238              	.L22:
 156:Generated_Source\PSoC6\pdl\drivers\peripheral\prot/cy_prot.c ****     
 157:Generated_Source\PSoC6\pdl\drivers\peripheral\prot/cy_prot.c ****     addrMpu = (PROT_MPU_Type*)(&PROT->CYMPU[busMaster]); 
 239              		.loc 1 157 0 is_stmt 1
 240 0012 A102     		lsls	r1, r4, #10
 241 0014 214B     		ldr	r3, .L40+4
 242 0016 9C46     		mov	ip, r3
 243 0018 6144     		add	r1, r1, ip
 244              	.LVL14:
 158:Generated_Source\PSoC6\pdl\drivers\peripheral\prot/cy_prot.c ****     
 159:Generated_Source\PSoC6\pdl\drivers\peripheral\prot/cy_prot.c ****     /* Check if PC value is in supported range */
 160:Generated_Source\PSoC6\pdl\drivers\peripheral\prot/cy_prot.c ****     switch (busMaster)
 245              		.loc 1 160 0
 246 001a 0F2C     		cmp	r4, #15
 247 001c 1BD8     		bhi	.L32
 248 001e A400     		lsls	r4, r4, #2
 249 0020 1F4B     		ldr	r3, .L40+8
 250 0022 1B59     		ldr	r3, [r3, r4]
 251 0024 9F46     		mov	pc, r3
 252              		.section	.rodata
 253              		.align	2
 254              	.L25:
 255 0040 26000000 		.word	.L24
 256 0044 2E000000 		.word	.L26
 257 0048 36000000 		.word	.L27
 258 004c 3E000000 		.word	.L28
 259 0050 56000000 		.word	.L32
 260 0054 56000000 		.word	.L32
 261 0058 56000000 		.word	.L32
 262 005c 56000000 		.word	.L32
 263 0060 56000000 		.word	.L32
 264 0064 56000000 		.word	.L32
 265 0068 56000000 		.word	.L32
 266 006c 56000000 		.word	.L32
 267 0070 56000000 		.word	.L32
 268 0074 56000000 		.word	.L32
 269 0078 46000000 		.word	.L29
 270 007c 4E000000 		.word	.L30
 271              		.section	.text.Cy_Prot_SetActivePC
 272              	.L24:
 161:Generated_Source\PSoC6\pdl\drivers\peripheral\prot/cy_prot.c ****     {
 162:Generated_Source\PSoC6\pdl\drivers\peripheral\prot/cy_prot.c ****         case (CPUSS_MS_ID_CM0):
 163:Generated_Source\PSoC6\pdl\drivers\peripheral\prot/cy_prot.c ****         {
 164:Generated_Source\PSoC6\pdl\drivers\peripheral\prot/cy_prot.c ****             status = (pc > CPUSS_PROT_SMPU_MS0_PC_NR_MINUS1) ? CY_PROT_BAD_PARAM : CY_PROT_SUCCESS;
 273              		.loc 1 164 0
 274 0026 072D     		cmp	r5, #7
 275 0028 17D9     		bls	.L33
 276 002a 1E48     		ldr	r0, .L40+12
 277 002c 20E0     		b	.L23
 278              	.L26:
 165:Generated_Source\PSoC6\pdl\drivers\peripheral\prot/cy_prot.c ****             break;
 166:Generated_Source\PSoC6\pdl\drivers\peripheral\prot/cy_prot.c ****         }
 167:Generated_Source\PSoC6\pdl\drivers\peripheral\prot/cy_prot.c ****         case (CPUSS_MS_ID_CRYPTO):
 168:Generated_Source\PSoC6\pdl\drivers\peripheral\prot/cy_prot.c ****         {
 169:Generated_Source\PSoC6\pdl\drivers\peripheral\prot/cy_prot.c ****             status = (pc > CPUSS_PROT_SMPU_MS1_PC_NR_MINUS1) ? CY_PROT_BAD_PARAM : CY_PROT_SUCCESS;
 279              		.loc 1 169 0
 280 002e 072D     		cmp	r5, #7
ARM GAS  C:\Users\gjl\AppData\Local\Temp\cc7xIfgu.s 			page 9


 281 0030 15D9     		bls	.L34
 282 0032 1C48     		ldr	r0, .L40+12
 283 0034 1CE0     		b	.L23
 284              	.L27:
 170:Generated_Source\PSoC6\pdl\drivers\peripheral\prot/cy_prot.c ****             break;
 171:Generated_Source\PSoC6\pdl\drivers\peripheral\prot/cy_prot.c ****         }
 172:Generated_Source\PSoC6\pdl\drivers\peripheral\prot/cy_prot.c ****         case (CPUSS_MS_ID_DW0):
 173:Generated_Source\PSoC6\pdl\drivers\peripheral\prot/cy_prot.c ****         {
 174:Generated_Source\PSoC6\pdl\drivers\peripheral\prot/cy_prot.c ****             status = (pc > CPUSS_PROT_SMPU_MS2_PC_NR_MINUS1) ? CY_PROT_BAD_PARAM : CY_PROT_SUCCESS;
 285              		.loc 1 174 0
 286 0036 002D     		cmp	r5, #0
 287 0038 13D0     		beq	.L35
 288 003a 1A48     		ldr	r0, .L40+12
 289 003c 18E0     		b	.L23
 290              	.L28:
 175:Generated_Source\PSoC6\pdl\drivers\peripheral\prot/cy_prot.c ****             break;
 176:Generated_Source\PSoC6\pdl\drivers\peripheral\prot/cy_prot.c ****         }
 177:Generated_Source\PSoC6\pdl\drivers\peripheral\prot/cy_prot.c ****         case (CPUSS_MS_ID_DW1):
 178:Generated_Source\PSoC6\pdl\drivers\peripheral\prot/cy_prot.c ****         {
 179:Generated_Source\PSoC6\pdl\drivers\peripheral\prot/cy_prot.c ****             status = (pc > CPUSS_PROT_SMPU_MS3_PC_NR_MINUS1) ? CY_PROT_BAD_PARAM : CY_PROT_SUCCESS;
 291              		.loc 1 179 0
 292 003e 002D     		cmp	r5, #0
 293 0040 11D0     		beq	.L36
 294 0042 1848     		ldr	r0, .L40+12
 295 0044 14E0     		b	.L23
 296              	.L29:
 180:Generated_Source\PSoC6\pdl\drivers\peripheral\prot/cy_prot.c ****             break;
 181:Generated_Source\PSoC6\pdl\drivers\peripheral\prot/cy_prot.c ****         }
 182:Generated_Source\PSoC6\pdl\drivers\peripheral\prot/cy_prot.c ****         case (CPUSS_MS_ID_CM4):
 183:Generated_Source\PSoC6\pdl\drivers\peripheral\prot/cy_prot.c ****         {
 184:Generated_Source\PSoC6\pdl\drivers\peripheral\prot/cy_prot.c ****             status = (pc > CPUSS_PROT_SMPU_MS14_PC_NR_MINUS1) ? CY_PROT_BAD_PARAM : CY_PROT_SUCCESS
 297              		.loc 1 184 0
 298 0046 072D     		cmp	r5, #7
 299 0048 0FD9     		bls	.L37
 300 004a 1648     		ldr	r0, .L40+12
 301 004c 10E0     		b	.L23
 302              	.L30:
 185:Generated_Source\PSoC6\pdl\drivers\peripheral\prot/cy_prot.c ****             break;
 186:Generated_Source\PSoC6\pdl\drivers\peripheral\prot/cy_prot.c ****         }
 187:Generated_Source\PSoC6\pdl\drivers\peripheral\prot/cy_prot.c ****         case (CPUSS_MS_ID_TC):
 188:Generated_Source\PSoC6\pdl\drivers\peripheral\prot/cy_prot.c ****         {
 189:Generated_Source\PSoC6\pdl\drivers\peripheral\prot/cy_prot.c ****             status = (pc > CPUSS_PROT_SMPU_MS15_PC_NR_MINUS1) ? CY_PROT_BAD_PARAM : CY_PROT_SUCCESS
 303              		.loc 1 189 0
 304 004e 072D     		cmp	r5, #7
 305 0050 0DD9     		bls	.L38
 306 0052 1448     		ldr	r0, .L40+12
 307 0054 0CE0     		b	.L23
 308              	.L32:
 190:Generated_Source\PSoC6\pdl\drivers\peripheral\prot/cy_prot.c ****             break;
 191:Generated_Source\PSoC6\pdl\drivers\peripheral\prot/cy_prot.c ****         }
 192:Generated_Source\PSoC6\pdl\drivers\peripheral\prot/cy_prot.c ****         default:
 193:Generated_Source\PSoC6\pdl\drivers\peripheral\prot/cy_prot.c ****             status = CY_PROT_BAD_PARAM;
 309              		.loc 1 193 0
 310 0056 1348     		ldr	r0, .L40+12
 311 0058 0AE0     		b	.L23
 312              	.L33:
 164:Generated_Source\PSoC6\pdl\drivers\peripheral\prot/cy_prot.c ****             break;
ARM GAS  C:\Users\gjl\AppData\Local\Temp\cc7xIfgu.s 			page 10


 313              		.loc 1 164 0
 314 005a 0020     		movs	r0, #0
 315 005c 08E0     		b	.L23
 316              	.L34:
 169:Generated_Source\PSoC6\pdl\drivers\peripheral\prot/cy_prot.c ****             break;
 317              		.loc 1 169 0
 318 005e 0020     		movs	r0, #0
 319 0060 06E0     		b	.L23
 320              	.L35:
 174:Generated_Source\PSoC6\pdl\drivers\peripheral\prot/cy_prot.c ****             break;
 321              		.loc 1 174 0
 322 0062 0020     		movs	r0, #0
 323 0064 04E0     		b	.L23
 324              	.L36:
 179:Generated_Source\PSoC6\pdl\drivers\peripheral\prot/cy_prot.c ****             break;
 325              		.loc 1 179 0
 326 0066 0020     		movs	r0, #0
 327 0068 02E0     		b	.L23
 328              	.L37:
 184:Generated_Source\PSoC6\pdl\drivers\peripheral\prot/cy_prot.c ****             break;
 329              		.loc 1 184 0
 330 006a 0020     		movs	r0, #0
 331 006c 00E0     		b	.L23
 332              	.L38:
 189:Generated_Source\PSoC6\pdl\drivers\peripheral\prot/cy_prot.c ****             break;
 333              		.loc 1 189 0
 334 006e 0020     		movs	r0, #0
 335              	.L23:
 336              	.LVL15:
 194:Generated_Source\PSoC6\pdl\drivers\peripheral\prot/cy_prot.c ****         break;
 195:Generated_Source\PSoC6\pdl\drivers\peripheral\prot/cy_prot.c ****     }
 196:Generated_Source\PSoC6\pdl\drivers\peripheral\prot/cy_prot.c ****     
 197:Generated_Source\PSoC6\pdl\drivers\peripheral\prot/cy_prot.c ****     if(status != CY_PROT_BAD_PARAM) 
 337              		.loc 1 197 0
 338 0070 0C4B     		ldr	r3, .L40+12
 339 0072 9842     		cmp	r0, r3
 340 0074 0FD0     		beq	.L31
 198:Generated_Source\PSoC6\pdl\drivers\peripheral\prot/cy_prot.c ****     {
 199:Generated_Source\PSoC6\pdl\drivers\peripheral\prot/cy_prot.c ****         addrMpu->MS_CTL = _VAL2FLD(PROT_MPU_MS_CTL_PC, pc) | _VAL2FLD(PROT_MPU_MS_CTL_PC_SAVED, pc)
 341              		.loc 1 199 0
 342 0076 0F20     		movs	r0, #15
 343              	.LVL16:
 344 0078 0400     		movs	r4, r0
 345 007a 2C40     		ands	r4, r5
 346 007c 2B04     		lsls	r3, r5, #16
 347 007e F022     		movs	r2, #240
 348 0080 1203     		lsls	r2, r2, #12
 349 0082 1340     		ands	r3, r2
 350 0084 2343     		orrs	r3, r4
 351 0086 0B60     		str	r3, [r1]
 200:Generated_Source\PSoC6\pdl\drivers\peripheral\prot/cy_prot.c ****         status = (_FLD2VAL(PROT_MPU_MS_CTL_PC, addrMpu->MS_CTL) != pc) ? CY_PROT_FAILURE : CY_PROT_
 352              		.loc 1 200 0
 353 0088 0B68     		ldr	r3, [r1]
 354 008a 0340     		ands	r3, r0
 355 008c 9D42     		cmp	r5, r3
 356 008e 01D0     		beq	.L39
 357 0090 0548     		ldr	r0, .L40+16
ARM GAS  C:\Users\gjl\AppData\Local\Temp\cc7xIfgu.s 			page 11


 358 0092 00E0     		b	.L31
 359              	.L39:
 360 0094 0020     		movs	r0, #0
 361              	.L31:
 362              	.LVL17:
 201:Generated_Source\PSoC6\pdl\drivers\peripheral\prot/cy_prot.c ****     }
 202:Generated_Source\PSoC6\pdl\drivers\peripheral\prot/cy_prot.c ****     
 203:Generated_Source\PSoC6\pdl\drivers\peripheral\prot/cy_prot.c ****     return status;
 204:Generated_Source\PSoC6\pdl\drivers\peripheral\prot/cy_prot.c **** }
 363              		.loc 1 204 0
 364              		@ sp needed
 365              	.LVL18:
 366 0096 70BD     		pop	{r4, r5, r6, pc}
 367              	.L41:
 368              		.align	2
 369              	.L40:
 370 0098 00000000 		.word	.LC0
 371 009c 00402440 		.word	1076117504
 372 00a0 40000000 		.word	.L25
 373 00a4 0100C200 		.word	12713985
 374 00a8 0300C200 		.word	12713987
 375              		.cfi_endproc
 376              	.LFE37:
 377              		.size	Cy_Prot_SetActivePC, .-Cy_Prot_SetActivePC
 378              		.section	.text.Cy_Prot_GetActivePC,"ax",%progbits
 379              		.align	2
 380              		.global	Cy_Prot_GetActivePC
 381              		.code	16
 382              		.thumb_func
 383              		.type	Cy_Prot_GetActivePC, %function
 384              	Cy_Prot_GetActivePC:
 385              	.LFB38:
 205:Generated_Source\PSoC6\pdl\drivers\peripheral\prot/cy_prot.c **** 
 206:Generated_Source\PSoC6\pdl\drivers\peripheral\prot/cy_prot.c **** 
 207:Generated_Source\PSoC6\pdl\drivers\peripheral\prot/cy_prot.c **** /*******************************************************************************
 208:Generated_Source\PSoC6\pdl\drivers\peripheral\prot/cy_prot.c **** * Function Name: Cy_Prot_GetActivePC
 209:Generated_Source\PSoC6\pdl\drivers\peripheral\prot/cy_prot.c **** ****************************************************************************//**
 210:Generated_Source\PSoC6\pdl\drivers\peripheral\prot/cy_prot.c **** *
 211:Generated_Source\PSoC6\pdl\drivers\peripheral\prot/cy_prot.c **** * \brief Returns the active protection context of a master. 
 212:Generated_Source\PSoC6\pdl\drivers\peripheral\prot/cy_prot.c **** *
 213:Generated_Source\PSoC6\pdl\drivers\peripheral\prot/cy_prot.c **** * \param busMaster
 214:Generated_Source\PSoC6\pdl\drivers\peripheral\prot/cy_prot.c **** * The bus master, whose protection context is being read. Refer to the 
 215:Generated_Source\PSoC6\pdl\drivers\peripheral\prot/cy_prot.c **** * CPUSS_MS_ID_X defines.
 216:Generated_Source\PSoC6\pdl\drivers\peripheral\prot/cy_prot.c **** * 
 217:Generated_Source\PSoC6\pdl\drivers\peripheral\prot/cy_prot.c **** * \return
 218:Generated_Source\PSoC6\pdl\drivers\peripheral\prot/cy_prot.c **** * Active protection context of the master
 219:Generated_Source\PSoC6\pdl\drivers\peripheral\prot/cy_prot.c **** *
 220:Generated_Source\PSoC6\pdl\drivers\peripheral\prot/cy_prot.c **** * \funcusage
 221:Generated_Source\PSoC6\pdl\drivers\peripheral\prot/cy_prot.c **** * \snippet prot/prot_v1_10_sut_01.cydsn/main_cm4.c snippet_Cy_Prot_SetActivePC
 222:Generated_Source\PSoC6\pdl\drivers\peripheral\prot/cy_prot.c **** *
 223:Generated_Source\PSoC6\pdl\drivers\peripheral\prot/cy_prot.c **** *******************************************************************************/
 224:Generated_Source\PSoC6\pdl\drivers\peripheral\prot/cy_prot.c **** uint32_t Cy_Prot_GetActivePC(en_prot_master_t busMaster)
 225:Generated_Source\PSoC6\pdl\drivers\peripheral\prot/cy_prot.c **** {
 386              		.loc 1 225 0
 387              		.cfi_startproc
 388              		@ args = 0, pretend = 0, frame = 0
 389              		@ frame_needed = 0, uses_anonymous_args = 0
ARM GAS  C:\Users\gjl\AppData\Local\Temp\cc7xIfgu.s 			page 12


 390              	.LVL19:
 391 0000 10B5     		push	{r4, lr}
 392              		.cfi_def_cfa_offset 8
 393              		.cfi_offset 4, -8
 394              		.cfi_offset 14, -4
 395 0002 0400     		movs	r4, r0
 226:Generated_Source\PSoC6\pdl\drivers\peripheral\prot/cy_prot.c ****     PROT_MPU_Type* addrMpu;
 227:Generated_Source\PSoC6\pdl\drivers\peripheral\prot/cy_prot.c ****     
 228:Generated_Source\PSoC6\pdl\drivers\peripheral\prot/cy_prot.c ****     CY_ASSERT_L1(CY_PROT_IS_BUS_MASTER_VALID(busMaster));
 396              		.loc 1 228 0
 397 0004 0F28     		cmp	r0, #15
 398 0006 03D9     		bls	.L43
 399              		.loc 1 228 0 is_stmt 0 discriminator 1
 400 0008 E421     		movs	r1, #228
 401 000a 0548     		ldr	r0, .L44
 402              	.LVL20:
 403 000c FFF7FEFF 		bl	Cy_SysLib_AssertFailed
 404              	.LVL21:
 405              	.L43:
 229:Generated_Source\PSoC6\pdl\drivers\peripheral\prot/cy_prot.c ****     
 230:Generated_Source\PSoC6\pdl\drivers\peripheral\prot/cy_prot.c ****     addrMpu = (PROT_MPU_Type*)(&PROT->CYMPU[busMaster]);
 406              		.loc 1 230 0 is_stmt 1
 407 0010 A402     		lsls	r4, r4, #10
 408 0012 044B     		ldr	r3, .L44+4
 409 0014 9C46     		mov	ip, r3
 410 0016 6444     		add	r4, r4, ip
 411              	.LVL22:
 231:Generated_Source\PSoC6\pdl\drivers\peripheral\prot/cy_prot.c ****     
 232:Generated_Source\PSoC6\pdl\drivers\peripheral\prot/cy_prot.c ****     return ((uint32_t)_FLD2VAL(PROT_MPU_MS_CTL_PC, addrMpu->MS_CTL));
 412              		.loc 1 232 0
 413 0018 2368     		ldr	r3, [r4]
 414 001a 0F20     		movs	r0, #15
 415 001c 1840     		ands	r0, r3
 233:Generated_Source\PSoC6\pdl\drivers\peripheral\prot/cy_prot.c **** }
 416              		.loc 1 233 0
 417              		@ sp needed
 418              	.LVL23:
 419 001e 10BD     		pop	{r4, pc}
 420              	.L45:
 421              		.align	2
 422              	.L44:
 423 0020 00000000 		.word	.LC0
 424 0024 00402440 		.word	1076117504
 425              		.cfi_endproc
 426              	.LFE38:
 427              		.size	Cy_Prot_GetActivePC, .-Cy_Prot_GetActivePC
 428              		.section	.text.Cy_Prot_ConfigMpuStruct,"ax",%progbits
 429              		.align	2
 430              		.global	Cy_Prot_ConfigMpuStruct
 431              		.code	16
 432              		.thumb_func
 433              		.type	Cy_Prot_ConfigMpuStruct, %function
 434              	Cy_Prot_ConfigMpuStruct:
 435              	.LFB39:
 234:Generated_Source\PSoC6\pdl\drivers\peripheral\prot/cy_prot.c **** 
 235:Generated_Source\PSoC6\pdl\drivers\peripheral\prot/cy_prot.c **** 
 236:Generated_Source\PSoC6\pdl\drivers\peripheral\prot/cy_prot.c **** /*******************************************************************************
ARM GAS  C:\Users\gjl\AppData\Local\Temp\cc7xIfgu.s 			page 13


 237:Generated_Source\PSoC6\pdl\drivers\peripheral\prot/cy_prot.c **** * Function Name: Cy_Prot_ConfigMpuStruct
 238:Generated_Source\PSoC6\pdl\drivers\peripheral\prot/cy_prot.c **** ****************************************************************************//**
 239:Generated_Source\PSoC6\pdl\drivers\peripheral\prot/cy_prot.c **** *
 240:Generated_Source\PSoC6\pdl\drivers\peripheral\prot/cy_prot.c **** * \brief This function configures a memory protection unit (MPU) struct with its 
 241:Generated_Source\PSoC6\pdl\drivers\peripheral\prot/cy_prot.c **** * protection attributes. 
 242:Generated_Source\PSoC6\pdl\drivers\peripheral\prot/cy_prot.c **** *
 243:Generated_Source\PSoC6\pdl\drivers\peripheral\prot/cy_prot.c **** * The protection structs act like the gatekeepers for a master's accesses to
 244:Generated_Source\PSoC6\pdl\drivers\peripheral\prot/cy_prot.c **** * memory, allowing only the permitted transactions to go through.
 245:Generated_Source\PSoC6\pdl\drivers\peripheral\prot/cy_prot.c **** *
 246:Generated_Source\PSoC6\pdl\drivers\peripheral\prot/cy_prot.c **** * \param base
 247:Generated_Source\PSoC6\pdl\drivers\peripheral\prot/cy_prot.c **** * The base address for the MPU struct being configured. 
 248:Generated_Source\PSoC6\pdl\drivers\peripheral\prot/cy_prot.c **** * 
 249:Generated_Source\PSoC6\pdl\drivers\peripheral\prot/cy_prot.c **** * \param config
 250:Generated_Source\PSoC6\pdl\drivers\peripheral\prot/cy_prot.c **** * Initialization structure containing all the protection attributes.
 251:Generated_Source\PSoC6\pdl\drivers\peripheral\prot/cy_prot.c **** * 
 252:Generated_Source\PSoC6\pdl\drivers\peripheral\prot/cy_prot.c **** * \return
 253:Generated_Source\PSoC6\pdl\drivers\peripheral\prot/cy_prot.c **** * Status of the function call.
 254:Generated_Source\PSoC6\pdl\drivers\peripheral\prot/cy_prot.c **** *
 255:Generated_Source\PSoC6\pdl\drivers\peripheral\prot/cy_prot.c **** *   Status               | Description
 256:Generated_Source\PSoC6\pdl\drivers\peripheral\prot/cy_prot.c **** *   ------------         | -----------
 257:Generated_Source\PSoC6\pdl\drivers\peripheral\prot/cy_prot.c **** *   CY_PROT_SUCCESS      | The MPU struct was configured
 258:Generated_Source\PSoC6\pdl\drivers\peripheral\prot/cy_prot.c **** *   CY_PROT_FAILURE      | Configuration failed due to a protection violation
 259:Generated_Source\PSoC6\pdl\drivers\peripheral\prot/cy_prot.c **** *
 260:Generated_Source\PSoC6\pdl\drivers\peripheral\prot/cy_prot.c **** * \funcusage
 261:Generated_Source\PSoC6\pdl\drivers\peripheral\prot/cy_prot.c **** * \snippet prot/prot_v1_10_sut_01.cydsn/main_cm4.c snippet_Cy_Prot_ConfigMpuStruct
 262:Generated_Source\PSoC6\pdl\drivers\peripheral\prot/cy_prot.c **** *
 263:Generated_Source\PSoC6\pdl\drivers\peripheral\prot/cy_prot.c **** *******************************************************************************/
 264:Generated_Source\PSoC6\pdl\drivers\peripheral\prot/cy_prot.c **** cy_en_prot_status_t Cy_Prot_ConfigMpuStruct(PROT_MPU_MPU_STRUCT_Type* base, const cy_stc_mpu_cfg_t*
 265:Generated_Source\PSoC6\pdl\drivers\peripheral\prot/cy_prot.c **** {
 436              		.loc 1 265 0
 437              		.cfi_startproc
 438              		@ args = 0, pretend = 0, frame = 0
 439              		@ frame_needed = 0, uses_anonymous_args = 0
 440              	.LVL24:
 441 0000 70B5     		push	{r4, r5, r6, lr}
 442              		.cfi_def_cfa_offset 16
 443              		.cfi_offset 4, -16
 444              		.cfi_offset 5, -12
 445              		.cfi_offset 6, -8
 446              		.cfi_offset 14, -4
 447 0002 0500     		movs	r5, r0
 448 0004 0C00     		movs	r4, r1
 266:Generated_Source\PSoC6\pdl\drivers\peripheral\prot/cy_prot.c ****     cy_en_prot_status_t status;
 267:Generated_Source\PSoC6\pdl\drivers\peripheral\prot/cy_prot.c ****     uint32_t addrReg;
 268:Generated_Source\PSoC6\pdl\drivers\peripheral\prot/cy_prot.c ****     uint32_t attReg;
 269:Generated_Source\PSoC6\pdl\drivers\peripheral\prot/cy_prot.c **** 
 270:Generated_Source\PSoC6\pdl\drivers\peripheral\prot/cy_prot.c ****     CY_ASSERT_L1(NULL != base);
 449              		.loc 1 270 0
 450 0006 0028     		cmp	r0, #0
 451 0008 04D1     		bne	.L47
 452              		.loc 1 270 0 is_stmt 0 discriminator 1
 453 000a 8721     		movs	r1, #135
 454              	.LVL25:
 455 000c 4900     		lsls	r1, r1, #1
 456 000e 2348     		ldr	r0, .L54
 457              	.LVL26:
 458 0010 FFF7FEFF 		bl	Cy_SysLib_AssertFailed
ARM GAS  C:\Users\gjl\AppData\Local\Temp\cc7xIfgu.s 			page 14


 459              	.LVL27:
 460              	.L47:
 271:Generated_Source\PSoC6\pdl\drivers\peripheral\prot/cy_prot.c ****     CY_ASSERT_L3(CY_PROT_IS_MPU_PERM_VALID(config->userPermission));
 461              		.loc 1 271 0 is_stmt 1
 462 0014 A379     		ldrb	r3, [r4, #6]
 463 0016 072B     		cmp	r3, #7
 464 0018 04D9     		bls	.L48
 465              		.loc 1 271 0 is_stmt 0 discriminator 1
 466 001a 1021     		movs	r1, #16
 467 001c FF31     		adds	r1, r1, #255
 468 001e 1F48     		ldr	r0, .L54
 469 0020 FFF7FEFF 		bl	Cy_SysLib_AssertFailed
 470              	.LVL28:
 471              	.L48:
 272:Generated_Source\PSoC6\pdl\drivers\peripheral\prot/cy_prot.c ****     CY_ASSERT_L3(CY_PROT_IS_MPU_PERM_VALID(config->privPermission));
 472              		.loc 1 272 0 is_stmt 1
 473 0024 E379     		ldrb	r3, [r4, #7]
 474 0026 072B     		cmp	r3, #7
 475 0028 04D9     		bls	.L49
 476              		.loc 1 272 0 is_stmt 0 discriminator 1
 477 002a 8821     		movs	r1, #136
 478 002c 4900     		lsls	r1, r1, #1
 479 002e 1B48     		ldr	r0, .L54
 480 0030 FFF7FEFF 		bl	Cy_SysLib_AssertFailed
 481              	.LVL29:
 482              	.L49:
 273:Generated_Source\PSoC6\pdl\drivers\peripheral\prot/cy_prot.c ****     CY_ASSERT_L3(CY_PROT_IS_REGION_SIZE_VALID(config->regionSize));
 483              		.loc 1 273 0 is_stmt 1
 484 0034 2379     		ldrb	r3, [r4, #4]
 485 0036 073B     		subs	r3, r3, #7
 486 0038 DBB2     		uxtb	r3, r3
 487 003a 182B     		cmp	r3, #24
 488 003c 04D9     		bls	.L50
 489              		.loc 1 273 0 is_stmt 0 discriminator 1
 490 003e 1221     		movs	r1, #18
 491 0040 FF31     		adds	r1, r1, #255
 492 0042 1648     		ldr	r0, .L54
 493 0044 FFF7FEFF 		bl	Cy_SysLib_AssertFailed
 494              	.LVL30:
 495              	.L50:
 274:Generated_Source\PSoC6\pdl\drivers\peripheral\prot/cy_prot.c **** 
 275:Generated_Source\PSoC6\pdl\drivers\peripheral\prot/cy_prot.c ****     addrReg = _VAL2FLD(PROT_MPU_MPU_STRUCT_ADDR_SUBREGION_DISABLE, config->subregions)
 496              		.loc 1 275 0 is_stmt 1
 497 0048 6079     		ldrb	r0, [r4, #5]
 276:Generated_Source\PSoC6\pdl\drivers\peripheral\prot/cy_prot.c ****               | _VAL2FLD(PROT_MPU_MPU_STRUCT_ADDR_ADDR24, (uint32_t)((uint32_t)config->address >> C
 498              		.loc 1 276 0
 499 004a FF23     		movs	r3, #255
 500 004c 2268     		ldr	r2, [r4]
 501 004e 9A43     		bics	r2, r3
 275:Generated_Source\PSoC6\pdl\drivers\peripheral\prot/cy_prot.c ****               | _VAL2FLD(PROT_MPU_MPU_STRUCT_ADDR_ADDR24, (uint32_t)((uint32_t)config->address >> C
 502              		.loc 1 275 0
 503 0050 1043     		orrs	r0, r2
 504              	.LVL31:
 277:Generated_Source\PSoC6\pdl\drivers\peripheral\prot/cy_prot.c ****     attReg  = ((uint32_t)config->userPermission & CY_PROT_ATT_PERMISSION_MASK)
 505              		.loc 1 277 0
 506 0052 A379     		ldrb	r3, [r4, #6]
 507 0054 0721     		movs	r1, #7
ARM GAS  C:\Users\gjl\AppData\Local\Temp\cc7xIfgu.s 			page 15


 508 0056 1940     		ands	r1, r3
 278:Generated_Source\PSoC6\pdl\drivers\peripheral\prot/cy_prot.c ****               | (((uint32_t)config->privPermission & CY_PROT_ATT_PERMISSION_MASK) << CY_PROT_ATT_PR
 509              		.loc 1 278 0
 510 0058 E279     		ldrb	r2, [r4, #7]
 511 005a D200     		lsls	r2, r2, #3
 512 005c 3823     		movs	r3, #56
 513 005e 1340     		ands	r3, r2
 514 0060 1943     		orrs	r1, r3
 279:Generated_Source\PSoC6\pdl\drivers\peripheral\prot/cy_prot.c ****               | _VAL2FLD(PROT_MPU_MPU_STRUCT_ATT_NS, !(config->secure))
 515              		.loc 1 279 0
 516 0062 237A     		ldrb	r3, [r4, #8]
 517 0064 0122     		movs	r2, #1
 518 0066 5A40     		eors	r2, r3
 519 0068 D2B2     		uxtb	r2, r2
 520 006a 9201     		lsls	r2, r2, #6
 521 006c 4023     		movs	r3, #64
 522 006e 1A40     		ands	r2, r3
 523 0070 0B00     		movs	r3, r1
 524 0072 1343     		orrs	r3, r2
 280:Generated_Source\PSoC6\pdl\drivers\peripheral\prot/cy_prot.c ****               | _VAL2FLD(PROT_MPU_MPU_STRUCT_ATT_REGION_SIZE, config->regionSize);
 525              		.loc 1 280 0
 526 0074 2279     		ldrb	r2, [r4, #4]
 527 0076 1206     		lsls	r2, r2, #24
 528 0078 F821     		movs	r1, #248
 529 007a 4905     		lsls	r1, r1, #21
 530 007c 0A40     		ands	r2, r1
 277:Generated_Source\PSoC6\pdl\drivers\peripheral\prot/cy_prot.c ****               | (((uint32_t)config->privPermission & CY_PROT_ATT_PERMISSION_MASK) << CY_PROT_ATT_PR
 531              		.loc 1 277 0
 532 007e 1343     		orrs	r3, r2
 533              	.LVL32:
 281:Generated_Source\PSoC6\pdl\drivers\peripheral\prot/cy_prot.c ****     base->ATT = attReg;
 534              		.loc 1 281 0
 535 0080 6B60     		str	r3, [r5, #4]
 282:Generated_Source\PSoC6\pdl\drivers\peripheral\prot/cy_prot.c ****     base->ADDR = addrReg;
 536              		.loc 1 282 0
 537 0082 2860     		str	r0, [r5]
 283:Generated_Source\PSoC6\pdl\drivers\peripheral\prot/cy_prot.c ****     status = ((base->ADDR != addrReg) || (base->ATT != attReg)) ? CY_PROT_FAILURE : CY_PROT_SUCCESS
 538              		.loc 1 283 0
 539 0084 2A68     		ldr	r2, [r5]
 540 0086 9042     		cmp	r0, r2
 541 0088 04D1     		bne	.L52
 542              		.loc 1 283 0 is_stmt 0 discriminator 2
 543 008a 6A68     		ldr	r2, [r5, #4]
 544 008c 9342     		cmp	r3, r2
 545 008e 03D0     		beq	.L53
 546              		.loc 1 283 0
 547 0090 0348     		ldr	r0, .L54+4
 548              	.LVL33:
 549 0092 02E0     		b	.L51
 550              	.LVL34:
 551              	.L52:
 552 0094 0248     		ldr	r0, .L54+4
 553              	.LVL35:
 554 0096 00E0     		b	.L51
 555              	.LVL36:
 556              	.L53:
 557 0098 0020     		movs	r0, #0
ARM GAS  C:\Users\gjl\AppData\Local\Temp\cc7xIfgu.s 			page 16


 558              	.LVL37:
 559              	.L51:
 284:Generated_Source\PSoC6\pdl\drivers\peripheral\prot/cy_prot.c ****     
 285:Generated_Source\PSoC6\pdl\drivers\peripheral\prot/cy_prot.c ****     return status;
 286:Generated_Source\PSoC6\pdl\drivers\peripheral\prot/cy_prot.c **** }
 560              		.loc 1 286 0 is_stmt 1 discriminator 6
 561              		@ sp needed
 562              	.LVL38:
 563              	.LVL39:
 564 009a 70BD     		pop	{r4, r5, r6, pc}
 565              	.L55:
 566              		.align	2
 567              	.L54:
 568 009c 00000000 		.word	.LC0
 569 00a0 0300C200 		.word	12713987
 570              		.cfi_endproc
 571              	.LFE39:
 572              		.size	Cy_Prot_ConfigMpuStruct, .-Cy_Prot_ConfigMpuStruct
 573              		.section	.text.Cy_Prot_EnableMpuStruct,"ax",%progbits
 574              		.align	2
 575              		.global	Cy_Prot_EnableMpuStruct
 576              		.code	16
 577              		.thumb_func
 578              		.type	Cy_Prot_EnableMpuStruct, %function
 579              	Cy_Prot_EnableMpuStruct:
 580              	.LFB40:
 287:Generated_Source\PSoC6\pdl\drivers\peripheral\prot/cy_prot.c **** 
 288:Generated_Source\PSoC6\pdl\drivers\peripheral\prot/cy_prot.c **** 
 289:Generated_Source\PSoC6\pdl\drivers\peripheral\prot/cy_prot.c **** /*******************************************************************************
 290:Generated_Source\PSoC6\pdl\drivers\peripheral\prot/cy_prot.c **** * Function Name: Cy_Prot_EnableMpuStruct
 291:Generated_Source\PSoC6\pdl\drivers\peripheral\prot/cy_prot.c **** ****************************************************************************//**
 292:Generated_Source\PSoC6\pdl\drivers\peripheral\prot/cy_prot.c **** *
 293:Generated_Source\PSoC6\pdl\drivers\peripheral\prot/cy_prot.c **** * \brief Enables the MPU struct, which allows the MPU protection attributes to 
 294:Generated_Source\PSoC6\pdl\drivers\peripheral\prot/cy_prot.c **** * take effect. 
 295:Generated_Source\PSoC6\pdl\drivers\peripheral\prot/cy_prot.c **** *
 296:Generated_Source\PSoC6\pdl\drivers\peripheral\prot/cy_prot.c **** * \param base
 297:Generated_Source\PSoC6\pdl\drivers\peripheral\prot/cy_prot.c **** * The base address of the MPU struct being configured. 
 298:Generated_Source\PSoC6\pdl\drivers\peripheral\prot/cy_prot.c **** *
 299:Generated_Source\PSoC6\pdl\drivers\peripheral\prot/cy_prot.c **** * \return
 300:Generated_Source\PSoC6\pdl\drivers\peripheral\prot/cy_prot.c **** * Status of the function call.
 301:Generated_Source\PSoC6\pdl\drivers\peripheral\prot/cy_prot.c **** *
 302:Generated_Source\PSoC6\pdl\drivers\peripheral\prot/cy_prot.c **** *   Status               | Description
 303:Generated_Source\PSoC6\pdl\drivers\peripheral\prot/cy_prot.c **** *   ------------         | -----------
 304:Generated_Source\PSoC6\pdl\drivers\peripheral\prot/cy_prot.c **** *   CY_PROT_SUCCESS      | The MPU struct was enabled
 305:Generated_Source\PSoC6\pdl\drivers\peripheral\prot/cy_prot.c **** *   CY_PROT_FAILURE      | The MPU struct is disabled and possibly locked
 306:Generated_Source\PSoC6\pdl\drivers\peripheral\prot/cy_prot.c **** *
 307:Generated_Source\PSoC6\pdl\drivers\peripheral\prot/cy_prot.c **** * \funcusage
 308:Generated_Source\PSoC6\pdl\drivers\peripheral\prot/cy_prot.c **** * \snippet prot/prot_v1_10_sut_01.cydsn/main_cm4.c snippet_Cy_Prot_EnableMpuStruct
 309:Generated_Source\PSoC6\pdl\drivers\peripheral\prot/cy_prot.c **** *
 310:Generated_Source\PSoC6\pdl\drivers\peripheral\prot/cy_prot.c **** *******************************************************************************/
 311:Generated_Source\PSoC6\pdl\drivers\peripheral\prot/cy_prot.c **** cy_en_prot_status_t Cy_Prot_EnableMpuStruct(PROT_MPU_MPU_STRUCT_Type* base)
 312:Generated_Source\PSoC6\pdl\drivers\peripheral\prot/cy_prot.c **** {
 581              		.loc 1 312 0
 582              		.cfi_startproc
 583              		@ args = 0, pretend = 0, frame = 0
 584              		@ frame_needed = 0, uses_anonymous_args = 0
 585              		@ link register save eliminated.
ARM GAS  C:\Users\gjl\AppData\Local\Temp\cc7xIfgu.s 			page 17


 586              	.LVL40:
 313:Generated_Source\PSoC6\pdl\drivers\peripheral\prot/cy_prot.c ****     cy_en_prot_status_t status;
 314:Generated_Source\PSoC6\pdl\drivers\peripheral\prot/cy_prot.c **** 
 315:Generated_Source\PSoC6\pdl\drivers\peripheral\prot/cy_prot.c ****     base->ATT |= _VAL2FLD(PROT_MPU_MPU_STRUCT_ATT_ENABLED, CY_PROT_STRUCT_ENABLE);
 587              		.loc 1 315 0
 588 0000 4368     		ldr	r3, [r0, #4]
 589 0002 8022     		movs	r2, #128
 590 0004 1206     		lsls	r2, r2, #24
 591 0006 1343     		orrs	r3, r2
 592 0008 4360     		str	r3, [r0, #4]
 316:Generated_Source\PSoC6\pdl\drivers\peripheral\prot/cy_prot.c ****     status = (_FLD2VAL(PROT_MPU_MPU_STRUCT_ATT_ENABLED, base->ATT) != CY_PROT_STRUCT_ENABLE) ?
 593              		.loc 1 316 0
 594 000a 4368     		ldr	r3, [r0, #4]
 595 000c 002B     		cmp	r3, #0
 596 000e 01DB     		blt	.L58
 597 0010 0148     		ldr	r0, .L59
 598              	.LVL41:
 599 0012 00E0     		b	.L57
 600              	.LVL42:
 601              	.L58:
 602 0014 0020     		movs	r0, #0
 603              	.LVL43:
 604              	.L57:
 317:Generated_Source\PSoC6\pdl\drivers\peripheral\prot/cy_prot.c ****                 CY_PROT_FAILURE : CY_PROT_SUCCESS;
 318:Generated_Source\PSoC6\pdl\drivers\peripheral\prot/cy_prot.c ****     
 319:Generated_Source\PSoC6\pdl\drivers\peripheral\prot/cy_prot.c ****     return status;
 320:Generated_Source\PSoC6\pdl\drivers\peripheral\prot/cy_prot.c **** }
 605              		.loc 1 320 0 discriminator 4
 606              		@ sp needed
 607 0016 7047     		bx	lr
 608              	.L60:
 609              		.align	2
 610              	.L59:
 611 0018 0300C200 		.word	12713987
 612              		.cfi_endproc
 613              	.LFE40:
 614              		.size	Cy_Prot_EnableMpuStruct, .-Cy_Prot_EnableMpuStruct
 615              		.section	.text.Cy_Prot_DisableMpuStruct,"ax",%progbits
 616              		.align	2
 617              		.global	Cy_Prot_DisableMpuStruct
 618              		.code	16
 619              		.thumb_func
 620              		.type	Cy_Prot_DisableMpuStruct, %function
 621              	Cy_Prot_DisableMpuStruct:
 622              	.LFB41:
 321:Generated_Source\PSoC6\pdl\drivers\peripheral\prot/cy_prot.c **** 
 322:Generated_Source\PSoC6\pdl\drivers\peripheral\prot/cy_prot.c **** 
 323:Generated_Source\PSoC6\pdl\drivers\peripheral\prot/cy_prot.c **** /*******************************************************************************
 324:Generated_Source\PSoC6\pdl\drivers\peripheral\prot/cy_prot.c **** * Function Name: Cy_Prot_DisableMpuStruct
 325:Generated_Source\PSoC6\pdl\drivers\peripheral\prot/cy_prot.c **** ****************************************************************************//**
 326:Generated_Source\PSoC6\pdl\drivers\peripheral\prot/cy_prot.c **** *
 327:Generated_Source\PSoC6\pdl\drivers\peripheral\prot/cy_prot.c **** * \brief Disbles the MPU struct, which prevents the MPU protection attributes
 328:Generated_Source\PSoC6\pdl\drivers\peripheral\prot/cy_prot.c **** * from taking effect.
 329:Generated_Source\PSoC6\pdl\drivers\peripheral\prot/cy_prot.c **** *
 330:Generated_Source\PSoC6\pdl\drivers\peripheral\prot/cy_prot.c **** * \param base
 331:Generated_Source\PSoC6\pdl\drivers\peripheral\prot/cy_prot.c **** * The base address of the MPU struct being configured. 
 332:Generated_Source\PSoC6\pdl\drivers\peripheral\prot/cy_prot.c **** *
ARM GAS  C:\Users\gjl\AppData\Local\Temp\cc7xIfgu.s 			page 18


 333:Generated_Source\PSoC6\pdl\drivers\peripheral\prot/cy_prot.c **** * \return
 334:Generated_Source\PSoC6\pdl\drivers\peripheral\prot/cy_prot.c **** * Status of the function call.
 335:Generated_Source\PSoC6\pdl\drivers\peripheral\prot/cy_prot.c **** *
 336:Generated_Source\PSoC6\pdl\drivers\peripheral\prot/cy_prot.c **** *   Status               | Description
 337:Generated_Source\PSoC6\pdl\drivers\peripheral\prot/cy_prot.c **** *   ------------         | -----------
 338:Generated_Source\PSoC6\pdl\drivers\peripheral\prot/cy_prot.c **** *   CY_PROT_SUCCESS      | The MPU struct was disabled
 339:Generated_Source\PSoC6\pdl\drivers\peripheral\prot/cy_prot.c **** *   CY_PROT_FAILURE      | The MPU struct is enabled and possibly locked
 340:Generated_Source\PSoC6\pdl\drivers\peripheral\prot/cy_prot.c **** *
 341:Generated_Source\PSoC6\pdl\drivers\peripheral\prot/cy_prot.c **** * \funcusage
 342:Generated_Source\PSoC6\pdl\drivers\peripheral\prot/cy_prot.c **** * \snippet prot/prot_v1_10_sut_01.cydsn/main_cm4.c snippet_Cy_Prot_DisableMpuStruct
 343:Generated_Source\PSoC6\pdl\drivers\peripheral\prot/cy_prot.c **** *
 344:Generated_Source\PSoC6\pdl\drivers\peripheral\prot/cy_prot.c **** *******************************************************************************/
 345:Generated_Source\PSoC6\pdl\drivers\peripheral\prot/cy_prot.c **** cy_en_prot_status_t Cy_Prot_DisableMpuStruct(PROT_MPU_MPU_STRUCT_Type* base)
 346:Generated_Source\PSoC6\pdl\drivers\peripheral\prot/cy_prot.c **** {
 623              		.loc 1 346 0
 624              		.cfi_startproc
 625              		@ args = 0, pretend = 0, frame = 0
 626              		@ frame_needed = 0, uses_anonymous_args = 0
 627              		@ link register save eliminated.
 628              	.LVL44:
 347:Generated_Source\PSoC6\pdl\drivers\peripheral\prot/cy_prot.c ****     cy_en_prot_status_t status;
 348:Generated_Source\PSoC6\pdl\drivers\peripheral\prot/cy_prot.c ****     
 349:Generated_Source\PSoC6\pdl\drivers\peripheral\prot/cy_prot.c ****     base->ATT &= ~_VAL2FLD(PROT_MPU_MPU_STRUCT_ATT_ENABLED, CY_PROT_STRUCT_ENABLE);
 629              		.loc 1 349 0
 630 0000 4368     		ldr	r3, [r0, #4]
 631 0002 5B00     		lsls	r3, r3, #1
 632 0004 5B08     		lsrs	r3, r3, #1
 633 0006 4360     		str	r3, [r0, #4]
 350:Generated_Source\PSoC6\pdl\drivers\peripheral\prot/cy_prot.c ****     status = (_FLD2VAL(PROT_MPU_MPU_STRUCT_ATT_ENABLED, base->ATT) == CY_PROT_STRUCT_ENABLE) ?
 634              		.loc 1 350 0
 635 0008 4368     		ldr	r3, [r0, #4]
 636 000a 002B     		cmp	r3, #0
 637 000c 01DA     		bge	.L63
 638 000e 0248     		ldr	r0, .L64
 639              	.LVL45:
 640 0010 00E0     		b	.L62
 641              	.LVL46:
 642              	.L63:
 643 0012 0020     		movs	r0, #0
 644              	.LVL47:
 645              	.L62:
 351:Generated_Source\PSoC6\pdl\drivers\peripheral\prot/cy_prot.c ****             CY_PROT_FAILURE : CY_PROT_SUCCESS;
 352:Generated_Source\PSoC6\pdl\drivers\peripheral\prot/cy_prot.c ****     
 353:Generated_Source\PSoC6\pdl\drivers\peripheral\prot/cy_prot.c ****     return status;
 354:Generated_Source\PSoC6\pdl\drivers\peripheral\prot/cy_prot.c **** }
 646              		.loc 1 354 0 discriminator 4
 647              		@ sp needed
 648 0014 7047     		bx	lr
 649              	.L65:
 650 0016 C046     		.align	2
 651              	.L64:
 652 0018 0300C200 		.word	12713987
 653              		.cfi_endproc
 654              	.LFE41:
 655              		.size	Cy_Prot_DisableMpuStruct, .-Cy_Prot_DisableMpuStruct
 656              		.section	.text.Cy_Prot_ConfigSmpuMasterStruct,"ax",%progbits
 657              		.align	2
ARM GAS  C:\Users\gjl\AppData\Local\Temp\cc7xIfgu.s 			page 19


 658              		.global	Cy_Prot_ConfigSmpuMasterStruct
 659              		.code	16
 660              		.thumb_func
 661              		.type	Cy_Prot_ConfigSmpuMasterStruct, %function
 662              	Cy_Prot_ConfigSmpuMasterStruct:
 663              	.LFB42:
 355:Generated_Source\PSoC6\pdl\drivers\peripheral\prot/cy_prot.c **** 
 356:Generated_Source\PSoC6\pdl\drivers\peripheral\prot/cy_prot.c **** 
 357:Generated_Source\PSoC6\pdl\drivers\peripheral\prot/cy_prot.c **** /*******************************************************************************
 358:Generated_Source\PSoC6\pdl\drivers\peripheral\prot/cy_prot.c **** * Function Name: Cy_Prot_ConfigSmpuMasterStruct
 359:Generated_Source\PSoC6\pdl\drivers\peripheral\prot/cy_prot.c **** ****************************************************************************//**
 360:Generated_Source\PSoC6\pdl\drivers\peripheral\prot/cy_prot.c **** *
 361:Generated_Source\PSoC6\pdl\drivers\peripheral\prot/cy_prot.c **** * \brief Configures a Shared Memory Protection Unit (SMPU) master protection 
 362:Generated_Source\PSoC6\pdl\drivers\peripheral\prot/cy_prot.c **** * struct with its protection attributes. 
 363:Generated_Source\PSoC6\pdl\drivers\peripheral\prot/cy_prot.c **** *
 364:Generated_Source\PSoC6\pdl\drivers\peripheral\prot/cy_prot.c **** * This function configures the master struct governing the corresponding slave
 365:Generated_Source\PSoC6\pdl\drivers\peripheral\prot/cy_prot.c **** * struct pair. It is a mechanism to protect the slave SMPU struct. Since the
 366:Generated_Source\PSoC6\pdl\drivers\peripheral\prot/cy_prot.c **** * memory location of the slave struct is known, the address, regionSize and
 367:Generated_Source\PSoC6\pdl\drivers\peripheral\prot/cy_prot.c **** * subregions of the configuration struct are not applicable.
 368:Generated_Source\PSoC6\pdl\drivers\peripheral\prot/cy_prot.c **** *
 369:Generated_Source\PSoC6\pdl\drivers\peripheral\prot/cy_prot.c **** * Note that only the user/privileged write permissions are configurable. The 
 370:Generated_Source\PSoC6\pdl\drivers\peripheral\prot/cy_prot.c **** * read and execute permissions are read-only and cannot be configured.
 371:Generated_Source\PSoC6\pdl\drivers\peripheral\prot/cy_prot.c **** *
 372:Generated_Source\PSoC6\pdl\drivers\peripheral\prot/cy_prot.c **** * \param base
 373:Generated_Source\PSoC6\pdl\drivers\peripheral\prot/cy_prot.c **** * The register base address of the protection struct being configured.
 374:Generated_Source\PSoC6\pdl\drivers\peripheral\prot/cy_prot.c **** * 
 375:Generated_Source\PSoC6\pdl\drivers\peripheral\prot/cy_prot.c **** * \param config
 376:Generated_Source\PSoC6\pdl\drivers\peripheral\prot/cy_prot.c **** * Initialization structure with all the protection attributes.
 377:Generated_Source\PSoC6\pdl\drivers\peripheral\prot/cy_prot.c **** * 
 378:Generated_Source\PSoC6\pdl\drivers\peripheral\prot/cy_prot.c **** * \return
 379:Generated_Source\PSoC6\pdl\drivers\peripheral\prot/cy_prot.c **** * Status of the function call.
 380:Generated_Source\PSoC6\pdl\drivers\peripheral\prot/cy_prot.c **** *
 381:Generated_Source\PSoC6\pdl\drivers\peripheral\prot/cy_prot.c **** *   Status               | Description
 382:Generated_Source\PSoC6\pdl\drivers\peripheral\prot/cy_prot.c **** *   ------------         | -----------
 383:Generated_Source\PSoC6\pdl\drivers\peripheral\prot/cy_prot.c **** *   CY_PROT_SUCCESS      | SMPU master struct was successfully configured
 384:Generated_Source\PSoC6\pdl\drivers\peripheral\prot/cy_prot.c **** *   CY_PROT_FAILURE      | The resource is locked
 385:Generated_Source\PSoC6\pdl\drivers\peripheral\prot/cy_prot.c **** *   CY_PROT_BAD_PARAM    | An incorrect/invalid parameter was passed
 386:Generated_Source\PSoC6\pdl\drivers\peripheral\prot/cy_prot.c **** *
 387:Generated_Source\PSoC6\pdl\drivers\peripheral\prot/cy_prot.c **** * \funcusage
 388:Generated_Source\PSoC6\pdl\drivers\peripheral\prot/cy_prot.c **** * \snippet prot/prot_v1_10_sut_01.cydsn/main_cm4.c snippet_Cy_Prot_ConfigSmpuMasterStruct
 389:Generated_Source\PSoC6\pdl\drivers\peripheral\prot/cy_prot.c **** *
 390:Generated_Source\PSoC6\pdl\drivers\peripheral\prot/cy_prot.c **** *******************************************************************************/
 391:Generated_Source\PSoC6\pdl\drivers\peripheral\prot/cy_prot.c **** cy_en_prot_status_t Cy_Prot_ConfigSmpuMasterStruct(PROT_SMPU_SMPU_STRUCT_Type* base, const cy_stc_s
 392:Generated_Source\PSoC6\pdl\drivers\peripheral\prot/cy_prot.c **** {
 664              		.loc 1 392 0
 665              		.cfi_startproc
 666              		@ args = 0, pretend = 0, frame = 0
 667              		@ frame_needed = 0, uses_anonymous_args = 0
 668              	.LVL48:
 669 0000 70B5     		push	{r4, r5, r6, lr}
 670              		.cfi_def_cfa_offset 16
 671              		.cfi_offset 4, -16
 672              		.cfi_offset 5, -12
 673              		.cfi_offset 6, -8
 674              		.cfi_offset 14, -4
 675 0002 0500     		movs	r5, r0
 676 0004 0C00     		movs	r4, r1
ARM GAS  C:\Users\gjl\AppData\Local\Temp\cc7xIfgu.s 			page 20


 393:Generated_Source\PSoC6\pdl\drivers\peripheral\prot/cy_prot.c ****     cy_en_prot_status_t status;
 394:Generated_Source\PSoC6\pdl\drivers\peripheral\prot/cy_prot.c ****     uint32_t attReg;
 395:Generated_Source\PSoC6\pdl\drivers\peripheral\prot/cy_prot.c ****     
 396:Generated_Source\PSoC6\pdl\drivers\peripheral\prot/cy_prot.c ****     CY_ASSERT_L1(NULL != base);
 677              		.loc 1 396 0
 678 0006 0028     		cmp	r0, #0
 679 0008 04D1     		bne	.L67
 680              		.loc 1 396 0 is_stmt 0 discriminator 1
 681 000a C621     		movs	r1, #198
 682              	.LVL49:
 683 000c 4900     		lsls	r1, r1, #1
 684 000e 2548     		ldr	r0, .L74
 685              	.LVL50:
 686 0010 FFF7FEFF 		bl	Cy_SysLib_AssertFailed
 687              	.LVL51:
 688              	.L67:
 397:Generated_Source\PSoC6\pdl\drivers\peripheral\prot/cy_prot.c ****     CY_ASSERT_L3(CY_PROT_IS_SMPU_MS_PERM_VALID(config->userPermission));
 689              		.loc 1 397 0 is_stmt 1
 690 0014 A379     		ldrb	r3, [r4, #6]
 691 0016 012B     		cmp	r3, #1
 692 0018 06D0     		beq	.L68
 693              		.loc 1 397 0 is_stmt 0 discriminator 1
 694 001a 032B     		cmp	r3, #3
 695 001c 04D0     		beq	.L68
 696              		.loc 1 397 0 discriminator 2
 697 001e 8E21     		movs	r1, #142
 698 0020 FF31     		adds	r1, r1, #255
 699 0022 2048     		ldr	r0, .L74
 700 0024 FFF7FEFF 		bl	Cy_SysLib_AssertFailed
 701              	.LVL52:
 702              	.L68:
 398:Generated_Source\PSoC6\pdl\drivers\peripheral\prot/cy_prot.c ****     CY_ASSERT_L3(CY_PROT_IS_SMPU_MS_PERM_VALID(config->privPermission));
 703              		.loc 1 398 0 is_stmt 1
 704 0028 E379     		ldrb	r3, [r4, #7]
 705 002a 012B     		cmp	r3, #1
 706 002c 06D0     		beq	.L69
 707              		.loc 1 398 0 is_stmt 0 discriminator 1
 708 002e 032B     		cmp	r3, #3
 709 0030 04D0     		beq	.L69
 710              		.loc 1 398 0 discriminator 2
 711 0032 C721     		movs	r1, #199
 712 0034 4900     		lsls	r1, r1, #1
 713 0036 1B48     		ldr	r0, .L74
 714 0038 FFF7FEFF 		bl	Cy_SysLib_AssertFailed
 715              	.LVL53:
 716              	.L69:
 399:Generated_Source\PSoC6\pdl\drivers\peripheral\prot/cy_prot.c ****     
 400:Generated_Source\PSoC6\pdl\drivers\peripheral\prot/cy_prot.c ****     if(((uint32_t)config->pcMask & CY_PROT_SMPU_PC_LIMIT_MASK) != 0UL) 
 717              		.loc 1 400 0 is_stmt 1
 718 003c 6189     		ldrh	r1, [r4, #10]
 719 003e 7F23     		movs	r3, #127
 720 0040 0A00     		movs	r2, r1
 721 0042 9A43     		bics	r2, r3
 722 0044 28D1     		bne	.L71
 401:Generated_Source\PSoC6\pdl\drivers\peripheral\prot/cy_prot.c ****     {
 402:Generated_Source\PSoC6\pdl\drivers\peripheral\prot/cy_prot.c ****         /* PC mask out of range - not supported in device */
 403:Generated_Source\PSoC6\pdl\drivers\peripheral\prot/cy_prot.c ****         status = CY_PROT_BAD_PARAM;
ARM GAS  C:\Users\gjl\AppData\Local\Temp\cc7xIfgu.s 			page 21


 404:Generated_Source\PSoC6\pdl\drivers\peripheral\prot/cy_prot.c ****     }
 405:Generated_Source\PSoC6\pdl\drivers\peripheral\prot/cy_prot.c ****     else
 406:Generated_Source\PSoC6\pdl\drivers\peripheral\prot/cy_prot.c ****     {
 407:Generated_Source\PSoC6\pdl\drivers\peripheral\prot/cy_prot.c ****         /* ADDR1 is read only. Only configure ATT1 */
 408:Generated_Source\PSoC6\pdl\drivers\peripheral\prot/cy_prot.c ****         attReg = ((uint32_t)config->userPermission & CY_PROT_ATT_PERMISSION_MASK)
 723              		.loc 1 408 0
 724 0046 A379     		ldrb	r3, [r4, #6]
 725 0048 0720     		movs	r0, #7
 726 004a 1840     		ands	r0, r3
 409:Generated_Source\PSoC6\pdl\drivers\peripheral\prot/cy_prot.c ****                     | (uint32_t)(((uint32_t)config->privPermission & CY_PROT_ATT_PERMISSION_MASK) <
 727              		.loc 1 409 0
 728 004c E279     		ldrb	r2, [r4, #7]
 729 004e D200     		lsls	r2, r2, #3
 730 0050 3823     		movs	r3, #56
 731 0052 1340     		ands	r3, r2
 732 0054 1843     		orrs	r0, r3
 410:Generated_Source\PSoC6\pdl\drivers\peripheral\prot/cy_prot.c ****                     | _VAL2FLD(PROT_SMPU_SMPU_STRUCT_ATT1_NS, !(config->secure))
 733              		.loc 1 410 0
 734 0056 237A     		ldrb	r3, [r4, #8]
 735 0058 0122     		movs	r2, #1
 736 005a 5A40     		eors	r2, r3
 737 005c D2B2     		uxtb	r2, r2
 738 005e 9201     		lsls	r2, r2, #6
 739 0060 4023     		movs	r3, #64
 740 0062 1A40     		ands	r2, r3
 741 0064 0300     		movs	r3, r0
 742 0066 1343     		orrs	r3, r2
 411:Generated_Source\PSoC6\pdl\drivers\peripheral\prot/cy_prot.c ****                     | _VAL2FLD(PROT_SMPU_SMPU_STRUCT_ATT1_PC_MASK_15_TO_1, config->pcMask)
 743              		.loc 1 411 0
 744 0068 4902     		lsls	r1, r1, #9
 745 006a 0F4A     		ldr	r2, .L74+4
 746 006c 1140     		ands	r1, r2
 747 006e 1943     		orrs	r1, r3
 412:Generated_Source\PSoC6\pdl\drivers\peripheral\prot/cy_prot.c ****                     /* No region size - read only for master structs */
 413:Generated_Source\PSoC6\pdl\drivers\peripheral\prot/cy_prot.c ****                     | _VAL2FLD(PROT_SMPU_SMPU_STRUCT_ATT1_PC_MATCH, config->pcMatch);
 748              		.loc 1 413 0
 749 0070 637A     		ldrb	r3, [r4, #9]
 750 0072 9B07     		lsls	r3, r3, #30
 751 0074 8020     		movs	r0, #128
 752 0076 C005     		lsls	r0, r0, #23
 753 0078 0340     		ands	r3, r0
 754 007a 1A00     		movs	r2, r3
 408:Generated_Source\PSoC6\pdl\drivers\peripheral\prot/cy_prot.c ****                     | (uint32_t)(((uint32_t)config->privPermission & CY_PROT_ATT_PERMISSION_MASK) <
 755              		.loc 1 408 0
 756 007c 0B00     		movs	r3, r1
 757 007e 1343     		orrs	r3, r2
 758              	.LVL54:
 414:Generated_Source\PSoC6\pdl\drivers\peripheral\prot/cy_prot.c ****         if ((attReg & CY_PROT_SMPU_ATT1_MASK) != attReg)
 759              		.loc 1 414 0
 760 0080 0A4A     		ldr	r2, .L74+8
 761 0082 1A40     		ands	r2, r3
 762 0084 9342     		cmp	r3, r2
 763 0086 09D1     		bne	.L72
 415:Generated_Source\PSoC6\pdl\drivers\peripheral\prot/cy_prot.c ****         {
 416:Generated_Source\PSoC6\pdl\drivers\peripheral\prot/cy_prot.c ****             /* Invalid parameter was passed */
 417:Generated_Source\PSoC6\pdl\drivers\peripheral\prot/cy_prot.c ****             status = CY_PROT_BAD_PARAM;
 418:Generated_Source\PSoC6\pdl\drivers\peripheral\prot/cy_prot.c ****         }
ARM GAS  C:\Users\gjl\AppData\Local\Temp\cc7xIfgu.s 			page 22


 419:Generated_Source\PSoC6\pdl\drivers\peripheral\prot/cy_prot.c ****         else
 420:Generated_Source\PSoC6\pdl\drivers\peripheral\prot/cy_prot.c ****         {
 421:Generated_Source\PSoC6\pdl\drivers\peripheral\prot/cy_prot.c ****             base->ATT1 = attReg;
 764              		.loc 1 421 0
 765 0088 6B62     		str	r3, [r5, #36]
 422:Generated_Source\PSoC6\pdl\drivers\peripheral\prot/cy_prot.c ****             status = ((base->ATT1 & CY_PROT_SMPU_ATT1_MASK) != attReg) ? CY_PROT_FAILURE : CY_PROT_
 766              		.loc 1 422 0
 767 008a 696A     		ldr	r1, [r5, #36]
 768 008c 074A     		ldr	r2, .L74+8
 769 008e 0A40     		ands	r2, r1
 770 0090 9342     		cmp	r3, r2
 771 0092 05D0     		beq	.L73
 772 0094 0648     		ldr	r0, .L74+12
 773 0096 04E0     		b	.L70
 774              	.LVL55:
 775              	.L71:
 403:Generated_Source\PSoC6\pdl\drivers\peripheral\prot/cy_prot.c ****     }
 776              		.loc 1 403 0
 777 0098 0648     		ldr	r0, .L74+16
 778 009a 02E0     		b	.L70
 779              	.LVL56:
 780              	.L72:
 417:Generated_Source\PSoC6\pdl\drivers\peripheral\prot/cy_prot.c ****         }
 781              		.loc 1 417 0
 782 009c 0548     		ldr	r0, .L74+16
 783 009e 00E0     		b	.L70
 784              	.L73:
 785              		.loc 1 422 0
 786 00a0 0020     		movs	r0, #0
 787              	.LVL57:
 788              	.L70:
 423:Generated_Source\PSoC6\pdl\drivers\peripheral\prot/cy_prot.c ****         }
 424:Generated_Source\PSoC6\pdl\drivers\peripheral\prot/cy_prot.c ****     }
 425:Generated_Source\PSoC6\pdl\drivers\peripheral\prot/cy_prot.c ****     
 426:Generated_Source\PSoC6\pdl\drivers\peripheral\prot/cy_prot.c ****     return status;
 427:Generated_Source\PSoC6\pdl\drivers\peripheral\prot/cy_prot.c **** }
 789              		.loc 1 427 0
 790              		@ sp needed
 791              	.LVL58:
 792              	.LVL59:
 793 00a2 70BD     		pop	{r4, r5, r6, pc}
 794              	.L75:
 795              		.align	2
 796              	.L74:
 797 00a4 00000000 		.word	.LC0
 798 00a8 00FEFF00 		.word	16776704
 799 00ac DBFEFFE0 		.word	-520093989
 800 00b0 0300C200 		.word	12713987
 801 00b4 0100C200 		.word	12713985
 802              		.cfi_endproc
 803              	.LFE42:
 804              		.size	Cy_Prot_ConfigSmpuMasterStruct, .-Cy_Prot_ConfigSmpuMasterStruct
 805              		.section	.text.Cy_Prot_ConfigSmpuSlaveStruct,"ax",%progbits
 806              		.align	2
 807              		.global	Cy_Prot_ConfigSmpuSlaveStruct
 808              		.code	16
 809              		.thumb_func
ARM GAS  C:\Users\gjl\AppData\Local\Temp\cc7xIfgu.s 			page 23


 810              		.type	Cy_Prot_ConfigSmpuSlaveStruct, %function
 811              	Cy_Prot_ConfigSmpuSlaveStruct:
 812              	.LFB43:
 428:Generated_Source\PSoC6\pdl\drivers\peripheral\prot/cy_prot.c **** 
 429:Generated_Source\PSoC6\pdl\drivers\peripheral\prot/cy_prot.c **** /*******************************************************************************
 430:Generated_Source\PSoC6\pdl\drivers\peripheral\prot/cy_prot.c **** * Function Name: Cy_Prot_ConfigSmpuSlaveStruct
 431:Generated_Source\PSoC6\pdl\drivers\peripheral\prot/cy_prot.c **** ****************************************************************************//**
 432:Generated_Source\PSoC6\pdl\drivers\peripheral\prot/cy_prot.c **** *
 433:Generated_Source\PSoC6\pdl\drivers\peripheral\prot/cy_prot.c **** * \brief Configures a Shared Memory Protection Unit (SMPU) slave protection 
 434:Generated_Source\PSoC6\pdl\drivers\peripheral\prot/cy_prot.c **** * struct with its protection attributes. 
 435:Generated_Source\PSoC6\pdl\drivers\peripheral\prot/cy_prot.c **** * 
 436:Generated_Source\PSoC6\pdl\drivers\peripheral\prot/cy_prot.c **** * This function configures the slave struct of an SMPU pair, which can protect
 437:Generated_Source\PSoC6\pdl\drivers\peripheral\prot/cy_prot.c **** * any memory region in a device from invalid bus master accesses.
 438:Generated_Source\PSoC6\pdl\drivers\peripheral\prot/cy_prot.c **** *
 439:Generated_Source\PSoC6\pdl\drivers\peripheral\prot/cy_prot.c **** * \param base
 440:Generated_Source\PSoC6\pdl\drivers\peripheral\prot/cy_prot.c **** * The register base address of the protection structure being configured.
 441:Generated_Source\PSoC6\pdl\drivers\peripheral\prot/cy_prot.c **** * 
 442:Generated_Source\PSoC6\pdl\drivers\peripheral\prot/cy_prot.c **** * \param config
 443:Generated_Source\PSoC6\pdl\drivers\peripheral\prot/cy_prot.c **** * Initialization structure with all the protection attributes.
 444:Generated_Source\PSoC6\pdl\drivers\peripheral\prot/cy_prot.c **** * 
 445:Generated_Source\PSoC6\pdl\drivers\peripheral\prot/cy_prot.c **** * \return
 446:Generated_Source\PSoC6\pdl\drivers\peripheral\prot/cy_prot.c **** * Status of the function call.
 447:Generated_Source\PSoC6\pdl\drivers\peripheral\prot/cy_prot.c **** *
 448:Generated_Source\PSoC6\pdl\drivers\peripheral\prot/cy_prot.c **** *   Status               | Description
 449:Generated_Source\PSoC6\pdl\drivers\peripheral\prot/cy_prot.c **** *   ------------         | -----------
 450:Generated_Source\PSoC6\pdl\drivers\peripheral\prot/cy_prot.c **** *   CY_PROT_SUCCESS      | SMPU slave struct was successfully configured
 451:Generated_Source\PSoC6\pdl\drivers\peripheral\prot/cy_prot.c **** *   CY_PROT_FAILURE      | The resource is locked
 452:Generated_Source\PSoC6\pdl\drivers\peripheral\prot/cy_prot.c **** *   CY_PROT_BAD_PARAM    | An incorrect/invalid parameter was passed
 453:Generated_Source\PSoC6\pdl\drivers\peripheral\prot/cy_prot.c **** *
 454:Generated_Source\PSoC6\pdl\drivers\peripheral\prot/cy_prot.c **** * \funcusage
 455:Generated_Source\PSoC6\pdl\drivers\peripheral\prot/cy_prot.c **** * \snippet prot/prot_v1_10_sut_01.cydsn/main_cm4.c snippet_Cy_Prot_ConfigSmpuSlaveStruct
 456:Generated_Source\PSoC6\pdl\drivers\peripheral\prot/cy_prot.c **** *
 457:Generated_Source\PSoC6\pdl\drivers\peripheral\prot/cy_prot.c **** *******************************************************************************/
 458:Generated_Source\PSoC6\pdl\drivers\peripheral\prot/cy_prot.c **** cy_en_prot_status_t Cy_Prot_ConfigSmpuSlaveStruct(PROT_SMPU_SMPU_STRUCT_Type* base, const cy_stc_sm
 459:Generated_Source\PSoC6\pdl\drivers\peripheral\prot/cy_prot.c **** {
 813              		.loc 1 459 0
 814              		.cfi_startproc
 815              		@ args = 0, pretend = 0, frame = 0
 816              		@ frame_needed = 0, uses_anonymous_args = 0
 817              	.LVL60:
 818 0000 F8B5     		push	{r3, r4, r5, r6, r7, lr}
 819              		.cfi_def_cfa_offset 24
 820              		.cfi_offset 3, -24
 821              		.cfi_offset 4, -20
 822              		.cfi_offset 5, -16
 823              		.cfi_offset 6, -12
 824              		.cfi_offset 7, -8
 825              		.cfi_offset 14, -4
 826 0002 0500     		movs	r5, r0
 827 0004 0C00     		movs	r4, r1
 460:Generated_Source\PSoC6\pdl\drivers\peripheral\prot/cy_prot.c ****     cy_en_prot_status_t status;
 461:Generated_Source\PSoC6\pdl\drivers\peripheral\prot/cy_prot.c ****     uint32_t addrReg;
 462:Generated_Source\PSoC6\pdl\drivers\peripheral\prot/cy_prot.c ****     uint32_t attReg;
 463:Generated_Source\PSoC6\pdl\drivers\peripheral\prot/cy_prot.c ****     
 464:Generated_Source\PSoC6\pdl\drivers\peripheral\prot/cy_prot.c ****     CY_ASSERT_L1(NULL != base);
 828              		.loc 1 464 0
 829 0006 0028     		cmp	r0, #0
ARM GAS  C:\Users\gjl\AppData\Local\Temp\cc7xIfgu.s 			page 24


 830 0008 04D1     		bne	.L77
 831              		.loc 1 464 0 is_stmt 0 discriminator 1
 832 000a E821     		movs	r1, #232
 833              	.LVL61:
 834 000c 4900     		lsls	r1, r1, #1
 835 000e 2F48     		ldr	r0, .L85
 836              	.LVL62:
 837 0010 FFF7FEFF 		bl	Cy_SysLib_AssertFailed
 838              	.LVL63:
 839              	.L77:
 465:Generated_Source\PSoC6\pdl\drivers\peripheral\prot/cy_prot.c ****     CY_ASSERT_L3(CY_PROT_IS_SMPU_SL_PERM_VALID(config->userPermission));
 840              		.loc 1 465 0 is_stmt 1
 841 0014 A379     		ldrb	r3, [r4, #6]
 842 0016 072B     		cmp	r3, #7
 843 0018 04D9     		bls	.L78
 844              		.loc 1 465 0 is_stmt 0 discriminator 1
 845 001a D221     		movs	r1, #210
 846 001c FF31     		adds	r1, r1, #255
 847 001e 2B48     		ldr	r0, .L85
 848 0020 FFF7FEFF 		bl	Cy_SysLib_AssertFailed
 849              	.LVL64:
 850              	.L78:
 466:Generated_Source\PSoC6\pdl\drivers\peripheral\prot/cy_prot.c ****     CY_ASSERT_L3(CY_PROT_IS_SMPU_SL_PERM_VALID(config->privPermission));
 851              		.loc 1 466 0 is_stmt 1
 852 0024 E379     		ldrb	r3, [r4, #7]
 853 0026 072B     		cmp	r3, #7
 854 0028 04D9     		bls	.L79
 855              		.loc 1 466 0 is_stmt 0 discriminator 1
 856 002a E921     		movs	r1, #233
 857 002c 4900     		lsls	r1, r1, #1
 858 002e 2748     		ldr	r0, .L85
 859 0030 FFF7FEFF 		bl	Cy_SysLib_AssertFailed
 860              	.LVL65:
 861              	.L79:
 467:Generated_Source\PSoC6\pdl\drivers\peripheral\prot/cy_prot.c ****     CY_ASSERT_L3(CY_PROT_IS_REGION_SIZE_VALID(config->regionSize));
 862              		.loc 1 467 0 is_stmt 1
 863 0034 2379     		ldrb	r3, [r4, #4]
 864 0036 073B     		subs	r3, r3, #7
 865 0038 DBB2     		uxtb	r3, r3
 866 003a 182B     		cmp	r3, #24
 867 003c 04D9     		bls	.L80
 868              		.loc 1 467 0 is_stmt 0 discriminator 1
 869 003e D421     		movs	r1, #212
 870 0040 FF31     		adds	r1, r1, #255
 871 0042 2248     		ldr	r0, .L85
 872 0044 FFF7FEFF 		bl	Cy_SysLib_AssertFailed
 873              	.LVL66:
 874              	.L80:
 468:Generated_Source\PSoC6\pdl\drivers\peripheral\prot/cy_prot.c **** 
 469:Generated_Source\PSoC6\pdl\drivers\peripheral\prot/cy_prot.c ****     if(((uint32_t)config->pcMask & CY_PROT_SMPU_PC_LIMIT_MASK) != 0UL) 
 875              		.loc 1 469 0 is_stmt 1
 876 0048 6189     		ldrh	r1, [r4, #10]
 877 004a 7F23     		movs	r3, #127
 878 004c 0A00     		movs	r2, r1
 879 004e 9A43     		bics	r2, r3
 880 0050 131E     		subs	r3, r2, #0
 881 0052 35D1     		bne	.L82
ARM GAS  C:\Users\gjl\AppData\Local\Temp\cc7xIfgu.s 			page 25


 470:Generated_Source\PSoC6\pdl\drivers\peripheral\prot/cy_prot.c ****     {
 471:Generated_Source\PSoC6\pdl\drivers\peripheral\prot/cy_prot.c ****         /* PC mask out of range - not supported in device */
 472:Generated_Source\PSoC6\pdl\drivers\peripheral\prot/cy_prot.c ****         status = CY_PROT_BAD_PARAM;
 473:Generated_Source\PSoC6\pdl\drivers\peripheral\prot/cy_prot.c ****     }
 474:Generated_Source\PSoC6\pdl\drivers\peripheral\prot/cy_prot.c ****     else
 475:Generated_Source\PSoC6\pdl\drivers\peripheral\prot/cy_prot.c ****     {
 476:Generated_Source\PSoC6\pdl\drivers\peripheral\prot/cy_prot.c ****         addrReg= _VAL2FLD(PROT_SMPU_SMPU_STRUCT_ADDR0_SUBREGION_DISABLE, config->subregions)
 882              		.loc 1 476 0
 883 0054 6679     		ldrb	r6, [r4, #5]
 477:Generated_Source\PSoC6\pdl\drivers\peripheral\prot/cy_prot.c ****                     | _VAL2FLD(PROT_SMPU_SMPU_STRUCT_ADDR0_ADDR24, (uint32_t)((uint32_t)config->add
 884              		.loc 1 477 0
 885 0056 FF33     		adds	r3, r3, #255
 886 0058 2268     		ldr	r2, [r4]
 887 005a 9A43     		bics	r2, r3
 476:Generated_Source\PSoC6\pdl\drivers\peripheral\prot/cy_prot.c ****                     | _VAL2FLD(PROT_SMPU_SMPU_STRUCT_ADDR0_ADDR24, (uint32_t)((uint32_t)config->add
 888              		.loc 1 476 0
 889 005c 1643     		orrs	r6, r2
 890              	.LVL67:
 478:Generated_Source\PSoC6\pdl\drivers\peripheral\prot/cy_prot.c ****         attReg= ((uint32_t)config->userPermission & CY_PROT_ATT_PERMISSION_MASK)
 891              		.loc 1 478 0
 892 005e A379     		ldrb	r3, [r4, #6]
 893 0060 0720     		movs	r0, #7
 894 0062 1840     		ands	r0, r3
 479:Generated_Source\PSoC6\pdl\drivers\peripheral\prot/cy_prot.c ****                     | (uint32_t)(((uint32_t)config->privPermission & CY_PROT_ATT_PERMISSION_MASK) <
 895              		.loc 1 479 0
 896 0064 E279     		ldrb	r2, [r4, #7]
 897 0066 D200     		lsls	r2, r2, #3
 898 0068 3823     		movs	r3, #56
 899 006a 1340     		ands	r3, r2
 900 006c 1843     		orrs	r0, r3
 480:Generated_Source\PSoC6\pdl\drivers\peripheral\prot/cy_prot.c ****                     | _VAL2FLD(PROT_SMPU_SMPU_STRUCT_ATT0_NS, !(config->secure))
 901              		.loc 1 480 0
 902 006e 237A     		ldrb	r3, [r4, #8]
 903 0070 0122     		movs	r2, #1
 904 0072 5A40     		eors	r2, r3
 905 0074 D2B2     		uxtb	r2, r2
 906 0076 9201     		lsls	r2, r2, #6
 907 0078 4023     		movs	r3, #64
 908 007a 1A40     		ands	r2, r3
 909 007c 0300     		movs	r3, r0
 910 007e 1343     		orrs	r3, r2
 481:Generated_Source\PSoC6\pdl\drivers\peripheral\prot/cy_prot.c ****                     | _VAL2FLD(PROT_SMPU_SMPU_STRUCT_ATT0_PC_MASK_15_TO_1, config->pcMask)
 911              		.loc 1 481 0
 912 0080 4902     		lsls	r1, r1, #9
 913 0082 134A     		ldr	r2, .L85+4
 914 0084 1140     		ands	r1, r2
 915 0086 0B43     		orrs	r3, r1
 482:Generated_Source\PSoC6\pdl\drivers\peripheral\prot/cy_prot.c ****                     | _VAL2FLD(PROT_SMPU_SMPU_STRUCT_ATT0_REGION_SIZE, config->regionSize)
 916              		.loc 1 482 0
 917 0088 2179     		ldrb	r1, [r4, #4]
 918 008a 0906     		lsls	r1, r1, #24
 919 008c F820     		movs	r0, #248
 920 008e 4005     		lsls	r0, r0, #21
 921 0090 0A00     		movs	r2, r1
 922 0092 0240     		ands	r2, r0
 923 0094 1343     		orrs	r3, r2
 924 0096 1900     		movs	r1, r3
ARM GAS  C:\Users\gjl\AppData\Local\Temp\cc7xIfgu.s 			page 26


 483:Generated_Source\PSoC6\pdl\drivers\peripheral\prot/cy_prot.c ****                     | _VAL2FLD(PROT_SMPU_SMPU_STRUCT_ATT0_PC_MATCH, config->pcMatch);
 925              		.loc 1 483 0
 926 0098 637A     		ldrb	r3, [r4, #9]
 927 009a 9B07     		lsls	r3, r3, #30
 928 009c 8020     		movs	r0, #128
 929 009e C005     		lsls	r0, r0, #23
 930 00a0 0340     		ands	r3, r0
 931 00a2 1A00     		movs	r2, r3
 478:Generated_Source\PSoC6\pdl\drivers\peripheral\prot/cy_prot.c ****                     | (uint32_t)(((uint32_t)config->privPermission & CY_PROT_ATT_PERMISSION_MASK) <
 932              		.loc 1 478 0
 933 00a4 0B00     		movs	r3, r1
 934 00a6 1343     		orrs	r3, r2
 935              	.LVL68:
 484:Generated_Source\PSoC6\pdl\drivers\peripheral\prot/cy_prot.c ****         base->ATT0 = attReg;
 936              		.loc 1 484 0
 937 00a8 6B60     		str	r3, [r5, #4]
 485:Generated_Source\PSoC6\pdl\drivers\peripheral\prot/cy_prot.c ****         base->ADDR0 = addrReg;
 938              		.loc 1 485 0
 939 00aa 2E60     		str	r6, [r5]
 486:Generated_Source\PSoC6\pdl\drivers\peripheral\prot/cy_prot.c ****         status = ((base->ADDR0 != addrReg) || ((base->ATT0 & CY_PROT_SMPU_ATT0_MASK) != attReg))
 940              		.loc 1 486 0
 941 00ac 2A68     		ldr	r2, [r5]
 942 00ae 9642     		cmp	r6, r2
 943 00b0 08D1     		bne	.L83
 944              		.loc 1 486 0 is_stmt 0 discriminator 2
 945 00b2 6968     		ldr	r1, [r5, #4]
 946 00b4 074A     		ldr	r2, .L85+8
 947 00b6 0A40     		ands	r2, r1
 948 00b8 9342     		cmp	r3, r2
 949 00ba 05D0     		beq	.L84
 950              		.loc 1 486 0
 951 00bc 0648     		ldr	r0, .L85+12
 952 00be 04E0     		b	.L81
 953              	.LVL69:
 954              	.L82:
 472:Generated_Source\PSoC6\pdl\drivers\peripheral\prot/cy_prot.c ****     }
 955              		.loc 1 472 0 is_stmt 1
 956 00c0 0648     		ldr	r0, .L85+16
 957 00c2 02E0     		b	.L81
 958              	.LVL70:
 959              	.L83:
 960              		.loc 1 486 0
 961 00c4 0448     		ldr	r0, .L85+12
 962 00c6 00E0     		b	.L81
 963              	.L84:
 964 00c8 0020     		movs	r0, #0
 965              	.LVL71:
 966              	.L81:
 487:Generated_Source\PSoC6\pdl\drivers\peripheral\prot/cy_prot.c ****                     ? CY_PROT_FAILURE : CY_PROT_SUCCESS;
 488:Generated_Source\PSoC6\pdl\drivers\peripheral\prot/cy_prot.c ****     }
 489:Generated_Source\PSoC6\pdl\drivers\peripheral\prot/cy_prot.c ****     
 490:Generated_Source\PSoC6\pdl\drivers\peripheral\prot/cy_prot.c ****     return status;
 491:Generated_Source\PSoC6\pdl\drivers\peripheral\prot/cy_prot.c **** }
 967              		.loc 1 491 0
 968              		@ sp needed
 969              	.LVL72:
 970              	.LVL73:
ARM GAS  C:\Users\gjl\AppData\Local\Temp\cc7xIfgu.s 			page 27


 971 00ca F8BD     		pop	{r3, r4, r5, r6, r7, pc}
 972              	.L86:
 973              		.align	2
 974              	.L85:
 975 00cc 00000000 		.word	.LC0
 976 00d0 00FEFF00 		.word	16776704
 977 00d4 FFFEFFFF 		.word	-257
 978 00d8 0300C200 		.word	12713987
 979 00dc 0100C200 		.word	12713985
 980              		.cfi_endproc
 981              	.LFE43:
 982              		.size	Cy_Prot_ConfigSmpuSlaveStruct, .-Cy_Prot_ConfigSmpuSlaveStruct
 983              		.section	.text.Cy_Prot_EnableSmpuMasterStruct,"ax",%progbits
 984              		.align	2
 985              		.global	Cy_Prot_EnableSmpuMasterStruct
 986              		.code	16
 987              		.thumb_func
 988              		.type	Cy_Prot_EnableSmpuMasterStruct, %function
 989              	Cy_Prot_EnableSmpuMasterStruct:
 990              	.LFB44:
 492:Generated_Source\PSoC6\pdl\drivers\peripheral\prot/cy_prot.c **** 
 493:Generated_Source\PSoC6\pdl\drivers\peripheral\prot/cy_prot.c **** 
 494:Generated_Source\PSoC6\pdl\drivers\peripheral\prot/cy_prot.c **** /*******************************************************************************
 495:Generated_Source\PSoC6\pdl\drivers\peripheral\prot/cy_prot.c **** * Function Name: Cy_Prot_EnableSmpuMasterStruct
 496:Generated_Source\PSoC6\pdl\drivers\peripheral\prot/cy_prot.c **** ****************************************************************************//**
 497:Generated_Source\PSoC6\pdl\drivers\peripheral\prot/cy_prot.c **** *
 498:Generated_Source\PSoC6\pdl\drivers\peripheral\prot/cy_prot.c **** * \brief Enables the Master SMPU structure.
 499:Generated_Source\PSoC6\pdl\drivers\peripheral\prot/cy_prot.c **** *
 500:Generated_Source\PSoC6\pdl\drivers\peripheral\prot/cy_prot.c **** * This is an SMPU master struct enable function. The SMPU protection settings
 501:Generated_Source\PSoC6\pdl\drivers\peripheral\prot/cy_prot.c **** * will take effect after successful completion of this function call.
 502:Generated_Source\PSoC6\pdl\drivers\peripheral\prot/cy_prot.c **** *
 503:Generated_Source\PSoC6\pdl\drivers\peripheral\prot/cy_prot.c **** * \param base
 504:Generated_Source\PSoC6\pdl\drivers\peripheral\prot/cy_prot.c **** * The base address for the protection unit structure being configured. 
 505:Generated_Source\PSoC6\pdl\drivers\peripheral\prot/cy_prot.c **** *
 506:Generated_Source\PSoC6\pdl\drivers\peripheral\prot/cy_prot.c **** * \return
 507:Generated_Source\PSoC6\pdl\drivers\peripheral\prot/cy_prot.c **** * Status of the function call.
 508:Generated_Source\PSoC6\pdl\drivers\peripheral\prot/cy_prot.c **** *
 509:Generated_Source\PSoC6\pdl\drivers\peripheral\prot/cy_prot.c **** *   Status               | Description
 510:Generated_Source\PSoC6\pdl\drivers\peripheral\prot/cy_prot.c **** *   ------------         | -----------
 511:Generated_Source\PSoC6\pdl\drivers\peripheral\prot/cy_prot.c **** *   CY_PROT_SUCCESS      | The Master PU struct was enabled
 512:Generated_Source\PSoC6\pdl\drivers\peripheral\prot/cy_prot.c **** *   CY_PROT_FAILURE      | The Master PU struct is disabled and possibly locked
 513:Generated_Source\PSoC6\pdl\drivers\peripheral\prot/cy_prot.c **** *
 514:Generated_Source\PSoC6\pdl\drivers\peripheral\prot/cy_prot.c **** * \funcusage
 515:Generated_Source\PSoC6\pdl\drivers\peripheral\prot/cy_prot.c **** * \snippet prot/prot_v1_10_sut_01.cydsn/main_cm4.c snippet_Cy_Prot_EnableSmpuMasterStruct
 516:Generated_Source\PSoC6\pdl\drivers\peripheral\prot/cy_prot.c **** *
 517:Generated_Source\PSoC6\pdl\drivers\peripheral\prot/cy_prot.c **** *******************************************************************************/
 518:Generated_Source\PSoC6\pdl\drivers\peripheral\prot/cy_prot.c **** cy_en_prot_status_t Cy_Prot_EnableSmpuMasterStruct(PROT_SMPU_SMPU_STRUCT_Type* base)
 519:Generated_Source\PSoC6\pdl\drivers\peripheral\prot/cy_prot.c **** {
 991              		.loc 1 519 0
 992              		.cfi_startproc
 993              		@ args = 0, pretend = 0, frame = 0
 994              		@ frame_needed = 0, uses_anonymous_args = 0
 995              		@ link register save eliminated.
 996              	.LVL74:
 520:Generated_Source\PSoC6\pdl\drivers\peripheral\prot/cy_prot.c ****     cy_en_prot_status_t status;
 521:Generated_Source\PSoC6\pdl\drivers\peripheral\prot/cy_prot.c ****     
 522:Generated_Source\PSoC6\pdl\drivers\peripheral\prot/cy_prot.c ****     base->ATT1 |= _VAL2FLD(PROT_SMPU_SMPU_STRUCT_ATT1_ENABLED, CY_PROT_STRUCT_ENABLE);
ARM GAS  C:\Users\gjl\AppData\Local\Temp\cc7xIfgu.s 			page 28


 997              		.loc 1 522 0
 998 0000 436A     		ldr	r3, [r0, #36]
 999 0002 8022     		movs	r2, #128
 1000 0004 1206     		lsls	r2, r2, #24
 1001 0006 1343     		orrs	r3, r2
 1002 0008 4362     		str	r3, [r0, #36]
 523:Generated_Source\PSoC6\pdl\drivers\peripheral\prot/cy_prot.c ****     status = (_FLD2VAL(PROT_SMPU_SMPU_STRUCT_ATT1_ENABLED, base->ATT1) != CY_PROT_STRUCT_ENABLE) ?
 1003              		.loc 1 523 0
 1004 000a 436A     		ldr	r3, [r0, #36]
 1005 000c 002B     		cmp	r3, #0
 1006 000e 01DB     		blt	.L89
 1007 0010 0148     		ldr	r0, .L90
 1008              	.LVL75:
 1009 0012 00E0     		b	.L88
 1010              	.LVL76:
 1011              	.L89:
 1012 0014 0020     		movs	r0, #0
 1013              	.LVL77:
 1014              	.L88:
 524:Generated_Source\PSoC6\pdl\drivers\peripheral\prot/cy_prot.c ****                 CY_PROT_FAILURE : CY_PROT_SUCCESS;
 525:Generated_Source\PSoC6\pdl\drivers\peripheral\prot/cy_prot.c ****     
 526:Generated_Source\PSoC6\pdl\drivers\peripheral\prot/cy_prot.c ****     return status;
 527:Generated_Source\PSoC6\pdl\drivers\peripheral\prot/cy_prot.c **** }
 1015              		.loc 1 527 0 discriminator 4
 1016              		@ sp needed
 1017 0016 7047     		bx	lr
 1018              	.L91:
 1019              		.align	2
 1020              	.L90:
 1021 0018 0300C200 		.word	12713987
 1022              		.cfi_endproc
 1023              	.LFE44:
 1024              		.size	Cy_Prot_EnableSmpuMasterStruct, .-Cy_Prot_EnableSmpuMasterStruct
 1025              		.section	.text.Cy_Prot_DisableSmpuMasterStruct,"ax",%progbits
 1026              		.align	2
 1027              		.global	Cy_Prot_DisableSmpuMasterStruct
 1028              		.code	16
 1029              		.thumb_func
 1030              		.type	Cy_Prot_DisableSmpuMasterStruct, %function
 1031              	Cy_Prot_DisableSmpuMasterStruct:
 1032              	.LFB45:
 528:Generated_Source\PSoC6\pdl\drivers\peripheral\prot/cy_prot.c **** 
 529:Generated_Source\PSoC6\pdl\drivers\peripheral\prot/cy_prot.c **** 
 530:Generated_Source\PSoC6\pdl\drivers\peripheral\prot/cy_prot.c **** /*******************************************************************************
 531:Generated_Source\PSoC6\pdl\drivers\peripheral\prot/cy_prot.c **** * Function Name: Cy_Prot_DisableSmpuMasterStruct
 532:Generated_Source\PSoC6\pdl\drivers\peripheral\prot/cy_prot.c **** ****************************************************************************//**
 533:Generated_Source\PSoC6\pdl\drivers\peripheral\prot/cy_prot.c **** *
 534:Generated_Source\PSoC6\pdl\drivers\peripheral\prot/cy_prot.c **** * \brief Disables the Master SMPU structure.
 535:Generated_Source\PSoC6\pdl\drivers\peripheral\prot/cy_prot.c **** *
 536:Generated_Source\PSoC6\pdl\drivers\peripheral\prot/cy_prot.c **** * This is an SMPU master struct disable function. The SMPU protection settings
 537:Generated_Source\PSoC6\pdl\drivers\peripheral\prot/cy_prot.c **** * will seize to take effect after successful completion of this function call.
 538:Generated_Source\PSoC6\pdl\drivers\peripheral\prot/cy_prot.c **** *
 539:Generated_Source\PSoC6\pdl\drivers\peripheral\prot/cy_prot.c **** * \param base
 540:Generated_Source\PSoC6\pdl\drivers\peripheral\prot/cy_prot.c **** * The base address for the protection unit structure being configured. 
 541:Generated_Source\PSoC6\pdl\drivers\peripheral\prot/cy_prot.c **** *
 542:Generated_Source\PSoC6\pdl\drivers\peripheral\prot/cy_prot.c **** * \return
 543:Generated_Source\PSoC6\pdl\drivers\peripheral\prot/cy_prot.c **** * Status of the function call.
ARM GAS  C:\Users\gjl\AppData\Local\Temp\cc7xIfgu.s 			page 29


 544:Generated_Source\PSoC6\pdl\drivers\peripheral\prot/cy_prot.c **** *
 545:Generated_Source\PSoC6\pdl\drivers\peripheral\prot/cy_prot.c **** *   Status               | Description
 546:Generated_Source\PSoC6\pdl\drivers\peripheral\prot/cy_prot.c **** *   ------------         | -----------
 547:Generated_Source\PSoC6\pdl\drivers\peripheral\prot/cy_prot.c **** *   CY_PROT_SUCCESS      | The Master PU struct was disabled
 548:Generated_Source\PSoC6\pdl\drivers\peripheral\prot/cy_prot.c **** *   CY_PROT_FAILURE      | The Master PU struct is enabled and possibly locked
 549:Generated_Source\PSoC6\pdl\drivers\peripheral\prot/cy_prot.c **** *
 550:Generated_Source\PSoC6\pdl\drivers\peripheral\prot/cy_prot.c **** * \funcusage
 551:Generated_Source\PSoC6\pdl\drivers\peripheral\prot/cy_prot.c **** * \snippet prot/prot_v1_10_sut_01.cydsn/main_cm4.c snippet_Cy_Prot_DisableSmpuMasterStruct
 552:Generated_Source\PSoC6\pdl\drivers\peripheral\prot/cy_prot.c **** *
 553:Generated_Source\PSoC6\pdl\drivers\peripheral\prot/cy_prot.c **** *******************************************************************************/
 554:Generated_Source\PSoC6\pdl\drivers\peripheral\prot/cy_prot.c **** cy_en_prot_status_t Cy_Prot_DisableSmpuMasterStruct(PROT_SMPU_SMPU_STRUCT_Type* base)
 555:Generated_Source\PSoC6\pdl\drivers\peripheral\prot/cy_prot.c **** {
 1033              		.loc 1 555 0
 1034              		.cfi_startproc
 1035              		@ args = 0, pretend = 0, frame = 0
 1036              		@ frame_needed = 0, uses_anonymous_args = 0
 1037              		@ link register save eliminated.
 1038              	.LVL78:
 556:Generated_Source\PSoC6\pdl\drivers\peripheral\prot/cy_prot.c ****     cy_en_prot_status_t status;
 557:Generated_Source\PSoC6\pdl\drivers\peripheral\prot/cy_prot.c ****     
 558:Generated_Source\PSoC6\pdl\drivers\peripheral\prot/cy_prot.c ****     base->ATT1 &= ~_VAL2FLD(PROT_SMPU_SMPU_STRUCT_ATT1_ENABLED, CY_PROT_STRUCT_ENABLE);
 1039              		.loc 1 558 0
 1040 0000 436A     		ldr	r3, [r0, #36]
 1041 0002 5B00     		lsls	r3, r3, #1
 1042 0004 5B08     		lsrs	r3, r3, #1
 1043 0006 4362     		str	r3, [r0, #36]
 559:Generated_Source\PSoC6\pdl\drivers\peripheral\prot/cy_prot.c ****     status = (_FLD2VAL(PROT_SMPU_SMPU_STRUCT_ATT1_ENABLED, base->ATT1) == CY_PROT_STRUCT_ENABLE) ?
 1044              		.loc 1 559 0
 1045 0008 436A     		ldr	r3, [r0, #36]
 1046 000a 002B     		cmp	r3, #0
 1047 000c 01DA     		bge	.L94
 1048 000e 0248     		ldr	r0, .L95
 1049              	.LVL79:
 1050 0010 00E0     		b	.L93
 1051              	.LVL80:
 1052              	.L94:
 1053 0012 0020     		movs	r0, #0
 1054              	.LVL81:
 1055              	.L93:
 560:Generated_Source\PSoC6\pdl\drivers\peripheral\prot/cy_prot.c ****                 CY_PROT_FAILURE : CY_PROT_SUCCESS;
 561:Generated_Source\PSoC6\pdl\drivers\peripheral\prot/cy_prot.c ****     
 562:Generated_Source\PSoC6\pdl\drivers\peripheral\prot/cy_prot.c ****     return status;
 563:Generated_Source\PSoC6\pdl\drivers\peripheral\prot/cy_prot.c **** }
 1056              		.loc 1 563 0 discriminator 4
 1057              		@ sp needed
 1058 0014 7047     		bx	lr
 1059              	.L96:
 1060 0016 C046     		.align	2
 1061              	.L95:
 1062 0018 0300C200 		.word	12713987
 1063              		.cfi_endproc
 1064              	.LFE45:
 1065              		.size	Cy_Prot_DisableSmpuMasterStruct, .-Cy_Prot_DisableSmpuMasterStruct
 1066              		.section	.text.Cy_Prot_EnableSmpuSlaveStruct,"ax",%progbits
 1067              		.align	2
 1068              		.global	Cy_Prot_EnableSmpuSlaveStruct
 1069              		.code	16
ARM GAS  C:\Users\gjl\AppData\Local\Temp\cc7xIfgu.s 			page 30


 1070              		.thumb_func
 1071              		.type	Cy_Prot_EnableSmpuSlaveStruct, %function
 1072              	Cy_Prot_EnableSmpuSlaveStruct:
 1073              	.LFB46:
 564:Generated_Source\PSoC6\pdl\drivers\peripheral\prot/cy_prot.c **** 
 565:Generated_Source\PSoC6\pdl\drivers\peripheral\prot/cy_prot.c **** 
 566:Generated_Source\PSoC6\pdl\drivers\peripheral\prot/cy_prot.c **** /*******************************************************************************
 567:Generated_Source\PSoC6\pdl\drivers\peripheral\prot/cy_prot.c **** * Function Name: Cy_Prot_EnableSmpuSlaveStruct
 568:Generated_Source\PSoC6\pdl\drivers\peripheral\prot/cy_prot.c **** ****************************************************************************//**
 569:Generated_Source\PSoC6\pdl\drivers\peripheral\prot/cy_prot.c **** *
 570:Generated_Source\PSoC6\pdl\drivers\peripheral\prot/cy_prot.c **** * \brief Enables the Slave SMPU structure.
 571:Generated_Source\PSoC6\pdl\drivers\peripheral\prot/cy_prot.c **** *
 572:Generated_Source\PSoC6\pdl\drivers\peripheral\prot/cy_prot.c **** * This is an SMPU slave struct enable function. The SMPU protection settings
 573:Generated_Source\PSoC6\pdl\drivers\peripheral\prot/cy_prot.c **** * will take effect after successful completion of this function call.
 574:Generated_Source\PSoC6\pdl\drivers\peripheral\prot/cy_prot.c **** *
 575:Generated_Source\PSoC6\pdl\drivers\peripheral\prot/cy_prot.c **** * \param base
 576:Generated_Source\PSoC6\pdl\drivers\peripheral\prot/cy_prot.c **** * The base address for the protection unit structure being configured. 
 577:Generated_Source\PSoC6\pdl\drivers\peripheral\prot/cy_prot.c **** *
 578:Generated_Source\PSoC6\pdl\drivers\peripheral\prot/cy_prot.c **** * \return
 579:Generated_Source\PSoC6\pdl\drivers\peripheral\prot/cy_prot.c **** * Status of the function call.
 580:Generated_Source\PSoC6\pdl\drivers\peripheral\prot/cy_prot.c **** *
 581:Generated_Source\PSoC6\pdl\drivers\peripheral\prot/cy_prot.c **** *   Status               | Description
 582:Generated_Source\PSoC6\pdl\drivers\peripheral\prot/cy_prot.c **** *   ------------         | -----------
 583:Generated_Source\PSoC6\pdl\drivers\peripheral\prot/cy_prot.c **** *   CY_PROT_SUCCESS      | The Slave PU struct was enabled
 584:Generated_Source\PSoC6\pdl\drivers\peripheral\prot/cy_prot.c **** *   CY_PROT_FAILURE      | The Slave PU struct is disabled and possibly locked
 585:Generated_Source\PSoC6\pdl\drivers\peripheral\prot/cy_prot.c **** *
 586:Generated_Source\PSoC6\pdl\drivers\peripheral\prot/cy_prot.c **** * \funcusage
 587:Generated_Source\PSoC6\pdl\drivers\peripheral\prot/cy_prot.c **** * \snippet prot/prot_v1_10_sut_01.cydsn/main_cm4.c snippet_Cy_Prot_EnableSmpuSlaveStruct
 588:Generated_Source\PSoC6\pdl\drivers\peripheral\prot/cy_prot.c **** *
 589:Generated_Source\PSoC6\pdl\drivers\peripheral\prot/cy_prot.c **** *******************************************************************************/
 590:Generated_Source\PSoC6\pdl\drivers\peripheral\prot/cy_prot.c **** cy_en_prot_status_t Cy_Prot_EnableSmpuSlaveStruct(PROT_SMPU_SMPU_STRUCT_Type* base)
 591:Generated_Source\PSoC6\pdl\drivers\peripheral\prot/cy_prot.c **** {   
 1074              		.loc 1 591 0
 1075              		.cfi_startproc
 1076              		@ args = 0, pretend = 0, frame = 0
 1077              		@ frame_needed = 0, uses_anonymous_args = 0
 1078              		@ link register save eliminated.
 1079              	.LVL82:
 592:Generated_Source\PSoC6\pdl\drivers\peripheral\prot/cy_prot.c ****     cy_en_prot_status_t status;
 593:Generated_Source\PSoC6\pdl\drivers\peripheral\prot/cy_prot.c ****     
 594:Generated_Source\PSoC6\pdl\drivers\peripheral\prot/cy_prot.c ****     base->ATT0 |= _VAL2FLD(PROT_SMPU_SMPU_STRUCT_ATT0_ENABLED, CY_PROT_STRUCT_ENABLE);
 1080              		.loc 1 594 0
 1081 0000 4368     		ldr	r3, [r0, #4]
 1082 0002 8022     		movs	r2, #128
 1083 0004 1206     		lsls	r2, r2, #24
 1084 0006 1343     		orrs	r3, r2
 1085 0008 4360     		str	r3, [r0, #4]
 595:Generated_Source\PSoC6\pdl\drivers\peripheral\prot/cy_prot.c ****     status = (_FLD2VAL(PROT_SMPU_SMPU_STRUCT_ATT0_ENABLED, base->ATT0) != CY_PROT_STRUCT_ENABLE) ?
 1086              		.loc 1 595 0
 1087 000a 4368     		ldr	r3, [r0, #4]
 1088 000c 002B     		cmp	r3, #0
 1089 000e 01DB     		blt	.L99
 1090 0010 0148     		ldr	r0, .L100
 1091              	.LVL83:
 1092 0012 00E0     		b	.L98
 1093              	.LVL84:
 1094              	.L99:
ARM GAS  C:\Users\gjl\AppData\Local\Temp\cc7xIfgu.s 			page 31


 1095 0014 0020     		movs	r0, #0
 1096              	.LVL85:
 1097              	.L98:
 596:Generated_Source\PSoC6\pdl\drivers\peripheral\prot/cy_prot.c ****                 CY_PROT_FAILURE : CY_PROT_SUCCESS;
 597:Generated_Source\PSoC6\pdl\drivers\peripheral\prot/cy_prot.c ****     
 598:Generated_Source\PSoC6\pdl\drivers\peripheral\prot/cy_prot.c ****     return status;
 599:Generated_Source\PSoC6\pdl\drivers\peripheral\prot/cy_prot.c **** }
 1098              		.loc 1 599 0 discriminator 4
 1099              		@ sp needed
 1100 0016 7047     		bx	lr
 1101              	.L101:
 1102              		.align	2
 1103              	.L100:
 1104 0018 0300C200 		.word	12713987
 1105              		.cfi_endproc
 1106              	.LFE46:
 1107              		.size	Cy_Prot_EnableSmpuSlaveStruct, .-Cy_Prot_EnableSmpuSlaveStruct
 1108              		.section	.text.Cy_Prot_DisableSmpuSlaveStruct,"ax",%progbits
 1109              		.align	2
 1110              		.global	Cy_Prot_DisableSmpuSlaveStruct
 1111              		.code	16
 1112              		.thumb_func
 1113              		.type	Cy_Prot_DisableSmpuSlaveStruct, %function
 1114              	Cy_Prot_DisableSmpuSlaveStruct:
 1115              	.LFB47:
 600:Generated_Source\PSoC6\pdl\drivers\peripheral\prot/cy_prot.c **** 
 601:Generated_Source\PSoC6\pdl\drivers\peripheral\prot/cy_prot.c **** 
 602:Generated_Source\PSoC6\pdl\drivers\peripheral\prot/cy_prot.c **** /*******************************************************************************
 603:Generated_Source\PSoC6\pdl\drivers\peripheral\prot/cy_prot.c **** * Function Name: Cy_Prot_DisableSmpuSlaveStruct
 604:Generated_Source\PSoC6\pdl\drivers\peripheral\prot/cy_prot.c **** ****************************************************************************//**
 605:Generated_Source\PSoC6\pdl\drivers\peripheral\prot/cy_prot.c **** *
 606:Generated_Source\PSoC6\pdl\drivers\peripheral\prot/cy_prot.c **** * \brief Disables the Slave SMPU structure.
 607:Generated_Source\PSoC6\pdl\drivers\peripheral\prot/cy_prot.c **** *
 608:Generated_Source\PSoC6\pdl\drivers\peripheral\prot/cy_prot.c **** * This is an SMPU slave struct disable function. The SMPU protection settings
 609:Generated_Source\PSoC6\pdl\drivers\peripheral\prot/cy_prot.c **** * will seize to take effect after successful completion of this function call.
 610:Generated_Source\PSoC6\pdl\drivers\peripheral\prot/cy_prot.c **** *
 611:Generated_Source\PSoC6\pdl\drivers\peripheral\prot/cy_prot.c **** * \param base
 612:Generated_Source\PSoC6\pdl\drivers\peripheral\prot/cy_prot.c **** * The base address for the protection unit structure being configured. 
 613:Generated_Source\PSoC6\pdl\drivers\peripheral\prot/cy_prot.c **** *
 614:Generated_Source\PSoC6\pdl\drivers\peripheral\prot/cy_prot.c **** * \return
 615:Generated_Source\PSoC6\pdl\drivers\peripheral\prot/cy_prot.c **** * Status of the function call.
 616:Generated_Source\PSoC6\pdl\drivers\peripheral\prot/cy_prot.c **** *
 617:Generated_Source\PSoC6\pdl\drivers\peripheral\prot/cy_prot.c **** *   Status               | Description
 618:Generated_Source\PSoC6\pdl\drivers\peripheral\prot/cy_prot.c **** *   ------------         | -----------
 619:Generated_Source\PSoC6\pdl\drivers\peripheral\prot/cy_prot.c **** *   CY_PROT_SUCCESS      | The Slave PU struct was disabled
 620:Generated_Source\PSoC6\pdl\drivers\peripheral\prot/cy_prot.c **** *   CY_PROT_FAILURE      | The Slave PU struct is enabled and possibly locked
 621:Generated_Source\PSoC6\pdl\drivers\peripheral\prot/cy_prot.c **** *
 622:Generated_Source\PSoC6\pdl\drivers\peripheral\prot/cy_prot.c **** * \funcusage
 623:Generated_Source\PSoC6\pdl\drivers\peripheral\prot/cy_prot.c **** * \snippet prot/prot_v1_10_sut_01.cydsn/main_cm4.c snippet_Cy_Prot_DisableSmpuSlaveStruct
 624:Generated_Source\PSoC6\pdl\drivers\peripheral\prot/cy_prot.c **** *
 625:Generated_Source\PSoC6\pdl\drivers\peripheral\prot/cy_prot.c **** *******************************************************************************/
 626:Generated_Source\PSoC6\pdl\drivers\peripheral\prot/cy_prot.c **** cy_en_prot_status_t Cy_Prot_DisableSmpuSlaveStruct(PROT_SMPU_SMPU_STRUCT_Type* base)
 627:Generated_Source\PSoC6\pdl\drivers\peripheral\prot/cy_prot.c **** {
 1116              		.loc 1 627 0
 1117              		.cfi_startproc
 1118              		@ args = 0, pretend = 0, frame = 0
 1119              		@ frame_needed = 0, uses_anonymous_args = 0
ARM GAS  C:\Users\gjl\AppData\Local\Temp\cc7xIfgu.s 			page 32


 1120              		@ link register save eliminated.
 1121              	.LVL86:
 628:Generated_Source\PSoC6\pdl\drivers\peripheral\prot/cy_prot.c ****     cy_en_prot_status_t status;
 629:Generated_Source\PSoC6\pdl\drivers\peripheral\prot/cy_prot.c ****     
 630:Generated_Source\PSoC6\pdl\drivers\peripheral\prot/cy_prot.c ****     base->ATT0 &= ~_VAL2FLD(PROT_SMPU_SMPU_STRUCT_ATT0_ENABLED, CY_PROT_STRUCT_ENABLE);
 1122              		.loc 1 630 0
 1123 0000 4368     		ldr	r3, [r0, #4]
 1124 0002 5B00     		lsls	r3, r3, #1
 1125 0004 5B08     		lsrs	r3, r3, #1
 1126 0006 4360     		str	r3, [r0, #4]
 631:Generated_Source\PSoC6\pdl\drivers\peripheral\prot/cy_prot.c ****     status = (_FLD2VAL(PROT_SMPU_SMPU_STRUCT_ATT0_ENABLED, base->ATT0) == CY_PROT_STRUCT_ENABLE) ?
 1127              		.loc 1 631 0
 1128 0008 4368     		ldr	r3, [r0, #4]
 1129 000a 002B     		cmp	r3, #0
 1130 000c 01DA     		bge	.L104
 1131 000e 0248     		ldr	r0, .L105
 1132              	.LVL87:
 1133 0010 00E0     		b	.L103
 1134              	.LVL88:
 1135              	.L104:
 1136 0012 0020     		movs	r0, #0
 1137              	.LVL89:
 1138              	.L103:
 632:Generated_Source\PSoC6\pdl\drivers\peripheral\prot/cy_prot.c ****                 CY_PROT_FAILURE : CY_PROT_SUCCESS;
 633:Generated_Source\PSoC6\pdl\drivers\peripheral\prot/cy_prot.c ****     
 634:Generated_Source\PSoC6\pdl\drivers\peripheral\prot/cy_prot.c ****     return status;
 635:Generated_Source\PSoC6\pdl\drivers\peripheral\prot/cy_prot.c **** }
 1139              		.loc 1 635 0 discriminator 4
 1140              		@ sp needed
 1141 0014 7047     		bx	lr
 1142              	.L106:
 1143 0016 C046     		.align	2
 1144              	.L105:
 1145 0018 0300C200 		.word	12713987
 1146              		.cfi_endproc
 1147              	.LFE47:
 1148              		.size	Cy_Prot_DisableSmpuSlaveStruct, .-Cy_Prot_DisableSmpuSlaveStruct
 1149              		.section	.text.Cy_Prot_ConfigPpuProgMasterStruct,"ax",%progbits
 1150              		.align	2
 1151              		.global	Cy_Prot_ConfigPpuProgMasterStruct
 1152              		.code	16
 1153              		.thumb_func
 1154              		.type	Cy_Prot_ConfigPpuProgMasterStruct, %function
 1155              	Cy_Prot_ConfigPpuProgMasterStruct:
 1156              	.LFB48:
 636:Generated_Source\PSoC6\pdl\drivers\peripheral\prot/cy_prot.c **** 
 637:Generated_Source\PSoC6\pdl\drivers\peripheral\prot/cy_prot.c **** 
 638:Generated_Source\PSoC6\pdl\drivers\peripheral\prot/cy_prot.c **** /*******************************************************************************
 639:Generated_Source\PSoC6\pdl\drivers\peripheral\prot/cy_prot.c **** * Function Name: Cy_Prot_ConfigPpuProgMasterStruct
 640:Generated_Source\PSoC6\pdl\drivers\peripheral\prot/cy_prot.c **** ****************************************************************************//**
 641:Generated_Source\PSoC6\pdl\drivers\peripheral\prot/cy_prot.c **** *
 642:Generated_Source\PSoC6\pdl\drivers\peripheral\prot/cy_prot.c **** * \brief Configures a Programmable Peripheral Protection Unit (PPU PROG) master 
 643:Generated_Source\PSoC6\pdl\drivers\peripheral\prot/cy_prot.c **** * protection struct with its protection attributes. 
 644:Generated_Source\PSoC6\pdl\drivers\peripheral\prot/cy_prot.c **** *
 645:Generated_Source\PSoC6\pdl\drivers\peripheral\prot/cy_prot.c **** * This function configures the master struct governing the corresponding slave
 646:Generated_Source\PSoC6\pdl\drivers\peripheral\prot/cy_prot.c **** * struct pair. It is a mechanism to protect the slave PPU PROG struct. Since
 647:Generated_Source\PSoC6\pdl\drivers\peripheral\prot/cy_prot.c **** * the memory location of the slave struct is known, the address, regionSize and
ARM GAS  C:\Users\gjl\AppData\Local\Temp\cc7xIfgu.s 			page 33


 648:Generated_Source\PSoC6\pdl\drivers\peripheral\prot/cy_prot.c **** * subregions of the configuration struct are not applicable.
 649:Generated_Source\PSoC6\pdl\drivers\peripheral\prot/cy_prot.c **** *
 650:Generated_Source\PSoC6\pdl\drivers\peripheral\prot/cy_prot.c **** * Note that only the user/privileged write permissions are configurable. The 
 651:Generated_Source\PSoC6\pdl\drivers\peripheral\prot/cy_prot.c **** * read and execute permissions are read-only and cannot be configured.
 652:Generated_Source\PSoC6\pdl\drivers\peripheral\prot/cy_prot.c **** *
 653:Generated_Source\PSoC6\pdl\drivers\peripheral\prot/cy_prot.c **** * \param base
 654:Generated_Source\PSoC6\pdl\drivers\peripheral\prot/cy_prot.c **** * The register base address of the protection struct being configured.
 655:Generated_Source\PSoC6\pdl\drivers\peripheral\prot/cy_prot.c **** * 
 656:Generated_Source\PSoC6\pdl\drivers\peripheral\prot/cy_prot.c **** * \param config
 657:Generated_Source\PSoC6\pdl\drivers\peripheral\prot/cy_prot.c **** * Initialization structure with all the protection attributes.
 658:Generated_Source\PSoC6\pdl\drivers\peripheral\prot/cy_prot.c **** * 
 659:Generated_Source\PSoC6\pdl\drivers\peripheral\prot/cy_prot.c **** * \return
 660:Generated_Source\PSoC6\pdl\drivers\peripheral\prot/cy_prot.c **** * Status of the function call.
 661:Generated_Source\PSoC6\pdl\drivers\peripheral\prot/cy_prot.c **** *
 662:Generated_Source\PSoC6\pdl\drivers\peripheral\prot/cy_prot.c **** *   Status               | Description
 663:Generated_Source\PSoC6\pdl\drivers\peripheral\prot/cy_prot.c **** *   ------------         | -----------
 664:Generated_Source\PSoC6\pdl\drivers\peripheral\prot/cy_prot.c **** *   CY_PROT_SUCCESS      | PPU PROG master struct was successfully configured
 665:Generated_Source\PSoC6\pdl\drivers\peripheral\prot/cy_prot.c **** *   CY_PROT_FAILURE      | The resource is locked
 666:Generated_Source\PSoC6\pdl\drivers\peripheral\prot/cy_prot.c **** *   CY_PROT_BAD_PARAM    | An incorrect/invalid parameter was passed
 667:Generated_Source\PSoC6\pdl\drivers\peripheral\prot/cy_prot.c **** *
 668:Generated_Source\PSoC6\pdl\drivers\peripheral\prot/cy_prot.c **** * \funcusage
 669:Generated_Source\PSoC6\pdl\drivers\peripheral\prot/cy_prot.c **** * \snippet prot/prot_v1_10_sut_01.cydsn/main_cm4.c snippet_Cy_Prot_ConfigPpuProgMasterStruct
 670:Generated_Source\PSoC6\pdl\drivers\peripheral\prot/cy_prot.c **** *
 671:Generated_Source\PSoC6\pdl\drivers\peripheral\prot/cy_prot.c **** *******************************************************************************/
 672:Generated_Source\PSoC6\pdl\drivers\peripheral\prot/cy_prot.c **** cy_en_prot_status_t Cy_Prot_ConfigPpuProgMasterStruct(PERI_PPU_PR_Type* base, const cy_stc_ppu_prog
 673:Generated_Source\PSoC6\pdl\drivers\peripheral\prot/cy_prot.c **** {
 1157              		.loc 1 673 0
 1158              		.cfi_startproc
 1159              		@ args = 0, pretend = 0, frame = 0
 1160              		@ frame_needed = 0, uses_anonymous_args = 0
 1161              	.LVL90:
 1162 0000 70B5     		push	{r4, r5, r6, lr}
 1163              		.cfi_def_cfa_offset 16
 1164              		.cfi_offset 4, -16
 1165              		.cfi_offset 5, -12
 1166              		.cfi_offset 6, -8
 1167              		.cfi_offset 14, -4
 1168 0002 0500     		movs	r5, r0
 1169 0004 0C00     		movs	r4, r1
 674:Generated_Source\PSoC6\pdl\drivers\peripheral\prot/cy_prot.c ****     cy_en_prot_status_t status;
 675:Generated_Source\PSoC6\pdl\drivers\peripheral\prot/cy_prot.c ****     uint32_t attReg;
 676:Generated_Source\PSoC6\pdl\drivers\peripheral\prot/cy_prot.c ****     
 677:Generated_Source\PSoC6\pdl\drivers\peripheral\prot/cy_prot.c ****     CY_ASSERT_L1(NULL != base);
 1170              		.loc 1 677 0
 1171 0006 0028     		cmp	r0, #0
 1172 0008 03D1     		bne	.L108
 1173              		.loc 1 677 0 is_stmt 0 discriminator 1
 1174 000a 2549     		ldr	r1, .L115
 1175              	.LVL91:
 1176 000c 2548     		ldr	r0, .L115+4
 1177              	.LVL92:
 1178 000e FFF7FEFF 		bl	Cy_SysLib_AssertFailed
 1179              	.LVL93:
 1180              	.L108:
 678:Generated_Source\PSoC6\pdl\drivers\peripheral\prot/cy_prot.c ****     CY_ASSERT_L3(CY_PROT_IS_PROG_MS_PERM_VALID(config->userPermission));
 1181              		.loc 1 678 0 is_stmt 1
 1182 0012 A379     		ldrb	r3, [r4, #6]
ARM GAS  C:\Users\gjl\AppData\Local\Temp\cc7xIfgu.s 			page 34


 1183 0014 012B     		cmp	r3, #1
 1184 0016 05D0     		beq	.L109
 1185              		.loc 1 678 0 is_stmt 0 discriminator 1
 1186 0018 032B     		cmp	r3, #3
 1187 001a 03D0     		beq	.L109
 1188              		.loc 1 678 0 discriminator 2
 1189 001c 2249     		ldr	r1, .L115+8
 1190 001e 2148     		ldr	r0, .L115+4
 1191 0020 FFF7FEFF 		bl	Cy_SysLib_AssertFailed
 1192              	.LVL94:
 1193              	.L109:
 679:Generated_Source\PSoC6\pdl\drivers\peripheral\prot/cy_prot.c ****     CY_ASSERT_L3(CY_PROT_IS_PROG_MS_PERM_VALID(config->privPermission));
 1194              		.loc 1 679 0 is_stmt 1
 1195 0024 E379     		ldrb	r3, [r4, #7]
 1196 0026 012B     		cmp	r3, #1
 1197 0028 05D0     		beq	.L110
 1198              		.loc 1 679 0 is_stmt 0 discriminator 1
 1199 002a 032B     		cmp	r3, #3
 1200 002c 03D0     		beq	.L110
 1201              		.loc 1 679 0 discriminator 2
 1202 002e 1F49     		ldr	r1, .L115+12
 1203 0030 1C48     		ldr	r0, .L115+4
 1204 0032 FFF7FEFF 		bl	Cy_SysLib_AssertFailed
 1205              	.LVL95:
 1206              	.L110:
 680:Generated_Source\PSoC6\pdl\drivers\peripheral\prot/cy_prot.c ****     
 681:Generated_Source\PSoC6\pdl\drivers\peripheral\prot/cy_prot.c ****     if(((uint32_t)config->pcMask & CY_PROT_PPU_PROG_PC_LIMIT_MASK) != 0UL) 
 1207              		.loc 1 681 0 is_stmt 1
 1208 0036 6189     		ldrh	r1, [r4, #10]
 1209 0038 7F23     		movs	r3, #127
 1210 003a 0A00     		movs	r2, r1
 1211 003c 9A43     		bics	r2, r3
 1212 003e 28D1     		bne	.L112
 682:Generated_Source\PSoC6\pdl\drivers\peripheral\prot/cy_prot.c ****     {
 683:Generated_Source\PSoC6\pdl\drivers\peripheral\prot/cy_prot.c ****         /* PC mask out of range - not supported in device */
 684:Generated_Source\PSoC6\pdl\drivers\peripheral\prot/cy_prot.c ****         status = CY_PROT_BAD_PARAM;
 685:Generated_Source\PSoC6\pdl\drivers\peripheral\prot/cy_prot.c ****     }
 686:Generated_Source\PSoC6\pdl\drivers\peripheral\prot/cy_prot.c ****     else
 687:Generated_Source\PSoC6\pdl\drivers\peripheral\prot/cy_prot.c ****     {
 688:Generated_Source\PSoC6\pdl\drivers\peripheral\prot/cy_prot.c ****         /* ADDR1 is read only. Only configure ATT1 */
 689:Generated_Source\PSoC6\pdl\drivers\peripheral\prot/cy_prot.c ****         attReg = ((uint32_t)config->userPermission & CY_PROT_ATT_PERMISSION_MASK)
 1213              		.loc 1 689 0
 1214 0040 A379     		ldrb	r3, [r4, #6]
 1215 0042 0720     		movs	r0, #7
 1216 0044 1840     		ands	r0, r3
 690:Generated_Source\PSoC6\pdl\drivers\peripheral\prot/cy_prot.c ****                     | (uint32_t)(((uint32_t)config->privPermission & CY_PROT_ATT_PERMISSION_MASK) <
 1217              		.loc 1 690 0
 1218 0046 E279     		ldrb	r2, [r4, #7]
 1219 0048 D200     		lsls	r2, r2, #3
 1220 004a 3823     		movs	r3, #56
 1221 004c 1340     		ands	r3, r2
 1222 004e 1843     		orrs	r0, r3
 691:Generated_Source\PSoC6\pdl\drivers\peripheral\prot/cy_prot.c ****                     | _VAL2FLD(PERI_PPU_PR_ATT1_NS, !(config->secure))
 1223              		.loc 1 691 0
 1224 0050 237A     		ldrb	r3, [r4, #8]
 1225 0052 0122     		movs	r2, #1
 1226 0054 5A40     		eors	r2, r3
ARM GAS  C:\Users\gjl\AppData\Local\Temp\cc7xIfgu.s 			page 35


 1227 0056 D2B2     		uxtb	r2, r2
 1228 0058 9201     		lsls	r2, r2, #6
 1229 005a 4023     		movs	r3, #64
 1230 005c 1A40     		ands	r2, r3
 1231 005e 0300     		movs	r3, r0
 1232 0060 1343     		orrs	r3, r2
 692:Generated_Source\PSoC6\pdl\drivers\peripheral\prot/cy_prot.c ****                     | _VAL2FLD(PERI_PPU_PR_ATT1_PC_MASK_15_TO_1, config->pcMask)
 1233              		.loc 1 692 0
 1234 0062 4902     		lsls	r1, r1, #9
 1235 0064 124A     		ldr	r2, .L115+16
 1236 0066 1140     		ands	r1, r2
 1237 0068 1943     		orrs	r1, r3
 693:Generated_Source\PSoC6\pdl\drivers\peripheral\prot/cy_prot.c ****                     /* No region size - read only for master structs */
 694:Generated_Source\PSoC6\pdl\drivers\peripheral\prot/cy_prot.c ****                     | _VAL2FLD(PERI_PPU_PR_ATT1_PC_MATCH, config->pcMatch);
 1238              		.loc 1 694 0
 1239 006a 637A     		ldrb	r3, [r4, #9]
 1240 006c 9B07     		lsls	r3, r3, #30
 1241 006e 8020     		movs	r0, #128
 1242 0070 C005     		lsls	r0, r0, #23
 1243 0072 0340     		ands	r3, r0
 1244 0074 1A00     		movs	r2, r3
 689:Generated_Source\PSoC6\pdl\drivers\peripheral\prot/cy_prot.c ****                     | (uint32_t)(((uint32_t)config->privPermission & CY_PROT_ATT_PERMISSION_MASK) <
 1245              		.loc 1 689 0
 1246 0076 0B00     		movs	r3, r1
 1247 0078 1343     		orrs	r3, r2
 1248              	.LVL96:
 695:Generated_Source\PSoC6\pdl\drivers\peripheral\prot/cy_prot.c ****         if ((attReg & CY_PROT_PPU_PROG_ATT1_MASK) != attReg)
 1249              		.loc 1 695 0
 1250 007a 0E4A     		ldr	r2, .L115+20
 1251 007c 1A40     		ands	r2, r3
 1252 007e 9342     		cmp	r3, r2
 1253 0080 09D1     		bne	.L113
 696:Generated_Source\PSoC6\pdl\drivers\peripheral\prot/cy_prot.c ****         {
 697:Generated_Source\PSoC6\pdl\drivers\peripheral\prot/cy_prot.c ****             /* Invalid parameter was passed */
 698:Generated_Source\PSoC6\pdl\drivers\peripheral\prot/cy_prot.c ****             status = CY_PROT_BAD_PARAM;
 699:Generated_Source\PSoC6\pdl\drivers\peripheral\prot/cy_prot.c ****         }
 700:Generated_Source\PSoC6\pdl\drivers\peripheral\prot/cy_prot.c ****         else
 701:Generated_Source\PSoC6\pdl\drivers\peripheral\prot/cy_prot.c ****         {
 702:Generated_Source\PSoC6\pdl\drivers\peripheral\prot/cy_prot.c ****             base->ATT1 = attReg;
 1254              		.loc 1 702 0
 1255 0082 6B62     		str	r3, [r5, #36]
 703:Generated_Source\PSoC6\pdl\drivers\peripheral\prot/cy_prot.c ****             status = ((base->ATT1 & CY_PROT_PPU_PROG_ATT1_MASK) != attReg) ? CY_PROT_FAILURE : CY_P
 1256              		.loc 1 703 0
 1257 0084 696A     		ldr	r1, [r5, #36]
 1258 0086 0B4A     		ldr	r2, .L115+20
 1259 0088 0A40     		ands	r2, r1
 1260 008a 9342     		cmp	r3, r2
 1261 008c 05D0     		beq	.L114
 1262 008e 0A48     		ldr	r0, .L115+24
 1263 0090 04E0     		b	.L111
 1264              	.LVL97:
 1265              	.L112:
 684:Generated_Source\PSoC6\pdl\drivers\peripheral\prot/cy_prot.c ****     }
 1266              		.loc 1 684 0
 1267 0092 0A48     		ldr	r0, .L115+28
 1268 0094 02E0     		b	.L111
 1269              	.LVL98:
ARM GAS  C:\Users\gjl\AppData\Local\Temp\cc7xIfgu.s 			page 36


 1270              	.L113:
 698:Generated_Source\PSoC6\pdl\drivers\peripheral\prot/cy_prot.c ****         }
 1271              		.loc 1 698 0
 1272 0096 0948     		ldr	r0, .L115+28
 1273 0098 00E0     		b	.L111
 1274              	.L114:
 1275              		.loc 1 703 0
 1276 009a 0020     		movs	r0, #0
 1277              	.LVL99:
 1278              	.L111:
 704:Generated_Source\PSoC6\pdl\drivers\peripheral\prot/cy_prot.c ****         }
 705:Generated_Source\PSoC6\pdl\drivers\peripheral\prot/cy_prot.c ****     }
 706:Generated_Source\PSoC6\pdl\drivers\peripheral\prot/cy_prot.c **** 
 707:Generated_Source\PSoC6\pdl\drivers\peripheral\prot/cy_prot.c ****     return status;
 708:Generated_Source\PSoC6\pdl\drivers\peripheral\prot/cy_prot.c **** }
 1279              		.loc 1 708 0
 1280              		@ sp needed
 1281              	.LVL100:
 1282              	.LVL101:
 1283 009c 70BD     		pop	{r4, r5, r6, pc}
 1284              	.L116:
 1285 009e C046     		.align	2
 1286              	.L115:
 1287 00a0 A5020000 		.word	677
 1288 00a4 00000000 		.word	.LC0
 1289 00a8 A6020000 		.word	678
 1290 00ac A7020000 		.word	679
 1291 00b0 00FEFF00 		.word	16776704
 1292 00b4 DBFEFFE0 		.word	-520093989
 1293 00b8 0300C200 		.word	12713987
 1294 00bc 0100C200 		.word	12713985
 1295              		.cfi_endproc
 1296              	.LFE48:
 1297              		.size	Cy_Prot_ConfigPpuProgMasterStruct, .-Cy_Prot_ConfigPpuProgMasterStruct
 1298              		.section	.text.Cy_Prot_ConfigPpuProgSlaveStruct,"ax",%progbits
 1299              		.align	2
 1300              		.global	Cy_Prot_ConfigPpuProgSlaveStruct
 1301              		.code	16
 1302              		.thumb_func
 1303              		.type	Cy_Prot_ConfigPpuProgSlaveStruct, %function
 1304              	Cy_Prot_ConfigPpuProgSlaveStruct:
 1305              	.LFB49:
 709:Generated_Source\PSoC6\pdl\drivers\peripheral\prot/cy_prot.c **** 
 710:Generated_Source\PSoC6\pdl\drivers\peripheral\prot/cy_prot.c **** /*******************************************************************************
 711:Generated_Source\PSoC6\pdl\drivers\peripheral\prot/cy_prot.c **** * Function Name: Cy_Prot_ConfigPpuProgSlaveStruct
 712:Generated_Source\PSoC6\pdl\drivers\peripheral\prot/cy_prot.c **** ****************************************************************************//**
 713:Generated_Source\PSoC6\pdl\drivers\peripheral\prot/cy_prot.c **** *
 714:Generated_Source\PSoC6\pdl\drivers\peripheral\prot/cy_prot.c **** * \brief Configures a Programmable Peripheral Protection Unit (PPU PROG) slave
 715:Generated_Source\PSoC6\pdl\drivers\peripheral\prot/cy_prot.c **** * protection struct with its protection attributes. 
 716:Generated_Source\PSoC6\pdl\drivers\peripheral\prot/cy_prot.c **** * 
 717:Generated_Source\PSoC6\pdl\drivers\peripheral\prot/cy_prot.c **** * This function configures the slave struct of a PPU PROG pair, which can 
 718:Generated_Source\PSoC6\pdl\drivers\peripheral\prot/cy_prot.c **** * protect any peripheral memory region in a device from invalid bus master 
 719:Generated_Source\PSoC6\pdl\drivers\peripheral\prot/cy_prot.c **** * accesses.
 720:Generated_Source\PSoC6\pdl\drivers\peripheral\prot/cy_prot.c **** *
 721:Generated_Source\PSoC6\pdl\drivers\peripheral\prot/cy_prot.c **** * Note that the user/privileged execute accesses are read-only and are always 
 722:Generated_Source\PSoC6\pdl\drivers\peripheral\prot/cy_prot.c **** * enabled. 
 723:Generated_Source\PSoC6\pdl\drivers\peripheral\prot/cy_prot.c **** *
ARM GAS  C:\Users\gjl\AppData\Local\Temp\cc7xIfgu.s 			page 37


 724:Generated_Source\PSoC6\pdl\drivers\peripheral\prot/cy_prot.c **** * \param base
 725:Generated_Source\PSoC6\pdl\drivers\peripheral\prot/cy_prot.c **** * The register base address of the protection structure being configured.
 726:Generated_Source\PSoC6\pdl\drivers\peripheral\prot/cy_prot.c **** * 
 727:Generated_Source\PSoC6\pdl\drivers\peripheral\prot/cy_prot.c **** * \param config
 728:Generated_Source\PSoC6\pdl\drivers\peripheral\prot/cy_prot.c **** * Initialization structure with all the protection attributes.
 729:Generated_Source\PSoC6\pdl\drivers\peripheral\prot/cy_prot.c **** * 
 730:Generated_Source\PSoC6\pdl\drivers\peripheral\prot/cy_prot.c **** * \return
 731:Generated_Source\PSoC6\pdl\drivers\peripheral\prot/cy_prot.c **** * Status of the function call.
 732:Generated_Source\PSoC6\pdl\drivers\peripheral\prot/cy_prot.c **** *
 733:Generated_Source\PSoC6\pdl\drivers\peripheral\prot/cy_prot.c **** *   Status               | Description
 734:Generated_Source\PSoC6\pdl\drivers\peripheral\prot/cy_prot.c **** *   ------------         | -----------
 735:Generated_Source\PSoC6\pdl\drivers\peripheral\prot/cy_prot.c **** *   CY_PROT_SUCCESS      | PPU PROG slave struct was successfully configured
 736:Generated_Source\PSoC6\pdl\drivers\peripheral\prot/cy_prot.c **** *   CY_PROT_FAILURE      | The resource is locked
 737:Generated_Source\PSoC6\pdl\drivers\peripheral\prot/cy_prot.c **** *   CY_PROT_BAD_PARAM    | An incorrect/invalid parameter was passed
 738:Generated_Source\PSoC6\pdl\drivers\peripheral\prot/cy_prot.c **** *
 739:Generated_Source\PSoC6\pdl\drivers\peripheral\prot/cy_prot.c **** * \funcusage
 740:Generated_Source\PSoC6\pdl\drivers\peripheral\prot/cy_prot.c **** * \snippet prot/prot_v1_10_sut_01.cydsn/main_cm4.c snippet_Cy_Prot_ConfigPpuProgSlaveStruct
 741:Generated_Source\PSoC6\pdl\drivers\peripheral\prot/cy_prot.c **** *
 742:Generated_Source\PSoC6\pdl\drivers\peripheral\prot/cy_prot.c **** *******************************************************************************/
 743:Generated_Source\PSoC6\pdl\drivers\peripheral\prot/cy_prot.c **** cy_en_prot_status_t Cy_Prot_ConfigPpuProgSlaveStruct(PERI_PPU_PR_Type* base, const cy_stc_ppu_prog_
 744:Generated_Source\PSoC6\pdl\drivers\peripheral\prot/cy_prot.c **** {
 1306              		.loc 1 744 0
 1307              		.cfi_startproc
 1308              		@ args = 0, pretend = 0, frame = 0
 1309              		@ frame_needed = 0, uses_anonymous_args = 0
 1310              	.LVL102:
 1311 0000 F8B5     		push	{r3, r4, r5, r6, r7, lr}
 1312              		.cfi_def_cfa_offset 24
 1313              		.cfi_offset 3, -24
 1314              		.cfi_offset 4, -20
 1315              		.cfi_offset 5, -16
 1316              		.cfi_offset 6, -12
 1317              		.cfi_offset 7, -8
 1318              		.cfi_offset 14, -4
 1319 0002 0500     		movs	r5, r0
 1320 0004 0C00     		movs	r4, r1
 745:Generated_Source\PSoC6\pdl\drivers\peripheral\prot/cy_prot.c ****     cy_en_prot_status_t status;
 746:Generated_Source\PSoC6\pdl\drivers\peripheral\prot/cy_prot.c ****     uint32_t addrReg;
 747:Generated_Source\PSoC6\pdl\drivers\peripheral\prot/cy_prot.c ****     uint32_t attReg;
 748:Generated_Source\PSoC6\pdl\drivers\peripheral\prot/cy_prot.c ****     
 749:Generated_Source\PSoC6\pdl\drivers\peripheral\prot/cy_prot.c ****     CY_ASSERT_L1(NULL != base);
 1321              		.loc 1 749 0
 1322 0006 0028     		cmp	r0, #0
 1323 0008 03D1     		bne	.L118
 1324              		.loc 1 749 0 is_stmt 0 discriminator 1
 1325 000a 3249     		ldr	r1, .L127
 1326              	.LVL103:
 1327 000c 3248     		ldr	r0, .L127+4
 1328              	.LVL104:
 1329 000e FFF7FEFF 		bl	Cy_SysLib_AssertFailed
 1330              	.LVL105:
 1331              	.L118:
 750:Generated_Source\PSoC6\pdl\drivers\peripheral\prot/cy_prot.c ****     CY_ASSERT_L3(CY_PROT_IS_PROG_SL_PERM_VALID(config->userPermission));
 1332              		.loc 1 750 0 is_stmt 1
 1333 0012 A379     		ldrb	r3, [r4, #6]
 1334 0014 032B     		cmp	r3, #3
 1335 0016 03D9     		bls	.L119
ARM GAS  C:\Users\gjl\AppData\Local\Temp\cc7xIfgu.s 			page 38


 1336              		.loc 1 750 0 is_stmt 0 discriminator 1
 1337 0018 3049     		ldr	r1, .L127+8
 1338 001a 2F48     		ldr	r0, .L127+4
 1339 001c FFF7FEFF 		bl	Cy_SysLib_AssertFailed
 1340              	.LVL106:
 1341              	.L119:
 751:Generated_Source\PSoC6\pdl\drivers\peripheral\prot/cy_prot.c ****     CY_ASSERT_L3(CY_PROT_IS_PROG_SL_PERM_VALID(config->privPermission));
 1342              		.loc 1 751 0 is_stmt 1
 1343 0020 E379     		ldrb	r3, [r4, #7]
 1344 0022 032B     		cmp	r3, #3
 1345 0024 03D9     		bls	.L120
 1346              		.loc 1 751 0 is_stmt 0 discriminator 1
 1347 0026 2E49     		ldr	r1, .L127+12
 1348 0028 2B48     		ldr	r0, .L127+4
 1349 002a FFF7FEFF 		bl	Cy_SysLib_AssertFailed
 1350              	.LVL107:
 1351              	.L120:
 752:Generated_Source\PSoC6\pdl\drivers\peripheral\prot/cy_prot.c ****     CY_ASSERT_L3(CY_PROT_IS_REGION_SIZE_VALID(config->regionSize));
 1352              		.loc 1 752 0 is_stmt 1
 1353 002e 2379     		ldrb	r3, [r4, #4]
 1354 0030 073B     		subs	r3, r3, #7
 1355 0032 DBB2     		uxtb	r3, r3
 1356 0034 182B     		cmp	r3, #24
 1357 0036 04D9     		bls	.L121
 1358              		.loc 1 752 0 is_stmt 0 discriminator 1
 1359 0038 BC21     		movs	r1, #188
 1360 003a 8900     		lsls	r1, r1, #2
 1361 003c 2648     		ldr	r0, .L127+4
 1362 003e FFF7FEFF 		bl	Cy_SysLib_AssertFailed
 1363              	.LVL108:
 1364              	.L121:
 753:Generated_Source\PSoC6\pdl\drivers\peripheral\prot/cy_prot.c **** 
 754:Generated_Source\PSoC6\pdl\drivers\peripheral\prot/cy_prot.c ****     if(((uint32_t)config->pcMask & CY_PROT_PPU_PROG_PC_LIMIT_MASK) != 0UL) 
 1365              		.loc 1 754 0 is_stmt 1
 1366 0042 6189     		ldrh	r1, [r4, #10]
 1367 0044 7F23     		movs	r3, #127
 1368 0046 0A00     		movs	r2, r1
 1369 0048 9A43     		bics	r2, r3
 1370 004a 131E     		subs	r3, r2, #0
 1371 004c 39D1     		bne	.L123
 755:Generated_Source\PSoC6\pdl\drivers\peripheral\prot/cy_prot.c ****     {
 756:Generated_Source\PSoC6\pdl\drivers\peripheral\prot/cy_prot.c ****         /* PC mask out of range - not supported in device */
 757:Generated_Source\PSoC6\pdl\drivers\peripheral\prot/cy_prot.c ****         status = CY_PROT_BAD_PARAM;
 758:Generated_Source\PSoC6\pdl\drivers\peripheral\prot/cy_prot.c ****     }
 759:Generated_Source\PSoC6\pdl\drivers\peripheral\prot/cy_prot.c ****     else
 760:Generated_Source\PSoC6\pdl\drivers\peripheral\prot/cy_prot.c ****     {
 761:Generated_Source\PSoC6\pdl\drivers\peripheral\prot/cy_prot.c ****         addrReg= _VAL2FLD(PERI_PPU_PR_ADDR0_SUBREGION_DISABLE, config->subregions)
 1372              		.loc 1 761 0
 1373 004e 6679     		ldrb	r6, [r4, #5]
 762:Generated_Source\PSoC6\pdl\drivers\peripheral\prot/cy_prot.c ****                     | _VAL2FLD(PERI_PPU_PR_ADDR0_ADDR24, (uint32_t)((uint32_t)config->address >> CY
 1374              		.loc 1 762 0
 1375 0050 FF33     		adds	r3, r3, #255
 1376 0052 2268     		ldr	r2, [r4]
 1377 0054 9A43     		bics	r2, r3
 761:Generated_Source\PSoC6\pdl\drivers\peripheral\prot/cy_prot.c ****                     | _VAL2FLD(PERI_PPU_PR_ADDR0_ADDR24, (uint32_t)((uint32_t)config->address >> CY
 1378              		.loc 1 761 0
 1379 0056 1643     		orrs	r6, r2
ARM GAS  C:\Users\gjl\AppData\Local\Temp\cc7xIfgu.s 			page 39


 1380              	.LVL109:
 763:Generated_Source\PSoC6\pdl\drivers\peripheral\prot/cy_prot.c ****         attReg= ((uint32_t)config->userPermission & CY_PROT_ATT_PERMISSION_MASK)
 1381              		.loc 1 763 0
 1382 0058 A379     		ldrb	r3, [r4, #6]
 1383 005a 0720     		movs	r0, #7
 1384 005c 1840     		ands	r0, r3
 764:Generated_Source\PSoC6\pdl\drivers\peripheral\prot/cy_prot.c ****                     | (uint32_t)(((uint32_t)config->privPermission & CY_PROT_ATT_PERMISSION_MASK) <
 1385              		.loc 1 764 0
 1386 005e E279     		ldrb	r2, [r4, #7]
 1387 0060 D200     		lsls	r2, r2, #3
 1388 0062 3823     		movs	r3, #56
 1389 0064 1340     		ands	r3, r2
 1390 0066 1843     		orrs	r0, r3
 765:Generated_Source\PSoC6\pdl\drivers\peripheral\prot/cy_prot.c ****                     | _VAL2FLD(PERI_PPU_PR_ATT0_NS, !(config->secure))
 1391              		.loc 1 765 0
 1392 0068 237A     		ldrb	r3, [r4, #8]
 1393 006a 0122     		movs	r2, #1
 1394 006c 5A40     		eors	r2, r3
 1395 006e D2B2     		uxtb	r2, r2
 1396 0070 9201     		lsls	r2, r2, #6
 1397 0072 4023     		movs	r3, #64
 1398 0074 1A40     		ands	r2, r3
 1399 0076 0300     		movs	r3, r0
 1400 0078 1343     		orrs	r3, r2
 766:Generated_Source\PSoC6\pdl\drivers\peripheral\prot/cy_prot.c ****                     | _VAL2FLD(PERI_PPU_PR_ATT0_PC_MASK_15_TO_1, config->pcMask)
 1401              		.loc 1 766 0
 1402 007a 4902     		lsls	r1, r1, #9
 1403 007c 194A     		ldr	r2, .L127+16
 1404 007e 1140     		ands	r1, r2
 1405 0080 0B43     		orrs	r3, r1
 767:Generated_Source\PSoC6\pdl\drivers\peripheral\prot/cy_prot.c ****                     | _VAL2FLD(PERI_PPU_PR_ATT0_REGION_SIZE, config->regionSize)
 1406              		.loc 1 767 0
 1407 0082 2179     		ldrb	r1, [r4, #4]
 1408 0084 0906     		lsls	r1, r1, #24
 1409 0086 F820     		movs	r0, #248
 1410 0088 4005     		lsls	r0, r0, #21
 1411 008a 0A00     		movs	r2, r1
 1412 008c 0240     		ands	r2, r0
 1413 008e 1343     		orrs	r3, r2
 1414 0090 1900     		movs	r1, r3
 768:Generated_Source\PSoC6\pdl\drivers\peripheral\prot/cy_prot.c ****                     | _VAL2FLD(PERI_PPU_PR_ATT0_PC_MATCH, config->pcMatch);
 1415              		.loc 1 768 0
 1416 0092 637A     		ldrb	r3, [r4, #9]
 1417 0094 9B07     		lsls	r3, r3, #30
 1418 0096 8020     		movs	r0, #128
 1419 0098 C005     		lsls	r0, r0, #23
 1420 009a 0340     		ands	r3, r0
 1421 009c 1A00     		movs	r2, r3
 763:Generated_Source\PSoC6\pdl\drivers\peripheral\prot/cy_prot.c ****                     | (uint32_t)(((uint32_t)config->privPermission & CY_PROT_ATT_PERMISSION_MASK) <
 1422              		.loc 1 763 0
 1423 009e 0B00     		movs	r3, r1
 1424 00a0 1343     		orrs	r3, r2
 1425              	.LVL110:
 769:Generated_Source\PSoC6\pdl\drivers\peripheral\prot/cy_prot.c ****         if ((attReg & CY_PROT_PPU_PROG_ATT0_MASK) != attReg)
 1426              		.loc 1 769 0
 1427 00a2 114A     		ldr	r2, .L127+20
 1428 00a4 1A40     		ands	r2, r3
ARM GAS  C:\Users\gjl\AppData\Local\Temp\cc7xIfgu.s 			page 40


 1429 00a6 9342     		cmp	r3, r2
 1430 00a8 0DD1     		bne	.L124
 770:Generated_Source\PSoC6\pdl\drivers\peripheral\prot/cy_prot.c ****         {
 771:Generated_Source\PSoC6\pdl\drivers\peripheral\prot/cy_prot.c ****             /* Invalid parameter was passed */
 772:Generated_Source\PSoC6\pdl\drivers\peripheral\prot/cy_prot.c ****             status = CY_PROT_BAD_PARAM;
 773:Generated_Source\PSoC6\pdl\drivers\peripheral\prot/cy_prot.c ****         }
 774:Generated_Source\PSoC6\pdl\drivers\peripheral\prot/cy_prot.c ****         else
 775:Generated_Source\PSoC6\pdl\drivers\peripheral\prot/cy_prot.c ****         {
 776:Generated_Source\PSoC6\pdl\drivers\peripheral\prot/cy_prot.c ****             base->ATT0 = attReg;
 1431              		.loc 1 776 0
 1432 00aa 6B60     		str	r3, [r5, #4]
 777:Generated_Source\PSoC6\pdl\drivers\peripheral\prot/cy_prot.c ****             base->ADDR0 = addrReg;
 1433              		.loc 1 777 0
 1434 00ac 2E60     		str	r6, [r5]
 778:Generated_Source\PSoC6\pdl\drivers\peripheral\prot/cy_prot.c ****             status = ((base->ADDR0 != addrReg) || ((base->ATT0 & CY_PROT_PPU_PROG_ATT0_MASK) != att
 1435              		.loc 1 778 0
 1436 00ae 2A68     		ldr	r2, [r5]
 1437 00b0 9642     		cmp	r6, r2
 1438 00b2 0AD1     		bne	.L125
 1439              		.loc 1 778 0 is_stmt 0 discriminator 2
 1440 00b4 6968     		ldr	r1, [r5, #4]
 1441 00b6 0C4A     		ldr	r2, .L127+20
 1442 00b8 0A40     		ands	r2, r1
 1443 00ba 9342     		cmp	r3, r2
 1444 00bc 07D0     		beq	.L126
 1445              		.loc 1 778 0
 1446 00be 0B48     		ldr	r0, .L127+24
 1447 00c0 06E0     		b	.L122
 1448              	.LVL111:
 1449              	.L123:
 757:Generated_Source\PSoC6\pdl\drivers\peripheral\prot/cy_prot.c ****     }
 1450              		.loc 1 757 0 is_stmt 1
 1451 00c2 0B48     		ldr	r0, .L127+28
 1452 00c4 04E0     		b	.L122
 1453              	.LVL112:
 1454              	.L124:
 772:Generated_Source\PSoC6\pdl\drivers\peripheral\prot/cy_prot.c ****         }
 1455              		.loc 1 772 0
 1456 00c6 0A48     		ldr	r0, .L127+28
 1457 00c8 02E0     		b	.L122
 1458              	.L125:
 1459              		.loc 1 778 0
 1460 00ca 0848     		ldr	r0, .L127+24
 1461 00cc 00E0     		b	.L122
 1462              	.L126:
 1463 00ce 0020     		movs	r0, #0
 1464              	.LVL113:
 1465              	.L122:
 779:Generated_Source\PSoC6\pdl\drivers\peripheral\prot/cy_prot.c ****                         ? CY_PROT_FAILURE : CY_PROT_SUCCESS;
 780:Generated_Source\PSoC6\pdl\drivers\peripheral\prot/cy_prot.c ****         }
 781:Generated_Source\PSoC6\pdl\drivers\peripheral\prot/cy_prot.c ****     }
 782:Generated_Source\PSoC6\pdl\drivers\peripheral\prot/cy_prot.c ****     
 783:Generated_Source\PSoC6\pdl\drivers\peripheral\prot/cy_prot.c ****     return status;
 784:Generated_Source\PSoC6\pdl\drivers\peripheral\prot/cy_prot.c **** }
 1466              		.loc 1 784 0
 1467              		@ sp needed
 1468              	.LVL114:
ARM GAS  C:\Users\gjl\AppData\Local\Temp\cc7xIfgu.s 			page 41


 1469              	.LVL115:
 1470 00d0 F8BD     		pop	{r3, r4, r5, r6, r7, pc}
 1471              	.L128:
 1472 00d2 C046     		.align	2
 1473              	.L127:
 1474 00d4 ED020000 		.word	749
 1475 00d8 00000000 		.word	.LC0
 1476 00dc EE020000 		.word	750
 1477 00e0 EF020000 		.word	751
 1478 00e4 00FEFF00 		.word	16776704
 1479 00e8 DBFEFFFF 		.word	-293
 1480 00ec 0300C200 		.word	12713987
 1481 00f0 0100C200 		.word	12713985
 1482              		.cfi_endproc
 1483              	.LFE49:
 1484              		.size	Cy_Prot_ConfigPpuProgSlaveStruct, .-Cy_Prot_ConfigPpuProgSlaveStruct
 1485              		.section	.text.Cy_Prot_EnablePpuProgMasterStruct,"ax",%progbits
 1486              		.align	2
 1487              		.global	Cy_Prot_EnablePpuProgMasterStruct
 1488              		.code	16
 1489              		.thumb_func
 1490              		.type	Cy_Prot_EnablePpuProgMasterStruct, %function
 1491              	Cy_Prot_EnablePpuProgMasterStruct:
 1492              	.LFB50:
 785:Generated_Source\PSoC6\pdl\drivers\peripheral\prot/cy_prot.c **** 
 786:Generated_Source\PSoC6\pdl\drivers\peripheral\prot/cy_prot.c **** 
 787:Generated_Source\PSoC6\pdl\drivers\peripheral\prot/cy_prot.c **** /*******************************************************************************
 788:Generated_Source\PSoC6\pdl\drivers\peripheral\prot/cy_prot.c **** * Function Name: Cy_Prot_EnablePpuProgMasterStruct
 789:Generated_Source\PSoC6\pdl\drivers\peripheral\prot/cy_prot.c **** ****************************************************************************//**
 790:Generated_Source\PSoC6\pdl\drivers\peripheral\prot/cy_prot.c **** *
 791:Generated_Source\PSoC6\pdl\drivers\peripheral\prot/cy_prot.c **** * \brief Enables the Master PPU PROG structure.
 792:Generated_Source\PSoC6\pdl\drivers\peripheral\prot/cy_prot.c **** *
 793:Generated_Source\PSoC6\pdl\drivers\peripheral\prot/cy_prot.c **** * This is a PPU PROG master struct enable function. The PPU PROG protection 
 794:Generated_Source\PSoC6\pdl\drivers\peripheral\prot/cy_prot.c **** * settings will take effect after successful completion of this function call.
 795:Generated_Source\PSoC6\pdl\drivers\peripheral\prot/cy_prot.c **** *
 796:Generated_Source\PSoC6\pdl\drivers\peripheral\prot/cy_prot.c **** * \param base
 797:Generated_Source\PSoC6\pdl\drivers\peripheral\prot/cy_prot.c **** * The base address for the protection unit structure being configured. 
 798:Generated_Source\PSoC6\pdl\drivers\peripheral\prot/cy_prot.c **** *
 799:Generated_Source\PSoC6\pdl\drivers\peripheral\prot/cy_prot.c **** * \return
 800:Generated_Source\PSoC6\pdl\drivers\peripheral\prot/cy_prot.c **** * Status of the function call.
 801:Generated_Source\PSoC6\pdl\drivers\peripheral\prot/cy_prot.c **** *
 802:Generated_Source\PSoC6\pdl\drivers\peripheral\prot/cy_prot.c **** *   Status               | Description
 803:Generated_Source\PSoC6\pdl\drivers\peripheral\prot/cy_prot.c **** *   ------------         | -----------
 804:Generated_Source\PSoC6\pdl\drivers\peripheral\prot/cy_prot.c **** *   CY_PROT_SUCCESS      | The Master PU struct was enabled
 805:Generated_Source\PSoC6\pdl\drivers\peripheral\prot/cy_prot.c **** *   CY_PROT_FAILURE      | The Master PU struct is disabled and possibly locked
 806:Generated_Source\PSoC6\pdl\drivers\peripheral\prot/cy_prot.c **** *
 807:Generated_Source\PSoC6\pdl\drivers\peripheral\prot/cy_prot.c **** * \funcusage
 808:Generated_Source\PSoC6\pdl\drivers\peripheral\prot/cy_prot.c **** * \snippet prot/prot_v1_10_sut_01.cydsn/main_cm4.c snippet_Cy_Prot_EnablePpuProgMasterStruct
 809:Generated_Source\PSoC6\pdl\drivers\peripheral\prot/cy_prot.c **** *
 810:Generated_Source\PSoC6\pdl\drivers\peripheral\prot/cy_prot.c **** *******************************************************************************/
 811:Generated_Source\PSoC6\pdl\drivers\peripheral\prot/cy_prot.c **** cy_en_prot_status_t Cy_Prot_EnablePpuProgMasterStruct(PERI_PPU_PR_Type* base)
 812:Generated_Source\PSoC6\pdl\drivers\peripheral\prot/cy_prot.c **** {
 1493              		.loc 1 812 0
 1494              		.cfi_startproc
 1495              		@ args = 0, pretend = 0, frame = 0
 1496              		@ frame_needed = 0, uses_anonymous_args = 0
 1497              		@ link register save eliminated.
ARM GAS  C:\Users\gjl\AppData\Local\Temp\cc7xIfgu.s 			page 42


 1498              	.LVL116:
 813:Generated_Source\PSoC6\pdl\drivers\peripheral\prot/cy_prot.c ****     cy_en_prot_status_t status;
 814:Generated_Source\PSoC6\pdl\drivers\peripheral\prot/cy_prot.c ****     
 815:Generated_Source\PSoC6\pdl\drivers\peripheral\prot/cy_prot.c ****     base->ATT1 |= _VAL2FLD(PERI_PPU_PR_ATT1_ENABLED, CY_PROT_STRUCT_ENABLE);
 1499              		.loc 1 815 0
 1500 0000 436A     		ldr	r3, [r0, #36]
 1501 0002 8022     		movs	r2, #128
 1502 0004 1206     		lsls	r2, r2, #24
 1503 0006 1343     		orrs	r3, r2
 1504 0008 4362     		str	r3, [r0, #36]
 816:Generated_Source\PSoC6\pdl\drivers\peripheral\prot/cy_prot.c ****     status = (_FLD2VAL(PERI_PPU_PR_ATT1_ENABLED, base->ATT1) != CY_PROT_STRUCT_ENABLE) ?
 1505              		.loc 1 816 0
 1506 000a 436A     		ldr	r3, [r0, #36]
 1507 000c 002B     		cmp	r3, #0
 1508 000e 01DB     		blt	.L131
 1509 0010 0148     		ldr	r0, .L132
 1510              	.LVL117:
 1511 0012 00E0     		b	.L130
 1512              	.LVL118:
 1513              	.L131:
 1514 0014 0020     		movs	r0, #0
 1515              	.LVL119:
 1516              	.L130:
 817:Generated_Source\PSoC6\pdl\drivers\peripheral\prot/cy_prot.c ****                 CY_PROT_FAILURE : CY_PROT_SUCCESS;
 818:Generated_Source\PSoC6\pdl\drivers\peripheral\prot/cy_prot.c ****     
 819:Generated_Source\PSoC6\pdl\drivers\peripheral\prot/cy_prot.c ****     return status;
 820:Generated_Source\PSoC6\pdl\drivers\peripheral\prot/cy_prot.c **** }
 1517              		.loc 1 820 0 discriminator 4
 1518              		@ sp needed
 1519 0016 7047     		bx	lr
 1520              	.L133:
 1521              		.align	2
 1522              	.L132:
 1523 0018 0300C200 		.word	12713987
 1524              		.cfi_endproc
 1525              	.LFE50:
 1526              		.size	Cy_Prot_EnablePpuProgMasterStruct, .-Cy_Prot_EnablePpuProgMasterStruct
 1527              		.section	.text.Cy_Prot_DisablePpuProgMasterStruct,"ax",%progbits
 1528              		.align	2
 1529              		.global	Cy_Prot_DisablePpuProgMasterStruct
 1530              		.code	16
 1531              		.thumb_func
 1532              		.type	Cy_Prot_DisablePpuProgMasterStruct, %function
 1533              	Cy_Prot_DisablePpuProgMasterStruct:
 1534              	.LFB51:
 821:Generated_Source\PSoC6\pdl\drivers\peripheral\prot/cy_prot.c **** 
 822:Generated_Source\PSoC6\pdl\drivers\peripheral\prot/cy_prot.c **** 
 823:Generated_Source\PSoC6\pdl\drivers\peripheral\prot/cy_prot.c **** /*******************************************************************************
 824:Generated_Source\PSoC6\pdl\drivers\peripheral\prot/cy_prot.c **** * Function Name: Cy_Prot_DisablePpuProgMasterStruct
 825:Generated_Source\PSoC6\pdl\drivers\peripheral\prot/cy_prot.c **** ****************************************************************************//**
 826:Generated_Source\PSoC6\pdl\drivers\peripheral\prot/cy_prot.c **** *
 827:Generated_Source\PSoC6\pdl\drivers\peripheral\prot/cy_prot.c **** * \brief Disables the Master PPU PROG structure.
 828:Generated_Source\PSoC6\pdl\drivers\peripheral\prot/cy_prot.c **** *
 829:Generated_Source\PSoC6\pdl\drivers\peripheral\prot/cy_prot.c **** * This is a PPU PROG master struct disable function. The PPU PROG protection 
 830:Generated_Source\PSoC6\pdl\drivers\peripheral\prot/cy_prot.c **** * settings will seize to take effect after successful completion of this 
 831:Generated_Source\PSoC6\pdl\drivers\peripheral\prot/cy_prot.c **** * function call.
 832:Generated_Source\PSoC6\pdl\drivers\peripheral\prot/cy_prot.c **** *
ARM GAS  C:\Users\gjl\AppData\Local\Temp\cc7xIfgu.s 			page 43


 833:Generated_Source\PSoC6\pdl\drivers\peripheral\prot/cy_prot.c **** * \param base
 834:Generated_Source\PSoC6\pdl\drivers\peripheral\prot/cy_prot.c **** * The base address for the protection unit structure being configured. 
 835:Generated_Source\PSoC6\pdl\drivers\peripheral\prot/cy_prot.c **** *
 836:Generated_Source\PSoC6\pdl\drivers\peripheral\prot/cy_prot.c **** * \return
 837:Generated_Source\PSoC6\pdl\drivers\peripheral\prot/cy_prot.c **** * Status of the function call.
 838:Generated_Source\PSoC6\pdl\drivers\peripheral\prot/cy_prot.c **** *
 839:Generated_Source\PSoC6\pdl\drivers\peripheral\prot/cy_prot.c **** *   Status               | Description
 840:Generated_Source\PSoC6\pdl\drivers\peripheral\prot/cy_prot.c **** *   ------------         | -----------
 841:Generated_Source\PSoC6\pdl\drivers\peripheral\prot/cy_prot.c **** *   CY_PROT_SUCCESS      | The Master PU struct was disabled
 842:Generated_Source\PSoC6\pdl\drivers\peripheral\prot/cy_prot.c **** *   CY_PROT_FAILURE      | The Master PU struct is enabled and possibly locked
 843:Generated_Source\PSoC6\pdl\drivers\peripheral\prot/cy_prot.c **** *
 844:Generated_Source\PSoC6\pdl\drivers\peripheral\prot/cy_prot.c **** * \funcusage
 845:Generated_Source\PSoC6\pdl\drivers\peripheral\prot/cy_prot.c **** * \snippet prot/prot_v1_10_sut_01.cydsn/main_cm4.c snippet_Cy_Prot_DisablePpuProgMasterStruct
 846:Generated_Source\PSoC6\pdl\drivers\peripheral\prot/cy_prot.c **** *
 847:Generated_Source\PSoC6\pdl\drivers\peripheral\prot/cy_prot.c **** *******************************************************************************/
 848:Generated_Source\PSoC6\pdl\drivers\peripheral\prot/cy_prot.c **** cy_en_prot_status_t Cy_Prot_DisablePpuProgMasterStruct(PERI_PPU_PR_Type* base)
 849:Generated_Source\PSoC6\pdl\drivers\peripheral\prot/cy_prot.c **** {
 1535              		.loc 1 849 0
 1536              		.cfi_startproc
 1537              		@ args = 0, pretend = 0, frame = 0
 1538              		@ frame_needed = 0, uses_anonymous_args = 0
 1539              		@ link register save eliminated.
 1540              	.LVL120:
 850:Generated_Source\PSoC6\pdl\drivers\peripheral\prot/cy_prot.c ****     cy_en_prot_status_t status;
 851:Generated_Source\PSoC6\pdl\drivers\peripheral\prot/cy_prot.c ****     
 852:Generated_Source\PSoC6\pdl\drivers\peripheral\prot/cy_prot.c ****     base->ATT1 &= ~_VAL2FLD(PERI_PPU_PR_ATT1_ENABLED, CY_PROT_STRUCT_ENABLE);
 1541              		.loc 1 852 0
 1542 0000 436A     		ldr	r3, [r0, #36]
 1543 0002 5B00     		lsls	r3, r3, #1
 1544 0004 5B08     		lsrs	r3, r3, #1
 1545 0006 4362     		str	r3, [r0, #36]
 853:Generated_Source\PSoC6\pdl\drivers\peripheral\prot/cy_prot.c ****     status = (_FLD2VAL(PERI_PPU_PR_ATT1_ENABLED, base->ATT1) == CY_PROT_STRUCT_ENABLE) ?
 1546              		.loc 1 853 0
 1547 0008 436A     		ldr	r3, [r0, #36]
 1548 000a 002B     		cmp	r3, #0
 1549 000c 01DA     		bge	.L136
 1550 000e 0248     		ldr	r0, .L137
 1551              	.LVL121:
 1552 0010 00E0     		b	.L135
 1553              	.LVL122:
 1554              	.L136:
 1555 0012 0020     		movs	r0, #0
 1556              	.LVL123:
 1557              	.L135:
 854:Generated_Source\PSoC6\pdl\drivers\peripheral\prot/cy_prot.c ****                 CY_PROT_FAILURE : CY_PROT_SUCCESS;
 855:Generated_Source\PSoC6\pdl\drivers\peripheral\prot/cy_prot.c ****     
 856:Generated_Source\PSoC6\pdl\drivers\peripheral\prot/cy_prot.c ****     return status;
 857:Generated_Source\PSoC6\pdl\drivers\peripheral\prot/cy_prot.c **** }
 1558              		.loc 1 857 0 discriminator 4
 1559              		@ sp needed
 1560 0014 7047     		bx	lr
 1561              	.L138:
 1562 0016 C046     		.align	2
 1563              	.L137:
 1564 0018 0300C200 		.word	12713987
 1565              		.cfi_endproc
 1566              	.LFE51:
ARM GAS  C:\Users\gjl\AppData\Local\Temp\cc7xIfgu.s 			page 44


 1567              		.size	Cy_Prot_DisablePpuProgMasterStruct, .-Cy_Prot_DisablePpuProgMasterStruct
 1568              		.section	.text.Cy_Prot_EnablePpuProgSlaveStruct,"ax",%progbits
 1569              		.align	2
 1570              		.global	Cy_Prot_EnablePpuProgSlaveStruct
 1571              		.code	16
 1572              		.thumb_func
 1573              		.type	Cy_Prot_EnablePpuProgSlaveStruct, %function
 1574              	Cy_Prot_EnablePpuProgSlaveStruct:
 1575              	.LFB52:
 858:Generated_Source\PSoC6\pdl\drivers\peripheral\prot/cy_prot.c **** 
 859:Generated_Source\PSoC6\pdl\drivers\peripheral\prot/cy_prot.c **** 
 860:Generated_Source\PSoC6\pdl\drivers\peripheral\prot/cy_prot.c **** /*******************************************************************************
 861:Generated_Source\PSoC6\pdl\drivers\peripheral\prot/cy_prot.c **** * Function Name: Cy_Prot_EnablePpuProgSlaveStruct
 862:Generated_Source\PSoC6\pdl\drivers\peripheral\prot/cy_prot.c **** ****************************************************************************//**
 863:Generated_Source\PSoC6\pdl\drivers\peripheral\prot/cy_prot.c **** *
 864:Generated_Source\PSoC6\pdl\drivers\peripheral\prot/cy_prot.c **** * \brief Enables the Slave PPU PROG structure.
 865:Generated_Source\PSoC6\pdl\drivers\peripheral\prot/cy_prot.c **** *
 866:Generated_Source\PSoC6\pdl\drivers\peripheral\prot/cy_prot.c **** * This is a PPU PROG slave struct enable function. The PPU PROG protection 
 867:Generated_Source\PSoC6\pdl\drivers\peripheral\prot/cy_prot.c **** * settings will take effect after successful completion of this function call.
 868:Generated_Source\PSoC6\pdl\drivers\peripheral\prot/cy_prot.c **** *
 869:Generated_Source\PSoC6\pdl\drivers\peripheral\prot/cy_prot.c **** * \param base
 870:Generated_Source\PSoC6\pdl\drivers\peripheral\prot/cy_prot.c **** * The base address for the protection unit structure being configured. 
 871:Generated_Source\PSoC6\pdl\drivers\peripheral\prot/cy_prot.c **** *
 872:Generated_Source\PSoC6\pdl\drivers\peripheral\prot/cy_prot.c **** * \return
 873:Generated_Source\PSoC6\pdl\drivers\peripheral\prot/cy_prot.c **** * Status of the function call.
 874:Generated_Source\PSoC6\pdl\drivers\peripheral\prot/cy_prot.c **** *
 875:Generated_Source\PSoC6\pdl\drivers\peripheral\prot/cy_prot.c **** *   Status               | Description
 876:Generated_Source\PSoC6\pdl\drivers\peripheral\prot/cy_prot.c **** *   ------------         | -----------
 877:Generated_Source\PSoC6\pdl\drivers\peripheral\prot/cy_prot.c **** *   CY_PROT_SUCCESS      | The Slave PU struct was enabled
 878:Generated_Source\PSoC6\pdl\drivers\peripheral\prot/cy_prot.c **** *   CY_PROT_FAILURE      | The Slave PU struct is disabled and possibly locked
 879:Generated_Source\PSoC6\pdl\drivers\peripheral\prot/cy_prot.c **** *
 880:Generated_Source\PSoC6\pdl\drivers\peripheral\prot/cy_prot.c **** * \funcusage
 881:Generated_Source\PSoC6\pdl\drivers\peripheral\prot/cy_prot.c **** * \snippet prot/prot_v1_10_sut_01.cydsn/main_cm4.c snippet_Cy_Prot_EnablePpuProgSlaveStruct
 882:Generated_Source\PSoC6\pdl\drivers\peripheral\prot/cy_prot.c **** *
 883:Generated_Source\PSoC6\pdl\drivers\peripheral\prot/cy_prot.c **** *******************************************************************************/
 884:Generated_Source\PSoC6\pdl\drivers\peripheral\prot/cy_prot.c **** cy_en_prot_status_t Cy_Prot_EnablePpuProgSlaveStruct(PERI_PPU_PR_Type* base)
 885:Generated_Source\PSoC6\pdl\drivers\peripheral\prot/cy_prot.c **** {   
 1576              		.loc 1 885 0
 1577              		.cfi_startproc
 1578              		@ args = 0, pretend = 0, frame = 0
 1579              		@ frame_needed = 0, uses_anonymous_args = 0
 1580              		@ link register save eliminated.
 1581              	.LVL124:
 886:Generated_Source\PSoC6\pdl\drivers\peripheral\prot/cy_prot.c ****     cy_en_prot_status_t status;
 887:Generated_Source\PSoC6\pdl\drivers\peripheral\prot/cy_prot.c ****     
 888:Generated_Source\PSoC6\pdl\drivers\peripheral\prot/cy_prot.c ****     base->ATT0 |= _VAL2FLD(PERI_PPU_PR_ATT0_ENABLED, CY_PROT_STRUCT_ENABLE);
 1582              		.loc 1 888 0
 1583 0000 4368     		ldr	r3, [r0, #4]
 1584 0002 8022     		movs	r2, #128
 1585 0004 1206     		lsls	r2, r2, #24
 1586 0006 1343     		orrs	r3, r2
 1587 0008 4360     		str	r3, [r0, #4]
 889:Generated_Source\PSoC6\pdl\drivers\peripheral\prot/cy_prot.c ****     status = (_FLD2VAL(PERI_PPU_PR_ATT0_ENABLED, base->ATT0) != CY_PROT_STRUCT_ENABLE) ?
 1588              		.loc 1 889 0
 1589 000a 4368     		ldr	r3, [r0, #4]
 1590 000c 002B     		cmp	r3, #0
 1591 000e 01DB     		blt	.L141
ARM GAS  C:\Users\gjl\AppData\Local\Temp\cc7xIfgu.s 			page 45


 1592 0010 0148     		ldr	r0, .L142
 1593              	.LVL125:
 1594 0012 00E0     		b	.L140
 1595              	.LVL126:
 1596              	.L141:
 1597 0014 0020     		movs	r0, #0
 1598              	.LVL127:
 1599              	.L140:
 890:Generated_Source\PSoC6\pdl\drivers\peripheral\prot/cy_prot.c ****                 CY_PROT_FAILURE : CY_PROT_SUCCESS;
 891:Generated_Source\PSoC6\pdl\drivers\peripheral\prot/cy_prot.c ****     
 892:Generated_Source\PSoC6\pdl\drivers\peripheral\prot/cy_prot.c ****     return status;
 893:Generated_Source\PSoC6\pdl\drivers\peripheral\prot/cy_prot.c **** }
 1600              		.loc 1 893 0 discriminator 4
 1601              		@ sp needed
 1602 0016 7047     		bx	lr
 1603              	.L143:
 1604              		.align	2
 1605              	.L142:
 1606 0018 0300C200 		.word	12713987
 1607              		.cfi_endproc
 1608              	.LFE52:
 1609              		.size	Cy_Prot_EnablePpuProgSlaveStruct, .-Cy_Prot_EnablePpuProgSlaveStruct
 1610              		.section	.text.Cy_Prot_DisablePpuProgSlaveStruct,"ax",%progbits
 1611              		.align	2
 1612              		.global	Cy_Prot_DisablePpuProgSlaveStruct
 1613              		.code	16
 1614              		.thumb_func
 1615              		.type	Cy_Prot_DisablePpuProgSlaveStruct, %function
 1616              	Cy_Prot_DisablePpuProgSlaveStruct:
 1617              	.LFB53:
 894:Generated_Source\PSoC6\pdl\drivers\peripheral\prot/cy_prot.c **** 
 895:Generated_Source\PSoC6\pdl\drivers\peripheral\prot/cy_prot.c **** 
 896:Generated_Source\PSoC6\pdl\drivers\peripheral\prot/cy_prot.c **** /*******************************************************************************
 897:Generated_Source\PSoC6\pdl\drivers\peripheral\prot/cy_prot.c **** * Function Name: Cy_Prot_DisablePpuProgSlaveStruct
 898:Generated_Source\PSoC6\pdl\drivers\peripheral\prot/cy_prot.c **** ****************************************************************************//**
 899:Generated_Source\PSoC6\pdl\drivers\peripheral\prot/cy_prot.c **** *
 900:Generated_Source\PSoC6\pdl\drivers\peripheral\prot/cy_prot.c **** * \brief Disables the Slave PPU PROG structure.
 901:Generated_Source\PSoC6\pdl\drivers\peripheral\prot/cy_prot.c **** *
 902:Generated_Source\PSoC6\pdl\drivers\peripheral\prot/cy_prot.c **** * This is a PPU PROG slave struct disable function. The PPU PROG protection 
 903:Generated_Source\PSoC6\pdl\drivers\peripheral\prot/cy_prot.c **** * settings will seize to take effect after successful completion of this 
 904:Generated_Source\PSoC6\pdl\drivers\peripheral\prot/cy_prot.c **** * function call.
 905:Generated_Source\PSoC6\pdl\drivers\peripheral\prot/cy_prot.c **** *
 906:Generated_Source\PSoC6\pdl\drivers\peripheral\prot/cy_prot.c **** * \param base
 907:Generated_Source\PSoC6\pdl\drivers\peripheral\prot/cy_prot.c **** * The base address for the protection unit structure being configured. 
 908:Generated_Source\PSoC6\pdl\drivers\peripheral\prot/cy_prot.c **** *
 909:Generated_Source\PSoC6\pdl\drivers\peripheral\prot/cy_prot.c **** * \return
 910:Generated_Source\PSoC6\pdl\drivers\peripheral\prot/cy_prot.c **** * Status of the function call.
 911:Generated_Source\PSoC6\pdl\drivers\peripheral\prot/cy_prot.c **** *
 912:Generated_Source\PSoC6\pdl\drivers\peripheral\prot/cy_prot.c **** *   Status               | Description
 913:Generated_Source\PSoC6\pdl\drivers\peripheral\prot/cy_prot.c **** *   ------------         | -----------
 914:Generated_Source\PSoC6\pdl\drivers\peripheral\prot/cy_prot.c **** *   CY_PROT_SUCCESS      | The Slave PU struct was disabled
 915:Generated_Source\PSoC6\pdl\drivers\peripheral\prot/cy_prot.c **** *   CY_PROT_FAILURE      | The Slave PU struct is enabled and possibly locked
 916:Generated_Source\PSoC6\pdl\drivers\peripheral\prot/cy_prot.c **** *
 917:Generated_Source\PSoC6\pdl\drivers\peripheral\prot/cy_prot.c **** * \funcusage
 918:Generated_Source\PSoC6\pdl\drivers\peripheral\prot/cy_prot.c **** * \snippet prot/prot_v1_10_sut_01.cydsn/main_cm4.c snippet_Cy_Prot_DisablePpuProgSlaveStruct
 919:Generated_Source\PSoC6\pdl\drivers\peripheral\prot/cy_prot.c **** *
 920:Generated_Source\PSoC6\pdl\drivers\peripheral\prot/cy_prot.c **** *******************************************************************************/
ARM GAS  C:\Users\gjl\AppData\Local\Temp\cc7xIfgu.s 			page 46


 921:Generated_Source\PSoC6\pdl\drivers\peripheral\prot/cy_prot.c **** cy_en_prot_status_t Cy_Prot_DisablePpuProgSlaveStruct(PERI_PPU_PR_Type* base)
 922:Generated_Source\PSoC6\pdl\drivers\peripheral\prot/cy_prot.c **** {
 1618              		.loc 1 922 0
 1619              		.cfi_startproc
 1620              		@ args = 0, pretend = 0, frame = 0
 1621              		@ frame_needed = 0, uses_anonymous_args = 0
 1622              		@ link register save eliminated.
 1623              	.LVL128:
 923:Generated_Source\PSoC6\pdl\drivers\peripheral\prot/cy_prot.c ****     cy_en_prot_status_t status;
 924:Generated_Source\PSoC6\pdl\drivers\peripheral\prot/cy_prot.c ****     
 925:Generated_Source\PSoC6\pdl\drivers\peripheral\prot/cy_prot.c ****     base->ATT0 &= ~_VAL2FLD(PERI_PPU_PR_ATT0_ENABLED, CY_PROT_STRUCT_ENABLE);
 1624              		.loc 1 925 0
 1625 0000 4368     		ldr	r3, [r0, #4]
 1626 0002 5B00     		lsls	r3, r3, #1
 1627 0004 5B08     		lsrs	r3, r3, #1
 1628 0006 4360     		str	r3, [r0, #4]
 926:Generated_Source\PSoC6\pdl\drivers\peripheral\prot/cy_prot.c ****     status = (_FLD2VAL(PERI_PPU_PR_ATT0_ENABLED, base->ATT0) == CY_PROT_STRUCT_ENABLE) ?
 1629              		.loc 1 926 0
 1630 0008 4368     		ldr	r3, [r0, #4]
 1631 000a 002B     		cmp	r3, #0
 1632 000c 01DA     		bge	.L146
 1633 000e 0248     		ldr	r0, .L147
 1634              	.LVL129:
 1635 0010 00E0     		b	.L145
 1636              	.LVL130:
 1637              	.L146:
 1638 0012 0020     		movs	r0, #0
 1639              	.LVL131:
 1640              	.L145:
 927:Generated_Source\PSoC6\pdl\drivers\peripheral\prot/cy_prot.c ****                 CY_PROT_FAILURE : CY_PROT_SUCCESS;
 928:Generated_Source\PSoC6\pdl\drivers\peripheral\prot/cy_prot.c ****     
 929:Generated_Source\PSoC6\pdl\drivers\peripheral\prot/cy_prot.c ****     return status;
 930:Generated_Source\PSoC6\pdl\drivers\peripheral\prot/cy_prot.c **** }
 1641              		.loc 1 930 0 discriminator 4
 1642              		@ sp needed
 1643 0014 7047     		bx	lr
 1644              	.L148:
 1645 0016 C046     		.align	2
 1646              	.L147:
 1647 0018 0300C200 		.word	12713987
 1648              		.cfi_endproc
 1649              	.LFE53:
 1650              		.size	Cy_Prot_DisablePpuProgSlaveStruct, .-Cy_Prot_DisablePpuProgSlaveStruct
 1651              		.section	.text.Cy_Prot_ConfigPpuFixedGrMasterStruct,"ax",%progbits
 1652              		.align	2
 1653              		.global	Cy_Prot_ConfigPpuFixedGrMasterStruct
 1654              		.code	16
 1655              		.thumb_func
 1656              		.type	Cy_Prot_ConfigPpuFixedGrMasterStruct, %function
 1657              	Cy_Prot_ConfigPpuFixedGrMasterStruct:
 1658              	.LFB54:
 931:Generated_Source\PSoC6\pdl\drivers\peripheral\prot/cy_prot.c **** 
 932:Generated_Source\PSoC6\pdl\drivers\peripheral\prot/cy_prot.c **** 
 933:Generated_Source\PSoC6\pdl\drivers\peripheral\prot/cy_prot.c **** /*******************************************************************************
 934:Generated_Source\PSoC6\pdl\drivers\peripheral\prot/cy_prot.c **** * Function Name: Cy_Prot_ConfigPpuFixedGrMasterStruct
 935:Generated_Source\PSoC6\pdl\drivers\peripheral\prot/cy_prot.c **** ****************************************************************************//**
 936:Generated_Source\PSoC6\pdl\drivers\peripheral\prot/cy_prot.c **** *
ARM GAS  C:\Users\gjl\AppData\Local\Temp\cc7xIfgu.s 			page 47


 937:Generated_Source\PSoC6\pdl\drivers\peripheral\prot/cy_prot.c **** * \brief Configures a Fixed Peripheral Group Protection Unit (PPU GR) master 
 938:Generated_Source\PSoC6\pdl\drivers\peripheral\prot/cy_prot.c **** * protection struct with its protection attributes. 
 939:Generated_Source\PSoC6\pdl\drivers\peripheral\prot/cy_prot.c **** *
 940:Generated_Source\PSoC6\pdl\drivers\peripheral\prot/cy_prot.c **** * This function configures the master struct governing the corresponding slave
 941:Generated_Source\PSoC6\pdl\drivers\peripheral\prot/cy_prot.c **** * struct pair. It is a mechanism to protect the slave PPU GR struct. Since
 942:Generated_Source\PSoC6\pdl\drivers\peripheral\prot/cy_prot.c **** * the memory location of the slave struct is known, the address, regionSize and
 943:Generated_Source\PSoC6\pdl\drivers\peripheral\prot/cy_prot.c **** * subregions of the configuration struct are not applicable.
 944:Generated_Source\PSoC6\pdl\drivers\peripheral\prot/cy_prot.c **** *
 945:Generated_Source\PSoC6\pdl\drivers\peripheral\prot/cy_prot.c **** * Note that only the user/privileged write permissions are configurable. The 
 946:Generated_Source\PSoC6\pdl\drivers\peripheral\prot/cy_prot.c **** * read and execute permissions are read-only and cannot be configured.
 947:Generated_Source\PSoC6\pdl\drivers\peripheral\prot/cy_prot.c **** *
 948:Generated_Source\PSoC6\pdl\drivers\peripheral\prot/cy_prot.c **** * \param base
 949:Generated_Source\PSoC6\pdl\drivers\peripheral\prot/cy_prot.c **** * The register base address of the protection struct being configured.
 950:Generated_Source\PSoC6\pdl\drivers\peripheral\prot/cy_prot.c **** * 
 951:Generated_Source\PSoC6\pdl\drivers\peripheral\prot/cy_prot.c **** * \param config
 952:Generated_Source\PSoC6\pdl\drivers\peripheral\prot/cy_prot.c **** * Initialization structure with all the protection attributes.
 953:Generated_Source\PSoC6\pdl\drivers\peripheral\prot/cy_prot.c **** * 
 954:Generated_Source\PSoC6\pdl\drivers\peripheral\prot/cy_prot.c **** * \return
 955:Generated_Source\PSoC6\pdl\drivers\peripheral\prot/cy_prot.c **** * Status of the function call.
 956:Generated_Source\PSoC6\pdl\drivers\peripheral\prot/cy_prot.c **** *
 957:Generated_Source\PSoC6\pdl\drivers\peripheral\prot/cy_prot.c **** *   Status               | Description
 958:Generated_Source\PSoC6\pdl\drivers\peripheral\prot/cy_prot.c **** *   ------------         | -----------
 959:Generated_Source\PSoC6\pdl\drivers\peripheral\prot/cy_prot.c **** *   CY_PROT_SUCCESS      | PPU GR master struct was successfully configured
 960:Generated_Source\PSoC6\pdl\drivers\peripheral\prot/cy_prot.c **** *   CY_PROT_FAILURE      | The resource is locked
 961:Generated_Source\PSoC6\pdl\drivers\peripheral\prot/cy_prot.c **** *   CY_PROT_BAD_PARAM    | An incorrect/invalid parameter was passed
 962:Generated_Source\PSoC6\pdl\drivers\peripheral\prot/cy_prot.c **** *
 963:Generated_Source\PSoC6\pdl\drivers\peripheral\prot/cy_prot.c **** * \funcusage
 964:Generated_Source\PSoC6\pdl\drivers\peripheral\prot/cy_prot.c **** * \snippet prot/prot_v1_10_sut_01.cydsn/main_cm4.c snippet_Cy_Prot_ConfigPpuFixedGrMasterStruct
 965:Generated_Source\PSoC6\pdl\drivers\peripheral\prot/cy_prot.c **** *
 966:Generated_Source\PSoC6\pdl\drivers\peripheral\prot/cy_prot.c **** *******************************************************************************/
 967:Generated_Source\PSoC6\pdl\drivers\peripheral\prot/cy_prot.c **** cy_en_prot_status_t Cy_Prot_ConfigPpuFixedGrMasterStruct(PERI_PPU_GR_Type* base, const cy_stc_ppu_g
 968:Generated_Source\PSoC6\pdl\drivers\peripheral\prot/cy_prot.c **** {
 1659              		.loc 1 968 0
 1660              		.cfi_startproc
 1661              		@ args = 0, pretend = 0, frame = 0
 1662              		@ frame_needed = 0, uses_anonymous_args = 0
 1663              	.LVL132:
 1664 0000 70B5     		push	{r4, r5, r6, lr}
 1665              		.cfi_def_cfa_offset 16
 1666              		.cfi_offset 4, -16
 1667              		.cfi_offset 5, -12
 1668              		.cfi_offset 6, -8
 1669              		.cfi_offset 14, -4
 1670 0002 0500     		movs	r5, r0
 1671 0004 0C00     		movs	r4, r1
 969:Generated_Source\PSoC6\pdl\drivers\peripheral\prot/cy_prot.c ****     cy_en_prot_status_t status;
 970:Generated_Source\PSoC6\pdl\drivers\peripheral\prot/cy_prot.c ****     uint32_t attReg;
 971:Generated_Source\PSoC6\pdl\drivers\peripheral\prot/cy_prot.c ****     
 972:Generated_Source\PSoC6\pdl\drivers\peripheral\prot/cy_prot.c ****     CY_ASSERT_L1(NULL != base);
 1672              		.loc 1 972 0
 1673 0006 0028     		cmp	r0, #0
 1674 0008 04D1     		bne	.L150
 1675              		.loc 1 972 0 is_stmt 0 discriminator 1
 1676 000a F321     		movs	r1, #243
 1677              	.LVL133:
 1678 000c 8900     		lsls	r1, r1, #2
 1679 000e 2448     		ldr	r0, .L157
ARM GAS  C:\Users\gjl\AppData\Local\Temp\cc7xIfgu.s 			page 48


 1680              	.LVL134:
 1681 0010 FFF7FEFF 		bl	Cy_SysLib_AssertFailed
 1682              	.LVL135:
 1683              	.L150:
 973:Generated_Source\PSoC6\pdl\drivers\peripheral\prot/cy_prot.c ****     CY_ASSERT_L3(CY_PROT_IS_FIXED_MS_PERM_VALID(config->userPermission));
 1684              		.loc 1 973 0 is_stmt 1
 1685 0014 2378     		ldrb	r3, [r4]
 1686 0016 012B     		cmp	r3, #1
 1687 0018 05D0     		beq	.L151
 1688              		.loc 1 973 0 is_stmt 0 discriminator 1
 1689 001a 032B     		cmp	r3, #3
 1690 001c 03D0     		beq	.L151
 1691              		.loc 1 973 0 discriminator 2
 1692 001e 2149     		ldr	r1, .L157+4
 1693 0020 1F48     		ldr	r0, .L157
 1694 0022 FFF7FEFF 		bl	Cy_SysLib_AssertFailed
 1695              	.LVL136:
 1696              	.L151:
 974:Generated_Source\PSoC6\pdl\drivers\peripheral\prot/cy_prot.c ****     CY_ASSERT_L3(CY_PROT_IS_FIXED_MS_PERM_VALID(config->privPermission));
 1697              		.loc 1 974 0 is_stmt 1
 1698 0026 6378     		ldrb	r3, [r4, #1]
 1699 0028 012B     		cmp	r3, #1
 1700 002a 05D0     		beq	.L152
 1701              		.loc 1 974 0 is_stmt 0 discriminator 1
 1702 002c 032B     		cmp	r3, #3
 1703 002e 03D0     		beq	.L152
 1704              		.loc 1 974 0 discriminator 2
 1705 0030 1D49     		ldr	r1, .L157+8
 1706 0032 1B48     		ldr	r0, .L157
 1707 0034 FFF7FEFF 		bl	Cy_SysLib_AssertFailed
 1708              	.LVL137:
 1709              	.L152:
 975:Generated_Source\PSoC6\pdl\drivers\peripheral\prot/cy_prot.c ****     
 976:Generated_Source\PSoC6\pdl\drivers\peripheral\prot/cy_prot.c ****     if(((uint32_t)config->pcMask & CY_PROT_PPU_FIXED_PC_LIMIT_MASK) != 0UL) 
 1710              		.loc 1 976 0 is_stmt 1
 1711 0038 A188     		ldrh	r1, [r4, #4]
 1712 003a 7F23     		movs	r3, #127
 1713 003c 0A00     		movs	r2, r1
 1714 003e 9A43     		bics	r2, r3
 1715 0040 28D1     		bne	.L154
 977:Generated_Source\PSoC6\pdl\drivers\peripheral\prot/cy_prot.c ****     {
 978:Generated_Source\PSoC6\pdl\drivers\peripheral\prot/cy_prot.c ****         /* PC mask out of range - not supported in device */
 979:Generated_Source\PSoC6\pdl\drivers\peripheral\prot/cy_prot.c ****         status = CY_PROT_BAD_PARAM;
 980:Generated_Source\PSoC6\pdl\drivers\peripheral\prot/cy_prot.c ****     }
 981:Generated_Source\PSoC6\pdl\drivers\peripheral\prot/cy_prot.c ****     else
 982:Generated_Source\PSoC6\pdl\drivers\peripheral\prot/cy_prot.c ****     {
 983:Generated_Source\PSoC6\pdl\drivers\peripheral\prot/cy_prot.c ****         /* ADDR1 is read only. Only configure ATT1 */
 984:Generated_Source\PSoC6\pdl\drivers\peripheral\prot/cy_prot.c ****         attReg = (((uint32_t)config->userPermission & CY_PROT_ATT_PERMISSION_MASK))
 1716              		.loc 1 984 0
 1717 0042 2378     		ldrb	r3, [r4]
 1718 0044 0720     		movs	r0, #7
 1719 0046 1840     		ands	r0, r3
 985:Generated_Source\PSoC6\pdl\drivers\peripheral\prot/cy_prot.c ****                     | (uint32_t)(((uint32_t)config->privPermission & CY_PROT_ATT_PERMISSION_MASK) <
 1720              		.loc 1 985 0
 1721 0048 6278     		ldrb	r2, [r4, #1]
 1722 004a D200     		lsls	r2, r2, #3
 1723 004c 3823     		movs	r3, #56
ARM GAS  C:\Users\gjl\AppData\Local\Temp\cc7xIfgu.s 			page 49


 1724 004e 1340     		ands	r3, r2
 1725 0050 1843     		orrs	r0, r3
 986:Generated_Source\PSoC6\pdl\drivers\peripheral\prot/cy_prot.c ****                     | _VAL2FLD(PERI_PPU_GR_ATT1_NS, !(config->secure))
 1726              		.loc 1 986 0
 1727 0052 A378     		ldrb	r3, [r4, #2]
 1728 0054 0122     		movs	r2, #1
 1729 0056 5A40     		eors	r2, r3
 1730 0058 D2B2     		uxtb	r2, r2
 1731 005a 9201     		lsls	r2, r2, #6
 1732 005c 4023     		movs	r3, #64
 1733 005e 1A40     		ands	r2, r3
 1734 0060 0300     		movs	r3, r0
 1735 0062 1343     		orrs	r3, r2
 987:Generated_Source\PSoC6\pdl\drivers\peripheral\prot/cy_prot.c ****                     | _VAL2FLD(PERI_PPU_GR_ATT1_PC_MASK_15_TO_1, config->pcMask)
 1736              		.loc 1 987 0
 1737 0064 4902     		lsls	r1, r1, #9
 1738 0066 114A     		ldr	r2, .L157+12
 1739 0068 1140     		ands	r1, r2
 1740 006a 1943     		orrs	r1, r3
 988:Generated_Source\PSoC6\pdl\drivers\peripheral\prot/cy_prot.c ****                     /* No region size - read only for master structs */
 989:Generated_Source\PSoC6\pdl\drivers\peripheral\prot/cy_prot.c ****                     | _VAL2FLD(PERI_PPU_GR_ATT1_PC_MATCH, config->pcMatch);
 1741              		.loc 1 989 0
 1742 006c E378     		ldrb	r3, [r4, #3]
 1743 006e 9B07     		lsls	r3, r3, #30
 1744 0070 8020     		movs	r0, #128
 1745 0072 C005     		lsls	r0, r0, #23
 1746 0074 0340     		ands	r3, r0
 1747 0076 1A00     		movs	r2, r3
 984:Generated_Source\PSoC6\pdl\drivers\peripheral\prot/cy_prot.c ****                     | (uint32_t)(((uint32_t)config->privPermission & CY_PROT_ATT_PERMISSION_MASK) <
 1748              		.loc 1 984 0
 1749 0078 0B00     		movs	r3, r1
 1750 007a 1343     		orrs	r3, r2
 1751              	.LVL138:
 990:Generated_Source\PSoC6\pdl\drivers\peripheral\prot/cy_prot.c ****         if ((attReg & CY_PROT_PPU_GR_ATT1_MASK) != attReg)
 1752              		.loc 1 990 0
 1753 007c 0C4A     		ldr	r2, .L157+16
 1754 007e 1A40     		ands	r2, r3
 1755 0080 9342     		cmp	r3, r2
 1756 0082 09D1     		bne	.L155
 991:Generated_Source\PSoC6\pdl\drivers\peripheral\prot/cy_prot.c ****         {
 992:Generated_Source\PSoC6\pdl\drivers\peripheral\prot/cy_prot.c ****             /* Invalid parameter was passed */
 993:Generated_Source\PSoC6\pdl\drivers\peripheral\prot/cy_prot.c ****             status = CY_PROT_BAD_PARAM;
 994:Generated_Source\PSoC6\pdl\drivers\peripheral\prot/cy_prot.c ****         }
 995:Generated_Source\PSoC6\pdl\drivers\peripheral\prot/cy_prot.c ****         else
 996:Generated_Source\PSoC6\pdl\drivers\peripheral\prot/cy_prot.c ****         {
 997:Generated_Source\PSoC6\pdl\drivers\peripheral\prot/cy_prot.c ****             base->ATT1 = attReg;
 1757              		.loc 1 997 0
 1758 0084 6B62     		str	r3, [r5, #36]
 998:Generated_Source\PSoC6\pdl\drivers\peripheral\prot/cy_prot.c ****             status = ((base->ATT1 & CY_PROT_PPU_GR_ATT1_MASK) != attReg) ? CY_PROT_FAILURE : CY_PRO
 1759              		.loc 1 998 0
 1760 0086 696A     		ldr	r1, [r5, #36]
 1761 0088 094A     		ldr	r2, .L157+16
 1762 008a 0A40     		ands	r2, r1
 1763 008c 9342     		cmp	r3, r2
 1764 008e 05D0     		beq	.L156
 1765 0090 0848     		ldr	r0, .L157+20
 1766 0092 04E0     		b	.L153
ARM GAS  C:\Users\gjl\AppData\Local\Temp\cc7xIfgu.s 			page 50


 1767              	.LVL139:
 1768              	.L154:
 979:Generated_Source\PSoC6\pdl\drivers\peripheral\prot/cy_prot.c ****     }
 1769              		.loc 1 979 0
 1770 0094 0848     		ldr	r0, .L157+24
 1771 0096 02E0     		b	.L153
 1772              	.LVL140:
 1773              	.L155:
 993:Generated_Source\PSoC6\pdl\drivers\peripheral\prot/cy_prot.c ****         }
 1774              		.loc 1 993 0
 1775 0098 0748     		ldr	r0, .L157+24
 1776 009a 00E0     		b	.L153
 1777              	.L156:
 1778              		.loc 1 998 0
 1779 009c 0020     		movs	r0, #0
 1780              	.LVL141:
 1781              	.L153:
 999:Generated_Source\PSoC6\pdl\drivers\peripheral\prot/cy_prot.c ****         }
1000:Generated_Source\PSoC6\pdl\drivers\peripheral\prot/cy_prot.c ****     }
1001:Generated_Source\PSoC6\pdl\drivers\peripheral\prot/cy_prot.c ****     
1002:Generated_Source\PSoC6\pdl\drivers\peripheral\prot/cy_prot.c ****     return status;
1003:Generated_Source\PSoC6\pdl\drivers\peripheral\prot/cy_prot.c **** }
 1782              		.loc 1 1003 0
 1783              		@ sp needed
 1784              	.LVL142:
 1785              	.LVL143:
 1786 009e 70BD     		pop	{r4, r5, r6, pc}
 1787              	.L158:
 1788              		.align	2
 1789              	.L157:
 1790 00a0 00000000 		.word	.LC0
 1791 00a4 CD030000 		.word	973
 1792 00a8 CE030000 		.word	974
 1793 00ac 00FEFF00 		.word	16776704
 1794 00b0 DBFEFFE0 		.word	-520093989
 1795 00b4 0300C200 		.word	12713987
 1796 00b8 0100C200 		.word	12713985
 1797              		.cfi_endproc
 1798              	.LFE54:
 1799              		.size	Cy_Prot_ConfigPpuFixedGrMasterStruct, .-Cy_Prot_ConfigPpuFixedGrMasterStruct
 1800              		.section	.text.Cy_Prot_ConfigPpuFixedGrSlaveStruct,"ax",%progbits
 1801              		.align	2
 1802              		.global	Cy_Prot_ConfigPpuFixedGrSlaveStruct
 1803              		.code	16
 1804              		.thumb_func
 1805              		.type	Cy_Prot_ConfigPpuFixedGrSlaveStruct, %function
 1806              	Cy_Prot_ConfigPpuFixedGrSlaveStruct:
 1807              	.LFB55:
1004:Generated_Source\PSoC6\pdl\drivers\peripheral\prot/cy_prot.c **** 
1005:Generated_Source\PSoC6\pdl\drivers\peripheral\prot/cy_prot.c **** 
1006:Generated_Source\PSoC6\pdl\drivers\peripheral\prot/cy_prot.c **** /*******************************************************************************
1007:Generated_Source\PSoC6\pdl\drivers\peripheral\prot/cy_prot.c **** * Function Name: Cy_Prot_ConfigPpuFixedGrSlaveStruct
1008:Generated_Source\PSoC6\pdl\drivers\peripheral\prot/cy_prot.c **** ****************************************************************************//**
1009:Generated_Source\PSoC6\pdl\drivers\peripheral\prot/cy_prot.c **** *
1010:Generated_Source\PSoC6\pdl\drivers\peripheral\prot/cy_prot.c **** * \brief Configures a Fixed Peripheral Group Protection Unit (PPU GR) slave
1011:Generated_Source\PSoC6\pdl\drivers\peripheral\prot/cy_prot.c **** * protection struct with its protection attributes. 
1012:Generated_Source\PSoC6\pdl\drivers\peripheral\prot/cy_prot.c **** * 
ARM GAS  C:\Users\gjl\AppData\Local\Temp\cc7xIfgu.s 			page 51


1013:Generated_Source\PSoC6\pdl\drivers\peripheral\prot/cy_prot.c **** * This function configures the slave struct of a PPU GR pair, which can 
1014:Generated_Source\PSoC6\pdl\drivers\peripheral\prot/cy_prot.c **** * protect an entire peripheral MMIO group from invalid bus master accesses.
1015:Generated_Source\PSoC6\pdl\drivers\peripheral\prot/cy_prot.c **** * Refer to the device Technical Reference manual for details on peripheral
1016:Generated_Source\PSoC6\pdl\drivers\peripheral\prot/cy_prot.c **** * MMIO grouping and which peripherals belong to which groups.
1017:Generated_Source\PSoC6\pdl\drivers\peripheral\prot/cy_prot.c **** *
1018:Generated_Source\PSoC6\pdl\drivers\peripheral\prot/cy_prot.c **** * Each fixed PPU GR is devoted to a defined MMIO group. Hence the address, 
1019:Generated_Source\PSoC6\pdl\drivers\peripheral\prot/cy_prot.c **** * regionSize and subregions of the configuration struct are not applicable.
1020:Generated_Source\PSoC6\pdl\drivers\peripheral\prot/cy_prot.c **** *
1021:Generated_Source\PSoC6\pdl\drivers\peripheral\prot/cy_prot.c **** * Note that the user/privileged execute accesses are read-only and are always 
1022:Generated_Source\PSoC6\pdl\drivers\peripheral\prot/cy_prot.c **** * enabled. 
1023:Generated_Source\PSoC6\pdl\drivers\peripheral\prot/cy_prot.c **** *
1024:Generated_Source\PSoC6\pdl\drivers\peripheral\prot/cy_prot.c **** * \param base
1025:Generated_Source\PSoC6\pdl\drivers\peripheral\prot/cy_prot.c **** * The register base address of the protection structure being configured.
1026:Generated_Source\PSoC6\pdl\drivers\peripheral\prot/cy_prot.c **** * 
1027:Generated_Source\PSoC6\pdl\drivers\peripheral\prot/cy_prot.c **** * \param config
1028:Generated_Source\PSoC6\pdl\drivers\peripheral\prot/cy_prot.c **** * Initialization structure with all the protection attributes.
1029:Generated_Source\PSoC6\pdl\drivers\peripheral\prot/cy_prot.c **** * 
1030:Generated_Source\PSoC6\pdl\drivers\peripheral\prot/cy_prot.c **** * \return
1031:Generated_Source\PSoC6\pdl\drivers\peripheral\prot/cy_prot.c **** * Status of the function call.
1032:Generated_Source\PSoC6\pdl\drivers\peripheral\prot/cy_prot.c **** *
1033:Generated_Source\PSoC6\pdl\drivers\peripheral\prot/cy_prot.c **** *   Status               | Description
1034:Generated_Source\PSoC6\pdl\drivers\peripheral\prot/cy_prot.c **** *   ------------         | -----------
1035:Generated_Source\PSoC6\pdl\drivers\peripheral\prot/cy_prot.c **** *   CY_PROT_SUCCESS      | PPU GR slave struct was successfully configured
1036:Generated_Source\PSoC6\pdl\drivers\peripheral\prot/cy_prot.c **** *   CY_PROT_FAILURE      | The resource is locked
1037:Generated_Source\PSoC6\pdl\drivers\peripheral\prot/cy_prot.c **** *   CY_PROT_BAD_PARAM    | An incorrect/invalid parameter was passed
1038:Generated_Source\PSoC6\pdl\drivers\peripheral\prot/cy_prot.c **** *
1039:Generated_Source\PSoC6\pdl\drivers\peripheral\prot/cy_prot.c **** * \funcusage
1040:Generated_Source\PSoC6\pdl\drivers\peripheral\prot/cy_prot.c **** * \snippet prot/prot_v1_10_sut_01.cydsn/main_cm4.c snippet_Cy_Prot_ConfigPpuFixedGrSlaveStruct
1041:Generated_Source\PSoC6\pdl\drivers\peripheral\prot/cy_prot.c **** *
1042:Generated_Source\PSoC6\pdl\drivers\peripheral\prot/cy_prot.c **** *******************************************************************************/
1043:Generated_Source\PSoC6\pdl\drivers\peripheral\prot/cy_prot.c **** cy_en_prot_status_t Cy_Prot_ConfigPpuFixedGrSlaveStruct(PERI_PPU_GR_Type* base, const cy_stc_ppu_gr
1044:Generated_Source\PSoC6\pdl\drivers\peripheral\prot/cy_prot.c **** {
 1808              		.loc 1 1044 0
 1809              		.cfi_startproc
 1810              		@ args = 0, pretend = 0, frame = 0
 1811              		@ frame_needed = 0, uses_anonymous_args = 0
 1812              	.LVL144:
 1813 0000 70B5     		push	{r4, r5, r6, lr}
 1814              		.cfi_def_cfa_offset 16
 1815              		.cfi_offset 4, -16
 1816              		.cfi_offset 5, -12
 1817              		.cfi_offset 6, -8
 1818              		.cfi_offset 14, -4
 1819 0002 0500     		movs	r5, r0
 1820 0004 0C00     		movs	r4, r1
1045:Generated_Source\PSoC6\pdl\drivers\peripheral\prot/cy_prot.c ****     cy_en_prot_status_t status;
1046:Generated_Source\PSoC6\pdl\drivers\peripheral\prot/cy_prot.c ****     uint32_t attReg;
1047:Generated_Source\PSoC6\pdl\drivers\peripheral\prot/cy_prot.c ****     
1048:Generated_Source\PSoC6\pdl\drivers\peripheral\prot/cy_prot.c ****     CY_ASSERT_L1(NULL != base);
 1821              		.loc 1 1048 0
 1822 0006 0028     		cmp	r0, #0
 1823 0008 04D1     		bne	.L160
 1824              		.loc 1 1048 0 is_stmt 0 discriminator 1
 1825 000a 8321     		movs	r1, #131
 1826              	.LVL145:
 1827 000c C900     		lsls	r1, r1, #3
 1828 000e 2248     		ldr	r0, .L167
ARM GAS  C:\Users\gjl\AppData\Local\Temp\cc7xIfgu.s 			page 52


 1829              	.LVL146:
 1830 0010 FFF7FEFF 		bl	Cy_SysLib_AssertFailed
 1831              	.LVL147:
 1832              	.L160:
1049:Generated_Source\PSoC6\pdl\drivers\peripheral\prot/cy_prot.c ****     CY_ASSERT_L3(CY_PROT_IS_FIXED_SL_PERM_VALID(config->userPermission));
 1833              		.loc 1 1049 0 is_stmt 1
 1834 0014 2378     		ldrb	r3, [r4]
 1835 0016 032B     		cmp	r3, #3
 1836 0018 03D9     		bls	.L161
 1837              		.loc 1 1049 0 is_stmt 0 discriminator 1
 1838 001a 2049     		ldr	r1, .L167+4
 1839 001c 1E48     		ldr	r0, .L167
 1840 001e FFF7FEFF 		bl	Cy_SysLib_AssertFailed
 1841              	.LVL148:
 1842              	.L161:
1050:Generated_Source\PSoC6\pdl\drivers\peripheral\prot/cy_prot.c ****     CY_ASSERT_L3(CY_PROT_IS_FIXED_SL_PERM_VALID(config->privPermission));
 1843              		.loc 1 1050 0 is_stmt 1
 1844 0022 6378     		ldrb	r3, [r4, #1]
 1845 0024 032B     		cmp	r3, #3
 1846 0026 03D9     		bls	.L162
 1847              		.loc 1 1050 0 is_stmt 0 discriminator 1
 1848 0028 1D49     		ldr	r1, .L167+8
 1849 002a 1B48     		ldr	r0, .L167
 1850 002c FFF7FEFF 		bl	Cy_SysLib_AssertFailed
 1851              	.LVL149:
 1852              	.L162:
1051:Generated_Source\PSoC6\pdl\drivers\peripheral\prot/cy_prot.c ****     
1052:Generated_Source\PSoC6\pdl\drivers\peripheral\prot/cy_prot.c ****     if(((uint32_t)config->pcMask & CY_PROT_PPU_FIXED_PC_LIMIT_MASK) != 0UL) 
 1853              		.loc 1 1052 0 is_stmt 1
 1854 0030 A188     		ldrh	r1, [r4, #4]
 1855 0032 7F23     		movs	r3, #127
 1856 0034 0A00     		movs	r2, r1
 1857 0036 9A43     		bics	r2, r3
 1858 0038 28D1     		bne	.L164
1053:Generated_Source\PSoC6\pdl\drivers\peripheral\prot/cy_prot.c ****     {
1054:Generated_Source\PSoC6\pdl\drivers\peripheral\prot/cy_prot.c ****         /* PC mask out of range - not supported in device */
1055:Generated_Source\PSoC6\pdl\drivers\peripheral\prot/cy_prot.c ****         status = CY_PROT_BAD_PARAM;
1056:Generated_Source\PSoC6\pdl\drivers\peripheral\prot/cy_prot.c ****     }
1057:Generated_Source\PSoC6\pdl\drivers\peripheral\prot/cy_prot.c ****     else
1058:Generated_Source\PSoC6\pdl\drivers\peripheral\prot/cy_prot.c ****     {
1059:Generated_Source\PSoC6\pdl\drivers\peripheral\prot/cy_prot.c ****         /* ADDR0 is read only. Only configure ATT0 */
1060:Generated_Source\PSoC6\pdl\drivers\peripheral\prot/cy_prot.c ****         attReg = (uint32_t)(((uint32_t)config->userPermission & CY_PROT_ATT_PERMISSION_MASK))
 1859              		.loc 1 1060 0
 1860 003a 2378     		ldrb	r3, [r4]
 1861 003c 0720     		movs	r0, #7
 1862 003e 1840     		ands	r0, r3
1061:Generated_Source\PSoC6\pdl\drivers\peripheral\prot/cy_prot.c ****                     | (uint32_t)(((uint32_t)config->privPermission & CY_PROT_ATT_PERMISSION_MASK) <
 1863              		.loc 1 1061 0
 1864 0040 6278     		ldrb	r2, [r4, #1]
 1865 0042 D200     		lsls	r2, r2, #3
 1866 0044 3823     		movs	r3, #56
 1867 0046 1340     		ands	r3, r2
 1868 0048 1843     		orrs	r0, r3
1062:Generated_Source\PSoC6\pdl\drivers\peripheral\prot/cy_prot.c ****                     | _VAL2FLD(PERI_PPU_GR_ATT0_NS, !(config->secure))
 1869              		.loc 1 1062 0
 1870 004a A378     		ldrb	r3, [r4, #2]
 1871 004c 0122     		movs	r2, #1
ARM GAS  C:\Users\gjl\AppData\Local\Temp\cc7xIfgu.s 			page 53


 1872 004e 5A40     		eors	r2, r3
 1873 0050 D2B2     		uxtb	r2, r2
 1874 0052 9201     		lsls	r2, r2, #6
 1875 0054 4023     		movs	r3, #64
 1876 0056 1A40     		ands	r2, r3
 1877 0058 0300     		movs	r3, r0
 1878 005a 1343     		orrs	r3, r2
1063:Generated_Source\PSoC6\pdl\drivers\peripheral\prot/cy_prot.c ****                     | _VAL2FLD(PERI_PPU_GR_ATT0_PC_MASK_15_TO_1, config->pcMask)
 1879              		.loc 1 1063 0
 1880 005c 4902     		lsls	r1, r1, #9
 1881 005e 114A     		ldr	r2, .L167+12
 1882 0060 1140     		ands	r1, r2
 1883 0062 1943     		orrs	r1, r3
1064:Generated_Source\PSoC6\pdl\drivers\peripheral\prot/cy_prot.c ****                     /* No region size - read only */
1065:Generated_Source\PSoC6\pdl\drivers\peripheral\prot/cy_prot.c ****                     | _VAL2FLD(PERI_PPU_GR_ATT0_PC_MATCH, config->pcMatch);
 1884              		.loc 1 1065 0
 1885 0064 E378     		ldrb	r3, [r4, #3]
 1886 0066 9B07     		lsls	r3, r3, #30
 1887 0068 8020     		movs	r0, #128
 1888 006a C005     		lsls	r0, r0, #23
 1889 006c 0340     		ands	r3, r0
 1890 006e 1A00     		movs	r2, r3
1060:Generated_Source\PSoC6\pdl\drivers\peripheral\prot/cy_prot.c ****                     | (uint32_t)(((uint32_t)config->privPermission & CY_PROT_ATT_PERMISSION_MASK) <
 1891              		.loc 1 1060 0
 1892 0070 0B00     		movs	r3, r1
 1893 0072 1343     		orrs	r3, r2
 1894              	.LVL150:
1066:Generated_Source\PSoC6\pdl\drivers\peripheral\prot/cy_prot.c ****         if ((attReg & CY_PROT_PPU_GR_ATT0_MASK) != attReg)
 1895              		.loc 1 1066 0
 1896 0074 0C4A     		ldr	r2, .L167+16
 1897 0076 1A40     		ands	r2, r3
 1898 0078 9342     		cmp	r3, r2
 1899 007a 09D1     		bne	.L165
1067:Generated_Source\PSoC6\pdl\drivers\peripheral\prot/cy_prot.c ****         {
1068:Generated_Source\PSoC6\pdl\drivers\peripheral\prot/cy_prot.c ****             /* Invalid parameter was passed */
1069:Generated_Source\PSoC6\pdl\drivers\peripheral\prot/cy_prot.c ****             status = CY_PROT_BAD_PARAM;
1070:Generated_Source\PSoC6\pdl\drivers\peripheral\prot/cy_prot.c ****         }
1071:Generated_Source\PSoC6\pdl\drivers\peripheral\prot/cy_prot.c ****         else
1072:Generated_Source\PSoC6\pdl\drivers\peripheral\prot/cy_prot.c ****         {
1073:Generated_Source\PSoC6\pdl\drivers\peripheral\prot/cy_prot.c ****             base->ATT0 = attReg;
 1900              		.loc 1 1073 0
 1901 007c 6B60     		str	r3, [r5, #4]
1074:Generated_Source\PSoC6\pdl\drivers\peripheral\prot/cy_prot.c ****             status = ((base->ATT0 & CY_PROT_PPU_GR_ATT0_MASK) != attReg) ? CY_PROT_FAILURE : CY_PRO
 1902              		.loc 1 1074 0
 1903 007e 6968     		ldr	r1, [r5, #4]
 1904 0080 094A     		ldr	r2, .L167+16
 1905 0082 0A40     		ands	r2, r1
 1906 0084 9342     		cmp	r3, r2
 1907 0086 05D0     		beq	.L166
 1908 0088 0848     		ldr	r0, .L167+20
 1909 008a 04E0     		b	.L163
 1910              	.LVL151:
 1911              	.L164:
1055:Generated_Source\PSoC6\pdl\drivers\peripheral\prot/cy_prot.c ****     }
 1912              		.loc 1 1055 0
 1913 008c 0848     		ldr	r0, .L167+24
 1914 008e 02E0     		b	.L163
ARM GAS  C:\Users\gjl\AppData\Local\Temp\cc7xIfgu.s 			page 54


 1915              	.LVL152:
 1916              	.L165:
1069:Generated_Source\PSoC6\pdl\drivers\peripheral\prot/cy_prot.c ****         }
 1917              		.loc 1 1069 0
 1918 0090 0748     		ldr	r0, .L167+24
 1919 0092 00E0     		b	.L163
 1920              	.L166:
 1921              		.loc 1 1074 0
 1922 0094 0020     		movs	r0, #0
 1923              	.LVL153:
 1924              	.L163:
1075:Generated_Source\PSoC6\pdl\drivers\peripheral\prot/cy_prot.c ****         }
1076:Generated_Source\PSoC6\pdl\drivers\peripheral\prot/cy_prot.c ****     }    
1077:Generated_Source\PSoC6\pdl\drivers\peripheral\prot/cy_prot.c ****     return status;
1078:Generated_Source\PSoC6\pdl\drivers\peripheral\prot/cy_prot.c **** }
 1925              		.loc 1 1078 0
 1926              		@ sp needed
 1927              	.LVL154:
 1928              	.LVL155:
 1929 0096 70BD     		pop	{r4, r5, r6, pc}
 1930              	.L168:
 1931              		.align	2
 1932              	.L167:
 1933 0098 00000000 		.word	.LC0
 1934 009c 19040000 		.word	1049
 1935 00a0 1A040000 		.word	1050
 1936 00a4 00FEFF00 		.word	16776704
 1937 00a8 DBFEFFE0 		.word	-520093989
 1938 00ac 0300C200 		.word	12713987
 1939 00b0 0100C200 		.word	12713985
 1940              		.cfi_endproc
 1941              	.LFE55:
 1942              		.size	Cy_Prot_ConfigPpuFixedGrSlaveStruct, .-Cy_Prot_ConfigPpuFixedGrSlaveStruct
 1943              		.section	.text.Cy_Prot_EnablePpuFixedGrMasterStruct,"ax",%progbits
 1944              		.align	2
 1945              		.global	Cy_Prot_EnablePpuFixedGrMasterStruct
 1946              		.code	16
 1947              		.thumb_func
 1948              		.type	Cy_Prot_EnablePpuFixedGrMasterStruct, %function
 1949              	Cy_Prot_EnablePpuFixedGrMasterStruct:
 1950              	.LFB56:
1079:Generated_Source\PSoC6\pdl\drivers\peripheral\prot/cy_prot.c **** 
1080:Generated_Source\PSoC6\pdl\drivers\peripheral\prot/cy_prot.c **** 
1081:Generated_Source\PSoC6\pdl\drivers\peripheral\prot/cy_prot.c **** /*******************************************************************************
1082:Generated_Source\PSoC6\pdl\drivers\peripheral\prot/cy_prot.c **** * Function Name: Cy_Prot_EnablePpuFixedGrMasterStruct
1083:Generated_Source\PSoC6\pdl\drivers\peripheral\prot/cy_prot.c **** ****************************************************************************//**
1084:Generated_Source\PSoC6\pdl\drivers\peripheral\prot/cy_prot.c **** *
1085:Generated_Source\PSoC6\pdl\drivers\peripheral\prot/cy_prot.c **** * \brief Enables the Master PPU GR structure.
1086:Generated_Source\PSoC6\pdl\drivers\peripheral\prot/cy_prot.c **** *
1087:Generated_Source\PSoC6\pdl\drivers\peripheral\prot/cy_prot.c **** * This is a PPU GR master struct enable function. The PPU GR protection 
1088:Generated_Source\PSoC6\pdl\drivers\peripheral\prot/cy_prot.c **** * settings will take effect after successful completion of this function call.
1089:Generated_Source\PSoC6\pdl\drivers\peripheral\prot/cy_prot.c **** *
1090:Generated_Source\PSoC6\pdl\drivers\peripheral\prot/cy_prot.c **** * \param base
1091:Generated_Source\PSoC6\pdl\drivers\peripheral\prot/cy_prot.c **** * The base address for the protection unit structure being configured. 
1092:Generated_Source\PSoC6\pdl\drivers\peripheral\prot/cy_prot.c **** *
1093:Generated_Source\PSoC6\pdl\drivers\peripheral\prot/cy_prot.c **** * \return
1094:Generated_Source\PSoC6\pdl\drivers\peripheral\prot/cy_prot.c **** * Status of the function call.
ARM GAS  C:\Users\gjl\AppData\Local\Temp\cc7xIfgu.s 			page 55


1095:Generated_Source\PSoC6\pdl\drivers\peripheral\prot/cy_prot.c **** *
1096:Generated_Source\PSoC6\pdl\drivers\peripheral\prot/cy_prot.c **** *   Status               | Description
1097:Generated_Source\PSoC6\pdl\drivers\peripheral\prot/cy_prot.c **** *   ------------         | -----------
1098:Generated_Source\PSoC6\pdl\drivers\peripheral\prot/cy_prot.c **** *   CY_PROT_SUCCESS      | The Master PU struct was enabled
1099:Generated_Source\PSoC6\pdl\drivers\peripheral\prot/cy_prot.c **** *   CY_PROT_FAILURE      | The Master PU struct is disabled and possibly locked
1100:Generated_Source\PSoC6\pdl\drivers\peripheral\prot/cy_prot.c **** *
1101:Generated_Source\PSoC6\pdl\drivers\peripheral\prot/cy_prot.c **** * \funcusage
1102:Generated_Source\PSoC6\pdl\drivers\peripheral\prot/cy_prot.c **** * \snippet prot/prot_v1_10_sut_01.cydsn/main_cm4.c snippet_Cy_Prot_EnablePpuFixedGrMasterStruct
1103:Generated_Source\PSoC6\pdl\drivers\peripheral\prot/cy_prot.c **** *
1104:Generated_Source\PSoC6\pdl\drivers\peripheral\prot/cy_prot.c **** *******************************************************************************/
1105:Generated_Source\PSoC6\pdl\drivers\peripheral\prot/cy_prot.c **** cy_en_prot_status_t Cy_Prot_EnablePpuFixedGrMasterStruct(PERI_PPU_GR_Type* base)
1106:Generated_Source\PSoC6\pdl\drivers\peripheral\prot/cy_prot.c **** {
 1951              		.loc 1 1106 0
 1952              		.cfi_startproc
 1953              		@ args = 0, pretend = 0, frame = 0
 1954              		@ frame_needed = 0, uses_anonymous_args = 0
 1955              		@ link register save eliminated.
 1956              	.LVL156:
1107:Generated_Source\PSoC6\pdl\drivers\peripheral\prot/cy_prot.c ****     cy_en_prot_status_t status;
1108:Generated_Source\PSoC6\pdl\drivers\peripheral\prot/cy_prot.c ****     
1109:Generated_Source\PSoC6\pdl\drivers\peripheral\prot/cy_prot.c ****     base->ATT1 |= _VAL2FLD(PERI_PPU_GR_ATT1_ENABLED, CY_PROT_STRUCT_ENABLE);
 1957              		.loc 1 1109 0
 1958 0000 436A     		ldr	r3, [r0, #36]
 1959 0002 8022     		movs	r2, #128
 1960 0004 1206     		lsls	r2, r2, #24
 1961 0006 1343     		orrs	r3, r2
 1962 0008 4362     		str	r3, [r0, #36]
1110:Generated_Source\PSoC6\pdl\drivers\peripheral\prot/cy_prot.c ****     status = (_FLD2VAL(PERI_PPU_GR_ATT1_ENABLED, base->ATT1) != CY_PROT_STRUCT_ENABLE) ?
 1963              		.loc 1 1110 0
 1964 000a 436A     		ldr	r3, [r0, #36]
 1965 000c 002B     		cmp	r3, #0
 1966 000e 01DB     		blt	.L171
 1967 0010 0148     		ldr	r0, .L172
 1968              	.LVL157:
 1969 0012 00E0     		b	.L170
 1970              	.LVL158:
 1971              	.L171:
 1972 0014 0020     		movs	r0, #0
 1973              	.LVL159:
 1974              	.L170:
1111:Generated_Source\PSoC6\pdl\drivers\peripheral\prot/cy_prot.c ****                 CY_PROT_FAILURE : CY_PROT_SUCCESS;
1112:Generated_Source\PSoC6\pdl\drivers\peripheral\prot/cy_prot.c ****     
1113:Generated_Source\PSoC6\pdl\drivers\peripheral\prot/cy_prot.c ****     return status;
1114:Generated_Source\PSoC6\pdl\drivers\peripheral\prot/cy_prot.c **** }
 1975              		.loc 1 1114 0 discriminator 4
 1976              		@ sp needed
 1977 0016 7047     		bx	lr
 1978              	.L173:
 1979              		.align	2
 1980              	.L172:
 1981 0018 0300C200 		.word	12713987
 1982              		.cfi_endproc
 1983              	.LFE56:
 1984              		.size	Cy_Prot_EnablePpuFixedGrMasterStruct, .-Cy_Prot_EnablePpuFixedGrMasterStruct
 1985              		.section	.text.Cy_Prot_DisablePpuFixedGrMasterStruct,"ax",%progbits
 1986              		.align	2
 1987              		.global	Cy_Prot_DisablePpuFixedGrMasterStruct
ARM GAS  C:\Users\gjl\AppData\Local\Temp\cc7xIfgu.s 			page 56


 1988              		.code	16
 1989              		.thumb_func
 1990              		.type	Cy_Prot_DisablePpuFixedGrMasterStruct, %function
 1991              	Cy_Prot_DisablePpuFixedGrMasterStruct:
 1992              	.LFB57:
1115:Generated_Source\PSoC6\pdl\drivers\peripheral\prot/cy_prot.c **** 
1116:Generated_Source\PSoC6\pdl\drivers\peripheral\prot/cy_prot.c **** 
1117:Generated_Source\PSoC6\pdl\drivers\peripheral\prot/cy_prot.c **** /*******************************************************************************
1118:Generated_Source\PSoC6\pdl\drivers\peripheral\prot/cy_prot.c **** * Function Name: Cy_Prot_DisablePpuFixedGrMasterStruct
1119:Generated_Source\PSoC6\pdl\drivers\peripheral\prot/cy_prot.c **** ****************************************************************************//**
1120:Generated_Source\PSoC6\pdl\drivers\peripheral\prot/cy_prot.c **** *
1121:Generated_Source\PSoC6\pdl\drivers\peripheral\prot/cy_prot.c **** * \brief Disables the Master PPU GR structure.
1122:Generated_Source\PSoC6\pdl\drivers\peripheral\prot/cy_prot.c **** *
1123:Generated_Source\PSoC6\pdl\drivers\peripheral\prot/cy_prot.c **** * This is a PPU GR master struct disable function. The PPU GR protection 
1124:Generated_Source\PSoC6\pdl\drivers\peripheral\prot/cy_prot.c **** * settings will seize to take effect after successful completion of this 
1125:Generated_Source\PSoC6\pdl\drivers\peripheral\prot/cy_prot.c **** * function call.
1126:Generated_Source\PSoC6\pdl\drivers\peripheral\prot/cy_prot.c **** *
1127:Generated_Source\PSoC6\pdl\drivers\peripheral\prot/cy_prot.c **** * \param base
1128:Generated_Source\PSoC6\pdl\drivers\peripheral\prot/cy_prot.c **** * The base address for the protection unit structure being configured. 
1129:Generated_Source\PSoC6\pdl\drivers\peripheral\prot/cy_prot.c **** *
1130:Generated_Source\PSoC6\pdl\drivers\peripheral\prot/cy_prot.c **** * \return
1131:Generated_Source\PSoC6\pdl\drivers\peripheral\prot/cy_prot.c **** * Status of the function call.
1132:Generated_Source\PSoC6\pdl\drivers\peripheral\prot/cy_prot.c **** *
1133:Generated_Source\PSoC6\pdl\drivers\peripheral\prot/cy_prot.c **** *   Status               | Description
1134:Generated_Source\PSoC6\pdl\drivers\peripheral\prot/cy_prot.c **** *   ------------         | -----------
1135:Generated_Source\PSoC6\pdl\drivers\peripheral\prot/cy_prot.c **** *   CY_PROT_SUCCESS      | The Master PU struct was disabled
1136:Generated_Source\PSoC6\pdl\drivers\peripheral\prot/cy_prot.c **** *   CY_PROT_FAILURE      | The Master PU struct is enabled and possibly locked
1137:Generated_Source\PSoC6\pdl\drivers\peripheral\prot/cy_prot.c **** *
1138:Generated_Source\PSoC6\pdl\drivers\peripheral\prot/cy_prot.c **** * \funcusage
1139:Generated_Source\PSoC6\pdl\drivers\peripheral\prot/cy_prot.c **** * \snippet prot/prot_v1_10_sut_01.cydsn/main_cm4.c snippet_Cy_Prot_DisablePpuFixedGrMasterStruct
1140:Generated_Source\PSoC6\pdl\drivers\peripheral\prot/cy_prot.c **** *
1141:Generated_Source\PSoC6\pdl\drivers\peripheral\prot/cy_prot.c **** *******************************************************************************/
1142:Generated_Source\PSoC6\pdl\drivers\peripheral\prot/cy_prot.c **** cy_en_prot_status_t Cy_Prot_DisablePpuFixedGrMasterStruct(PERI_PPU_GR_Type* base)
1143:Generated_Source\PSoC6\pdl\drivers\peripheral\prot/cy_prot.c **** {
 1993              		.loc 1 1143 0
 1994              		.cfi_startproc
 1995              		@ args = 0, pretend = 0, frame = 0
 1996              		@ frame_needed = 0, uses_anonymous_args = 0
 1997              		@ link register save eliminated.
 1998              	.LVL160:
1144:Generated_Source\PSoC6\pdl\drivers\peripheral\prot/cy_prot.c ****     cy_en_prot_status_t status;
1145:Generated_Source\PSoC6\pdl\drivers\peripheral\prot/cy_prot.c ****     
1146:Generated_Source\PSoC6\pdl\drivers\peripheral\prot/cy_prot.c ****     base->ATT1 &= ~_VAL2FLD(PERI_PPU_GR_ATT1_ENABLED, CY_PROT_STRUCT_ENABLE);
 1999              		.loc 1 1146 0
 2000 0000 436A     		ldr	r3, [r0, #36]
 2001 0002 5B00     		lsls	r3, r3, #1
 2002 0004 5B08     		lsrs	r3, r3, #1
 2003 0006 4362     		str	r3, [r0, #36]
1147:Generated_Source\PSoC6\pdl\drivers\peripheral\prot/cy_prot.c ****     status = (_FLD2VAL(PERI_PPU_GR_ATT1_ENABLED, base->ATT1) == CY_PROT_STRUCT_ENABLE) ?
 2004              		.loc 1 1147 0
 2005 0008 436A     		ldr	r3, [r0, #36]
 2006 000a 002B     		cmp	r3, #0
 2007 000c 01DA     		bge	.L176
 2008 000e 0248     		ldr	r0, .L177
 2009              	.LVL161:
 2010 0010 00E0     		b	.L175
 2011              	.LVL162:
ARM GAS  C:\Users\gjl\AppData\Local\Temp\cc7xIfgu.s 			page 57


 2012              	.L176:
 2013 0012 0020     		movs	r0, #0
 2014              	.LVL163:
 2015              	.L175:
1148:Generated_Source\PSoC6\pdl\drivers\peripheral\prot/cy_prot.c ****                 CY_PROT_FAILURE : CY_PROT_SUCCESS;
1149:Generated_Source\PSoC6\pdl\drivers\peripheral\prot/cy_prot.c ****     
1150:Generated_Source\PSoC6\pdl\drivers\peripheral\prot/cy_prot.c ****     return status;
1151:Generated_Source\PSoC6\pdl\drivers\peripheral\prot/cy_prot.c **** }
 2016              		.loc 1 1151 0 discriminator 4
 2017              		@ sp needed
 2018 0014 7047     		bx	lr
 2019              	.L178:
 2020 0016 C046     		.align	2
 2021              	.L177:
 2022 0018 0300C200 		.word	12713987
 2023              		.cfi_endproc
 2024              	.LFE57:
 2025              		.size	Cy_Prot_DisablePpuFixedGrMasterStruct, .-Cy_Prot_DisablePpuFixedGrMasterStruct
 2026              		.section	.text.Cy_Prot_EnablePpuFixedGrSlaveStruct,"ax",%progbits
 2027              		.align	2
 2028              		.global	Cy_Prot_EnablePpuFixedGrSlaveStruct
 2029              		.code	16
 2030              		.thumb_func
 2031              		.type	Cy_Prot_EnablePpuFixedGrSlaveStruct, %function
 2032              	Cy_Prot_EnablePpuFixedGrSlaveStruct:
 2033              	.LFB58:
1152:Generated_Source\PSoC6\pdl\drivers\peripheral\prot/cy_prot.c **** 
1153:Generated_Source\PSoC6\pdl\drivers\peripheral\prot/cy_prot.c **** 
1154:Generated_Source\PSoC6\pdl\drivers\peripheral\prot/cy_prot.c **** /*******************************************************************************
1155:Generated_Source\PSoC6\pdl\drivers\peripheral\prot/cy_prot.c **** * Function Name: Cy_Prot_EnablePpuFixedGrSlaveStruct
1156:Generated_Source\PSoC6\pdl\drivers\peripheral\prot/cy_prot.c **** ****************************************************************************//**
1157:Generated_Source\PSoC6\pdl\drivers\peripheral\prot/cy_prot.c **** *
1158:Generated_Source\PSoC6\pdl\drivers\peripheral\prot/cy_prot.c **** * \brief Enables the Slave PPU GR structure.
1159:Generated_Source\PSoC6\pdl\drivers\peripheral\prot/cy_prot.c **** *
1160:Generated_Source\PSoC6\pdl\drivers\peripheral\prot/cy_prot.c **** * This is a PPU GR slave struct enable function. The PPU GR protection 
1161:Generated_Source\PSoC6\pdl\drivers\peripheral\prot/cy_prot.c **** * settings will take effect after successful completion of this function call.
1162:Generated_Source\PSoC6\pdl\drivers\peripheral\prot/cy_prot.c **** *
1163:Generated_Source\PSoC6\pdl\drivers\peripheral\prot/cy_prot.c **** * \param base
1164:Generated_Source\PSoC6\pdl\drivers\peripheral\prot/cy_prot.c **** * The base address for the protection unit structure being configured. 
1165:Generated_Source\PSoC6\pdl\drivers\peripheral\prot/cy_prot.c **** *
1166:Generated_Source\PSoC6\pdl\drivers\peripheral\prot/cy_prot.c **** * \return
1167:Generated_Source\PSoC6\pdl\drivers\peripheral\prot/cy_prot.c **** * Status of the function call.
1168:Generated_Source\PSoC6\pdl\drivers\peripheral\prot/cy_prot.c **** *
1169:Generated_Source\PSoC6\pdl\drivers\peripheral\prot/cy_prot.c **** *   Status               | Description
1170:Generated_Source\PSoC6\pdl\drivers\peripheral\prot/cy_prot.c **** *   ------------         | -----------
1171:Generated_Source\PSoC6\pdl\drivers\peripheral\prot/cy_prot.c **** *   CY_PROT_SUCCESS      | The Slave PU struct was enabled
1172:Generated_Source\PSoC6\pdl\drivers\peripheral\prot/cy_prot.c **** *   CY_PROT_FAILURE      | The Slave PU struct is disabled and possibly locked
1173:Generated_Source\PSoC6\pdl\drivers\peripheral\prot/cy_prot.c **** *
1174:Generated_Source\PSoC6\pdl\drivers\peripheral\prot/cy_prot.c **** * \funcusage
1175:Generated_Source\PSoC6\pdl\drivers\peripheral\prot/cy_prot.c **** * \snippet prot/prot_v1_10_sut_01.cydsn/main_cm4.c snippet_Cy_Prot_EnablePpuFixedGrSlaveStruct
1176:Generated_Source\PSoC6\pdl\drivers\peripheral\prot/cy_prot.c **** *
1177:Generated_Source\PSoC6\pdl\drivers\peripheral\prot/cy_prot.c **** *******************************************************************************/
1178:Generated_Source\PSoC6\pdl\drivers\peripheral\prot/cy_prot.c **** cy_en_prot_status_t Cy_Prot_EnablePpuFixedGrSlaveStruct(PERI_PPU_GR_Type* base)
1179:Generated_Source\PSoC6\pdl\drivers\peripheral\prot/cy_prot.c **** {   
 2034              		.loc 1 1179 0
 2035              		.cfi_startproc
 2036              		@ args = 0, pretend = 0, frame = 0
ARM GAS  C:\Users\gjl\AppData\Local\Temp\cc7xIfgu.s 			page 58


 2037              		@ frame_needed = 0, uses_anonymous_args = 0
 2038              		@ link register save eliminated.
 2039              	.LVL164:
1180:Generated_Source\PSoC6\pdl\drivers\peripheral\prot/cy_prot.c ****     cy_en_prot_status_t status;
1181:Generated_Source\PSoC6\pdl\drivers\peripheral\prot/cy_prot.c ****     
1182:Generated_Source\PSoC6\pdl\drivers\peripheral\prot/cy_prot.c ****     base->ATT0 |= _VAL2FLD(PERI_PPU_GR_ATT0_ENABLED, CY_PROT_STRUCT_ENABLE);
 2040              		.loc 1 1182 0
 2041 0000 4368     		ldr	r3, [r0, #4]
 2042 0002 8022     		movs	r2, #128
 2043 0004 1206     		lsls	r2, r2, #24
 2044 0006 1343     		orrs	r3, r2
 2045 0008 4360     		str	r3, [r0, #4]
1183:Generated_Source\PSoC6\pdl\drivers\peripheral\prot/cy_prot.c ****     status = (_FLD2VAL(PERI_PPU_GR_ATT0_ENABLED, base->ATT0) != CY_PROT_STRUCT_ENABLE) ?
 2046              		.loc 1 1183 0
 2047 000a 4368     		ldr	r3, [r0, #4]
 2048 000c 002B     		cmp	r3, #0
 2049 000e 01DB     		blt	.L181
 2050 0010 0148     		ldr	r0, .L182
 2051              	.LVL165:
 2052 0012 00E0     		b	.L180
 2053              	.LVL166:
 2054              	.L181:
 2055 0014 0020     		movs	r0, #0
 2056              	.LVL167:
 2057              	.L180:
1184:Generated_Source\PSoC6\pdl\drivers\peripheral\prot/cy_prot.c ****                 CY_PROT_FAILURE : CY_PROT_SUCCESS;
1185:Generated_Source\PSoC6\pdl\drivers\peripheral\prot/cy_prot.c ****     
1186:Generated_Source\PSoC6\pdl\drivers\peripheral\prot/cy_prot.c ****     return status;
1187:Generated_Source\PSoC6\pdl\drivers\peripheral\prot/cy_prot.c **** }
 2058              		.loc 1 1187 0 discriminator 4
 2059              		@ sp needed
 2060 0016 7047     		bx	lr
 2061              	.L183:
 2062              		.align	2
 2063              	.L182:
 2064 0018 0300C200 		.word	12713987
 2065              		.cfi_endproc
 2066              	.LFE58:
 2067              		.size	Cy_Prot_EnablePpuFixedGrSlaveStruct, .-Cy_Prot_EnablePpuFixedGrSlaveStruct
 2068              		.section	.text.Cy_Prot_DisablePpuFixedGrSlaveStruct,"ax",%progbits
 2069              		.align	2
 2070              		.global	Cy_Prot_DisablePpuFixedGrSlaveStruct
 2071              		.code	16
 2072              		.thumb_func
 2073              		.type	Cy_Prot_DisablePpuFixedGrSlaveStruct, %function
 2074              	Cy_Prot_DisablePpuFixedGrSlaveStruct:
 2075              	.LFB59:
1188:Generated_Source\PSoC6\pdl\drivers\peripheral\prot/cy_prot.c **** 
1189:Generated_Source\PSoC6\pdl\drivers\peripheral\prot/cy_prot.c **** 
1190:Generated_Source\PSoC6\pdl\drivers\peripheral\prot/cy_prot.c **** /*******************************************************************************
1191:Generated_Source\PSoC6\pdl\drivers\peripheral\prot/cy_prot.c **** * Function Name: Cy_Prot_DisablePpuFixedGrSlaveStruct
1192:Generated_Source\PSoC6\pdl\drivers\peripheral\prot/cy_prot.c **** ****************************************************************************//**
1193:Generated_Source\PSoC6\pdl\drivers\peripheral\prot/cy_prot.c **** *
1194:Generated_Source\PSoC6\pdl\drivers\peripheral\prot/cy_prot.c **** * \brief Disables the Slave PPU GR structure.
1195:Generated_Source\PSoC6\pdl\drivers\peripheral\prot/cy_prot.c **** *
1196:Generated_Source\PSoC6\pdl\drivers\peripheral\prot/cy_prot.c **** * This is a PPU GR slave struct disable function. The PPU GR protection 
1197:Generated_Source\PSoC6\pdl\drivers\peripheral\prot/cy_prot.c **** * settings will seize to take effect after successful completion of this 
ARM GAS  C:\Users\gjl\AppData\Local\Temp\cc7xIfgu.s 			page 59


1198:Generated_Source\PSoC6\pdl\drivers\peripheral\prot/cy_prot.c **** * function call.
1199:Generated_Source\PSoC6\pdl\drivers\peripheral\prot/cy_prot.c **** *
1200:Generated_Source\PSoC6\pdl\drivers\peripheral\prot/cy_prot.c **** * \param base
1201:Generated_Source\PSoC6\pdl\drivers\peripheral\prot/cy_prot.c **** * The base address for the protection unit structure being configured. 
1202:Generated_Source\PSoC6\pdl\drivers\peripheral\prot/cy_prot.c **** *
1203:Generated_Source\PSoC6\pdl\drivers\peripheral\prot/cy_prot.c **** * \return
1204:Generated_Source\PSoC6\pdl\drivers\peripheral\prot/cy_prot.c **** * Status of the function call.
1205:Generated_Source\PSoC6\pdl\drivers\peripheral\prot/cy_prot.c **** *
1206:Generated_Source\PSoC6\pdl\drivers\peripheral\prot/cy_prot.c **** *   Status               | Description
1207:Generated_Source\PSoC6\pdl\drivers\peripheral\prot/cy_prot.c **** *   ------------         | -----------
1208:Generated_Source\PSoC6\pdl\drivers\peripheral\prot/cy_prot.c **** *   CY_PROT_SUCCESS      | The Slave PU struct was disabled
1209:Generated_Source\PSoC6\pdl\drivers\peripheral\prot/cy_prot.c **** *   CY_PROT_FAILURE      | The Slave PU struct is enabled and possibly locked
1210:Generated_Source\PSoC6\pdl\drivers\peripheral\prot/cy_prot.c **** *
1211:Generated_Source\PSoC6\pdl\drivers\peripheral\prot/cy_prot.c **** * \funcusage
1212:Generated_Source\PSoC6\pdl\drivers\peripheral\prot/cy_prot.c **** * \snippet prot/prot_v1_10_sut_01.cydsn/main_cm4.c snippet_Cy_Prot_DisablePpuFixedGrSlaveStruct
1213:Generated_Source\PSoC6\pdl\drivers\peripheral\prot/cy_prot.c **** *
1214:Generated_Source\PSoC6\pdl\drivers\peripheral\prot/cy_prot.c **** *******************************************************************************/
1215:Generated_Source\PSoC6\pdl\drivers\peripheral\prot/cy_prot.c **** cy_en_prot_status_t Cy_Prot_DisablePpuFixedGrSlaveStruct(PERI_PPU_GR_Type* base)
1216:Generated_Source\PSoC6\pdl\drivers\peripheral\prot/cy_prot.c **** {
 2076              		.loc 1 1216 0
 2077              		.cfi_startproc
 2078              		@ args = 0, pretend = 0, frame = 0
 2079              		@ frame_needed = 0, uses_anonymous_args = 0
 2080              		@ link register save eliminated.
 2081              	.LVL168:
1217:Generated_Source\PSoC6\pdl\drivers\peripheral\prot/cy_prot.c ****     cy_en_prot_status_t status;
1218:Generated_Source\PSoC6\pdl\drivers\peripheral\prot/cy_prot.c ****     
1219:Generated_Source\PSoC6\pdl\drivers\peripheral\prot/cy_prot.c ****     base->ATT0 &= ~_VAL2FLD(PERI_PPU_GR_ATT0_ENABLED, CY_PROT_STRUCT_ENABLE);
 2082              		.loc 1 1219 0
 2083 0000 4368     		ldr	r3, [r0, #4]
 2084 0002 5B00     		lsls	r3, r3, #1
 2085 0004 5B08     		lsrs	r3, r3, #1
 2086 0006 4360     		str	r3, [r0, #4]
1220:Generated_Source\PSoC6\pdl\drivers\peripheral\prot/cy_prot.c ****     status = (_FLD2VAL(PERI_PPU_GR_ATT0_ENABLED, base->ATT0) == CY_PROT_STRUCT_ENABLE) ?
 2087              		.loc 1 1220 0
 2088 0008 4368     		ldr	r3, [r0, #4]
 2089 000a 002B     		cmp	r3, #0
 2090 000c 01DA     		bge	.L186
 2091 000e 0248     		ldr	r0, .L187
 2092              	.LVL169:
 2093 0010 00E0     		b	.L185
 2094              	.LVL170:
 2095              	.L186:
 2096 0012 0020     		movs	r0, #0
 2097              	.LVL171:
 2098              	.L185:
1221:Generated_Source\PSoC6\pdl\drivers\peripheral\prot/cy_prot.c ****                 CY_PROT_FAILURE : CY_PROT_SUCCESS;
1222:Generated_Source\PSoC6\pdl\drivers\peripheral\prot/cy_prot.c ****     
1223:Generated_Source\PSoC6\pdl\drivers\peripheral\prot/cy_prot.c ****     return status;
1224:Generated_Source\PSoC6\pdl\drivers\peripheral\prot/cy_prot.c **** }
 2099              		.loc 1 1224 0 discriminator 4
 2100              		@ sp needed
 2101 0014 7047     		bx	lr
 2102              	.L188:
 2103 0016 C046     		.align	2
 2104              	.L187:
 2105 0018 0300C200 		.word	12713987
ARM GAS  C:\Users\gjl\AppData\Local\Temp\cc7xIfgu.s 			page 60


 2106              		.cfi_endproc
 2107              	.LFE59:
 2108              		.size	Cy_Prot_DisablePpuFixedGrSlaveStruct, .-Cy_Prot_DisablePpuFixedGrSlaveStruct
 2109              		.section	.text.Cy_Prot_ConfigPpuFixedSlMasterStruct,"ax",%progbits
 2110              		.align	2
 2111              		.global	Cy_Prot_ConfigPpuFixedSlMasterStruct
 2112              		.code	16
 2113              		.thumb_func
 2114              		.type	Cy_Prot_ConfigPpuFixedSlMasterStruct, %function
 2115              	Cy_Prot_ConfigPpuFixedSlMasterStruct:
 2116              	.LFB60:
1225:Generated_Source\PSoC6\pdl\drivers\peripheral\prot/cy_prot.c **** 
1226:Generated_Source\PSoC6\pdl\drivers\peripheral\prot/cy_prot.c **** 
1227:Generated_Source\PSoC6\pdl\drivers\peripheral\prot/cy_prot.c **** /*******************************************************************************
1228:Generated_Source\PSoC6\pdl\drivers\peripheral\prot/cy_prot.c **** * Function Name: Cy_Prot_ConfigPpuFixedSlMasterStruct
1229:Generated_Source\PSoC6\pdl\drivers\peripheral\prot/cy_prot.c **** ****************************************************************************//**
1230:Generated_Source\PSoC6\pdl\drivers\peripheral\prot/cy_prot.c **** *
1231:Generated_Source\PSoC6\pdl\drivers\peripheral\prot/cy_prot.c **** * \brief Configures a Fixed Peripheral Slave Protection Unit (PPU SL) master 
1232:Generated_Source\PSoC6\pdl\drivers\peripheral\prot/cy_prot.c **** * protection struct with its protection attributes. 
1233:Generated_Source\PSoC6\pdl\drivers\peripheral\prot/cy_prot.c **** *
1234:Generated_Source\PSoC6\pdl\drivers\peripheral\prot/cy_prot.c **** * This function configures the master struct governing the corresponding slave
1235:Generated_Source\PSoC6\pdl\drivers\peripheral\prot/cy_prot.c **** * struct pair. It is a mechanism to protect the slave PPU SL struct. Since
1236:Generated_Source\PSoC6\pdl\drivers\peripheral\prot/cy_prot.c **** * the memory location of the slave struct is known, the address, regionSize and
1237:Generated_Source\PSoC6\pdl\drivers\peripheral\prot/cy_prot.c **** * subregions of the configuration struct are not applicable.
1238:Generated_Source\PSoC6\pdl\drivers\peripheral\prot/cy_prot.c **** *
1239:Generated_Source\PSoC6\pdl\drivers\peripheral\prot/cy_prot.c **** * Note that only the user/privileged write permissions are configurable. The 
1240:Generated_Source\PSoC6\pdl\drivers\peripheral\prot/cy_prot.c **** * read and execute permissions are read-only and cannot be configured.
1241:Generated_Source\PSoC6\pdl\drivers\peripheral\prot/cy_prot.c **** *
1242:Generated_Source\PSoC6\pdl\drivers\peripheral\prot/cy_prot.c **** * \param base
1243:Generated_Source\PSoC6\pdl\drivers\peripheral\prot/cy_prot.c **** * The register base address of the protection struct being configured.
1244:Generated_Source\PSoC6\pdl\drivers\peripheral\prot/cy_prot.c **** * 
1245:Generated_Source\PSoC6\pdl\drivers\peripheral\prot/cy_prot.c **** * \param config
1246:Generated_Source\PSoC6\pdl\drivers\peripheral\prot/cy_prot.c **** * Initialization structure with all the protection attributes.
1247:Generated_Source\PSoC6\pdl\drivers\peripheral\prot/cy_prot.c **** * 
1248:Generated_Source\PSoC6\pdl\drivers\peripheral\prot/cy_prot.c **** * \return
1249:Generated_Source\PSoC6\pdl\drivers\peripheral\prot/cy_prot.c **** * Status of the function call.
1250:Generated_Source\PSoC6\pdl\drivers\peripheral\prot/cy_prot.c **** *
1251:Generated_Source\PSoC6\pdl\drivers\peripheral\prot/cy_prot.c **** *   Status               | Description
1252:Generated_Source\PSoC6\pdl\drivers\peripheral\prot/cy_prot.c **** *   ------------         | -----------
1253:Generated_Source\PSoC6\pdl\drivers\peripheral\prot/cy_prot.c **** *   CY_PROT_SUCCESS      | PPU SL master struct was successfully configured
1254:Generated_Source\PSoC6\pdl\drivers\peripheral\prot/cy_prot.c **** *   CY_PROT_FAILURE      | The resource is locked
1255:Generated_Source\PSoC6\pdl\drivers\peripheral\prot/cy_prot.c **** *   CY_PROT_BAD_PARAM    | An incorrect/invalid parameter was passed
1256:Generated_Source\PSoC6\pdl\drivers\peripheral\prot/cy_prot.c **** *
1257:Generated_Source\PSoC6\pdl\drivers\peripheral\prot/cy_prot.c **** * \funcusage
1258:Generated_Source\PSoC6\pdl\drivers\peripheral\prot/cy_prot.c **** * \snippet prot/prot_v1_10_sut_01.cydsn/main_cm4.c snippet_Cy_Prot_ConfigPpuFixedSlMasterStruct
1259:Generated_Source\PSoC6\pdl\drivers\peripheral\prot/cy_prot.c **** *
1260:Generated_Source\PSoC6\pdl\drivers\peripheral\prot/cy_prot.c **** *******************************************************************************/
1261:Generated_Source\PSoC6\pdl\drivers\peripheral\prot/cy_prot.c **** cy_en_prot_status_t Cy_Prot_ConfigPpuFixedSlMasterStruct(PERI_GR_PPU_SL_Type* base, const cy_stc_pp
1262:Generated_Source\PSoC6\pdl\drivers\peripheral\prot/cy_prot.c **** {
 2117              		.loc 1 1262 0
 2118              		.cfi_startproc
 2119              		@ args = 0, pretend = 0, frame = 0
 2120              		@ frame_needed = 0, uses_anonymous_args = 0
 2121              	.LVL172:
 2122 0000 70B5     		push	{r4, r5, r6, lr}
 2123              		.cfi_def_cfa_offset 16
 2124              		.cfi_offset 4, -16
ARM GAS  C:\Users\gjl\AppData\Local\Temp\cc7xIfgu.s 			page 61


 2125              		.cfi_offset 5, -12
 2126              		.cfi_offset 6, -8
 2127              		.cfi_offset 14, -4
 2128 0002 0500     		movs	r5, r0
 2129 0004 0C00     		movs	r4, r1
1263:Generated_Source\PSoC6\pdl\drivers\peripheral\prot/cy_prot.c ****     cy_en_prot_status_t status;
1264:Generated_Source\PSoC6\pdl\drivers\peripheral\prot/cy_prot.c ****     uint32_t attReg;
1265:Generated_Source\PSoC6\pdl\drivers\peripheral\prot/cy_prot.c ****     
1266:Generated_Source\PSoC6\pdl\drivers\peripheral\prot/cy_prot.c ****     CY_ASSERT_L1(NULL != base);
 2130              		.loc 1 1266 0
 2131 0006 0028     		cmp	r0, #0
 2132 0008 03D1     		bne	.L190
 2133              		.loc 1 1266 0 is_stmt 0 discriminator 1
 2134 000a 2549     		ldr	r1, .L197
 2135              	.LVL173:
 2136 000c 2548     		ldr	r0, .L197+4
 2137              	.LVL174:
 2138 000e FFF7FEFF 		bl	Cy_SysLib_AssertFailed
 2139              	.LVL175:
 2140              	.L190:
1267:Generated_Source\PSoC6\pdl\drivers\peripheral\prot/cy_prot.c ****     CY_ASSERT_L3(CY_PROT_IS_FIXED_MS_PERM_VALID(config->userPermission));
 2141              		.loc 1 1267 0 is_stmt 1
 2142 0012 2378     		ldrb	r3, [r4]
 2143 0014 012B     		cmp	r3, #1
 2144 0016 05D0     		beq	.L191
 2145              		.loc 1 1267 0 is_stmt 0 discriminator 1
 2146 0018 032B     		cmp	r3, #3
 2147 001a 03D0     		beq	.L191
 2148              		.loc 1 1267 0 discriminator 2
 2149 001c 2249     		ldr	r1, .L197+8
 2150 001e 2148     		ldr	r0, .L197+4
 2151 0020 FFF7FEFF 		bl	Cy_SysLib_AssertFailed
 2152              	.LVL176:
 2153              	.L191:
1268:Generated_Source\PSoC6\pdl\drivers\peripheral\prot/cy_prot.c ****     CY_ASSERT_L3(CY_PROT_IS_FIXED_MS_PERM_VALID(config->privPermission));
 2154              		.loc 1 1268 0 is_stmt 1
 2155 0024 6378     		ldrb	r3, [r4, #1]
 2156 0026 012B     		cmp	r3, #1
 2157 0028 05D0     		beq	.L192
 2158              		.loc 1 1268 0 is_stmt 0 discriminator 1
 2159 002a 032B     		cmp	r3, #3
 2160 002c 03D0     		beq	.L192
 2161              		.loc 1 1268 0 discriminator 2
 2162 002e 1F49     		ldr	r1, .L197+12
 2163 0030 1C48     		ldr	r0, .L197+4
 2164 0032 FFF7FEFF 		bl	Cy_SysLib_AssertFailed
 2165              	.LVL177:
 2166              	.L192:
1269:Generated_Source\PSoC6\pdl\drivers\peripheral\prot/cy_prot.c ****     
1270:Generated_Source\PSoC6\pdl\drivers\peripheral\prot/cy_prot.c ****     if(((uint32_t)config->pcMask & CY_PROT_PPU_FIXED_PC_LIMIT_MASK) != 0UL) 
 2167              		.loc 1 1270 0 is_stmt 1
 2168 0036 A188     		ldrh	r1, [r4, #4]
 2169 0038 7F23     		movs	r3, #127
 2170 003a 0A00     		movs	r2, r1
 2171 003c 9A43     		bics	r2, r3
 2172 003e 28D1     		bne	.L194
1271:Generated_Source\PSoC6\pdl\drivers\peripheral\prot/cy_prot.c ****     {
ARM GAS  C:\Users\gjl\AppData\Local\Temp\cc7xIfgu.s 			page 62


1272:Generated_Source\PSoC6\pdl\drivers\peripheral\prot/cy_prot.c ****         /* PC mask out of range - not supported in device */
1273:Generated_Source\PSoC6\pdl\drivers\peripheral\prot/cy_prot.c ****         status = CY_PROT_BAD_PARAM;
1274:Generated_Source\PSoC6\pdl\drivers\peripheral\prot/cy_prot.c ****     }
1275:Generated_Source\PSoC6\pdl\drivers\peripheral\prot/cy_prot.c ****     else
1276:Generated_Source\PSoC6\pdl\drivers\peripheral\prot/cy_prot.c ****     {
1277:Generated_Source\PSoC6\pdl\drivers\peripheral\prot/cy_prot.c ****         /* ADDR1 is read only. Only configure ATT1 */
1278:Generated_Source\PSoC6\pdl\drivers\peripheral\prot/cy_prot.c ****         attReg = ((uint32_t)config->userPermission & CY_PROT_ATT_PERMISSION_MASK)
 2173              		.loc 1 1278 0
 2174 0040 2378     		ldrb	r3, [r4]
 2175 0042 0720     		movs	r0, #7
 2176 0044 1840     		ands	r0, r3
1279:Generated_Source\PSoC6\pdl\drivers\peripheral\prot/cy_prot.c ****                     | (uint32_t)(((uint32_t)config->privPermission & CY_PROT_ATT_PERMISSION_MASK) <
 2177              		.loc 1 1279 0
 2178 0046 6278     		ldrb	r2, [r4, #1]
 2179 0048 D200     		lsls	r2, r2, #3
 2180 004a 3823     		movs	r3, #56
 2181 004c 1340     		ands	r3, r2
 2182 004e 1843     		orrs	r0, r3
1280:Generated_Source\PSoC6\pdl\drivers\peripheral\prot/cy_prot.c ****                     | _VAL2FLD(PERI_GR_PPU_SL_ATT1_NS, !(config->secure))
 2183              		.loc 1 1280 0
 2184 0050 A378     		ldrb	r3, [r4, #2]
 2185 0052 0122     		movs	r2, #1
 2186 0054 5A40     		eors	r2, r3
 2187 0056 D2B2     		uxtb	r2, r2
 2188 0058 9201     		lsls	r2, r2, #6
 2189 005a 4023     		movs	r3, #64
 2190 005c 1A40     		ands	r2, r3
 2191 005e 0300     		movs	r3, r0
 2192 0060 1343     		orrs	r3, r2
1281:Generated_Source\PSoC6\pdl\drivers\peripheral\prot/cy_prot.c ****                     | _VAL2FLD(PERI_GR_PPU_SL_ATT1_PC_MASK_15_TO_1, config->pcMask)
 2193              		.loc 1 1281 0
 2194 0062 4902     		lsls	r1, r1, #9
 2195 0064 124A     		ldr	r2, .L197+16
 2196 0066 1140     		ands	r1, r2
 2197 0068 1943     		orrs	r1, r3
1282:Generated_Source\PSoC6\pdl\drivers\peripheral\prot/cy_prot.c ****                     /* No region size - read only for master structs */
1283:Generated_Source\PSoC6\pdl\drivers\peripheral\prot/cy_prot.c ****                     | _VAL2FLD(PERI_GR_PPU_SL_ATT1_PC_MATCH, config->pcMatch);
 2198              		.loc 1 1283 0
 2199 006a E378     		ldrb	r3, [r4, #3]
 2200 006c 9B07     		lsls	r3, r3, #30
 2201 006e 8020     		movs	r0, #128
 2202 0070 C005     		lsls	r0, r0, #23
 2203 0072 0340     		ands	r3, r0
 2204 0074 1A00     		movs	r2, r3
1278:Generated_Source\PSoC6\pdl\drivers\peripheral\prot/cy_prot.c ****                     | (uint32_t)(((uint32_t)config->privPermission & CY_PROT_ATT_PERMISSION_MASK) <
 2205              		.loc 1 1278 0
 2206 0076 0B00     		movs	r3, r1
 2207 0078 1343     		orrs	r3, r2
 2208              	.LVL178:
1284:Generated_Source\PSoC6\pdl\drivers\peripheral\prot/cy_prot.c ****         if ((attReg & CY_PROT_PPU_SL_ATT1_MASK) != attReg)
 2209              		.loc 1 1284 0
 2210 007a 0E4A     		ldr	r2, .L197+20
 2211 007c 1A40     		ands	r2, r3
 2212 007e 9342     		cmp	r3, r2
 2213 0080 09D1     		bne	.L195
1285:Generated_Source\PSoC6\pdl\drivers\peripheral\prot/cy_prot.c ****         {
1286:Generated_Source\PSoC6\pdl\drivers\peripheral\prot/cy_prot.c ****             /* Invalid parameter was passed */
ARM GAS  C:\Users\gjl\AppData\Local\Temp\cc7xIfgu.s 			page 63


1287:Generated_Source\PSoC6\pdl\drivers\peripheral\prot/cy_prot.c ****             status = CY_PROT_BAD_PARAM;
1288:Generated_Source\PSoC6\pdl\drivers\peripheral\prot/cy_prot.c ****         }
1289:Generated_Source\PSoC6\pdl\drivers\peripheral\prot/cy_prot.c ****         else
1290:Generated_Source\PSoC6\pdl\drivers\peripheral\prot/cy_prot.c ****         {
1291:Generated_Source\PSoC6\pdl\drivers\peripheral\prot/cy_prot.c ****             base->ATT1 = attReg;
 2214              		.loc 1 1291 0
 2215 0082 6B62     		str	r3, [r5, #36]
1292:Generated_Source\PSoC6\pdl\drivers\peripheral\prot/cy_prot.c ****             status = ((base->ATT1 & CY_PROT_PPU_SL_ATT1_MASK) != attReg) ? CY_PROT_FAILURE : CY_PRO
 2216              		.loc 1 1292 0
 2217 0084 696A     		ldr	r1, [r5, #36]
 2218 0086 0B4A     		ldr	r2, .L197+20
 2219 0088 0A40     		ands	r2, r1
 2220 008a 9342     		cmp	r3, r2
 2221 008c 05D0     		beq	.L196
 2222 008e 0A48     		ldr	r0, .L197+24
 2223 0090 04E0     		b	.L193
 2224              	.LVL179:
 2225              	.L194:
1273:Generated_Source\PSoC6\pdl\drivers\peripheral\prot/cy_prot.c ****     }
 2226              		.loc 1 1273 0
 2227 0092 0A48     		ldr	r0, .L197+28
 2228 0094 02E0     		b	.L193
 2229              	.LVL180:
 2230              	.L195:
1287:Generated_Source\PSoC6\pdl\drivers\peripheral\prot/cy_prot.c ****         }
 2231              		.loc 1 1287 0
 2232 0096 0948     		ldr	r0, .L197+28
 2233 0098 00E0     		b	.L193
 2234              	.L196:
 2235              		.loc 1 1292 0
 2236 009a 0020     		movs	r0, #0
 2237              	.LVL181:
 2238              	.L193:
1293:Generated_Source\PSoC6\pdl\drivers\peripheral\prot/cy_prot.c ****         }
1294:Generated_Source\PSoC6\pdl\drivers\peripheral\prot/cy_prot.c ****     }
1295:Generated_Source\PSoC6\pdl\drivers\peripheral\prot/cy_prot.c ****     
1296:Generated_Source\PSoC6\pdl\drivers\peripheral\prot/cy_prot.c ****     return status;
1297:Generated_Source\PSoC6\pdl\drivers\peripheral\prot/cy_prot.c **** }
 2239              		.loc 1 1297 0
 2240              		@ sp needed
 2241              	.LVL182:
 2242              	.LVL183:
 2243 009c 70BD     		pop	{r4, r5, r6, pc}
 2244              	.L198:
 2245 009e C046     		.align	2
 2246              	.L197:
 2247 00a0 F2040000 		.word	1266
 2248 00a4 00000000 		.word	.LC0
 2249 00a8 F3040000 		.word	1267
 2250 00ac F4040000 		.word	1268
 2251 00b0 00FEFF00 		.word	16776704
 2252 00b4 DBFEFFE0 		.word	-520093989
 2253 00b8 0300C200 		.word	12713987
 2254 00bc 0100C200 		.word	12713985
 2255              		.cfi_endproc
 2256              	.LFE60:
 2257              		.size	Cy_Prot_ConfigPpuFixedSlMasterStruct, .-Cy_Prot_ConfigPpuFixedSlMasterStruct
ARM GAS  C:\Users\gjl\AppData\Local\Temp\cc7xIfgu.s 			page 64


 2258              		.section	.text.Cy_Prot_ConfigPpuFixedSlSlaveStruct,"ax",%progbits
 2259              		.align	2
 2260              		.global	Cy_Prot_ConfigPpuFixedSlSlaveStruct
 2261              		.code	16
 2262              		.thumb_func
 2263              		.type	Cy_Prot_ConfigPpuFixedSlSlaveStruct, %function
 2264              	Cy_Prot_ConfigPpuFixedSlSlaveStruct:
 2265              	.LFB61:
1298:Generated_Source\PSoC6\pdl\drivers\peripheral\prot/cy_prot.c **** 
1299:Generated_Source\PSoC6\pdl\drivers\peripheral\prot/cy_prot.c **** 
1300:Generated_Source\PSoC6\pdl\drivers\peripheral\prot/cy_prot.c **** /*******************************************************************************
1301:Generated_Source\PSoC6\pdl\drivers\peripheral\prot/cy_prot.c **** * Function Name: Cy_Prot_ConfigPpuFixedSlSlaveStruct
1302:Generated_Source\PSoC6\pdl\drivers\peripheral\prot/cy_prot.c **** ****************************************************************************//**
1303:Generated_Source\PSoC6\pdl\drivers\peripheral\prot/cy_prot.c **** *
1304:Generated_Source\PSoC6\pdl\drivers\peripheral\prot/cy_prot.c **** * \brief Configures a Fixed Peripheral Slave Protection Unit (PPU SL) slave
1305:Generated_Source\PSoC6\pdl\drivers\peripheral\prot/cy_prot.c **** * protection struct with its protection attributes. 
1306:Generated_Source\PSoC6\pdl\drivers\peripheral\prot/cy_prot.c **** * 
1307:Generated_Source\PSoC6\pdl\drivers\peripheral\prot/cy_prot.c **** * This function configures the slave struct of a PPU SL pair, which can 
1308:Generated_Source\PSoC6\pdl\drivers\peripheral\prot/cy_prot.c **** * protect an entire peripheral slave instance from invalid bus master accesses.
1309:Generated_Source\PSoC6\pdl\drivers\peripheral\prot/cy_prot.c **** * For example, TCPWM0, TCPWM1, SCB0 and SCB1 etc.
1310:Generated_Source\PSoC6\pdl\drivers\peripheral\prot/cy_prot.c **** *
1311:Generated_Source\PSoC6\pdl\drivers\peripheral\prot/cy_prot.c **** * Each fixed PPU SL is devoted to a defined peripheral slave. Hence the address, 
1312:Generated_Source\PSoC6\pdl\drivers\peripheral\prot/cy_prot.c **** * regionSize and subregions of the configuration struct are not applicable.
1313:Generated_Source\PSoC6\pdl\drivers\peripheral\prot/cy_prot.c **** *
1314:Generated_Source\PSoC6\pdl\drivers\peripheral\prot/cy_prot.c **** * Note that the user/privileged execute accesses are read-only and are always 
1315:Generated_Source\PSoC6\pdl\drivers\peripheral\prot/cy_prot.c **** * enabled. 
1316:Generated_Source\PSoC6\pdl\drivers\peripheral\prot/cy_prot.c **** *
1317:Generated_Source\PSoC6\pdl\drivers\peripheral\prot/cy_prot.c **** * \param base
1318:Generated_Source\PSoC6\pdl\drivers\peripheral\prot/cy_prot.c **** * The register base address of the protection structure being configured.
1319:Generated_Source\PSoC6\pdl\drivers\peripheral\prot/cy_prot.c **** * 
1320:Generated_Source\PSoC6\pdl\drivers\peripheral\prot/cy_prot.c **** * \param config
1321:Generated_Source\PSoC6\pdl\drivers\peripheral\prot/cy_prot.c **** * Initialization structure with all the protection attributes.
1322:Generated_Source\PSoC6\pdl\drivers\peripheral\prot/cy_prot.c **** * 
1323:Generated_Source\PSoC6\pdl\drivers\peripheral\prot/cy_prot.c **** * \return
1324:Generated_Source\PSoC6\pdl\drivers\peripheral\prot/cy_prot.c **** * Status of the function call.
1325:Generated_Source\PSoC6\pdl\drivers\peripheral\prot/cy_prot.c **** *
1326:Generated_Source\PSoC6\pdl\drivers\peripheral\prot/cy_prot.c **** *   Status               | Description
1327:Generated_Source\PSoC6\pdl\drivers\peripheral\prot/cy_prot.c **** *   ------------         | -----------
1328:Generated_Source\PSoC6\pdl\drivers\peripheral\prot/cy_prot.c **** *   CY_PROT_SUCCESS      | PPU SL slave struct was successfully configured
1329:Generated_Source\PSoC6\pdl\drivers\peripheral\prot/cy_prot.c **** *   CY_PROT_FAILURE      | The resource is locked
1330:Generated_Source\PSoC6\pdl\drivers\peripheral\prot/cy_prot.c **** *   CY_PROT_BAD_PARAM    | An incorrect/invalid parameter was passed
1331:Generated_Source\PSoC6\pdl\drivers\peripheral\prot/cy_prot.c **** *
1332:Generated_Source\PSoC6\pdl\drivers\peripheral\prot/cy_prot.c **** * \funcusage
1333:Generated_Source\PSoC6\pdl\drivers\peripheral\prot/cy_prot.c **** * \snippet prot/prot_v1_10_sut_01.cydsn/main_cm4.c snippet_Cy_Prot_ConfigPpuFixedSlSlaveStruct
1334:Generated_Source\PSoC6\pdl\drivers\peripheral\prot/cy_prot.c **** *
1335:Generated_Source\PSoC6\pdl\drivers\peripheral\prot/cy_prot.c **** *******************************************************************************/
1336:Generated_Source\PSoC6\pdl\drivers\peripheral\prot/cy_prot.c **** cy_en_prot_status_t Cy_Prot_ConfigPpuFixedSlSlaveStruct(PERI_GR_PPU_SL_Type* base, const cy_stc_ppu
1337:Generated_Source\PSoC6\pdl\drivers\peripheral\prot/cy_prot.c **** {
 2266              		.loc 1 1337 0
 2267              		.cfi_startproc
 2268              		@ args = 0, pretend = 0, frame = 0
 2269              		@ frame_needed = 0, uses_anonymous_args = 0
 2270              	.LVL184:
 2271 0000 70B5     		push	{r4, r5, r6, lr}
 2272              		.cfi_def_cfa_offset 16
 2273              		.cfi_offset 4, -16
 2274              		.cfi_offset 5, -12
ARM GAS  C:\Users\gjl\AppData\Local\Temp\cc7xIfgu.s 			page 65


 2275              		.cfi_offset 6, -8
 2276              		.cfi_offset 14, -4
 2277 0002 0500     		movs	r5, r0
 2278 0004 0C00     		movs	r4, r1
1338:Generated_Source\PSoC6\pdl\drivers\peripheral\prot/cy_prot.c ****     cy_en_prot_status_t status;
1339:Generated_Source\PSoC6\pdl\drivers\peripheral\prot/cy_prot.c ****     uint32_t attReg;
1340:Generated_Source\PSoC6\pdl\drivers\peripheral\prot/cy_prot.c ****     
1341:Generated_Source\PSoC6\pdl\drivers\peripheral\prot/cy_prot.c ****     CY_ASSERT_L1(NULL != base);
 2279              		.loc 1 1341 0
 2280 0006 0028     		cmp	r0, #0
 2281 0008 03D1     		bne	.L200
 2282              		.loc 1 1341 0 is_stmt 0 discriminator 1
 2283 000a 2349     		ldr	r1, .L207
 2284              	.LVL185:
 2285 000c 2348     		ldr	r0, .L207+4
 2286              	.LVL186:
 2287 000e FFF7FEFF 		bl	Cy_SysLib_AssertFailed
 2288              	.LVL187:
 2289              	.L200:
1342:Generated_Source\PSoC6\pdl\drivers\peripheral\prot/cy_prot.c ****     CY_ASSERT_L3(CY_PROT_IS_FIXED_SL_PERM_VALID(config->userPermission));
 2290              		.loc 1 1342 0 is_stmt 1
 2291 0012 2378     		ldrb	r3, [r4]
 2292 0014 032B     		cmp	r3, #3
 2293 0016 03D9     		bls	.L201
 2294              		.loc 1 1342 0 is_stmt 0 discriminator 1
 2295 0018 2149     		ldr	r1, .L207+8
 2296 001a 2048     		ldr	r0, .L207+4
 2297 001c FFF7FEFF 		bl	Cy_SysLib_AssertFailed
 2298              	.LVL188:
 2299              	.L201:
1343:Generated_Source\PSoC6\pdl\drivers\peripheral\prot/cy_prot.c ****     CY_ASSERT_L3(CY_PROT_IS_FIXED_SL_PERM_VALID(config->privPermission));
 2300              		.loc 1 1343 0 is_stmt 1
 2301 0020 6378     		ldrb	r3, [r4, #1]
 2302 0022 032B     		cmp	r3, #3
 2303 0024 03D9     		bls	.L202
 2304              		.loc 1 1343 0 is_stmt 0 discriminator 1
 2305 0026 1F49     		ldr	r1, .L207+12
 2306 0028 1C48     		ldr	r0, .L207+4
 2307 002a FFF7FEFF 		bl	Cy_SysLib_AssertFailed
 2308              	.LVL189:
 2309              	.L202:
1344:Generated_Source\PSoC6\pdl\drivers\peripheral\prot/cy_prot.c ****     
1345:Generated_Source\PSoC6\pdl\drivers\peripheral\prot/cy_prot.c ****     if(((uint32_t)config->pcMask & CY_PROT_PPU_FIXED_PC_LIMIT_MASK) != 0UL) 
 2310              		.loc 1 1345 0 is_stmt 1
 2311 002e A188     		ldrh	r1, [r4, #4]
 2312 0030 7F23     		movs	r3, #127
 2313 0032 0A00     		movs	r2, r1
 2314 0034 9A43     		bics	r2, r3
 2315 0036 28D1     		bne	.L204
1346:Generated_Source\PSoC6\pdl\drivers\peripheral\prot/cy_prot.c ****     {
1347:Generated_Source\PSoC6\pdl\drivers\peripheral\prot/cy_prot.c ****         /* PC mask out of range - not supported in device */
1348:Generated_Source\PSoC6\pdl\drivers\peripheral\prot/cy_prot.c ****         status = CY_PROT_BAD_PARAM;
1349:Generated_Source\PSoC6\pdl\drivers\peripheral\prot/cy_prot.c ****     }
1350:Generated_Source\PSoC6\pdl\drivers\peripheral\prot/cy_prot.c ****     else
1351:Generated_Source\PSoC6\pdl\drivers\peripheral\prot/cy_prot.c ****     {
1352:Generated_Source\PSoC6\pdl\drivers\peripheral\prot/cy_prot.c ****         /* ADDR0 is read only. Only configure ATT0 */
1353:Generated_Source\PSoC6\pdl\drivers\peripheral\prot/cy_prot.c ****         attReg = ((uint32_t)config->userPermission & CY_PROT_ATT_PERMISSION_MASK)
ARM GAS  C:\Users\gjl\AppData\Local\Temp\cc7xIfgu.s 			page 66


 2316              		.loc 1 1353 0
 2317 0038 2378     		ldrb	r3, [r4]
 2318 003a 0720     		movs	r0, #7
 2319 003c 1840     		ands	r0, r3
1354:Generated_Source\PSoC6\pdl\drivers\peripheral\prot/cy_prot.c ****                     | (uint32_t)(((uint32_t)config->privPermission & CY_PROT_ATT_PERMISSION_MASK) <
 2320              		.loc 1 1354 0
 2321 003e 6278     		ldrb	r2, [r4, #1]
 2322 0040 D200     		lsls	r2, r2, #3
 2323 0042 3823     		movs	r3, #56
 2324 0044 1340     		ands	r3, r2
 2325 0046 1843     		orrs	r0, r3
1355:Generated_Source\PSoC6\pdl\drivers\peripheral\prot/cy_prot.c ****                     | _VAL2FLD(PERI_GR_PPU_SL_ATT0_NS, !(config->secure))
 2326              		.loc 1 1355 0
 2327 0048 A378     		ldrb	r3, [r4, #2]
 2328 004a 0122     		movs	r2, #1
 2329 004c 5A40     		eors	r2, r3
 2330 004e D2B2     		uxtb	r2, r2
 2331 0050 9201     		lsls	r2, r2, #6
 2332 0052 4023     		movs	r3, #64
 2333 0054 1A40     		ands	r2, r3
 2334 0056 0300     		movs	r3, r0
 2335 0058 1343     		orrs	r3, r2
1356:Generated_Source\PSoC6\pdl\drivers\peripheral\prot/cy_prot.c ****                     | _VAL2FLD(PERI_GR_PPU_SL_ATT0_PC_MASK_15_TO_1, config->pcMask)
 2336              		.loc 1 1356 0
 2337 005a 4902     		lsls	r1, r1, #9
 2338 005c 124A     		ldr	r2, .L207+16
 2339 005e 1140     		ands	r1, r2
 2340 0060 1943     		orrs	r1, r3
1357:Generated_Source\PSoC6\pdl\drivers\peripheral\prot/cy_prot.c ****                     /* No region size - read only */
1358:Generated_Source\PSoC6\pdl\drivers\peripheral\prot/cy_prot.c ****                     | _VAL2FLD(PERI_GR_PPU_SL_ATT0_PC_MATCH, config->pcMatch);
 2341              		.loc 1 1358 0
 2342 0062 E378     		ldrb	r3, [r4, #3]
 2343 0064 9B07     		lsls	r3, r3, #30
 2344 0066 8020     		movs	r0, #128
 2345 0068 C005     		lsls	r0, r0, #23
 2346 006a 0340     		ands	r3, r0
 2347 006c 1A00     		movs	r2, r3
1353:Generated_Source\PSoC6\pdl\drivers\peripheral\prot/cy_prot.c ****                     | (uint32_t)(((uint32_t)config->privPermission & CY_PROT_ATT_PERMISSION_MASK) <
 2348              		.loc 1 1353 0
 2349 006e 0B00     		movs	r3, r1
 2350 0070 1343     		orrs	r3, r2
 2351              	.LVL190:
1359:Generated_Source\PSoC6\pdl\drivers\peripheral\prot/cy_prot.c ****         if ((attReg & CY_PROT_PPU_SL_ATT0_MASK) != attReg)
 2352              		.loc 1 1359 0
 2353 0072 0E4A     		ldr	r2, .L207+20
 2354 0074 1A40     		ands	r2, r3
 2355 0076 9342     		cmp	r3, r2
 2356 0078 09D1     		bne	.L205
1360:Generated_Source\PSoC6\pdl\drivers\peripheral\prot/cy_prot.c ****         {
1361:Generated_Source\PSoC6\pdl\drivers\peripheral\prot/cy_prot.c ****             /* Invalid parameter was passed */
1362:Generated_Source\PSoC6\pdl\drivers\peripheral\prot/cy_prot.c ****             status = CY_PROT_BAD_PARAM;
1363:Generated_Source\PSoC6\pdl\drivers\peripheral\prot/cy_prot.c ****         }
1364:Generated_Source\PSoC6\pdl\drivers\peripheral\prot/cy_prot.c ****         else
1365:Generated_Source\PSoC6\pdl\drivers\peripheral\prot/cy_prot.c ****         {
1366:Generated_Source\PSoC6\pdl\drivers\peripheral\prot/cy_prot.c ****             base->ATT0 = attReg;
 2357              		.loc 1 1366 0
 2358 007a 6B60     		str	r3, [r5, #4]
ARM GAS  C:\Users\gjl\AppData\Local\Temp\cc7xIfgu.s 			page 67


1367:Generated_Source\PSoC6\pdl\drivers\peripheral\prot/cy_prot.c ****             status = ((base->ATT0 & CY_PROT_PPU_SL_ATT0_MASK) != attReg) ? CY_PROT_FAILURE : CY_PRO
 2359              		.loc 1 1367 0
 2360 007c 6968     		ldr	r1, [r5, #4]
 2361 007e 0B4A     		ldr	r2, .L207+20
 2362 0080 0A40     		ands	r2, r1
 2363 0082 9342     		cmp	r3, r2
 2364 0084 05D0     		beq	.L206
 2365 0086 0A48     		ldr	r0, .L207+24
 2366 0088 04E0     		b	.L203
 2367              	.LVL191:
 2368              	.L204:
1348:Generated_Source\PSoC6\pdl\drivers\peripheral\prot/cy_prot.c ****     }
 2369              		.loc 1 1348 0
 2370 008a 0A48     		ldr	r0, .L207+28
 2371 008c 02E0     		b	.L203
 2372              	.LVL192:
 2373              	.L205:
1362:Generated_Source\PSoC6\pdl\drivers\peripheral\prot/cy_prot.c ****         }
 2374              		.loc 1 1362 0
 2375 008e 0948     		ldr	r0, .L207+28
 2376 0090 00E0     		b	.L203
 2377              	.L206:
 2378              		.loc 1 1367 0
 2379 0092 0020     		movs	r0, #0
 2380              	.LVL193:
 2381              	.L203:
1368:Generated_Source\PSoC6\pdl\drivers\peripheral\prot/cy_prot.c ****         }
1369:Generated_Source\PSoC6\pdl\drivers\peripheral\prot/cy_prot.c ****     }
1370:Generated_Source\PSoC6\pdl\drivers\peripheral\prot/cy_prot.c ****     
1371:Generated_Source\PSoC6\pdl\drivers\peripheral\prot/cy_prot.c ****     return status;
1372:Generated_Source\PSoC6\pdl\drivers\peripheral\prot/cy_prot.c **** }
 2382              		.loc 1 1372 0
 2383              		@ sp needed
 2384              	.LVL194:
 2385              	.LVL195:
 2386 0094 70BD     		pop	{r4, r5, r6, pc}
 2387              	.L208:
 2388 0096 C046     		.align	2
 2389              	.L207:
 2390 0098 3D050000 		.word	1341
 2391 009c 00000000 		.word	.LC0
 2392 00a0 3E050000 		.word	1342
 2393 00a4 3F050000 		.word	1343
 2394 00a8 00FEFF00 		.word	16776704
 2395 00ac DBFEFFE0 		.word	-520093989
 2396 00b0 0300C200 		.word	12713987
 2397 00b4 0100C200 		.word	12713985
 2398              		.cfi_endproc
 2399              	.LFE61:
 2400              		.size	Cy_Prot_ConfigPpuFixedSlSlaveStruct, .-Cy_Prot_ConfigPpuFixedSlSlaveStruct
 2401              		.section	.text.Cy_Prot_EnablePpuFixedSlMasterStruct,"ax",%progbits
 2402              		.align	2
 2403              		.global	Cy_Prot_EnablePpuFixedSlMasterStruct
 2404              		.code	16
 2405              		.thumb_func
 2406              		.type	Cy_Prot_EnablePpuFixedSlMasterStruct, %function
 2407              	Cy_Prot_EnablePpuFixedSlMasterStruct:
ARM GAS  C:\Users\gjl\AppData\Local\Temp\cc7xIfgu.s 			page 68


 2408              	.LFB62:
1373:Generated_Source\PSoC6\pdl\drivers\peripheral\prot/cy_prot.c **** 
1374:Generated_Source\PSoC6\pdl\drivers\peripheral\prot/cy_prot.c **** 
1375:Generated_Source\PSoC6\pdl\drivers\peripheral\prot/cy_prot.c **** /*******************************************************************************
1376:Generated_Source\PSoC6\pdl\drivers\peripheral\prot/cy_prot.c **** * Function Name: Cy_Prot_EnablePpuFixedSlMasterStruct
1377:Generated_Source\PSoC6\pdl\drivers\peripheral\prot/cy_prot.c **** ****************************************************************************//**
1378:Generated_Source\PSoC6\pdl\drivers\peripheral\prot/cy_prot.c **** *
1379:Generated_Source\PSoC6\pdl\drivers\peripheral\prot/cy_prot.c **** * \brief Enables the Master PPU SL structure.
1380:Generated_Source\PSoC6\pdl\drivers\peripheral\prot/cy_prot.c **** *
1381:Generated_Source\PSoC6\pdl\drivers\peripheral\prot/cy_prot.c **** * This is a PPU SL master struct enable function. The PPU SL protection 
1382:Generated_Source\PSoC6\pdl\drivers\peripheral\prot/cy_prot.c **** * settings will take effect after successful completion of this function call.
1383:Generated_Source\PSoC6\pdl\drivers\peripheral\prot/cy_prot.c **** *
1384:Generated_Source\PSoC6\pdl\drivers\peripheral\prot/cy_prot.c **** * \param base
1385:Generated_Source\PSoC6\pdl\drivers\peripheral\prot/cy_prot.c **** * The base address for the protection unit structure being configured. 
1386:Generated_Source\PSoC6\pdl\drivers\peripheral\prot/cy_prot.c **** *
1387:Generated_Source\PSoC6\pdl\drivers\peripheral\prot/cy_prot.c **** * \return
1388:Generated_Source\PSoC6\pdl\drivers\peripheral\prot/cy_prot.c **** * Status of the function call.
1389:Generated_Source\PSoC6\pdl\drivers\peripheral\prot/cy_prot.c **** *
1390:Generated_Source\PSoC6\pdl\drivers\peripheral\prot/cy_prot.c **** *   Status               | Description
1391:Generated_Source\PSoC6\pdl\drivers\peripheral\prot/cy_prot.c **** *   ------------         | -----------
1392:Generated_Source\PSoC6\pdl\drivers\peripheral\prot/cy_prot.c **** *   CY_PROT_SUCCESS      | The Master PU struct was enabled
1393:Generated_Source\PSoC6\pdl\drivers\peripheral\prot/cy_prot.c **** *   CY_PROT_FAILURE      | The Master PU struct is disabled and possibly locked
1394:Generated_Source\PSoC6\pdl\drivers\peripheral\prot/cy_prot.c **** *
1395:Generated_Source\PSoC6\pdl\drivers\peripheral\prot/cy_prot.c **** * \funcusage
1396:Generated_Source\PSoC6\pdl\drivers\peripheral\prot/cy_prot.c **** * \snippet prot/prot_v1_10_sut_01.cydsn/main_cm4.c snippet_Cy_Prot_EnablePpuFixedSlMasterStruct
1397:Generated_Source\PSoC6\pdl\drivers\peripheral\prot/cy_prot.c **** *
1398:Generated_Source\PSoC6\pdl\drivers\peripheral\prot/cy_prot.c **** *******************************************************************************/
1399:Generated_Source\PSoC6\pdl\drivers\peripheral\prot/cy_prot.c **** cy_en_prot_status_t Cy_Prot_EnablePpuFixedSlMasterStruct(PERI_GR_PPU_SL_Type* base)
1400:Generated_Source\PSoC6\pdl\drivers\peripheral\prot/cy_prot.c **** {
 2409              		.loc 1 1400 0
